ARM GAS  C:\Users\TERENC~1\AppData\Local\Temp\ccvWNLDK.s 			page 1


   1              		.syntax unified
   2              		.cpu cortex-m0
   3              		.fpu softvfp
   4              		.eabi_attribute 20, 1
   5              		.eabi_attribute 21, 1
   6              		.eabi_attribute 23, 3
   7              		.eabi_attribute 24, 1
   8              		.eabi_attribute 25, 1
   9              		.eabi_attribute 26, 1
  10              		.eabi_attribute 30, 1
  11              		.eabi_attribute 34, 0
  12              		.eabi_attribute 18, 4
  13              		.thumb
  14              		.syntax unified
  15              		.file	"Application.c"
  16              		.text
  17              	.Ltext0:
  18              		.cfi_sections	.debug_frame
  19              		.section	.text.Update_VolumeAudioOut,"ax",%progbits
  20              		.align	2
  21              		.global	Update_VolumeAudioOut
  22              		.code	16
  23              		.thumb_func
  24              		.type	Update_VolumeAudioOut, %function
  25              	Update_VolumeAudioOut:
  26              	.LFB357:
  27              		.file 1 "Application.c"
   1:Application.c **** /*******************************************************************************
   2:Application.c **** * File Name: Application.c
   3:Application.c **** *
   4:Application.c **** * Version 1.0
   5:Application.c **** *
   6:Application.c **** *  Description: This file contains all the application layer code which performs
   7:Application.c **** *               the user interface handling
   8:Application.c **** *
   9:Application.c **** *******************************************************************************
  10:Application.c **** * Copyright (2018), Cypress Semiconductor Corporation. All rights reserved.
  11:Application.c **** *******************************************************************************
  12:Application.c **** * This software, including source code, documentation and related materials
  13:Application.c **** * (“Software”), is owned by Cypress Semiconductor Corporation or one of its
  14:Application.c **** * subsidiaries (“Cypress”) and is protected by and subject to worldwide patent
  15:Application.c **** * protection (United States and foreign), United States copyright laws and
  16:Application.c **** * international treaty provisions. Therefore, you may use this Software only
  17:Application.c **** * as provided in the license agreement accompanying the software package from
  18:Application.c **** * which you obtained this Software (“EULA”).
  19:Application.c **** *
  20:Application.c **** * If no EULA applies, Cypress hereby grants you a personal, nonexclusive,
  21:Application.c **** * non-transferable license to copy, modify, and compile the Software source
  22:Application.c **** * code solely for use in connection with Cypress’s integrated circuit products.
  23:Application.c **** * Any reproduction, modification, translation, compilation, or representation
  24:Application.c **** * of this Software except as specified above is prohibited without the express
  25:Application.c **** * written permission of Cypress.
  26:Application.c **** *
  27:Application.c **** * Disclaimer: THIS SOFTWARE IS PROVIDED AS-IS, WITH NO WARRANTY OF ANY KIND, 
  28:Application.c **** * EXPRESS OR IMPLIED, INCLUDING, BUT NOT LIMITED TO, NONINFRINGEMENT, IMPLIED 
  29:Application.c **** * WARRANTIES OF MERCHANTABILITY AND FITNESS FOR A PARTICULAR PURPOSE. Cypress 
  30:Application.c **** * reserves the right to make changes to the Software without notice. Cypress 
ARM GAS  C:\Users\TERENC~1\AppData\Local\Temp\ccvWNLDK.s 			page 2


  31:Application.c **** * does not assume any liability arising out of the application or use of the 
  32:Application.c **** * Software or any product or circuit described in the Software. Cypress does 
  33:Application.c **** * not authorize its products for use in any products where a malfunction or 
  34:Application.c **** * failure of the Cypress product may reasonably be expected to result in 
  35:Application.c **** * significant property damage, injury or death (“High Risk Product”). By 
  36:Application.c **** * including Cypress’s product in a High Risk Product, the manufacturer of such 
  37:Application.c **** * system or application assumes all risk of such use and in doing so agrees to 
  38:Application.c **** * indemnify Cypress against all liability.
  39:Application.c **** *******************************************************************************/
  40:Application.c **** #include <Application.h>
  41:Application.c **** #include <AudioControl.h>
  42:Application.c **** #include <Config.h>
  43:Application.c **** #include <project.h>
  44:Application.c **** #include <Interrupts.h>
  45:Application.c **** #include <stdio.h>
  46:Application.c **** #include <USBInterface.h>
  47:Application.c **** #include <Codec.h>
  48:Application.c **** #include <TkShell.h>
  49:Application.c **** #include <VolumeControl.h>
  50:Application.c **** #include <pcm1770.h>
  51:Application.c **** #include <Calibration.h>
  52:Application.c **** 
  53:Application.c **** extern CYPDATA uint8 audioSource;
  54:Application.c **** extern CYDATA uint8 auxConfigured;
  55:Application.c **** 
  56:Application.c **** extern uint32 accSliderDelta;
  57:Application.c **** 
  58:Application.c **** uint8 playlistControlReport;
  59:Application.c **** uint8 prevReport = 0;
  60:Application.c **** uint8 audioControlStatus;
  61:Application.c **** uint8 reportClearFlag;
  62:Application.c **** 
  63:Application.c **** char gbuf[256];
  64:Application.c **** 
  65:Application.c **** extern volatile uint8 USBFS_currentVolume[];
  66:Application.c **** extern volatile uint8 USBFS_currentMute;
  67:Application.c **** extern CYPDATA uint8 newRate;
  68:Application.c **** 
  69:Application.c **** /*******************************************************************************
  70:Application.c **** * Function Name: InitApp
  71:Application.c **** ********************************************************************************
  72:Application.c **** * Summary:
  73:Application.c **** *        This function configures the application layer hardware modules and
  74:Application.c **** *        clocks to be in sync with the audio clock updates done in 
  75:Application.c **** *        InitializeAudioPath API
  76:Application.c **** *
  77:Application.c **** * Parameters:
  78:Application.c **** *  void
  79:Application.c **** *
  80:Application.c **** * Return:
  81:Application.c **** *  void
  82:Application.c **** *
  83:Application.c **** *******************************************************************************/
  84:Application.c **** void InitApp(void)
  85:Application.c **** {
  86:Application.c ****     /* Configure CPU/DMA to be in round robin mode while accessing memory */
  87:Application.c **** 	CY_SET_REG32((void *) 0x40100038, CY_GET_REG32((void *) 0x40100038) | 0x22222222);     
ARM GAS  C:\Users\TERENC~1\AppData\Local\Temp\ccvWNLDK.s 			page 3


  88:Application.c **** 	
  89:Application.c **** 	CyGlobalIntEnable;
  90:Application.c **** 
  91:Application.c ****     CalibrationInit();
  92:Application.c **** 	
  93:Application.c ****     #ifdef TXDEBUG
  94:Application.c **** 		UART_Start();
  95:Application.c **** 
  96:Application.c ****         PRINTF("\r\n=== v%d.%d.%d ===\r\n", FW_VER_MAJOR, FW_VER_MINOR, FW_VER_REV);
  97:Application.c **** 
  98:Application.c **** 		if(CySysGetResetReason(CY_SYS_RESET_SW) != CY_SYS_RESET_SW)
  99:Application.c **** 		{
 100:Application.c **** 			D_PRINTF(INFO, "\r\nApp Started...\r\n");
 101:Application.c **** 		}
 102:Application.c **** 		else
 103:Application.c **** 		{
 104:Application.c **** 			D_PRINTF(INFO, "\r\nApp Restarted after SW reset...\r\n");
 105:Application.c **** 		}
 106:Application.c **** 	#endif /* #ifdef TXDEBUG */
 107:Application.c **** 
 108:Application.c ****     /* Start I2C Master */
 109:Application.c ****     CodecI2CM_Start();	
 110:Application.c **** 	
 111:Application.c **** 	if(Codec_Init() == 0)
 112:Application.c **** 	{
 113:Application.c **** 		D_PRINTF(INFO, "Codec comm works!... \r\n");
 114:Application.c **** 	}
 115:Application.c **** 	else
 116:Application.c **** 	{
 117:Application.c **** 		D_PRINTF(ERROR, "Codec comm DOESN'T work!... \r\n");
 118:Application.c **** 	}
 119:Application.c **** 	
 120:Application.c **** 	Update_VolumeAudioOut();
 121:Application.c **** 	
 122:Application.c **** 	I2S_Start();	
 123:Application.c **** 	
 124:Application.c **** 	USBFS_Start(PC_MAC_AUDIO_WITH_VOLUME_DEVICE, USBFS_5V_OPERATION);
 125:Application.c ****     USBDeviceState = USB_INIT_AFTER_ENUMERATION_REQUIRED;
 126:Application.c **** 	
 127:Application.c **** 	/* Enables SOF interrupt source */
 128:Application.c ****     USBFS_INTR_SIE_MASK_REG |= USBFS_INTR_SIE_SOF_INTR;
 129:Application.c **** 
 130:Application.c **** 	while(USBFS_GetConfiguration());
 131:Application.c **** 	
 132:Application.c **** 	CyIntSetPriority(CYDMA_INTR_NUMBER, 0);
 133:Application.c **** 	
 134:Application.c **** 	USBFS_LoadInEP(MAC_PC_HID_CONTROL_ENDPOINT, &playlistControlReport, sizeof(playlistControlReport))
 135:Application.c **** 	USBFS_LoadInEP(MAC_PC_HID_CONTROL_ENDPOINT, USBFS_NULL, sizeof(playlistControlReport) );	
 136:Application.c **** 	
 137:Application.c **** 	Async_Feedback_Counter_Start();
 138:Application.c ****     
 139:Application.c ****     TkShellInit();
 140:Application.c ****     
 141:Application.c ****     VolumeControlInit();
 142:Application.c ****     
 143:Application.c ****     /* Start SPI Master */
 144:Application.c ****     pcm1770_init();
ARM GAS  C:\Users\TERENC~1\AppData\Local\Temp\ccvWNLDK.s 			page 4


 145:Application.c **** }
 146:Application.c **** 
 147:Application.c **** 
 148:Application.c **** /*******************************************************************************
 149:Application.c **** * Function Name: RunApplication
 150:Application.c **** ********************************************************************************
 151:Application.c **** * Summary:
 152:Application.c **** *      This function runs the application layer firmware of handling CapSense and
 153:Application.c **** *       volume control.
 154:Application.c **** *   
 155:Application.c **** * Parameters:
 156:Application.c **** *  void
 157:Application.c **** *
 158:Application.c **** * Return:
 159:Application.c **** *  void
 160:Application.c **** *
 161:Application.c **** *******************************************************************************/
 162:Application.c **** void RunApplication(void)
 163:Application.c **** {  
 164:Application.c **** 	if(USBFS_GetConfiguration() == TRUE)
 165:Application.c **** 	{
 166:Application.c **** 		/* Update the volume data */
 167:Application.c **** 		Update_VolumeAudioOut();		
 168:Application.c **** 	}
 169:Application.c ****     
 170:Application.c ****     TkShellService();
 171:Application.c ****     VolumeControlService();
 172:Application.c **** }
 173:Application.c **** 
 174:Application.c **** /*******************************************************************************
 175:Application.c **** * Function Name: Update_VolumeAudioOut
 176:Application.c **** ********************************************************************************
 177:Application.c **** * Summary:  Updates the volume from PC to codec
 178:Application.c **** *
 179:Application.c **** * Parameters:
 180:Application.c **** *  void
 181:Application.c **** *
 182:Application.c **** * Return:
 183:Application.c **** *  uint8 - status of I2C operation between PSoC 4200L and codec
 184:Application.c **** *
 185:Application.c **** *******************************************************************************/
 186:Application.c **** uint8 Update_VolumeAudioOut(void)
 187:Application.c **** {
  28              		.loc 1 187 0
  29              		.cfi_startproc
  30              		@ args = 0, pretend = 0, frame = 0
  31              		@ frame_needed = 0, uses_anonymous_args = 0
  32 0000 70B5     		push	{r4, r5, r6, lr}
  33              		.cfi_def_cfa_offset 16
  34              		.cfi_offset 4, -16
  35              		.cfi_offset 5, -12
  36              		.cfi_offset 6, -8
  37              		.cfi_offset 14, -4
  38              	.LVL0:
 188:Application.c **** 	uint8 ret = 0;
 189:Application.c ****     //static uint8 prevVol;
 190:Application.c **** 	static uint8 prevMute = 0;
ARM GAS  C:\Users\TERENC~1\AppData\Local\Temp\ccvWNLDK.s 			page 5


 191:Application.c **** #if 0
 192:Application.c **** 	/* Get the MSB of the current volume data */
 193:Application.c **** 	int32 volume = (((int8)USBFS_currentVolume[1])) + PC_VOLUME_MSB_CODEC_OFFSET;
 194:Application.c **** 	
 195:Application.c **** 	if(volume > PC_VOLUME_MSB_MAX)
 196:Application.c **** 	{
 197:Application.c **** 		volume = PC_VOLUME_MSB_MAX;
 198:Application.c **** 	}
 199:Application.c **** 	else if(volume < PC_VOLUME_MSB_MIN)
 200:Application.c **** 	{
 201:Application.c **** 		volume = PC_VOLUME_MSB_MIN;
 202:Application.c **** 	}
 203:Application.c **** #endif
 204:Application.c **** 
 205:Application.c **** 	/* Process volume control only when USB bus is idle */
 206:Application.c **** 	if(USBFS_TRANS_STATE_IDLE == USBFS_transferState)
  39              		.loc 1 206 0
  40 0002 244B     		ldr	r3, .L6
  41 0004 1B78     		ldrb	r3, [r3]
  42 0006 002B     		cmp	r3, #0
  43 0008 3FD1     		bne	.L4
 207:Application.c **** 	{
 208:Application.c **** #if 0
 209:Application.c **** 		/* If there is a change in volume, update codec */
 210:Application.c **** 		if(volume != prevVol)
 211:Application.c **** 		{
 212:Application.c **** 			/* Store current volume for next comparison */
 213:Application.c **** 			prevVol = volume;
 214:Application.c **** 			
 215:Application.c **** 			/* Filter volume to be in the expected range */
 216:Application.c **** 			if((volume > PC_VOLUME_MSB_MIN) && (volume <= PC_VOLUME_MSB_MAX))
 217:Application.c **** 			{
 218:Application.c **** 				volume = (uint8)(((volume - PC_VOLUME_MSB_MIN) * CODEC_HP_VOLUME_MAX) / (PC_VOLUME_MSB_MAX - PC
 219:Application.c **** 			}
 220:Application.c **** 			else
 221:Application.c **** 			{
 222:Application.c **** 				/* Set volume to 0 if the volume from PC is not in expected range */
 223:Application.c **** 				volume = 0;
 224:Application.c **** 			}
 225:Application.c **** 							
 226:Application.c **** 			
 227:Application.c **** 			/* Update the codec volume */
 228:Application.c **** 			ret = Codec_AdjustBothHeadphoneVolume((uint8)volume);
 229:Application.c **** 			
 230:Application.c **** 			#ifdef TXDEBUG
 231:Application.c **** 				D_PRINTF(DEBUG, "Codec vol set to %d \r\n", (int)volume);
 232:Application.c **** 			#endif
 233:Application.c **** 		}
 234:Application.c **** #endif
 235:Application.c **** 
 236:Application.c **** 		/* Process mute data, if changed */
 237:Application.c **** 		if(USBFS_currentMute != prevMute)
  44              		.loc 1 237 0
  45 000a 234B     		ldr	r3, .L6+4
  46 000c 1B78     		ldrb	r3, [r3]
  47 000e DBB2     		uxtb	r3, r3
  48 0010 224A     		ldr	r2, .L6+8
ARM GAS  C:\Users\TERENC~1\AppData\Local\Temp\ccvWNLDK.s 			page 6


  49 0012 1278     		ldrb	r2, [r2]
  50 0014 9342     		cmp	r3, r2
  51 0016 3AD0     		beq	.L5
 238:Application.c **** 		{
 239:Application.c **** 			/* Store current mute data for next comparison */
 240:Application.c **** 			prevMute = USBFS_currentMute;
  52              		.loc 1 240 0
  53 0018 1F4B     		ldr	r3, .L6+4
  54 001a 1B78     		ldrb	r3, [r3]
  55 001c DBB2     		uxtb	r3, r3
  56 001e 1F4A     		ldr	r2, .L6+8
  57 0020 1370     		strb	r3, [r2]
 241:Application.c **** 			
 242:Application.c **** 			/* If mute is non-zero, then mute is active and update codec volume to 0 */
 243:Application.c **** 			if(prevMute != 0)
  58              		.loc 1 243 0
  59 0022 002B     		cmp	r3, #0
  60 0024 18D0     		beq	.L3
 244:Application.c **** 			{
 245:Application.c ****                 //prevVol = Codec_GetHeadphoneVolume();
 246:Application.c **** 				ret = Codec_SetMute(true);//Codec_AdjustBothHeadphoneVolume(0);
  61              		.loc 1 246 0
  62 0026 0120     		movs	r0, #1
  63 0028 FFF7FEFF 		bl	Codec_SetMute
  64              	.LVL1:
  65 002c 0400     		movs	r4, r0
  66              	.LVL2:
 247:Application.c ****                 pcm1770_mute_set(true, true);
  67              		.loc 1 247 0
  68 002e 0121     		movs	r1, #1
  69 0030 0120     		movs	r0, #1
  70              	.LVL3:
  71 0032 FFF7FEFF 		bl	pcm1770_mute_set
  72              	.LVL4:
 248:Application.c **** 				D_PRINTF(INFO, "Muted\r\n");
  73              		.loc 1 248 0
  74 0036 1A4B     		ldr	r3, .L6+12
  75 0038 1B68     		ldr	r3, [r3]
  76 003a 002B     		cmp	r3, #0
  77 003c 28D0     		beq	.L2
  78              		.loc 1 248 0 is_stmt 0 discriminator 1
  79 003e 5B7C     		ldrb	r3, [r3, #17]
  80 0040 9B07     		lsls	r3, r3, #30
  81 0042 25D5     		bpl	.L2
  82              		.loc 1 248 0 discriminator 2
  83 0044 174D     		ldr	r5, .L6+16
  84 0046 0822     		movs	r2, #8
  85 0048 1749     		ldr	r1, .L6+20
  86 004a 2800     		movs	r0, r5
  87 004c FFF7FEFF 		bl	memcpy
  88              	.LVL5:
  89 0050 2800     		movs	r0, r5
  90 0052 FFF7FEFF 		bl	UART_UartPutString
  91              	.LVL6:
  92 0056 1BE0     		b	.L2
  93              	.LVL7:
  94              	.L3:
ARM GAS  C:\Users\TERENC~1\AppData\Local\Temp\ccvWNLDK.s 			page 7


 249:Application.c **** 			}
 250:Application.c **** 			else
 251:Application.c **** 			{
 252:Application.c ****                 pcm1770_mute_set(false, false);
  95              		.loc 1 252 0 is_stmt 1
  96 0058 0021     		movs	r1, #0
  97 005a 0020     		movs	r0, #0
  98 005c FFF7FEFF 		bl	pcm1770_mute_set
  99              	.LVL8:
 253:Application.c ****                 #if 0
 254:Application.c **** 				/* If mute is released, then process and update the current volume to codec */
 255:Application.c **** 				prevVol = volume;
 256:Application.c **** 								
 257:Application.c **** 				/* Filter volume to be in the expected range */
 258:Application.c **** 				if((volume > PC_VOLUME_MSB_MIN) && (volume <= PC_VOLUME_MSB_MAX))
 259:Application.c **** 				{
 260:Application.c **** 					volume = (uint8)(((volume - PC_VOLUME_MSB_MIN) * CODEC_HP_VOLUME_MAX) / (PC_VOLUME_MSB_MAX - P
 261:Application.c **** 				}
 262:Application.c **** 				else
 263:Application.c **** 				{
 264:Application.c **** 					/* Set volume to 0 if the volume from PC is not in expected range */
 265:Application.c **** 					volume = 0;
 266:Application.c **** 				}
 267:Application.c ****                 #endif
 268:Application.c **** 								
 269:Application.c **** 				/* Update the codec volume */
 270:Application.c **** 				ret = Codec_SetMute(false);//Codec_AdjustBothHeadphoneVolume((uint8)prevVol);
 100              		.loc 1 270 0
 101 0060 0020     		movs	r0, #0
 102 0062 FFF7FEFF 		bl	Codec_SetMute
 103              	.LVL9:
 104 0066 0400     		movs	r4, r0
 105              	.LVL10:
 271:Application.c **** 				
 272:Application.c **** 				#ifdef TXDEBUG
 273:Application.c **** 					D_PRINTF(INFO, "Unmute - Codec vol set to %d \r\n", (int)Codec_GetHeadphoneVolume);
 106              		.loc 1 273 0
 107 0068 0D4B     		ldr	r3, .L6+12
 108 006a 1B68     		ldr	r3, [r3]
 109 006c 002B     		cmp	r3, #0
 110 006e 0FD0     		beq	.L2
 111              		.loc 1 273 0 is_stmt 0 discriminator 1
 112 0070 5B7C     		ldrb	r3, [r3, #17]
 113 0072 9B07     		lsls	r3, r3, #30
 114 0074 0CD5     		bpl	.L2
 115              		.loc 1 273 0 discriminator 2
 116 0076 0B4D     		ldr	r5, .L6+16
 117 0078 0C4A     		ldr	r2, .L6+24
 118 007a 0D49     		ldr	r1, .L6+28
 119 007c 2800     		movs	r0, r5
 120              	.LVL11:
 121 007e FFF7FEFF 		bl	sprintf
 122              	.LVL12:
 123 0082 2800     		movs	r0, r5
 124 0084 FFF7FEFF 		bl	UART_UartPutString
 125              	.LVL13:
 126 0088 02E0     		b	.L2
ARM GAS  C:\Users\TERENC~1\AppData\Local\Temp\ccvWNLDK.s 			page 8


 127              	.LVL14:
 128              	.L4:
 188:Application.c ****     //static uint8 prevVol;
 129              		.loc 1 188 0 is_stmt 1
 130 008a 0024     		movs	r4, #0
 131 008c 00E0     		b	.L2
 132              	.L5:
 133 008e 0024     		movs	r4, #0
 134              	.LVL15:
 135              	.L2:
 274:Application.c **** 				#endif
 275:Application.c **** 			}
 276:Application.c **** 		}
 277:Application.c **** 	}
 278:Application.c **** 	
 279:Application.c **** 	
 280:Application.c **** 	return ret;
 281:Application.c **** }
 136              		.loc 1 281 0
 137 0090 2000     		movs	r0, r4
 138              		@ sp needed
 139              	.LVL16:
 140 0092 70BD     		pop	{r4, r5, r6, pc}
 141              	.L7:
 142              		.align	2
 143              	.L6:
 144 0094 00000000 		.word	USBFS_transferState
 145 0098 00000000 		.word	USBFS_currentMute
 146 009c 00000000 		.word	.LANCHOR0
 147 00a0 00000000 		.word	cal_data
 148 00a4 00000000 		.word	gbuf
 149 00a8 00000000 		.word	.LC5
 150 00ac 00000000 		.word	Codec_GetHeadphoneVolume
 151 00b0 08000000 		.word	.LC8
 152              		.cfi_endproc
 153              	.LFE357:
 154              		.size	Update_VolumeAudioOut, .-Update_VolumeAudioOut
 155              		.section	.text.InitApp,"ax",%progbits
 156              		.align	2
 157              		.global	InitApp
 158              		.code	16
 159              		.thumb_func
 160              		.type	InitApp, %function
 161              	InitApp:
 162              	.LFB355:
  85:Application.c ****     /* Configure CPU/DMA to be in round robin mode while accessing memory */
 163              		.loc 1 85 0
 164              		.cfi_startproc
 165              		@ args = 0, pretend = 0, frame = 0
 166              		@ frame_needed = 0, uses_anonymous_args = 0
 167 0000 10B5     		push	{r4, lr}
 168              		.cfi_def_cfa_offset 8
 169              		.cfi_offset 4, -8
 170              		.cfi_offset 14, -4
 171 0002 82B0     		sub	sp, sp, #8
 172              		.cfi_def_cfa_offset 16
  87:Application.c **** 	
ARM GAS  C:\Users\TERENC~1\AppData\Local\Temp\ccvWNLDK.s 			page 9


 173              		.loc 1 87 0
 174 0004 3D4A     		ldr	r2, .L13
 175 0006 1368     		ldr	r3, [r2]
 176 0008 3D49     		ldr	r1, .L13+4
 177 000a 0B43     		orrs	r3, r1
 178 000c 1360     		str	r3, [r2]
  89:Application.c **** 
 179              		.loc 1 89 0
 180              		.syntax divided
 181              	@ 89 "Application.c" 1
 182 000e 62B6     		CPSIE   i
 183              	@ 0 "" 2
  91:Application.c **** 	
 184              		.loc 1 91 0
 185              		.thumb
 186              		.syntax unified
 187 0010 FFF7FEFF 		bl	CalibrationInit
 188              	.LVL17:
  94:Application.c **** 
 189              		.loc 1 94 0
 190 0014 FFF7FEFF 		bl	UART_Start
 191              	.LVL18:
  96:Application.c **** 
 192              		.loc 1 96 0
 193 0018 3A4C     		ldr	r4, .L13+8
 194 001a 0023     		movs	r3, #0
 195 001c 0093     		str	r3, [sp]
 196 001e 0122     		movs	r2, #1
 197 0020 3949     		ldr	r1, .L13+12
 198 0022 2000     		movs	r0, r4
 199 0024 FFF7FEFF 		bl	sprintf
 200              	.LVL19:
 201 0028 2000     		movs	r0, r4
 202 002a FFF7FEFF 		bl	UART_UartPutString
 203              	.LVL20:
  98:Application.c **** 		{
 204              		.loc 1 98 0
 205 002e 1020     		movs	r0, #16
 206 0030 FFF7FEFF 		bl	CySysGetResetReason
 207              	.LVL21:
 208 0034 1028     		cmp	r0, #16
 209 0036 10D0     		beq	.L9
 100:Application.c **** 		}
 210              		.loc 1 100 0
 211 0038 344B     		ldr	r3, .L13+16
 212 003a 1B68     		ldr	r3, [r3]
 213 003c 002B     		cmp	r3, #0
 214 003e 1CD0     		beq	.L10
 100:Application.c **** 		}
 215              		.loc 1 100 0 is_stmt 0 discriminator 1
 216 0040 5B7C     		ldrb	r3, [r3, #17]
 217 0042 9B07     		lsls	r3, r3, #30
 218 0044 19D5     		bpl	.L10
 100:Application.c **** 		}
 219              		.loc 1 100 0 discriminator 2
 220 0046 2F4C     		ldr	r4, .L13+8
 221 0048 1322     		movs	r2, #19
ARM GAS  C:\Users\TERENC~1\AppData\Local\Temp\ccvWNLDK.s 			page 10


 222 004a 3149     		ldr	r1, .L13+20
 223 004c 2000     		movs	r0, r4
 224 004e FFF7FEFF 		bl	memcpy
 225              	.LVL22:
 226 0052 2000     		movs	r0, r4
 227 0054 FFF7FEFF 		bl	UART_UartPutString
 228              	.LVL23:
 229 0058 0FE0     		b	.L10
 230              	.L9:
 104:Application.c **** 		}
 231              		.loc 1 104 0 is_stmt 1
 232 005a 2C4B     		ldr	r3, .L13+16
 233 005c 1B68     		ldr	r3, [r3]
 234 005e 002B     		cmp	r3, #0
 235 0060 0BD0     		beq	.L10
 104:Application.c **** 		}
 236              		.loc 1 104 0 is_stmt 0 discriminator 1
 237 0062 5B7C     		ldrb	r3, [r3, #17]
 238 0064 9B07     		lsls	r3, r3, #30
 239 0066 08D5     		bpl	.L10
 104:Application.c **** 		}
 240              		.loc 1 104 0 discriminator 2
 241 0068 264C     		ldr	r4, .L13+8
 242 006a 2422     		movs	r2, #36
 243 006c 2949     		ldr	r1, .L13+24
 244 006e 2000     		movs	r0, r4
 245 0070 FFF7FEFF 		bl	memcpy
 246              	.LVL24:
 247 0074 2000     		movs	r0, r4
 248 0076 FFF7FEFF 		bl	UART_UartPutString
 249              	.LVL25:
 250              	.L10:
 109:Application.c **** 	
 251              		.loc 1 109 0 is_stmt 1
 252 007a FFF7FEFF 		bl	CodecI2CM_Start
 253              	.LVL26:
 111:Application.c **** 	{
 254              		.loc 1 111 0
 255 007e FFF7FEFF 		bl	Codec_Init
 256              	.LVL27:
 257 0082 0028     		cmp	r0, #0
 258 0084 0FD1     		bne	.L11
 113:Application.c **** 	}
 259              		.loc 1 113 0
 260 0086 214B     		ldr	r3, .L13+16
 261 0088 1B68     		ldr	r3, [r3]
 262 008a 002B     		cmp	r3, #0
 263 008c 0BD0     		beq	.L11
 113:Application.c **** 	}
 264              		.loc 1 113 0 is_stmt 0 discriminator 1
 265 008e 5B7C     		ldrb	r3, [r3, #17]
 266 0090 9B07     		lsls	r3, r3, #30
 267 0092 08D5     		bpl	.L11
 113:Application.c **** 	}
 268              		.loc 1 113 0 discriminator 2
 269 0094 1B4C     		ldr	r4, .L13+8
 270 0096 1822     		movs	r2, #24
ARM GAS  C:\Users\TERENC~1\AppData\Local\Temp\ccvWNLDK.s 			page 11


 271 0098 1F49     		ldr	r1, .L13+28
 272 009a 2000     		movs	r0, r4
 273 009c FFF7FEFF 		bl	memcpy
 274              	.LVL28:
 275 00a0 2000     		movs	r0, r4
 276 00a2 FFF7FEFF 		bl	UART_UartPutString
 277              	.LVL29:
 278              	.L11:
 120:Application.c **** 	
 279              		.loc 1 120 0 is_stmt 1
 280 00a6 FFF7FEFF 		bl	Update_VolumeAudioOut
 281              	.LVL30:
 122:Application.c **** 	
 282              		.loc 1 122 0
 283 00aa FFF7FEFF 		bl	I2S_Start
 284              	.LVL31:
 124:Application.c ****     USBDeviceState = USB_INIT_AFTER_ENUMERATION_REQUIRED;
 285              		.loc 1 124 0
 286 00ae 0121     		movs	r1, #1
 287 00b0 0020     		movs	r0, #0
 288 00b2 FFF7FEFF 		bl	USBFS_Start
 289              	.LVL32:
 125:Application.c **** 	
 290              		.loc 1 125 0
 291 00b6 0123     		movs	r3, #1
 292 00b8 184A     		ldr	r2, .L13+32
 293 00ba 1370     		strb	r3, [r2]
 128:Application.c **** 
 294              		.loc 1 128 0
 295 00bc 184A     		ldr	r2, .L13+36
 296 00be 1168     		ldr	r1, [r2]
 297 00c0 0B43     		orrs	r3, r1
 298 00c2 1360     		str	r3, [r2]
 299              	.L12:
 130:Application.c **** 	
 300              		.loc 1 130 0 discriminator 1
 301 00c4 FFF7FEFF 		bl	USBFS_GetConfiguration
 302              	.LVL33:
 303 00c8 0028     		cmp	r0, #0
 304 00ca FBD1     		bne	.L12
 132:Application.c **** 	
 305              		.loc 1 132 0
 306 00cc 0021     		movs	r1, #0
 307 00ce 0E30     		adds	r0, r0, #14
 308 00d0 FFF7FEFF 		bl	CyIntSetPriority
 309              	.LVL34:
 134:Application.c **** 	USBFS_LoadInEP(MAC_PC_HID_CONTROL_ENDPOINT, USBFS_NULL, sizeof(playlistControlReport) );	
 310              		.loc 1 134 0
 311 00d4 0122     		movs	r2, #1
 312 00d6 1349     		ldr	r1, .L13+40
 313 00d8 0420     		movs	r0, #4
 314 00da FFF7FEFF 		bl	USBFS_LoadInEP
 315              	.LVL35:
 135:Application.c **** 	
 316              		.loc 1 135 0
 317 00de 0122     		movs	r2, #1
 318 00e0 0021     		movs	r1, #0
ARM GAS  C:\Users\TERENC~1\AppData\Local\Temp\ccvWNLDK.s 			page 12


 319 00e2 0420     		movs	r0, #4
 320 00e4 FFF7FEFF 		bl	USBFS_LoadInEP
 321              	.LVL36:
 137:Application.c ****     
 322              		.loc 1 137 0
 323 00e8 FFF7FEFF 		bl	Async_Feedback_Counter_Start
 324              	.LVL37:
 139:Application.c ****     
 325              		.loc 1 139 0
 326 00ec FFF7FEFF 		bl	TkShellInit
 327              	.LVL38:
 141:Application.c ****     
 328              		.loc 1 141 0
 329 00f0 FFF7FEFF 		bl	VolumeControlInit
 330              	.LVL39:
 144:Application.c **** }
 331              		.loc 1 144 0
 332 00f4 FFF7FEFF 		bl	pcm1770_init
 333              	.LVL40:
 145:Application.c **** 
 334              		.loc 1 145 0
 335 00f8 02B0     		add	sp, sp, #8
 336              		@ sp needed
 337 00fa 10BD     		pop	{r4, pc}
 338              	.L14:
 339              		.align	2
 340              	.L13:
 341 00fc 38001040 		.word	1074790456
 342 0100 22222222 		.word	572662306
 343 0104 00000000 		.word	gbuf
 344 0108 28000000 		.word	.LC10
 345 010c 00000000 		.word	cal_data
 346 0110 40000000 		.word	.LC14
 347 0114 54000000 		.word	.LC16
 348 0118 78000000 		.word	.LC18
 349 011c 00000000 		.word	USBDeviceState
 350 0120 28202C40 		.word	1076633640
 351 0124 00000000 		.word	playlistControlReport
 352              		.cfi_endproc
 353              	.LFE355:
 354              		.size	InitApp, .-InitApp
 355              		.section	.text.RunApplication,"ax",%progbits
 356              		.align	2
 357              		.global	RunApplication
 358              		.code	16
 359              		.thumb_func
 360              		.type	RunApplication, %function
 361              	RunApplication:
 362              	.LFB356:
 163:Application.c **** 	if(USBFS_GetConfiguration() == TRUE)
 363              		.loc 1 163 0
 364              		.cfi_startproc
 365              		@ args = 0, pretend = 0, frame = 0
 366              		@ frame_needed = 0, uses_anonymous_args = 0
 367 0000 10B5     		push	{r4, lr}
 368              		.cfi_def_cfa_offset 8
 369              		.cfi_offset 4, -8
ARM GAS  C:\Users\TERENC~1\AppData\Local\Temp\ccvWNLDK.s 			page 13


 370              		.cfi_offset 14, -4
 164:Application.c **** 	{
 371              		.loc 1 164 0
 372 0002 FFF7FEFF 		bl	USBFS_GetConfiguration
 373              	.LVL41:
 374 0006 0128     		cmp	r0, #1
 375 0008 01D1     		bne	.L16
 167:Application.c **** 	}
 376              		.loc 1 167 0
 377 000a FFF7FEFF 		bl	Update_VolumeAudioOut
 378              	.LVL42:
 379              	.L16:
 170:Application.c ****     VolumeControlService();
 380              		.loc 1 170 0
 381 000e FFF7FEFF 		bl	TkShellService
 382              	.LVL43:
 171:Application.c **** }
 383              		.loc 1 171 0
 384 0012 FFF7FEFF 		bl	VolumeControlService
 385              	.LVL44:
 172:Application.c **** 
 386              		.loc 1 172 0
 387              		@ sp needed
 388 0016 10BD     		pop	{r4, pc}
 389              		.cfi_endproc
 390              	.LFE356:
 391              		.size	RunApplication, .-RunApplication
 392              		.comm	gbuf,256,4
 393              		.comm	reportClearFlag,1,1
 394              		.comm	audioControlStatus,1,1
 395              		.global	prevReport
 396              		.comm	playlistControlReport,1,1
 397              		.section	.rodata.str1.4,"aMS",%progbits,1
 398              		.align	2
 399              	.LC5:
 400 0000 4D757465 		.ascii	"Muted\015\012\000"
 400      640D0A00 
 401              	.LC8:
 402 0008 556E6D75 		.ascii	"Unmute - Codec vol set to %d \015\012\000"
 402      7465202D 
 402      20436F64 
 402      65632076 
 402      6F6C2073 
 403              	.LC10:
 404 0028 0D0A3D3D 		.ascii	"\015\012=== v%d.%d.%d ===\015\012\000"
 404      3D207625 
 404      642E2564 
 404      2E256420 
 404      3D3D3D0D 
 405 003e 0000     		.space	2
 406              	.LC14:
 407 0040 0D0A4170 		.ascii	"\015\012App Started...\015\012\000"
 407      70205374 
 407      61727465 
 407      642E2E2E 
 407      0D0A00
 408 0053 00       		.space	1
ARM GAS  C:\Users\TERENC~1\AppData\Local\Temp\ccvWNLDK.s 			page 14


 409              	.LC16:
 410 0054 0D0A4170 		.ascii	"\015\012App Restarted after SW reset...\015\012\000"
 410      70205265 
 410      73746172 
 410      74656420 
 410      61667465 
 411              	.LC18:
 412 0078 436F6465 		.ascii	"Codec comm works!... \015\012\000"
 412      6320636F 
 412      6D6D2077 
 412      6F726B73 
 412      212E2E2E 
 413              		.bss
 414              		.set	.LANCHOR0,. + 0
 415              		.type	prevMute.10034, %object
 416              		.size	prevMute.10034, 1
 417              	prevMute.10034:
 418 0000 00       		.space	1
 419              		.type	prevReport, %object
 420              		.size	prevReport, 1
 421              	prevReport:
 422 0001 00       		.space	1
 423              		.text
 424              	.Letext0:
 425              		.file 2 "Generated_Source\\PSoC4/cytypes.h"
 426              		.file 3 "./Calibration.h"
 427              		.file 4 "Generated_Source\\PSoC4/USBFS.h"
 428              		.file 5 "./USBInterface.h"
 429              		.file 6 "./Codec.h"
 430              		.file 7 "./pcm1770.h"
 431              		.file 8 "Generated_Source\\PSoC4/UART_SPI_UART.h"
 432              		.file 9 "c:\\program files (x86)\\cypress\\psoc creator\\4.2\\psoc creator\\import\\gnu\\arm\\5.4.
 433              		.file 10 "Generated_Source\\PSoC4/UART.h"
 434              		.file 11 "Generated_Source\\PSoC4/CyLib.h"
 435              		.file 12 "Generated_Source\\PSoC4/CodecI2CM.h"
 436              		.file 13 "Generated_Source\\PSoC4/I2S.h"
 437              		.file 14 "Generated_Source\\PSoC4/Async_Feedback_Counter.h"
 438              		.file 15 "./TkShell.h"
 439              		.file 16 "./VolumeControl.h"