ARM GAS  C:\Users\TERENC~1\AppData\Local\Temp\ccWZBAqj.s 			page 1


   1              		.syntax unified
   2              		.cpu cortex-m0
   3              		.fpu softvfp
   4              		.eabi_attribute 20, 1
   5              		.eabi_attribute 21, 1
   6              		.eabi_attribute 23, 3
   7              		.eabi_attribute 24, 1
   8              		.eabi_attribute 25, 1
   9              		.eabi_attribute 26, 1
  10              		.eabi_attribute 30, 1
  11              		.eabi_attribute 34, 0
  12              		.eabi_attribute 18, 4
  13              		.thumb
  14              		.syntax unified
  15              		.file	"AudioOut.c"
  16              		.text
  17              	.Ltext0:
  18              		.cfi_sections	.debug_frame
  19              		.section	.text.InitializeAudioOutPath,"ax",%progbits
  20              		.align	2
  21              		.global	InitializeAudioOutPath
  22              		.code	16
  23              		.thumb_func
  24              		.type	InitializeAudioOutPath, %function
  25              	InitializeAudioOutPath:
  26              	.LFB355:
  27              		.file 1 "AudioOut.c"
   1:AudioOut.c    **** /*******************************************************************************
   2:AudioOut.c    **** * File Name: AudioOut.c
   3:AudioOut.c    **** *
   4:AudioOut.c    **** * Version 1.0
   5:AudioOut.c    **** *
   6:AudioOut.c    **** *  Description: This file contains the Audio Out path configuration and 
   7:AudioOut.c    **** *               processing code
   8:AudioOut.c    **** *
   9:AudioOut.c    **** *******************************************************************************
  10:AudioOut.c    **** * Copyright (2018), Cypress Semiconductor Corporation. All rights reserved.
  11:AudioOut.c    **** *******************************************************************************
  12:AudioOut.c    **** * This software, including source code, documentation and related materials
  13:AudioOut.c    **** * (“Software”), is owned by Cypress Semiconductor Corporation or one of its
  14:AudioOut.c    **** * subsidiaries (“Cypress”) and is protected by and subject to worldwide patent
  15:AudioOut.c    **** * protection (United States and foreign), United States copyright laws and
  16:AudioOut.c    **** * international treaty provisions. Therefore, you may use this Software only
  17:AudioOut.c    **** * as provided in the license agreement accompanying the software package from
  18:AudioOut.c    **** * which you obtained this Software (“EULA”).
  19:AudioOut.c    **** *
  20:AudioOut.c    **** * If no EULA applies, Cypress hereby grants you a personal, nonexclusive,
  21:AudioOut.c    **** * non-transferable license to copy, modify, and compile the Software source
  22:AudioOut.c    **** * code solely for use in connection with Cypress’s integrated circuit products.
  23:AudioOut.c    **** * Any reproduction, modification, translation, compilation, or representation
  24:AudioOut.c    **** * of this Software except as specified above is prohibited without the express
  25:AudioOut.c    **** * written permission of Cypress.
  26:AudioOut.c    **** *
  27:AudioOut.c    **** * Disclaimer: THIS SOFTWARE IS PROVIDED AS-IS, WITH NO WARRANTY OF ANY KIND, 
  28:AudioOut.c    **** * EXPRESS OR IMPLIED, INCLUDING, BUT NOT LIMITED TO, NONINFRINGEMENT, IMPLIED 
  29:AudioOut.c    **** * WARRANTIES OF MERCHANTABILITY AND FITNESS FOR A PARTICULAR PURPOSE. Cypress 
  30:AudioOut.c    **** * reserves the right to make changes to the Software without notice. Cypress 
ARM GAS  C:\Users\TERENC~1\AppData\Local\Temp\ccWZBAqj.s 			page 2


  31:AudioOut.c    **** * does not assume any liability arising out of the application or use of the 
  32:AudioOut.c    **** * Software or any product or circuit described in the Software. Cypress does 
  33:AudioOut.c    **** * not authorize its products for use in any products where a malfunction or 
  34:AudioOut.c    **** * failure of the Cypress product may reasonably be expected to result in 
  35:AudioOut.c    **** * significant property damage, injury or death (“High Risk Product”). By 
  36:AudioOut.c    **** * including Cypress’s product in a High Risk Product, the manufacturer of such 
  37:AudioOut.c    **** * system or application assumes all risk of such use and in doing so agrees to 
  38:AudioOut.c    **** * indemnify Cypress against all liability.
  39:AudioOut.c    **** *******************************************************************************/
  40:AudioOut.c    **** 
  41:AudioOut.c    **** #include <AudioControl.h>
  42:AudioOut.c    **** #include <Interrupts.h>
  43:AudioOut.c    **** #include <Application.h>
  44:AudioOut.c    **** #include <AudioControl.h>
  45:AudioOut.c    **** #include <Config.h>
  46:AudioOut.c    **** #include <AudioOut.h>
  47:AudioOut.c    **** #include <project.h>
  48:AudioOut.c    **** #include <Codec.h>
  49:AudioOut.c    **** 
  50:AudioOut.c    **** extern uint8 outBuffer[];
  51:AudioOut.c    **** 
  52:AudioOut.c    **** CYBIT resetTx = 0;
  53:AudioOut.c    **** CYBIT outPlaying = 0;
  54:AudioOut.c    **** uint16 outLevel = 0;
  55:AudioOut.c    **** uint16 outUsbCount = 0;
  56:AudioOut.c    **** uint16 outUsbShadow = 0;
  57:AudioOut.c    **** uint8 outBuffer[OUT_BUFSIZE];
  58:AudioOut.c    **** uint16 outBufIndex = 0;
  59:AudioOut.c    **** extern CYBIT audioClkConfigured;
  60:AudioOut.c    **** 
  61:AudioOut.c    **** 
  62:AudioOut.c    **** 
  63:AudioOut.c    **** #if(USBFS_EP_MM == USBFS__EP_DMAAUTO)   
  64:AudioOut.c    **** 	extern uint8 outRam[];  
  65:AudioOut.c    **** #endif
  66:AudioOut.c    **** 
  67:AudioOut.c    **** /*******************************************************************************
  68:AudioOut.c    **** * Function Name: InitializeAudioOutPath
  69:AudioOut.c    **** ********************************************************************************
  70:AudioOut.c    **** * Summary:
  71:AudioOut.c    **** *       This function initializes all the associated DMAs for the Audio OUT
  72:AudioOut.c    **** *       path
  73:AudioOut.c    **** *
  74:AudioOut.c    **** * Parameters:
  75:AudioOut.c    **** *  void
  76:AudioOut.c    **** *
  77:AudioOut.c    **** * Return:
  78:AudioOut.c    **** *  void
  79:AudioOut.c    **** *
  80:AudioOut.c    **** *******************************************************************************/
  81:AudioOut.c    **** void InitializeAudioOutPath(void)
  82:AudioOut.c    **** {
  28              		.loc 1 82 0
  29              		.cfi_startproc
  30              		@ args = 0, pretend = 0, frame = 0
  31              		@ frame_needed = 0, uses_anonymous_args = 0
  32 0000 10B5     		push	{r4, lr}
ARM GAS  C:\Users\TERENC~1\AppData\Local\Temp\ccWZBAqj.s 			page 3


  33              		.cfi_def_cfa_offset 8
  34              		.cfi_offset 4, -8
  35              		.cfi_offset 14, -4
  83:AudioOut.c    ****     TxDMA_Init();
  36              		.loc 1 83 0
  37 0002 FFF7FEFF 		bl	TxDMA_Init
  38              	.LVL0:
  39              	.LBB62:
  40              	.LBB63:
  41              		.file 2 "Generated_Source\\PSoC4/TxDMA.h"
   1:Generated_Source\PSoC4/TxDMA.h **** /*******************************************************************************
   2:Generated_Source\PSoC4/TxDMA.h **** * File Name: TxDMA.h
   3:Generated_Source\PSoC4/TxDMA.h **** * Version 1.0
   4:Generated_Source\PSoC4/TxDMA.h **** *
   5:Generated_Source\PSoC4/TxDMA.h **** * Description:
   6:Generated_Source\PSoC4/TxDMA.h **** *  This file provides DMA channel defines and API function definitions.
   7:Generated_Source\PSoC4/TxDMA.h **** *
   8:Generated_Source\PSoC4/TxDMA.h **** ********************************************************************************
   9:Generated_Source\PSoC4/TxDMA.h **** * Copyright 2015, Cypress Semiconductor Corporation. All rights reserved.
  10:Generated_Source\PSoC4/TxDMA.h **** * You may use this file only in accordance with the license, terms, conditions,
  11:Generated_Source\PSoC4/TxDMA.h **** * disclaimers, and limitations in the end user license agreement accompanying
  12:Generated_Source\PSoC4/TxDMA.h **** * the software package with which this file was provided.
  13:Generated_Source\PSoC4/TxDMA.h **** *******************************************************************************/
  14:Generated_Source\PSoC4/TxDMA.h **** 
  15:Generated_Source\PSoC4/TxDMA.h **** #ifndef CY_DMA_CHANNEL_TxDMA_H
  16:Generated_Source\PSoC4/TxDMA.h **** #define CY_DMA_CHANNEL_TxDMA_H
  17:Generated_Source\PSoC4/TxDMA.h **** 
  18:Generated_Source\PSoC4/TxDMA.h **** #include "CyDMA.h"
  19:Generated_Source\PSoC4/TxDMA.h **** 
  20:Generated_Source\PSoC4/TxDMA.h ****     
  21:Generated_Source\PSoC4/TxDMA.h **** /***************************************
  22:Generated_Source\PSoC4/TxDMA.h **** *   Conditional Compilation Parameters
  23:Generated_Source\PSoC4/TxDMA.h **** ***************************************/
  24:Generated_Source\PSoC4/TxDMA.h **** 
  25:Generated_Source\PSoC4/TxDMA.h **** #define TxDMA_CHANNEL           (TxDMA__CHANNEL_NUMBER)
  26:Generated_Source\PSoC4/TxDMA.h **** #define TxDMA_CHANNEL_MASK      ((uint32)(1UL << TxDMA_CHANNEL))
  27:Generated_Source\PSoC4/TxDMA.h **** 
  28:Generated_Source\PSoC4/TxDMA.h **** 
  29:Generated_Source\PSoC4/TxDMA.h **** /***************************************
  30:Generated_Source\PSoC4/TxDMA.h **** *        Function Prototypes
  31:Generated_Source\PSoC4/TxDMA.h **** ***************************************/
  32:Generated_Source\PSoC4/TxDMA.h **** 
  33:Generated_Source\PSoC4/TxDMA.h **** /* Functions specific to this DMA channel */
  34:Generated_Source\PSoC4/TxDMA.h **** void TxDMA_Init(void);
  35:Generated_Source\PSoC4/TxDMA.h **** void TxDMA_Start(void * srcAddress, void * dstAddress);
  36:Generated_Source\PSoC4/TxDMA.h **** 
  37:Generated_Source\PSoC4/TxDMA.h **** /* Inline functions that call global API functions */
  38:Generated_Source\PSoC4/TxDMA.h **** static void   TxDMA_ChEnable(void);
  39:Generated_Source\PSoC4/TxDMA.h **** static void   TxDMA_ChDisable(void);
  40:Generated_Source\PSoC4/TxDMA.h **** static void   TxDMA_Trigger(void);
  41:Generated_Source\PSoC4/TxDMA.h **** static void   TxDMA_SetPriority(int32 priority);
  42:Generated_Source\PSoC4/TxDMA.h **** static int32  TxDMA_GetPriority(void);
  43:Generated_Source\PSoC4/TxDMA.h **** static void   TxDMA_SetNextDescriptor(int32 descriptor);
  44:Generated_Source\PSoC4/TxDMA.h **** static int32  TxDMA_GetNextDescriptor(void);
  45:Generated_Source\PSoC4/TxDMA.h **** static void   TxDMA_SetConfiguration(int32 descriptor, const cydma_init_struct * config);
  46:Generated_Source\PSoC4/TxDMA.h **** static void   TxDMA_ValidateDescriptor(int32 descriptor);
  47:Generated_Source\PSoC4/TxDMA.h **** static uint32 TxDMA_GetDescriptorStatus(int32 descriptor);
ARM GAS  C:\Users\TERENC~1\AppData\Local\Temp\ccWZBAqj.s 			page 4


  48:Generated_Source\PSoC4/TxDMA.h **** static void   TxDMA_SetSrcAddress(int32 descriptor, void * srcAddress);
  49:Generated_Source\PSoC4/TxDMA.h **** static void * TxDMA_GetSrcAddress(int32 descriptor);
  50:Generated_Source\PSoC4/TxDMA.h **** static void   TxDMA_SetDstAddress(int32 descriptor, void * dstAddress);
  51:Generated_Source\PSoC4/TxDMA.h **** static void * TxDMA_GetDstAddress(int32 descriptor);
  52:Generated_Source\PSoC4/TxDMA.h **** static void   TxDMA_SetDataElementSize(int32 descriptor, uint32 dataElementSize);
  53:Generated_Source\PSoC4/TxDMA.h **** static uint32 TxDMA_GetDataElementSize(int32 descriptor);
  54:Generated_Source\PSoC4/TxDMA.h **** static void   TxDMA_SetNumDataElements(int32 descriptor, int32 numDataElements);
  55:Generated_Source\PSoC4/TxDMA.h **** static int32  TxDMA_GetNumDataElements(int32 descriptor);
  56:Generated_Source\PSoC4/TxDMA.h **** static void   TxDMA_SetSrcDstTransferWidth(int32 descriptor, uint32 transferWidth);
  57:Generated_Source\PSoC4/TxDMA.h **** static uint32 TxDMA_GetSrcDstTransferWidth(int32 descriptor);
  58:Generated_Source\PSoC4/TxDMA.h **** static void   TxDMA_SetAddressIncrement(int32 descriptor, uint32 addressIncrement);
  59:Generated_Source\PSoC4/TxDMA.h **** static uint32 TxDMA_GetAddressIncrement(int32 descriptor);
  60:Generated_Source\PSoC4/TxDMA.h **** static void   TxDMA_SetTriggerType(int32 descriptor, uint32 triggerType);
  61:Generated_Source\PSoC4/TxDMA.h **** static uint32 TxDMA_GetTriggerType(int32 descriptor);
  62:Generated_Source\PSoC4/TxDMA.h **** static void   TxDMA_SetTransferMode(int32 descriptor, uint32 transferMode);
  63:Generated_Source\PSoC4/TxDMA.h **** static uint32 TxDMA_GetTransferMode(int32 descriptor);
  64:Generated_Source\PSoC4/TxDMA.h **** static void   TxDMA_SetPreemptable(int32 descriptor, uint32 preemptable);
  65:Generated_Source\PSoC4/TxDMA.h **** static uint32 TxDMA_GetPreemptable(int32 descriptor);
  66:Generated_Source\PSoC4/TxDMA.h **** static void   TxDMA_SetPostCompletionActions(int32 descriptor, uint32 actions);
  67:Generated_Source\PSoC4/TxDMA.h **** static uint32 TxDMA_GetPostCompletionAction(int32 descriptor);
  68:Generated_Source\PSoC4/TxDMA.h **** static cydma_callback_t TxDMA_SetInterruptCallback(cydma_callback_t callback);
  69:Generated_Source\PSoC4/TxDMA.h **** static cydma_callback_t TxDMA_GetInterruptCallback(void);
  70:Generated_Source\PSoC4/TxDMA.h **** 
  71:Generated_Source\PSoC4/TxDMA.h **** 
  72:Generated_Source\PSoC4/TxDMA.h **** /*******************************************************************************
  73:Generated_Source\PSoC4/TxDMA.h **** * Function Name: TxDMA_ChEnable
  74:Generated_Source\PSoC4/TxDMA.h **** ********************************************************************************
  75:Generated_Source\PSoC4/TxDMA.h **** *
  76:Generated_Source\PSoC4/TxDMA.h **** * Summary:
  77:Generated_Source\PSoC4/TxDMA.h **** *  Enables the DMA channel. It is not necessary to call TxDMA_ChEnable()
  78:Generated_Source\PSoC4/TxDMA.h **** *  because the TxDMA_Start() API calls this function, which is the
  79:Generated_Source\PSoC4/TxDMA.h **** *  preferred method to begin the component operation.
  80:Generated_Source\PSoC4/TxDMA.h **** *
  81:Generated_Source\PSoC4/TxDMA.h **** * Parameters:
  82:Generated_Source\PSoC4/TxDMA.h **** *  None.
  83:Generated_Source\PSoC4/TxDMA.h **** *                   
  84:Generated_Source\PSoC4/TxDMA.h **** * Return:
  85:Generated_Source\PSoC4/TxDMA.h **** *  None.
  86:Generated_Source\PSoC4/TxDMA.h **** *
  87:Generated_Source\PSoC4/TxDMA.h **** * Side effect:
  88:Generated_Source\PSoC4/TxDMA.h **** *  If this function is called before TxDMA_Start(), or TxDMA_Init()
  89:Generated_Source\PSoC4/TxDMA.h **** *  or TxDMA_SetConfiguration(), and TxDMA_SetSrcAddress()
  90:Generated_Source\PSoC4/TxDMA.h **** *  and TxDMA_SetDstAddress the operation of the DMA is 
  91:Generated_Source\PSoC4/TxDMA.h **** *  undefined and could result in system data corruption. 
  92:Generated_Source\PSoC4/TxDMA.h **** *
  93:Generated_Source\PSoC4/TxDMA.h **** *******************************************************************************/
  94:Generated_Source\PSoC4/TxDMA.h **** static CY_INLINE void TxDMA_ChEnable(void)
  95:Generated_Source\PSoC4/TxDMA.h **** {
  96:Generated_Source\PSoC4/TxDMA.h ****     CyDmaChEnable(TxDMA_CHANNEL);
  97:Generated_Source\PSoC4/TxDMA.h **** }
  98:Generated_Source\PSoC4/TxDMA.h **** 
  99:Generated_Source\PSoC4/TxDMA.h **** 
 100:Generated_Source\PSoC4/TxDMA.h **** /*******************************************************************************
 101:Generated_Source\PSoC4/TxDMA.h **** * Function Name: TxDMA_ChDisable
 102:Generated_Source\PSoC4/TxDMA.h **** ********************************************************************************
 103:Generated_Source\PSoC4/TxDMA.h **** *
 104:Generated_Source\PSoC4/TxDMA.h **** * Summary:
ARM GAS  C:\Users\TERENC~1\AppData\Local\Temp\ccWZBAqj.s 			page 5


 105:Generated_Source\PSoC4/TxDMA.h **** *  Disables the DMA channel.
 106:Generated_Source\PSoC4/TxDMA.h **** *
 107:Generated_Source\PSoC4/TxDMA.h **** * Parameters:
 108:Generated_Source\PSoC4/TxDMA.h **** *  None.
 109:Generated_Source\PSoC4/TxDMA.h **** *                   
 110:Generated_Source\PSoC4/TxDMA.h **** * Return:
 111:Generated_Source\PSoC4/TxDMA.h **** *  None.
 112:Generated_Source\PSoC4/TxDMA.h **** *
 113:Generated_Source\PSoC4/TxDMA.h **** * Side effect:
 114:Generated_Source\PSoC4/TxDMA.h **** *  If this function is called during a DMA transfer the transfer is aborted. 
 115:Generated_Source\PSoC4/TxDMA.h **** *
 116:Generated_Source\PSoC4/TxDMA.h **** *******************************************************************************/
 117:Generated_Source\PSoC4/TxDMA.h **** static CY_INLINE void TxDMA_ChDisable(void)
 118:Generated_Source\PSoC4/TxDMA.h **** {
 119:Generated_Source\PSoC4/TxDMA.h ****     CyDmaChDisable(TxDMA_CHANNEL);
 120:Generated_Source\PSoC4/TxDMA.h **** }
 121:Generated_Source\PSoC4/TxDMA.h **** 
 122:Generated_Source\PSoC4/TxDMA.h **** 
 123:Generated_Source\PSoC4/TxDMA.h **** /*******************************************************************************
 124:Generated_Source\PSoC4/TxDMA.h **** * Function Name: TxDMA_Trigger
 125:Generated_Source\PSoC4/TxDMA.h **** ********************************************************************************
 126:Generated_Source\PSoC4/TxDMA.h **** *
 127:Generated_Source\PSoC4/TxDMA.h **** * Summary:
 128:Generated_Source\PSoC4/TxDMA.h **** *  Triggers the DMA channel, this is useful only for software triggers. This is
 129:Generated_Source\PSoC4/TxDMA.h **** *  not needed when hardware triggers are used.
 130:Generated_Source\PSoC4/TxDMA.h **** *
 131:Generated_Source\PSoC4/TxDMA.h **** * Parameters:
 132:Generated_Source\PSoC4/TxDMA.h **** *  None.
 133:Generated_Source\PSoC4/TxDMA.h **** *                   
 134:Generated_Source\PSoC4/TxDMA.h **** * Return:
 135:Generated_Source\PSoC4/TxDMA.h **** *  None. 
 136:Generated_Source\PSoC4/TxDMA.h **** *
 137:Generated_Source\PSoC4/TxDMA.h **** *******************************************************************************/
 138:Generated_Source\PSoC4/TxDMA.h **** static CY_INLINE void TxDMA_Trigger(void)
 139:Generated_Source\PSoC4/TxDMA.h **** {
 140:Generated_Source\PSoC4/TxDMA.h ****     CyDmaTrigger(TxDMA_CHANNEL);
 141:Generated_Source\PSoC4/TxDMA.h **** }
 142:Generated_Source\PSoC4/TxDMA.h **** 
 143:Generated_Source\PSoC4/TxDMA.h **** 
 144:Generated_Source\PSoC4/TxDMA.h **** /*******************************************************************************
 145:Generated_Source\PSoC4/TxDMA.h **** * Function Name: TxDMA_SetPriority
 146:Generated_Source\PSoC4/TxDMA.h **** ********************************************************************************
 147:Generated_Source\PSoC4/TxDMA.h **** *
 148:Generated_Source\PSoC4/TxDMA.h **** * Summary:
 149:Generated_Source\PSoC4/TxDMA.h **** *  Sets the priority for the channel.
 150:Generated_Source\PSoC4/TxDMA.h **** *
 151:Generated_Source\PSoC4/TxDMA.h **** * Parameters:
 152:Generated_Source\PSoC4/TxDMA.h **** *  priority: Priority for channel. Priority can be 0,1,2, or 3.
 153:Generated_Source\PSoC4/TxDMA.h **** *            0 is the highest priority.
 154:Generated_Source\PSoC4/TxDMA.h **** *                   
 155:Generated_Source\PSoC4/TxDMA.h **** * Return:
 156:Generated_Source\PSoC4/TxDMA.h **** *  None.
 157:Generated_Source\PSoC4/TxDMA.h **** *
 158:Generated_Source\PSoC4/TxDMA.h **** * Side effect:
 159:Generated_Source\PSoC4/TxDMA.h **** *  This function should not be called while the channel is enabled.
 160:Generated_Source\PSoC4/TxDMA.h **** *
 161:Generated_Source\PSoC4/TxDMA.h **** *******************************************************************************/
ARM GAS  C:\Users\TERENC~1\AppData\Local\Temp\ccWZBAqj.s 			page 6


 162:Generated_Source\PSoC4/TxDMA.h **** static CY_INLINE void TxDMA_SetPriority(int32 priority)
 163:Generated_Source\PSoC4/TxDMA.h **** {
 164:Generated_Source\PSoC4/TxDMA.h ****     CyDmaSetPriority(TxDMA_CHANNEL, priority);
 165:Generated_Source\PSoC4/TxDMA.h **** }
 166:Generated_Source\PSoC4/TxDMA.h **** 
 167:Generated_Source\PSoC4/TxDMA.h **** 
 168:Generated_Source\PSoC4/TxDMA.h **** /*******************************************************************************
 169:Generated_Source\PSoC4/TxDMA.h **** * Function Name: TxDMA_GetPriority
 170:Generated_Source\PSoC4/TxDMA.h **** ********************************************************************************
 171:Generated_Source\PSoC4/TxDMA.h **** *
 172:Generated_Source\PSoC4/TxDMA.h **** * Summary:
 173:Generated_Source\PSoC4/TxDMA.h **** *  Gets the priority for the channel.
 174:Generated_Source\PSoC4/TxDMA.h **** *
 175:Generated_Source\PSoC4/TxDMA.h **** * Parameters:
 176:Generated_Source\PSoC4/TxDMA.h **** *  None.
 177:Generated_Source\PSoC4/TxDMA.h **** *                   
 178:Generated_Source\PSoC4/TxDMA.h **** * Return:
 179:Generated_Source\PSoC4/TxDMA.h **** *  Priority for channel. Priority can be 0,1,2, or 3. 0 is the highest priority.
 180:Generated_Source\PSoC4/TxDMA.h **** *
 181:Generated_Source\PSoC4/TxDMA.h **** *******************************************************************************/
 182:Generated_Source\PSoC4/TxDMA.h **** static CY_INLINE int32 TxDMA_GetPriority(void)
 183:Generated_Source\PSoC4/TxDMA.h **** {
 184:Generated_Source\PSoC4/TxDMA.h ****     return (CyDmaGetPriority(TxDMA_CHANNEL));
 185:Generated_Source\PSoC4/TxDMA.h **** }
 186:Generated_Source\PSoC4/TxDMA.h **** 
 187:Generated_Source\PSoC4/TxDMA.h **** 
 188:Generated_Source\PSoC4/TxDMA.h **** /*******************************************************************************
 189:Generated_Source\PSoC4/TxDMA.h **** * Function Name: TxDMA_SetNextDescriptor
 190:Generated_Source\PSoC4/TxDMA.h **** ********************************************************************************
 191:Generated_Source\PSoC4/TxDMA.h **** *
 192:Generated_Source\PSoC4/TxDMA.h **** * Summary:
 193:Generated_Source\PSoC4/TxDMA.h **** *  Sets the descriptor that should be run the next time the channel is
 194:Generated_Source\PSoC4/TxDMA.h **** *  triggered.
 195:Generated_Source\PSoC4/TxDMA.h **** *
 196:Generated_Source\PSoC4/TxDMA.h **** * Parameters:
 197:Generated_Source\PSoC4/TxDMA.h **** *  descriptor: Next Descriptor to run (0 or 1).
 198:Generated_Source\PSoC4/TxDMA.h **** *                   
 199:Generated_Source\PSoC4/TxDMA.h **** * Side effect:
 200:Generated_Source\PSoC4/TxDMA.h **** *  This function should not be called while the channel is enabled.
 201:Generated_Source\PSoC4/TxDMA.h **** *
 202:Generated_Source\PSoC4/TxDMA.h **** *******************************************************************************/
 203:Generated_Source\PSoC4/TxDMA.h **** static CY_INLINE void TxDMA_SetNextDescriptor(int32 descriptor)
 204:Generated_Source\PSoC4/TxDMA.h **** {
 205:Generated_Source\PSoC4/TxDMA.h ****     CyDmaSetNextDescriptor(TxDMA_CHANNEL, descriptor);
 206:Generated_Source\PSoC4/TxDMA.h **** }
 207:Generated_Source\PSoC4/TxDMA.h **** 
 208:Generated_Source\PSoC4/TxDMA.h **** 
 209:Generated_Source\PSoC4/TxDMA.h **** /*******************************************************************************
 210:Generated_Source\PSoC4/TxDMA.h **** * Function Name: TxDMA_GetNextDescriptor
 211:Generated_Source\PSoC4/TxDMA.h **** ********************************************************************************
 212:Generated_Source\PSoC4/TxDMA.h **** *
 213:Generated_Source\PSoC4/TxDMA.h **** * Summary:
 214:Generated_Source\PSoC4/TxDMA.h **** *  Returns the next descriptor that should be run, as set by 
 215:Generated_Source\PSoC4/TxDMA.h **** *  TxDMA_SetNextDescriptor().
 216:Generated_Source\PSoC4/TxDMA.h **** *
 217:Generated_Source\PSoC4/TxDMA.h **** * Parameters:
 218:Generated_Source\PSoC4/TxDMA.h **** *  None.
ARM GAS  C:\Users\TERENC~1\AppData\Local\Temp\ccWZBAqj.s 			page 7


 219:Generated_Source\PSoC4/TxDMA.h **** *                   
 220:Generated_Source\PSoC4/TxDMA.h **** * Return:
 221:Generated_Source\PSoC4/TxDMA.h **** *  Next Descriptor to run (0 or 1).
 222:Generated_Source\PSoC4/TxDMA.h **** *
 223:Generated_Source\PSoC4/TxDMA.h **** *******************************************************************************/
 224:Generated_Source\PSoC4/TxDMA.h **** static CY_INLINE int32 TxDMA_GetNextDescriptor(void)
 225:Generated_Source\PSoC4/TxDMA.h **** {
 226:Generated_Source\PSoC4/TxDMA.h ****     return (CyDmaGetNextDescriptor(TxDMA_CHANNEL));
 227:Generated_Source\PSoC4/TxDMA.h **** }
 228:Generated_Source\PSoC4/TxDMA.h **** 
 229:Generated_Source\PSoC4/TxDMA.h **** 
 230:Generated_Source\PSoC4/TxDMA.h **** /*******************************************************************************
 231:Generated_Source\PSoC4/TxDMA.h **** * Function Name: TxDMA_SetConfiguration
 232:Generated_Source\PSoC4/TxDMA.h **** ********************************************************************************
 233:Generated_Source\PSoC4/TxDMA.h **** *
 234:Generated_Source\PSoC4/TxDMA.h **** * Summary:
 235:Generated_Source\PSoC4/TxDMA.h **** *  Sets configuration information for the specified descriptor.
 236:Generated_Source\PSoC4/TxDMA.h **** *
 237:Generated_Source\PSoC4/TxDMA.h **** * Parameters:
 238:Generated_Source\PSoC4/TxDMA.h **** *  descriptor: Descriptor (0 or 1) modified by this function.
 239:Generated_Source\PSoC4/TxDMA.h **** *  config: Pointer to a configuration structure. Refer to cydma_init_struct
 240:Generated_Source\PSoC4/TxDMA.h **** *          structure definition in CyDMA_P4.h or the component datasheet.
 241:Generated_Source\PSoC4/TxDMA.h **** *                   
 242:Generated_Source\PSoC4/TxDMA.h **** * Return:
 243:Generated_Source\PSoC4/TxDMA.h **** *  None.
 244:Generated_Source\PSoC4/TxDMA.h **** *
 245:Generated_Source\PSoC4/TxDMA.h **** * Side effect:
 246:Generated_Source\PSoC4/TxDMA.h **** *  The status register associated with the specified descriptor is reset to
 247:Generated_Source\PSoC4/TxDMA.h **** *  zero after this function call. This function also validates the descriptor.
 248:Generated_Source\PSoC4/TxDMA.h **** *  This function should not be called while the descriptor is active.
 249:Generated_Source\PSoC4/TxDMA.h **** *  This can be checked by calling CyDmaGetStatus().
 250:Generated_Source\PSoC4/TxDMA.h **** *
 251:Generated_Source\PSoC4/TxDMA.h **** *******************************************************************************/
 252:Generated_Source\PSoC4/TxDMA.h **** static CY_INLINE void TxDMA_SetConfiguration(int32 descriptor, const cydma_init_struct * config)
 253:Generated_Source\PSoC4/TxDMA.h **** {
 254:Generated_Source\PSoC4/TxDMA.h ****     CyDmaSetConfiguration(TxDMA_CHANNEL, descriptor, config);
 255:Generated_Source\PSoC4/TxDMA.h **** }
 256:Generated_Source\PSoC4/TxDMA.h **** 
 257:Generated_Source\PSoC4/TxDMA.h **** 
 258:Generated_Source\PSoC4/TxDMA.h **** /*******************************************************************************
 259:Generated_Source\PSoC4/TxDMA.h **** * Function Name: TxDMA_ValidateDescriptor
 260:Generated_Source\PSoC4/TxDMA.h **** ********************************************************************************
 261:Generated_Source\PSoC4/TxDMA.h **** *
 262:Generated_Source\PSoC4/TxDMA.h **** * Summary:
 263:Generated_Source\PSoC4/TxDMA.h **** *  Validates the specified descriptor after it has been invalidated.
 264:Generated_Source\PSoC4/TxDMA.h **** *
 265:Generated_Source\PSoC4/TxDMA.h **** * Parameters:
 266:Generated_Source\PSoC4/TxDMA.h **** *  descriptor: Descriptor (0 or 1) modified by this function.
 267:Generated_Source\PSoC4/TxDMA.h **** *                   
 268:Generated_Source\PSoC4/TxDMA.h **** * Return:
 269:Generated_Source\PSoC4/TxDMA.h **** *  None. 
 270:Generated_Source\PSoC4/TxDMA.h **** *
 271:Generated_Source\PSoC4/TxDMA.h **** * Side effect:
 272:Generated_Source\PSoC4/TxDMA.h **** *  The status register associated with the specified descriptor is reset to
 273:Generated_Source\PSoC4/TxDMA.h **** *  zero after this function call. This function should not be called while the
 274:Generated_Source\PSoC4/TxDMA.h **** *  descriptor is active. This can be checked by calling CyDmaGetStatus().
 275:Generated_Source\PSoC4/TxDMA.h **** *
ARM GAS  C:\Users\TERENC~1\AppData\Local\Temp\ccWZBAqj.s 			page 8


 276:Generated_Source\PSoC4/TxDMA.h **** *******************************************************************************/
 277:Generated_Source\PSoC4/TxDMA.h **** static CY_INLINE void TxDMA_ValidateDescriptor(int32 descriptor)
 278:Generated_Source\PSoC4/TxDMA.h **** {
 279:Generated_Source\PSoC4/TxDMA.h ****     CyDmaValidateDescriptor(TxDMA_CHANNEL, descriptor);
 280:Generated_Source\PSoC4/TxDMA.h **** }
 281:Generated_Source\PSoC4/TxDMA.h **** 
 282:Generated_Source\PSoC4/TxDMA.h **** 
 283:Generated_Source\PSoC4/TxDMA.h **** /*******************************************************************************
 284:Generated_Source\PSoC4/TxDMA.h **** * Function Name: TxDMA_GetDescriptorStatus
 285:Generated_Source\PSoC4/TxDMA.h **** ********************************************************************************
 286:Generated_Source\PSoC4/TxDMA.h **** *
 287:Generated_Source\PSoC4/TxDMA.h **** * Summary:
 288:Generated_Source\PSoC4/TxDMA.h **** *  Returns the status of the specified descriptor.
 289:Generated_Source\PSoC4/TxDMA.h **** *
 290:Generated_Source\PSoC4/TxDMA.h **** * Parameters:
 291:Generated_Source\PSoC4/TxDMA.h **** *  descriptor: Descriptor (0 or 1) modified by this function.
 292:Generated_Source\PSoC4/TxDMA.h **** *                   
 293:Generated_Source\PSoC4/TxDMA.h **** * Return:
 294:Generated_Source\PSoC4/TxDMA.h **** *  Returns the contents of the specified descriptors status register. Refer to 
 295:Generated_Source\PSoC4/TxDMA.h **** *  descriptor status register bit definitions in CyDMA_P4.h or the API
 296:Generated_Source\PSoC4/TxDMA.h **** *  description in the DMA channel datasheet for more information.
 297:Generated_Source\PSoC4/TxDMA.h **** *
 298:Generated_Source\PSoC4/TxDMA.h **** *******************************************************************************/
 299:Generated_Source\PSoC4/TxDMA.h **** static CY_INLINE uint32 TxDMA_GetDescriptorStatus(int32 descriptor)
 300:Generated_Source\PSoC4/TxDMA.h **** {
 301:Generated_Source\PSoC4/TxDMA.h ****     return (CyDmaGetDescriptorStatus(TxDMA_CHANNEL, descriptor));
 302:Generated_Source\PSoC4/TxDMA.h **** }
 303:Generated_Source\PSoC4/TxDMA.h **** 
 304:Generated_Source\PSoC4/TxDMA.h **** 
 305:Generated_Source\PSoC4/TxDMA.h **** /*******************************************************************************
 306:Generated_Source\PSoC4/TxDMA.h **** * Function Name: TxDMA_SetSrcAddress
 307:Generated_Source\PSoC4/TxDMA.h **** ********************************************************************************
 308:Generated_Source\PSoC4/TxDMA.h **** *
 309:Generated_Source\PSoC4/TxDMA.h **** * Summary:
 310:Generated_Source\PSoC4/TxDMA.h **** *  Configures the source address for the specified descriptor.
 311:Generated_Source\PSoC4/TxDMA.h **** *
 312:Generated_Source\PSoC4/TxDMA.h **** * Parameters:
 313:Generated_Source\PSoC4/TxDMA.h **** *  descriptor: Descriptor (0 or 1) modified by this function.
 314:Generated_Source\PSoC4/TxDMA.h **** *  srcAddress: Address of DMA transfer source.
 315:Generated_Source\PSoC4/TxDMA.h **** *                   
 316:Generated_Source\PSoC4/TxDMA.h **** * Return:
 317:Generated_Source\PSoC4/TxDMA.h **** *  None.
 318:Generated_Source\PSoC4/TxDMA.h **** *
 319:Generated_Source\PSoC4/TxDMA.h **** * Side effect:
 320:Generated_Source\PSoC4/TxDMA.h **** *  This function should not be called when the specified descriptor is active
 321:Generated_Source\PSoC4/TxDMA.h **** *  in the DMA transfer engine. This can be checked by calling CyDmaGetStatus(). 
 322:Generated_Source\PSoC4/TxDMA.h **** *
 323:Generated_Source\PSoC4/TxDMA.h **** *******************************************************************************/
 324:Generated_Source\PSoC4/TxDMA.h **** static CY_INLINE void TxDMA_SetSrcAddress(int32 descriptor, void * srcAddress)
 325:Generated_Source\PSoC4/TxDMA.h **** {
 326:Generated_Source\PSoC4/TxDMA.h ****     CyDmaSetSrcAddress(TxDMA_CHANNEL, descriptor, srcAddress);
 327:Generated_Source\PSoC4/TxDMA.h **** }
 328:Generated_Source\PSoC4/TxDMA.h **** 
 329:Generated_Source\PSoC4/TxDMA.h **** 
 330:Generated_Source\PSoC4/TxDMA.h **** /*******************************************************************************
 331:Generated_Source\PSoC4/TxDMA.h **** * Function Name: TxDMA_GetSrcAddress
 332:Generated_Source\PSoC4/TxDMA.h **** ********************************************************************************
ARM GAS  C:\Users\TERENC~1\AppData\Local\Temp\ccWZBAqj.s 			page 9


 333:Generated_Source\PSoC4/TxDMA.h **** *
 334:Generated_Source\PSoC4/TxDMA.h **** * Summary:
 335:Generated_Source\PSoC4/TxDMA.h **** *  Returns the source address for the specified descriptor, set by either 
 336:Generated_Source\PSoC4/TxDMA.h **** *  TxDMA_Start() or TxDMA_SetSrcAddress().
 337:Generated_Source\PSoC4/TxDMA.h **** *
 338:Generated_Source\PSoC4/TxDMA.h **** * Parameters:
 339:Generated_Source\PSoC4/TxDMA.h **** *  descriptor: Specifies descriptor (0 or 1) used by this function.
 340:Generated_Source\PSoC4/TxDMA.h **** *                   
 341:Generated_Source\PSoC4/TxDMA.h **** * Return:
 342:Generated_Source\PSoC4/TxDMA.h **** *  Source address written to specified descriptor.
 343:Generated_Source\PSoC4/TxDMA.h **** *
 344:Generated_Source\PSoC4/TxDMA.h **** *******************************************************************************/
 345:Generated_Source\PSoC4/TxDMA.h **** static CY_INLINE void * TxDMA_GetSrcAddress(int32 descriptor)
 346:Generated_Source\PSoC4/TxDMA.h **** {
 347:Generated_Source\PSoC4/TxDMA.h ****     return (CyDmaGetSrcAddress(TxDMA_CHANNEL, descriptor));
 348:Generated_Source\PSoC4/TxDMA.h **** }
 349:Generated_Source\PSoC4/TxDMA.h **** 
 350:Generated_Source\PSoC4/TxDMA.h **** 
 351:Generated_Source\PSoC4/TxDMA.h **** /*******************************************************************************
 352:Generated_Source\PSoC4/TxDMA.h **** * Function Name: TxDMA_SetDstAddress
 353:Generated_Source\PSoC4/TxDMA.h **** ********************************************************************************
 354:Generated_Source\PSoC4/TxDMA.h **** *
 355:Generated_Source\PSoC4/TxDMA.h **** * Summary:
 356:Generated_Source\PSoC4/TxDMA.h **** *  Configures the destination address for the specified descriptor.
 357:Generated_Source\PSoC4/TxDMA.h **** *
 358:Generated_Source\PSoC4/TxDMA.h **** * Parameters:
 359:Generated_Source\PSoC4/TxDMA.h **** *  descriptor: Descriptor (0 or 1) modified by this function.
 360:Generated_Source\PSoC4/TxDMA.h **** *  dstAddress: Address of DMA transfer destination.
 361:Generated_Source\PSoC4/TxDMA.h **** *                   
 362:Generated_Source\PSoC4/TxDMA.h **** * Return:
 363:Generated_Source\PSoC4/TxDMA.h **** *  None.
 364:Generated_Source\PSoC4/TxDMA.h **** *
 365:Generated_Source\PSoC4/TxDMA.h **** * Side effect:
 366:Generated_Source\PSoC4/TxDMA.h **** *  This function should not be called when the specified descriptor is active
 367:Generated_Source\PSoC4/TxDMA.h **** *  in the DMA transfer engine. This can be checked by calling CyDmaGetStatus(). 
 368:Generated_Source\PSoC4/TxDMA.h **** *
 369:Generated_Source\PSoC4/TxDMA.h **** *******************************************************************************/
 370:Generated_Source\PSoC4/TxDMA.h **** static CY_INLINE void TxDMA_SetDstAddress(int32 descriptor, void * dstAddress)
 371:Generated_Source\PSoC4/TxDMA.h **** {
 372:Generated_Source\PSoC4/TxDMA.h ****     CyDmaSetDstAddress(TxDMA_CHANNEL, descriptor, dstAddress);
 373:Generated_Source\PSoC4/TxDMA.h **** }
 374:Generated_Source\PSoC4/TxDMA.h **** 
 375:Generated_Source\PSoC4/TxDMA.h **** 
 376:Generated_Source\PSoC4/TxDMA.h **** /*******************************************************************************
 377:Generated_Source\PSoC4/TxDMA.h **** * Function Name: TxDMA_GetDstAddress
 378:Generated_Source\PSoC4/TxDMA.h **** ********************************************************************************
 379:Generated_Source\PSoC4/TxDMA.h **** *
 380:Generated_Source\PSoC4/TxDMA.h **** * Summary:
 381:Generated_Source\PSoC4/TxDMA.h **** *  Returns the destination address for the specified descriptor, set by either 
 382:Generated_Source\PSoC4/TxDMA.h **** *  TxDMA_Start() or TxDMA_SetDstAddress().
 383:Generated_Source\PSoC4/TxDMA.h **** *
 384:Generated_Source\PSoC4/TxDMA.h **** * Parameters:
 385:Generated_Source\PSoC4/TxDMA.h **** *  descriptor: Specifies descriptor (0 or 1) used by this function.
 386:Generated_Source\PSoC4/TxDMA.h **** *                   
 387:Generated_Source\PSoC4/TxDMA.h **** * Return:
 388:Generated_Source\PSoC4/TxDMA.h **** *  Destination address written to specified descriptor.
 389:Generated_Source\PSoC4/TxDMA.h **** *
ARM GAS  C:\Users\TERENC~1\AppData\Local\Temp\ccWZBAqj.s 			page 10


 390:Generated_Source\PSoC4/TxDMA.h **** *******************************************************************************/
 391:Generated_Source\PSoC4/TxDMA.h **** static CY_INLINE void * TxDMA_GetDstAddress(int32 descriptor)
 392:Generated_Source\PSoC4/TxDMA.h **** {
 393:Generated_Source\PSoC4/TxDMA.h ****     return (CyDmaGetDstAddress(TxDMA_CHANNEL, descriptor));
 394:Generated_Source\PSoC4/TxDMA.h **** }
 395:Generated_Source\PSoC4/TxDMA.h **** 
 396:Generated_Source\PSoC4/TxDMA.h **** 
 397:Generated_Source\PSoC4/TxDMA.h **** /*******************************************************************************
 398:Generated_Source\PSoC4/TxDMA.h **** * Function Name: TxDMA_SetDataElementSize
 399:Generated_Source\PSoC4/TxDMA.h **** ********************************************************************************
 400:Generated_Source\PSoC4/TxDMA.h **** *
 401:Generated_Source\PSoC4/TxDMA.h **** * Summary:
 402:Generated_Source\PSoC4/TxDMA.h **** *  Sets the data element size for the specified descriptor.
 403:Generated_Source\PSoC4/TxDMA.h **** *
 404:Generated_Source\PSoC4/TxDMA.h **** * Parameters:
 405:Generated_Source\PSoC4/TxDMA.h **** *  descriptor:      Descriptor (0 or 1) modified by this function.
 406:Generated_Source\PSoC4/TxDMA.h **** *  dataElementSize: Specifies the size of the data element. The DMA transfer
 407:Generated_Source\PSoC4/TxDMA.h **** *                   engine transfers one data element at a time. How these
 408:Generated_Source\PSoC4/TxDMA.h **** *                   transfers occur is controlled by the transfer mode.
 409:Generated_Source\PSoC4/TxDMA.h **** *                   Refer to the API bit field definitions in CyDMA_P4.h or API
 410:Generated_Source\PSoC4/TxDMA.h **** *                   description in the DMA channel datasheet for the parameter
 411:Generated_Source\PSoC4/TxDMA.h **** *                   options.
 412:Generated_Source\PSoC4/TxDMA.h **** *
 413:Generated_Source\PSoC4/TxDMA.h **** * Return:
 414:Generated_Source\PSoC4/TxDMA.h **** *  None.
 415:Generated_Source\PSoC4/TxDMA.h **** *
 416:Generated_Source\PSoC4/TxDMA.h **** * Side effect:
 417:Generated_Source\PSoC4/TxDMA.h **** *  This function should not be called when the specified descriptor is active
 418:Generated_Source\PSoC4/TxDMA.h **** *  in the DMA transfer engine. This can be checked by calling CyDmaGetStatus(). 
 419:Generated_Source\PSoC4/TxDMA.h **** *
 420:Generated_Source\PSoC4/TxDMA.h **** *******************************************************************************/
 421:Generated_Source\PSoC4/TxDMA.h **** static CY_INLINE void TxDMA_SetDataElementSize(int32 descriptor, uint32 dataElementSize)
 422:Generated_Source\PSoC4/TxDMA.h **** {
 423:Generated_Source\PSoC4/TxDMA.h ****     CyDmaSetDataElementSize(TxDMA_CHANNEL, descriptor, dataElementSize);
 424:Generated_Source\PSoC4/TxDMA.h **** }
 425:Generated_Source\PSoC4/TxDMA.h **** 
 426:Generated_Source\PSoC4/TxDMA.h **** 
 427:Generated_Source\PSoC4/TxDMA.h **** /*******************************************************************************
 428:Generated_Source\PSoC4/TxDMA.h **** * Function Name: TxDMA_GetDataElementSize
 429:Generated_Source\PSoC4/TxDMA.h **** ********************************************************************************
 430:Generated_Source\PSoC4/TxDMA.h **** *
 431:Generated_Source\PSoC4/TxDMA.h **** * Summary:
 432:Generated_Source\PSoC4/TxDMA.h **** *  Returns the data element size configured for the specified descriptor, set by
 433:Generated_Source\PSoC4/TxDMA.h **** *  TxDMA_SetDataElementSize() or TxDMA_SetConfiguration().
 434:Generated_Source\PSoC4/TxDMA.h **** *
 435:Generated_Source\PSoC4/TxDMA.h **** * Parameters:
 436:Generated_Source\PSoC4/TxDMA.h **** *  descriptor: Descriptor (0 or 1) modified by this function.
 437:Generated_Source\PSoC4/TxDMA.h **** *                   
 438:Generated_Source\PSoC4/TxDMA.h **** * Return:
 439:Generated_Source\PSoC4/TxDMA.h **** *  The size of the data element. The DMA transfer engine transfers one data
 440:Generated_Source\PSoC4/TxDMA.h **** *  element at a time. How these transfers occur is controlled by the transfer
 441:Generated_Source\PSoC4/TxDMA.h **** *  mode. Refer to the API bit field definitions in CyDMA_P4.h or the API 
 442:Generated_Source\PSoC4/TxDMA.h **** *  description in the DMA channel datasheet for more information.
 443:Generated_Source\PSoC4/TxDMA.h **** *
 444:Generated_Source\PSoC4/TxDMA.h **** * Note:
 445:Generated_Source\PSoC4/TxDMA.h **** *  The size of the source and destination can be configured to use the
 446:Generated_Source\PSoC4/TxDMA.h **** *  data element size, or a Word, this is set in TxDMA_SetSrcDstTransferWidth().
ARM GAS  C:\Users\TERENC~1\AppData\Local\Temp\ccWZBAqj.s 			page 11


 447:Generated_Source\PSoC4/TxDMA.h **** *
 448:Generated_Source\PSoC4/TxDMA.h **** *******************************************************************************/
 449:Generated_Source\PSoC4/TxDMA.h **** static CY_INLINE uint32 TxDMA_GetDataElementSize(int32 descriptor)
 450:Generated_Source\PSoC4/TxDMA.h **** {
 451:Generated_Source\PSoC4/TxDMA.h ****     return (CyDmaGetDataElementSize(TxDMA_CHANNEL, descriptor));
 452:Generated_Source\PSoC4/TxDMA.h **** }
 453:Generated_Source\PSoC4/TxDMA.h **** 
 454:Generated_Source\PSoC4/TxDMA.h **** 
 455:Generated_Source\PSoC4/TxDMA.h **** /*******************************************************************************
 456:Generated_Source\PSoC4/TxDMA.h **** * Function Name: TxDMA_SetNumDataElements
 457:Generated_Source\PSoC4/TxDMA.h **** ********************************************************************************
 458:Generated_Source\PSoC4/TxDMA.h **** *
 459:Generated_Source\PSoC4/TxDMA.h **** * Summary:
 460:Generated_Source\PSoC4/TxDMA.h **** *  Sets the number of data elements to transfer for specified descriptor.
 461:Generated_Source\PSoC4/TxDMA.h **** *
 462:Generated_Source\PSoC4/TxDMA.h **** * Parameters:
 463:Generated_Source\PSoC4/TxDMA.h **** *  descriptor:      Descriptor (0 or 1) modified by this function.
 464:Generated_Source\PSoC4/TxDMA.h **** *  numDataElements: Total number of data elements this descriptor transfers.
 465:Generated_Source\PSoC4/TxDMA.h **** *                   Valid ranges are 1 to 65536.
 466:Generated_Source\PSoC4/TxDMA.h **** *                   
 467:Generated_Source\PSoC4/TxDMA.h **** * Return:
 468:Generated_Source\PSoC4/TxDMA.h **** *  None.
 469:Generated_Source\PSoC4/TxDMA.h **** *
 470:Generated_Source\PSoC4/TxDMA.h **** * Side effect:
 471:Generated_Source\PSoC4/TxDMA.h **** *  This function should not be called when the specified descriptor is active
 472:Generated_Source\PSoC4/TxDMA.h **** *  in the DMA transfer engine. This can be checked by calling CyDmaGetStatus(). 
 473:Generated_Source\PSoC4/TxDMA.h **** *
 474:Generated_Source\PSoC4/TxDMA.h **** *******************************************************************************/
 475:Generated_Source\PSoC4/TxDMA.h **** static CY_INLINE void TxDMA_SetNumDataElements(int32 descriptor, int32 numDataElements)
 476:Generated_Source\PSoC4/TxDMA.h **** {
 477:Generated_Source\PSoC4/TxDMA.h ****     CyDmaSetNumDataElements(TxDMA_CHANNEL, descriptor, numDataElements);
  42              		.loc 2 477 0
  43 0006 9022     		movs	r2, #144
  44 0008 D200     		lsls	r2, r2, #3
  45 000a 0021     		movs	r1, #0
  46 000c 0020     		movs	r0, #0
  47 000e FFF7FEFF 		bl	CyDmaSetNumDataElements
  48              	.LVL1:
  49              	.LBE63:
  50              	.LBE62:
  51              	.LBB64:
  52              	.LBB65:
 326:Generated_Source\PSoC4/TxDMA.h **** }
  53              		.loc 2 326 0
  54 0012 0C4A     		ldr	r2, .L2
  55 0014 0021     		movs	r1, #0
  56 0016 0020     		movs	r0, #0
  57 0018 FFF7FEFF 		bl	CyDmaSetSrcAddress
  58              	.LVL2:
  59              	.LBE65:
  60              	.LBE64:
  61              	.LBB66:
  62              	.LBB67:
 372:Generated_Source\PSoC4/TxDMA.h **** }
  63              		.loc 2 372 0
  64 001c 0A4A     		ldr	r2, .L2+4
  65 001e 0021     		movs	r1, #0
ARM GAS  C:\Users\TERENC~1\AppData\Local\Temp\ccWZBAqj.s 			page 12


  66 0020 0020     		movs	r0, #0
  67 0022 FFF7FEFF 		bl	CyDmaSetDstAddress
  68              	.LVL3:
  69              	.LBE67:
  70              	.LBE66:
  71              	.LBB68:
  72              	.LBB69:
 279:Generated_Source\PSoC4/TxDMA.h **** }
  73              		.loc 2 279 0
  74 0026 0021     		movs	r1, #0
  75 0028 0020     		movs	r0, #0
  76 002a FFF7FEFF 		bl	CyDmaValidateDescriptor
  77              	.LVL4:
  78              	.LBE69:
  79              	.LBE68:
  84:AudioOut.c    **** 	TxDMA_SetNumDataElements(0, OUT_BUFSIZE);
  85:AudioOut.c    ****     TxDMA_SetSrcAddress(0, (void *) outBuffer);
  86:AudioOut.c    **** 	TxDMA_SetDstAddress(0, (void *) I2S_TX_FIFO_0_PTR);
  87:AudioOut.c    **** 	
  88:AudioOut.c    **** 	/* Validate descriptor */
  89:AudioOut.c    ****     TxDMA_ValidateDescriptor(0);
  90:AudioOut.c    **** 		        
  91:AudioOut.c    ****     /* USB Out DMA Config: Entire chain is sent based on a single request from the CPU TDs are conf
  92:AudioOut.c    ****     /* runtime when executing USB Endpoint interrupts */	
  93:AudioOut.c    ****     USBOutDMA_Init(); 
  80              		.loc 1 93 0
  81 002e FFF7FEFF 		bl	USBOutDMA_Init
  82              	.LVL5:
  83              	.LBB70:
  84              	.LBB71:
  85              		.file 3 "Generated_Source\\PSoC4/USBOutDMA.h"
   1:Generated_Source\PSoC4/USBOutDMA.h **** /*******************************************************************************
   2:Generated_Source\PSoC4/USBOutDMA.h **** * File Name: USBOutDMA.h
   3:Generated_Source\PSoC4/USBOutDMA.h **** * Version 1.0
   4:Generated_Source\PSoC4/USBOutDMA.h **** *
   5:Generated_Source\PSoC4/USBOutDMA.h **** * Description:
   6:Generated_Source\PSoC4/USBOutDMA.h **** *  This file provides DMA channel defines and API function definitions.
   7:Generated_Source\PSoC4/USBOutDMA.h **** *
   8:Generated_Source\PSoC4/USBOutDMA.h **** ********************************************************************************
   9:Generated_Source\PSoC4/USBOutDMA.h **** * Copyright 2015, Cypress Semiconductor Corporation. All rights reserved.
  10:Generated_Source\PSoC4/USBOutDMA.h **** * You may use this file only in accordance with the license, terms, conditions,
  11:Generated_Source\PSoC4/USBOutDMA.h **** * disclaimers, and limitations in the end user license agreement accompanying
  12:Generated_Source\PSoC4/USBOutDMA.h **** * the software package with which this file was provided.
  13:Generated_Source\PSoC4/USBOutDMA.h **** *******************************************************************************/
  14:Generated_Source\PSoC4/USBOutDMA.h **** 
  15:Generated_Source\PSoC4/USBOutDMA.h **** #ifndef CY_DMA_CHANNEL_USBOutDMA_H
  16:Generated_Source\PSoC4/USBOutDMA.h **** #define CY_DMA_CHANNEL_USBOutDMA_H
  17:Generated_Source\PSoC4/USBOutDMA.h **** 
  18:Generated_Source\PSoC4/USBOutDMA.h **** #include "CyDMA.h"
  19:Generated_Source\PSoC4/USBOutDMA.h **** 
  20:Generated_Source\PSoC4/USBOutDMA.h ****     
  21:Generated_Source\PSoC4/USBOutDMA.h **** /***************************************
  22:Generated_Source\PSoC4/USBOutDMA.h **** *   Conditional Compilation Parameters
  23:Generated_Source\PSoC4/USBOutDMA.h **** ***************************************/
  24:Generated_Source\PSoC4/USBOutDMA.h **** 
  25:Generated_Source\PSoC4/USBOutDMA.h **** #define USBOutDMA_CHANNEL           (USBOutDMA__CHANNEL_NUMBER)
  26:Generated_Source\PSoC4/USBOutDMA.h **** #define USBOutDMA_CHANNEL_MASK      ((uint32)(1UL << USBOutDMA_CHANNEL))
ARM GAS  C:\Users\TERENC~1\AppData\Local\Temp\ccWZBAqj.s 			page 13


  27:Generated_Source\PSoC4/USBOutDMA.h **** 
  28:Generated_Source\PSoC4/USBOutDMA.h **** 
  29:Generated_Source\PSoC4/USBOutDMA.h **** /***************************************
  30:Generated_Source\PSoC4/USBOutDMA.h **** *        Function Prototypes
  31:Generated_Source\PSoC4/USBOutDMA.h **** ***************************************/
  32:Generated_Source\PSoC4/USBOutDMA.h **** 
  33:Generated_Source\PSoC4/USBOutDMA.h **** /* Functions specific to this DMA channel */
  34:Generated_Source\PSoC4/USBOutDMA.h **** void USBOutDMA_Init(void);
  35:Generated_Source\PSoC4/USBOutDMA.h **** void USBOutDMA_Start(void * srcAddress, void * dstAddress);
  36:Generated_Source\PSoC4/USBOutDMA.h **** 
  37:Generated_Source\PSoC4/USBOutDMA.h **** /* Inline functions that call global API functions */
  38:Generated_Source\PSoC4/USBOutDMA.h **** static void   USBOutDMA_ChEnable(void);
  39:Generated_Source\PSoC4/USBOutDMA.h **** static void   USBOutDMA_ChDisable(void);
  40:Generated_Source\PSoC4/USBOutDMA.h **** static void   USBOutDMA_Trigger(void);
  41:Generated_Source\PSoC4/USBOutDMA.h **** static void   USBOutDMA_SetPriority(int32 priority);
  42:Generated_Source\PSoC4/USBOutDMA.h **** static int32  USBOutDMA_GetPriority(void);
  43:Generated_Source\PSoC4/USBOutDMA.h **** static void   USBOutDMA_SetNextDescriptor(int32 descriptor);
  44:Generated_Source\PSoC4/USBOutDMA.h **** static int32  USBOutDMA_GetNextDescriptor(void);
  45:Generated_Source\PSoC4/USBOutDMA.h **** static void   USBOutDMA_SetConfiguration(int32 descriptor, const cydma_init_struct * config);
  46:Generated_Source\PSoC4/USBOutDMA.h **** static void   USBOutDMA_ValidateDescriptor(int32 descriptor);
  47:Generated_Source\PSoC4/USBOutDMA.h **** static uint32 USBOutDMA_GetDescriptorStatus(int32 descriptor);
  48:Generated_Source\PSoC4/USBOutDMA.h **** static void   USBOutDMA_SetSrcAddress(int32 descriptor, void * srcAddress);
  49:Generated_Source\PSoC4/USBOutDMA.h **** static void * USBOutDMA_GetSrcAddress(int32 descriptor);
  50:Generated_Source\PSoC4/USBOutDMA.h **** static void   USBOutDMA_SetDstAddress(int32 descriptor, void * dstAddress);
  51:Generated_Source\PSoC4/USBOutDMA.h **** static void * USBOutDMA_GetDstAddress(int32 descriptor);
  52:Generated_Source\PSoC4/USBOutDMA.h **** static void   USBOutDMA_SetDataElementSize(int32 descriptor, uint32 dataElementSize);
  53:Generated_Source\PSoC4/USBOutDMA.h **** static uint32 USBOutDMA_GetDataElementSize(int32 descriptor);
  54:Generated_Source\PSoC4/USBOutDMA.h **** static void   USBOutDMA_SetNumDataElements(int32 descriptor, int32 numDataElements);
  55:Generated_Source\PSoC4/USBOutDMA.h **** static int32  USBOutDMA_GetNumDataElements(int32 descriptor);
  56:Generated_Source\PSoC4/USBOutDMA.h **** static void   USBOutDMA_SetSrcDstTransferWidth(int32 descriptor, uint32 transferWidth);
  57:Generated_Source\PSoC4/USBOutDMA.h **** static uint32 USBOutDMA_GetSrcDstTransferWidth(int32 descriptor);
  58:Generated_Source\PSoC4/USBOutDMA.h **** static void   USBOutDMA_SetAddressIncrement(int32 descriptor, uint32 addressIncrement);
  59:Generated_Source\PSoC4/USBOutDMA.h **** static uint32 USBOutDMA_GetAddressIncrement(int32 descriptor);
  60:Generated_Source\PSoC4/USBOutDMA.h **** static void   USBOutDMA_SetTriggerType(int32 descriptor, uint32 triggerType);
  61:Generated_Source\PSoC4/USBOutDMA.h **** static uint32 USBOutDMA_GetTriggerType(int32 descriptor);
  62:Generated_Source\PSoC4/USBOutDMA.h **** static void   USBOutDMA_SetTransferMode(int32 descriptor, uint32 transferMode);
  63:Generated_Source\PSoC4/USBOutDMA.h **** static uint32 USBOutDMA_GetTransferMode(int32 descriptor);
  64:Generated_Source\PSoC4/USBOutDMA.h **** static void   USBOutDMA_SetPreemptable(int32 descriptor, uint32 preemptable);
  65:Generated_Source\PSoC4/USBOutDMA.h **** static uint32 USBOutDMA_GetPreemptable(int32 descriptor);
  66:Generated_Source\PSoC4/USBOutDMA.h **** static void   USBOutDMA_SetPostCompletionActions(int32 descriptor, uint32 actions);
  67:Generated_Source\PSoC4/USBOutDMA.h **** static uint32 USBOutDMA_GetPostCompletionAction(int32 descriptor);
  68:Generated_Source\PSoC4/USBOutDMA.h **** static cydma_callback_t USBOutDMA_SetInterruptCallback(cydma_callback_t callback);
  69:Generated_Source\PSoC4/USBOutDMA.h **** static cydma_callback_t USBOutDMA_GetInterruptCallback(void);
  70:Generated_Source\PSoC4/USBOutDMA.h **** 
  71:Generated_Source\PSoC4/USBOutDMA.h **** 
  72:Generated_Source\PSoC4/USBOutDMA.h **** /*******************************************************************************
  73:Generated_Source\PSoC4/USBOutDMA.h **** * Function Name: USBOutDMA_ChEnable
  74:Generated_Source\PSoC4/USBOutDMA.h **** ********************************************************************************
  75:Generated_Source\PSoC4/USBOutDMA.h **** *
  76:Generated_Source\PSoC4/USBOutDMA.h **** * Summary:
  77:Generated_Source\PSoC4/USBOutDMA.h **** *  Enables the DMA channel. It is not necessary to call USBOutDMA_ChEnable()
  78:Generated_Source\PSoC4/USBOutDMA.h **** *  because the USBOutDMA_Start() API calls this function, which is the
  79:Generated_Source\PSoC4/USBOutDMA.h **** *  preferred method to begin the component operation.
  80:Generated_Source\PSoC4/USBOutDMA.h **** *
  81:Generated_Source\PSoC4/USBOutDMA.h **** * Parameters:
  82:Generated_Source\PSoC4/USBOutDMA.h **** *  None.
  83:Generated_Source\PSoC4/USBOutDMA.h **** *                   
ARM GAS  C:\Users\TERENC~1\AppData\Local\Temp\ccWZBAqj.s 			page 14


  84:Generated_Source\PSoC4/USBOutDMA.h **** * Return:
  85:Generated_Source\PSoC4/USBOutDMA.h **** *  None.
  86:Generated_Source\PSoC4/USBOutDMA.h **** *
  87:Generated_Source\PSoC4/USBOutDMA.h **** * Side effect:
  88:Generated_Source\PSoC4/USBOutDMA.h **** *  If this function is called before USBOutDMA_Start(), or USBOutDMA_Init()
  89:Generated_Source\PSoC4/USBOutDMA.h **** *  or USBOutDMA_SetConfiguration(), and USBOutDMA_SetSrcAddress()
  90:Generated_Source\PSoC4/USBOutDMA.h **** *  and USBOutDMA_SetDstAddress the operation of the DMA is 
  91:Generated_Source\PSoC4/USBOutDMA.h **** *  undefined and could result in system data corruption. 
  92:Generated_Source\PSoC4/USBOutDMA.h **** *
  93:Generated_Source\PSoC4/USBOutDMA.h **** *******************************************************************************/
  94:Generated_Source\PSoC4/USBOutDMA.h **** static CY_INLINE void USBOutDMA_ChEnable(void)
  95:Generated_Source\PSoC4/USBOutDMA.h **** {
  96:Generated_Source\PSoC4/USBOutDMA.h ****     CyDmaChEnable(USBOutDMA_CHANNEL);
  86              		.loc 3 96 0
  87 0032 0320     		movs	r0, #3
  88 0034 FFF7FEFF 		bl	CyDmaChEnable
  89              	.LVL6:
  90              	.LBE71:
  91              	.LBE70:
  94:AudioOut.c    **** 	USBOutDMA_ChEnable();
  95:AudioOut.c    **** 	
  96:AudioOut.c    **** 	ByteCounter_Tx_Init();
  92              		.loc 1 96 0
  93 0038 FFF7FEFF 		bl	ByteCounter_Tx_Init
  94              	.LVL7:
  97:AudioOut.c    ****     
  98:AudioOut.c    ****     /* Start interrupts */
  99:AudioOut.c    ****     isr_TxDMADone_StartEx(TxDMADone_Interrupt);
  95              		.loc 1 99 0
  96 003c 0348     		ldr	r0, .L2+8
  97 003e FFF7FEFF 		bl	isr_TxDMADone_StartEx
  98              	.LVL8:
 100:AudioOut.c    **** 
 101:AudioOut.c    **** }
  99              		.loc 1 101 0
 100              		@ sp needed
 101 0042 10BD     		pop	{r4, pc}
 102              	.L3:
 103              		.align	2
 104              	.L2:
 105 0044 00000000 		.word	outBuffer
 106 0048 43000F40 		.word	1074724931
 107 004c 00000000 		.word	TxDMADone_Interrupt
 108              		.cfi_endproc
 109              	.LFE355:
 110              		.size	InitializeAudioOutPath, .-InitializeAudioOutPath
 111              		.section	.text.ProcessAudioOut,"ax",%progbits
 112              		.align	2
 113              		.global	ProcessAudioOut
 114              		.code	16
 115              		.thumb_func
 116              		.type	ProcessAudioOut, %function
 117              	ProcessAudioOut:
 118              	.LFB356:
 102:AudioOut.c    **** 
 103:AudioOut.c    **** /*******************************************************************************
 104:AudioOut.c    **** * Function Name: ProcessAudioOut
ARM GAS  C:\Users\TERENC~1\AppData\Local\Temp\ccWZBAqj.s 			page 15


 105:AudioOut.c    **** ********************************************************************************
 106:AudioOut.c    **** * Summary:
 107:AudioOut.c    **** *        Handle audio out data, setup USB DMA and trigger the DMA to transfer 
 108:AudioOut.c    **** *        audio samples from SRAM USB endpoint memory to SRAM audio circular 
 109:AudioOut.c    **** *        buffer. The API also starts the I2S transmit when USB audio out streaming 
 110:AudioOut.c    **** *        is active
 111:AudioOut.c    **** *
 112:AudioOut.c    **** * Parameters:
 113:AudioOut.c    **** *  void
 114:AudioOut.c    **** *
 115:AudioOut.c    **** * Return:
 116:AudioOut.c    **** *  void
 117:AudioOut.c    **** *
 118:AudioOut.c    **** *******************************************************************************/
 119:AudioOut.c    **** 
 120:AudioOut.c    **** void ProcessAudioOut(void) 
 121:AudioOut.c    **** {
 119              		.loc 1 121 0
 120              		.cfi_startproc
 121              		@ args = 0, pretend = 0, frame = 0
 122              		@ frame_needed = 0, uses_anonymous_args = 0
 123 0000 F0B5     		push	{r4, r5, r6, r7, lr}
 124              		.cfi_def_cfa_offset 20
 125              		.cfi_offset 4, -20
 126              		.cfi_offset 5, -16
 127              		.cfi_offset 6, -12
 128              		.cfi_offset 7, -8
 129              		.cfi_offset 14, -4
 130 0002 4F46     		mov	r7, r9
 131 0004 80B4     		push	{r7}
 132              		.cfi_def_cfa_offset 24
 133              		.cfi_offset 9, -24
 122:AudioOut.c    **** 	uint16 count;
 123:AudioOut.c    ****     uint16 remain;
 124:AudioOut.c    ****     
 125:AudioOut.c    ****     if( TRUE == audioClkConfigured)
 134              		.loc 1 125 0
 135 0006 614B     		ldr	r3, .L9
 136 0008 1B78     		ldrb	r3, [r3]
 137 000a 012B     		cmp	r3, #1
 138 000c 00D0     		beq	.LCB105
 139 000e BAE0     		b	.L4	@long jump
 140              	.LCB105:
 126:AudioOut.c    ****     {
 127:AudioOut.c    ****         /* Check TX buffer reset condition and clear pointers if required */
 128:AudioOut.c    ****         if (resetTx) 
 141              		.loc 1 128 0
 142 0010 5F4B     		ldr	r3, .L9+4
 143 0012 1B78     		ldrb	r3, [r3]
 144 0014 002B     		cmp	r3, #0
 145 0016 04D0     		beq	.L6
 129:AudioOut.c    ****         {
 130:AudioOut.c    ****             outBufIndex = 0;
 146              		.loc 1 130 0
 147 0018 5D4B     		ldr	r3, .L9+4
 148 001a 0022     		movs	r2, #0
 149 001c 5A80     		strh	r2, [r3, #2]
ARM GAS  C:\Users\TERENC~1\AppData\Local\Temp\ccWZBAqj.s 			page 16


 131:AudioOut.c    ****             outUsbCount = 0;
 150              		.loc 1 131 0
 151 001e 9A80     		strh	r2, [r3, #4]
 132:AudioOut.c    ****             resetTx = 0;
 152              		.loc 1 132 0
 153 0020 1A70     		strb	r2, [r3]
 154              	.L6:
 155              	.LBB72:
 156              	.LBB73:
  97:Generated_Source\PSoC4/USBOutDMA.h **** }
  98:Generated_Source\PSoC4/USBOutDMA.h **** 
  99:Generated_Source\PSoC4/USBOutDMA.h **** 
 100:Generated_Source\PSoC4/USBOutDMA.h **** /*******************************************************************************
 101:Generated_Source\PSoC4/USBOutDMA.h **** * Function Name: USBOutDMA_ChDisable
 102:Generated_Source\PSoC4/USBOutDMA.h **** ********************************************************************************
 103:Generated_Source\PSoC4/USBOutDMA.h **** *
 104:Generated_Source\PSoC4/USBOutDMA.h **** * Summary:
 105:Generated_Source\PSoC4/USBOutDMA.h **** *  Disables the DMA channel.
 106:Generated_Source\PSoC4/USBOutDMA.h **** *
 107:Generated_Source\PSoC4/USBOutDMA.h **** * Parameters:
 108:Generated_Source\PSoC4/USBOutDMA.h **** *  None.
 109:Generated_Source\PSoC4/USBOutDMA.h **** *                   
 110:Generated_Source\PSoC4/USBOutDMA.h **** * Return:
 111:Generated_Source\PSoC4/USBOutDMA.h **** *  None.
 112:Generated_Source\PSoC4/USBOutDMA.h **** *
 113:Generated_Source\PSoC4/USBOutDMA.h **** * Side effect:
 114:Generated_Source\PSoC4/USBOutDMA.h **** *  If this function is called during a DMA transfer the transfer is aborted. 
 115:Generated_Source\PSoC4/USBOutDMA.h **** *
 116:Generated_Source\PSoC4/USBOutDMA.h **** *******************************************************************************/
 117:Generated_Source\PSoC4/USBOutDMA.h **** static CY_INLINE void USBOutDMA_ChDisable(void)
 118:Generated_Source\PSoC4/USBOutDMA.h **** {
 119:Generated_Source\PSoC4/USBOutDMA.h ****     CyDmaChDisable(USBOutDMA_CHANNEL);
 157              		.loc 3 119 0
 158 0022 0320     		movs	r0, #3
 159 0024 FFF7FEFF 		bl	CyDmaChDisable
 160              	.LVL9:
 161              	.LBE73:
 162              	.LBE72:
 133:AudioOut.c    ****         }        
 134:AudioOut.c    **** 		
 135:AudioOut.c    ****         /* Disable the USBOut DMA channel */
 136:AudioOut.c    **** 		USBOutDMA_ChDisable();
 137:AudioOut.c    **** 		
 138:AudioOut.c    **** 		/* Obtain the number of bytes received from USB Audio OUT endpoint */
 139:AudioOut.c    ****         count = USBFS_GetEPCount(AUDIO_OUT_ENDPOINT);
 163              		.loc 1 139 0
 164 0028 0120     		movs	r0, #1
 165 002a FFF7FEFF 		bl	USBFS_GetEPCount
 166              	.LVL10:
 167 002e 041E     		subs	r4, r0, #0
 168              	.LVL11:
 140:AudioOut.c    **** 
 141:AudioOut.c    ****         if (count > 0)
 169              		.loc 1 141 0
 170 0030 00D1     		bne	.LCB131
 171 0032 8AE0     		b	.L7	@long jump
 172              	.LCB131:
ARM GAS  C:\Users\TERENC~1\AppData\Local\Temp\ccWZBAqj.s 			page 17


 142:AudioOut.c    ****         {
 143:AudioOut.c    ****             /* Update of usbCount needs to be atomic */
 144:AudioOut.c    ****             isr_TxDMADone_Disable();
 173              		.loc 1 144 0
 174 0034 FFF7FEFF 		bl	isr_TxDMADone_Disable
 175              	.LVL12:
 145:AudioOut.c    ****             outUsbCount += count;
 176              		.loc 1 145 0
 177 0038 554D     		ldr	r5, .L9+4
 178 003a AB88     		ldrh	r3, [r5, #4]
 179 003c E318     		adds	r3, r4, r3
 180 003e AB80     		strh	r3, [r5, #4]
 146:AudioOut.c    ****             isr_TxDMADone_Enable();
 181              		.loc 1 146 0
 182 0040 FFF7FEFF 		bl	isr_TxDMADone_Enable
 183              	.LVL13:
 147:AudioOut.c    ****             
 148:AudioOut.c    ****     		/* Implement the circular buffer (outBuffer) DMA transfer
 149:AudioOut.c    ****     			When the number of bytes to transfer from USB outRam to outBuffer makes the outBuffer to ove
 150:AudioOut.c    ****     			wraparound the buffer and fill the remaining number of bytes from the buffer start. Two DMA 
 151:AudioOut.c    ****     			used for this purpose - one (TD 0) transferring the outRam to outBuffer till outBuffer is fu
 152:AudioOut.c    ****     			second one (TD 1) transferring the remaining number of bytes to the outBuffer starting locat
 153:AudioOut.c    ****     			
 154:AudioOut.c    ****     			When the number of bytes to transfer from outRam to outBuffer does not make the outBuffer to
 155:AudioOut.c    ****     			Use only one TD (TD 0) to transfer the entire outRam contents to outBuffer */
 156:AudioOut.c    ****             if((outBufIndex + count) > sizeof(outBuffer))
 184              		.loc 1 156 0
 185 0044 6B88     		ldrh	r3, [r5, #2]
 186 0046 1919     		adds	r1, r3, r4
 187 0048 9022     		movs	r2, #144
 188 004a D200     		lsls	r2, r2, #3
 189 004c 9142     		cmp	r1, r2
 190 004e 4BD9     		bls	.L8
 157:AudioOut.c    ****             {
 158:AudioOut.c    ****                 /* Set up TD to wrap around circular buffer */
 159:AudioOut.c    ****                 remain = sizeof(outBuffer) - outBufIndex;
 191              		.loc 1 159 0
 192 0050 D51A     		subs	r5, r2, r3
 193 0052 ADB2     		uxth	r5, r5
 194              	.LVL14:
 195              	.LBB74:
 196              	.LBB75:
 120:Generated_Source\PSoC4/USBOutDMA.h **** }
 121:Generated_Source\PSoC4/USBOutDMA.h **** 
 122:Generated_Source\PSoC4/USBOutDMA.h **** 
 123:Generated_Source\PSoC4/USBOutDMA.h **** /*******************************************************************************
 124:Generated_Source\PSoC4/USBOutDMA.h **** * Function Name: USBOutDMA_Trigger
 125:Generated_Source\PSoC4/USBOutDMA.h **** ********************************************************************************
 126:Generated_Source\PSoC4/USBOutDMA.h **** *
 127:Generated_Source\PSoC4/USBOutDMA.h **** * Summary:
 128:Generated_Source\PSoC4/USBOutDMA.h **** *  Triggers the DMA channel, this is useful only for software triggers. This is
 129:Generated_Source\PSoC4/USBOutDMA.h **** *  not needed when hardware triggers are used.
 130:Generated_Source\PSoC4/USBOutDMA.h **** *
 131:Generated_Source\PSoC4/USBOutDMA.h **** * Parameters:
 132:Generated_Source\PSoC4/USBOutDMA.h **** *  None.
 133:Generated_Source\PSoC4/USBOutDMA.h **** *                   
 134:Generated_Source\PSoC4/USBOutDMA.h **** * Return:
ARM GAS  C:\Users\TERENC~1\AppData\Local\Temp\ccWZBAqj.s 			page 18


 135:Generated_Source\PSoC4/USBOutDMA.h **** *  None. 
 136:Generated_Source\PSoC4/USBOutDMA.h **** *
 137:Generated_Source\PSoC4/USBOutDMA.h **** *******************************************************************************/
 138:Generated_Source\PSoC4/USBOutDMA.h **** static CY_INLINE void USBOutDMA_Trigger(void)
 139:Generated_Source\PSoC4/USBOutDMA.h **** {
 140:Generated_Source\PSoC4/USBOutDMA.h ****     CyDmaTrigger(USBOutDMA_CHANNEL);
 141:Generated_Source\PSoC4/USBOutDMA.h **** }
 142:Generated_Source\PSoC4/USBOutDMA.h **** 
 143:Generated_Source\PSoC4/USBOutDMA.h **** 
 144:Generated_Source\PSoC4/USBOutDMA.h **** /*******************************************************************************
 145:Generated_Source\PSoC4/USBOutDMA.h **** * Function Name: USBOutDMA_SetPriority
 146:Generated_Source\PSoC4/USBOutDMA.h **** ********************************************************************************
 147:Generated_Source\PSoC4/USBOutDMA.h **** *
 148:Generated_Source\PSoC4/USBOutDMA.h **** * Summary:
 149:Generated_Source\PSoC4/USBOutDMA.h **** *  Sets the priority for the channel.
 150:Generated_Source\PSoC4/USBOutDMA.h **** *
 151:Generated_Source\PSoC4/USBOutDMA.h **** * Parameters:
 152:Generated_Source\PSoC4/USBOutDMA.h **** *  priority: Priority for channel. Priority can be 0,1,2, or 3.
 153:Generated_Source\PSoC4/USBOutDMA.h **** *            0 is the highest priority.
 154:Generated_Source\PSoC4/USBOutDMA.h **** *                   
 155:Generated_Source\PSoC4/USBOutDMA.h **** * Return:
 156:Generated_Source\PSoC4/USBOutDMA.h **** *  None.
 157:Generated_Source\PSoC4/USBOutDMA.h **** *
 158:Generated_Source\PSoC4/USBOutDMA.h **** * Side effect:
 159:Generated_Source\PSoC4/USBOutDMA.h **** *  This function should not be called while the channel is enabled.
 160:Generated_Source\PSoC4/USBOutDMA.h **** *
 161:Generated_Source\PSoC4/USBOutDMA.h **** *******************************************************************************/
 162:Generated_Source\PSoC4/USBOutDMA.h **** static CY_INLINE void USBOutDMA_SetPriority(int32 priority)
 163:Generated_Source\PSoC4/USBOutDMA.h **** {
 164:Generated_Source\PSoC4/USBOutDMA.h ****     CyDmaSetPriority(USBOutDMA_CHANNEL, priority);
 165:Generated_Source\PSoC4/USBOutDMA.h **** }
 166:Generated_Source\PSoC4/USBOutDMA.h **** 
 167:Generated_Source\PSoC4/USBOutDMA.h **** 
 168:Generated_Source\PSoC4/USBOutDMA.h **** /*******************************************************************************
 169:Generated_Source\PSoC4/USBOutDMA.h **** * Function Name: USBOutDMA_GetPriority
 170:Generated_Source\PSoC4/USBOutDMA.h **** ********************************************************************************
 171:Generated_Source\PSoC4/USBOutDMA.h **** *
 172:Generated_Source\PSoC4/USBOutDMA.h **** * Summary:
 173:Generated_Source\PSoC4/USBOutDMA.h **** *  Gets the priority for the channel.
 174:Generated_Source\PSoC4/USBOutDMA.h **** *
 175:Generated_Source\PSoC4/USBOutDMA.h **** * Parameters:
 176:Generated_Source\PSoC4/USBOutDMA.h **** *  None.
 177:Generated_Source\PSoC4/USBOutDMA.h **** *                   
 178:Generated_Source\PSoC4/USBOutDMA.h **** * Return:
 179:Generated_Source\PSoC4/USBOutDMA.h **** *  Priority for channel. Priority can be 0,1,2, or 3. 0 is the highest priority.
 180:Generated_Source\PSoC4/USBOutDMA.h **** *
 181:Generated_Source\PSoC4/USBOutDMA.h **** *******************************************************************************/
 182:Generated_Source\PSoC4/USBOutDMA.h **** static CY_INLINE int32 USBOutDMA_GetPriority(void)
 183:Generated_Source\PSoC4/USBOutDMA.h **** {
 184:Generated_Source\PSoC4/USBOutDMA.h ****     return (CyDmaGetPriority(USBOutDMA_CHANNEL));
 185:Generated_Source\PSoC4/USBOutDMA.h **** }
 186:Generated_Source\PSoC4/USBOutDMA.h **** 
 187:Generated_Source\PSoC4/USBOutDMA.h **** 
 188:Generated_Source\PSoC4/USBOutDMA.h **** /*******************************************************************************
 189:Generated_Source\PSoC4/USBOutDMA.h **** * Function Name: USBOutDMA_SetNextDescriptor
 190:Generated_Source\PSoC4/USBOutDMA.h **** ********************************************************************************
 191:Generated_Source\PSoC4/USBOutDMA.h **** *
ARM GAS  C:\Users\TERENC~1\AppData\Local\Temp\ccWZBAqj.s 			page 19


 192:Generated_Source\PSoC4/USBOutDMA.h **** * Summary:
 193:Generated_Source\PSoC4/USBOutDMA.h **** *  Sets the descriptor that should be run the next time the channel is
 194:Generated_Source\PSoC4/USBOutDMA.h **** *  triggered.
 195:Generated_Source\PSoC4/USBOutDMA.h **** *
 196:Generated_Source\PSoC4/USBOutDMA.h **** * Parameters:
 197:Generated_Source\PSoC4/USBOutDMA.h **** *  descriptor: Next Descriptor to run (0 or 1).
 198:Generated_Source\PSoC4/USBOutDMA.h **** *                   
 199:Generated_Source\PSoC4/USBOutDMA.h **** * Side effect:
 200:Generated_Source\PSoC4/USBOutDMA.h **** *  This function should not be called while the channel is enabled.
 201:Generated_Source\PSoC4/USBOutDMA.h **** *
 202:Generated_Source\PSoC4/USBOutDMA.h **** *******************************************************************************/
 203:Generated_Source\PSoC4/USBOutDMA.h **** static CY_INLINE void USBOutDMA_SetNextDescriptor(int32 descriptor)
 204:Generated_Source\PSoC4/USBOutDMA.h **** {
 205:Generated_Source\PSoC4/USBOutDMA.h ****     CyDmaSetNextDescriptor(USBOutDMA_CHANNEL, descriptor);
 206:Generated_Source\PSoC4/USBOutDMA.h **** }
 207:Generated_Source\PSoC4/USBOutDMA.h **** 
 208:Generated_Source\PSoC4/USBOutDMA.h **** 
 209:Generated_Source\PSoC4/USBOutDMA.h **** /*******************************************************************************
 210:Generated_Source\PSoC4/USBOutDMA.h **** * Function Name: USBOutDMA_GetNextDescriptor
 211:Generated_Source\PSoC4/USBOutDMA.h **** ********************************************************************************
 212:Generated_Source\PSoC4/USBOutDMA.h **** *
 213:Generated_Source\PSoC4/USBOutDMA.h **** * Summary:
 214:Generated_Source\PSoC4/USBOutDMA.h **** *  Returns the next descriptor that should be run, as set by 
 215:Generated_Source\PSoC4/USBOutDMA.h **** *  USBOutDMA_SetNextDescriptor().
 216:Generated_Source\PSoC4/USBOutDMA.h **** *
 217:Generated_Source\PSoC4/USBOutDMA.h **** * Parameters:
 218:Generated_Source\PSoC4/USBOutDMA.h **** *  None.
 219:Generated_Source\PSoC4/USBOutDMA.h **** *                   
 220:Generated_Source\PSoC4/USBOutDMA.h **** * Return:
 221:Generated_Source\PSoC4/USBOutDMA.h **** *  Next Descriptor to run (0 or 1).
 222:Generated_Source\PSoC4/USBOutDMA.h **** *
 223:Generated_Source\PSoC4/USBOutDMA.h **** *******************************************************************************/
 224:Generated_Source\PSoC4/USBOutDMA.h **** static CY_INLINE int32 USBOutDMA_GetNextDescriptor(void)
 225:Generated_Source\PSoC4/USBOutDMA.h **** {
 226:Generated_Source\PSoC4/USBOutDMA.h ****     return (CyDmaGetNextDescriptor(USBOutDMA_CHANNEL));
 227:Generated_Source\PSoC4/USBOutDMA.h **** }
 228:Generated_Source\PSoC4/USBOutDMA.h **** 
 229:Generated_Source\PSoC4/USBOutDMA.h **** 
 230:Generated_Source\PSoC4/USBOutDMA.h **** /*******************************************************************************
 231:Generated_Source\PSoC4/USBOutDMA.h **** * Function Name: USBOutDMA_SetConfiguration
 232:Generated_Source\PSoC4/USBOutDMA.h **** ********************************************************************************
 233:Generated_Source\PSoC4/USBOutDMA.h **** *
 234:Generated_Source\PSoC4/USBOutDMA.h **** * Summary:
 235:Generated_Source\PSoC4/USBOutDMA.h **** *  Sets configuration information for the specified descriptor.
 236:Generated_Source\PSoC4/USBOutDMA.h **** *
 237:Generated_Source\PSoC4/USBOutDMA.h **** * Parameters:
 238:Generated_Source\PSoC4/USBOutDMA.h **** *  descriptor: Descriptor (0 or 1) modified by this function.
 239:Generated_Source\PSoC4/USBOutDMA.h **** *  config: Pointer to a configuration structure. Refer to cydma_init_struct
 240:Generated_Source\PSoC4/USBOutDMA.h **** *          structure definition in CyDMA_P4.h or the component datasheet.
 241:Generated_Source\PSoC4/USBOutDMA.h **** *                   
 242:Generated_Source\PSoC4/USBOutDMA.h **** * Return:
 243:Generated_Source\PSoC4/USBOutDMA.h **** *  None.
 244:Generated_Source\PSoC4/USBOutDMA.h **** *
 245:Generated_Source\PSoC4/USBOutDMA.h **** * Side effect:
 246:Generated_Source\PSoC4/USBOutDMA.h **** *  The status register associated with the specified descriptor is reset to
 247:Generated_Source\PSoC4/USBOutDMA.h **** *  zero after this function call. This function also validates the descriptor.
 248:Generated_Source\PSoC4/USBOutDMA.h **** *  This function should not be called while the descriptor is active.
ARM GAS  C:\Users\TERENC~1\AppData\Local\Temp\ccWZBAqj.s 			page 20


 249:Generated_Source\PSoC4/USBOutDMA.h **** *  This can be checked by calling CyDmaGetStatus().
 250:Generated_Source\PSoC4/USBOutDMA.h **** *
 251:Generated_Source\PSoC4/USBOutDMA.h **** *******************************************************************************/
 252:Generated_Source\PSoC4/USBOutDMA.h **** static CY_INLINE void USBOutDMA_SetConfiguration(int32 descriptor, const cydma_init_struct * config
 253:Generated_Source\PSoC4/USBOutDMA.h **** {
 254:Generated_Source\PSoC4/USBOutDMA.h ****     CyDmaSetConfiguration(USBOutDMA_CHANNEL, descriptor, config);
 255:Generated_Source\PSoC4/USBOutDMA.h **** }
 256:Generated_Source\PSoC4/USBOutDMA.h **** 
 257:Generated_Source\PSoC4/USBOutDMA.h **** 
 258:Generated_Source\PSoC4/USBOutDMA.h **** /*******************************************************************************
 259:Generated_Source\PSoC4/USBOutDMA.h **** * Function Name: USBOutDMA_ValidateDescriptor
 260:Generated_Source\PSoC4/USBOutDMA.h **** ********************************************************************************
 261:Generated_Source\PSoC4/USBOutDMA.h **** *
 262:Generated_Source\PSoC4/USBOutDMA.h **** * Summary:
 263:Generated_Source\PSoC4/USBOutDMA.h **** *  Validates the specified descriptor after it has been invalidated.
 264:Generated_Source\PSoC4/USBOutDMA.h **** *
 265:Generated_Source\PSoC4/USBOutDMA.h **** * Parameters:
 266:Generated_Source\PSoC4/USBOutDMA.h **** *  descriptor: Descriptor (0 or 1) modified by this function.
 267:Generated_Source\PSoC4/USBOutDMA.h **** *                   
 268:Generated_Source\PSoC4/USBOutDMA.h **** * Return:
 269:Generated_Source\PSoC4/USBOutDMA.h **** *  None. 
 270:Generated_Source\PSoC4/USBOutDMA.h **** *
 271:Generated_Source\PSoC4/USBOutDMA.h **** * Side effect:
 272:Generated_Source\PSoC4/USBOutDMA.h **** *  The status register associated with the specified descriptor is reset to
 273:Generated_Source\PSoC4/USBOutDMA.h **** *  zero after this function call. This function should not be called while the
 274:Generated_Source\PSoC4/USBOutDMA.h **** *  descriptor is active. This can be checked by calling CyDmaGetStatus().
 275:Generated_Source\PSoC4/USBOutDMA.h **** *
 276:Generated_Source\PSoC4/USBOutDMA.h **** *******************************************************************************/
 277:Generated_Source\PSoC4/USBOutDMA.h **** static CY_INLINE void USBOutDMA_ValidateDescriptor(int32 descriptor)
 278:Generated_Source\PSoC4/USBOutDMA.h **** {
 279:Generated_Source\PSoC4/USBOutDMA.h ****     CyDmaValidateDescriptor(USBOutDMA_CHANNEL, descriptor);
 280:Generated_Source\PSoC4/USBOutDMA.h **** }
 281:Generated_Source\PSoC4/USBOutDMA.h **** 
 282:Generated_Source\PSoC4/USBOutDMA.h **** 
 283:Generated_Source\PSoC4/USBOutDMA.h **** /*******************************************************************************
 284:Generated_Source\PSoC4/USBOutDMA.h **** * Function Name: USBOutDMA_GetDescriptorStatus
 285:Generated_Source\PSoC4/USBOutDMA.h **** ********************************************************************************
 286:Generated_Source\PSoC4/USBOutDMA.h **** *
 287:Generated_Source\PSoC4/USBOutDMA.h **** * Summary:
 288:Generated_Source\PSoC4/USBOutDMA.h **** *  Returns the status of the specified descriptor.
 289:Generated_Source\PSoC4/USBOutDMA.h **** *
 290:Generated_Source\PSoC4/USBOutDMA.h **** * Parameters:
 291:Generated_Source\PSoC4/USBOutDMA.h **** *  descriptor: Descriptor (0 or 1) modified by this function.
 292:Generated_Source\PSoC4/USBOutDMA.h **** *                   
 293:Generated_Source\PSoC4/USBOutDMA.h **** * Return:
 294:Generated_Source\PSoC4/USBOutDMA.h **** *  Returns the contents of the specified descriptors status register. Refer to 
 295:Generated_Source\PSoC4/USBOutDMA.h **** *  descriptor status register bit definitions in CyDMA_P4.h or the API
 296:Generated_Source\PSoC4/USBOutDMA.h **** *  description in the DMA channel datasheet for more information.
 297:Generated_Source\PSoC4/USBOutDMA.h **** *
 298:Generated_Source\PSoC4/USBOutDMA.h **** *******************************************************************************/
 299:Generated_Source\PSoC4/USBOutDMA.h **** static CY_INLINE uint32 USBOutDMA_GetDescriptorStatus(int32 descriptor)
 300:Generated_Source\PSoC4/USBOutDMA.h **** {
 301:Generated_Source\PSoC4/USBOutDMA.h ****     return (CyDmaGetDescriptorStatus(USBOutDMA_CHANNEL, descriptor));
 302:Generated_Source\PSoC4/USBOutDMA.h **** }
 303:Generated_Source\PSoC4/USBOutDMA.h **** 
 304:Generated_Source\PSoC4/USBOutDMA.h **** 
 305:Generated_Source\PSoC4/USBOutDMA.h **** /*******************************************************************************
ARM GAS  C:\Users\TERENC~1\AppData\Local\Temp\ccWZBAqj.s 			page 21


 306:Generated_Source\PSoC4/USBOutDMA.h **** * Function Name: USBOutDMA_SetSrcAddress
 307:Generated_Source\PSoC4/USBOutDMA.h **** ********************************************************************************
 308:Generated_Source\PSoC4/USBOutDMA.h **** *
 309:Generated_Source\PSoC4/USBOutDMA.h **** * Summary:
 310:Generated_Source\PSoC4/USBOutDMA.h **** *  Configures the source address for the specified descriptor.
 311:Generated_Source\PSoC4/USBOutDMA.h **** *
 312:Generated_Source\PSoC4/USBOutDMA.h **** * Parameters:
 313:Generated_Source\PSoC4/USBOutDMA.h **** *  descriptor: Descriptor (0 or 1) modified by this function.
 314:Generated_Source\PSoC4/USBOutDMA.h **** *  srcAddress: Address of DMA transfer source.
 315:Generated_Source\PSoC4/USBOutDMA.h **** *                   
 316:Generated_Source\PSoC4/USBOutDMA.h **** * Return:
 317:Generated_Source\PSoC4/USBOutDMA.h **** *  None.
 318:Generated_Source\PSoC4/USBOutDMA.h **** *
 319:Generated_Source\PSoC4/USBOutDMA.h **** * Side effect:
 320:Generated_Source\PSoC4/USBOutDMA.h **** *  This function should not be called when the specified descriptor is active
 321:Generated_Source\PSoC4/USBOutDMA.h **** *  in the DMA transfer engine. This can be checked by calling CyDmaGetStatus(). 
 322:Generated_Source\PSoC4/USBOutDMA.h **** *
 323:Generated_Source\PSoC4/USBOutDMA.h **** *******************************************************************************/
 324:Generated_Source\PSoC4/USBOutDMA.h **** static CY_INLINE void USBOutDMA_SetSrcAddress(int32 descriptor, void * srcAddress)
 325:Generated_Source\PSoC4/USBOutDMA.h **** {
 326:Generated_Source\PSoC4/USBOutDMA.h ****     CyDmaSetSrcAddress(USBOutDMA_CHANNEL, descriptor, srcAddress);
 327:Generated_Source\PSoC4/USBOutDMA.h **** }
 328:Generated_Source\PSoC4/USBOutDMA.h **** 
 329:Generated_Source\PSoC4/USBOutDMA.h **** 
 330:Generated_Source\PSoC4/USBOutDMA.h **** /*******************************************************************************
 331:Generated_Source\PSoC4/USBOutDMA.h **** * Function Name: USBOutDMA_GetSrcAddress
 332:Generated_Source\PSoC4/USBOutDMA.h **** ********************************************************************************
 333:Generated_Source\PSoC4/USBOutDMA.h **** *
 334:Generated_Source\PSoC4/USBOutDMA.h **** * Summary:
 335:Generated_Source\PSoC4/USBOutDMA.h **** *  Returns the source address for the specified descriptor, set by either 
 336:Generated_Source\PSoC4/USBOutDMA.h **** *  USBOutDMA_Start() or USBOutDMA_SetSrcAddress().
 337:Generated_Source\PSoC4/USBOutDMA.h **** *
 338:Generated_Source\PSoC4/USBOutDMA.h **** * Parameters:
 339:Generated_Source\PSoC4/USBOutDMA.h **** *  descriptor: Specifies descriptor (0 or 1) used by this function.
 340:Generated_Source\PSoC4/USBOutDMA.h **** *                   
 341:Generated_Source\PSoC4/USBOutDMA.h **** * Return:
 342:Generated_Source\PSoC4/USBOutDMA.h **** *  Source address written to specified descriptor.
 343:Generated_Source\PSoC4/USBOutDMA.h **** *
 344:Generated_Source\PSoC4/USBOutDMA.h **** *******************************************************************************/
 345:Generated_Source\PSoC4/USBOutDMA.h **** static CY_INLINE void * USBOutDMA_GetSrcAddress(int32 descriptor)
 346:Generated_Source\PSoC4/USBOutDMA.h **** {
 347:Generated_Source\PSoC4/USBOutDMA.h ****     return (CyDmaGetSrcAddress(USBOutDMA_CHANNEL, descriptor));
 348:Generated_Source\PSoC4/USBOutDMA.h **** }
 349:Generated_Source\PSoC4/USBOutDMA.h **** 
 350:Generated_Source\PSoC4/USBOutDMA.h **** 
 351:Generated_Source\PSoC4/USBOutDMA.h **** /*******************************************************************************
 352:Generated_Source\PSoC4/USBOutDMA.h **** * Function Name: USBOutDMA_SetDstAddress
 353:Generated_Source\PSoC4/USBOutDMA.h **** ********************************************************************************
 354:Generated_Source\PSoC4/USBOutDMA.h **** *
 355:Generated_Source\PSoC4/USBOutDMA.h **** * Summary:
 356:Generated_Source\PSoC4/USBOutDMA.h **** *  Configures the destination address for the specified descriptor.
 357:Generated_Source\PSoC4/USBOutDMA.h **** *
 358:Generated_Source\PSoC4/USBOutDMA.h **** * Parameters:
 359:Generated_Source\PSoC4/USBOutDMA.h **** *  descriptor: Descriptor (0 or 1) modified by this function.
 360:Generated_Source\PSoC4/USBOutDMA.h **** *  dstAddress: Address of DMA transfer destination.
 361:Generated_Source\PSoC4/USBOutDMA.h **** *                   
 362:Generated_Source\PSoC4/USBOutDMA.h **** * Return:
ARM GAS  C:\Users\TERENC~1\AppData\Local\Temp\ccWZBAqj.s 			page 22


 363:Generated_Source\PSoC4/USBOutDMA.h **** *  None.
 364:Generated_Source\PSoC4/USBOutDMA.h **** *
 365:Generated_Source\PSoC4/USBOutDMA.h **** * Side effect:
 366:Generated_Source\PSoC4/USBOutDMA.h **** *  This function should not be called when the specified descriptor is active
 367:Generated_Source\PSoC4/USBOutDMA.h **** *  in the DMA transfer engine. This can be checked by calling CyDmaGetStatus(). 
 368:Generated_Source\PSoC4/USBOutDMA.h **** *
 369:Generated_Source\PSoC4/USBOutDMA.h **** *******************************************************************************/
 370:Generated_Source\PSoC4/USBOutDMA.h **** static CY_INLINE void USBOutDMA_SetDstAddress(int32 descriptor, void * dstAddress)
 371:Generated_Source\PSoC4/USBOutDMA.h **** {
 372:Generated_Source\PSoC4/USBOutDMA.h ****     CyDmaSetDstAddress(USBOutDMA_CHANNEL, descriptor, dstAddress);
 373:Generated_Source\PSoC4/USBOutDMA.h **** }
 374:Generated_Source\PSoC4/USBOutDMA.h **** 
 375:Generated_Source\PSoC4/USBOutDMA.h **** 
 376:Generated_Source\PSoC4/USBOutDMA.h **** /*******************************************************************************
 377:Generated_Source\PSoC4/USBOutDMA.h **** * Function Name: USBOutDMA_GetDstAddress
 378:Generated_Source\PSoC4/USBOutDMA.h **** ********************************************************************************
 379:Generated_Source\PSoC4/USBOutDMA.h **** *
 380:Generated_Source\PSoC4/USBOutDMA.h **** * Summary:
 381:Generated_Source\PSoC4/USBOutDMA.h **** *  Returns the destination address for the specified descriptor, set by either 
 382:Generated_Source\PSoC4/USBOutDMA.h **** *  USBOutDMA_Start() or USBOutDMA_SetDstAddress().
 383:Generated_Source\PSoC4/USBOutDMA.h **** *
 384:Generated_Source\PSoC4/USBOutDMA.h **** * Parameters:
 385:Generated_Source\PSoC4/USBOutDMA.h **** *  descriptor: Specifies descriptor (0 or 1) used by this function.
 386:Generated_Source\PSoC4/USBOutDMA.h **** *                   
 387:Generated_Source\PSoC4/USBOutDMA.h **** * Return:
 388:Generated_Source\PSoC4/USBOutDMA.h **** *  Destination address written to specified descriptor.
 389:Generated_Source\PSoC4/USBOutDMA.h **** *
 390:Generated_Source\PSoC4/USBOutDMA.h **** *******************************************************************************/
 391:Generated_Source\PSoC4/USBOutDMA.h **** static CY_INLINE void * USBOutDMA_GetDstAddress(int32 descriptor)
 392:Generated_Source\PSoC4/USBOutDMA.h **** {
 393:Generated_Source\PSoC4/USBOutDMA.h ****     return (CyDmaGetDstAddress(USBOutDMA_CHANNEL, descriptor));
 394:Generated_Source\PSoC4/USBOutDMA.h **** }
 395:Generated_Source\PSoC4/USBOutDMA.h **** 
 396:Generated_Source\PSoC4/USBOutDMA.h **** 
 397:Generated_Source\PSoC4/USBOutDMA.h **** /*******************************************************************************
 398:Generated_Source\PSoC4/USBOutDMA.h **** * Function Name: USBOutDMA_SetDataElementSize
 399:Generated_Source\PSoC4/USBOutDMA.h **** ********************************************************************************
 400:Generated_Source\PSoC4/USBOutDMA.h **** *
 401:Generated_Source\PSoC4/USBOutDMA.h **** * Summary:
 402:Generated_Source\PSoC4/USBOutDMA.h **** *  Sets the data element size for the specified descriptor.
 403:Generated_Source\PSoC4/USBOutDMA.h **** *
 404:Generated_Source\PSoC4/USBOutDMA.h **** * Parameters:
 405:Generated_Source\PSoC4/USBOutDMA.h **** *  descriptor:      Descriptor (0 or 1) modified by this function.
 406:Generated_Source\PSoC4/USBOutDMA.h **** *  dataElementSize: Specifies the size of the data element. The DMA transfer
 407:Generated_Source\PSoC4/USBOutDMA.h **** *                   engine transfers one data element at a time. How these
 408:Generated_Source\PSoC4/USBOutDMA.h **** *                   transfers occur is controlled by the transfer mode.
 409:Generated_Source\PSoC4/USBOutDMA.h **** *                   Refer to the API bit field definitions in CyDMA_P4.h or API
 410:Generated_Source\PSoC4/USBOutDMA.h **** *                   description in the DMA channel datasheet for the parameter
 411:Generated_Source\PSoC4/USBOutDMA.h **** *                   options.
 412:Generated_Source\PSoC4/USBOutDMA.h **** *
 413:Generated_Source\PSoC4/USBOutDMA.h **** * Return:
 414:Generated_Source\PSoC4/USBOutDMA.h **** *  None.
 415:Generated_Source\PSoC4/USBOutDMA.h **** *
 416:Generated_Source\PSoC4/USBOutDMA.h **** * Side effect:
 417:Generated_Source\PSoC4/USBOutDMA.h **** *  This function should not be called when the specified descriptor is active
 418:Generated_Source\PSoC4/USBOutDMA.h **** *  in the DMA transfer engine. This can be checked by calling CyDmaGetStatus(). 
 419:Generated_Source\PSoC4/USBOutDMA.h **** *
ARM GAS  C:\Users\TERENC~1\AppData\Local\Temp\ccWZBAqj.s 			page 23


 420:Generated_Source\PSoC4/USBOutDMA.h **** *******************************************************************************/
 421:Generated_Source\PSoC4/USBOutDMA.h **** static CY_INLINE void USBOutDMA_SetDataElementSize(int32 descriptor, uint32 dataElementSize)
 422:Generated_Source\PSoC4/USBOutDMA.h **** {
 423:Generated_Source\PSoC4/USBOutDMA.h ****     CyDmaSetDataElementSize(USBOutDMA_CHANNEL, descriptor, dataElementSize);
 424:Generated_Source\PSoC4/USBOutDMA.h **** }
 425:Generated_Source\PSoC4/USBOutDMA.h **** 
 426:Generated_Source\PSoC4/USBOutDMA.h **** 
 427:Generated_Source\PSoC4/USBOutDMA.h **** /*******************************************************************************
 428:Generated_Source\PSoC4/USBOutDMA.h **** * Function Name: USBOutDMA_GetDataElementSize
 429:Generated_Source\PSoC4/USBOutDMA.h **** ********************************************************************************
 430:Generated_Source\PSoC4/USBOutDMA.h **** *
 431:Generated_Source\PSoC4/USBOutDMA.h **** * Summary:
 432:Generated_Source\PSoC4/USBOutDMA.h **** *  Returns the data element size configured for the specified descriptor, set by
 433:Generated_Source\PSoC4/USBOutDMA.h **** *  USBOutDMA_SetDataElementSize() or USBOutDMA_SetConfiguration().
 434:Generated_Source\PSoC4/USBOutDMA.h **** *
 435:Generated_Source\PSoC4/USBOutDMA.h **** * Parameters:
 436:Generated_Source\PSoC4/USBOutDMA.h **** *  descriptor: Descriptor (0 or 1) modified by this function.
 437:Generated_Source\PSoC4/USBOutDMA.h **** *                   
 438:Generated_Source\PSoC4/USBOutDMA.h **** * Return:
 439:Generated_Source\PSoC4/USBOutDMA.h **** *  The size of the data element. The DMA transfer engine transfers one data
 440:Generated_Source\PSoC4/USBOutDMA.h **** *  element at a time. How these transfers occur is controlled by the transfer
 441:Generated_Source\PSoC4/USBOutDMA.h **** *  mode. Refer to the API bit field definitions in CyDMA_P4.h or the API 
 442:Generated_Source\PSoC4/USBOutDMA.h **** *  description in the DMA channel datasheet for more information.
 443:Generated_Source\PSoC4/USBOutDMA.h **** *
 444:Generated_Source\PSoC4/USBOutDMA.h **** * Note:
 445:Generated_Source\PSoC4/USBOutDMA.h **** *  The size of the source and destination can be configured to use the
 446:Generated_Source\PSoC4/USBOutDMA.h **** *  data element size, or a Word, this is set in USBOutDMA_SetSrcDstTransferWidth().
 447:Generated_Source\PSoC4/USBOutDMA.h **** *
 448:Generated_Source\PSoC4/USBOutDMA.h **** *******************************************************************************/
 449:Generated_Source\PSoC4/USBOutDMA.h **** static CY_INLINE uint32 USBOutDMA_GetDataElementSize(int32 descriptor)
 450:Generated_Source\PSoC4/USBOutDMA.h **** {
 451:Generated_Source\PSoC4/USBOutDMA.h ****     return (CyDmaGetDataElementSize(USBOutDMA_CHANNEL, descriptor));
 452:Generated_Source\PSoC4/USBOutDMA.h **** }
 453:Generated_Source\PSoC4/USBOutDMA.h **** 
 454:Generated_Source\PSoC4/USBOutDMA.h **** 
 455:Generated_Source\PSoC4/USBOutDMA.h **** /*******************************************************************************
 456:Generated_Source\PSoC4/USBOutDMA.h **** * Function Name: USBOutDMA_SetNumDataElements
 457:Generated_Source\PSoC4/USBOutDMA.h **** ********************************************************************************
 458:Generated_Source\PSoC4/USBOutDMA.h **** *
 459:Generated_Source\PSoC4/USBOutDMA.h **** * Summary:
 460:Generated_Source\PSoC4/USBOutDMA.h **** *  Sets the number of data elements to transfer for specified descriptor.
 461:Generated_Source\PSoC4/USBOutDMA.h **** *
 462:Generated_Source\PSoC4/USBOutDMA.h **** * Parameters:
 463:Generated_Source\PSoC4/USBOutDMA.h **** *  descriptor:      Descriptor (0 or 1) modified by this function.
 464:Generated_Source\PSoC4/USBOutDMA.h **** *  numDataElements: Total number of data elements this descriptor transfers.
 465:Generated_Source\PSoC4/USBOutDMA.h **** *                   Valid ranges are 1 to 65536.
 466:Generated_Source\PSoC4/USBOutDMA.h **** *                   
 467:Generated_Source\PSoC4/USBOutDMA.h **** * Return:
 468:Generated_Source\PSoC4/USBOutDMA.h **** *  None.
 469:Generated_Source\PSoC4/USBOutDMA.h **** *
 470:Generated_Source\PSoC4/USBOutDMA.h **** * Side effect:
 471:Generated_Source\PSoC4/USBOutDMA.h **** *  This function should not be called when the specified descriptor is active
 472:Generated_Source\PSoC4/USBOutDMA.h **** *  in the DMA transfer engine. This can be checked by calling CyDmaGetStatus(). 
 473:Generated_Source\PSoC4/USBOutDMA.h **** *
 474:Generated_Source\PSoC4/USBOutDMA.h **** *******************************************************************************/
 475:Generated_Source\PSoC4/USBOutDMA.h **** static CY_INLINE void USBOutDMA_SetNumDataElements(int32 descriptor, int32 numDataElements)
 476:Generated_Source\PSoC4/USBOutDMA.h **** {
ARM GAS  C:\Users\TERENC~1\AppData\Local\Temp\ccWZBAqj.s 			page 24


 477:Generated_Source\PSoC4/USBOutDMA.h ****     CyDmaSetNumDataElements(USBOutDMA_CHANNEL, descriptor, numDataElements);
 197              		.loc 3 477 0
 198 0054 2A00     		movs	r2, r5
 199 0056 0021     		movs	r1, #0
 200 0058 0320     		movs	r0, #3
 201 005a FFF7FEFF 		bl	CyDmaSetNumDataElements
 202              	.LVL15:
 203              	.LBE75:
 204              	.LBE74:
 160:AudioOut.c    ****     			
 161:AudioOut.c    ****     			USBOutDMA_SetNumDataElements(0, remain);
 162:AudioOut.c    ****     			USBOutDMA_SetDstAddress(0, (void *) (outBuffer + outBufIndex));
 205              		.loc 1 162 0
 206 005e 4C4F     		ldr	r7, .L9+4
 207 0060 7A88     		ldrh	r2, [r7, #2]
 208 0062 4C4B     		ldr	r3, .L9+8
 209 0064 9946     		mov	r9, r3
 210 0066 4A44     		add	r2, r2, r9
 211              	.LVL16:
 212              	.LBB76:
 213              	.LBB77:
 372:Generated_Source\PSoC4/USBOutDMA.h **** }
 214              		.loc 3 372 0
 215 0068 0021     		movs	r1, #0
 216 006a 0320     		movs	r0, #3
 217 006c FFF7FEFF 		bl	CyDmaSetDstAddress
 218              	.LVL17:
 219              	.LBE77:
 220              	.LBE76:
 221              	.LBB78:
 222              	.LBB79:
 326:Generated_Source\PSoC4/USBOutDMA.h **** }
 223              		.loc 3 326 0
 224 0070 494E     		ldr	r6, .L9+12
 225 0072 3200     		movs	r2, r6
 226 0074 0021     		movs	r1, #0
 227 0076 0320     		movs	r0, #3
 228 0078 FFF7FEFF 		bl	CyDmaSetSrcAddress
 229              	.LVL18:
 230              	.LBE79:
 231              	.LBE78:
 232              	.LBB80:
 233              	.LBB81:
 478:Generated_Source\PSoC4/USBOutDMA.h **** }
 479:Generated_Source\PSoC4/USBOutDMA.h **** 
 480:Generated_Source\PSoC4/USBOutDMA.h **** 
 481:Generated_Source\PSoC4/USBOutDMA.h **** /*******************************************************************************
 482:Generated_Source\PSoC4/USBOutDMA.h **** * Function Name: USBOutDMA_GetNumDataElements
 483:Generated_Source\PSoC4/USBOutDMA.h **** ********************************************************************************
 484:Generated_Source\PSoC4/USBOutDMA.h **** *
 485:Generated_Source\PSoC4/USBOutDMA.h **** * Summary:
 486:Generated_Source\PSoC4/USBOutDMA.h **** *  Returns the number of data elements to be transferred. Only reflects the
 487:Generated_Source\PSoC4/USBOutDMA.h **** *  value written by USBOutDMA_SetNumDataElements() or USBOutDMA_SetConfiguration().
 488:Generated_Source\PSoC4/USBOutDMA.h **** *  This does not reflect how many elements have been transferred. For that
 489:Generated_Source\PSoC4/USBOutDMA.h **** *  information use the USBOutDMA_GetDescriptorStatus() function.
 490:Generated_Source\PSoC4/USBOutDMA.h **** *
 491:Generated_Source\PSoC4/USBOutDMA.h **** * Parameters:
ARM GAS  C:\Users\TERENC~1\AppData\Local\Temp\ccWZBAqj.s 			page 25


 492:Generated_Source\PSoC4/USBOutDMA.h **** *  descriptor: Descriptor (0 or 1) modified by this function.
 493:Generated_Source\PSoC4/USBOutDMA.h **** *                   
 494:Generated_Source\PSoC4/USBOutDMA.h **** * Return:
 495:Generated_Source\PSoC4/USBOutDMA.h **** *  Number of data elements to transfer.
 496:Generated_Source\PSoC4/USBOutDMA.h **** *
 497:Generated_Source\PSoC4/USBOutDMA.h **** *******************************************************************************/
 498:Generated_Source\PSoC4/USBOutDMA.h **** static CY_INLINE int32 USBOutDMA_GetNumDataElements(int32 descriptor)
 499:Generated_Source\PSoC4/USBOutDMA.h **** {
 500:Generated_Source\PSoC4/USBOutDMA.h ****     return (CyDmaGetNumDataElements(USBOutDMA_CHANNEL, descriptor));
 501:Generated_Source\PSoC4/USBOutDMA.h **** }
 502:Generated_Source\PSoC4/USBOutDMA.h **** 
 503:Generated_Source\PSoC4/USBOutDMA.h **** 
 504:Generated_Source\PSoC4/USBOutDMA.h **** /*******************************************************************************
 505:Generated_Source\PSoC4/USBOutDMA.h **** * Function Name: USBOutDMA_SetSrcDstTransferWidth
 506:Generated_Source\PSoC4/USBOutDMA.h **** ********************************************************************************
 507:Generated_Source\PSoC4/USBOutDMA.h **** *
 508:Generated_Source\PSoC4/USBOutDMA.h **** * Summary:
 509:Generated_Source\PSoC4/USBOutDMA.h **** *  Sets the width of the source and destination. The DMA can either read and
 510:Generated_Source\PSoC4/USBOutDMA.h **** *  write data from the source and destination at the size specified by
 511:Generated_Source\PSoC4/USBOutDMA.h **** *  USBOutDMA_SetDataElementSize() or by a word (4bytes). This also determines how
 512:Generated_Source\PSoC4/USBOutDMA.h **** *  many bytes the addresses are incremented if increment source and destination
 513:Generated_Source\PSoC4/USBOutDMA.h **** *  address are turned on.
 514:Generated_Source\PSoC4/USBOutDMA.h **** *
 515:Generated_Source\PSoC4/USBOutDMA.h **** * Parameters:
 516:Generated_Source\PSoC4/USBOutDMA.h **** *  descriptor:    Descriptor (0 or 1) modified by this function.
 517:Generated_Source\PSoC4/USBOutDMA.h **** *  transferWidth: Specifies the source and destination widths. Refer to the API
 518:Generated_Source\PSoC4/USBOutDMA.h **** *                 bit field definitions in CyDMA_P4.h or the API description in
 519:Generated_Source\PSoC4/USBOutDMA.h **** *                 the DMA channel datasheet for the parameter options.
 520:Generated_Source\PSoC4/USBOutDMA.h **** *                   
 521:Generated_Source\PSoC4/USBOutDMA.h **** * Return:
 522:Generated_Source\PSoC4/USBOutDMA.h **** *  None.
 523:Generated_Source\PSoC4/USBOutDMA.h **** *
 524:Generated_Source\PSoC4/USBOutDMA.h **** * Side effect:
 525:Generated_Source\PSoC4/USBOutDMA.h **** *  This function should not be called when the specified descriptor is active
 526:Generated_Source\PSoC4/USBOutDMA.h **** *  in the DMA transfer engine. This can be checked by calling CyDmaGetStatus(). 
 527:Generated_Source\PSoC4/USBOutDMA.h **** *
 528:Generated_Source\PSoC4/USBOutDMA.h **** *******************************************************************************/
 529:Generated_Source\PSoC4/USBOutDMA.h **** static CY_INLINE void USBOutDMA_SetSrcDstTransferWidth(int32 descriptor, uint32 transferWidth)
 530:Generated_Source\PSoC4/USBOutDMA.h **** {
 531:Generated_Source\PSoC4/USBOutDMA.h ****     CyDmaSetSrcDstTransferWidth(USBOutDMA_CHANNEL, descriptor, transferWidth);
 532:Generated_Source\PSoC4/USBOutDMA.h **** }
 533:Generated_Source\PSoC4/USBOutDMA.h **** 
 534:Generated_Source\PSoC4/USBOutDMA.h **** 
 535:Generated_Source\PSoC4/USBOutDMA.h **** /*******************************************************************************
 536:Generated_Source\PSoC4/USBOutDMA.h **** * Function Name: USBOutDMA_GetSrcDstTransferWidth
 537:Generated_Source\PSoC4/USBOutDMA.h **** ********************************************************************************
 538:Generated_Source\PSoC4/USBOutDMA.h **** *
 539:Generated_Source\PSoC4/USBOutDMA.h **** * Summary:
 540:Generated_Source\PSoC4/USBOutDMA.h **** *  Returns the width of the source and destination, as set by 
 541:Generated_Source\PSoC4/USBOutDMA.h **** *  USBOutDMA_SetSrcDstTransferWidth() or USBOutDMA_SetConfiguration().
 542:Generated_Source\PSoC4/USBOutDMA.h **** *
 543:Generated_Source\PSoC4/USBOutDMA.h **** * Parameters:
 544:Generated_Source\PSoC4/USBOutDMA.h **** *  descriptor: Descriptor (0 or 1) modified by this function.
 545:Generated_Source\PSoC4/USBOutDMA.h **** *                   
 546:Generated_Source\PSoC4/USBOutDMA.h **** * Return:
 547:Generated_Source\PSoC4/USBOutDMA.h **** *  Width of source and destination. Refer to the API bit field definitions in
 548:Generated_Source\PSoC4/USBOutDMA.h **** *  CyDMA_P4.h or the API description in the DMA channel datasheet for more
ARM GAS  C:\Users\TERENC~1\AppData\Local\Temp\ccWZBAqj.s 			page 26


 549:Generated_Source\PSoC4/USBOutDMA.h **** *  information.
 550:Generated_Source\PSoC4/USBOutDMA.h **** *
 551:Generated_Source\PSoC4/USBOutDMA.h **** *******************************************************************************/
 552:Generated_Source\PSoC4/USBOutDMA.h **** static CY_INLINE uint32 USBOutDMA_GetSrcDstTransferWidth(int32 descriptor)
 553:Generated_Source\PSoC4/USBOutDMA.h **** {
 554:Generated_Source\PSoC4/USBOutDMA.h ****     return (CyDmaGetSrcDstTransferWidth(USBOutDMA_CHANNEL, descriptor));
 555:Generated_Source\PSoC4/USBOutDMA.h **** }
 556:Generated_Source\PSoC4/USBOutDMA.h **** 
 557:Generated_Source\PSoC4/USBOutDMA.h **** 
 558:Generated_Source\PSoC4/USBOutDMA.h **** /*******************************************************************************
 559:Generated_Source\PSoC4/USBOutDMA.h **** * Function Name: USBOutDMA_SetAddressIncrement
 560:Generated_Source\PSoC4/USBOutDMA.h **** ********************************************************************************
 561:Generated_Source\PSoC4/USBOutDMA.h **** *
 562:Generated_Source\PSoC4/USBOutDMA.h **** * Summary:
 563:Generated_Source\PSoC4/USBOutDMA.h **** *  Sets whether the source or destination addresses are incremented after the
 564:Generated_Source\PSoC4/USBOutDMA.h **** *  transfer of each data element. The amount that the source and destination
 565:Generated_Source\PSoC4/USBOutDMA.h **** *  address are incremented is determined by the USBOutDMA_SetSrcDstTransferWidth()
 566:Generated_Source\PSoC4/USBOutDMA.h **** *  function. The addresses will either be incremented by the data element size
 567:Generated_Source\PSoC4/USBOutDMA.h **** *  or by a word (4 bytes).
 568:Generated_Source\PSoC4/USBOutDMA.h **** *
 569:Generated_Source\PSoC4/USBOutDMA.h **** * Parameters:
 570:Generated_Source\PSoC4/USBOutDMA.h **** *  descriptor:       Descriptor (0 or 1) modified by this function.
 571:Generated_Source\PSoC4/USBOutDMA.h **** *  addressIncrement: Address increment settings. Refer to the API bit field
 572:Generated_Source\PSoC4/USBOutDMA.h **** *                    definitions in CyDMA_P4.h or the API description in the DMA
 573:Generated_Source\PSoC4/USBOutDMA.h **** *                    channel datasheet for the parameter options.
 574:Generated_Source\PSoC4/USBOutDMA.h **** *    
 575:Generated_Source\PSoC4/USBOutDMA.h **** * Return:
 576:Generated_Source\PSoC4/USBOutDMA.h **** *  None.
 577:Generated_Source\PSoC4/USBOutDMA.h **** *
 578:Generated_Source\PSoC4/USBOutDMA.h **** * Side effect:
 579:Generated_Source\PSoC4/USBOutDMA.h **** *  This function should not be called when the specified descriptor is active
 580:Generated_Source\PSoC4/USBOutDMA.h **** *  in the DMA transfer engine. This can be checked by calling CyDmaGetStatus(). 
 581:Generated_Source\PSoC4/USBOutDMA.h **** *
 582:Generated_Source\PSoC4/USBOutDMA.h **** *******************************************************************************/
 583:Generated_Source\PSoC4/USBOutDMA.h **** static CY_INLINE void USBOutDMA_SetAddressIncrement(int32 descriptor, uint32 addressIncrement)
 584:Generated_Source\PSoC4/USBOutDMA.h **** {
 585:Generated_Source\PSoC4/USBOutDMA.h ****     CyDmaSetAddressIncrement(USBOutDMA_CHANNEL, descriptor, addressIncrement);
 586:Generated_Source\PSoC4/USBOutDMA.h **** }
 587:Generated_Source\PSoC4/USBOutDMA.h **** 
 588:Generated_Source\PSoC4/USBOutDMA.h **** 
 589:Generated_Source\PSoC4/USBOutDMA.h **** /*******************************************************************************
 590:Generated_Source\PSoC4/USBOutDMA.h **** * Function Name: USBOutDMA_GetAddressIncrement
 591:Generated_Source\PSoC4/USBOutDMA.h **** ********************************************************************************
 592:Generated_Source\PSoC4/USBOutDMA.h **** *
 593:Generated_Source\PSoC4/USBOutDMA.h **** * Summary:
 594:Generated_Source\PSoC4/USBOutDMA.h **** *  Returns address increment settings as set by USBOutDMA_SetAddressIncrement()
 595:Generated_Source\PSoC4/USBOutDMA.h **** *  or USBOutDMA_SetConfiguration().
 596:Generated_Source\PSoC4/USBOutDMA.h **** *
 597:Generated_Source\PSoC4/USBOutDMA.h **** * Parameters:
 598:Generated_Source\PSoC4/USBOutDMA.h **** *  descriptor: Descriptor (0 or 1) modified by this function.
 599:Generated_Source\PSoC4/USBOutDMA.h **** *                   
 600:Generated_Source\PSoC4/USBOutDMA.h **** * Return:
 601:Generated_Source\PSoC4/USBOutDMA.h **** *  Address increment settings. Refer to the API bit field definitions in
 602:Generated_Source\PSoC4/USBOutDMA.h **** *  CyDMA_P4.h or the API description in the DMA channel datasheet for more
 603:Generated_Source\PSoC4/USBOutDMA.h **** *  information.
 604:Generated_Source\PSoC4/USBOutDMA.h **** *
 605:Generated_Source\PSoC4/USBOutDMA.h **** *******************************************************************************/
ARM GAS  C:\Users\TERENC~1\AppData\Local\Temp\ccWZBAqj.s 			page 27


 606:Generated_Source\PSoC4/USBOutDMA.h **** static CY_INLINE uint32 USBOutDMA_GetAddressIncrement(int32 descriptor)
 607:Generated_Source\PSoC4/USBOutDMA.h **** {
 608:Generated_Source\PSoC4/USBOutDMA.h ****     return (CyDmaGetAddressIncrement(USBOutDMA_CHANNEL, descriptor));
 609:Generated_Source\PSoC4/USBOutDMA.h **** }
 610:Generated_Source\PSoC4/USBOutDMA.h **** 
 611:Generated_Source\PSoC4/USBOutDMA.h **** 
 612:Generated_Source\PSoC4/USBOutDMA.h **** /*******************************************************************************
 613:Generated_Source\PSoC4/USBOutDMA.h **** * Function Name: USBOutDMA_SetTriggerType
 614:Generated_Source\PSoC4/USBOutDMA.h **** ********************************************************************************
 615:Generated_Source\PSoC4/USBOutDMA.h **** *
 616:Generated_Source\PSoC4/USBOutDMA.h **** * Summary:
 617:Generated_Source\PSoC4/USBOutDMA.h **** *  Sets the type of input trigger for the DMA For level sensitive triggers sets
 618:Generated_Source\PSoC4/USBOutDMA.h **** *  how long the DMA waits for the trigger to go low (deactivate) before
 619:Generated_Source\PSoC4/USBOutDMA.h **** *  triggering the channel again.
 620:Generated_Source\PSoC4/USBOutDMA.h **** *
 621:Generated_Source\PSoC4/USBOutDMA.h **** * Parameters:
 622:Generated_Source\PSoC4/USBOutDMA.h **** *  descriptor:  Descriptor (0 or 1) modified by this function.
 623:Generated_Source\PSoC4/USBOutDMA.h **** *  triggerType: Type of DMA trigger. Refer to the API bit field definitions in
 624:Generated_Source\PSoC4/USBOutDMA.h **** *               CyDMA_P4.h or the API description in the DMA channel datasheet
 625:Generated_Source\PSoC4/USBOutDMA.h **** *               for the parameter options.
 626:Generated_Source\PSoC4/USBOutDMA.h **** *                   
 627:Generated_Source\PSoC4/USBOutDMA.h **** * Return:
 628:Generated_Source\PSoC4/USBOutDMA.h **** *  None.
 629:Generated_Source\PSoC4/USBOutDMA.h **** *
 630:Generated_Source\PSoC4/USBOutDMA.h **** * Side effect:
 631:Generated_Source\PSoC4/USBOutDMA.h **** *  This function should not be called when the specified descriptor is active
 632:Generated_Source\PSoC4/USBOutDMA.h **** *  in the DMA transfer engine. This can be checked by calling CyDmaGetStatus(). 
 633:Generated_Source\PSoC4/USBOutDMA.h **** *
 634:Generated_Source\PSoC4/USBOutDMA.h **** *******************************************************************************/
 635:Generated_Source\PSoC4/USBOutDMA.h **** static CY_INLINE void USBOutDMA_SetTriggerType(int32 descriptor, uint32 triggerType)
 636:Generated_Source\PSoC4/USBOutDMA.h **** {
 637:Generated_Source\PSoC4/USBOutDMA.h ****     CyDmaSetTriggerType(USBOutDMA_CHANNEL, descriptor, triggerType);
 638:Generated_Source\PSoC4/USBOutDMA.h **** }
 639:Generated_Source\PSoC4/USBOutDMA.h **** 
 640:Generated_Source\PSoC4/USBOutDMA.h **** 
 641:Generated_Source\PSoC4/USBOutDMA.h **** /*******************************************************************************
 642:Generated_Source\PSoC4/USBOutDMA.h **** * Function Name: USBOutDMA_GetTriggerType
 643:Generated_Source\PSoC4/USBOutDMA.h **** ********************************************************************************
 644:Generated_Source\PSoC4/USBOutDMA.h **** *
 645:Generated_Source\PSoC4/USBOutDMA.h **** * Summary:
 646:Generated_Source\PSoC4/USBOutDMA.h **** *  Returns the trigger deactivation settings as set by USBOutDMA_SetTriggerType()
 647:Generated_Source\PSoC4/USBOutDMA.h **** *  or USBOutDMA_SetConfiguration().
 648:Generated_Source\PSoC4/USBOutDMA.h **** *
 649:Generated_Source\PSoC4/USBOutDMA.h **** * Parameters:
 650:Generated_Source\PSoC4/USBOutDMA.h **** *  descriptor: Descriptor (0 or 1) modified by this function.
 651:Generated_Source\PSoC4/USBOutDMA.h **** *                   
 652:Generated_Source\PSoC4/USBOutDMA.h **** * Return:
 653:Generated_Source\PSoC4/USBOutDMA.h **** *  Trigger deactivation settings. Refer to the API bit field definitions in
 654:Generated_Source\PSoC4/USBOutDMA.h **** *  CyDMA_P4.h or the API description in the DMA channel datasheet for more
 655:Generated_Source\PSoC4/USBOutDMA.h **** *  information.
 656:Generated_Source\PSoC4/USBOutDMA.h **** *
 657:Generated_Source\PSoC4/USBOutDMA.h **** *******************************************************************************/
 658:Generated_Source\PSoC4/USBOutDMA.h **** static CY_INLINE uint32 USBOutDMA_GetTriggerType(int32 descriptor)
 659:Generated_Source\PSoC4/USBOutDMA.h **** {
 660:Generated_Source\PSoC4/USBOutDMA.h ****     return (CyDmaGetTriggerType(USBOutDMA_CHANNEL, descriptor));
 661:Generated_Source\PSoC4/USBOutDMA.h **** }
 662:Generated_Source\PSoC4/USBOutDMA.h **** 
ARM GAS  C:\Users\TERENC~1\AppData\Local\Temp\ccWZBAqj.s 			page 28


 663:Generated_Source\PSoC4/USBOutDMA.h **** 
 664:Generated_Source\PSoC4/USBOutDMA.h **** /*******************************************************************************
 665:Generated_Source\PSoC4/USBOutDMA.h **** * Function Name: USBOutDMA_SetTransferMode
 666:Generated_Source\PSoC4/USBOutDMA.h **** ********************************************************************************
 667:Generated_Source\PSoC4/USBOutDMA.h **** *
 668:Generated_Source\PSoC4/USBOutDMA.h **** * Summary:
 669:Generated_Source\PSoC4/USBOutDMA.h **** *  Sets the DMA transfer mode. This determines how the DMA reacts to each trigger
 670:Generated_Source\PSoC4/USBOutDMA.h **** *  event.
 671:Generated_Source\PSoC4/USBOutDMA.h **** *
 672:Generated_Source\PSoC4/USBOutDMA.h **** * Parameters:
 673:Generated_Source\PSoC4/USBOutDMA.h **** *  descriptor:   Descriptor (0 or 1) modified by this function.
 674:Generated_Source\PSoC4/USBOutDMA.h **** *  transferMode: Specifies the DMA transfer mode settings. Refer to the API bit
 675:Generated_Source\PSoC4/USBOutDMA.h **** *                field definitions in CyDMA_P4.h or the API description in the
 676:Generated_Source\PSoC4/USBOutDMA.h **** *                DMA channel datasheet for the parameter options.
 677:Generated_Source\PSoC4/USBOutDMA.h **** *                   
 678:Generated_Source\PSoC4/USBOutDMA.h **** * Return:
 679:Generated_Source\PSoC4/USBOutDMA.h **** *  None.
 680:Generated_Source\PSoC4/USBOutDMA.h **** *
 681:Generated_Source\PSoC4/USBOutDMA.h **** * Side effect:
 682:Generated_Source\PSoC4/USBOutDMA.h **** *  This function should not be called when the specified descriptor is active
 683:Generated_Source\PSoC4/USBOutDMA.h **** *  in the DMA transfer engine. This can be checked by calling CyDmaGetStatus(). 
 684:Generated_Source\PSoC4/USBOutDMA.h **** *
 685:Generated_Source\PSoC4/USBOutDMA.h **** *******************************************************************************/
 686:Generated_Source\PSoC4/USBOutDMA.h **** static CY_INLINE void USBOutDMA_SetTransferMode(int32 descriptor, uint32 transferMode)
 687:Generated_Source\PSoC4/USBOutDMA.h **** {
 688:Generated_Source\PSoC4/USBOutDMA.h ****     CyDmaSetTransferMode(USBOutDMA_CHANNEL, descriptor, transferMode);
 689:Generated_Source\PSoC4/USBOutDMA.h **** }
 690:Generated_Source\PSoC4/USBOutDMA.h **** 
 691:Generated_Source\PSoC4/USBOutDMA.h **** 
 692:Generated_Source\PSoC4/USBOutDMA.h **** /*******************************************************************************
 693:Generated_Source\PSoC4/USBOutDMA.h **** * Function Name: USBOutDMA_GetTransferMode
 694:Generated_Source\PSoC4/USBOutDMA.h **** ********************************************************************************
 695:Generated_Source\PSoC4/USBOutDMA.h **** *
 696:Generated_Source\PSoC4/USBOutDMA.h **** * Summary:
 697:Generated_Source\PSoC4/USBOutDMA.h **** *  Returns the transfer mode for the specified descriptor as set by 
 698:Generated_Source\PSoC4/USBOutDMA.h **** *  USBOutDMA_SetTransferMode() or USBOutDMA_SetConfiguration().
 699:Generated_Source\PSoC4/USBOutDMA.h **** *
 700:Generated_Source\PSoC4/USBOutDMA.h **** * Parameters:
 701:Generated_Source\PSoC4/USBOutDMA.h **** *  descriptor: Descriptor (0 or 1) modified by this function.
 702:Generated_Source\PSoC4/USBOutDMA.h **** *                   
 703:Generated_Source\PSoC4/USBOutDMA.h **** * Return:
 704:Generated_Source\PSoC4/USBOutDMA.h **** *  DMA transfer mode settings. Refer to the API bit field definitions in
 705:Generated_Source\PSoC4/USBOutDMA.h **** *  CyDMA_P4.h or the API description in the DMA channel datasheet for more
 706:Generated_Source\PSoC4/USBOutDMA.h **** *  information.
 707:Generated_Source\PSoC4/USBOutDMA.h **** *
 708:Generated_Source\PSoC4/USBOutDMA.h **** *******************************************************************************/
 709:Generated_Source\PSoC4/USBOutDMA.h **** static CY_INLINE uint32 USBOutDMA_GetTransferMode(int32 descriptor)
 710:Generated_Source\PSoC4/USBOutDMA.h **** {
 711:Generated_Source\PSoC4/USBOutDMA.h ****     return (CyDmaGetTransferMode(USBOutDMA_CHANNEL, descriptor));
 712:Generated_Source\PSoC4/USBOutDMA.h **** }
 713:Generated_Source\PSoC4/USBOutDMA.h **** 
 714:Generated_Source\PSoC4/USBOutDMA.h **** 
 715:Generated_Source\PSoC4/USBOutDMA.h **** /*******************************************************************************
 716:Generated_Source\PSoC4/USBOutDMA.h **** * Function Name: USBOutDMA_SetPreemptable
 717:Generated_Source\PSoC4/USBOutDMA.h **** ********************************************************************************
 718:Generated_Source\PSoC4/USBOutDMA.h **** *
 719:Generated_Source\PSoC4/USBOutDMA.h **** * Summary:
ARM GAS  C:\Users\TERENC~1\AppData\Local\Temp\ccWZBAqj.s 			page 29


 720:Generated_Source\PSoC4/USBOutDMA.h **** *  Determines if the descriptor is preemptable.
 721:Generated_Source\PSoC4/USBOutDMA.h **** *
 722:Generated_Source\PSoC4/USBOutDMA.h **** * Parameters:
 723:Generated_Source\PSoC4/USBOutDMA.h **** *  descriptor:  Descriptor (0 or 1) modified by this function.
 724:Generated_Source\PSoC4/USBOutDMA.h **** *  preemptable: Descriptor preemption settings. Refer to the API bit field
 725:Generated_Source\PSoC4/USBOutDMA.h **** *               definitions in CyDMA_P4.h or the API description in the DMA 
 726:Generated_Source\PSoC4/USBOutDMA.h **** *               channel datasheet for the parameter options.
 727:Generated_Source\PSoC4/USBOutDMA.h **** *                   
 728:Generated_Source\PSoC4/USBOutDMA.h **** * Return:
 729:Generated_Source\PSoC4/USBOutDMA.h **** *  None.
 730:Generated_Source\PSoC4/USBOutDMA.h **** *
 731:Generated_Source\PSoC4/USBOutDMA.h **** * Side effect:
 732:Generated_Source\PSoC4/USBOutDMA.h **** *  This function should not be called when the specified descriptor is active
 733:Generated_Source\PSoC4/USBOutDMA.h **** *  in the DMA transfer engine. This can be checked by calling CyDmaGetStatus(). 
 734:Generated_Source\PSoC4/USBOutDMA.h **** *
 735:Generated_Source\PSoC4/USBOutDMA.h **** *******************************************************************************/
 736:Generated_Source\PSoC4/USBOutDMA.h **** static CY_INLINE void USBOutDMA_SetPreemptable(int32 descriptor, uint32 preemptable)
 737:Generated_Source\PSoC4/USBOutDMA.h **** {
 738:Generated_Source\PSoC4/USBOutDMA.h ****     CyDmaSetPreemptable(USBOutDMA_CHANNEL, descriptor, preemptable);
 739:Generated_Source\PSoC4/USBOutDMA.h **** }
 740:Generated_Source\PSoC4/USBOutDMA.h **** 
 741:Generated_Source\PSoC4/USBOutDMA.h **** 
 742:Generated_Source\PSoC4/USBOutDMA.h **** /*******************************************************************************
 743:Generated_Source\PSoC4/USBOutDMA.h **** * Function Name: USBOutDMA_GetPreemptable
 744:Generated_Source\PSoC4/USBOutDMA.h **** ********************************************************************************
 745:Generated_Source\PSoC4/USBOutDMA.h **** *
 746:Generated_Source\PSoC4/USBOutDMA.h **** * Summary:
 747:Generated_Source\PSoC4/USBOutDMA.h **** *  Returns whether or not the descriptor is preemptable.
 748:Generated_Source\PSoC4/USBOutDMA.h **** *
 749:Generated_Source\PSoC4/USBOutDMA.h **** * Parameters:
 750:Generated_Source\PSoC4/USBOutDMA.h **** *  descriptor: Descriptor (0 or 1) modified by this function.
 751:Generated_Source\PSoC4/USBOutDMA.h **** *                   
 752:Generated_Source\PSoC4/USBOutDMA.h **** * Return:
 753:Generated_Source\PSoC4/USBOutDMA.h **** *  Descriptor preemption setting. Refer to the API bit field definitions in
 754:Generated_Source\PSoC4/USBOutDMA.h **** *  CyDMA_P4.h or the API description in the DMA channel datasheet for more
 755:Generated_Source\PSoC4/USBOutDMA.h **** *  information.
 756:Generated_Source\PSoC4/USBOutDMA.h **** *
 757:Generated_Source\PSoC4/USBOutDMA.h **** *******************************************************************************/
 758:Generated_Source\PSoC4/USBOutDMA.h **** static CY_INLINE uint32 USBOutDMA_GetPreemptable(int32 descriptor)
 759:Generated_Source\PSoC4/USBOutDMA.h **** {
 760:Generated_Source\PSoC4/USBOutDMA.h ****     return (CyDmaGetPreemptable(USBOutDMA_CHANNEL, descriptor));
 761:Generated_Source\PSoC4/USBOutDMA.h **** }
 762:Generated_Source\PSoC4/USBOutDMA.h **** 
 763:Generated_Source\PSoC4/USBOutDMA.h **** 
 764:Generated_Source\PSoC4/USBOutDMA.h **** /*******************************************************************************
 765:Generated_Source\PSoC4/USBOutDMA.h **** * Function Name: USBOutDMA_SetPostCompletionActions
 766:Generated_Source\PSoC4/USBOutDMA.h **** ********************************************************************************
 767:Generated_Source\PSoC4/USBOutDMA.h **** *
 768:Generated_Source\PSoC4/USBOutDMA.h **** * Summary:
 769:Generated_Source\PSoC4/USBOutDMA.h **** *  Determines what occurs after a descriptor completes.
 770:Generated_Source\PSoC4/USBOutDMA.h **** *
 771:Generated_Source\PSoC4/USBOutDMA.h **** * Parameters:
 772:Generated_Source\PSoC4/USBOutDMA.h **** *  descriptor: Descriptor (0 or 1) modified by this function.
 773:Generated_Source\PSoC4/USBOutDMA.h **** *  actions:    Specifies descriptor post completion actions. Refer to the API
 774:Generated_Source\PSoC4/USBOutDMA.h **** *              bit field definitions in CyDMA_P4.h or the API description in the
 775:Generated_Source\PSoC4/USBOutDMA.h **** *              DMA channel datasheet for the parameter options.
 776:Generated_Source\PSoC4/USBOutDMA.h **** *                   
ARM GAS  C:\Users\TERENC~1\AppData\Local\Temp\ccWZBAqj.s 			page 30


 777:Generated_Source\PSoC4/USBOutDMA.h **** * Return:
 778:Generated_Source\PSoC4/USBOutDMA.h **** *  None.  
 779:Generated_Source\PSoC4/USBOutDMA.h **** *
 780:Generated_Source\PSoC4/USBOutDMA.h **** * Side effect:
 781:Generated_Source\PSoC4/USBOutDMA.h **** *  This function should not be called when the specified descriptor is active
 782:Generated_Source\PSoC4/USBOutDMA.h **** *  in the DMA transfer engine. This can be checked by calling CyDmaGetStatus(). 
 783:Generated_Source\PSoC4/USBOutDMA.h **** *
 784:Generated_Source\PSoC4/USBOutDMA.h **** *******************************************************************************/
 785:Generated_Source\PSoC4/USBOutDMA.h **** static CY_INLINE void USBOutDMA_SetPostCompletionActions(int32 descriptor, uint32 actions)
 786:Generated_Source\PSoC4/USBOutDMA.h **** {
 787:Generated_Source\PSoC4/USBOutDMA.h ****     CyDmaSetPostCompletionActions(USBOutDMA_CHANNEL, descriptor, actions);
 234              		.loc 3 787 0
 235 007c 9022     		movs	r2, #144
 236 007e 9205     		lsls	r2, r2, #22
 237 0080 0021     		movs	r1, #0
 238 0082 0320     		movs	r0, #3
 239 0084 FFF7FEFF 		bl	CyDmaSetPostCompletionActions
 240              	.LVL19:
 241              	.LBE81:
 242              	.LBE80:
 243              	.LBB82:
 244              	.LBB83:
 688:Generated_Source\PSoC4/USBOutDMA.h **** }
 245              		.loc 3 688 0
 246 0088 8022     		movs	r2, #128
 247 008a 1206     		lsls	r2, r2, #24
 248 008c 0021     		movs	r1, #0
 249 008e 0320     		movs	r0, #3
 250 0090 FFF7FEFF 		bl	CyDmaSetTransferMode
 251              	.LVL20:
 252              	.LBE83:
 253              	.LBE82:
 163:AudioOut.c    ****     			USBOutDMA_SetSrcAddress(0, (void *) (outRam));						
 164:AudioOut.c    ****     			USBOutDMA_SetPostCompletionActions(0, CYDMA_CHAIN | CYDMA_INVALIDATE);
 165:AudioOut.c    ****     			USBOutDMA_SetTransferMode(0,CYDMA_ENTIRE_DESCRIPTOR_CHAIN);			
 166:AudioOut.c    ****     			
 167:AudioOut.c    ****     			USBOutDMA_SetNumDataElements(1, count - remain);
 254              		.loc 1 167 0
 255 0094 621B     		subs	r2, r4, r5
 256              	.LVL21:
 257              	.LBB84:
 258              	.LBB85:
 477:Generated_Source\PSoC4/USBOutDMA.h **** }
 259              		.loc 3 477 0
 260 0096 0121     		movs	r1, #1
 261 0098 0320     		movs	r0, #3
 262 009a FFF7FEFF 		bl	CyDmaSetNumDataElements
 263              	.LVL22:
 264              	.LBE85:
 265              	.LBE84:
 266              	.LBB86:
 267              	.LBB87:
 372:Generated_Source\PSoC4/USBOutDMA.h **** }
 268              		.loc 3 372 0
 269 009e 4A46     		mov	r2, r9
 270 00a0 0121     		movs	r1, #1
 271 00a2 0320     		movs	r0, #3
ARM GAS  C:\Users\TERENC~1\AppData\Local\Temp\ccWZBAqj.s 			page 31


 272 00a4 FFF7FEFF 		bl	CyDmaSetDstAddress
 273              	.LVL23:
 274              	.LBE87:
 275              	.LBE86:
 168:AudioOut.c    ****     			USBOutDMA_SetDstAddress(1, (void *) (outBuffer));
 169:AudioOut.c    ****     			USBOutDMA_SetSrcAddress(1, (void *) (outRam + remain));			
 276              		.loc 1 169 0
 277 00a8 AA19     		adds	r2, r5, r6
 278              	.LVL24:
 279              	.LBB88:
 280              	.LBB89:
 326:Generated_Source\PSoC4/USBOutDMA.h **** }
 281              		.loc 3 326 0
 282 00aa 0121     		movs	r1, #1
 283 00ac 0320     		movs	r0, #3
 284 00ae FFF7FEFF 		bl	CyDmaSetSrcAddress
 285              	.LVL25:
 286              	.LBE89:
 287              	.LBE88:
 288              	.LBB90:
 289              	.LBB91:
 290              		.loc 3 787 0
 291 00b2 9022     		movs	r2, #144
 292 00b4 9205     		lsls	r2, r2, #22
 293 00b6 0121     		movs	r1, #1
 294 00b8 0320     		movs	r0, #3
 295 00ba FFF7FEFF 		bl	CyDmaSetPostCompletionActions
 296              	.LVL26:
 297              	.LBE91:
 298              	.LBE90:
 299              	.LBB92:
 300              	.LBB93:
 688:Generated_Source\PSoC4/USBOutDMA.h **** }
 301              		.loc 3 688 0
 302 00be 8022     		movs	r2, #128
 303 00c0 D205     		lsls	r2, r2, #23
 304 00c2 0121     		movs	r1, #1
 305 00c4 0320     		movs	r0, #3
 306 00c6 FFF7FEFF 		bl	CyDmaSetTransferMode
 307              	.LVL27:
 308              	.LBE93:
 309              	.LBE92:
 310              	.LBB94:
 311              	.LBB95:
 205:Generated_Source\PSoC4/USBOutDMA.h **** }
 312              		.loc 3 205 0
 313 00ca 0021     		movs	r1, #0
 314 00cc 0320     		movs	r0, #3
 315 00ce FFF7FEFF 		bl	CyDmaSetNextDescriptor
 316              	.LVL28:
 317              	.LBE95:
 318              	.LBE94:
 319              	.LBB96:
 320              	.LBB97:
 279:Generated_Source\PSoC4/USBOutDMA.h **** }
 321              		.loc 3 279 0
 322 00d2 0021     		movs	r1, #0
ARM GAS  C:\Users\TERENC~1\AppData\Local\Temp\ccWZBAqj.s 			page 32


 323 00d4 0320     		movs	r0, #3
 324 00d6 FFF7FEFF 		bl	CyDmaValidateDescriptor
 325              	.LVL29:
 326              	.LBE97:
 327              	.LBE96:
 328              	.LBB98:
 329              	.LBB99:
 330 00da 0121     		movs	r1, #1
 331 00dc 0320     		movs	r0, #3
 332 00de FFF7FEFF 		bl	CyDmaValidateDescriptor
 333              	.LVL30:
 334              	.LBE99:
 335              	.LBE98:
 170:AudioOut.c    ****     			USBOutDMA_SetPostCompletionActions(1, CYDMA_CHAIN | CYDMA_INVALIDATE);
 171:AudioOut.c    ****     			USBOutDMA_SetTransferMode(1, CYDMA_ENTIRE_DESCRIPTOR);
 172:AudioOut.c    ****     			
 173:AudioOut.c    ****     			USBOutDMA_SetNextDescriptor(0);	
 174:AudioOut.c    ****     			
 175:AudioOut.c    ****     			/* Validate descriptors */
 176:AudioOut.c    ****                 USBOutDMA_ValidateDescriptor(0);
 177:AudioOut.c    ****                 USBOutDMA_ValidateDescriptor(1); 
 178:AudioOut.c    ****                             
 179:AudioOut.c    ****                 outBufIndex = count-remain;
 336              		.loc 1 179 0
 337 00e2 641B     		subs	r4, r4, r5
 338 00e4 7C80     		strh	r4, [r7, #2]
 339 00e6 30E0     		b	.L7
 340              	.LVL31:
 341              	.L8:
 342              	.LBB100:
 343              	.LBB101:
 477:Generated_Source\PSoC4/USBOutDMA.h **** }
 344              		.loc 3 477 0
 345 00e8 2200     		movs	r2, r4
 346 00ea 0021     		movs	r1, #0
 347 00ec 0320     		movs	r0, #3
 348 00ee FFF7FEFF 		bl	CyDmaSetNumDataElements
 349              	.LVL32:
 350              	.LBE101:
 351              	.LBE100:
 180:AudioOut.c    ****             }
 181:AudioOut.c    ****             else 
 182:AudioOut.c    ****             {
 183:AudioOut.c    ****                 /* Single contiguous TD */
 184:AudioOut.c    ****     			USBOutDMA_SetNumDataElements(0, count);
 185:AudioOut.c    ****     			USBOutDMA_SetDstAddress(0, (void *) (outBuffer + outBufIndex));
 352              		.loc 1 185 0
 353 00f2 274D     		ldr	r5, .L9+4
 354 00f4 6A88     		ldrh	r2, [r5, #2]
 355 00f6 274B     		ldr	r3, .L9+8
 356 00f8 D218     		adds	r2, r2, r3
 357              	.LVL33:
 358              	.LBB102:
 359              	.LBB103:
 372:Generated_Source\PSoC4/USBOutDMA.h **** }
 360              		.loc 3 372 0
 361 00fa 0021     		movs	r1, #0
ARM GAS  C:\Users\TERENC~1\AppData\Local\Temp\ccWZBAqj.s 			page 33


 362 00fc 0320     		movs	r0, #3
 363 00fe FFF7FEFF 		bl	CyDmaSetDstAddress
 364              	.LVL34:
 365              	.LBE103:
 366              	.LBE102:
 367              	.LBB104:
 368              	.LBB105:
 326:Generated_Source\PSoC4/USBOutDMA.h **** }
 369              		.loc 3 326 0
 370 0102 254A     		ldr	r2, .L9+12
 371 0104 0021     		movs	r1, #0
 372 0106 0320     		movs	r0, #3
 373 0108 FFF7FEFF 		bl	CyDmaSetSrcAddress
 374              	.LVL35:
 375              	.LBE105:
 376              	.LBE104:
 377              	.LBB106:
 378              	.LBB107:
 379              		.loc 3 787 0
 380 010c 8022     		movs	r2, #128
 381 010e D204     		lsls	r2, r2, #19
 382 0110 0021     		movs	r1, #0
 383 0112 0320     		movs	r0, #3
 384 0114 FFF7FEFF 		bl	CyDmaSetPostCompletionActions
 385              	.LVL36:
 386              	.LBE107:
 387              	.LBE106:
 388              	.LBB108:
 389              	.LBB109:
 688:Generated_Source\PSoC4/USBOutDMA.h **** }
 390              		.loc 3 688 0
 391 0118 8022     		movs	r2, #128
 392 011a D205     		lsls	r2, r2, #23
 393 011c 0021     		movs	r1, #0
 394 011e 0320     		movs	r0, #3
 395 0120 FFF7FEFF 		bl	CyDmaSetTransferMode
 396              	.LVL37:
 397              	.LBE109:
 398              	.LBE108:
 399              	.LBB110:
 400              	.LBB111:
 205:Generated_Source\PSoC4/USBOutDMA.h **** }
 401              		.loc 3 205 0
 402 0124 0021     		movs	r1, #0
 403 0126 0320     		movs	r0, #3
 404 0128 FFF7FEFF 		bl	CyDmaSetNextDescriptor
 405              	.LVL38:
 406              	.LBE111:
 407              	.LBE110:
 408              	.LBB112:
 409              	.LBB113:
 279:Generated_Source\PSoC4/USBOutDMA.h **** }
 410              		.loc 3 279 0
 411 012c 0021     		movs	r1, #0
 412 012e 0320     		movs	r0, #3
 413 0130 FFF7FEFF 		bl	CyDmaValidateDescriptor
 414              	.LVL39:
ARM GAS  C:\Users\TERENC~1\AppData\Local\Temp\ccWZBAqj.s 			page 34


 415              	.LBE113:
 416              	.LBE112:
 186:AudioOut.c    ****     			USBOutDMA_SetSrcAddress(0, (void *) (outRam));						
 187:AudioOut.c    ****     			USBOutDMA_SetPostCompletionActions(0, CYDMA_INVALIDATE);
 188:AudioOut.c    ****     			USBOutDMA_SetTransferMode(0,CYDMA_ENTIRE_DESCRIPTOR);
 189:AudioOut.c    ****     			
 190:AudioOut.c    ****     			USBOutDMA_SetNextDescriptor(0);	
 191:AudioOut.c    ****     			
 192:AudioOut.c    ****     			USBOutDMA_ValidateDescriptor(0);
 193:AudioOut.c    ****     			           
 194:AudioOut.c    ****                 outBufIndex += count;
 417              		.loc 1 194 0
 418 0134 6B88     		ldrh	r3, [r5, #2]
 419 0136 E418     		adds	r4, r4, r3
 420 0138 A4B2     		uxth	r4, r4
 421 013a 6C80     		strh	r4, [r5, #2]
 195:AudioOut.c    ****                 if (outBufIndex == sizeof(outBuffer)) 
 422              		.loc 1 195 0
 423 013c 9023     		movs	r3, #144
 424 013e DB00     		lsls	r3, r3, #3
 425 0140 9C42     		cmp	r4, r3
 426 0142 02D1     		bne	.L7
 196:AudioOut.c    ****     			{
 197:AudioOut.c    ****     				outBufIndex = 0;
 427              		.loc 1 197 0
 428 0144 0022     		movs	r2, #0
 429 0146 124B     		ldr	r3, .L9+4
 430 0148 5A80     		strh	r2, [r3, #2]
 431              	.L7:
 432              	.LBB114:
 433              	.LBB115:
  96:Generated_Source\PSoC4/USBOutDMA.h **** }
 434              		.loc 3 96 0
 435 014a 0320     		movs	r0, #3
 436 014c FFF7FEFF 		bl	CyDmaChEnable
 437              	.LVL40:
 438              	.LBE115:
 439              	.LBE114:
 440              	.LBB116:
 441              	.LBB117:
 140:Generated_Source\PSoC4/USBOutDMA.h **** }
 442              		.loc 3 140 0
 443 0150 0320     		movs	r0, #3
 444 0152 FFF7FEFF 		bl	CyDmaTrigger
 445              	.LVL41:
 446              	.LBE117:
 447              	.LBE116:
 198:AudioOut.c    ****     			}
 199:AudioOut.c    ****             }
 200:AudioOut.c    ****         }
 201:AudioOut.c    ****         
 202:AudioOut.c    ****         /* Enable the USB Out DMA, don't update the TD as it progresses */
 203:AudioOut.c    **** 		USBOutDMA_ChEnable();
 204:AudioOut.c    ****         USBOutDMA_Trigger();                
 205:AudioOut.c    ****     
 206:AudioOut.c    ****         /* Start playing audio only when transmit buffer is more than half full */
 207:AudioOut.c    ****         if((!outPlaying) && (outUsbCount >= OUT_HALF))
ARM GAS  C:\Users\TERENC~1\AppData\Local\Temp\ccWZBAqj.s 			page 35


 448              		.loc 1 207 0
 449 0156 0E4B     		ldr	r3, .L9+4
 450 0158 9B79     		ldrb	r3, [r3, #6]
 451 015a 002B     		cmp	r3, #0
 452 015c 13D1     		bne	.L4
 453              		.loc 1 207 0 is_stmt 0 discriminator 1
 454 015e 0C4B     		ldr	r3, .L9+4
 455 0160 9A88     		ldrh	r2, [r3, #4]
 456 0162 0E4B     		ldr	r3, .L9+16
 457 0164 9A42     		cmp	r2, r3
 458 0166 0ED9     		bls	.L4
 208:AudioOut.c    ****         {
 209:AudioOut.c    ****             outPlaying = TRUE;
 459              		.loc 1 209 0 is_stmt 1
 460 0168 0122     		movs	r2, #1
 461 016a 094B     		ldr	r3, .L9+4
 462 016c 9A71     		strb	r2, [r3, #6]
 210:AudioOut.c    ****             
 211:AudioOut.c    ****             I2S_ClearTxFIFO(); /* Clear the I2S internal FIFO */              
 463              		.loc 1 211 0
 464 016e FFF7FEFF 		bl	I2S_ClearTxFIFO
 465              	.LVL42:
 212:AudioOut.c    ****             
 213:AudioOut.c    ****             /* Enable power to speaker output */
 214:AudioOut.c    ****             Codec_PowerOnControl(CODEC_POWER_CTRL_OUTPD);
 466              		.loc 1 214 0
 467 0172 1020     		movs	r0, #16
 468 0174 FFF7FEFF 		bl	Codec_PowerOnControl
 469              	.LVL43:
 470              	.LBB118:
 471              	.LBB119:
  96:Generated_Source\PSoC4/TxDMA.h **** }
 472              		.loc 2 96 0
 473 0178 0020     		movs	r0, #0
 474 017a FFF7FEFF 		bl	CyDmaChEnable
 475              	.LVL44:
 476              	.LBE119:
 477              	.LBE118:
 215:AudioOut.c    ****             
 216:AudioOut.c    **** 			TxDMA_ChEnable();            
 217:AudioOut.c    ****             
 218:AudioOut.c    ****             /* Restart Byte Counter */
 219:AudioOut.c    ****             ByteCounter_Tx_Enable();            
 478              		.loc 1 219 0
 479 017e FFF7FEFF 		bl	ByteCounter_Tx_Enable
 480              	.LVL45:
 220:AudioOut.c    ****             
 221:AudioOut.c    ****             I2S_EnableTx(); /* Unmute the TX output */           
 481              		.loc 1 221 0
 482 0182 FFF7FEFF 		bl	I2S_EnableTx
 483              	.LVL46:
 484              	.L4:
 222:AudioOut.c    ****         }
 223:AudioOut.c    ****     }	
 224:AudioOut.c    **** }
 485              		.loc 1 224 0
 486              		@ sp needed
ARM GAS  C:\Users\TERENC~1\AppData\Local\Temp\ccWZBAqj.s 			page 36


 487 0186 04BC     		pop	{r2}
 488 0188 9146     		mov	r9, r2
 489 018a F0BD     		pop	{r4, r5, r6, r7, pc}
 490              	.L10:
 491              		.align	2
 492              	.L9:
 493 018c 00000000 		.word	audioClkConfigured
 494 0190 00000000 		.word	.LANCHOR0
 495 0194 00000000 		.word	outBuffer
 496 0198 00000000 		.word	outRam
 497 019c 3F020000 		.word	575
 498              		.cfi_endproc
 499              	.LFE356:
 500              		.size	ProcessAudioOut, .-ProcessAudioOut
 501              		.section	.text.Stop_I2S_Tx,"ax",%progbits
 502              		.align	2
 503              		.global	Stop_I2S_Tx
 504              		.code	16
 505              		.thumb_func
 506              		.type	Stop_I2S_Tx, %function
 507              	Stop_I2S_Tx:
 508              	.LFB357:
 225:AudioOut.c    **** 
 226:AudioOut.c    **** 
 227:AudioOut.c    **** /*******************************************************************************
 228:AudioOut.c    **** * Function Name: Stop_I2S_Tx
 229:AudioOut.c    **** ********************************************************************************
 230:AudioOut.c    **** * Summary:
 231:AudioOut.c    **** *        This function stops the I2S data transmission by disabling the I2S and 
 232:AudioOut.c    **** *        transmit DMA.
 233:AudioOut.c    **** *
 234:AudioOut.c    **** * Parameters:
 235:AudioOut.c    **** *  void
 236:AudioOut.c    **** *
 237:AudioOut.c    **** * Return:
 238:AudioOut.c    **** *  void
 239:AudioOut.c    **** *
 240:AudioOut.c    **** *******************************************************************************/
 241:AudioOut.c    **** void Stop_I2S_Tx(void) CYREENTRANT
 242:AudioOut.c    **** {
 509              		.loc 1 242 0
 510              		.cfi_startproc
 511              		@ args = 0, pretend = 0, frame = 0
 512              		@ frame_needed = 0, uses_anonymous_args = 0
 513 0000 10B5     		push	{r4, lr}
 514              		.cfi_def_cfa_offset 8
 515              		.cfi_offset 4, -8
 516              		.cfi_offset 14, -4
 243:AudioOut.c    ****     if(outPlaying)
 517              		.loc 1 243 0
 518 0002 0F4B     		ldr	r3, .L13
 519 0004 9B79     		ldrb	r3, [r3, #6]
 520 0006 002B     		cmp	r3, #0
 521 0008 18D0     		beq	.L11
 244:AudioOut.c    ****     {       
 245:AudioOut.c    ****         ByteCounter_Tx_Stop();
 522              		.loc 1 245 0
ARM GAS  C:\Users\TERENC~1\AppData\Local\Temp\ccWZBAqj.s 			page 37


 523 000a FFF7FEFF 		bl	ByteCounter_Tx_Stop
 524              	.LVL47:
 246:AudioOut.c    **** 		        
 247:AudioOut.c    ****         I2S_DisableTx();     /* Stop I2S Transmit (Mute), I2S output clocks still active */
 525              		.loc 1 247 0
 526 000e FFF7FEFF 		bl	I2S_DisableTx
 527              	.LVL48:
 248:AudioOut.c    ****         
 249:AudioOut.c    ****         CyDelayUs(20); /* Provide enough time for DMA to transfer the last audio samples completely
 528              		.loc 1 249 0
 529 0012 1420     		movs	r0, #20
 530 0014 FFF7FEFF 		bl	CyDelayUs
 531              	.LVL49:
 532              	.LBB120:
 533              	.LBB121:
 119:Generated_Source\PSoC4/TxDMA.h **** }
 534              		.loc 2 119 0
 535 0018 0020     		movs	r0, #0
 536 001a FFF7FEFF 		bl	CyDmaChDisable
 537              	.LVL50:
 538              	.LBE121:
 539              	.LBE120:
 250:AudioOut.c    ****    
 251:AudioOut.c    ****         /* Stop / Disable DMA - Needed to reset to start of chain */
 252:AudioOut.c    ****         TxDMA_ChDisable();
 253:AudioOut.c    **** 		
 254:AudioOut.c    **** 		/* Make DMA transaction count zero */ 
 255:AudioOut.c    ****         CYDMA_DESCR_BASE.descriptor[TxDMA_CHANNEL][0].status &= 0xFFFF0000;
 540              		.loc 1 255 0
 541 001e 094A     		ldr	r2, .L13+4
 542 0020 D368     		ldr	r3, [r2, #12]
 543 0022 1B0C     		lsrs	r3, r3, #16
 544 0024 1B04     		lsls	r3, r3, #16
 545 0026 D360     		str	r3, [r2, #12]
 256:AudioOut.c    **** 		
 257:AudioOut.c    ****         /* Disable power to speaker output */
 258:AudioOut.c    ****         Codec_PowerOffControl(CODEC_POWER_CTRL_OUTPD);
 546              		.loc 1 258 0
 547 0028 1020     		movs	r0, #16
 548 002a FFF7FEFF 		bl	Codec_PowerOffControl
 549              	.LVL51:
 259:AudioOut.c    ****         
 260:AudioOut.c    ****         resetTx = 1;
 550              		.loc 1 260 0
 551 002e 044B     		ldr	r3, .L13
 552 0030 0122     		movs	r2, #1
 553 0032 1A70     		strb	r2, [r3]
 261:AudioOut.c    ****         outLevel = 0;
 554              		.loc 1 261 0
 555 0034 0022     		movs	r2, #0
 556 0036 1A81     		strh	r2, [r3, #8]
 262:AudioOut.c    ****         outUsbShadow = 0;
 557              		.loc 1 262 0
 558 0038 5A81     		strh	r2, [r3, #10]
 263:AudioOut.c    ****         outPlaying = 0;
 559              		.loc 1 263 0
 560 003a 9A71     		strb	r2, [r3, #6]
ARM GAS  C:\Users\TERENC~1\AppData\Local\Temp\ccWZBAqj.s 			page 38


 561              	.L11:
 264:AudioOut.c    ****     }    
 265:AudioOut.c    **** }
 562              		.loc 1 265 0
 563              		@ sp needed
 564 003c 10BD     		pop	{r4, pc}
 565              	.L14:
 566 003e C046     		.align	2
 567              	.L13:
 568 0040 00000000 		.word	.LANCHOR0
 569 0044 00181040 		.word	1074796544
 570              		.cfi_endproc
 571              	.LFE357:
 572              		.size	Stop_I2S_Tx, .-Stop_I2S_Tx
 573              		.global	outBufIndex
 574              		.comm	outBuffer,1152,4
 575              		.global	outUsbShadow
 576              		.global	outUsbCount
 577              		.global	outLevel
 578              		.global	outPlaying
 579              		.global	resetTx
 580              		.bss
 581              		.align	1
 582              		.set	.LANCHOR0,. + 0
 583              		.type	resetTx, %object
 584              		.size	resetTx, 1
 585              	resetTx:
 586 0000 00       		.space	1
 587 0001 00       		.space	1
 588              		.type	outBufIndex, %object
 589              		.size	outBufIndex, 2
 590              	outBufIndex:
 591 0002 0000     		.space	2
 592              		.type	outUsbCount, %object
 593              		.size	outUsbCount, 2
 594              	outUsbCount:
 595 0004 0000     		.space	2
 596              		.type	outPlaying, %object
 597              		.size	outPlaying, 1
 598              	outPlaying:
 599 0006 00       		.space	1
 600 0007 00       		.space	1
 601              		.type	outLevel, %object
 602              		.size	outLevel, 2
 603              	outLevel:
 604 0008 0000     		.space	2
 605              		.type	outUsbShadow, %object
 606              		.size	outUsbShadow, 2
 607              	outUsbShadow:
 608 000a 0000     		.space	2
 609              		.text
 610              	.Letext0:
 611              		.file 4 "Generated_Source\\PSoC4/cytypes.h"
 612              		.file 5 "Generated_Source\\PSoC4/CyDMA.h"
 613              		.file 6 "Generated_Source\\PSoC4/ByteCounter_Tx.h"
 614              		.file 7 "Generated_Source\\PSoC4/isr_TxDMADone.h"
 615              		.file 8 "Generated_Source\\PSoC4/USBFS.h"
ARM GAS  C:\Users\TERENC~1\AppData\Local\Temp\ccWZBAqj.s 			page 39


 616              		.file 9 "Generated_Source\\PSoC4/I2S.h"
 617              		.file 10 "./Codec.h"
 618              		.file 11 "Generated_Source\\PSoC4/CyLib.h"