ARM GAS  C:\Users\TERENC~1\AppData\Local\Temp\ccJXBeAp.s 			page 1


   1              		.syntax unified
   2              		.cpu cortex-m0
   3              		.fpu softvfp
   4              		.eabi_attribute 20, 1
   5              		.eabi_attribute 21, 1
   6              		.eabi_attribute 23, 3
   7              		.eabi_attribute 24, 1
   8              		.eabi_attribute 25, 1
   9              		.eabi_attribute 26, 1
  10              		.eabi_attribute 30, 1
  11              		.eabi_attribute 34, 0
  12              		.eabi_attribute 18, 4
  13              		.thumb
  14              		.syntax unified
  15              		.file	"AudioControl.c"
  16              		.text
  17              	.Ltext0:
  18              		.cfi_sections	.debug_frame
  19              		.section	.text.InitAudioPath,"ax",%progbits
  20              		.align	2
  21              		.global	InitAudioPath
  22              		.code	16
  23              		.thumb_func
  24              		.type	InitAudioPath, %function
  25              	InitAudioPath:
  26              	.LFB355:
  27              		.file 1 "AudioControl.c"
   1:AudioControl.c **** /*******************************************************************************
   2:AudioControl.c **** * File Name: AudioControl.c
   3:AudioControl.c **** *
   4:AudioControl.c **** * Version 1.0
   5:AudioControl.c **** *
   6:AudioControl.c **** *  Description: This file contains the Audio signal path configuration and 
   7:AudioControl.c **** *               processing code
   8:AudioControl.c **** *
   9:AudioControl.c **** *******************************************************************************
  10:AudioControl.c **** * Copyright (2018), Cypress Semiconductor Corporation. All rights reserved.
  11:AudioControl.c **** *******************************************************************************
  12:AudioControl.c **** * This software, including source code, documentation and related materials
  13:AudioControl.c **** * (“Software”), is owned by Cypress Semiconductor Corporation or one of its
  14:AudioControl.c **** * subsidiaries (“Cypress”) and is protected by and subject to worldwide patent
  15:AudioControl.c **** * protection (United States and foreign), United States copyright laws and
  16:AudioControl.c **** * international treaty provisions. Therefore, you may use this Software only
  17:AudioControl.c **** * as provided in the license agreement accompanying the software package from
  18:AudioControl.c **** * which you obtained this Software (“EULA”).
  19:AudioControl.c **** *
  20:AudioControl.c **** * If no EULA applies, Cypress hereby grants you a personal, nonexclusive,
  21:AudioControl.c **** * non-transferable license to copy, modify, and compile the Software source
  22:AudioControl.c **** * code solely for use in connection with Cypress’s integrated circuit products.
  23:AudioControl.c **** * Any reproduction, modification, translation, compilation, or representation
  24:AudioControl.c **** * of this Software except as specified above is prohibited without the express
  25:AudioControl.c **** * written permission of Cypress.
  26:AudioControl.c **** *
  27:AudioControl.c **** * Disclaimer: THIS SOFTWARE IS PROVIDED AS-IS, WITH NO WARRANTY OF ANY KIND, 
  28:AudioControl.c **** * EXPRESS OR IMPLIED, INCLUDING, BUT NOT LIMITED TO, NONINFRINGEMENT, IMPLIED 
  29:AudioControl.c **** * WARRANTIES OF MERCHANTABILITY AND FITNESS FOR A PARTICULAR PURPOSE. Cypress 
  30:AudioControl.c **** * reserves the right to make changes to the Software without notice. Cypress 
ARM GAS  C:\Users\TERENC~1\AppData\Local\Temp\ccJXBeAp.s 			page 2


  31:AudioControl.c **** * does not assume any liability arising out of the application or use of the 
  32:AudioControl.c **** * Software or any product or circuit described in the Software. Cypress does 
  33:AudioControl.c **** * not authorize its products for use in any products where a malfunction or 
  34:AudioControl.c **** * failure of the Cypress product may reasonably be expected to result in 
  35:AudioControl.c **** * significant property damage, injury or death (“High Risk Product”). By 
  36:AudioControl.c **** * including Cypress’s product in a High Risk Product, the manufacturer of such 
  37:AudioControl.c **** * system or application assumes all risk of such use and in doing so agrees to 
  38:AudioControl.c **** * indemnify Cypress against all liability.
  39:AudioControl.c **** *******************************************************************************/
  40:AudioControl.c **** #include <Application.h>
  41:AudioControl.c **** #include <AudioControl.h>
  42:AudioControl.c **** #include <AudioOut.h>
  43:AudioControl.c **** #include <AudioIn.h>
  44:AudioControl.c **** #include <Codec.h>
  45:AudioControl.c **** #include <Config.h>
  46:AudioControl.c **** #include <project.h>
  47:AudioControl.c **** #include <Interrupts.h>
  48:AudioControl.c **** #include <USBInterface.h>
  49:AudioControl.c **** 
  50:AudioControl.c **** uint8 newRate = RATE_48KHZ;
  51:AudioControl.c **** extern uint8 asyncready;
  52:AudioControl.c **** 
  53:AudioControl.c **** 
  54:AudioControl.c **** extern CYBIT outPlaying;
  55:AudioControl.c **** 
  56:AudioControl.c **** extern CYBIT inPlaying;
  57:AudioControl.c **** 
  58:AudioControl.c **** 
  59:AudioControl.c **** 
  60:AudioControl.c **** uint8 audioClkConfigured = FALSE;
  61:AudioControl.c **** uint8 setRate = FREQUENCY_NOT_SET; 
  62:AudioControl.c **** uint8 newRate;
  63:AudioControl.c **** 
  64:AudioControl.c **** /*******************************************************************************
  65:AudioControl.c **** * Function Name: InitAudioPath
  66:AudioControl.c **** ********************************************************************************
  67:AudioControl.c **** * Summary:
  68:AudioControl.c **** *       This function sets up the XTAL, DMA and starts USB, I2S and interrupts
  69:AudioControl.c **** *        to get the part configured for the audio signal paths
  70:AudioControl.c **** *
  71:AudioControl.c **** * Parameters:
  72:AudioControl.c **** *  void
  73:AudioControl.c **** *
  74:AudioControl.c **** * Return:
  75:AudioControl.c **** *  void
  76:AudioControl.c **** *
  77:AudioControl.c **** *******************************************************************************/
  78:AudioControl.c **** void InitAudioPath(void)
  79:AudioControl.c **** {    
  28              		.loc 1 79 0
  29              		.cfi_startproc
  30              		@ args = 0, pretend = 0, frame = 0
  31              		@ frame_needed = 0, uses_anonymous_args = 0
  32 0000 10B5     		push	{r4, lr}
  33              		.cfi_def_cfa_offset 8
  34              		.cfi_offset 4, -8
  35              		.cfi_offset 14, -4
ARM GAS  C:\Users\TERENC~1\AppData\Local\Temp\ccJXBeAp.s 			page 3


  80:AudioControl.c ****     /* Set the default Audio clock rate to 48 kHz */
  81:AudioControl.c **** 	AudioClkSel_Write(RATE_48KHZ);
  36              		.loc 1 81 0
  37 0002 0020     		movs	r0, #0
  38 0004 FFF7FEFF 		bl	AudioClkSel_Write
  39              	.LVL0:
  82:AudioControl.c ****     
  83:AudioControl.c **** 	/* Enable DMA */
  84:AudioControl.c **** 	CyDmaEnable();
  40              		.loc 1 84 0
  41 0008 FFF7FEFF 		bl	CyDmaEnable
  42              	.LVL1:
  85:AudioControl.c **** 	
  86:AudioControl.c **** 	InitializeAudioInPath();
  43              		.loc 1 86 0
  44 000c FFF7FEFF 		bl	InitializeAudioInPath
  45              	.LVL2:
  87:AudioControl.c **** 	InitializeAudioOutPath();
  46              		.loc 1 87 0
  47 0010 FFF7FEFF 		bl	InitializeAudioOutPath
  48              	.LVL3:
  88:AudioControl.c **** 
  89:AudioControl.c **** 	/* Set TX FIFO trigger to 2 bytes (half-empty) to increase timing margin */
  90:AudioControl.c ****     I2S_TX_AUX_CONTROL_REG = I2S_TX_AUX_CONTROL_REG | FIFO_HALF_EMPTY_MASK;
  49              		.loc 1 90 0
  50 0014 0549     		ldr	r1, .L2
  51 0016 0A78     		ldrb	r2, [r1]
  52 0018 0C23     		movs	r3, #12
  53 001a 1A43     		orrs	r2, r3
  54 001c D2B2     		uxtb	r2, r2
  55 001e 0A70     		strb	r2, [r1]
  91:AudioControl.c ****     
  92:AudioControl.c ****     /* Set RX FIFO trigger to 2 bytes (half-empty) to increase timing margin */
  93:AudioControl.c ****     I2S_RX_AUX_CONTROL_REG = I2S_RX_AUX_CONTROL_REG | FIFO_HALF_EMPTY_MASK;
  56              		.loc 1 93 0
  57 0020 034A     		ldr	r2, .L2+4
  58 0022 1178     		ldrb	r1, [r2]
  59 0024 0B43     		orrs	r3, r1
  60 0026 DBB2     		uxtb	r3, r3
  61 0028 1370     		strb	r3, [r2]
  94:AudioControl.c **** }
  62              		.loc 1 94 0
  63              		@ sp needed
  64 002a 10BD     		pop	{r4, pc}
  65              	.L3:
  66              		.align	2
  67              	.L2:
  68 002c 93000F40 		.word	1074725011
  69 0030 96000F40 		.word	1074725014
  70              		.cfi_endproc
  71              	.LFE355:
  72              		.size	InitAudioPath, .-InitAudioPath
  73              		.section	.text.SetClockRate,"ax",%progbits
  74              		.align	2
  75              		.global	SetClockRate
  76              		.code	16
  77              		.thumb_func
ARM GAS  C:\Users\TERENC~1\AppData\Local\Temp\ccJXBeAp.s 			page 4


  78              		.type	SetClockRate, %function
  79              	SetClockRate:
  80              	.LFB356:
  95:AudioControl.c **** 
  96:AudioControl.c **** 
  97:AudioControl.c **** 
  98:AudioControl.c **** /*******************************************************************************
  99:AudioControl.c **** * Function Name: SetClockRate
 100:AudioControl.c **** ********************************************************************************
 101:AudioControl.c **** * Summary:
 102:AudioControl.c **** *        This function changes the audio clocking to generate clocks for a desired 
 103:AudioControl.c **** *        sample rate.
 104:AudioControl.c **** *
 105:AudioControl.c **** * Parameters:
 106:AudioControl.c **** *  newRate: audio sample rate to be set
 107:AudioControl.c **** *
 108:AudioControl.c **** * Return:
 109:AudioControl.c **** *  void
 110:AudioControl.c **** *
 111:AudioControl.c **** *******************************************************************************/
 112:AudioControl.c **** void SetClockRate(uint8 newRate) 
 113:AudioControl.c **** {
  81              		.loc 1 113 0
  82              		.cfi_startproc
  83              		@ args = 0, pretend = 0, frame = 0
  84              		@ frame_needed = 0, uses_anonymous_args = 0
  85              	.LVL4:
  86 0000 10B5     		push	{r4, lr}
  87              		.cfi_def_cfa_offset 8
  88              		.cfi_offset 4, -8
  89              		.cfi_offset 14, -4
  90 0002 0400     		movs	r4, r0
 114:AudioControl.c **** 	/* Stop I2S before changing PLL clock */
 115:AudioControl.c **** 	Stop_I2S_Tx();    
  91              		.loc 1 115 0
  92 0004 FFF7FEFF 		bl	Stop_I2S_Tx
  93              	.LVL5:
 116:AudioControl.c ****     Stop_I2S_Rx();
  94              		.loc 1 116 0
  95 0008 FFF7FEFF 		bl	Stop_I2S_Rx
  96              	.LVL6:
 117:AudioControl.c ****     
 118:AudioControl.c **** 	  
 119:AudioControl.c **** 	/* Configure Codec and Audio clock */
 120:AudioControl.c **** 	Codec_Deactivate();
  97              		.loc 1 120 0
  98 000c FFF7FEFF 		bl	Codec_Deactivate
  99              	.LVL7:
 121:AudioControl.c **** 	
 122:AudioControl.c **** 	if(newRate == RATE_48KHZ)
 100              		.loc 1 122 0
 101 0010 002C     		cmp	r4, #0
 102 0012 0DD1     		bne	.L5
 123:AudioControl.c **** 	{
 124:AudioControl.c **** 		CySysClkPllStart(RATE_48KHZ, 1);
 103              		.loc 1 124 0
 104 0014 0121     		movs	r1, #1
ARM GAS  C:\Users\TERENC~1\AppData\Local\Temp\ccJXBeAp.s 			page 5


 105 0016 0020     		movs	r0, #0
 106 0018 FFF7FEFF 		bl	CySysClkPllStart
 107              	.LVL8:
 125:AudioControl.c **** 		CySysClkPllStop(RATE_44KHZ);
 108              		.loc 1 125 0
 109 001c 0120     		movs	r0, #1
 110 001e FFF7FEFF 		bl	CySysClkPllStop
 111              	.LVL9:
 126:AudioControl.c **** 		AudioClkSel_Write(RATE_48KHZ);
 112              		.loc 1 126 0
 113 0022 0020     		movs	r0, #0
 114 0024 FFF7FEFF 		bl	AudioClkSel_Write
 115              	.LVL10:
 127:AudioControl.c **** 		Codec_SetSamplingRate(CODEC_SRATE_NORMAL_48KHZ_256FS);
 116              		.loc 1 127 0
 117 0028 0020     		movs	r0, #0
 118 002a FFF7FEFF 		bl	Codec_SetSamplingRate
 119              	.LVL11:
 120 002e 18E0     		b	.L6
 121              	.L5:
 128:AudioControl.c **** 		
 129:AudioControl.c **** 	}
 130:AudioControl.c **** 	else if(newRate == RATE_44KHZ)
 122              		.loc 1 130 0
 123 0030 012C     		cmp	r4, #1
 124 0032 0DD1     		bne	.L7
 131:AudioControl.c **** 	{
 132:AudioControl.c **** 		CySysClkPllStart(RATE_44KHZ, 1);
 125              		.loc 1 132 0
 126 0034 0121     		movs	r1, #1
 127 0036 0120     		movs	r0, #1
 128 0038 FFF7FEFF 		bl	CySysClkPllStart
 129              	.LVL12:
 133:AudioControl.c **** 		CySysClkPllStop(RATE_48KHZ);
 130              		.loc 1 133 0
 131 003c 0020     		movs	r0, #0
 132 003e FFF7FEFF 		bl	CySysClkPllStop
 133              	.LVL13:
 134:AudioControl.c **** 		AudioClkSel_Write(RATE_44KHZ);
 134              		.loc 1 134 0
 135 0042 0120     		movs	r0, #1
 136 0044 FFF7FEFF 		bl	AudioClkSel_Write
 137              	.LVL14:
 135:AudioControl.c **** 		Codec_SetSamplingRate(CODEC_SRATE_NORMAL_44KHZ_256FS);		
 138              		.loc 1 135 0
 139 0048 2020     		movs	r0, #32
 140 004a FFF7FEFF 		bl	Codec_SetSamplingRate
 141              	.LVL15:
 142 004e 08E0     		b	.L6
 143              	.L7:
 136:AudioControl.c **** 	}
 137:AudioControl.c **** 	else
 138:AudioControl.c **** 	{
 139:AudioControl.c **** 		CySysClkPllStop(RATE_48KHZ);
 144              		.loc 1 139 0
 145 0050 0020     		movs	r0, #0
 146 0052 FFF7FEFF 		bl	CySysClkPllStop
ARM GAS  C:\Users\TERENC~1\AppData\Local\Temp\ccJXBeAp.s 			page 6


 147              	.LVL16:
 140:AudioControl.c **** 		CySysClkPllStop(RATE_44KHZ);		
 148              		.loc 1 140 0
 149 0056 0120     		movs	r0, #1
 150 0058 FFF7FEFF 		bl	CySysClkPllStop
 151              	.LVL17:
 141:AudioControl.c **** 		Codec_SetSamplingRate(CODEC_SRATE_NORMAL_48KHZ_256FS);
 152              		.loc 1 141 0
 153 005c 0020     		movs	r0, #0
 154 005e FFF7FEFF 		bl	Codec_SetSamplingRate
 155              	.LVL18:
 156              	.L6:
 142:AudioControl.c **** 	}
 143:AudioControl.c **** 	
 144:AudioControl.c **** 	Codec_Activate();	 
 157              		.loc 1 144 0
 158 0062 FFF7FEFF 		bl	Codec_Activate
 159              	.LVL19:
 145:AudioControl.c **** 	
 146:AudioControl.c ****     /* flag to indicate audio clock active */
 147:AudioControl.c ****     audioClkConfigured = TRUE;    
 160              		.loc 1 147 0
 161 0066 0122     		movs	r2, #1
 162 0068 014B     		ldr	r3, .L8
 163 006a 1A70     		strb	r2, [r3]
 148:AudioControl.c **** }
 164              		.loc 1 148 0
 165              		@ sp needed
 166 006c 10BD     		pop	{r4, pc}
 167              	.L9:
 168 006e C046     		.align	2
 169              	.L8:
 170 0070 00000000 		.word	.LANCHOR0
 171              		.cfi_endproc
 172              	.LFE356:
 173              		.size	SetClockRate, .-SetClockRate
 174              		.section	.text.HandleSamplingFrequencyChangeRequest,"ax",%progbits
 175              		.align	2
 176              		.global	HandleSamplingFrequencyChangeRequest
 177              		.code	16
 178              		.thumb_func
 179              		.type	HandleSamplingFrequencyChangeRequest, %function
 180              	HandleSamplingFrequencyChangeRequest:
 181              	.LFB357:
 149:AudioControl.c ****  
 150:AudioControl.c **** /*******************************************************************************
 151:AudioControl.c **** * Function Name: HandleSamplingFrequencyChangeRequest
 152:AudioControl.c **** ********************************************************************************
 153:AudioControl.c **** * Summary:
 154:AudioControl.c **** *       This function processes the sampling frequency change request from USB
 155:AudioControl.c **** *       host and updates the accessory playback sampling frequency accordingly
 156:AudioControl.c **** *
 157:AudioControl.c **** * Parameters:
 158:AudioControl.c **** *  void
 159:AudioControl.c **** *
 160:AudioControl.c **** * Return:
 161:AudioControl.c **** *  void
ARM GAS  C:\Users\TERENC~1\AppData\Local\Temp\ccJXBeAp.s 			page 7


 162:AudioControl.c **** *
 163:AudioControl.c **** *******************************************************************************/
 164:AudioControl.c **** void HandleSamplingFrequencyChangeRequest(void)
 165:AudioControl.c **** {
 182              		.loc 1 165 0
 183              		.cfi_startproc
 184              		@ args = 0, pretend = 0, frame = 0
 185              		@ frame_needed = 0, uses_anonymous_args = 0
 186 0000 10B5     		push	{r4, lr}
 187              		.cfi_def_cfa_offset 8
 188              		.cfi_offset 4, -8
 189              		.cfi_offset 14, -4
 166:AudioControl.c ****     /* USBFS_frequencyChanged is set by the USB component when a setup token for Sampling frequency
 167:AudioControl.c ****      * It takes sometime for the host to actually send the Out token containing the updated samplin
 168:AudioControl.c ****      * Wait for USBFS_transferState to be equal to USBFS_TRANS_STATE_IDLE to make sure the updated 
 169:AudioControl.c ****      * is used for setting audio clocks */
 170:AudioControl.c ****      
 171:AudioControl.c ****     if((USBFS_TRANS_STATE_IDLE == USBFS_transferState) && USBFS_frequencyChanged)
 190              		.loc 1 171 0
 191 0002 394B     		ldr	r3, .L16
 192 0004 1B78     		ldrb	r3, [r3]
 193 0006 002B     		cmp	r3, #0
 194 0008 6DD1     		bne	.L10
 195              		.loc 1 171 0 is_stmt 0 discriminator 1
 196 000a 384B     		ldr	r3, .L16+4
 197 000c 1B78     		ldrb	r3, [r3]
 198 000e 002B     		cmp	r3, #0
 199 0010 69D0     		beq	.L10
 172:AudioControl.c ****     {		
 173:AudioControl.c ****         if(((!inPlaying) && (!outPlaying)) && ((AUDIO_OUT_ENDPOINT == USBFS_frequencyChanged)		
 200              		.loc 1 173 0 is_stmt 1
 201 0012 374B     		ldr	r3, .L16+8
 202 0014 1B78     		ldrb	r3, [r3]
 203 0016 002B     		cmp	r3, #0
 204 0018 62D1     		bne	.L12
 205              		.loc 1 173 0 is_stmt 0 discriminator 1
 206 001a 364B     		ldr	r3, .L16+12
 207 001c 1B78     		ldrb	r3, [r3]
 208 001e 002B     		cmp	r3, #0
 209 0020 5ED1     		bne	.L12
 210              		.loc 1 173 0 discriminator 2
 211 0022 324B     		ldr	r3, .L16+4
 212 0024 1B78     		ldrb	r3, [r3]
 213 0026 012B     		cmp	r3, #1
 214 0028 03D0     		beq	.L13
 174:AudioControl.c ****              || (AUDIO_IN_ENDPOINT == USBFS_frequencyChanged)))
 215              		.loc 1 174 0 is_stmt 1
 216 002a 304B     		ldr	r3, .L16+4
 217 002c 1B78     		ldrb	r3, [r3]
 218 002e 022B     		cmp	r3, #2
 219 0030 56D1     		bne	.L12
 220              	.L13:
 221              	.LBB2:
 175:AudioControl.c ****         {
 176:AudioControl.c ****             uint32 newFrequency;
 177:AudioControl.c ****                         
 178:AudioControl.c ****             newFrequency = (((uint32)USBFS_currentSampleFrequency[USBFS_frequencyChanged][2] << 16)
ARM GAS  C:\Users\TERENC~1\AppData\Local\Temp\ccJXBeAp.s 			page 8


 222              		.loc 1 178 0
 223 0032 2E49     		ldr	r1, .L16+4
 224 0034 0B78     		ldrb	r3, [r1]
 225 0036 DBB2     		uxtb	r3, r3
 226 0038 2F48     		ldr	r0, .L16+16
 227 003a 5A00     		lsls	r2, r3, #1
 228 003c D318     		adds	r3, r2, r3
 229 003e C318     		adds	r3, r0, r3
 230 0040 9A78     		ldrb	r2, [r3, #2]
 231 0042 1204     		lsls	r2, r2, #16
 179:AudioControl.c ****                               ((uint32)USBFS_currentSampleFrequency[USBFS_frequencyChanged][1] << 8
 232              		.loc 1 179 0
 233 0044 0B78     		ldrb	r3, [r1]
 234 0046 DBB2     		uxtb	r3, r3
 235 0048 5C00     		lsls	r4, r3, #1
 236 004a E318     		adds	r3, r4, r3
 237 004c C318     		adds	r3, r0, r3
 238 004e 5B78     		ldrb	r3, [r3, #1]
 239 0050 1B02     		lsls	r3, r3, #8
 178:AudioControl.c ****                               ((uint32)USBFS_currentSampleFrequency[USBFS_frequencyChanged][1] << 8
 240              		.loc 1 178 0
 241 0052 1A43     		orrs	r2, r3
 180:AudioControl.c ****                               ((uint32)USBFS_currentSampleFrequency[USBFS_frequencyChanged][0]));
 242              		.loc 1 180 0
 243 0054 0B78     		ldrb	r3, [r1]
 244 0056 DBB2     		uxtb	r3, r3
 245 0058 5C00     		lsls	r4, r3, #1
 246 005a E318     		adds	r3, r4, r3
 247 005c 1B5C     		ldrb	r3, [r3, r0]
 178:AudioControl.c ****                               ((uint32)USBFS_currentSampleFrequency[USBFS_frequencyChanged][1] << 8
 248              		.loc 1 178 0
 249 005e 1A43     		orrs	r2, r3
 250              	.LVL20:
 181:AudioControl.c **** 
 182:AudioControl.c **** 			USBFS_frequencyChanged = 0;
 251              		.loc 1 182 0
 252 0060 0023     		movs	r3, #0
 253 0062 0B70     		strb	r3, [r1]
 183:AudioControl.c **** 			
 184:AudioControl.c ****             if(SAMPLING_RATE_48KHZ == newFrequency)
 254              		.loc 1 184 0
 255 0064 254B     		ldr	r3, .L16+20
 256 0066 9A42     		cmp	r2, r3
 257 0068 12D1     		bne	.L14
 185:AudioControl.c ****             {
 186:AudioControl.c ****                 newRate = RATE_48KHZ;
 258              		.loc 1 186 0
 259 006a 0021     		movs	r1, #0
 260 006c 244B     		ldr	r3, .L16+24
 261 006e 5970     		strb	r1, [r3, #1]
 187:AudioControl.c **** 				D_PRINTF(INFO, "Sampling Rate Change Request: 48 ksps: %lu\r\n", newFrequency);
 262              		.loc 1 187 0
 263 0070 244B     		ldr	r3, .L16+28
 264 0072 1B68     		ldr	r3, [r3]
 265 0074 002B     		cmp	r3, #0
 266 0076 21D0     		beq	.L15
 267              		.loc 1 187 0 is_stmt 0 discriminator 1
ARM GAS  C:\Users\TERENC~1\AppData\Local\Temp\ccJXBeAp.s 			page 9


 268 0078 5B7C     		ldrb	r3, [r3, #17]
 269 007a 9B07     		lsls	r3, r3, #30
 270 007c 1ED5     		bpl	.L15
 271              		.loc 1 187 0 discriminator 2
 272 007e 224C     		ldr	r4, .L16+32
 273 0080 2249     		ldr	r1, .L16+36
 274 0082 2000     		movs	r0, r4
 275 0084 FFF7FEFF 		bl	sprintf
 276              	.LVL21:
 277 0088 2000     		movs	r0, r4
 278 008a FFF7FEFF 		bl	UART_UartPutString
 279              	.LVL22:
 280 008e 15E0     		b	.L15
 281              	.LVL23:
 282              	.L14:
 188:AudioControl.c ****             }
 189:AudioControl.c ****             else if(SAMPLING_RATE_44KHZ == newFrequency)
 283              		.loc 1 189 0 is_stmt 1
 284 0090 1F4B     		ldr	r3, .L16+40
 285 0092 9A42     		cmp	r2, r3
 286 0094 12D1     		bne	.L15
 190:AudioControl.c ****             {
 191:AudioControl.c ****                 newRate = RATE_44KHZ;
 287              		.loc 1 191 0
 288 0096 0122     		movs	r2, #1
 289              	.LVL24:
 290 0098 194B     		ldr	r3, .L16+24
 291 009a 5A70     		strb	r2, [r3, #1]
 192:AudioControl.c **** 				D_PRINTF(INFO, "Sampling Rate Change Request: 44.1 ksps \r\n");
 292              		.loc 1 192 0
 293 009c 194B     		ldr	r3, .L16+28
 294 009e 1B68     		ldr	r3, [r3]
 295 00a0 002B     		cmp	r3, #0
 296 00a2 0BD0     		beq	.L15
 297              		.loc 1 192 0 is_stmt 0 discriminator 1
 298 00a4 5B7C     		ldrb	r3, [r3, #17]
 299 00a6 9B07     		lsls	r3, r3, #30
 300 00a8 08D5     		bpl	.L15
 301              		.loc 1 192 0 discriminator 2
 302 00aa 174C     		ldr	r4, .L16+32
 303 00ac 2A32     		adds	r2, r2, #42
 304 00ae 1949     		ldr	r1, .L16+44
 305 00b0 2000     		movs	r0, r4
 306 00b2 FFF7FEFF 		bl	memcpy
 307              	.LVL25:
 308 00b6 2000     		movs	r0, r4
 309 00b8 FFF7FEFF 		bl	UART_UartPutString
 310              	.LVL26:
 311              	.L15:
 193:AudioControl.c ****             }
 194:AudioControl.c ****                 
 195:AudioControl.c ****             if(setRate != newRate)
 312              		.loc 1 195 0 is_stmt 1
 313 00bc 164B     		ldr	r3, .L16+48
 314 00be 1A78     		ldrb	r2, [r3]
 315 00c0 0F4B     		ldr	r3, .L16+24
 316 00c2 5B78     		ldrb	r3, [r3, #1]
ARM GAS  C:\Users\TERENC~1\AppData\Local\Temp\ccJXBeAp.s 			page 10


 317 00c4 9A42     		cmp	r2, r3
 318 00c6 0ED0     		beq	.L10
 196:AudioControl.c ****             {   
 197:AudioControl.c ****                 setRate = newRate;				
 319              		.loc 1 197 0
 320 00c8 134C     		ldr	r4, .L16+48
 321 00ca 2370     		strb	r3, [r4]
 198:AudioControl.c **** 				processAsyncFeedbackTransfer(DO_NOT_CLEAR_UPDATE_FLAG);
 322              		.loc 1 198 0
 323 00cc 0020     		movs	r0, #0
 324 00ce FFF7FEFF 		bl	processAsyncFeedbackTransfer
 325              	.LVL27:
 199:AudioControl.c ****                 
 200:AudioControl.c ****                 SetClockRate(setRate);
 326              		.loc 1 200 0
 327 00d2 2078     		ldrb	r0, [r4]
 328 00d4 FFF7FEFF 		bl	SetClockRate
 329              	.LVL28:
 201:AudioControl.c ****                                 
 202:AudioControl.c **** 				asyncready = TRUE;
 330              		.loc 1 202 0
 331 00d8 0122     		movs	r2, #1
 332 00da 104B     		ldr	r3, .L16+52
 333 00dc 1A70     		strb	r2, [r3]
 334 00de 02E0     		b	.L10
 335              	.L12:
 336              	.LBE2:
 203:AudioControl.c ****             }            
 204:AudioControl.c ****         }        
 205:AudioControl.c ****         else
 206:AudioControl.c ****         {
 207:AudioControl.c ****             /* If another frequency change request is received when one of the audio stream is stil
 208:AudioControl.c ****              * frequency change request */
 209:AudioControl.c ****             USBFS_frequencyChanged = 0;
 337              		.loc 1 209 0
 338 00e0 0022     		movs	r2, #0
 339 00e2 024B     		ldr	r3, .L16+4
 340 00e4 1A70     		strb	r2, [r3]
 341              	.L10:
 210:AudioControl.c ****         }
 211:AudioControl.c ****         
 212:AudioControl.c ****     }
 213:AudioControl.c **** }
 342              		.loc 1 213 0
 343              		@ sp needed
 344 00e6 10BD     		pop	{r4, pc}
 345              	.L17:
 346              		.align	2
 347              	.L16:
 348 00e8 00000000 		.word	USBFS_transferState
 349 00ec 00000000 		.word	USBFS_frequencyChanged
 350 00f0 00000000 		.word	inPlaying
 351 00f4 00000000 		.word	outPlaying
 352 00f8 00000000 		.word	USBFS_currentSampleFrequency
 353 00fc 80BB0000 		.word	48000
 354 0100 00000000 		.word	.LANCHOR0
 355 0104 00000000 		.word	cal_data
ARM GAS  C:\Users\TERENC~1\AppData\Local\Temp\ccJXBeAp.s 			page 11


 356 0108 00000000 		.word	gbuf
 357 010c 00000000 		.word	.LC8
 358 0110 44AC0000 		.word	44100
 359 0114 30000000 		.word	.LC11
 360 0118 00000000 		.word	.LANCHOR1
 361 011c 00000000 		.word	asyncready
 362              		.cfi_endproc
 363              	.LFE357:
 364              		.size	HandleSamplingFrequencyChangeRequest, .-HandleSamplingFrequencyChangeRequest
 365              		.global	setRate
 366              		.global	audioClkConfigured
 367              		.global	newRate
 368              		.data
 369              		.set	.LANCHOR1,. + 0
 370              		.type	setRate, %object
 371              		.size	setRate, 1
 372              	setRate:
 373 0000 FF       		.byte	-1
 374              		.section	.rodata.str1.4,"aMS",%progbits,1
 375              		.align	2
 376              	.LC8:
 377 0000 53616D70 		.ascii	"Sampling Rate Change Request: 48 ksps: %lu\015\012\000"
 377      6C696E67 
 377      20526174 
 377      65204368 
 377      616E6765 
 378 002d 000000   		.space	3
 379              	.LC11:
 380 0030 53616D70 		.ascii	"Sampling Rate Change Request: 44.1 ksps \015\012\000"
 380      6C696E67 
 380      20526174 
 380      65204368 
 380      616E6765 
 381              		.bss
 382              		.set	.LANCHOR0,. + 0
 383              		.type	audioClkConfigured, %object
 384              		.size	audioClkConfigured, 1
 385              	audioClkConfigured:
 386 0000 00       		.space	1
 387              		.type	newRate, %object
 388              		.size	newRate, 1
 389              	newRate:
 390 0001 00       		.space	1
 391              		.text
 392              	.Letext0:
 393              		.file 2 "Generated_Source\\PSoC4/cytypes.h"
 394              		.file 3 "./Calibration.h"
 395              		.file 4 "./Application.h"
 396              		.file 5 "Generated_Source\\PSoC4/USBFS.h"
 397              		.file 6 "Generated_Source\\PSoC4/USBFS_audio.h"
 398              		.file 7 "Generated_Source\\PSoC4/AudioClkSel.h"
 399              		.file 8 "Generated_Source\\PSoC4/CyDMA.h"
 400              		.file 9 "./AudioIn.h"
 401              		.file 10 "./AudioOut.h"
 402              		.file 11 "./Codec.h"
 403              		.file 12 "Generated_Source\\PSoC4/CyLib.h"
 404              		.file 13 "c:\\program files (x86)\\cypress\\psoc creator\\4.2\\psoc creator\\import\\gnu\\arm\\5.4
ARM GAS  C:\Users\TERENC~1\AppData\Local\Temp\ccJXBeAp.s 			page 12


 405              		.file 14 "Generated_Source\\PSoC4/UART_SPI_UART.h"
 406              		.file 15 "./USBInterface.h"