ARM GAS  C:\Users\TERENC~1\AppData\Local\Temp\cc4CEKtx.s 			page 1


   1              		.syntax unified
   2              		.cpu cortex-m0
   3              		.fpu softvfp
   4              		.eabi_attribute 20, 1
   5              		.eabi_attribute 21, 1
   6              		.eabi_attribute 23, 3
   7              		.eabi_attribute 24, 1
   8              		.eabi_attribute 25, 1
   9              		.eabi_attribute 26, 1
  10              		.eabi_attribute 30, 1
  11              		.eabi_attribute 34, 0
  12              		.eabi_attribute 18, 4
  13              		.thumb
  14              		.syntax unified
  15              		.file	"AudioManager.c"
  16              		.text
  17              	.Ltext0:
  18              		.cfi_sections	.debug_frame
  19              		.section	.text.i2s_tx_dma_done,"ax",%progbits
  20              		.align	2
  21              		.global	i2s_tx_dma_done
  22              		.code	16
  23              		.thumb_func
  24              		.type	i2s_tx_dma_done, %function
  25              	i2s_tx_dma_done:
  26              	.LFB34:
  27              		.file 1 "AudioManager.c"
   1:AudioManager.c **** /* ========================================
   2:AudioManager.c ****  *
   3:AudioManager.c ****  * Copyright YOUR COMPANY, THE YEAR
   4:AudioManager.c ****  * All Rights Reserved
   5:AudioManager.c ****  * UNPUBLISHED, LICENSED SOFTWARE.
   6:AudioManager.c ****  *
   7:AudioManager.c ****  * CONFIDENTIAL AND PROPRIETARY INFORMATION
   8:AudioManager.c ****  * WHICH IS THE PROPERTY OF your company.
   9:AudioManager.c ****  *
  10:AudioManager.c ****  * ========================================
  11:AudioManager.c **** */
  12:AudioManager.c **** #include <AudioManager.h>
  13:AudioManager.c **** #include <Codec.h>
  14:AudioManager.c **** #include <CodecI2CM.h>
  15:AudioManager.c **** #include <Application.h>
  16:AudioManager.c **** #include <I2S.h>
  17:AudioManager.c **** #include <AudioClkSel.h>
  18:AudioManager.c **** #include <TxDMA.h>
  19:AudioManager.c **** #include <isr_TxDMADone.h>
  20:AudioManager.c **** #include <math.h>
  21:AudioManager.c **** 
  22:AudioManager.c **** #define PI 3.14159
  23:AudioManager.c **** 
  24:AudioManager.c **** volatile uint32_t audioEvents;
  25:AudioManager.c **** 
  26:AudioManager.c **** #define SAMPLERATE_HZ 48000  // The sample rate of the audio.  Higher sample rates have better fide
  27:AudioManager.c ****                              // but these tones are so simple it won't make a difference.  44.1khz 
  28:AudioManager.c ****                              // standard CD quality sound.
  29:AudioManager.c **** 
  30:AudioManager.c **** #define AMPLITUDE     ((1<<23)-1)   // Set the amplitude of generated waveforms.  This controls how
ARM GAS  C:\Users\TERENC~1\AppData\Local\Temp\cc4CEKtx.s 			page 2


  31:AudioManager.c ****                              // the signals are, and can be any value from 0 to 2**31 - 1.  Start w
  32:AudioManager.c ****                              // a low value to prevent damaging speakers!
  33:AudioManager.c **** 
  34:AudioManager.c **** #define WAV_SIZE      1024    // The size of each generated waveform.  The larger the size the high
  35:AudioManager.c ****                              // quality the signal.  A size of 256 is more than enough for these si
  36:AudioManager.c ****                              // waveforms.
  37:AudioManager.c **** 
  38:AudioManager.c **** 
  39:AudioManager.c **** // Define the frequency of music notes (from http://www.phy.mtu.edu/~suits/notefreqs.html):
  40:AudioManager.c **** #define C4_HZ      261.63
  41:AudioManager.c **** #define D4_HZ      293.66
  42:AudioManager.c **** #define E4_HZ      329.63
  43:AudioManager.c **** #define F4_HZ      349.23
  44:AudioManager.c **** #define G4_HZ      392.00
  45:AudioManager.c **** #define A4_HZ      440.00
  46:AudioManager.c **** #define B4_HZ      493.88
  47:AudioManager.c **** 
  48:AudioManager.c **** // Define a C-major scale to play all the notes up and down.
  49:AudioManager.c **** float scale[] = { C4_HZ, D4_HZ, E4_HZ, F4_HZ, G4_HZ, A4_HZ, B4_HZ, A4_HZ, G4_HZ, F4_HZ, E4_HZ, D4_H
  50:AudioManager.c **** 
  51:AudioManager.c **** // Store basic waveforms in memory.
  52:AudioManager.c **** int32_t sine[WAV_SIZE]     = {0};
  53:AudioManager.c **** int32_t sawtooth[WAV_SIZE] = {0};
  54:AudioManager.c **** int32_t triangle[WAV_SIZE] = {0};
  55:AudioManager.c **** int32_t square[WAV_SIZE]   = {0};
  56:AudioManager.c **** 
  57:AudioManager.c **** 
  58:AudioManager.c **** #define OUT_BUFSIZE (WAV_SIZE * 6)
  59:AudioManager.c **** uint8 outBuffer[OUT_BUFSIZE];
  60:AudioManager.c **** 
  61:AudioManager.c **** CY_ISR(i2s_tx_dma_done)
  62:AudioManager.c **** {
  28              		.loc 1 62 0
  29              		.cfi_startproc
  30              		@ args = 0, pretend = 0, frame = 0
  31              		@ frame_needed = 0, uses_anonymous_args = 0
  32              		@ link register save eliminated.
  63:AudioManager.c ****   audioSetEvents(AUDIO_EVENTS_I2S_TX_DMA_DONE);
  33              		.loc 1 63 0
  34 0000 024A     		ldr	r2, .L2
  35 0002 1168     		ldr	r1, [r2]
  36 0004 0123     		movs	r3, #1
  37 0006 0B43     		orrs	r3, r1
  38 0008 1360     		str	r3, [r2]
  64:AudioManager.c **** }
  39              		.loc 1 64 0
  40              		@ sp needed
  41 000a 7047     		bx	lr
  42              	.L3:
  43              		.align	2
  44              	.L2:
  45 000c 00000000 		.word	audioEvents
  46              		.cfi_endproc
  47              	.LFE34:
  48              		.size	i2s_tx_dma_done, .-i2s_tx_dma_done
  49              		.section	.text.generateSine,"ax",%progbits
  50              		.align	2
ARM GAS  C:\Users\TERENC~1\AppData\Local\Temp\cc4CEKtx.s 			page 3


  51              		.global	generateSine
  52              		.code	16
  53              		.thumb_func
  54              		.type	generateSine, %function
  55              	generateSine:
  56              	.LFB35:
  65:AudioManager.c **** 
  66:AudioManager.c **** void generateSine(int32_t amplitude, int32_t* buffer, uint16_t length) {
  57              		.loc 1 66 0
  58              		.cfi_startproc
  59              		@ args = 0, pretend = 0, frame = 0
  60              		@ frame_needed = 0, uses_anonymous_args = 0
  61              		@ link register save eliminated.
  62              	.LVL0:
  63              	.LBB15:
  67:AudioManager.c ****   // Generate a sine wave signal with the provided amplitude and store it in
  68:AudioManager.c ****   // the provided buffer of size length.
  69:AudioManager.c ****   for (int i=0; i<length; ++i) {
  64              		.loc 1 69 0
  65 0000 0023     		movs	r3, #0
  66 0002 00E0     		b	.L5
  67              	.LVL1:
  68              	.L6:
  69              		.loc 1 69 0 is_stmt 0 discriminator 3
  70 0004 0133     		adds	r3, r3, #1
  71              	.LVL2:
  72              	.L5:
  73              		.loc 1 69 0 discriminator 1
  74 0006 9342     		cmp	r3, r2
  75 0008 FCDB     		blt	.L6
  76              	.LBE15:
  70:AudioManager.c **** //    buffer[i] = (int32_t)((float)(amplitude)*sin(2.0*PI*(1.0/length)*i));
  71:AudioManager.c ****   }
  72:AudioManager.c **** }
  77              		.loc 1 72 0 is_stmt 1
  78              		@ sp needed
  79 000a 7047     		bx	lr
  80              		.cfi_endproc
  81              	.LFE35:
  82              		.size	generateSine, .-generateSine
  83              		.global	__aeabi_i2f
  84              		.global	__aeabi_ui2f
  85              		.global	__aeabi_fdiv
  86              		.global	__aeabi_fmul
  87              		.global	__aeabi_fadd
  88              		.global	__aeabi_f2iz
  89              		.section	.text.generateSawtooth,"ax",%progbits
  90              		.align	2
  91              		.global	generateSawtooth
  92              		.code	16
  93              		.thumb_func
  94              		.type	generateSawtooth, %function
  95              	generateSawtooth:
  96              	.LFB36:
  73:AudioManager.c **** void generateSawtooth(int32_t amplitude, int32_t* buffer, uint16_t length) {
  97              		.loc 1 73 0
  98              		.cfi_startproc
ARM GAS  C:\Users\TERENC~1\AppData\Local\Temp\cc4CEKtx.s 			page 4


  99              		@ args = 0, pretend = 0, frame = 8
 100              		@ frame_needed = 0, uses_anonymous_args = 0
 101              	.LVL3:
 102 0000 F0B5     		push	{r4, r5, r6, r7, lr}
 103              		.cfi_def_cfa_offset 20
 104              		.cfi_offset 4, -20
 105              		.cfi_offset 5, -16
 106              		.cfi_offset 6, -12
 107              		.cfi_offset 7, -8
 108              		.cfi_offset 14, -4
 109 0002 5F46     		mov	r7, fp
 110 0004 4646     		mov	r6, r8
 111 0006 C0B4     		push	{r6, r7}
 112              		.cfi_def_cfa_offset 28
 113              		.cfi_offset 8, -28
 114              		.cfi_offset 11, -24
 115 0008 83B0     		sub	sp, sp, #12
 116              		.cfi_def_cfa_offset 40
 117 000a 0600     		movs	r6, r0
 118 000c 8B46     		mov	fp, r1
 119 000e 1700     		movs	r7, r2
  74:AudioManager.c ****   // Generate a sawtooth signal that goes from -amplitude/2 to amplitude/2
  75:AudioManager.c ****   // and store it in the provided buffer of size length.
  76:AudioManager.c ****   float delta = (float)(amplitude)/(float)(length);
 120              		.loc 1 76 0
 121 0010 FFF7FEFF 		bl	__aeabi_i2f
 122              	.LVL4:
 123 0014 041C     		adds	r4, r0, #0
 124 0016 3800     		movs	r0, r7
 125 0018 FFF7FEFF 		bl	__aeabi_ui2f
 126              	.LVL5:
 127 001c 011C     		adds	r1, r0, #0
 128 001e 201C     		adds	r0, r4, #0
 129 0020 FFF7FEFF 		bl	__aeabi_fdiv
 130              	.LVL6:
 131 0024 0190     		str	r0, [sp, #4]
 132              	.LVL7:
 133              	.LBB16:
  77:AudioManager.c ****   for (int i=0; i<length; ++i) {
 134              		.loc 1 77 0
 135 0026 0025     		movs	r5, #0
 136 0028 18E0     		b	.L8
 137              	.LVL8:
 138              	.L9:
  78:AudioManager.c ****     buffer[i] = -(amplitude/2)+delta*i;
 139              		.loc 1 78 0 discriminator 3
 140 002a AB00     		lsls	r3, r5, #2
 141 002c 5B44     		add	r3, r3, fp
 142 002e 9846     		mov	r8, r3
 143 0030 F40F     		lsrs	r4, r6, #31
 144 0032 A419     		adds	r4, r4, r6
 145 0034 6410     		asrs	r4, r4, #1
 146 0036 6442     		rsbs	r4, r4, #0
 147 0038 2800     		movs	r0, r5
 148 003a FFF7FEFF 		bl	__aeabi_i2f
 149              	.LVL9:
 150 003e 0199     		ldr	r1, [sp, #4]
ARM GAS  C:\Users\TERENC~1\AppData\Local\Temp\cc4CEKtx.s 			page 5


 151 0040 FFF7FEFF 		bl	__aeabi_fmul
 152              	.LVL10:
 153 0044 0090     		str	r0, [sp]
 154 0046 2000     		movs	r0, r4
 155 0048 FFF7FEFF 		bl	__aeabi_i2f
 156              	.LVL11:
 157 004c 0099     		ldr	r1, [sp]
 158 004e FFF7FEFF 		bl	__aeabi_fadd
 159              	.LVL12:
 160 0052 FFF7FEFF 		bl	__aeabi_f2iz
 161              	.LVL13:
 162 0056 4346     		mov	r3, r8
 163 0058 1860     		str	r0, [r3]
  77:AudioManager.c ****   for (int i=0; i<length; ++i) {
 164              		.loc 1 77 0 discriminator 3
 165 005a 0135     		adds	r5, r5, #1
 166              	.LVL14:
 167              	.L8:
  77:AudioManager.c ****   for (int i=0; i<length; ++i) {
 168              		.loc 1 77 0 is_stmt 0 discriminator 1
 169 005c BD42     		cmp	r5, r7
 170 005e E4DB     		blt	.L9
 171              	.LBE16:
  79:AudioManager.c ****   }
  80:AudioManager.c **** }
 172              		.loc 1 80 0 is_stmt 1
 173 0060 03B0     		add	sp, sp, #12
 174              		@ sp needed
 175              	.LVL15:
 176              	.LVL16:
 177              	.LVL17:
 178 0062 0CBC     		pop	{r2, r3}
 179 0064 9046     		mov	r8, r2
 180 0066 9B46     		mov	fp, r3
 181 0068 F0BD     		pop	{r4, r5, r6, r7, pc}
 182              		.cfi_endproc
 183              	.LFE36:
 184              		.size	generateSawtooth, .-generateSawtooth
 185              		.global	__aeabi_fsub
 186 006a C046     		.section	.text.generateTriangle,"ax",%progbits
 187              		.align	2
 188              		.global	generateTriangle
 189              		.code	16
 190              		.thumb_func
 191              		.type	generateTriangle, %function
 192              	generateTriangle:
 193              	.LFB37:
  81:AudioManager.c **** 
  82:AudioManager.c **** void generateTriangle(int32_t amplitude, int32_t* buffer, uint16_t length) {
 194              		.loc 1 82 0
 195              		.cfi_startproc
 196              		@ args = 0, pretend = 0, frame = 8
 197              		@ frame_needed = 0, uses_anonymous_args = 0
 198              	.LVL18:
 199 0000 F0B5     		push	{r4, r5, r6, r7, lr}
 200              		.cfi_def_cfa_offset 20
 201              		.cfi_offset 4, -20
ARM GAS  C:\Users\TERENC~1\AppData\Local\Temp\cc4CEKtx.s 			page 6


 202              		.cfi_offset 5, -16
 203              		.cfi_offset 6, -12
 204              		.cfi_offset 7, -8
 205              		.cfi_offset 14, -4
 206 0002 5F46     		mov	r7, fp
 207 0004 5646     		mov	r6, r10
 208 0006 4D46     		mov	r5, r9
 209 0008 E0B4     		push	{r5, r6, r7}
 210              		.cfi_def_cfa_offset 32
 211              		.cfi_offset 9, -32
 212              		.cfi_offset 10, -28
 213              		.cfi_offset 11, -24
 214 000a 82B0     		sub	sp, sp, #8
 215              		.cfi_def_cfa_offset 40
 216 000c 0600     		movs	r6, r0
 217 000e 8B46     		mov	fp, r1
 218 0010 9246     		mov	r10, r2
  83:AudioManager.c ****   // Generate a triangle wave signal with the provided amplitude and store it in
  84:AudioManager.c ****   // the provided buffer of size length.
  85:AudioManager.c ****   float delta = (float)(amplitude)/(float)(length);
 219              		.loc 1 85 0
 220 0012 FFF7FEFF 		bl	__aeabi_i2f
 221              	.LVL19:
 222 0016 041C     		adds	r4, r0, #0
 223 0018 5046     		mov	r0, r10
 224 001a FFF7FEFF 		bl	__aeabi_ui2f
 225              	.LVL20:
 226 001e 011C     		adds	r1, r0, #0
 227 0020 201C     		adds	r0, r4, #0
 228 0022 FFF7FEFF 		bl	__aeabi_fdiv
 229              	.LVL21:
 230 0026 0090     		str	r0, [sp]
 231              	.LVL22:
 232              	.LBB17:
  86:AudioManager.c ****   for (int i=0; i<length/2; ++i) {
 233              		.loc 1 86 0
 234 0028 0027     		movs	r7, #0
 235 002a 17E0     		b	.L11
 236              	.LVL23:
 237              	.L12:
  87:AudioManager.c ****     buffer[i] = -(amplitude/2)+delta*i;
 238              		.loc 1 87 0 discriminator 3
 239 002c BB00     		lsls	r3, r7, #2
 240 002e 5B44     		add	r3, r3, fp
 241 0030 1C00     		movs	r4, r3
 242 0032 F50F     		lsrs	r5, r6, #31
 243 0034 AD19     		adds	r5, r5, r6
 244 0036 6D10     		asrs	r5, r5, #1
 245 0038 6D42     		rsbs	r5, r5, #0
 246 003a 3800     		movs	r0, r7
 247 003c FFF7FEFF 		bl	__aeabi_i2f
 248              	.LVL24:
 249 0040 0099     		ldr	r1, [sp]
 250 0042 FFF7FEFF 		bl	__aeabi_fmul
 251              	.LVL25:
 252 0046 0190     		str	r0, [sp, #4]
 253 0048 2800     		movs	r0, r5
ARM GAS  C:\Users\TERENC~1\AppData\Local\Temp\cc4CEKtx.s 			page 7


 254 004a FFF7FEFF 		bl	__aeabi_i2f
 255              	.LVL26:
 256 004e 0199     		ldr	r1, [sp, #4]
 257 0050 FFF7FEFF 		bl	__aeabi_fadd
 258              	.LVL27:
 259 0054 FFF7FEFF 		bl	__aeabi_f2iz
 260              	.LVL28:
 261 0058 2060     		str	r0, [r4]
  86:AudioManager.c ****   for (int i=0; i<length/2; ++i) {
 262              		.loc 1 86 0 discriminator 3
 263 005a 0137     		adds	r7, r7, #1
 264              	.LVL29:
 265              	.L11:
  86:AudioManager.c ****   for (int i=0; i<length/2; ++i) {
 266              		.loc 1 86 0 is_stmt 0 discriminator 1
 267 005c 5346     		mov	r3, r10
 268 005e 5B08     		lsrs	r3, r3, #1
 269 0060 9946     		mov	r9, r3
 270 0062 9F42     		cmp	r7, r3
 271 0064 E2DB     		blt	.L12
 272 0066 1D00     		movs	r5, r3
 273 0068 17E0     		b	.L13
 274              	.LVL30:
 275              	.L14:
 276              	.LBE17:
 277              	.LBB18:
  88:AudioManager.c ****   }
  89:AudioManager.c ****     for (int i=length/2; i<length; ++i) {
  90:AudioManager.c ****     buffer[i] = (amplitude/2)-delta*(i-length/2);
 278              		.loc 1 90 0 is_stmt 1 discriminator 3
 279 006a AB00     		lsls	r3, r5, #2
 280 006c 5B44     		add	r3, r3, fp
 281 006e 1F00     		movs	r7, r3
 282 0070 F40F     		lsrs	r4, r6, #31
 283 0072 A419     		adds	r4, r4, r6
 284 0074 6410     		asrs	r4, r4, #1
 285 0076 4B46     		mov	r3, r9
 286 0078 E81A     		subs	r0, r5, r3
 287 007a FFF7FEFF 		bl	__aeabi_i2f
 288              	.LVL31:
 289 007e 0099     		ldr	r1, [sp]
 290 0080 FFF7FEFF 		bl	__aeabi_fmul
 291              	.LVL32:
 292 0084 0190     		str	r0, [sp, #4]
 293 0086 2000     		movs	r0, r4
 294 0088 FFF7FEFF 		bl	__aeabi_i2f
 295              	.LVL33:
 296 008c 0199     		ldr	r1, [sp, #4]
 297 008e FFF7FEFF 		bl	__aeabi_fsub
 298              	.LVL34:
 299 0092 FFF7FEFF 		bl	__aeabi_f2iz
 300              	.LVL35:
 301 0096 3860     		str	r0, [r7]
  89:AudioManager.c ****     buffer[i] = (amplitude/2)-delta*(i-length/2);
 302              		.loc 1 89 0 discriminator 3
 303 0098 0135     		adds	r5, r5, #1
 304              	.LVL36:
ARM GAS  C:\Users\TERENC~1\AppData\Local\Temp\cc4CEKtx.s 			page 8


 305              	.L13:
  89:AudioManager.c ****     buffer[i] = (amplitude/2)-delta*(i-length/2);
 306              		.loc 1 89 0 is_stmt 0 discriminator 1
 307 009a 5545     		cmp	r5, r10
 308 009c E5DB     		blt	.L14
 309              	.LBE18:
  91:AudioManager.c ****   }
  92:AudioManager.c **** }
 310              		.loc 1 92 0 is_stmt 1
 311 009e 02B0     		add	sp, sp, #8
 312              	.LVL37:
 313              		@ sp needed
 314              	.LVL38:
 315              	.LVL39:
 316              	.LVL40:
 317 00a0 1CBC     		pop	{r2, r3, r4}
 318 00a2 9146     		mov	r9, r2
 319 00a4 9A46     		mov	r10, r3
 320 00a6 A346     		mov	fp, r4
 321 00a8 F0BD     		pop	{r4, r5, r6, r7, pc}
 322              		.cfi_endproc
 323              	.LFE37:
 324              		.size	generateTriangle, .-generateTriangle
 325 00aa C046     		.section	.text.generateSquare,"ax",%progbits
 326              		.align	2
 327              		.global	generateSquare
 328              		.code	16
 329              		.thumb_func
 330              		.type	generateSquare, %function
 331              	generateSquare:
 332              	.LFB38:
  93:AudioManager.c **** 
  94:AudioManager.c **** void generateSquare(int32_t amplitude, int32_t* buffer, uint16_t length) {
 333              		.loc 1 94 0
 334              		.cfi_startproc
 335              		@ args = 0, pretend = 0, frame = 0
 336              		@ frame_needed = 0, uses_anonymous_args = 0
 337              	.LVL41:
 338 0000 30B5     		push	{r4, r5, lr}
 339              		.cfi_def_cfa_offset 12
 340              		.cfi_offset 4, -12
 341              		.cfi_offset 5, -8
 342              		.cfi_offset 14, -4
 343              	.LVL42:
 344              	.LBB19:
  95:AudioManager.c ****   // Generate a square wave signal with the provided amplitude and store it in
  96:AudioManager.c ****   // the provided buffer of size length.
  97:AudioManager.c ****   for (int i=0; i<length/2; ++i) {
 345              		.loc 1 97 0
 346 0002 0024     		movs	r4, #0
 347 0004 06E0     		b	.L16
 348              	.LVL43:
 349              	.L17:
  98:AudioManager.c ****     buffer[i] = -(amplitude/2);
 350              		.loc 1 98 0 discriminator 3
 351 0006 A500     		lsls	r5, r4, #2
 352 0008 C30F     		lsrs	r3, r0, #31
ARM GAS  C:\Users\TERENC~1\AppData\Local\Temp\cc4CEKtx.s 			page 9


 353 000a 1B18     		adds	r3, r3, r0
 354 000c 5B10     		asrs	r3, r3, #1
 355 000e 5B42     		rsbs	r3, r3, #0
 356 0010 4B51     		str	r3, [r1, r5]
  97:AudioManager.c ****     buffer[i] = -(amplitude/2);
 357              		.loc 1 97 0 discriminator 3
 358 0012 0134     		adds	r4, r4, #1
 359              	.LVL44:
 360              	.L16:
  97:AudioManager.c ****     buffer[i] = -(amplitude/2);
 361              		.loc 1 97 0 is_stmt 0 discriminator 1
 362 0014 5308     		lsrs	r3, r2, #1
 363 0016 9C42     		cmp	r4, r3
 364 0018 F5DB     		blt	.L17
 365 001a 05E0     		b	.L18
 366              	.LVL45:
 367              	.L19:
 368              	.LBE19:
 369              	.LBB20:
  99:AudioManager.c ****   }
 100:AudioManager.c ****     for (int i=length/2; i<length; ++i) {
 101:AudioManager.c ****     buffer[i] = (amplitude/2);
 370              		.loc 1 101 0 is_stmt 1 discriminator 3
 371 001c 9D00     		lsls	r5, r3, #2
 372 001e C40F     		lsrs	r4, r0, #31
 373 0020 2418     		adds	r4, r4, r0
 374 0022 6410     		asrs	r4, r4, #1
 375 0024 4C51     		str	r4, [r1, r5]
 100:AudioManager.c ****     buffer[i] = (amplitude/2);
 376              		.loc 1 100 0 discriminator 3
 377 0026 0133     		adds	r3, r3, #1
 378              	.LVL46:
 379              	.L18:
 100:AudioManager.c ****     buffer[i] = (amplitude/2);
 380              		.loc 1 100 0 is_stmt 0 discriminator 1
 381 0028 9342     		cmp	r3, r2
 382 002a F7DB     		blt	.L19
 383              	.LBE20:
 102:AudioManager.c ****   }
 103:AudioManager.c **** }
 384              		.loc 1 103 0 is_stmt 1
 385              		@ sp needed
 386 002c 30BD     		pop	{r4, r5, pc}
 387              		.cfi_endproc
 388              	.LFE38:
 389              		.size	generateSquare, .-generateSquare
 390 002e C046     		.section	.text.AudioManagerInit,"ax",%progbits
 391              		.align	2
 392              		.global	AudioManagerInit
 393              		.code	16
 394              		.thumb_func
 395              		.type	AudioManagerInit, %function
 396              	AudioManagerInit:
 397              	.LFB39:
 104:AudioManager.c **** 
 105:AudioManager.c **** void AudioManagerInit(void)
 106:AudioManager.c **** {
ARM GAS  C:\Users\TERENC~1\AppData\Local\Temp\cc4CEKtx.s 			page 10


 398              		.loc 1 106 0
 399              		.cfi_startproc
 400              		@ args = 0, pretend = 0, frame = 0
 401              		@ frame_needed = 0, uses_anonymous_args = 0
 402 0000 70B5     		push	{r4, r5, r6, lr}
 403              		.cfi_def_cfa_offset 16
 404              		.cfi_offset 4, -16
 405              		.cfi_offset 5, -12
 406              		.cfi_offset 6, -8
 407              		.cfi_offset 14, -4
 107:AudioManager.c ****   audioEvents = 0;
 408              		.loc 1 107 0
 409 0002 0022     		movs	r2, #0
 410 0004 2D4B     		ldr	r3, .L24
 411 0006 1A60     		str	r2, [r3]
 108:AudioManager.c ****       
 109:AudioManager.c ****   /* Set the default Audio clock rate to 48 kHz */
 110:AudioManager.c ****   AudioClkSel_Write(RATE_48KHZ);
 412              		.loc 1 110 0
 413 0008 0020     		movs	r0, #0
 414 000a FFF7FEFF 		bl	AudioClkSel_Write
 415              	.LVL47:
 111:AudioManager.c ****   
 112:AudioManager.c ****   /* Enable DMA */
 113:AudioManager.c ****   CyDmaEnable();
 416              		.loc 1 113 0
 417 000e FFF7FEFF 		bl	CyDmaEnable
 418              	.LVL48:
 114:AudioManager.c ****   
 115:AudioManager.c ****   TxDMA_Init();
 419              		.loc 1 115 0
 420 0012 FFF7FEFF 		bl	TxDMA_Init
 421              	.LVL49:
 422              	.LBB21:
 423              	.LBB22:
 424              		.file 2 "Generated_Source\\PSoC4/TxDMA.h"
   1:Generated_Source\PSoC4/TxDMA.h **** /*******************************************************************************
   2:Generated_Source\PSoC4/TxDMA.h **** * File Name: TxDMA.h
   3:Generated_Source\PSoC4/TxDMA.h **** * Version 1.0
   4:Generated_Source\PSoC4/TxDMA.h **** *
   5:Generated_Source\PSoC4/TxDMA.h **** * Description:
   6:Generated_Source\PSoC4/TxDMA.h **** *  This file provides DMA channel defines and API function definitions.
   7:Generated_Source\PSoC4/TxDMA.h **** *
   8:Generated_Source\PSoC4/TxDMA.h **** ********************************************************************************
   9:Generated_Source\PSoC4/TxDMA.h **** * Copyright 2015, Cypress Semiconductor Corporation. All rights reserved.
  10:Generated_Source\PSoC4/TxDMA.h **** * You may use this file only in accordance with the license, terms, conditions,
  11:Generated_Source\PSoC4/TxDMA.h **** * disclaimers, and limitations in the end user license agreement accompanying
  12:Generated_Source\PSoC4/TxDMA.h **** * the software package with which this file was provided.
  13:Generated_Source\PSoC4/TxDMA.h **** *******************************************************************************/
  14:Generated_Source\PSoC4/TxDMA.h **** 
  15:Generated_Source\PSoC4/TxDMA.h **** #ifndef CY_DMA_CHANNEL_TxDMA_H
  16:Generated_Source\PSoC4/TxDMA.h **** #define CY_DMA_CHANNEL_TxDMA_H
  17:Generated_Source\PSoC4/TxDMA.h **** 
  18:Generated_Source\PSoC4/TxDMA.h **** #include "CyDMA.h"
  19:Generated_Source\PSoC4/TxDMA.h **** 
  20:Generated_Source\PSoC4/TxDMA.h ****     
  21:Generated_Source\PSoC4/TxDMA.h **** /***************************************
ARM GAS  C:\Users\TERENC~1\AppData\Local\Temp\cc4CEKtx.s 			page 11


  22:Generated_Source\PSoC4/TxDMA.h **** *   Conditional Compilation Parameters
  23:Generated_Source\PSoC4/TxDMA.h **** ***************************************/
  24:Generated_Source\PSoC4/TxDMA.h **** 
  25:Generated_Source\PSoC4/TxDMA.h **** #define TxDMA_CHANNEL           (TxDMA__CHANNEL_NUMBER)
  26:Generated_Source\PSoC4/TxDMA.h **** #define TxDMA_CHANNEL_MASK      ((uint32)(1UL << TxDMA_CHANNEL))
  27:Generated_Source\PSoC4/TxDMA.h **** 
  28:Generated_Source\PSoC4/TxDMA.h **** 
  29:Generated_Source\PSoC4/TxDMA.h **** /***************************************
  30:Generated_Source\PSoC4/TxDMA.h **** *        Function Prototypes
  31:Generated_Source\PSoC4/TxDMA.h **** ***************************************/
  32:Generated_Source\PSoC4/TxDMA.h **** 
  33:Generated_Source\PSoC4/TxDMA.h **** /* Functions specific to this DMA channel */
  34:Generated_Source\PSoC4/TxDMA.h **** void TxDMA_Init(void);
  35:Generated_Source\PSoC4/TxDMA.h **** void TxDMA_Start(void * srcAddress, void * dstAddress);
  36:Generated_Source\PSoC4/TxDMA.h **** 
  37:Generated_Source\PSoC4/TxDMA.h **** /* Inline functions that call global API functions */
  38:Generated_Source\PSoC4/TxDMA.h **** static void   TxDMA_ChEnable(void);
  39:Generated_Source\PSoC4/TxDMA.h **** static void   TxDMA_ChDisable(void);
  40:Generated_Source\PSoC4/TxDMA.h **** static void   TxDMA_Trigger(void);
  41:Generated_Source\PSoC4/TxDMA.h **** static void   TxDMA_SetPriority(int32 priority);
  42:Generated_Source\PSoC4/TxDMA.h **** static int32  TxDMA_GetPriority(void);
  43:Generated_Source\PSoC4/TxDMA.h **** static void   TxDMA_SetNextDescriptor(int32 descriptor);
  44:Generated_Source\PSoC4/TxDMA.h **** static int32  TxDMA_GetNextDescriptor(void);
  45:Generated_Source\PSoC4/TxDMA.h **** static void   TxDMA_SetConfiguration(int32 descriptor, const cydma_init_struct * config);
  46:Generated_Source\PSoC4/TxDMA.h **** static void   TxDMA_ValidateDescriptor(int32 descriptor);
  47:Generated_Source\PSoC4/TxDMA.h **** static uint32 TxDMA_GetDescriptorStatus(int32 descriptor);
  48:Generated_Source\PSoC4/TxDMA.h **** static void   TxDMA_SetSrcAddress(int32 descriptor, void * srcAddress);
  49:Generated_Source\PSoC4/TxDMA.h **** static void * TxDMA_GetSrcAddress(int32 descriptor);
  50:Generated_Source\PSoC4/TxDMA.h **** static void   TxDMA_SetDstAddress(int32 descriptor, void * dstAddress);
  51:Generated_Source\PSoC4/TxDMA.h **** static void * TxDMA_GetDstAddress(int32 descriptor);
  52:Generated_Source\PSoC4/TxDMA.h **** static void   TxDMA_SetDataElementSize(int32 descriptor, uint32 dataElementSize);
  53:Generated_Source\PSoC4/TxDMA.h **** static uint32 TxDMA_GetDataElementSize(int32 descriptor);
  54:Generated_Source\PSoC4/TxDMA.h **** static void   TxDMA_SetNumDataElements(int32 descriptor, int32 numDataElements);
  55:Generated_Source\PSoC4/TxDMA.h **** static int32  TxDMA_GetNumDataElements(int32 descriptor);
  56:Generated_Source\PSoC4/TxDMA.h **** static void   TxDMA_SetSrcDstTransferWidth(int32 descriptor, uint32 transferWidth);
  57:Generated_Source\PSoC4/TxDMA.h **** static uint32 TxDMA_GetSrcDstTransferWidth(int32 descriptor);
  58:Generated_Source\PSoC4/TxDMA.h **** static void   TxDMA_SetAddressIncrement(int32 descriptor, uint32 addressIncrement);
  59:Generated_Source\PSoC4/TxDMA.h **** static uint32 TxDMA_GetAddressIncrement(int32 descriptor);
  60:Generated_Source\PSoC4/TxDMA.h **** static void   TxDMA_SetTriggerType(int32 descriptor, uint32 triggerType);
  61:Generated_Source\PSoC4/TxDMA.h **** static uint32 TxDMA_GetTriggerType(int32 descriptor);
  62:Generated_Source\PSoC4/TxDMA.h **** static void   TxDMA_SetTransferMode(int32 descriptor, uint32 transferMode);
  63:Generated_Source\PSoC4/TxDMA.h **** static uint32 TxDMA_GetTransferMode(int32 descriptor);
  64:Generated_Source\PSoC4/TxDMA.h **** static void   TxDMA_SetPreemptable(int32 descriptor, uint32 preemptable);
  65:Generated_Source\PSoC4/TxDMA.h **** static uint32 TxDMA_GetPreemptable(int32 descriptor);
  66:Generated_Source\PSoC4/TxDMA.h **** static void   TxDMA_SetPostCompletionActions(int32 descriptor, uint32 actions);
  67:Generated_Source\PSoC4/TxDMA.h **** static uint32 TxDMA_GetPostCompletionAction(int32 descriptor);
  68:Generated_Source\PSoC4/TxDMA.h **** static cydma_callback_t TxDMA_SetInterruptCallback(cydma_callback_t callback);
  69:Generated_Source\PSoC4/TxDMA.h **** static cydma_callback_t TxDMA_GetInterruptCallback(void);
  70:Generated_Source\PSoC4/TxDMA.h **** 
  71:Generated_Source\PSoC4/TxDMA.h **** 
  72:Generated_Source\PSoC4/TxDMA.h **** /*******************************************************************************
  73:Generated_Source\PSoC4/TxDMA.h **** * Function Name: TxDMA_ChEnable
  74:Generated_Source\PSoC4/TxDMA.h **** ********************************************************************************
  75:Generated_Source\PSoC4/TxDMA.h **** *
  76:Generated_Source\PSoC4/TxDMA.h **** * Summary:
  77:Generated_Source\PSoC4/TxDMA.h **** *  Enables the DMA channel. It is not necessary to call TxDMA_ChEnable()
  78:Generated_Source\PSoC4/TxDMA.h **** *  because the TxDMA_Start() API calls this function, which is the
ARM GAS  C:\Users\TERENC~1\AppData\Local\Temp\cc4CEKtx.s 			page 12


  79:Generated_Source\PSoC4/TxDMA.h **** *  preferred method to begin the component operation.
  80:Generated_Source\PSoC4/TxDMA.h **** *
  81:Generated_Source\PSoC4/TxDMA.h **** * Parameters:
  82:Generated_Source\PSoC4/TxDMA.h **** *  None.
  83:Generated_Source\PSoC4/TxDMA.h **** *                   
  84:Generated_Source\PSoC4/TxDMA.h **** * Return:
  85:Generated_Source\PSoC4/TxDMA.h **** *  None.
  86:Generated_Source\PSoC4/TxDMA.h **** *
  87:Generated_Source\PSoC4/TxDMA.h **** * Side effect:
  88:Generated_Source\PSoC4/TxDMA.h **** *  If this function is called before TxDMA_Start(), or TxDMA_Init()
  89:Generated_Source\PSoC4/TxDMA.h **** *  or TxDMA_SetConfiguration(), and TxDMA_SetSrcAddress()
  90:Generated_Source\PSoC4/TxDMA.h **** *  and TxDMA_SetDstAddress the operation of the DMA is 
  91:Generated_Source\PSoC4/TxDMA.h **** *  undefined and could result in system data corruption. 
  92:Generated_Source\PSoC4/TxDMA.h **** *
  93:Generated_Source\PSoC4/TxDMA.h **** *******************************************************************************/
  94:Generated_Source\PSoC4/TxDMA.h **** static CY_INLINE void TxDMA_ChEnable(void)
  95:Generated_Source\PSoC4/TxDMA.h **** {
  96:Generated_Source\PSoC4/TxDMA.h ****     CyDmaChEnable(TxDMA_CHANNEL);
  97:Generated_Source\PSoC4/TxDMA.h **** }
  98:Generated_Source\PSoC4/TxDMA.h **** 
  99:Generated_Source\PSoC4/TxDMA.h **** 
 100:Generated_Source\PSoC4/TxDMA.h **** /*******************************************************************************
 101:Generated_Source\PSoC4/TxDMA.h **** * Function Name: TxDMA_ChDisable
 102:Generated_Source\PSoC4/TxDMA.h **** ********************************************************************************
 103:Generated_Source\PSoC4/TxDMA.h **** *
 104:Generated_Source\PSoC4/TxDMA.h **** * Summary:
 105:Generated_Source\PSoC4/TxDMA.h **** *  Disables the DMA channel.
 106:Generated_Source\PSoC4/TxDMA.h **** *
 107:Generated_Source\PSoC4/TxDMA.h **** * Parameters:
 108:Generated_Source\PSoC4/TxDMA.h **** *  None.
 109:Generated_Source\PSoC4/TxDMA.h **** *                   
 110:Generated_Source\PSoC4/TxDMA.h **** * Return:
 111:Generated_Source\PSoC4/TxDMA.h **** *  None.
 112:Generated_Source\PSoC4/TxDMA.h **** *
 113:Generated_Source\PSoC4/TxDMA.h **** * Side effect:
 114:Generated_Source\PSoC4/TxDMA.h **** *  If this function is called during a DMA transfer the transfer is aborted. 
 115:Generated_Source\PSoC4/TxDMA.h **** *
 116:Generated_Source\PSoC4/TxDMA.h **** *******************************************************************************/
 117:Generated_Source\PSoC4/TxDMA.h **** static CY_INLINE void TxDMA_ChDisable(void)
 118:Generated_Source\PSoC4/TxDMA.h **** {
 119:Generated_Source\PSoC4/TxDMA.h ****     CyDmaChDisable(TxDMA_CHANNEL);
 120:Generated_Source\PSoC4/TxDMA.h **** }
 121:Generated_Source\PSoC4/TxDMA.h **** 
 122:Generated_Source\PSoC4/TxDMA.h **** 
 123:Generated_Source\PSoC4/TxDMA.h **** /*******************************************************************************
 124:Generated_Source\PSoC4/TxDMA.h **** * Function Name: TxDMA_Trigger
 125:Generated_Source\PSoC4/TxDMA.h **** ********************************************************************************
 126:Generated_Source\PSoC4/TxDMA.h **** *
 127:Generated_Source\PSoC4/TxDMA.h **** * Summary:
 128:Generated_Source\PSoC4/TxDMA.h **** *  Triggers the DMA channel, this is useful only for software triggers. This is
 129:Generated_Source\PSoC4/TxDMA.h **** *  not needed when hardware triggers are used.
 130:Generated_Source\PSoC4/TxDMA.h **** *
 131:Generated_Source\PSoC4/TxDMA.h **** * Parameters:
 132:Generated_Source\PSoC4/TxDMA.h **** *  None.
 133:Generated_Source\PSoC4/TxDMA.h **** *                   
 134:Generated_Source\PSoC4/TxDMA.h **** * Return:
 135:Generated_Source\PSoC4/TxDMA.h **** *  None. 
ARM GAS  C:\Users\TERENC~1\AppData\Local\Temp\cc4CEKtx.s 			page 13


 136:Generated_Source\PSoC4/TxDMA.h **** *
 137:Generated_Source\PSoC4/TxDMA.h **** *******************************************************************************/
 138:Generated_Source\PSoC4/TxDMA.h **** static CY_INLINE void TxDMA_Trigger(void)
 139:Generated_Source\PSoC4/TxDMA.h **** {
 140:Generated_Source\PSoC4/TxDMA.h ****     CyDmaTrigger(TxDMA_CHANNEL);
 141:Generated_Source\PSoC4/TxDMA.h **** }
 142:Generated_Source\PSoC4/TxDMA.h **** 
 143:Generated_Source\PSoC4/TxDMA.h **** 
 144:Generated_Source\PSoC4/TxDMA.h **** /*******************************************************************************
 145:Generated_Source\PSoC4/TxDMA.h **** * Function Name: TxDMA_SetPriority
 146:Generated_Source\PSoC4/TxDMA.h **** ********************************************************************************
 147:Generated_Source\PSoC4/TxDMA.h **** *
 148:Generated_Source\PSoC4/TxDMA.h **** * Summary:
 149:Generated_Source\PSoC4/TxDMA.h **** *  Sets the priority for the channel.
 150:Generated_Source\PSoC4/TxDMA.h **** *
 151:Generated_Source\PSoC4/TxDMA.h **** * Parameters:
 152:Generated_Source\PSoC4/TxDMA.h **** *  priority: Priority for channel. Priority can be 0,1,2, or 3.
 153:Generated_Source\PSoC4/TxDMA.h **** *            0 is the highest priority.
 154:Generated_Source\PSoC4/TxDMA.h **** *                   
 155:Generated_Source\PSoC4/TxDMA.h **** * Return:
 156:Generated_Source\PSoC4/TxDMA.h **** *  None.
 157:Generated_Source\PSoC4/TxDMA.h **** *
 158:Generated_Source\PSoC4/TxDMA.h **** * Side effect:
 159:Generated_Source\PSoC4/TxDMA.h **** *  This function should not be called while the channel is enabled.
 160:Generated_Source\PSoC4/TxDMA.h **** *
 161:Generated_Source\PSoC4/TxDMA.h **** *******************************************************************************/
 162:Generated_Source\PSoC4/TxDMA.h **** static CY_INLINE void TxDMA_SetPriority(int32 priority)
 163:Generated_Source\PSoC4/TxDMA.h **** {
 164:Generated_Source\PSoC4/TxDMA.h ****     CyDmaSetPriority(TxDMA_CHANNEL, priority);
 165:Generated_Source\PSoC4/TxDMA.h **** }
 166:Generated_Source\PSoC4/TxDMA.h **** 
 167:Generated_Source\PSoC4/TxDMA.h **** 
 168:Generated_Source\PSoC4/TxDMA.h **** /*******************************************************************************
 169:Generated_Source\PSoC4/TxDMA.h **** * Function Name: TxDMA_GetPriority
 170:Generated_Source\PSoC4/TxDMA.h **** ********************************************************************************
 171:Generated_Source\PSoC4/TxDMA.h **** *
 172:Generated_Source\PSoC4/TxDMA.h **** * Summary:
 173:Generated_Source\PSoC4/TxDMA.h **** *  Gets the priority for the channel.
 174:Generated_Source\PSoC4/TxDMA.h **** *
 175:Generated_Source\PSoC4/TxDMA.h **** * Parameters:
 176:Generated_Source\PSoC4/TxDMA.h **** *  None.
 177:Generated_Source\PSoC4/TxDMA.h **** *                   
 178:Generated_Source\PSoC4/TxDMA.h **** * Return:
 179:Generated_Source\PSoC4/TxDMA.h **** *  Priority for channel. Priority can be 0,1,2, or 3. 0 is the highest priority.
 180:Generated_Source\PSoC4/TxDMA.h **** *
 181:Generated_Source\PSoC4/TxDMA.h **** *******************************************************************************/
 182:Generated_Source\PSoC4/TxDMA.h **** static CY_INLINE int32 TxDMA_GetPriority(void)
 183:Generated_Source\PSoC4/TxDMA.h **** {
 184:Generated_Source\PSoC4/TxDMA.h ****     return (CyDmaGetPriority(TxDMA_CHANNEL));
 185:Generated_Source\PSoC4/TxDMA.h **** }
 186:Generated_Source\PSoC4/TxDMA.h **** 
 187:Generated_Source\PSoC4/TxDMA.h **** 
 188:Generated_Source\PSoC4/TxDMA.h **** /*******************************************************************************
 189:Generated_Source\PSoC4/TxDMA.h **** * Function Name: TxDMA_SetNextDescriptor
 190:Generated_Source\PSoC4/TxDMA.h **** ********************************************************************************
 191:Generated_Source\PSoC4/TxDMA.h **** *
 192:Generated_Source\PSoC4/TxDMA.h **** * Summary:
ARM GAS  C:\Users\TERENC~1\AppData\Local\Temp\cc4CEKtx.s 			page 14


 193:Generated_Source\PSoC4/TxDMA.h **** *  Sets the descriptor that should be run the next time the channel is
 194:Generated_Source\PSoC4/TxDMA.h **** *  triggered.
 195:Generated_Source\PSoC4/TxDMA.h **** *
 196:Generated_Source\PSoC4/TxDMA.h **** * Parameters:
 197:Generated_Source\PSoC4/TxDMA.h **** *  descriptor: Next Descriptor to run (0 or 1).
 198:Generated_Source\PSoC4/TxDMA.h **** *                   
 199:Generated_Source\PSoC4/TxDMA.h **** * Side effect:
 200:Generated_Source\PSoC4/TxDMA.h **** *  This function should not be called while the channel is enabled.
 201:Generated_Source\PSoC4/TxDMA.h **** *
 202:Generated_Source\PSoC4/TxDMA.h **** *******************************************************************************/
 203:Generated_Source\PSoC4/TxDMA.h **** static CY_INLINE void TxDMA_SetNextDescriptor(int32 descriptor)
 204:Generated_Source\PSoC4/TxDMA.h **** {
 205:Generated_Source\PSoC4/TxDMA.h ****     CyDmaSetNextDescriptor(TxDMA_CHANNEL, descriptor);
 206:Generated_Source\PSoC4/TxDMA.h **** }
 207:Generated_Source\PSoC4/TxDMA.h **** 
 208:Generated_Source\PSoC4/TxDMA.h **** 
 209:Generated_Source\PSoC4/TxDMA.h **** /*******************************************************************************
 210:Generated_Source\PSoC4/TxDMA.h **** * Function Name: TxDMA_GetNextDescriptor
 211:Generated_Source\PSoC4/TxDMA.h **** ********************************************************************************
 212:Generated_Source\PSoC4/TxDMA.h **** *
 213:Generated_Source\PSoC4/TxDMA.h **** * Summary:
 214:Generated_Source\PSoC4/TxDMA.h **** *  Returns the next descriptor that should be run, as set by 
 215:Generated_Source\PSoC4/TxDMA.h **** *  TxDMA_SetNextDescriptor().
 216:Generated_Source\PSoC4/TxDMA.h **** *
 217:Generated_Source\PSoC4/TxDMA.h **** * Parameters:
 218:Generated_Source\PSoC4/TxDMA.h **** *  None.
 219:Generated_Source\PSoC4/TxDMA.h **** *                   
 220:Generated_Source\PSoC4/TxDMA.h **** * Return:
 221:Generated_Source\PSoC4/TxDMA.h **** *  Next Descriptor to run (0 or 1).
 222:Generated_Source\PSoC4/TxDMA.h **** *
 223:Generated_Source\PSoC4/TxDMA.h **** *******************************************************************************/
 224:Generated_Source\PSoC4/TxDMA.h **** static CY_INLINE int32 TxDMA_GetNextDescriptor(void)
 225:Generated_Source\PSoC4/TxDMA.h **** {
 226:Generated_Source\PSoC4/TxDMA.h ****     return (CyDmaGetNextDescriptor(TxDMA_CHANNEL));
 227:Generated_Source\PSoC4/TxDMA.h **** }
 228:Generated_Source\PSoC4/TxDMA.h **** 
 229:Generated_Source\PSoC4/TxDMA.h **** 
 230:Generated_Source\PSoC4/TxDMA.h **** /*******************************************************************************
 231:Generated_Source\PSoC4/TxDMA.h **** * Function Name: TxDMA_SetConfiguration
 232:Generated_Source\PSoC4/TxDMA.h **** ********************************************************************************
 233:Generated_Source\PSoC4/TxDMA.h **** *
 234:Generated_Source\PSoC4/TxDMA.h **** * Summary:
 235:Generated_Source\PSoC4/TxDMA.h **** *  Sets configuration information for the specified descriptor.
 236:Generated_Source\PSoC4/TxDMA.h **** *
 237:Generated_Source\PSoC4/TxDMA.h **** * Parameters:
 238:Generated_Source\PSoC4/TxDMA.h **** *  descriptor: Descriptor (0 or 1) modified by this function.
 239:Generated_Source\PSoC4/TxDMA.h **** *  config: Pointer to a configuration structure. Refer to cydma_init_struct
 240:Generated_Source\PSoC4/TxDMA.h **** *          structure definition in CyDMA_P4.h or the component datasheet.
 241:Generated_Source\PSoC4/TxDMA.h **** *                   
 242:Generated_Source\PSoC4/TxDMA.h **** * Return:
 243:Generated_Source\PSoC4/TxDMA.h **** *  None.
 244:Generated_Source\PSoC4/TxDMA.h **** *
 245:Generated_Source\PSoC4/TxDMA.h **** * Side effect:
 246:Generated_Source\PSoC4/TxDMA.h **** *  The status register associated with the specified descriptor is reset to
 247:Generated_Source\PSoC4/TxDMA.h **** *  zero after this function call. This function also validates the descriptor.
 248:Generated_Source\PSoC4/TxDMA.h **** *  This function should not be called while the descriptor is active.
 249:Generated_Source\PSoC4/TxDMA.h **** *  This can be checked by calling CyDmaGetStatus().
ARM GAS  C:\Users\TERENC~1\AppData\Local\Temp\cc4CEKtx.s 			page 15


 250:Generated_Source\PSoC4/TxDMA.h **** *
 251:Generated_Source\PSoC4/TxDMA.h **** *******************************************************************************/
 252:Generated_Source\PSoC4/TxDMA.h **** static CY_INLINE void TxDMA_SetConfiguration(int32 descriptor, const cydma_init_struct * config)
 253:Generated_Source\PSoC4/TxDMA.h **** {
 254:Generated_Source\PSoC4/TxDMA.h ****     CyDmaSetConfiguration(TxDMA_CHANNEL, descriptor, config);
 255:Generated_Source\PSoC4/TxDMA.h **** }
 256:Generated_Source\PSoC4/TxDMA.h **** 
 257:Generated_Source\PSoC4/TxDMA.h **** 
 258:Generated_Source\PSoC4/TxDMA.h **** /*******************************************************************************
 259:Generated_Source\PSoC4/TxDMA.h **** * Function Name: TxDMA_ValidateDescriptor
 260:Generated_Source\PSoC4/TxDMA.h **** ********************************************************************************
 261:Generated_Source\PSoC4/TxDMA.h **** *
 262:Generated_Source\PSoC4/TxDMA.h **** * Summary:
 263:Generated_Source\PSoC4/TxDMA.h **** *  Validates the specified descriptor after it has been invalidated.
 264:Generated_Source\PSoC4/TxDMA.h **** *
 265:Generated_Source\PSoC4/TxDMA.h **** * Parameters:
 266:Generated_Source\PSoC4/TxDMA.h **** *  descriptor: Descriptor (0 or 1) modified by this function.
 267:Generated_Source\PSoC4/TxDMA.h **** *                   
 268:Generated_Source\PSoC4/TxDMA.h **** * Return:
 269:Generated_Source\PSoC4/TxDMA.h **** *  None. 
 270:Generated_Source\PSoC4/TxDMA.h **** *
 271:Generated_Source\PSoC4/TxDMA.h **** * Side effect:
 272:Generated_Source\PSoC4/TxDMA.h **** *  The status register associated with the specified descriptor is reset to
 273:Generated_Source\PSoC4/TxDMA.h **** *  zero after this function call. This function should not be called while the
 274:Generated_Source\PSoC4/TxDMA.h **** *  descriptor is active. This can be checked by calling CyDmaGetStatus().
 275:Generated_Source\PSoC4/TxDMA.h **** *
 276:Generated_Source\PSoC4/TxDMA.h **** *******************************************************************************/
 277:Generated_Source\PSoC4/TxDMA.h **** static CY_INLINE void TxDMA_ValidateDescriptor(int32 descriptor)
 278:Generated_Source\PSoC4/TxDMA.h **** {
 279:Generated_Source\PSoC4/TxDMA.h ****     CyDmaValidateDescriptor(TxDMA_CHANNEL, descriptor);
 280:Generated_Source\PSoC4/TxDMA.h **** }
 281:Generated_Source\PSoC4/TxDMA.h **** 
 282:Generated_Source\PSoC4/TxDMA.h **** 
 283:Generated_Source\PSoC4/TxDMA.h **** /*******************************************************************************
 284:Generated_Source\PSoC4/TxDMA.h **** * Function Name: TxDMA_GetDescriptorStatus
 285:Generated_Source\PSoC4/TxDMA.h **** ********************************************************************************
 286:Generated_Source\PSoC4/TxDMA.h **** *
 287:Generated_Source\PSoC4/TxDMA.h **** * Summary:
 288:Generated_Source\PSoC4/TxDMA.h **** *  Returns the status of the specified descriptor.
 289:Generated_Source\PSoC4/TxDMA.h **** *
 290:Generated_Source\PSoC4/TxDMA.h **** * Parameters:
 291:Generated_Source\PSoC4/TxDMA.h **** *  descriptor: Descriptor (0 or 1) modified by this function.
 292:Generated_Source\PSoC4/TxDMA.h **** *                   
 293:Generated_Source\PSoC4/TxDMA.h **** * Return:
 294:Generated_Source\PSoC4/TxDMA.h **** *  Returns the contents of the specified descriptors status register. Refer to 
 295:Generated_Source\PSoC4/TxDMA.h **** *  descriptor status register bit definitions in CyDMA_P4.h or the API
 296:Generated_Source\PSoC4/TxDMA.h **** *  description in the DMA channel datasheet for more information.
 297:Generated_Source\PSoC4/TxDMA.h **** *
 298:Generated_Source\PSoC4/TxDMA.h **** *******************************************************************************/
 299:Generated_Source\PSoC4/TxDMA.h **** static CY_INLINE uint32 TxDMA_GetDescriptorStatus(int32 descriptor)
 300:Generated_Source\PSoC4/TxDMA.h **** {
 301:Generated_Source\PSoC4/TxDMA.h ****     return (CyDmaGetDescriptorStatus(TxDMA_CHANNEL, descriptor));
 302:Generated_Source\PSoC4/TxDMA.h **** }
 303:Generated_Source\PSoC4/TxDMA.h **** 
 304:Generated_Source\PSoC4/TxDMA.h **** 
 305:Generated_Source\PSoC4/TxDMA.h **** /*******************************************************************************
 306:Generated_Source\PSoC4/TxDMA.h **** * Function Name: TxDMA_SetSrcAddress
ARM GAS  C:\Users\TERENC~1\AppData\Local\Temp\cc4CEKtx.s 			page 16


 307:Generated_Source\PSoC4/TxDMA.h **** ********************************************************************************
 308:Generated_Source\PSoC4/TxDMA.h **** *
 309:Generated_Source\PSoC4/TxDMA.h **** * Summary:
 310:Generated_Source\PSoC4/TxDMA.h **** *  Configures the source address for the specified descriptor.
 311:Generated_Source\PSoC4/TxDMA.h **** *
 312:Generated_Source\PSoC4/TxDMA.h **** * Parameters:
 313:Generated_Source\PSoC4/TxDMA.h **** *  descriptor: Descriptor (0 or 1) modified by this function.
 314:Generated_Source\PSoC4/TxDMA.h **** *  srcAddress: Address of DMA transfer source.
 315:Generated_Source\PSoC4/TxDMA.h **** *                   
 316:Generated_Source\PSoC4/TxDMA.h **** * Return:
 317:Generated_Source\PSoC4/TxDMA.h **** *  None.
 318:Generated_Source\PSoC4/TxDMA.h **** *
 319:Generated_Source\PSoC4/TxDMA.h **** * Side effect:
 320:Generated_Source\PSoC4/TxDMA.h **** *  This function should not be called when the specified descriptor is active
 321:Generated_Source\PSoC4/TxDMA.h **** *  in the DMA transfer engine. This can be checked by calling CyDmaGetStatus(). 
 322:Generated_Source\PSoC4/TxDMA.h **** *
 323:Generated_Source\PSoC4/TxDMA.h **** *******************************************************************************/
 324:Generated_Source\PSoC4/TxDMA.h **** static CY_INLINE void TxDMA_SetSrcAddress(int32 descriptor, void * srcAddress)
 325:Generated_Source\PSoC4/TxDMA.h **** {
 326:Generated_Source\PSoC4/TxDMA.h ****     CyDmaSetSrcAddress(TxDMA_CHANNEL, descriptor, srcAddress);
 327:Generated_Source\PSoC4/TxDMA.h **** }
 328:Generated_Source\PSoC4/TxDMA.h **** 
 329:Generated_Source\PSoC4/TxDMA.h **** 
 330:Generated_Source\PSoC4/TxDMA.h **** /*******************************************************************************
 331:Generated_Source\PSoC4/TxDMA.h **** * Function Name: TxDMA_GetSrcAddress
 332:Generated_Source\PSoC4/TxDMA.h **** ********************************************************************************
 333:Generated_Source\PSoC4/TxDMA.h **** *
 334:Generated_Source\PSoC4/TxDMA.h **** * Summary:
 335:Generated_Source\PSoC4/TxDMA.h **** *  Returns the source address for the specified descriptor, set by either 
 336:Generated_Source\PSoC4/TxDMA.h **** *  TxDMA_Start() or TxDMA_SetSrcAddress().
 337:Generated_Source\PSoC4/TxDMA.h **** *
 338:Generated_Source\PSoC4/TxDMA.h **** * Parameters:
 339:Generated_Source\PSoC4/TxDMA.h **** *  descriptor: Specifies descriptor (0 or 1) used by this function.
 340:Generated_Source\PSoC4/TxDMA.h **** *                   
 341:Generated_Source\PSoC4/TxDMA.h **** * Return:
 342:Generated_Source\PSoC4/TxDMA.h **** *  Source address written to specified descriptor.
 343:Generated_Source\PSoC4/TxDMA.h **** *
 344:Generated_Source\PSoC4/TxDMA.h **** *******************************************************************************/
 345:Generated_Source\PSoC4/TxDMA.h **** static CY_INLINE void * TxDMA_GetSrcAddress(int32 descriptor)
 346:Generated_Source\PSoC4/TxDMA.h **** {
 347:Generated_Source\PSoC4/TxDMA.h ****     return (CyDmaGetSrcAddress(TxDMA_CHANNEL, descriptor));
 348:Generated_Source\PSoC4/TxDMA.h **** }
 349:Generated_Source\PSoC4/TxDMA.h **** 
 350:Generated_Source\PSoC4/TxDMA.h **** 
 351:Generated_Source\PSoC4/TxDMA.h **** /*******************************************************************************
 352:Generated_Source\PSoC4/TxDMA.h **** * Function Name: TxDMA_SetDstAddress
 353:Generated_Source\PSoC4/TxDMA.h **** ********************************************************************************
 354:Generated_Source\PSoC4/TxDMA.h **** *
 355:Generated_Source\PSoC4/TxDMA.h **** * Summary:
 356:Generated_Source\PSoC4/TxDMA.h **** *  Configures the destination address for the specified descriptor.
 357:Generated_Source\PSoC4/TxDMA.h **** *
 358:Generated_Source\PSoC4/TxDMA.h **** * Parameters:
 359:Generated_Source\PSoC4/TxDMA.h **** *  descriptor: Descriptor (0 or 1) modified by this function.
 360:Generated_Source\PSoC4/TxDMA.h **** *  dstAddress: Address of DMA transfer destination.
 361:Generated_Source\PSoC4/TxDMA.h **** *                   
 362:Generated_Source\PSoC4/TxDMA.h **** * Return:
 363:Generated_Source\PSoC4/TxDMA.h **** *  None.
ARM GAS  C:\Users\TERENC~1\AppData\Local\Temp\cc4CEKtx.s 			page 17


 364:Generated_Source\PSoC4/TxDMA.h **** *
 365:Generated_Source\PSoC4/TxDMA.h **** * Side effect:
 366:Generated_Source\PSoC4/TxDMA.h **** *  This function should not be called when the specified descriptor is active
 367:Generated_Source\PSoC4/TxDMA.h **** *  in the DMA transfer engine. This can be checked by calling CyDmaGetStatus(). 
 368:Generated_Source\PSoC4/TxDMA.h **** *
 369:Generated_Source\PSoC4/TxDMA.h **** *******************************************************************************/
 370:Generated_Source\PSoC4/TxDMA.h **** static CY_INLINE void TxDMA_SetDstAddress(int32 descriptor, void * dstAddress)
 371:Generated_Source\PSoC4/TxDMA.h **** {
 372:Generated_Source\PSoC4/TxDMA.h ****     CyDmaSetDstAddress(TxDMA_CHANNEL, descriptor, dstAddress);
 373:Generated_Source\PSoC4/TxDMA.h **** }
 374:Generated_Source\PSoC4/TxDMA.h **** 
 375:Generated_Source\PSoC4/TxDMA.h **** 
 376:Generated_Source\PSoC4/TxDMA.h **** /*******************************************************************************
 377:Generated_Source\PSoC4/TxDMA.h **** * Function Name: TxDMA_GetDstAddress
 378:Generated_Source\PSoC4/TxDMA.h **** ********************************************************************************
 379:Generated_Source\PSoC4/TxDMA.h **** *
 380:Generated_Source\PSoC4/TxDMA.h **** * Summary:
 381:Generated_Source\PSoC4/TxDMA.h **** *  Returns the destination address for the specified descriptor, set by either 
 382:Generated_Source\PSoC4/TxDMA.h **** *  TxDMA_Start() or TxDMA_SetDstAddress().
 383:Generated_Source\PSoC4/TxDMA.h **** *
 384:Generated_Source\PSoC4/TxDMA.h **** * Parameters:
 385:Generated_Source\PSoC4/TxDMA.h **** *  descriptor: Specifies descriptor (0 or 1) used by this function.
 386:Generated_Source\PSoC4/TxDMA.h **** *                   
 387:Generated_Source\PSoC4/TxDMA.h **** * Return:
 388:Generated_Source\PSoC4/TxDMA.h **** *  Destination address written to specified descriptor.
 389:Generated_Source\PSoC4/TxDMA.h **** *
 390:Generated_Source\PSoC4/TxDMA.h **** *******************************************************************************/
 391:Generated_Source\PSoC4/TxDMA.h **** static CY_INLINE void * TxDMA_GetDstAddress(int32 descriptor)
 392:Generated_Source\PSoC4/TxDMA.h **** {
 393:Generated_Source\PSoC4/TxDMA.h ****     return (CyDmaGetDstAddress(TxDMA_CHANNEL, descriptor));
 394:Generated_Source\PSoC4/TxDMA.h **** }
 395:Generated_Source\PSoC4/TxDMA.h **** 
 396:Generated_Source\PSoC4/TxDMA.h **** 
 397:Generated_Source\PSoC4/TxDMA.h **** /*******************************************************************************
 398:Generated_Source\PSoC4/TxDMA.h **** * Function Name: TxDMA_SetDataElementSize
 399:Generated_Source\PSoC4/TxDMA.h **** ********************************************************************************
 400:Generated_Source\PSoC4/TxDMA.h **** *
 401:Generated_Source\PSoC4/TxDMA.h **** * Summary:
 402:Generated_Source\PSoC4/TxDMA.h **** *  Sets the data element size for the specified descriptor.
 403:Generated_Source\PSoC4/TxDMA.h **** *
 404:Generated_Source\PSoC4/TxDMA.h **** * Parameters:
 405:Generated_Source\PSoC4/TxDMA.h **** *  descriptor:      Descriptor (0 or 1) modified by this function.
 406:Generated_Source\PSoC4/TxDMA.h **** *  dataElementSize: Specifies the size of the data element. The DMA transfer
 407:Generated_Source\PSoC4/TxDMA.h **** *                   engine transfers one data element at a time. How these
 408:Generated_Source\PSoC4/TxDMA.h **** *                   transfers occur is controlled by the transfer mode.
 409:Generated_Source\PSoC4/TxDMA.h **** *                   Refer to the API bit field definitions in CyDMA_P4.h or API
 410:Generated_Source\PSoC4/TxDMA.h **** *                   description in the DMA channel datasheet for the parameter
 411:Generated_Source\PSoC4/TxDMA.h **** *                   options.
 412:Generated_Source\PSoC4/TxDMA.h **** *
 413:Generated_Source\PSoC4/TxDMA.h **** * Return:
 414:Generated_Source\PSoC4/TxDMA.h **** *  None.
 415:Generated_Source\PSoC4/TxDMA.h **** *
 416:Generated_Source\PSoC4/TxDMA.h **** * Side effect:
 417:Generated_Source\PSoC4/TxDMA.h **** *  This function should not be called when the specified descriptor is active
 418:Generated_Source\PSoC4/TxDMA.h **** *  in the DMA transfer engine. This can be checked by calling CyDmaGetStatus(). 
 419:Generated_Source\PSoC4/TxDMA.h **** *
 420:Generated_Source\PSoC4/TxDMA.h **** *******************************************************************************/
ARM GAS  C:\Users\TERENC~1\AppData\Local\Temp\cc4CEKtx.s 			page 18


 421:Generated_Source\PSoC4/TxDMA.h **** static CY_INLINE void TxDMA_SetDataElementSize(int32 descriptor, uint32 dataElementSize)
 422:Generated_Source\PSoC4/TxDMA.h **** {
 423:Generated_Source\PSoC4/TxDMA.h ****     CyDmaSetDataElementSize(TxDMA_CHANNEL, descriptor, dataElementSize);
 424:Generated_Source\PSoC4/TxDMA.h **** }
 425:Generated_Source\PSoC4/TxDMA.h **** 
 426:Generated_Source\PSoC4/TxDMA.h **** 
 427:Generated_Source\PSoC4/TxDMA.h **** /*******************************************************************************
 428:Generated_Source\PSoC4/TxDMA.h **** * Function Name: TxDMA_GetDataElementSize
 429:Generated_Source\PSoC4/TxDMA.h **** ********************************************************************************
 430:Generated_Source\PSoC4/TxDMA.h **** *
 431:Generated_Source\PSoC4/TxDMA.h **** * Summary:
 432:Generated_Source\PSoC4/TxDMA.h **** *  Returns the data element size configured for the specified descriptor, set by
 433:Generated_Source\PSoC4/TxDMA.h **** *  TxDMA_SetDataElementSize() or TxDMA_SetConfiguration().
 434:Generated_Source\PSoC4/TxDMA.h **** *
 435:Generated_Source\PSoC4/TxDMA.h **** * Parameters:
 436:Generated_Source\PSoC4/TxDMA.h **** *  descriptor: Descriptor (0 or 1) modified by this function.
 437:Generated_Source\PSoC4/TxDMA.h **** *                   
 438:Generated_Source\PSoC4/TxDMA.h **** * Return:
 439:Generated_Source\PSoC4/TxDMA.h **** *  The size of the data element. The DMA transfer engine transfers one data
 440:Generated_Source\PSoC4/TxDMA.h **** *  element at a time. How these transfers occur is controlled by the transfer
 441:Generated_Source\PSoC4/TxDMA.h **** *  mode. Refer to the API bit field definitions in CyDMA_P4.h or the API 
 442:Generated_Source\PSoC4/TxDMA.h **** *  description in the DMA channel datasheet for more information.
 443:Generated_Source\PSoC4/TxDMA.h **** *
 444:Generated_Source\PSoC4/TxDMA.h **** * Note:
 445:Generated_Source\PSoC4/TxDMA.h **** *  The size of the source and destination can be configured to use the
 446:Generated_Source\PSoC4/TxDMA.h **** *  data element size, or a Word, this is set in TxDMA_SetSrcDstTransferWidth().
 447:Generated_Source\PSoC4/TxDMA.h **** *
 448:Generated_Source\PSoC4/TxDMA.h **** *******************************************************************************/
 449:Generated_Source\PSoC4/TxDMA.h **** static CY_INLINE uint32 TxDMA_GetDataElementSize(int32 descriptor)
 450:Generated_Source\PSoC4/TxDMA.h **** {
 451:Generated_Source\PSoC4/TxDMA.h ****     return (CyDmaGetDataElementSize(TxDMA_CHANNEL, descriptor));
 452:Generated_Source\PSoC4/TxDMA.h **** }
 453:Generated_Source\PSoC4/TxDMA.h **** 
 454:Generated_Source\PSoC4/TxDMA.h **** 
 455:Generated_Source\PSoC4/TxDMA.h **** /*******************************************************************************
 456:Generated_Source\PSoC4/TxDMA.h **** * Function Name: TxDMA_SetNumDataElements
 457:Generated_Source\PSoC4/TxDMA.h **** ********************************************************************************
 458:Generated_Source\PSoC4/TxDMA.h **** *
 459:Generated_Source\PSoC4/TxDMA.h **** * Summary:
 460:Generated_Source\PSoC4/TxDMA.h **** *  Sets the number of data elements to transfer for specified descriptor.
 461:Generated_Source\PSoC4/TxDMA.h **** *
 462:Generated_Source\PSoC4/TxDMA.h **** * Parameters:
 463:Generated_Source\PSoC4/TxDMA.h **** *  descriptor:      Descriptor (0 or 1) modified by this function.
 464:Generated_Source\PSoC4/TxDMA.h **** *  numDataElements: Total number of data elements this descriptor transfers.
 465:Generated_Source\PSoC4/TxDMA.h **** *                   Valid ranges are 1 to 65536.
 466:Generated_Source\PSoC4/TxDMA.h **** *                   
 467:Generated_Source\PSoC4/TxDMA.h **** * Return:
 468:Generated_Source\PSoC4/TxDMA.h **** *  None.
 469:Generated_Source\PSoC4/TxDMA.h **** *
 470:Generated_Source\PSoC4/TxDMA.h **** * Side effect:
 471:Generated_Source\PSoC4/TxDMA.h **** *  This function should not be called when the specified descriptor is active
 472:Generated_Source\PSoC4/TxDMA.h **** *  in the DMA transfer engine. This can be checked by calling CyDmaGetStatus(). 
 473:Generated_Source\PSoC4/TxDMA.h **** *
 474:Generated_Source\PSoC4/TxDMA.h **** *******************************************************************************/
 475:Generated_Source\PSoC4/TxDMA.h **** static CY_INLINE void TxDMA_SetNumDataElements(int32 descriptor, int32 numDataElements)
 476:Generated_Source\PSoC4/TxDMA.h **** {
 477:Generated_Source\PSoC4/TxDMA.h ****     CyDmaSetNumDataElements(TxDMA_CHANNEL, descriptor, numDataElements);
ARM GAS  C:\Users\TERENC~1\AppData\Local\Temp\cc4CEKtx.s 			page 19


 425              		.loc 2 477 0
 426 0016 C022     		movs	r2, #192
 427 0018 5201     		lsls	r2, r2, #5
 428 001a 0021     		movs	r1, #0
 429 001c 0020     		movs	r0, #0
 430 001e FFF7FEFF 		bl	CyDmaSetNumDataElements
 431              	.LVL50:
 432              	.LBE22:
 433              	.LBE21:
 434              	.LBB23:
 435              	.LBB24:
 326:Generated_Source\PSoC4/TxDMA.h **** }
 436              		.loc 2 326 0
 437 0022 274A     		ldr	r2, .L24+4
 438 0024 0021     		movs	r1, #0
 439 0026 0020     		movs	r0, #0
 440 0028 FFF7FEFF 		bl	CyDmaSetSrcAddress
 441              	.LVL51:
 442              	.LBE24:
 443              	.LBE23:
 444              	.LBB25:
 445              	.LBB26:
 372:Generated_Source\PSoC4/TxDMA.h **** }
 446              		.loc 2 372 0
 447 002c 254A     		ldr	r2, .L24+8
 448 002e 0021     		movs	r1, #0
 449 0030 0020     		movs	r0, #0
 450 0032 FFF7FEFF 		bl	CyDmaSetDstAddress
 451              	.LVL52:
 452              	.LBE26:
 453              	.LBE25:
 454              	.LBB27:
 455              	.LBB28:
 279:Generated_Source\PSoC4/TxDMA.h **** }
 456              		.loc 2 279 0
 457 0036 0021     		movs	r1, #0
 458 0038 0020     		movs	r0, #0
 459 003a FFF7FEFF 		bl	CyDmaValidateDescriptor
 460              	.LVL53:
 461              	.LBE28:
 462              	.LBE27:
 116:AudioManager.c **** 	TxDMA_SetNumDataElements(0, OUT_BUFSIZE);
 117:AudioManager.c ****   TxDMA_SetSrcAddress(0, (void *) outBuffer);
 118:AudioManager.c **** 	TxDMA_SetDstAddress(0, (void *) I2S_TX_FIFO_0_PTR);
 119:AudioManager.c **** 
 120:AudioManager.c ****   /* Validate descriptor */
 121:AudioManager.c ****   TxDMA_ValidateDescriptor(0);
 122:AudioManager.c ****   
 123:AudioManager.c ****   /* Start interrupts */
 124:AudioManager.c ****   isr_TxDMADone_StartEx(&i2s_tx_dma_done);
 463              		.loc 1 124 0
 464 003e 2248     		ldr	r0, .L24+12
 465 0040 FFF7FEFF 		bl	isr_TxDMADone_StartEx
 466              	.LVL54:
 125:AudioManager.c ****   
 126:AudioManager.c ****   /* Start I2C Master */
 127:AudioManager.c ****   CodecI2CM_Start();
ARM GAS  C:\Users\TERENC~1\AppData\Local\Temp\cc4CEKtx.s 			page 20


 467              		.loc 1 127 0
 468 0044 FFF7FEFF 		bl	CodecI2CM_Start
 469              	.LVL55:
 128:AudioManager.c **** 
 129:AudioManager.c **** 	if(Codec_Init() == 0)
 470              		.loc 1 129 0
 471 0048 FFF7FEFF 		bl	Codec_Init
 472              	.LVL56:
 473 004c 0028     		cmp	r0, #0
 474 004e 1FD1     		bne	.L21
 130:AudioManager.c **** 	{
 131:AudioManager.c **** 		D_PRINTF(INFO, "Codec comm works!... \r\n");
 475              		.loc 1 131 0
 476 0050 1E4B     		ldr	r3, .L24+16
 477 0052 1B68     		ldr	r3, [r3]
 478 0054 002B     		cmp	r3, #0
 479 0056 1BD0     		beq	.L21
 480              		.loc 1 131 0 is_stmt 0 discriminator 1
 481 0058 5B7C     		ldrb	r3, [r3, #17]
 482 005a 9B07     		lsls	r3, r3, #30
 483 005c 18D5     		bpl	.L21
 484              		.loc 1 131 0 discriminator 2
 485 005e FFF7FEFF 		bl	USBUART_GetConfiguration
 486              	.LVL57:
 487 0062 0028     		cmp	r0, #0
 488 0064 14D0     		beq	.L21
 489              	.LBB29:
 490              		.loc 1 131 0 discriminator 3
 491 0066 1A4B     		ldr	r3, .L24+20
 492 0068 1C68     		ldr	r4, [r3]
 493              	.LVL58:
 494              	.L23:
 495              		.loc 1 131 0 discriminator 7
 496 006a FFF7FEFF 		bl	USBUART_CDCIsReady
 497              	.LVL59:
 498 006e 0028     		cmp	r0, #0
 499 0070 05D1     		bne	.L22
 500              		.loc 1 131 0 discriminator 5
 501 0072 174B     		ldr	r3, .L24+20
 502 0074 1B68     		ldr	r3, [r3]
 503 0076 1B1B     		subs	r3, r3, r4
 504 0078 164A     		ldr	r2, .L24+24
 505 007a 9342     		cmp	r3, r2
 506 007c F5D9     		bls	.L23
 507              	.L22:
 508              		.loc 1 131 0 discriminator 8
 509 007e 164C     		ldr	r4, .L24+28
 510              	.LVL60:
 511 0080 1822     		movs	r2, #24
 512 0082 1649     		ldr	r1, .L24+32
 513 0084 2000     		movs	r0, r4
 514 0086 FFF7FEFF 		bl	memcpy
 515              	.LVL61:
 516 008a 2000     		movs	r0, r4
 517 008c FFF7FEFF 		bl	USBUART_PutString
 518              	.LVL62:
 519              	.L21:
ARM GAS  C:\Users\TERENC~1\AppData\Local\Temp\cc4CEKtx.s 			page 21


 520              	.LBE29:
 132:AudioManager.c **** 	}
 133:AudioManager.c **** 	else
 134:AudioManager.c **** 	{
 135:AudioManager.c **** 		D_PRINTF(ERROR, "Codec comm DOESN'T work!... \r\n");
 136:AudioManager.c **** 	}
 137:AudioManager.c ****   
 138:AudioManager.c ****   I2S_Start();
 521              		.loc 1 138 0 is_stmt 1
 522 0090 FFF7FEFF 		bl	I2S_Start
 523              	.LVL63:
 139:AudioManager.c ****   
 140:AudioManager.c ****   generateSine(AMPLITUDE, sine, WAV_SIZE);
 141:AudioManager.c ****   generateSawtooth(AMPLITUDE, sawtooth, WAV_SIZE);
 524              		.loc 1 141 0
 525 0094 8025     		movs	r5, #128
 526 0096 ED00     		lsls	r5, r5, #3
 527 0098 114C     		ldr	r4, .L24+36
 528 009a 2A00     		movs	r2, r5
 529 009c 1149     		ldr	r1, .L24+40
 530 009e 2000     		movs	r0, r4
 531 00a0 FFF7FEFF 		bl	generateSawtooth
 532              	.LVL64:
 142:AudioManager.c ****   generateTriangle(AMPLITUDE, triangle, WAV_SIZE);
 533              		.loc 1 142 0
 534 00a4 2A00     		movs	r2, r5
 535 00a6 1049     		ldr	r1, .L24+44
 536 00a8 2000     		movs	r0, r4
 537 00aa FFF7FEFF 		bl	generateTriangle
 538              	.LVL65:
 143:AudioManager.c ****   generateSquare(AMPLITUDE, square, WAV_SIZE);
 539              		.loc 1 143 0
 540 00ae 2A00     		movs	r2, r5
 541 00b0 0E49     		ldr	r1, .L24+48
 542 00b2 2000     		movs	r0, r4
 543 00b4 FFF7FEFF 		bl	generateSquare
 544              	.LVL66:
 144:AudioManager.c ****   
 145:AudioManager.c ****   
 146:AudioManager.c **** }
 545              		.loc 1 146 0
 546              		@ sp needed
 547 00b8 70BD     		pop	{r4, r5, r6, pc}
 548              	.L25:
 549 00ba C046     		.align	2
 550              	.L24:
 551 00bc 00000000 		.word	audioEvents
 552 00c0 00000000 		.word	outBuffer
 553 00c4 43000F40 		.word	1074724931
 554 00c8 00000000 		.word	i2s_tx_dma_done
 555 00cc 00000000 		.word	cal_data
 556 00d0 00000000 		.word	tmrCounter_ms
 557 00d4 E7030000 		.word	999
 558 00d8 00000000 		.word	gbuf
 559 00dc 00000000 		.word	.LC7
 560 00e0 FFFF7F00 		.word	8388607
 561 00e4 00000000 		.word	.LANCHOR0
ARM GAS  C:\Users\TERENC~1\AppData\Local\Temp\cc4CEKtx.s 			page 22


 562 00e8 00100000 		.word	.LANCHOR1
 563 00ec 00200000 		.word	.LANCHOR2
 564              		.cfi_endproc
 565              	.LFE39:
 566              		.size	AudioManagerInit, .-AudioManagerInit
 567              		.global	__aeabi_f2uiz
 568              		.section	.text.AudioManagerToneStart,"ax",%progbits
 569              		.align	2
 570              		.global	AudioManagerToneStart
 571              		.code	16
 572              		.thumb_func
 573              		.type	AudioManagerToneStart, %function
 574              	AudioManagerToneStart:
 575              	.LFB40:
 147:AudioManager.c **** #if 0
 148:AudioManager.c **** void playWave(int32_t* buffer, uint16_t length, float frequency, int seconds)
 149:AudioManager.c **** {
 150:AudioManager.c ****   // Play back the provided waveform buffer for the specified
 151:AudioManager.c ****   // amount of seconds.
 152:AudioManager.c ****   // First calculate how many samples need to play back to run
 153:AudioManager.c ****   // for the desired amount of seconds.
 154:AudioManager.c ****   uint32_t iterations = seconds*SAMPLERATE_HZ;
 155:AudioManager.c ****   // Then calculate the 'speed' at which we move through the wave
 156:AudioManager.c ****   // buffer based on the frequency of the tone being played.
 157:AudioManager.c ****   float delta = (frequency*length)/(float)(SAMPLERATE_HZ);
 158:AudioManager.c ****   // Now loop through all the samples and play them, calculating the
 159:AudioManager.c ****   // position within the wave buffer for each moment in time.
 160:AudioManager.c **** 
 161:AudioManager.c ****   for (uint32_t i=0; i<iterations; ++i)
 162:AudioManager.c ****   {
 163:AudioManager.c ****     uint16_t pos = (uint32_t)(i*delta) % length;
 164:AudioManager.c ****     int32_t sample = buffer[pos];
 165:AudioManager.c ****     // Duplicate the sample so it's sent to both the left and right channel.
 166:AudioManager.c ****     // It appears the order is right channel, left channel if you want to write
 167:AudioManager.c ****     // stereo sound.
 168:AudioManager.c ****     i2s.write(sample, sample);
 169:AudioManager.c ****   }
 170:AudioManager.c **** }
 171:AudioManager.c **** #endif
 172:AudioManager.c **** 
 173:AudioManager.c **** void AudioManagerToneStart(uint32_t word)
 174:AudioManager.c **** {
 576              		.loc 1 174 0
 577              		.cfi_startproc
 578              		@ args = 0, pretend = 0, frame = 0
 579              		@ frame_needed = 0, uses_anonymous_args = 0
 580              	.LVL67:
 581 0000 70B5     		push	{r4, r5, r6, lr}
 582              		.cfi_def_cfa_offset 16
 583              		.cfi_offset 4, -16
 584              		.cfi_offset 5, -12
 585              		.cfi_offset 6, -8
 586              		.cfi_offset 14, -4
 175:AudioManager.c **** #if 0
 176:AudioManager.c ****   int i;
 177:AudioManager.c ****   uint32_t word1 = 0x8899AABB;
 178:AudioManager.c ****   uint32_t word2 = 0xCCDDEEFF;
ARM GAS  C:\Users\TERENC~1\AppData\Local\Temp\cc4CEKtx.s 			page 23


 179:AudioManager.c **** 
 180:AudioManager.c ****   for (i = 0; i < OUT_BUFSIZE; i += 2*sizeof(int32_t))
 181:AudioManager.c ****   {
 182:AudioManager.c ****     outBuffer[i+7] = word2 & 0xFF;         // "FF"
 183:AudioManager.c ****     outBuffer[i+6] = (word2 >> 8) & 0xFF;  // "EE"
 184:AudioManager.c ****     outBuffer[i+5] = (word2 >> 16) & 0xFF; // "DD"
 185:AudioManager.c ****     outBuffer[i+4] = (word2 >> 24) & 0xFF; // "CC"
 186:AudioManager.c **** 
 187:AudioManager.c ****     outBuffer[i+3] = word1 & 0xFF;         // "BB"
 188:AudioManager.c ****     outBuffer[i+2] = (word1 >> 8) & 0xFF;  // "AA"
 189:AudioManager.c ****     outBuffer[i+1] = (word1 >> 16) & 0xFF; // "99"
 190:AudioManager.c ****     outBuffer[i+0] = (word1 >> 24) & 0xFF; // "88"
 191:AudioManager.c ****     
 192:AudioManager.c ****   }
 193:AudioManager.c **** #else
 194:AudioManager.c ****   uint32_t i;
 195:AudioManager.c ****   uint16_t pos;
 196:AudioManager.c ****   //int32_t sample;
 197:AudioManager.c ****   float delta = (scale[word] * WAV_SIZE) / (float)(SAMPLERATE_HZ);
 587              		.loc 1 197 0
 588 0002 8000     		lsls	r0, r0, #2
 589              	.LVL68:
 590 0004 1C4B     		ldr	r3, .L29
 591 0006 C058     		ldr	r0, [r0, r3]
 592 0008 8921     		movs	r1, #137
 593 000a C905     		lsls	r1, r1, #23
 594 000c FFF7FEFF 		bl	__aeabi_fmul
 595              	.LVL69:
 596 0010 1A49     		ldr	r1, .L29+4
 597 0012 FFF7FEFF 		bl	__aeabi_fdiv
 598              	.LVL70:
 599 0016 051C     		adds	r5, r0, #0
 600              	.LVL71:
 198:AudioManager.c ****   
 199:AudioManager.c ****   for (i = 0; i < OUT_BUFSIZE; i += 6)
 601              		.loc 1 199 0
 602 0018 0024     		movs	r4, #0
 603 001a 1DE0     		b	.L27
 604              	.LVL72:
 605              	.L28:
 200:AudioManager.c ****   {
 201:AudioManager.c ****     pos = (uint32_t)(i * delta) % WAV_SIZE;
 606              		.loc 1 201 0 discriminator 3
 607 001c 2000     		movs	r0, r4
 608 001e FFF7FEFF 		bl	__aeabi_ui2f
 609              	.LVL73:
 610 0022 291C     		adds	r1, r5, #0
 611 0024 FFF7FEFF 		bl	__aeabi_fmul
 612              	.LVL74:
 613 0028 FFF7FEFF 		bl	__aeabi_f2uiz
 614              	.LVL75:
 615 002c 8005     		lsls	r0, r0, #22
 616              	.LVL76:
 202:AudioManager.c ****     
 203:AudioManager.c ****     //memcpy(&outBuffer[i*4], &triangle[pos], sizeof(uint32_t));
 204:AudioManager.c ****     outBuffer[i+5] = (triangle[pos] >> 16) & 0xFF;
 617              		.loc 1 204 0 discriminator 3
ARM GAS  C:\Users\TERENC~1\AppData\Local\Temp\cc4CEKtx.s 			page 24


 618 002e 611D     		adds	r1, r4, #5
 619 0030 000D     		lsrs	r0, r0, #20
 620              	.LVL77:
 621 0032 134B     		ldr	r3, .L29+8
 622 0034 C258     		ldr	r2, [r0, r3]
 623 0036 1014     		asrs	r0, r2, #16
 624 0038 C0B2     		uxtb	r0, r0
 625 003a 124B     		ldr	r3, .L29+12
 626 003c 5854     		strb	r0, [r3, r1]
 205:AudioManager.c ****     outBuffer[i+4] = (triangle[pos] >> 8) & 0xFF;
 627              		.loc 1 205 0 discriminator 3
 628 003e 261D     		adds	r6, r4, #4
 629 0040 1112     		asrs	r1, r2, #8
 630 0042 C9B2     		uxtb	r1, r1
 631 0044 9955     		strb	r1, [r3, r6]
 206:AudioManager.c ****     outBuffer[i+3] = triangle[pos] & 0xFF;
 632              		.loc 1 206 0 discriminator 3
 633 0046 E61C     		adds	r6, r4, #3
 634 0048 D2B2     		uxtb	r2, r2
 635 004a 9A55     		strb	r2, [r3, r6]
 207:AudioManager.c ****     
 208:AudioManager.c ****     outBuffer[i+2] = (triangle[pos] >> 16) & 0xFF;
 636              		.loc 1 208 0 discriminator 3
 637 004c A61C     		adds	r6, r4, #2
 638 004e 9855     		strb	r0, [r3, r6]
 209:AudioManager.c ****     outBuffer[i+1] = (triangle[pos] >> 8) & 0xFF;
 639              		.loc 1 209 0 discriminator 3
 640 0050 601C     		adds	r0, r4, #1
 641 0052 1954     		strb	r1, [r3, r0]
 210:AudioManager.c ****     outBuffer[i+0] = triangle[pos] & 0xFF;
 642              		.loc 1 210 0 discriminator 3
 643 0054 1A55     		strb	r2, [r3, r4]
 199:AudioManager.c ****   {
 644              		.loc 1 199 0 discriminator 3
 645 0056 0634     		adds	r4, r4, #6
 646              	.LVL78:
 647              	.L27:
 199:AudioManager.c ****   {
 648              		.loc 1 199 0 is_stmt 0 discriminator 1
 649 0058 0B4B     		ldr	r3, .L29+16
 650 005a 9C42     		cmp	r4, r3
 651 005c DED9     		bls	.L28
 211:AudioManager.c ****     //outBuffer[i] = triangle[pos];
 212:AudioManager.c ****   }
 213:AudioManager.c **** #endif
 214:AudioManager.c **** 
 215:AudioManager.c **** 
 216:AudioManager.c ****   I2S_ClearTxFIFO(); /* Clear the I2S internal FIFO */
 652              		.loc 1 216 0 is_stmt 1
 653 005e FFF7FEFF 		bl	I2S_ClearTxFIFO
 654              	.LVL79:
 655              	.LBB30:
 656              	.LBB31:
  96:Generated_Source\PSoC4/TxDMA.h **** }
 657              		.loc 2 96 0
 658 0062 0020     		movs	r0, #0
 659 0064 FFF7FEFF 		bl	CyDmaChEnable
ARM GAS  C:\Users\TERENC~1\AppData\Local\Temp\cc4CEKtx.s 			page 25


 660              	.LVL80:
 661              	.LBE31:
 662              	.LBE30:
 217:AudioManager.c **** 
 218:AudioManager.c ****   TxDMA_ChEnable();
 219:AudioManager.c ****   
 220:AudioManager.c ****   I2S_EnableTx(); /* Unmute the TX output */
 663              		.loc 1 220 0
 664 0068 FFF7FEFF 		bl	I2S_EnableTx
 665              	.LVL81:
 221:AudioManager.c ****   
 222:AudioManager.c ****   Codec_Activate();
 666              		.loc 1 222 0
 667 006c FFF7FEFF 		bl	Codec_Activate
 668              	.LVL82:
 223:AudioManager.c **** 
 224:AudioManager.c ****   /* Enable power to speaker output */
 225:AudioManager.c ****   Codec_PowerOnControl(CODEC_POWER_CTRL_OUTPD);
 669              		.loc 1 225 0
 670 0070 1020     		movs	r0, #16
 671 0072 FFF7FEFF 		bl	Codec_PowerOnControl
 672              	.LVL83:
 226:AudioManager.c **** }
 673              		.loc 1 226 0
 674              		@ sp needed
 675              	.LVL84:
 676              	.LVL85:
 677 0076 70BD     		pop	{r4, r5, r6, pc}
 678              	.L30:
 679              		.align	2
 680              	.L29:
 681 0078 00000000 		.word	.LANCHOR3
 682 007c 00803B47 		.word	1195081728
 683 0080 00100000 		.word	.LANCHOR1
 684 0084 00000000 		.word	outBuffer
 685 0088 FF170000 		.word	6143
 686              		.cfi_endproc
 687              	.LFE40:
 688              		.size	AudioManagerToneStart, .-AudioManagerToneStart
 689              		.section	.text.AudioManagerToneStop,"ax",%progbits
 690              		.align	2
 691              		.global	AudioManagerToneStop
 692              		.code	16
 693              		.thumb_func
 694              		.type	AudioManagerToneStop, %function
 695              	AudioManagerToneStop:
 696              	.LFB41:
 227:AudioManager.c **** 
 228:AudioManager.c **** void AudioManagerToneStop(void)
 229:AudioManager.c **** {
 697              		.loc 1 229 0
 698              		.cfi_startproc
 699              		@ args = 0, pretend = 0, frame = 0
 700              		@ frame_needed = 0, uses_anonymous_args = 0
 701 0000 10B5     		push	{r4, lr}
 702              		.cfi_def_cfa_offset 8
 703              		.cfi_offset 4, -8
ARM GAS  C:\Users\TERENC~1\AppData\Local\Temp\cc4CEKtx.s 			page 26


 704              		.cfi_offset 14, -4
 230:AudioManager.c ****   /* Enable power to speaker output */
 231:AudioManager.c ****   Codec_PowerOffControl(CODEC_POWER_CTRL_OUTPD);
 705              		.loc 1 231 0
 706 0002 1020     		movs	r0, #16
 707 0004 FFF7FEFF 		bl	Codec_PowerOffControl
 708              	.LVL86:
 232:AudioManager.c **** 
 233:AudioManager.c ****   Codec_Deactivate();
 709              		.loc 1 233 0
 710 0008 FFF7FEFF 		bl	Codec_Deactivate
 711              	.LVL87:
 234:AudioManager.c **** 
 235:AudioManager.c ****   I2S_DisableTx();
 712              		.loc 1 235 0
 713 000c FFF7FEFF 		bl	I2S_DisableTx
 714              	.LVL88:
 236:AudioManager.c ****   
 237:AudioManager.c ****   CyDelay(20);
 715              		.loc 1 237 0
 716 0010 1420     		movs	r0, #20
 717 0012 FFF7FEFF 		bl	CyDelay
 718              	.LVL89:
 719              	.LBB32:
 720              	.LBB33:
 119:Generated_Source\PSoC4/TxDMA.h **** }
 721              		.loc 2 119 0
 722 0016 0020     		movs	r0, #0
 723 0018 FFF7FEFF 		bl	CyDmaChDisable
 724              	.LVL90:
 725              	.LBE33:
 726              	.LBE32:
 238:AudioManager.c **** 
 239:AudioManager.c ****   TxDMA_ChDisable();
 240:AudioManager.c **** }
 727              		.loc 1 240 0
 728              		@ sp needed
 729 001c 10BD     		pop	{r4, pc}
 730              		.cfi_endproc
 731              	.LFE41:
 732              		.size	AudioManagerToneStop, .-AudioManagerToneStop
 733 001e C046     		.section	.text.AudioManagerService,"ax",%progbits
 734              		.align	2
 735              		.global	AudioManagerService
 736              		.code	16
 737              		.thumb_func
 738              		.type	AudioManagerService, %function
 739              	AudioManagerService:
 740              	.LFB42:
 241:AudioManager.c **** 
 242:AudioManager.c **** void AudioManagerService(void)
 243:AudioManager.c **** {
 741              		.loc 1 243 0
 742              		.cfi_startproc
 743              		@ args = 0, pretend = 0, frame = 0
 744              		@ frame_needed = 0, uses_anonymous_args = 0
 745 0000 10B5     		push	{r4, lr}
ARM GAS  C:\Users\TERENC~1\AppData\Local\Temp\cc4CEKtx.s 			page 27


 746              		.cfi_def_cfa_offset 8
 747              		.cfi_offset 4, -8
 748              		.cfi_offset 14, -4
 244:AudioManager.c ****   if (audioCheckEvents(AUDIO_EVENTS_I2S_TX_DMA_DONE))
 749              		.loc 1 244 0
 750 0002 154B     		ldr	r3, .L37
 751 0004 1B68     		ldr	r3, [r3]
 752 0006 DB07     		lsls	r3, r3, #31
 753 0008 24D5     		bpl	.L32
 245:AudioManager.c ****   {
 246:AudioManager.c ****     D_PRINTF(DEBUG, "I2S TX DMA done\n");
 754              		.loc 1 246 0
 755 000a 144B     		ldr	r3, .L37+4
 756 000c 1B68     		ldr	r3, [r3]
 757 000e 002B     		cmp	r3, #0
 758 0010 1BD0     		beq	.L34
 759              		.loc 1 246 0 is_stmt 0 discriminator 1
 760 0012 5B7C     		ldrb	r3, [r3, #17]
 761 0014 9B07     		lsls	r3, r3, #30
 762 0016 18D0     		beq	.L34
 763              		.loc 1 246 0 discriminator 2
 764 0018 FFF7FEFF 		bl	USBUART_GetConfiguration
 765              	.LVL91:
 766 001c 0028     		cmp	r0, #0
 767 001e 14D0     		beq	.L34
 768              	.LBB34:
 769              		.loc 1 246 0 discriminator 3
 770 0020 0F4B     		ldr	r3, .L37+8
 771 0022 1C68     		ldr	r4, [r3]
 772              	.LVL92:
 773              	.L36:
 774              		.loc 1 246 0 discriminator 7
 775 0024 FFF7FEFF 		bl	USBUART_CDCIsReady
 776              	.LVL93:
 777 0028 0028     		cmp	r0, #0
 778 002a 05D1     		bne	.L35
 779              		.loc 1 246 0 discriminator 5
 780 002c 0C4B     		ldr	r3, .L37+8
 781 002e 1B68     		ldr	r3, [r3]
 782 0030 1B1B     		subs	r3, r3, r4
 783 0032 0C4A     		ldr	r2, .L37+12
 784 0034 9342     		cmp	r3, r2
 785 0036 F5D9     		bls	.L36
 786              	.L35:
 787              		.loc 1 246 0 discriminator 8
 788 0038 0B4C     		ldr	r4, .L37+16
 789              	.LVL94:
 790 003a 1122     		movs	r2, #17
 791 003c 0B49     		ldr	r1, .L37+20
 792 003e 2000     		movs	r0, r4
 793 0040 FFF7FEFF 		bl	memcpy
 794              	.LVL95:
 795 0044 2000     		movs	r0, r4
 796 0046 FFF7FEFF 		bl	USBUART_PutString
 797              	.LVL96:
 798              	.L34:
 799              	.LBE34:
ARM GAS  C:\Users\TERENC~1\AppData\Local\Temp\cc4CEKtx.s 			page 28


 247:AudioManager.c ****     audioClearEvents(AUDIO_EVENTS_I2S_TX_DMA_DONE);
 800              		.loc 1 247 0 is_stmt 1
 801 004a 034A     		ldr	r2, .L37
 802 004c 1368     		ldr	r3, [r2]
 803 004e 0121     		movs	r1, #1
 804 0050 8B43     		bics	r3, r1
 805 0052 1360     		str	r3, [r2]
 806              	.L32:
 248:AudioManager.c ****   }
 249:AudioManager.c **** }
 807              		.loc 1 249 0
 808              		@ sp needed
 809 0054 10BD     		pop	{r4, pc}
 810              	.L38:
 811 0056 C046     		.align	2
 812              	.L37:
 813 0058 00000000 		.word	audioEvents
 814 005c 00000000 		.word	cal_data
 815 0060 00000000 		.word	tmrCounter_ms
 816 0064 E7030000 		.word	999
 817 0068 00000000 		.word	gbuf
 818 006c 18000000 		.word	.LC19
 819              		.cfi_endproc
 820              	.LFE42:
 821              		.size	AudioManagerService, .-AudioManagerService
 822              		.comm	outBuffer,6144,4
 823              		.global	square
 824              		.global	triangle
 825              		.global	sawtooth
 826              		.global	sine
 827              		.global	scale
 828              		.comm	audioEvents,4,4
 829              		.data
 830              		.align	2
 831              		.set	.LANCHOR3,. + 0
 832              		.type	scale, %object
 833              		.size	scale, 52
 834              	scale:
 835 0000 A4D08243 		.word	1132646564
 836 0004 7BD49243 		.word	1133696123
 837 0008 A4D0A443 		.word	1134874788
 838 000c 719DAE43 		.word	1135517041
 839 0010 0000C443 		.word	1136918528
 840 0014 0000DC43 		.word	1138491392
 841 0018 A4F0F643 		.word	1140256932
 842 001c 0000DC43 		.word	1138491392
 843 0020 0000C443 		.word	1136918528
 844 0024 719DAE43 		.word	1135517041
 845 0028 A4D0A443 		.word	1134874788
 846 002c 7BD49243 		.word	1133696123
 847 0030 A4D08243 		.word	1132646564
 848              		.section	.rodata.str1.4,"aMS",%progbits,1
 849              		.align	2
 850              	.LC7:
 851 0000 436F6465 		.ascii	"Codec comm works!... \015\012\000"
 851      6320636F 
 851      6D6D2077 
ARM GAS  C:\Users\TERENC~1\AppData\Local\Temp\cc4CEKtx.s 			page 29


 851      6F726B73 
 851      212E2E2E 
 852              	.LC19:
 853 0018 49325320 		.ascii	"I2S TX DMA done\012\000"
 853      54582044 
 853      4D412064 
 853      6F6E650A 
 853      00
 854              		.bss
 855              		.align	2
 856              		.set	.LANCHOR0,. + 0
 857              		.set	.LANCHOR1,. + 4096
 858              		.set	.LANCHOR2,. + 8192
 859              		.type	sawtooth, %object
 860              		.size	sawtooth, 4096
 861              	sawtooth:
 862 0000 00000000 		.space	4096
 862      00000000 
 862      00000000 
 862      00000000 
 862      00000000 
 863              		.type	triangle, %object
 864              		.size	triangle, 4096
 865              	triangle:
 866 1000 00000000 		.space	4096
 866      00000000 
 866      00000000 
 866      00000000 
 866      00000000 
 867              		.type	square, %object
 868              		.size	square, 4096
 869              	square:
 870 2000 00000000 		.space	4096
 870      00000000 
 870      00000000 
 870      00000000 
 870      00000000 
 871              		.type	sine, %object
 872              		.size	sine, 4096
 873              	sine:
 874 3000 00000000 		.space	4096
 874      00000000 
 874      00000000 
 874      00000000 
 874      00000000 
 875              		.text
 876              	.Letext0:
 877              		.file 3 "c:\\program files (x86)\\cypress\\psoc creator\\4.2\\psoc creator\\import\\gnu\\arm\\5.4.
 878              		.file 4 "c:\\program files (x86)\\cypress\\psoc creator\\4.2\\psoc creator\\import\\gnu\\arm\\5.4.
 879              		.file 5 "Generated_Source\\PSoC4/cytypes.h"
 880              		.file 6 "./Calibration.h"
 881              		.file 7 "./timers.h"
 882              		.file 8 "./Application.h"
 883              		.file 9 "Generated_Source\\PSoC4/CyDMA.h"
 884              		.file 10 "Generated_Source\\PSoC4/USBUART_cdc.h"
 885              		.file 11 "Generated_Source\\PSoC4/AudioClkSel.h"
 886              		.file 12 "Generated_Source\\PSoC4/isr_TxDMADone.h"
ARM GAS  C:\Users\TERENC~1\AppData\Local\Temp\cc4CEKtx.s 			page 30


 887              		.file 13 "Generated_Source\\PSoC4/CodecI2CM.h"
 888              		.file 14 "./Codec.h"
 889              		.file 15 "Generated_Source\\PSoC4/USBUART.h"
 890              		.file 16 "Generated_Source\\PSoC4/I2S.h"
 891              		.file 17 "Generated_Source\\PSoC4/CyLib.h"