ARM GAS  C:\Users\TERENC~1\AppData\Local\Temp\ccJhPDRw.s 			page 1


   1              		.syntax unified
   2              		.cpu cortex-m0
   3              		.fpu softvfp
   4              		.eabi_attribute 20, 1
   5              		.eabi_attribute 21, 1
   6              		.eabi_attribute 23, 3
   7              		.eabi_attribute 24, 1
   8              		.eabi_attribute 25, 1
   9              		.eabi_attribute 26, 1
  10              		.eabi_attribute 30, 1
  11              		.eabi_attribute 34, 0
  12              		.eabi_attribute 18, 4
  13              		.thumb
  14              		.syntax unified
  15              		.file	"Button.c"
  16              		.text
  17              	.Ltext0:
  18              		.cfi_sections	.debug_frame
  19              		.section	.text.buttonDebounceGetState,"ax",%progbits
  20              		.align	2
  21              		.code	16
  22              		.thumb_func
  23              		.type	buttonDebounceGetState, %function
  24              	buttonDebounceGetState:
  25              	.LFB2:
  26              		.file 1 "Button.c"
   1:Button.c      **** #include <Button.h>
   2:Button.c      **** #include <timers.h>
   3:Button.c      **** #include <BTN.h>
   4:Button.c      **** #include <isr_Button.h>
   5:Button.c      **** #include <ButtonManager.h>
   6:Button.c      **** 
   7:Button.c      **** #define NUM_OF_DEBOUNCE_CHECKS      (5)
   8:Button.c      **** #define BUTTON_DEBOUNCE_INTERVAL_MS (10)
   9:Button.c      **** 
  10:Button.c      **** typedef enum
  11:Button.c      **** {
  12:Button.c      ****     BUTTON_DEBOUNCE_STATE_IDLE,
  13:Button.c      ****     BUTTON_DEBOUNCE_STATE_DEBOUNCING,
  14:Button.c      ****     BUTTON_DEBOUNCE_STATE_DONE
  15:Button.c      **** } BUTTON_DEBOUNCE_STATE_e;
  16:Button.c      **** 
  17:Button.c      **** typedef enum
  18:Button.c      **** {
  19:Button.c      ****     BUTTON_DEBOUNCE_EVT_PRESSED,
  20:Button.c      ****     BUTTON_DEBOUNCE_EVT_RELEASED,
  21:Button.c      **** } BUTTON_DEBOUNCE_EVT_e;
  22:Button.c      **** 
  23:Button.c      **** static bool buttonPressed;
  24:Button.c      **** static bool buttonOfficiallyPressed;
  25:Button.c      **** static uint8_t buttonVotesOfConfidence;
  26:Button.c      **** static BUTTON_DEBOUNCE_STATE_e buttonDebounceState;
  27:Button.c      **** 
  28:Button.c      **** static uint16_t button_debounce_timer_callback(void);
  29:Button.c      **** static void buttonDebounceEventHandler(BUTTON_DEBOUNCE_EVT_e e);
  30:Button.c      **** static BUTTON_DEBOUNCE_STATE_e buttonDebounceGetState(void);
  31:Button.c      **** 
ARM GAS  C:\Users\TERENC~1\AppData\Local\Temp\ccJhPDRw.s 			page 2


  32:Button.c      **** static tmrFuncType buttonDebounceTimer = 
  33:Button.c      **** {
  34:Button.c      ****     .mS = BUTTON_DEBOUNCE_INTERVAL_MS,
  35:Button.c      ****     .func = button_debounce_timer_callback
  36:Button.c      **** };
  37:Button.c      **** 
  38:Button.c      **** static uint16_t button_debounce_timer_callback(void)
  39:Button.c      **** {
  40:Button.c      ****     bool pressed = BTN_Read();
  41:Button.c      ****     buttonDebounceEventHandler((pressed) ? BUTTON_DEBOUNCE_EVT_PRESSED : BUTTON_DEBOUNCE_EVT_RELEAS
  42:Button.c      ****     buttonPressed = pressed;
  43:Button.c      ****     
  44:Button.c      ****     if (buttonDebounceGetState() == BUTTON_DEBOUNCE_STATE_DEBOUNCING)
  45:Button.c      ****     {
  46:Button.c      ****         return BUTTON_DEBOUNCE_INTERVAL_MS;
  47:Button.c      ****     }
  48:Button.c      ****     
  49:Button.c      ****     return 0;
  50:Button.c      **** }
  51:Button.c      **** 
  52:Button.c      **** static BUTTON_DEBOUNCE_STATE_e buttonDebounceGetState(void)
  53:Button.c      **** {
  27              		.loc 1 53 0
  28              		.cfi_startproc
  29              		@ args = 0, pretend = 0, frame = 0
  30              		@ frame_needed = 0, uses_anonymous_args = 0
  31              		@ link register save eliminated.
  54:Button.c      ****     return buttonDebounceState;
  32              		.loc 1 54 0
  33 0000 014B     		ldr	r3, .L2
  34 0002 1878     		ldrb	r0, [r3]
  55:Button.c      **** }
  35              		.loc 1 55 0
  36              		@ sp needed
  37 0004 7047     		bx	lr
  38              	.L3:
  39 0006 C046     		.align	2
  40              	.L2:
  41 0008 00000000 		.word	.LANCHOR0
  42              		.cfi_endproc
  43              	.LFE2:
  44              		.size	buttonDebounceGetState, .-buttonDebounceGetState
  45              		.section	.text.buttonDebounceSetState,"ax",%progbits
  46              		.align	2
  47              		.code	16
  48              		.thumb_func
  49              		.type	buttonDebounceSetState, %function
  50              	buttonDebounceSetState:
  51              	.LFB3:
  56:Button.c      **** 
  57:Button.c      **** static void buttonDebounceSetState(BUTTON_DEBOUNCE_STATE_e state)
  58:Button.c      **** {
  52              		.loc 1 58 0
  53              		.cfi_startproc
  54              		@ args = 0, pretend = 0, frame = 0
  55              		@ frame_needed = 0, uses_anonymous_args = 0
  56              		@ link register save eliminated.
ARM GAS  C:\Users\TERENC~1\AppData\Local\Temp\ccJhPDRw.s 			page 3


  57              	.LVL0:
  59:Button.c      ****     switch (state)
  58              		.loc 1 59 0
  59 0000 0128     		cmp	r0, #1
  60 0002 09D0     		beq	.L6
  61 0004 0028     		cmp	r0, #0
  62 0006 02D0     		beq	.L7
  63 0008 0228     		cmp	r0, #2
  64 000a 09D0     		beq	.L8
  65 000c 1FE0     		b	.L4
  66              	.L7:
  60:Button.c      ****     {
  61:Button.c      ****         case BUTTON_DEBOUNCE_STATE_IDLE:
  62:Button.c      ****             buttonVotesOfConfidence = 0;
  67              		.loc 1 62 0
  68 000e 104B     		ldr	r3, .L12
  69 0010 0022     		movs	r2, #0
  70 0012 5A70     		strb	r2, [r3, #1]
  63:Button.c      ****             buttonDebounceState = BUTTON_DEBOUNCE_STATE_IDLE;
  71              		.loc 1 63 0
  72 0014 1A70     		strb	r2, [r3]
  64:Button.c      ****             break;
  73              		.loc 1 64 0
  74 0016 1AE0     		b	.L4
  75              	.L6:
  65:Button.c      ****         case BUTTON_DEBOUNCE_STATE_DEBOUNCING:
  66:Button.c      ****             buttonDebounceState = BUTTON_DEBOUNCE_STATE_DEBOUNCING;
  76              		.loc 1 66 0
  77 0018 0122     		movs	r2, #1
  78 001a 0D4B     		ldr	r3, .L12
  79 001c 1A70     		strb	r2, [r3]
  67:Button.c      ****             break;
  80              		.loc 1 67 0
  81 001e 16E0     		b	.L4
  82              	.L8:
  68:Button.c      ****         case BUTTON_DEBOUNCE_STATE_DONE:
  69:Button.c      ****             if (buttonPressed != buttonOfficiallyPressed)
  83              		.loc 1 69 0
  84 0020 0B4A     		ldr	r2, .L12
  85 0022 9378     		ldrb	r3, [r2, #2]
  86 0024 D278     		ldrb	r2, [r2, #3]
  87 0026 9342     		cmp	r3, r2
  88 0028 0ED0     		beq	.L9
  70:Button.c      ****             {
  71:Button.c      ****                 if (buttonPressed)
  89              		.loc 1 71 0
  90 002a 002B     		cmp	r3, #0
  91 002c 05D0     		beq	.L10
  72:Button.c      ****                 {
  73:Button.c      ****                     buttonSetEvents(BUTTON_EVENTS_LL_PRESS);
  92              		.loc 1 73 0
  93 002e 0949     		ldr	r1, .L12+4
  94 0030 0868     		ldr	r0, [r1]
  95              	.LVL1:
  96 0032 0122     		movs	r2, #1
  97 0034 0243     		orrs	r2, r0
  98 0036 0A60     		str	r2, [r1]
ARM GAS  C:\Users\TERENC~1\AppData\Local\Temp\ccJhPDRw.s 			page 4


  99 0038 04E0     		b	.L11
 100              	.LVL2:
 101              	.L10:
  74:Button.c      ****                 }
  75:Button.c      ****                 else
  76:Button.c      ****                 {
  77:Button.c      ****                     buttonSetEvents(BUTTON_EVENTS_LL_RELEASE);
 102              		.loc 1 77 0
 103 003a 0649     		ldr	r1, .L12+4
 104 003c 0868     		ldr	r0, [r1]
 105              	.LVL3:
 106 003e 0222     		movs	r2, #2
 107 0040 0243     		orrs	r2, r0
 108 0042 0A60     		str	r2, [r1]
 109              	.L11:
  78:Button.c      ****                 }
  79:Button.c      ****                 buttonOfficiallyPressed = buttonPressed;
 110              		.loc 1 79 0
 111 0044 024A     		ldr	r2, .L12
 112 0046 D370     		strb	r3, [r2, #3]
 113              	.L9:
  80:Button.c      ****             }
  81:Button.c      ****             buttonDebounceState = BUTTON_DEBOUNCE_STATE_IDLE;
 114              		.loc 1 81 0
 115 0048 0022     		movs	r2, #0
 116 004a 014B     		ldr	r3, .L12
 117 004c 1A70     		strb	r2, [r3]
 118              	.L4:
  82:Button.c      ****             break;
  83:Button.c      ****         default:
  84:Button.c      ****             break;
  85:Button.c      ****     }
  86:Button.c      **** }
 119              		.loc 1 86 0
 120              		@ sp needed
 121 004e 7047     		bx	lr
 122              	.L13:
 123              		.align	2
 124              	.L12:
 125 0050 00000000 		.word	.LANCHOR0
 126 0054 00000000 		.word	buttonEvents
 127              		.cfi_endproc
 128              	.LFE3:
 129              		.size	buttonDebounceSetState, .-buttonDebounceSetState
 130              		.section	.text.buttonDebounceEventHandler,"ax",%progbits
 131              		.align	2
 132              		.code	16
 133              		.thumb_func
 134              		.type	buttonDebounceEventHandler, %function
 135              	buttonDebounceEventHandler:
 136              	.LFB4:
  87:Button.c      **** 
  88:Button.c      **** static void buttonDebounceEventHandler(BUTTON_DEBOUNCE_EVT_e e)
  89:Button.c      **** {
 137              		.loc 1 89 0
 138              		.cfi_startproc
 139              		@ args = 0, pretend = 0, frame = 0
ARM GAS  C:\Users\TERENC~1\AppData\Local\Temp\ccJhPDRw.s 			page 5


 140              		@ frame_needed = 0, uses_anonymous_args = 0
 141              	.LVL4:
 142 0000 10B5     		push	{r4, lr}
 143              		.cfi_def_cfa_offset 8
 144              		.cfi_offset 4, -8
 145              		.cfi_offset 14, -4
  90:Button.c      ****     switch (e)
 146              		.loc 1 90 0
 147 0002 0128     		cmp	r0, #1
 148 0004 1ED8     		bhi	.L14
  91:Button.c      ****     {
  92:Button.c      ****         case BUTTON_DEBOUNCE_EVT_PRESSED:
  93:Button.c      ****         case BUTTON_DEBOUNCE_EVT_RELEASED:
  94:Button.c      ****             if (((buttonPressed == true) && (e == BUTTON_DEBOUNCE_EVT_PRESSED)) ||
 149              		.loc 1 94 0
 150 0006 104B     		ldr	r3, .L21
 151 0008 9B78     		ldrb	r3, [r3, #2]
 152 000a 002B     		cmp	r3, #0
 153 000c 01D0     		beq	.L17
 154              		.loc 1 94 0 is_stmt 0 discriminator 1
 155 000e 0028     		cmp	r0, #0
 156 0010 03D0     		beq	.L18
 157              	.L17:
 158              		.loc 1 94 0 discriminator 3
 159 0012 002B     		cmp	r3, #0
 160 0014 10D1     		bne	.L19
  95:Button.c      ****                 ((buttonPressed == false) && (e == BUTTON_DEBOUNCE_EVT_RELEASED)))
 161              		.loc 1 95 0 is_stmt 1
 162 0016 0128     		cmp	r0, #1
 163 0018 0ED1     		bne	.L19
 164              	.L18:
  96:Button.c      ****             {
  97:Button.c      ****                 // Affirming more of the same
  98:Button.c      ****                 buttonVotesOfConfidence++;
 165              		.loc 1 98 0
 166 001a 0B4A     		ldr	r2, .L21
 167 001c 5378     		ldrb	r3, [r2, #1]
 168 001e 0133     		adds	r3, r3, #1
 169 0020 DBB2     		uxtb	r3, r3
 170 0022 5370     		strb	r3, [r2, #1]
  99:Button.c      ****                 if (buttonVotesOfConfidence >= NUM_OF_DEBOUNCE_CHECKS)
 171              		.loc 1 99 0
 172 0024 042B     		cmp	r3, #4
 173 0026 03D9     		bls	.L20
 100:Button.c      ****                 {
 101:Button.c      ****                     buttonDebounceSetState(BUTTON_DEBOUNCE_STATE_DONE);
 174              		.loc 1 101 0
 175 0028 0220     		movs	r0, #2
 176              	.LVL5:
 177 002a FFF7FEFF 		bl	buttonDebounceSetState
 178              	.LVL6:
 179 002e 09E0     		b	.L14
 180              	.LVL7:
 181              	.L20:
 102:Button.c      ****                 }
 103:Button.c      ****                 else
 104:Button.c      ****                 {
ARM GAS  C:\Users\TERENC~1\AppData\Local\Temp\ccJhPDRw.s 			page 6


 105:Button.c      ****                     buttonDebounceSetState(BUTTON_DEBOUNCE_STATE_DEBOUNCING);
 182              		.loc 1 105 0
 183 0030 0120     		movs	r0, #1
 184              	.LVL8:
 185 0032 FFF7FEFF 		bl	buttonDebounceSetState
 186              	.LVL9:
 187 0036 05E0     		b	.L14
 188              	.LVL10:
 189              	.L19:
 106:Button.c      ****                 }
 107:Button.c      ****             }
 108:Button.c      ****             else
 109:Button.c      ****             {
 110:Button.c      ****                 // Found a debounce, reset detection logic
 111:Button.c      ****                 buttonDebounceSetState(BUTTON_DEBOUNCE_STATE_DEBOUNCING);
 190              		.loc 1 111 0
 191 0038 0120     		movs	r0, #1
 192              	.LVL11:
 193 003a FFF7FEFF 		bl	buttonDebounceSetState
 194              	.LVL12:
 112:Button.c      ****                 buttonVotesOfConfidence = 0;
 195              		.loc 1 112 0
 196 003e 0022     		movs	r2, #0
 197 0040 014B     		ldr	r3, .L21
 198 0042 5A70     		strb	r2, [r3, #1]
 199              	.L14:
 113:Button.c      ****             }
 114:Button.c      ****             break;
 115:Button.c      ****         default:
 116:Button.c      ****             break;
 117:Button.c      ****     }
 118:Button.c      ****     
 119:Button.c      ****     
 120:Button.c      **** }
 200              		.loc 1 120 0
 201              		@ sp needed
 202 0044 10BD     		pop	{r4, pc}
 203              	.L22:
 204 0046 C046     		.align	2
 205              	.L21:
 206 0048 00000000 		.word	.LANCHOR0
 207              		.cfi_endproc
 208              	.LFE4:
 209              		.size	buttonDebounceEventHandler, .-buttonDebounceEventHandler
 210              		.section	.text.button_debounce_timer_callback,"ax",%progbits
 211              		.align	2
 212              		.code	16
 213              		.thumb_func
 214              		.type	button_debounce_timer_callback, %function
 215              	button_debounce_timer_callback:
 216              	.LFB1:
  39:Button.c      ****     bool pressed = BTN_Read();
 217              		.loc 1 39 0
 218              		.cfi_startproc
 219              		@ args = 0, pretend = 0, frame = 0
 220              		@ frame_needed = 0, uses_anonymous_args = 0
 221 0000 10B5     		push	{r4, lr}
ARM GAS  C:\Users\TERENC~1\AppData\Local\Temp\ccJhPDRw.s 			page 7


 222              		.cfi_def_cfa_offset 8
 223              		.cfi_offset 4, -8
 224              		.cfi_offset 14, -4
  40:Button.c      ****     buttonDebounceEventHandler((pressed) ? BUTTON_DEBOUNCE_EVT_PRESSED : BUTTON_DEBOUNCE_EVT_RELEAS
 225              		.loc 1 40 0
 226 0002 FFF7FEFF 		bl	BTN_Read
 227              	.LVL13:
 228 0006 0400     		movs	r4, r0
 229 0008 631E     		subs	r3, r4, #1
 230 000a 9C41     		sbcs	r4, r4, r3
 231 000c E4B2     		uxtb	r4, r4
 232              	.LVL14:
  41:Button.c      ****     buttonPressed = pressed;
 233              		.loc 1 41 0
 234 000e 0028     		cmp	r0, #0
 235 0010 01D0     		beq	.L26
 236 0012 0020     		movs	r0, #0
 237 0014 00E0     		b	.L24
 238              	.L26:
 239 0016 0120     		movs	r0, #1
 240              	.L24:
  41:Button.c      ****     buttonPressed = pressed;
 241              		.loc 1 41 0 is_stmt 0 discriminator 4
 242 0018 FFF7FEFF 		bl	buttonDebounceEventHandler
 243              	.LVL15:
  42:Button.c      ****     
 244              		.loc 1 42 0 is_stmt 1 discriminator 4
 245 001c 044B     		ldr	r3, .L28
 246 001e 9C70     		strb	r4, [r3, #2]
  44:Button.c      ****     {
 247              		.loc 1 44 0 discriminator 4
 248 0020 FFF7FEFF 		bl	buttonDebounceGetState
 249              	.LVL16:
 250 0024 0128     		cmp	r0, #1
 251 0026 01D1     		bne	.L27
  46:Button.c      ****     }
 252              		.loc 1 46 0
 253 0028 0930     		adds	r0, r0, #9
 254 002a 00E0     		b	.L25
 255              	.L27:
  49:Button.c      **** }
 256              		.loc 1 49 0
 257 002c 0020     		movs	r0, #0
 258              	.L25:
  50:Button.c      **** 
 259              		.loc 1 50 0
 260              		@ sp needed
 261              	.LVL17:
 262 002e 10BD     		pop	{r4, pc}
 263              	.L29:
 264              		.align	2
 265              	.L28:
 266 0030 00000000 		.word	.LANCHOR0
 267              		.cfi_endproc
 268              	.LFE1:
 269              		.size	button_debounce_timer_callback, .-button_debounce_timer_callback
 270              		.section	.text.buttonEdgeDetected,"ax",%progbits
ARM GAS  C:\Users\TERENC~1\AppData\Local\Temp\ccJhPDRw.s 			page 8


 271              		.align	2
 272              		.global	buttonEdgeDetected
 273              		.code	16
 274              		.thumb_func
 275              		.type	buttonEdgeDetected, %function
 276              	buttonEdgeDetected:
 277              	.LFB6:
 121:Button.c      **** 
 122:Button.c      **** void buttonInit(void)
 123:Button.c      **** {
 124:Button.c      ****     buttonDebounceState = BUTTON_DEBOUNCE_STATE_IDLE;
 125:Button.c      ****     buttonPressed = false;
 126:Button.c      ****     buttonOfficiallyPressed = false;
 127:Button.c      ****     buttonVotesOfConfidence = 0;
 128:Button.c      ****     
 129:Button.c      ****     isr_Button_Start();
 130:Button.c      ****     
 131:Button.c      ****     // Run first time check in case User is still pressing button from boot-up
 132:Button.c      ****     buttonEdgeDetected();
 133:Button.c      **** }
 134:Button.c      **** 
 135:Button.c      **** void buttonEdgeDetected(void)
 136:Button.c      **** {
 278              		.loc 1 136 0
 279              		.cfi_startproc
 280              		@ args = 0, pretend = 0, frame = 0
 281              		@ frame_needed = 0, uses_anonymous_args = 0
 282 0000 10B5     		push	{r4, lr}
 283              		.cfi_def_cfa_offset 8
 284              		.cfi_offset 4, -8
 285              		.cfi_offset 14, -4
 137:Button.c      ****     bool pressed = BTN_Read();
 286              		.loc 1 137 0
 287 0002 FFF7FEFF 		bl	BTN_Read
 288              	.LVL18:
 289 0006 0400     		movs	r4, r0
 290 0008 631E     		subs	r3, r4, #1
 291 000a 9C41     		sbcs	r4, r4, r3
 292 000c E4B2     		uxtb	r4, r4
 293              	.LVL19:
 138:Button.c      ****     buttonDebounceEventHandler((pressed) ? BUTTON_DEBOUNCE_EVT_PRESSED : BUTTON_DEBOUNCE_EVT_RELEAS
 294              		.loc 1 138 0
 295 000e 0028     		cmp	r0, #0
 296 0010 01D0     		beq	.L33
 297 0012 0020     		movs	r0, #0
 298 0014 00E0     		b	.L31
 299              	.L33:
 300 0016 0120     		movs	r0, #1
 301              	.L31:
 302              		.loc 1 138 0 is_stmt 0 discriminator 4
 303 0018 FFF7FEFF 		bl	buttonDebounceEventHandler
 304              	.LVL20:
 139:Button.c      **** 
 140:Button.c      ****     buttonPressed = pressed;
 305              		.loc 1 140 0 is_stmt 1 discriminator 4
 306 001c 074B     		ldr	r3, .L34
 307 001e 9C70     		strb	r4, [r3, #2]
ARM GAS  C:\Users\TERENC~1\AppData\Local\Temp\ccJhPDRw.s 			page 9


 141:Button.c      **** 
 142:Button.c      ****     if (buttonDebounceGetState() == BUTTON_DEBOUNCE_STATE_DEBOUNCING)
 308              		.loc 1 142 0 discriminator 4
 309 0020 FFF7FEFF 		bl	buttonDebounceGetState
 310              	.LVL21:
 311 0024 0128     		cmp	r0, #1
 312 0026 08D1     		bne	.L30
 143:Button.c      ****     {
 144:Button.c      ****         // Clear any running timer first
 145:Button.c      ****         tmrFuncDelete(&buttonDebounceTimer);
 313              		.loc 1 145 0
 314 0028 054C     		ldr	r4, .L34+4
 315              	.LVL22:
 316 002a 2000     		movs	r0, r4
 317 002c FFF7FEFF 		bl	tmrFuncDelete
 318              	.LVL23:
 146:Button.c      **** 
 147:Button.c      ****         // Start debounce timer
 148:Button.c      ****         buttonDebounceTimer.mS = BUTTON_DEBOUNCE_INTERVAL_MS;
 319              		.loc 1 148 0
 320 0030 0A23     		movs	r3, #10
 321 0032 6360     		str	r3, [r4, #4]
 149:Button.c      ****         tmrFuncAdd(&buttonDebounceTimer);
 322              		.loc 1 149 0
 323 0034 2000     		movs	r0, r4
 324 0036 FFF7FEFF 		bl	tmrFuncAdd
 325              	.LVL24:
 326              	.L30:
 150:Button.c      ****     }
 151:Button.c      **** }
 327              		.loc 1 151 0
 328              		@ sp needed
 329 003a 10BD     		pop	{r4, pc}
 330              	.L35:
 331              		.align	2
 332              	.L34:
 333 003c 00000000 		.word	.LANCHOR0
 334 0040 00000000 		.word	.LANCHOR1
 335              		.cfi_endproc
 336              	.LFE6:
 337              		.size	buttonEdgeDetected, .-buttonEdgeDetected
 338              		.section	.text.buttonInit,"ax",%progbits
 339              		.align	2
 340              		.global	buttonInit
 341              		.code	16
 342              		.thumb_func
 343              		.type	buttonInit, %function
 344              	buttonInit:
 345              	.LFB5:
 123:Button.c      ****     buttonDebounceState = BUTTON_DEBOUNCE_STATE_IDLE;
 346              		.loc 1 123 0
 347              		.cfi_startproc
 348              		@ args = 0, pretend = 0, frame = 0
 349              		@ frame_needed = 0, uses_anonymous_args = 0
 350 0000 10B5     		push	{r4, lr}
 351              		.cfi_def_cfa_offset 8
 352              		.cfi_offset 4, -8
ARM GAS  C:\Users\TERENC~1\AppData\Local\Temp\ccJhPDRw.s 			page 10


 353              		.cfi_offset 14, -4
 124:Button.c      ****     buttonPressed = false;
 354              		.loc 1 124 0
 355 0002 054B     		ldr	r3, .L37
 356 0004 0022     		movs	r2, #0
 357 0006 1A70     		strb	r2, [r3]
 125:Button.c      ****     buttonOfficiallyPressed = false;
 358              		.loc 1 125 0
 359 0008 9A70     		strb	r2, [r3, #2]
 126:Button.c      ****     buttonVotesOfConfidence = 0;
 360              		.loc 1 126 0
 361 000a DA70     		strb	r2, [r3, #3]
 127:Button.c      ****     
 362              		.loc 1 127 0
 363 000c 5A70     		strb	r2, [r3, #1]
 129:Button.c      ****     
 364              		.loc 1 129 0
 365 000e FFF7FEFF 		bl	isr_Button_Start
 366              	.LVL25:
 132:Button.c      **** }
 367              		.loc 1 132 0
 368 0012 FFF7FEFF 		bl	buttonEdgeDetected
 369              	.LVL26:
 133:Button.c      **** 
 370              		.loc 1 133 0
 371              		@ sp needed
 372 0016 10BD     		pop	{r4, pc}
 373              	.L38:
 374              		.align	2
 375              	.L37:
 376 0018 00000000 		.word	.LANCHOR0
 377              		.cfi_endproc
 378              	.LFE5:
 379              		.size	buttonInit, .-buttonInit
 380              		.data
 381              		.align	2
 382              		.set	.LANCHOR1,. + 0
 383              		.type	buttonDebounceTimer, %object
 384              		.size	buttonDebounceTimer, 12
 385              	buttonDebounceTimer:
 386 0000 00000000 		.space	4
 387 0004 0A000000 		.word	10
 388 0008 00000000 		.word	button_debounce_timer_callback
 389              		.bss
 390              		.set	.LANCHOR0,. + 0
 391              		.type	buttonDebounceState, %object
 392              		.size	buttonDebounceState, 1
 393              	buttonDebounceState:
 394 0000 00       		.space	1
 395              		.type	buttonVotesOfConfidence, %object
 396              		.size	buttonVotesOfConfidence, 1
 397              	buttonVotesOfConfidence:
 398 0001 00       		.space	1
 399              		.type	buttonPressed, %object
 400              		.size	buttonPressed, 1
 401              	buttonPressed:
 402 0002 00       		.space	1
ARM GAS  C:\Users\TERENC~1\AppData\Local\Temp\ccJhPDRw.s 			page 11


 403              		.type	buttonOfficiallyPressed, %object
 404              		.size	buttonOfficiallyPressed, 1
 405              	buttonOfficiallyPressed:
 406 0003 00       		.space	1
 407              		.text
 408              	.Letext0:
 409              		.file 2 "c:\\program files (x86)\\cypress\\psoc creator\\4.2\\psoc creator\\import\\gnu\\arm\\5.4.
 410              		.file 3 "c:\\program files (x86)\\cypress\\psoc creator\\4.2\\psoc creator\\import\\gnu\\arm\\5.4.
 411              		.file 4 "./timers.h"
 412              		.file 5 "Generated_Source\\PSoC4/BTN.h"
 413              		.file 6 "Generated_Source\\PSoC4/isr_Button.h"
 414              		.file 7 "./ButtonManager.h"