ARM GAS  C:\Users\TERENC~1\AppData\Local\Temp\ccUmRCtw.s 			page 1


   1              		.syntax unified
   2              		.cpu cortex-m0
   3              		.fpu softvfp
   4              		.eabi_attribute 20, 1
   5              		.eabi_attribute 21, 1
   6              		.eabi_attribute 23, 3
   7              		.eabi_attribute 24, 1
   8              		.eabi_attribute 25, 1
   9              		.eabi_attribute 26, 1
  10              		.eabi_attribute 30, 1
  11              		.eabi_attribute 34, 0
  12              		.eabi_attribute 18, 4
  13              		.thumb
  14              		.syntax unified
  15              		.file	"ButtonManager.c"
  16              		.text
  17              	.Ltext0:
  18              		.cfi_sections	.debug_frame
  19              		.section	.text.button_hold_timeout_callback,"ax",%progbits
  20              		.align	2
  21              		.code	16
  22              		.thumb_func
  23              		.type	button_hold_timeout_callback, %function
  24              	button_hold_timeout_callback:
  25              	.LFB2:
  26              		.file 1 "ButtonManager.c"
   1:ButtonManager.c **** #include <ButtonManager.h>
   2:ButtonManager.c **** #include <Application.h>
   3:ButtonManager.c **** #include <Button.h>
   4:ButtonManager.c **** #include <timers.h>
   5:ButtonManager.c **** 
   6:ButtonManager.c **** typedef enum
   7:ButtonManager.c **** {
   8:ButtonManager.c ****     BM_DURATION_NONE,
   9:ButtonManager.c ****     BM_DURATION_PRESS,
  10:ButtonManager.c ****     BM_DURATION_PRESS_RELEASE,
  11:ButtonManager.c ****     BM_DURATION_LONG_PRESS,
  12:ButtonManager.c ****     BM_DURATION_LONG_PRESS_RELEASE,
  13:ButtonManager.c ****     BM_DURATION_VLONG_PRESS,
  14:ButtonManager.c ****     BM_DURATION_VLONG_PRESS_RELEASE,
  15:ButtonManager.c ****     BM_DURATION_VVLONG_PRESS,
  16:ButtonManager.c ****     BM_DURATION_VVLONG_PRESS_RELEASE,
  17:ButtonManager.c ****     BM_DURATION_VVVLONG_PRESS,
  18:ButtonManager.c ****     BM_DURATION_VVVLONG_PRESS_RELEASE
  19:ButtonManager.c **** } BM_DURATION_e;
  20:ButtonManager.c **** 
  21:ButtonManager.c **** static uint16_t button_hold_timeout_callback(void);
  22:ButtonManager.c **** static void buttonManagerHandleButtonEvents(BM_DURATION_e e);
  23:ButtonManager.c **** 
  24:ButtonManager.c **** static const uint32_t bm_durations_ms[] =
  25:ButtonManager.c **** {
  26:ButtonManager.c ****     0,      //    BM_DURATION_NONE,
  27:ButtonManager.c ****     1800,   //    BM_DURATION_PRESS,
  28:ButtonManager.c ****     1800,   //    BM_DURATION_PRESS_RELEASE,
  29:ButtonManager.c ****     3000,   //    BM_DURATION_LONG_PRESS,
  30:ButtonManager.c ****     3000,   //    BM_DURATION_LONG_PRESS_RELEASE,
  31:ButtonManager.c ****     5000,   //    BM_DURATION_VLONG_PRESS,
ARM GAS  C:\Users\TERENC~1\AppData\Local\Temp\ccUmRCtw.s 			page 2


  32:ButtonManager.c ****     5000,   //    BM_DURATION_VLONG_PRESS_RELEASE,
  33:ButtonManager.c ****     15000,  //    BM_DURATION_VVLONG_PRESS,
  34:ButtonManager.c ****     15000,  //    BM_DURATION_VVLONG_PRESS_RELEASE,
  35:ButtonManager.c ****     0xFFFFFFFF,  //    BM_DURATION_VVVLONG_PRESS,
  36:ButtonManager.c ****     0xFFFFFFFF,  //    BM_DURATION_VVVLONG_PRESS_RELEASE
  37:ButtonManager.c **** };
  38:ButtonManager.c **** 
  39:ButtonManager.c **** volatile uint32_t buttonEvents;
  40:ButtonManager.c **** static BM_DURATION_e buttonDuration;
  41:ButtonManager.c **** static tmrFuncType buttonHoldTimer = 
  42:ButtonManager.c **** {
  43:ButtonManager.c ****     .mS = 0, // Set dynamically
  44:ButtonManager.c ****     .func = button_hold_timeout_callback
  45:ButtonManager.c **** };
  46:ButtonManager.c **** 
  47:ButtonManager.c **** static uint16_t button_hold_timeout_callback(void)
  48:ButtonManager.c **** {
  27              		.loc 1 48 0
  28              		.cfi_startproc
  29              		@ args = 0, pretend = 0, frame = 0
  30              		@ frame_needed = 0, uses_anonymous_args = 0
  31              		@ link register save eliminated.
  49:ButtonManager.c ****     buttonDuration += 2; // Skip to next "press", no "release" as of yet
  32              		.loc 1 49 0
  33 0000 064A     		ldr	r2, .L2
  34 0002 1378     		ldrb	r3, [r2]
  35 0004 0233     		adds	r3, r3, #2
  36 0006 DBB2     		uxtb	r3, r3
  37 0008 1370     		strb	r3, [r2]
  50:ButtonManager.c **** 
  51:ButtonManager.c ****     buttonSetEvents(BUTTON_EVENTS_HOLD_TIMEOUT);
  38              		.loc 1 51 0
  39 000a 0549     		ldr	r1, .L2+4
  40 000c 0868     		ldr	r0, [r1]
  41 000e 0422     		movs	r2, #4
  42 0010 0243     		orrs	r2, r0
  43 0012 0A60     		str	r2, [r1]
  52:ButtonManager.c ****     
  53:ButtonManager.c ****     return bm_durations_ms[buttonDuration];   
  44              		.loc 1 53 0
  45 0014 9B00     		lsls	r3, r3, #2
  46 0016 034A     		ldr	r2, .L2+8
  47 0018 D05A     		ldrh	r0, [r2, r3]
  54:ButtonManager.c **** }
  48              		.loc 1 54 0
  49              		@ sp needed
  50 001a 7047     		bx	lr
  51              	.L3:
  52              		.align	2
  53              	.L2:
  54 001c 00000000 		.word	.LANCHOR0
  55 0020 00000000 		.word	buttonEvents
  56 0024 00000000 		.word	.LANCHOR1
  57              		.cfi_endproc
  58              	.LFE2:
  59              		.size	button_hold_timeout_callback, .-button_hold_timeout_callback
  60              		.section	.text.buttonManagerStartHoldTimer,"ax",%progbits
ARM GAS  C:\Users\TERENC~1\AppData\Local\Temp\ccUmRCtw.s 			page 3


  61              		.align	2
  62              		.code	16
  63              		.thumb_func
  64              		.type	buttonManagerStartHoldTimer, %function
  65              	buttonManagerStartHoldTimer:
  66              	.LFB3:
  55:ButtonManager.c **** 
  56:ButtonManager.c **** static void buttonManagerStartHoldTimer(void)
  57:ButtonManager.c **** {
  67              		.loc 1 57 0
  68              		.cfi_startproc
  69              		@ args = 0, pretend = 0, frame = 0
  70              		@ frame_needed = 0, uses_anonymous_args = 0
  71 0000 10B5     		push	{r4, lr}
  72              		.cfi_def_cfa_offset 8
  73              		.cfi_offset 4, -8
  74              		.cfi_offset 14, -4
  58:ButtonManager.c ****     // Started by a press, process it
  59:ButtonManager.c ****     buttonDuration = BM_DURATION_PRESS;
  75              		.loc 1 59 0
  76 0002 0122     		movs	r2, #1
  77 0004 044B     		ldr	r3, .L5
  78 0006 1A70     		strb	r2, [r3]
  60:ButtonManager.c ****     buttonManagerHandleButtonEvents(buttonDuration);
  61:ButtonManager.c ****     buttonHoldTimer.mS = bm_durations_ms[buttonDuration];
  79              		.loc 1 61 0
  80 0008 0448     		ldr	r0, .L5+4
  81 000a E123     		movs	r3, #225
  82 000c DB00     		lsls	r3, r3, #3
  83 000e 4360     		str	r3, [r0, #4]
  62:ButtonManager.c ****     tmrFuncAdd(&buttonHoldTimer);
  84              		.loc 1 62 0
  85 0010 FFF7FEFF 		bl	tmrFuncAdd
  86              	.LVL0:
  63:ButtonManager.c **** }
  87              		.loc 1 63 0
  88              		@ sp needed
  89 0014 10BD     		pop	{r4, pc}
  90              	.L6:
  91 0016 C046     		.align	2
  92              	.L5:
  93 0018 00000000 		.word	.LANCHOR0
  94 001c 00000000 		.word	.LANCHOR2
  95              		.cfi_endproc
  96              	.LFE3:
  97              		.size	buttonManagerStartHoldTimer, .-buttonManagerStartHoldTimer
  98              		.section	.text.buttonManagerInit,"ax",%progbits
  99              		.align	2
 100              		.global	buttonManagerInit
 101              		.code	16
 102              		.thumb_func
 103              		.type	buttonManagerInit, %function
 104              	buttonManagerInit:
 105              	.LFB5:
  64:ButtonManager.c **** 
  65:ButtonManager.c **** static void buttonManagerHandleButtonEvents(BM_DURATION_e e)
  66:ButtonManager.c **** {
ARM GAS  C:\Users\TERENC~1\AppData\Local\Temp\ccUmRCtw.s 			page 4


  67:ButtonManager.c ****     switch (e)
  68:ButtonManager.c ****     {
  69:ButtonManager.c ****         case BM_DURATION_PRESS:
  70:ButtonManager.c ****         case BM_DURATION_PRESS_RELEASE:
  71:ButtonManager.c ****         case BM_DURATION_NONE:
  72:ButtonManager.c ****         default:
  73:ButtonManager.c ****             break;
  74:ButtonManager.c ****     }
  75:ButtonManager.c **** }
  76:ButtonManager.c **** 
  77:ButtonManager.c **** void buttonManagerInit(void)
  78:ButtonManager.c **** {
 106              		.loc 1 78 0
 107              		.cfi_startproc
 108              		@ args = 0, pretend = 0, frame = 0
 109              		@ frame_needed = 0, uses_anonymous_args = 0
 110 0000 10B5     		push	{r4, lr}
 111              		.cfi_def_cfa_offset 8
 112              		.cfi_offset 4, -8
 113              		.cfi_offset 14, -4
  79:ButtonManager.c ****     buttonEvents = 0;
 114              		.loc 1 79 0
 115 0002 0023     		movs	r3, #0
 116 0004 034A     		ldr	r2, .L8
 117 0006 1360     		str	r3, [r2]
  80:ButtonManager.c ****     buttonDuration = BM_DURATION_NONE;
 118              		.loc 1 80 0
 119 0008 034A     		ldr	r2, .L8+4
 120 000a 1370     		strb	r3, [r2]
  81:ButtonManager.c ****     buttonInit();
 121              		.loc 1 81 0
 122 000c FFF7FEFF 		bl	buttonInit
 123              	.LVL1:
  82:ButtonManager.c **** }
 124              		.loc 1 82 0
 125              		@ sp needed
 126 0010 10BD     		pop	{r4, pc}
 127              	.L9:
 128 0012 C046     		.align	2
 129              	.L8:
 130 0014 00000000 		.word	buttonEvents
 131 0018 00000000 		.word	.LANCHOR0
 132              		.cfi_endproc
 133              	.LFE5:
 134              		.size	buttonManagerInit, .-buttonManagerInit
 135              		.section	.text.buttonManagerService,"ax",%progbits
 136              		.align	2
 137              		.global	buttonManagerService
 138              		.code	16
 139              		.thumb_func
 140              		.type	buttonManagerService, %function
 141              	buttonManagerService:
 142              	.LFB6:
  83:ButtonManager.c **** 
  84:ButtonManager.c **** void buttonManagerService(void)
  85:ButtonManager.c **** {
 143              		.loc 1 85 0
ARM GAS  C:\Users\TERENC~1\AppData\Local\Temp\ccUmRCtw.s 			page 5


 144              		.cfi_startproc
 145              		@ args = 0, pretend = 0, frame = 0
 146              		@ frame_needed = 0, uses_anonymous_args = 0
 147 0000 10B5     		push	{r4, lr}
 148              		.cfi_def_cfa_offset 8
 149              		.cfi_offset 4, -8
 150              		.cfi_offset 14, -4
  86:ButtonManager.c ****     if (buttonCheckEvents(BUTTON_EVENTS_LL_PRESS))
 151              		.loc 1 86 0
 152 0002 2C4B     		ldr	r3, .L20
 153 0004 1B68     		ldr	r3, [r3]
 154 0006 DB07     		lsls	r3, r3, #31
 155 0008 17D5     		bpl	.L11
  87:ButtonManager.c ****     {
  88:ButtonManager.c ****         PRINTF("BUTTON_EVENTS_LL_PRESS\n");
 156              		.loc 1 88 0
 157 000a FFF7FEFF 		bl	USBUART_GetConfiguration
 158              	.LVL2:
 159 000e 0028     		cmp	r0, #0
 160 0010 0CD0     		beq	.L12
 161              	.L13:
 162              		.loc 1 88 0 is_stmt 0 discriminator 1
 163 0012 FFF7FEFF 		bl	USBUART_CDCIsReady
 164              	.LVL3:
 165 0016 0028     		cmp	r0, #0
 166 0018 FBD0     		beq	.L13
 167              		.loc 1 88 0 discriminator 2
 168 001a 274C     		ldr	r4, .L20+4
 169 001c 1822     		movs	r2, #24
 170 001e 2749     		ldr	r1, .L20+8
 171 0020 2000     		movs	r0, r4
 172 0022 FFF7FEFF 		bl	memcpy
 173              	.LVL4:
 174 0026 2000     		movs	r0, r4
 175 0028 FFF7FEFF 		bl	USBUART_PutString
 176              	.LVL5:
 177              	.L12:
  89:ButtonManager.c ****         buttonManagerStartHoldTimer();
 178              		.loc 1 89 0 is_stmt 1
 179 002c FFF7FEFF 		bl	buttonManagerStartHoldTimer
 180              	.LVL6:
  90:ButtonManager.c ****         buttonClearEvents(BUTTON_EVENTS_LL_PRESS);
 181              		.loc 1 90 0
 182 0030 204A     		ldr	r2, .L20
 183 0032 1368     		ldr	r3, [r2]
 184 0034 0121     		movs	r1, #1
 185 0036 8B43     		bics	r3, r1
 186 0038 1360     		str	r3, [r2]
 187              	.L11:
  91:ButtonManager.c ****     }
  92:ButtonManager.c ****     
  93:ButtonManager.c ****     if (buttonCheckEvents(BUTTON_EVENTS_LL_RELEASE))
 188              		.loc 1 93 0
 189 003a 1E4B     		ldr	r3, .L20
 190 003c 1B68     		ldr	r3, [r3]
 191 003e 9B07     		lsls	r3, r3, #30
 192 0040 1BD5     		bpl	.L14
ARM GAS  C:\Users\TERENC~1\AppData\Local\Temp\ccUmRCtw.s 			page 6


  94:ButtonManager.c ****     {
  95:ButtonManager.c ****         PRINTF("BUTTON_EVENTS_LL_RELEASE\n");
 193              		.loc 1 95 0
 194 0042 FFF7FEFF 		bl	USBUART_GetConfiguration
 195              	.LVL7:
 196 0046 0028     		cmp	r0, #0
 197 0048 0CD0     		beq	.L15
 198              	.L16:
 199              		.loc 1 95 0 is_stmt 0 discriminator 1
 200 004a FFF7FEFF 		bl	USBUART_CDCIsReady
 201              	.LVL8:
 202 004e 0028     		cmp	r0, #0
 203 0050 FBD0     		beq	.L16
 204              		.loc 1 95 0 discriminator 2
 205 0052 194C     		ldr	r4, .L20+4
 206 0054 1A22     		movs	r2, #26
 207 0056 1A49     		ldr	r1, .L20+12
 208 0058 2000     		movs	r0, r4
 209 005a FFF7FEFF 		bl	memcpy
 210              	.LVL9:
 211 005e 2000     		movs	r0, r4
 212 0060 FFF7FEFF 		bl	USBUART_PutString
 213              	.LVL10:
 214              	.L15:
  96:ButtonManager.c ****         // Kill timer
  97:ButtonManager.c ****         tmrFuncDelete(&buttonHoldTimer);
 215              		.loc 1 97 0 is_stmt 1
 216 0064 1748     		ldr	r0, .L20+16
 217 0066 FFF7FEFF 		bl	tmrFuncDelete
 218              	.LVL11:
  98:ButtonManager.c ****         // +1 for "Release" version of "press"
  99:ButtonManager.c ****         buttonDuration++;
 100:ButtonManager.c ****         // Convert from BM_DURATION_e to BUTTON_EVENTS simply by bit-shifting
 101:ButtonManager.c ****         buttonManagerHandleButtonEvents(buttonDuration);
 102:ButtonManager.c ****         // Reset button duration
 103:ButtonManager.c ****         buttonDuration = BM_DURATION_NONE;
 219              		.loc 1 103 0
 220 006a 0022     		movs	r2, #0
 221 006c 164B     		ldr	r3, .L20+20
 222 006e 1A70     		strb	r2, [r3]
 104:ButtonManager.c ****         buttonClearEvents(BUTTON_EVENTS_LL_RELEASE);
 223              		.loc 1 104 0
 224 0070 104A     		ldr	r2, .L20
 225 0072 1368     		ldr	r3, [r2]
 226 0074 0221     		movs	r1, #2
 227 0076 8B43     		bics	r3, r1
 228 0078 1360     		str	r3, [r2]
 229              	.L14:
 105:ButtonManager.c ****     }
 106:ButtonManager.c ****     
 107:ButtonManager.c ****     if (buttonCheckEvents(BUTTON_EVENTS_HOLD_TIMEOUT))
 230              		.loc 1 107 0
 231 007a 0E4B     		ldr	r3, .L20
 232 007c 1B68     		ldr	r3, [r3]
 233 007e 5B07     		lsls	r3, r3, #29
 234 0080 16D5     		bpl	.L10
 108:ButtonManager.c ****     {
ARM GAS  C:\Users\TERENC~1\AppData\Local\Temp\ccUmRCtw.s 			page 7


 109:ButtonManager.c ****         PRINTF("BUTTON_EVENTS_HOLD_TIMEOUT: %d\n", buttonDuration);
 235              		.loc 1 109 0
 236 0082 FFF7FEFF 		bl	USBUART_GetConfiguration
 237              	.LVL12:
 238 0086 0028     		cmp	r0, #0
 239 0088 0DD0     		beq	.L18
 240              	.L19:
 241              		.loc 1 109 0 is_stmt 0 discriminator 1
 242 008a FFF7FEFF 		bl	USBUART_CDCIsReady
 243              	.LVL13:
 244 008e 0028     		cmp	r0, #0
 245 0090 FBD0     		beq	.L19
 246              		.loc 1 109 0 discriminator 2
 247 0092 0D4B     		ldr	r3, .L20+20
 248 0094 1A78     		ldrb	r2, [r3]
 249 0096 084C     		ldr	r4, .L20+4
 250 0098 0C49     		ldr	r1, .L20+24
 251 009a 2000     		movs	r0, r4
 252 009c FFF7FEFF 		bl	sprintf
 253              	.LVL14:
 254 00a0 2000     		movs	r0, r4
 255 00a2 FFF7FEFF 		bl	USBUART_PutString
 256              	.LVL15:
 257              	.L18:
 110:ButtonManager.c ****         buttonManagerHandleButtonEvents(buttonDuration);
 111:ButtonManager.c ****         buttonClearEvents(BUTTON_EVENTS_HOLD_TIMEOUT);
 258              		.loc 1 111 0 is_stmt 1
 259 00a6 034A     		ldr	r2, .L20
 260 00a8 1368     		ldr	r3, [r2]
 261 00aa 0421     		movs	r1, #4
 262 00ac 8B43     		bics	r3, r1
 263 00ae 1360     		str	r3, [r2]
 264              	.L10:
 112:ButtonManager.c ****     }
 113:ButtonManager.c **** }...
 265              		.loc 1 113 0
 266              		@ sp needed
 267 00b0 10BD     		pop	{r4, pc}
 268              	.L21:
 269 00b2 C046     		.align	2
 270              	.L20:
 271 00b4 00000000 		.word	buttonEvents
 272 00b8 00000000 		.word	gbuf
 273 00bc 00000000 		.word	.LC9
 274 00c0 18000000 		.word	.LC11
 275 00c4 00000000 		.word	.LANCHOR2
 276 00c8 00000000 		.word	.LANCHOR0
 277 00cc 34000000 		.word	.LC15
 278              		.cfi_endproc
 279              	.LFE6:
 280              		.size	buttonManagerService, .-buttonManagerService
 281              		.comm	buttonEvents,4,4
 282              		.section	.rodata
 283              		.align	2
 284              		.set	.LANCHOR1,. + 0
 285              		.type	bm_durations_ms, %object
 286              		.size	bm_durations_ms, 44
ARM GAS  C:\Users\TERENC~1\AppData\Local\Temp\ccUmRCtw.s 			page 8


 287              	bm_durations_ms:
 288 0000 00000000 		.word	0
 289 0004 08070000 		.word	1800
 290 0008 08070000 		.word	1800
 291 000c B80B0000 		.word	3000
 292 0010 B80B0000 		.word	3000
 293 0014 88130000 		.word	5000
 294 0018 88130000 		.word	5000
 295 001c 983A0000 		.word	15000
 296 0020 983A0000 		.word	15000
 297 0024 FFFFFFFF 		.word	-1
 298 0028 FFFFFFFF 		.word	-1
 299              		.data
 300              		.align	2
 301              		.set	.LANCHOR2,. + 0
 302              		.type	buttonHoldTimer, %object
 303              		.size	buttonHoldTimer, 12
 304              	buttonHoldTimer:
 305 0000 00000000 		.space	4
 306 0004 00000000 		.word	0
 307 0008 00000000 		.word	button_hold_timeout_callback
 308              		.section	.rodata.str1.4,"aMS",%progbits,1
 309              		.align	2
 310              	.LC9:
 311 0000 42555454 		.ascii	"BUTTON_EVENTS_LL_PRESS\012\000"
 311      4F4E5F45 
 311      56454E54 
 311      535F4C4C 
 311      5F505245 
 312              	.LC11:
 313 0018 42555454 		.ascii	"BUTTON_EVENTS_LL_RELEASE\012\000"
 313      4F4E5F45 
 313      56454E54 
 313      535F4C4C 
 313      5F52454C 
 314 0032 0000     		.space	2
 315              	.LC15:
 316 0034 42555454 		.ascii	"BUTTON_EVENTS_HOLD_TIMEOUT: %d\012\000"
 316      4F4E5F45 
 316      56454E54 
 316      535F484F 
 316      4C445F54 
 317              		.bss
 318              		.set	.LANCHOR0,. + 0
 319              		.type	buttonDuration, %object
 320              		.size	buttonDuration, 1
 321              	buttonDuration:
 322 0000 00       		.space	1
 323              		.text
 324              	.Letext0:
 325              		.file 2 "c:\\program files (x86)\\cypress\\psoc creator\\4.2\\psoc creator\\import\\gnu\\arm\\5.4.
 326              		.file 3 "c:\\program files (x86)\\cypress\\psoc creator\\4.2\\psoc creator\\import\\gnu\\arm\\5.4.
 327              		.file 4 "./timers.h"
 328              		.file 5 "./Application.h"
 329              		.file 6 "./Button.h"
 330              		.file 7 "Generated_Source\\PSoC4/USBUART.h"
 331              		.file 8 "Generated_Source\\PSoC4/USBUART_cdc.h"
ARM GAS  C:\Users\TERENC~1\AppData\Local\Temp\ccUmRCtw.s 			page 9


 332              		.file 9 "c:\\program files (x86)\\cypress\\psoc creator\\4.2\\psoc creator\\import\\gnu\\arm\\5.4.