ARM GAS  C:\Users\TERENC~1\AppData\Local\Temp\ccco7pHO.s 			page 1


   1              		.syntax unified
   2              		.cpu cortex-m0
   3              		.fpu softvfp
   4              		.eabi_attribute 20, 1
   5              		.eabi_attribute 21, 1
   6              		.eabi_attribute 23, 3
   7              		.eabi_attribute 24, 1
   8              		.eabi_attribute 25, 1
   9              		.eabi_attribute 26, 1
  10              		.eabi_attribute 30, 1
  11              		.eabi_attribute 34, 0
  12              		.eabi_attribute 18, 4
  13              		.thumb
  14              		.syntax unified
  15              		.file	"Calibration.c"
  16              		.text
  17              	.Ltext0:
  18              		.cfi_sections	.debug_frame
  19              		.section	.text.CalibrationInit,"ax",%progbits
  20              		.align	2
  21              		.global	CalibrationInit
  22              		.code	16
  23              		.thumb_func
  24              		.type	CalibrationInit, %function
  25              	CalibrationInit:
  26              	.LFB2:
  27              		.file 1 "Calibration.c"
   1:Calibration.c **** /* ========================================
   2:Calibration.c ****  *
   3:Calibration.c ****  * Copyright YOUR COMPANY, THE YEAR
   4:Calibration.c ****  * All Rights Reserved
   5:Calibration.c ****  * UNPUBLISHED, LICENSED SOFTWARE.
   6:Calibration.c ****  *
   7:Calibration.c ****  * CONFIDENTIAL AND PROPRIETARY INFORMATION
   8:Calibration.c ****  * WHICH IS THE PROPERTY OF your company.
   9:Calibration.c ****  *
  10:Calibration.c ****  * ========================================
  11:Calibration.c **** */
  12:Calibration.c **** #include <Calibration.h>
  13:Calibration.c **** #include <CyFlash.h>
  14:Calibration.c **** 
  15:Calibration.c **** #define CALIB_SIGN              0xDEADBEEF
  16:Calibration.c **** 
  17:Calibration.c **** /* Defines second ROW from the last ROW */
  18:Calibration.c **** #define CY_TEST_FLASH_ROW       (CY_FLASH_NUMBER_ROWS - 2u)
  19:Calibration.c **** 
  20:Calibration.c **** /* Defines absolut address of ROW */
  21:Calibration.c **** #define CY_TEST_FLASH_ADDR      (CY_TEST_FLASH_ROW * CY_FLASH_SIZEOF_ROW)
  22:Calibration.c **** 
  23:Calibration.c **** static uint8 page[CY_FLASH_SIZEOF_ROW];
  24:Calibration.c **** 
  25:Calibration.c **** calibration_data_s *cal_data;
  26:Calibration.c **** 
  27:Calibration.c **** void CalibrationInit(void)
  28:Calibration.c **** {
  28              		.loc 1 28 0
  29              		.cfi_startproc
ARM GAS  C:\Users\TERENC~1\AppData\Local\Temp\ccco7pHO.s 			page 2


  30              		@ args = 0, pretend = 0, frame = 0
  31              		@ frame_needed = 0, uses_anonymous_args = 0
  32 0000 10B5     		push	{r4, lr}
  33              		.cfi_def_cfa_offset 8
  34              		.cfi_offset 4, -8
  35              		.cfi_offset 14, -4
  36              	.LVL0:
  29:Calibration.c ****     calibration_data_s *pCal = (calibration_data_s *)(CY_TEST_FLASH_ADDR);
  30:Calibration.c ****     cal_data = (calibration_data_s *)page;
  37              		.loc 1 30 0
  38 0002 114A     		ldr	r2, .L4
  39 0004 114B     		ldr	r3, .L4+4
  40 0006 1A60     		str	r2, [r3]
  31:Calibration.c ****     
  32:Calibration.c ****     if (pCal->signature == CALIB_SIGN)
  41              		.loc 1 32 0
  42 0008 FE23     		movs	r3, #254
  43 000a 1B02     		lsls	r3, r3, #8
  44 000c 1A68     		ldr	r2, [r3]
  45 000e 104B     		ldr	r3, .L4+8
  46 0010 9A42     		cmp	r2, r3
  47 0012 09D1     		bne	.L2
  33:Calibration.c ****     {
  34:Calibration.c ****         memcpy((void *)cal_data, (void *)pCal, sizeof(calibration_data_s));
  48              		.loc 1 34 0
  49 0014 0C49     		ldr	r1, .L4
  50 0016 FE20     		movs	r0, #254
  51 0018 0002     		lsls	r0, r0, #8
  52 001a 0B00     		movs	r3, r1
  53 001c 0200     		movs	r2, r0
  54 001e 13CA     		ldmia	r2!, {r0, r1, r4}
  55 0020 13C3     		stmia	r3!, {r0, r1, r4}
  56 0022 03CA     		ldmia	r2!, {r0, r1}
  57 0024 03C3     		stmia	r3!, {r0, r1}
  58 0026 0EE0     		b	.L1
  59              	.L2:
  35:Calibration.c ****     }
  36:Calibration.c ****     else
  37:Calibration.c ****     {
  38:Calibration.c ****         cal_data->signature = CALIB_SIGN;
  60              		.loc 1 38 0
  61 0028 074B     		ldr	r3, .L4
  62 002a 094A     		ldr	r2, .L4+8
  63 002c 1A60     		str	r2, [r3]
  39:Calibration.c ****         
  40:Calibration.c ****         cal_data->counter = 1;
  64              		.loc 1 40 0
  65 002e 0122     		movs	r2, #1
  66 0030 5A60     		str	r2, [r3, #4]
  41:Calibration.c **** 
  42:Calibration.c ****         cal_data->adc_min[vol_ctrl_right] = -2;
  67              		.loc 1 42 0
  68 0032 033A     		subs	r2, r2, #3
  69 0034 1A81     		strh	r2, [r3, #8]
  43:Calibration.c ****         cal_data->adc_min[vol_ctrl_left] = -2;
  70              		.loc 1 43 0
  71 0036 5A81     		strh	r2, [r3, #10]
ARM GAS  C:\Users\TERENC~1\AppData\Local\Temp\ccco7pHO.s 			page 3


  44:Calibration.c **** 
  45:Calibration.c ****         cal_data->adc_max[vol_ctrl_right] = 2047;
  72              		.loc 1 45 0
  73 0038 064A     		ldr	r2, .L4+12
  74 003a 9A81     		strh	r2, [r3, #12]
  46:Calibration.c ****         cal_data->adc_max[vol_ctrl_left] = 2047;
  75              		.loc 1 46 0
  76 003c DA81     		strh	r2, [r3, #14]
  47:Calibration.c **** 
  48:Calibration.c ****         cal_data->led_max_brightness = 50;
  77              		.loc 1 48 0
  78 003e 3222     		movs	r2, #50
  79 0040 1A74     		strb	r2, [r3, #16]
  49:Calibration.c ****         
  50:Calibration.c ****         cal_data->debug_mask = 0xFF;
  80              		.loc 1 50 0
  81 0042 CD32     		adds	r2, r2, #205
  82 0044 5A74     		strb	r2, [r3, #17]
  83              	.L1:
  51:Calibration.c ****     }
  52:Calibration.c **** }
  84              		.loc 1 52 0
  85              		@ sp needed
  86 0046 10BD     		pop	{r4, pc}
  87              	.L5:
  88              		.align	2
  89              	.L4:
  90 0048 00000000 		.word	.LANCHOR0
  91 004c 00000000 		.word	cal_data
  92 0050 EFBEADDE 		.word	-559038737
  93 0054 FF070000 		.word	2047
  94              		.cfi_endproc
  95              	.LFE2:
  96              		.size	CalibrationInit, .-CalibrationInit
  97              		.section	.text.CalibrationRun,"ax",%progbits
  98              		.align	2
  99              		.global	CalibrationRun
 100              		.code	16
 101              		.thumb_func
 102              		.type	CalibrationRun, %function
 103              	CalibrationRun:
 104              	.LFB3:
  53:Calibration.c **** 
  54:Calibration.c **** void CalibrationRun(void)
  55:Calibration.c **** {
 105              		.loc 1 55 0
 106              		.cfi_startproc
 107              		@ args = 0, pretend = 0, frame = 0
 108              		@ frame_needed = 0, uses_anonymous_args = 0
 109              		@ link register save eliminated.
  56:Calibration.c **** }
 110              		.loc 1 56 0
 111              		@ sp needed
 112 0000 7047     		bx	lr
 113              		.cfi_endproc
 114              	.LFE3:
 115              		.size	CalibrationRun, .-CalibrationRun
ARM GAS  C:\Users\TERENC~1\AppData\Local\Temp\ccco7pHO.s 			page 4


 116 0002 C046     		.section	.text.CalibrationSave,"ax",%progbits
 117              		.align	2
 118              		.global	CalibrationSave
 119              		.code	16
 120              		.thumb_func
 121              		.type	CalibrationSave, %function
 122              	CalibrationSave:
 123              	.LFB4:
  57:Calibration.c **** 
  58:Calibration.c **** bool CalibrationSave(void)
  59:Calibration.c **** {
 124              		.loc 1 59 0
 125              		.cfi_startproc
 126              		@ args = 0, pretend = 0, frame = 0
 127              		@ frame_needed = 0, uses_anonymous_args = 0
 128 0000 10B5     		push	{r4, lr}
 129              		.cfi_def_cfa_offset 8
 130              		.cfi_offset 4, -8
 131              		.cfi_offset 14, -4
  60:Calibration.c ****     cystatus returnValue;
  61:Calibration.c **** 
  62:Calibration.c ****     cal_data->counter++;
 132              		.loc 1 62 0
 133 0002 064B     		ldr	r3, .L8
 134 0004 1968     		ldr	r1, [r3]
 135 0006 4B68     		ldr	r3, [r1, #4]
 136 0008 0133     		adds	r3, r3, #1
 137 000a 4B60     		str	r3, [r1, #4]
  63:Calibration.c **** 
  64:Calibration.c ****     returnValue = CySysFlashWriteRow(CY_TEST_FLASH_ROW, (uint8 *)cal_data);
 138              		.loc 1 64 0
 139 000c FE20     		movs	r0, #254
 140 000e FFF7FEFF 		bl	CySysFlashWriteRow
 141              	.LVL1:
 142 0012 0300     		movs	r3, r0
 143              	.LVL2:
  65:Calibration.c **** 
  66:Calibration.c ****     /* Check if operation is successful */
  67:Calibration.c ****     return (returnValue == CY_SYS_FLASH_SUCCESS);
 144              		.loc 1 67 0
 145 0014 5842     		rsbs	r0, r3, #0
 146 0016 5841     		adcs	r0, r0, r3
 147              	.LVL3:
 148 0018 C0B2     		uxtb	r0, r0
  68:Calibration.c **** }
 149              		.loc 1 68 0
 150              		@ sp needed
 151 001a 10BD     		pop	{r4, pc}
 152              	.L9:
 153              		.align	2
 154              	.L8:
 155 001c 00000000 		.word	cal_data
 156              		.cfi_endproc
 157              	.LFE4:
 158              		.size	CalibrationSave, .-CalibrationSave
 159              		.comm	cal_data,4,4
 160              		.bss
ARM GAS  C:\Users\TERENC~1\AppData\Local\Temp\ccco7pHO.s 			page 5


 161              		.align	2
 162              		.set	.LANCHOR0,. + 0
 163              		.type	page, %object
 164              		.size	page, 256
 165              	page:
 166 0000 00000000 		.space	256
 166      00000000 
 166      00000000 
 166      00000000 
 166      00000000 
 167              		.text
 168              	.Letext0:
 169              		.file 2 "Generated_Source\\PSoC4/cytypes.h"
 170              		.file 3 "./Calibration.h"
 171              		.file 4 "./VolumeControl.h"
 172              		.file 5 "Generated_Source\\PSoC4/CyFlash.h"