ARM GAS  C:\Users\TERENC~1\AppData\Local\Temp\ccl7zEj9.s 			page 1


   1              		.syntax unified
   2              		.cpu cortex-m0
   3              		.fpu softvfp
   4              		.eabi_attribute 20, 1
   5              		.eabi_attribute 21, 1
   6              		.eabi_attribute 23, 3
   7              		.eabi_attribute 24, 1
   8              		.eabi_attribute 25, 1
   9              		.eabi_attribute 26, 1
  10              		.eabi_attribute 30, 1
  11              		.eabi_attribute 34, 0
  12              		.eabi_attribute 18, 4
  13              		.thumb
  14              		.syntax unified
  15              		.file	"cc85xx.c"
  16              		.text
  17              	.Ltext0:
  18              		.cfi_sections	.debug_frame
  19              		.section	.text.cc85xx_reset,"ax",%progbits
  20              		.align	2
  21              		.code	16
  22              		.thumb_func
  23              		.type	cc85xx_reset, %function
  24              	cc85xx_reset:
  25              	.LFB3:
  26              		.file 1 "cc85xx.c"
   1:cc85xx.c      **** /* ========================================
   2:cc85xx.c      ****  *
   3:cc85xx.c      ****  * Copyright YOUR COMPANY, THE YEAR
   4:cc85xx.c      ****  * All Rights Reserved
   5:cc85xx.c      ****  * UNPUBLISHED, LICENSED SOFTWARE.
   6:cc85xx.c      ****  *
   7:cc85xx.c      ****  * CONFIDENTIAL AND PROPRIETARY INFORMATION
   8:cc85xx.c      ****  * WHICH IS THE PROPERTY OF your company.
   9:cc85xx.c      ****  *
  10:cc85xx.c      ****  * ========================================
  11:cc85xx.c      **** */
  12:cc85xx.c      **** #include <cc85xx.h>
  13:cc85xx.c      **** #include <SPI.h>
  14:cc85xx.c      **** #include <SPI_SPI_UART.h>
  15:cc85xx.c      **** #include <RSTn.h>
  16:cc85xx.c      **** #include <timers.h>
  17:cc85xx.c      **** #include <Application.h>
  18:cc85xx.c      **** #include <utils.h>
  19:cc85xx.c      **** 
  20:cc85xx.c      **** #define CC85XX_WAIT_FOR_OPERATION_TIMEOUT_MS  (1000)
  21:cc85xx.c      **** #define CC85XX_PAGE_SIZE                      (1024) // 1KB
  22:cc85xx.c      **** 
  23:cc85xx.c      **** static uint32_t nImageBytes;
  24:cc85xx.c      **** 
  25:cc85xx.c      **** 
  26:cc85xx.c      **** static bool cc85xx_wait_for_status(uint16_t expectedStatus, uint32_t timeout, uint16_t *pStatus)
  27:cc85xx.c      **** {
  28:cc85xx.c      ****   uint32_t start = tmrGetCounter_ms();
  29:cc85xx.c      ****   
  30:cc85xx.c      ****   do
  31:cc85xx.c      ****   {
ARM GAS  C:\Users\TERENC~1\AppData\Local\Temp\ccl7zEj9.s 			page 2


  32:cc85xx.c      ****     *pStatus = cc85xx_get_status();
  33:cc85xx.c      ****   } while ((*pStatus != expectedStatus) && (tmrGetElapsedMs(start) < timeout));
  34:cc85xx.c      ****   
  35:cc85xx.c      ****   return (*pStatus == expectedStatus);
  36:cc85xx.c      **** }
  37:cc85xx.c      **** 
  38:cc85xx.c      **** static bool cc85xx_reset(bool boot)
  39:cc85xx.c      **** {
  27              		.loc 1 39 0
  28              		.cfi_startproc
  29              		@ args = 0, pretend = 0, frame = 0
  30              		@ frame_needed = 0, uses_anonymous_args = 0
  31              	.LVL0:
  32 0000 70B5     		push	{r4, r5, r6, lr}
  33              		.cfi_def_cfa_offset 16
  34              		.cfi_offset 4, -16
  35              		.cfi_offset 5, -12
  36              		.cfi_offset 6, -8
  37              		.cfi_offset 14, -4
  38 0002 0400     		movs	r4, r0
  39              	.LVL1:
  40:cc85xx.c      ****   uint32_t start;
  41:cc85xx.c      ****   uint8_t before;
  42:cc85xx.c      ****   bool ret = false;
  43:cc85xx.c      **** 
  44:cc85xx.c      ****   RSTn_SetDriveMode(RSTn_DM_STRONG);
  40              		.loc 1 44 0
  41 0004 0620     		movs	r0, #6
  42              	.LVL2:
  43 0006 FFF7FEFF 		bl	RSTn_SetDriveMode
  44              	.LVL3:
  45:cc85xx.c      ****   RSTn_Write(0);
  45              		.loc 1 45 0
  46 000a 0020     		movs	r0, #0
  47 000c FFF7FEFF 		bl	RSTn_Write
  48              	.LVL4:
  46:cc85xx.c      ****   
  47:cc85xx.c      ****   SPI_ss0_m_SetDriveMode(SPI_ss0_m_DM_STRONG);
  49              		.loc 1 47 0
  50 0010 0620     		movs	r0, #6
  51 0012 FFF7FEFF 		bl	SPI_ss0_m_SetDriveMode
  52              	.LVL5:
  48:cc85xx.c      ****   SPI_ss0_m_Write(0);
  53              		.loc 1 48 0
  54 0016 0020     		movs	r0, #0
  55 0018 FFF7FEFF 		bl	SPI_ss0_m_Write
  56              	.LVL6:
  49:cc85xx.c      ****   
  50:cc85xx.c      ****   /* Set output pin state after block is disabled */
  51:cc85xx.c      ****   //SPI_mosi_m_Write(SPI_GET_SPI_MOSI_INACTIVE);
  52:cc85xx.c      **** 
  53:cc85xx.c      ****   /* Set GPIO to drive output pin */
  54:cc85xx.c      ****   SPI_SET_HSIOM_SEL(SPI_MOSI_M_HSIOM_REG, SPI_MOSI_M_HSIOM_MASK,
  57              		.loc 1 54 0
  58 001c 264A     		ldr	r2, .L10
  59 001e 1368     		ldr	r3, [r2]
  60 0020 0F21     		movs	r1, #15
ARM GAS  C:\Users\TERENC~1\AppData\Local\Temp\ccl7zEj9.s 			page 3


  61 0022 8B43     		bics	r3, r1
  62 0024 1360     		str	r3, [r2]
  55:cc85xx.c      ****                                  SPI_MOSI_M_HSIOM_POS, SPI_MOSI_M_HSIOM_SEL_GPIO);
  56:cc85xx.c      **** 
  57:cc85xx.c      ****   SPI_mosi_m_SetDriveMode(SPI_mosi_m_DM_STRONG);
  63              		.loc 1 57 0
  64 0026 0620     		movs	r0, #6
  65 0028 FFF7FEFF 		bl	SPI_mosi_m_SetDriveMode
  66              	.LVL7:
  58:cc85xx.c      **** 
  59:cc85xx.c      ****   if (boot)
  67              		.loc 1 59 0
  68 002c 002C     		cmp	r4, #0
  69 002e 03D0     		beq	.L2
  60:cc85xx.c      ****   {
  61:cc85xx.c      ****     SPI_mosi_m_Write(0);
  70              		.loc 1 61 0
  71 0030 0020     		movs	r0, #0
  72 0032 FFF7FEFF 		bl	SPI_mosi_m_Write
  73              	.LVL8:
  74 0036 02E0     		b	.L3
  75              	.L2:
  62:cc85xx.c      ****   }
  63:cc85xx.c      ****   else
  64:cc85xx.c      ****   {
  65:cc85xx.c      ****     SPI_mosi_m_Write(1);
  76              		.loc 1 65 0
  77 0038 0120     		movs	r0, #1
  78 003a FFF7FEFF 		bl	SPI_mosi_m_Write
  79              	.LVL9:
  80              	.L3:
  66:cc85xx.c      ****   }
  67:cc85xx.c      ****   
  68:cc85xx.c      ****   CyDelay(3);
  81              		.loc 1 68 0
  82 003e 0320     		movs	r0, #3
  83 0040 FFF7FEFF 		bl	CyDelay
  84              	.LVL10:
  69:cc85xx.c      ****   
  70:cc85xx.c      ****   RSTn_Write(1);
  85              		.loc 1 70 0
  86 0044 0120     		movs	r0, #1
  87 0046 FFF7FEFF 		bl	RSTn_Write
  88              	.LVL11:
  71:cc85xx.c      ****   
  72:cc85xx.c      ****   CyDelayUs(6);
  89              		.loc 1 72 0
  90 004a 0620     		movs	r0, #6
  91 004c FFF7FEFF 		bl	CyDelayUs
  92              	.LVL12:
  73:cc85xx.c      ****   
  74:cc85xx.c      ****   SPI_ss0_m_Write(1);
  93              		.loc 1 74 0
  94 0050 0120     		movs	r0, #1
  95 0052 FFF7FEFF 		bl	SPI_ss0_m_Write
  96              	.LVL13:
  75:cc85xx.c      ****   CyDelayUs(2);
ARM GAS  C:\Users\TERENC~1\AppData\Local\Temp\ccl7zEj9.s 			page 4


  97              		.loc 1 75 0
  98 0056 0220     		movs	r0, #2
  99 0058 FFF7FEFF 		bl	CyDelayUs
 100              	.LVL14:
  76:cc85xx.c      ****   SPI_ss0_m_Write(0);
 101              		.loc 1 76 0
 102 005c 0020     		movs	r0, #0
 103 005e FFF7FEFF 		bl	SPI_ss0_m_Write
 104              	.LVL15:
  77:cc85xx.c      ****   
  78:cc85xx.c      ****   /* Set GPIO to drive output pin */
  79:cc85xx.c      ****   //SPI_SET_HSIOM_SEL(SPI_MISO_M_HSIOM_REG, SPI_MISO_M_HSIOM_MASK,
  80:cc85xx.c      ****   //                               SPI_MISO_M_HSIOM_POS, SPI_MISO_M_HSIOM_SEL_GPIO);
  81:cc85xx.c      ****   
  82:cc85xx.c      ****   //SPI_miso_m_SetDriveMode(SPI_miso_m_DM_RES_UPDWN);
  83:cc85xx.c      ****   
  84:cc85xx.c      ****   before = SPI_miso_m_Read();
 105              		.loc 1 84 0
 106 0062 FFF7FEFF 		bl	SPI_miso_m_Read
 107              	.LVL16:
 108 0066 0400     		movs	r4, r0
 109              	.LVL17:
  85:cc85xx.c      **** 
  86:cc85xx.c      ****   start = tmrGetCounter_ms();
 110              		.loc 1 86 0
 111 0068 144B     		ldr	r3, .L10+4
 112 006a 1D68     		ldr	r5, [r3]
 113              	.LVL18:
 114              	.L5:
  87:cc85xx.c      ****   while (SPI_miso_m_Read() == 0 && tmrGetElapsedMs(start) < 1000);
 115              		.loc 1 87 0 discriminator 2
 116 006c FFF7FEFF 		bl	SPI_miso_m_Read
 117              	.LVL19:
 118 0070 0028     		cmp	r0, #0
 119 0072 05D1     		bne	.L4
 120              		.loc 1 87 0 is_stmt 0 discriminator 1
 121 0074 114B     		ldr	r3, .L10+4
 122 0076 1B68     		ldr	r3, [r3]
 123 0078 5B1B     		subs	r3, r3, r5
 124 007a 114A     		ldr	r2, .L10+8
 125 007c 9342     		cmp	r3, r2
 126 007e F5D9     		bls	.L5
 127              	.L4:
  88:cc85xx.c      ****   
  89:cc85xx.c      ****   if (SPI_miso_m_Read() && (before != SPI_miso_m_Read()) && (tmrGetElapsedMs(start) < 1000))
 128              		.loc 1 89 0 is_stmt 1
 129 0080 FFF7FEFF 		bl	SPI_miso_m_Read
 130              	.LVL20:
 131 0084 0028     		cmp	r0, #0
 132 0086 0BD0     		beq	.L7
 133              		.loc 1 89 0 is_stmt 0 discriminator 1
 134 0088 FFF7FEFF 		bl	SPI_miso_m_Read
 135              	.LVL21:
 136 008c 8442     		cmp	r4, r0
 137 008e 09D0     		beq	.L8
 138              		.loc 1 89 0 discriminator 2
 139 0090 0A4B     		ldr	r3, .L10+4
ARM GAS  C:\Users\TERENC~1\AppData\Local\Temp\ccl7zEj9.s 			page 5


 140 0092 1B68     		ldr	r3, [r3]
 141 0094 5D1B     		subs	r5, r3, r5
 142              	.LVL22:
 143 0096 0A4B     		ldr	r3, .L10+8
 144 0098 9D42     		cmp	r5, r3
 145 009a 05D8     		bhi	.L9
  90:cc85xx.c      ****   {
  91:cc85xx.c      ****     ret = true;
 146              		.loc 1 91 0 is_stmt 1
 147 009c 0120     		movs	r0, #1
 148 009e 04E0     		b	.L6
 149              	.LVL23:
 150              	.L7:
  92:cc85xx.c      ****   }
  93:cc85xx.c      ****   else
  94:cc85xx.c      ****   {
  95:cc85xx.c      ****     ret = false;
 151              		.loc 1 95 0
 152 00a0 0020     		movs	r0, #0
 153 00a2 02E0     		b	.L6
 154              	.L8:
 155 00a4 0020     		movs	r0, #0
 156 00a6 00E0     		b	.L6
 157              	.LVL24:
 158              	.L9:
 159 00a8 0020     		movs	r0, #0
 160              	.L6:
 161              	.LVL25:
  96:cc85xx.c      ****   }
  97:cc85xx.c      ****   
  98:cc85xx.c      ****   /* Set GPIO to back to SPI */
  99:cc85xx.c      ****   SPI_SET_HSIOM_SEL(SPI_MOSI_M_HSIOM_REG, SPI_MOSI_M_HSIOM_MASK,
 162              		.loc 1 99 0
 163 00aa 034A     		ldr	r2, .L10
 164 00ac 1168     		ldr	r1, [r2]
 165 00ae 0F23     		movs	r3, #15
 166 00b0 0B43     		orrs	r3, r1
 167 00b2 1360     		str	r3, [r2]
 100:cc85xx.c      ****                                SPI_MOSI_M_HSIOM_POS, SPI_MOSI_M_HSIOM_SEL_SPI);
 101:cc85xx.c      ****   
 102:cc85xx.c      ****   return ret;
 103:cc85xx.c      **** }
 168              		.loc 1 103 0
 169              		@ sp needed
 170              	.LVL26:
 171 00b4 70BD     		pop	{r4, r5, r6, pc}
 172              	.L11:
 173 00b6 C046     		.align	2
 174              	.L10:
 175 00b8 00020240 		.word	1073873408
 176 00bc 00000000 		.word	tmrCounter_ms
 177 00c0 E7030000 		.word	999
 178              		.cfi_endproc
 179              	.LFE3:
 180              		.size	cc85xx_reset, .-cc85xx_reset
 181              		.section	.text.cc85xx_spi_read,"ax",%progbits
 182              		.align	2
ARM GAS  C:\Users\TERENC~1\AppData\Local\Temp\ccl7zEj9.s 			page 6


 183              		.code	16
 184              		.thumb_func
 185              		.type	cc85xx_spi_read, %function
 186              	cc85xx_spi_read:
 187              	.LFB4:
 104:cc85xx.c      **** 
 105:cc85xx.c      **** static uint8_t cc85xx_spi_read(void)
 106:cc85xx.c      **** {
 188              		.loc 1 106 0
 189              		.cfi_startproc
 190              		@ args = 0, pretend = 0, frame = 0
 191              		@ frame_needed = 0, uses_anonymous_args = 0
 192 0000 10B5     		push	{r4, lr}
 193              		.cfi_def_cfa_offset 8
 194              		.cfi_offset 4, -8
 195              		.cfi_offset 14, -4
 107:cc85xx.c      ****   //while (SPI_SpiUartGetRxBufferSize() == 0);
 108:cc85xx.c      ****   
 109:cc85xx.c      ****   return (uint8_t)SPI_SpiUartReadRxData();
 196              		.loc 1 109 0
 197 0002 FFF7FEFF 		bl	SPI_SpiUartReadRxData
 198              	.LVL27:
 199 0006 C0B2     		uxtb	r0, r0
 110:cc85xx.c      **** }
 200              		.loc 1 110 0
 201              		@ sp needed
 202 0008 10BD     		pop	{r4, pc}
 203              		.cfi_endproc
 204              	.LFE4:
 205              		.size	cc85xx_spi_read, .-cc85xx_spi_read
 206              		.section	.text.cc85xx_basic_transaction,"ax",%progbits
 207              		.align	2
 208              		.code	16
 209              		.thumb_func
 210              		.type	cc85xx_basic_transaction, %function
 211              	cc85xx_basic_transaction:
 212              	.LFB8:
 111:cc85xx.c      **** 
 112:cc85xx.c      **** bool cc85xx_sys_reset(void)
 113:cc85xx.c      **** {
 114:cc85xx.c      ****   bool ret;
 115:cc85xx.c      **** 
 116:cc85xx.c      ****   SPI_Stop();
 117:cc85xx.c      ****   ret = cc85xx_reset(false);
 118:cc85xx.c      ****   SPI_Start();
 119:cc85xx.c      **** 
 120:cc85xx.c      ****   return ret;
 121:cc85xx.c      **** }
 122:cc85xx.c      **** 
 123:cc85xx.c      **** bool cc85xx_boot_reset(void)
 124:cc85xx.c      **** {
 125:cc85xx.c      ****   bool ret;
 126:cc85xx.c      ****   
 127:cc85xx.c      ****   SPI_Stop();
 128:cc85xx.c      ****   ret = cc85xx_reset(true);
 129:cc85xx.c      ****   SPI_Start();
 130:cc85xx.c      ****   
ARM GAS  C:\Users\TERENC~1\AppData\Local\Temp\ccl7zEj9.s 			page 7


 131:cc85xx.c      ****   return ret;
 132:cc85xx.c      **** }
 133:cc85xx.c      **** 
 134:cc85xx.c      **** uint16_t cc85xx_get_status(void)
 135:cc85xx.c      **** {
 136:cc85xx.c      ****   uint16_t sw = 0;
 137:cc85xx.c      ****   uint8_t txBuffer[] = { 0x80, 0x00 };
 138:cc85xx.c      ****   uint32_t start;
 139:cc85xx.c      **** 
 140:cc85xx.c      ****   SPI_SpiUartPutArray(txBuffer, sizeof(txBuffer));
 141:cc85xx.c      ****   
 142:cc85xx.c      ****   /* Wait for the end of the transfer. The number of transmitted data
 143:cc85xx.c      ****   * elements has to be equal to the number of received data elements.
 144:cc85xx.c      ****   */
 145:cc85xx.c      ****   start = tmrGetCounter_ms();
 146:cc85xx.c      ****   
 147:cc85xx.c      ****   while((sizeof(txBuffer) != SPI_SpiUartGetRxBufferSize()) && (tmrGetElapsedMs(start) < CC85XX_WAIT
 148:cc85xx.c      ****   {
 149:cc85xx.c      ****   }
 150:cc85xx.c      ****   
 151:cc85xx.c      ****   while(SPI_SpiUartGetRxBufferSize() > 0)
 152:cc85xx.c      ****   {
 153:cc85xx.c      ****     sw <<= 8;
 154:cc85xx.c      ****     sw |= (SPI_SpiUartReadRxData() & 0xFF);
 155:cc85xx.c      ****   }
 156:cc85xx.c      **** 
 157:cc85xx.c      ****   /* Clear dummy bytes from RX buffer */
 158:cc85xx.c      ****   SPI_SpiUartClearRxBuffer();
 159:cc85xx.c      ****   
 160:cc85xx.c      ****   return sw;
 161:cc85xx.c      **** }
 162:cc85xx.c      **** 
 163:cc85xx.c      **** static bool cc85xx_basic_transaction(uint8_t *pTxData, uint32_t txLen, uint16_t *pStatus, uint8_t *
 164:cc85xx.c      **** {
 213              		.loc 1 164 0
 214              		.cfi_startproc
 215              		@ args = 4, pretend = 0, frame = 8
 216              		@ frame_needed = 0, uses_anonymous_args = 0
 217              	.LVL28:
 218 0000 F0B5     		push	{r4, r5, r6, r7, lr}
 219              		.cfi_def_cfa_offset 20
 220              		.cfi_offset 4, -20
 221              		.cfi_offset 5, -16
 222              		.cfi_offset 6, -12
 223              		.cfi_offset 7, -8
 224              		.cfi_offset 14, -4
 225 0002 4746     		mov	r7, r8
 226 0004 80B4     		push	{r7}
 227              		.cfi_def_cfa_offset 24
 228              		.cfi_offset 8, -24
 229 0006 82B0     		sub	sp, sp, #8
 230              		.cfi_def_cfa_offset 32
 231 0008 0190     		str	r0, [sp, #4]
 232 000a 0E00     		movs	r6, r1
 233 000c 1500     		movs	r5, r2
 234 000e 1F00     		movs	r7, r3
 235 0010 08AB     		add	r3, sp, #32
ARM GAS  C:\Users\TERENC~1\AppData\Local\Temp\ccl7zEj9.s 			page 8


 236              	.LVL29:
 237 0012 1B88     		ldrh	r3, [r3]
 238              	.LVL30:
 239 0014 9846     		mov	r8, r3
 165:cc85xx.c      ****   uint32_t start = tmrGetCounter_ms();
 240              		.loc 1 165 0
 241 0016 2E4B     		ldr	r3, .L28
 242 0018 1C68     		ldr	r4, [r3]
 243              	.LVL31:
 244              	.L15:
 166:cc85xx.c      ****   uint32_t i;
 167:cc85xx.c      **** 
 168:cc85xx.c      ****   /* Wait for previous operation to complete */
 169:cc85xx.c      ****   while (SPI_miso_m_Read() == 0 && tmrGetElapsedMs(start) < CC85XX_WAIT_FOR_OPERATION_TIMEOUT_MS);
 245              		.loc 1 169 0 discriminator 2
 246 001a FFF7FEFF 		bl	SPI_miso_m_Read
 247              	.LVL32:
 248 001e 0028     		cmp	r0, #0
 249 0020 05D1     		bne	.L14
 250              		.loc 1 169 0 is_stmt 0 discriminator 1
 251 0022 2B4B     		ldr	r3, .L28
 252 0024 1B68     		ldr	r3, [r3]
 253 0026 1B1B     		subs	r3, r3, r4
 254 0028 2A4A     		ldr	r2, .L28+4
 255 002a 9342     		cmp	r3, r2
 256 002c F5D9     		bls	.L15
 257              	.L14:
 170:cc85xx.c      ****   
 171:cc85xx.c      ****   if (tmrGetElapsedMs(start) >= CC85XX_WAIT_FOR_OPERATION_TIMEOUT_MS)
 258              		.loc 1 171 0 is_stmt 1
 259 002e 284B     		ldr	r3, .L28
 260 0030 1B68     		ldr	r3, [r3]
 261 0032 1C1B     		subs	r4, r3, r4
 262              	.LVL33:
 263 0034 274B     		ldr	r3, .L28+4
 264 0036 9C42     		cmp	r4, r3
 265 0038 1AD9     		bls	.L16
 172:cc85xx.c      ****   {
 173:cc85xx.c      ****     PRINTF("ERROR: Timed out waiting for previous SPI operation to complete\n");
 266              		.loc 1 173 0
 267 003a FFF7FEFF 		bl	USBUART_GetConfiguration
 268              	.LVL34:
 269 003e 0028     		cmp	r0, #0
 270 0040 41D0     		beq	.L26
 271              	.LBB2:
 272              		.loc 1 173 0 is_stmt 0 discriminator 1
 273 0042 234B     		ldr	r3, .L28
 274 0044 1C68     		ldr	r4, [r3]
 275              	.LVL35:
 276              	.L19:
 277              		.loc 1 173 0 discriminator 5
 278 0046 FFF7FEFF 		bl	USBUART_CDCIsReady
 279              	.LVL36:
 280 004a 0028     		cmp	r0, #0
 281 004c 05D1     		bne	.L18
 282              		.loc 1 173 0 discriminator 3
 283 004e 204B     		ldr	r3, .L28
ARM GAS  C:\Users\TERENC~1\AppData\Local\Temp\ccl7zEj9.s 			page 9


 284 0050 1B68     		ldr	r3, [r3]
 285 0052 1B1B     		subs	r3, r3, r4
 286 0054 1F4A     		ldr	r2, .L28+4
 287 0056 9342     		cmp	r3, r2
 288 0058 F5D9     		bls	.L19
 289              	.L18:
 290              		.loc 1 173 0 discriminator 6
 291 005a 1F4C     		ldr	r4, .L28+8
 292              	.LVL37:
 293 005c 4122     		movs	r2, #65
 294 005e 1F49     		ldr	r1, .L28+12
 295 0060 2000     		movs	r0, r4
 296 0062 FFF7FEFF 		bl	memcpy
 297              	.LVL38:
 298 0066 2000     		movs	r0, r4
 299 0068 FFF7FEFF 		bl	USBUART_PutString
 300              	.LVL39:
 301              	.LBE2:
 174:cc85xx.c      ****     return false;
 302              		.loc 1 174 0 is_stmt 1 discriminator 6
 303 006c 0020     		movs	r0, #0
 304 006e 2BE0     		b	.L17
 305              	.L16:
 175:cc85xx.c      ****   }
 176:cc85xx.c      ****   
 177:cc85xx.c      ****   /* Start transfer */
 178:cc85xx.c      ****   SPI_SpiUartPutArray(pTxData, txLen);
 306              		.loc 1 178 0
 307 0070 3100     		movs	r1, r6
 308 0072 0198     		ldr	r0, [sp, #4]
 309 0074 FFF7FEFF 		bl	SPI_SpiUartPutArray
 310              	.LVL40:
 179:cc85xx.c      **** 
 180:cc85xx.c      ****   /* Wait for the end of the transfer. The number of transmitted data
 181:cc85xx.c      ****   * elements has to be equal to the number of received data elements.
 182:cc85xx.c      ****   */  
 183:cc85xx.c      ****   start = tmrGetCounter_ms();
 311              		.loc 1 183 0
 312 0078 154B     		ldr	r3, .L28
 313 007a 1C68     		ldr	r4, [r3]
 314              	.LVL41:
 315              	.L21:
 184:cc85xx.c      **** 
 185:cc85xx.c      ****   while(txLen != SPI_SpiUartGetRxBufferSize() && (tmrGetElapsedMs(start) < CC85XX_WAIT_FOR_OPERATIO
 316              		.loc 1 185 0 discriminator 2
 317 007c FFF7FEFF 		bl	SPI_SpiUartGetRxBufferSize
 318              	.LVL42:
 319 0080 8642     		cmp	r6, r0
 320 0082 05D0     		beq	.L20
 321              		.loc 1 185 0 is_stmt 0 discriminator 1
 322 0084 124B     		ldr	r3, .L28
 323 0086 1B68     		ldr	r3, [r3]
 324 0088 1B1B     		subs	r3, r3, r4
 325 008a 124A     		ldr	r2, .L28+4
 326 008c 9342     		cmp	r3, r2
 327 008e F5D9     		bls	.L21
 328              	.L20:
ARM GAS  C:\Users\TERENC~1\AppData\Local\Temp\ccl7zEj9.s 			page 10


 186:cc85xx.c      ****   {
 187:cc85xx.c      ****   }
 188:cc85xx.c      ****   
 189:cc85xx.c      ****   if (pStatus)
 329              		.loc 1 189 0 is_stmt 1
 330 0090 002D     		cmp	r5, #0
 331 0092 08D0     		beq	.L22
 190:cc85xx.c      ****   {
 191:cc85xx.c      ****     *pStatus = cc85xx_spi_read() << 8;
 332              		.loc 1 191 0
 333 0094 FFF7FEFF 		bl	cc85xx_spi_read
 334              	.LVL43:
 335 0098 0002     		lsls	r0, r0, #8
 336 009a 2880     		strh	r0, [r5]
 192:cc85xx.c      ****     *pStatus |= cc85xx_spi_read();
 337              		.loc 1 192 0
 338 009c FFF7FEFF 		bl	cc85xx_spi_read
 339              	.LVL44:
 340 00a0 2B88     		ldrh	r3, [r5]
 341 00a2 1843     		orrs	r0, r3
 342 00a4 2880     		strh	r0, [r5]
 343              	.L22:
 193:cc85xx.c      ****   }
 194:cc85xx.c      ****   
 195:cc85xx.c      ****   if (pRxData != NULL)
 344              		.loc 1 195 0
 345 00a6 002F     		cmp	r7, #0
 346 00a8 06D1     		bne	.L27
 347 00aa 08E0     		b	.L24
 348              	.LVL45:
 349              	.L25:
 196:cc85xx.c      ****   {
 197:cc85xx.c      ****     for (i = 0; i < rxLen; i++)
 198:cc85xx.c      ****     {
 199:cc85xx.c      ****       pRxData[i] = cc85xx_spi_read();
 350              		.loc 1 199 0 discriminator 3
 351 00ac 3D19     		adds	r5, r7, r4
 352 00ae FFF7FEFF 		bl	cc85xx_spi_read
 353              	.LVL46:
 354 00b2 2870     		strb	r0, [r5]
 197:cc85xx.c      ****     {
 355              		.loc 1 197 0 discriminator 3
 356 00b4 0134     		adds	r4, r4, #1
 357              	.LVL47:
 358 00b6 00E0     		b	.L23
 359              	.LVL48:
 360              	.L27:
 361 00b8 0024     		movs	r4, #0
 362              	.LVL49:
 363              	.L23:
 197:cc85xx.c      ****     {
 364              		.loc 1 197 0 is_stmt 0 discriminator 1
 365 00ba 4445     		cmp	r4, r8
 366 00bc F6D3     		bcc	.L25
 367              	.LVL50:
 368              	.L24:
 200:cc85xx.c      ****     }
ARM GAS  C:\Users\TERENC~1\AppData\Local\Temp\ccl7zEj9.s 			page 11


 201:cc85xx.c      ****   }
 202:cc85xx.c      **** 
 203:cc85xx.c      ****   /* Clear dummy bytes from RX buffer */
 204:cc85xx.c      ****   SPI_SpiUartClearRxBuffer();
 369              		.loc 1 204 0 is_stmt 1
 370 00be FFF7FEFF 		bl	SPI_SpiUartClearRxBuffer
 371              	.LVL51:
 205:cc85xx.c      ****   
 206:cc85xx.c      ****   return true;
 372              		.loc 1 206 0
 373 00c2 0120     		movs	r0, #1
 374 00c4 00E0     		b	.L17
 375              	.LVL52:
 376              	.L26:
 174:cc85xx.c      ****   }
 377              		.loc 1 174 0
 378 00c6 0020     		movs	r0, #0
 379              	.LVL53:
 380              	.L17:
 207:cc85xx.c      **** }
 381              		.loc 1 207 0
 382 00c8 02B0     		add	sp, sp, #8
 383              		@ sp needed
 384              	.LVL54:
 385              	.LVL55:
 386 00ca 04BC     		pop	{r2}
 387 00cc 9046     		mov	r8, r2
 388 00ce F0BD     		pop	{r4, r5, r6, r7, pc}
 389              	.L29:
 390              		.align	2
 391              	.L28:
 392 00d0 00000000 		.word	tmrCounter_ms
 393 00d4 E7030000 		.word	999
 394 00d8 00000000 		.word	gbuf
 395 00dc 00000000 		.word	.LC3
 396              		.cfi_endproc
 397              	.LFE8:
 398              		.size	cc85xx_basic_transaction, .-cc85xx_basic_transaction
 399              		.section	.text.cc85xx_cmd_req,"ax",%progbits
 400              		.align	2
 401              		.code	16
 402              		.thumb_func
 403              		.type	cc85xx_cmd_req, %function
 404              	cc85xx_cmd_req:
 405              	.LFB9:
 208:cc85xx.c      **** 
 209:cc85xx.c      **** static bool cc85xx_cmd_req(uint8_t cmdType, uint8_t paramLen, uint8_t *pData, uint16_t *pStatus)
 210:cc85xx.c      **** {
 406              		.loc 1 210 0
 407              		.cfi_startproc
 408              		@ args = 0, pretend = 0, frame = 8
 409              		@ frame_needed = 0, uses_anonymous_args = 0
 410              	.LVL56:
 411 0000 F0B5     		push	{r4, r5, r6, r7, lr}
 412              		.cfi_def_cfa_offset 20
 413              		.cfi_offset 4, -20
 414              		.cfi_offset 5, -16
ARM GAS  C:\Users\TERENC~1\AppData\Local\Temp\ccl7zEj9.s 			page 12


 415              		.cfi_offset 6, -12
 416              		.cfi_offset 7, -8
 417              		.cfi_offset 14, -4
 418 0002 85B0     		sub	sp, sp, #20
 419              		.cfi_def_cfa_offset 40
 420 0004 0600     		movs	r6, r0
 421 0006 0D00     		movs	r5, r1
 422 0008 0292     		str	r2, [sp, #8]
 423 000a 0393     		str	r3, [sp, #12]
 424              	.LVL57:
 211:cc85xx.c      ****   bool ret = false;
 212:cc85xx.c      **** 
 213:cc85xx.c      ****   cc85xx_cmd_req_s *pTxPkt = (cc85xx_cmd_req_s *)malloc(sizeof(cc85xx_cmd_req_hdr_s) + paramLen);
 425              		.loc 1 213 0
 426 000c 8C1C     		adds	r4, r1, #2
 427 000e 2000     		movs	r0, r4
 428              	.LVL58:
 429 0010 FFF7FEFF 		bl	malloc
 430              	.LVL59:
 431 0014 0700     		movs	r7, r0
 432              	.LVL60:
 214:cc85xx.c      **** 
 215:cc85xx.c      ****   pTxPkt->hdr.opcode = CC85XX_OP_CMD_REQ;
 433              		.loc 1 215 0
 434 0016 0278     		ldrb	r2, [r0]
 435 0018 4023     		movs	r3, #64
 436 001a 5B42     		rsbs	r3, r3, #0
 437 001c 1A43     		orrs	r2, r3
 216:cc85xx.c      ****   pTxPkt->hdr.cmd_type = cmdType;
 438              		.loc 1 216 0
 439 001e 7F33     		adds	r3, r3, #127
 440 0020 3340     		ands	r3, r6
 441 0022 1900     		movs	r1, r3
 442 0024 D3B2     		uxtb	r3, r2
 443 0026 3F22     		movs	r2, #63
 444 0028 9343     		bics	r3, r2
 445 002a 0B43     		orrs	r3, r1
 446 002c 0370     		strb	r3, [r0]
 217:cc85xx.c      ****   pTxPkt->hdr.param_len = paramLen;
 447              		.loc 1 217 0
 448 002e 4570     		strb	r5, [r0, #1]
 218:cc85xx.c      ****   memcpy(pTxPkt->param, pData, paramLen);
 449              		.loc 1 218 0
 450 0030 0230     		adds	r0, r0, #2
 451              	.LVL61:
 452 0032 2A00     		movs	r2, r5
 453 0034 0299     		ldr	r1, [sp, #8]
 454 0036 FFF7FEFF 		bl	memcpy
 455              	.LVL62:
 219:cc85xx.c      ****   
 220:cc85xx.c      ****   ret = cc85xx_basic_transaction((uint8_t *)pTxPkt, sizeof(cc85xx_cmd_req_hdr_s) + paramLen, pStatu
 456              		.loc 1 220 0
 457 003a 0023     		movs	r3, #0
 458 003c 0093     		str	r3, [sp]
 459 003e 039A     		ldr	r2, [sp, #12]
 460 0040 2100     		movs	r1, r4
 461 0042 3800     		movs	r0, r7
ARM GAS  C:\Users\TERENC~1\AppData\Local\Temp\ccl7zEj9.s 			page 13


 462 0044 FFF7FEFF 		bl	cc85xx_basic_transaction
 463              	.LVL63:
 464 0048 0400     		movs	r4, r0
 465              	.LVL64:
 221:cc85xx.c      ****   
 222:cc85xx.c      ****   free(pTxPkt);
 466              		.loc 1 222 0
 467 004a 3800     		movs	r0, r7
 468 004c FFF7FEFF 		bl	free
 469              	.LVL65:
 223:cc85xx.c      **** 
 224:cc85xx.c      ****   if (!ret)
 470              		.loc 1 224 0
 471 0050 002C     		cmp	r4, #0
 472 0052 01D0     		beq	.L32
 225:cc85xx.c      ****   {
 226:cc85xx.c      ****     return ret;
 227:cc85xx.c      ****   }
 228:cc85xx.c      ****   
 229:cc85xx.c      ****   return true;
 473              		.loc 1 229 0
 474 0054 0120     		movs	r0, #1
 475 0056 00E0     		b	.L31
 476              	.L32:
 226:cc85xx.c      ****   }
 477              		.loc 1 226 0
 478 0058 2000     		movs	r0, r4
 479              	.L31:
 230:cc85xx.c      **** }
 480              		.loc 1 230 0
 481 005a 05B0     		add	sp, sp, #20
 482              		@ sp needed
 483              	.LVL66:
 484              	.LVL67:
 485 005c F0BD     		pop	{r4, r5, r6, r7, pc}
 486              		.cfi_endproc
 487              	.LFE9:
 488              		.size	cc85xx_cmd_req, .-cc85xx_cmd_req
 489 005e C046     		.section	.text.cc85xx_set_addr,"ax",%progbits
 490              		.align	2
 491              		.code	16
 492              		.thumb_func
 493              		.type	cc85xx_set_addr, %function
 494              	cc85xx_set_addr:
 495              	.LFB11:
 231:cc85xx.c      **** 
 232:cc85xx.c      **** static bool cc85xx_read(uint16_t dataLen, uint16_t *pStatus, uint8_t *pData)
 233:cc85xx.c      **** {
 234:cc85xx.c      ****   bool ret = false;
 235:cc85xx.c      ****   
 236:cc85xx.c      ****   cc85xx_read_s *pTxPkt = (cc85xx_read_s *)malloc(sizeof(cc85xx_read_s) + dataLen);
 237:cc85xx.c      ****   
 238:cc85xx.c      ****   memset((void *)pTxPkt, 0xCC, sizeof(cc85xx_read_s) + dataLen);
 239:cc85xx.c      ****   
 240:cc85xx.c      ****   pTxPkt->opcode = CC85XX_OP_READ;
 241:cc85xx.c      ****   pTxPkt->data_len = dataLen;
 242:cc85xx.c      ****   
ARM GAS  C:\Users\TERENC~1\AppData\Local\Temp\ccl7zEj9.s 			page 14


 243:cc85xx.c      ****   ret = cc85xx_basic_transaction((uint8_t *)pTxPkt, sizeof(cc85xx_read_s) + dataLen, pStatus, pData
 244:cc85xx.c      **** 
 245:cc85xx.c      ****   free(pTxPkt);
 246:cc85xx.c      **** 
 247:cc85xx.c      ****   if (!ret)
 248:cc85xx.c      ****   {
 249:cc85xx.c      ****     return ret;
 250:cc85xx.c      ****   }
 251:cc85xx.c      ****   
 252:cc85xx.c      ****   return true;
 253:cc85xx.c      **** }
 254:cc85xx.c      **** 
 255:cc85xx.c      **** static bool cc85xx_set_addr(uint16_t addr, uint16_t *pStatus)
 256:cc85xx.c      **** {
 496              		.loc 1 256 0
 497              		.cfi_startproc
 498              		@ args = 0, pretend = 0, frame = 0
 499              		@ frame_needed = 0, uses_anonymous_args = 0
 500              	.LVL68:
 501 0000 70B5     		push	{r4, r5, r6, lr}
 502              		.cfi_def_cfa_offset 16
 503              		.cfi_offset 4, -16
 504              		.cfi_offset 5, -12
 505              		.cfi_offset 6, -8
 506              		.cfi_offset 14, -4
 507 0002 82B0     		sub	sp, sp, #8
 508              		.cfi_def_cfa_offset 24
 509 0004 0600     		movs	r6, r0
 510 0006 0D00     		movs	r5, r1
 511              	.LVL69:
 257:cc85xx.c      ****   bool ret = false;
 258:cc85xx.c      ****   
 259:cc85xx.c      ****   cc85xx_set_addr_s *pTxPkt = (cc85xx_set_addr_s *)malloc(sizeof(cc85xx_set_addr_s));
 512              		.loc 1 259 0
 513 0008 0220     		movs	r0, #2
 514              	.LVL70:
 515 000a FFF7FEFF 		bl	malloc
 516              	.LVL71:
 517 000e 0400     		movs	r4, r0
 518              	.LVL72:
 260:cc85xx.c      ****   
 261:cc85xx.c      ****   pTxPkt->opcode = CC85XX_OP_SET_ADDR;
 262:cc85xx.c      ****   pTxPkt->addr_hi = (addr >> 8) & 0xFF;
 519              		.loc 1 262 0
 520 0010 330A     		lsrs	r3, r6, #8
 521 0012 7F22     		movs	r2, #127
 522 0014 1340     		ands	r3, r2
 523 0016 0370     		strb	r3, [r0]
 263:cc85xx.c      ****   pTxPkt->addr_lo = (addr & 0xFF);
 524              		.loc 1 263 0
 525 0018 4670     		strb	r6, [r0, #1]
 264:cc85xx.c      ****   
 265:cc85xx.c      ****   ret = cc85xx_basic_transaction((uint8_t *)pTxPkt, sizeof(cc85xx_set_addr_s), pStatus, NULL, 0);
 526              		.loc 1 265 0
 527 001a 0023     		movs	r3, #0
 528 001c 0093     		str	r3, [sp]
 529 001e 2A00     		movs	r2, r5
ARM GAS  C:\Users\TERENC~1\AppData\Local\Temp\ccl7zEj9.s 			page 15


 530 0020 0221     		movs	r1, #2
 531 0022 FFF7FEFF 		bl	cc85xx_basic_transaction
 532              	.LVL73:
 533 0026 0500     		movs	r5, r0
 534              	.LVL74:
 266:cc85xx.c      ****   
 267:cc85xx.c      ****   free(pTxPkt);
 535              		.loc 1 267 0
 536 0028 2000     		movs	r0, r4
 537 002a FFF7FEFF 		bl	free
 538              	.LVL75:
 268:cc85xx.c      ****   
 269:cc85xx.c      ****   if (!ret)
 539              		.loc 1 269 0
 540 002e 002D     		cmp	r5, #0
 541 0030 01D0     		beq	.L35
 270:cc85xx.c      ****   {
 271:cc85xx.c      ****     return ret;
 272:cc85xx.c      ****   }
 273:cc85xx.c      ****   
 274:cc85xx.c      ****   return true;
 542              		.loc 1 274 0
 543 0032 0120     		movs	r0, #1
 544 0034 00E0     		b	.L34
 545              	.L35:
 271:cc85xx.c      ****   }
 546              		.loc 1 271 0
 547 0036 2800     		movs	r0, r5
 548              	.L34:
 275:cc85xx.c      **** }
 549              		.loc 1 275 0
 550 0038 02B0     		add	sp, sp, #8
 551              		@ sp needed
 552              	.LVL76:
 553              	.LVL77:
 554 003a 70BD     		pop	{r4, r5, r6, pc}
 555              		.cfi_endproc
 556              	.LFE11:
 557              		.size	cc85xx_set_addr, .-cc85xx_set_addr
 558              		.section	.text.cc85xx_write,"ax",%progbits
 559              		.align	2
 560              		.code	16
 561              		.thumb_func
 562              		.type	cc85xx_write, %function
 563              	cc85xx_write:
 564              	.LFB12:
 276:cc85xx.c      **** 
 277:cc85xx.c      **** static bool cc85xx_write(uint16_t dataLen, uint8_t *pData, uint16_t *pStatus)
 278:cc85xx.c      **** {
 565              		.loc 1 278 0
 566              		.cfi_startproc
 567              		@ args = 0, pretend = 0, frame = 8
 568              		@ frame_needed = 0, uses_anonymous_args = 0
 569              	.LVL78:
 570 0000 F0B5     		push	{r4, r5, r6, r7, lr}
 571              		.cfi_def_cfa_offset 20
 572              		.cfi_offset 4, -20
ARM GAS  C:\Users\TERENC~1\AppData\Local\Temp\ccl7zEj9.s 			page 16


 573              		.cfi_offset 5, -16
 574              		.cfi_offset 6, -12
 575              		.cfi_offset 7, -8
 576              		.cfi_offset 14, -4
 577 0002 85B0     		sub	sp, sp, #20
 578              		.cfi_def_cfa_offset 40
 579 0004 0500     		movs	r5, r0
 580 0006 0E00     		movs	r6, r1
 581 0008 0392     		str	r2, [sp, #12]
 582              	.LVL79:
 279:cc85xx.c      ****   bool ret = false;
 280:cc85xx.c      ****   
 281:cc85xx.c      ****   cc85xx_write_s *pTxPkt = (cc85xx_write_s *)malloc(sizeof(cc85xx_write_s) + dataLen);
 583              		.loc 1 281 0
 584 000a C41C     		adds	r4, r0, #3
 585 000c 2000     		movs	r0, r4
 586              	.LVL80:
 587 000e FFF7FEFF 		bl	malloc
 588              	.LVL81:
 589 0012 0700     		movs	r7, r0
 590              	.LVL82:
 282:cc85xx.c      ****   
 283:cc85xx.c      ****   pTxPkt->opcode = CC85XX_OP_WRITE;
 591              		.loc 1 283 0
 592 0014 0278     		ldrb	r2, [r0]
 593 0016 0F21     		movs	r1, #15
 594 0018 0A40     		ands	r2, r1
 595 001a 8023     		movs	r3, #128
 596 001c 5B42     		rsbs	r3, r3, #0
 597 001e 1A43     		orrs	r2, r3
 284:cc85xx.c      ****   pTxPkt->len_hi = (dataLen >> 8) & 0xFF;
 598              		.loc 1 284 0
 599 0020 2B0A     		lsrs	r3, r5, #8
 600 0022 1940     		ands	r1, r3
 601 0024 D3B2     		uxtb	r3, r2
 602 0026 0F22     		movs	r2, #15
 603 0028 9343     		bics	r3, r2
 604 002a 0B43     		orrs	r3, r1
 605 002c 0370     		strb	r3, [r0]
 285:cc85xx.c      ****   pTxPkt->len_lo = (dataLen & 0xFF);
 606              		.loc 1 285 0
 607 002e 4570     		strb	r5, [r0, #1]
 286:cc85xx.c      ****   memcpy(pTxPkt->param, pData, dataLen);
 608              		.loc 1 286 0
 609 0030 0230     		adds	r0, r0, #2
 610              	.LVL83:
 611 0032 2A00     		movs	r2, r5
 612 0034 3100     		movs	r1, r6
 613 0036 FFF7FEFF 		bl	memcpy
 614              	.LVL84:
 287:cc85xx.c      ****   
 288:cc85xx.c      ****   ret = cc85xx_basic_transaction((uint8_t *)pTxPkt, sizeof(cc85xx_write_s) + dataLen, pStatus, NULL
 615              		.loc 1 288 0
 616 003a 0023     		movs	r3, #0
 617 003c 0093     		str	r3, [sp]
 618 003e 039A     		ldr	r2, [sp, #12]
 619 0040 2100     		movs	r1, r4
ARM GAS  C:\Users\TERENC~1\AppData\Local\Temp\ccl7zEj9.s 			page 17


 620 0042 3800     		movs	r0, r7
 621 0044 FFF7FEFF 		bl	cc85xx_basic_transaction
 622              	.LVL85:
 623 0048 0400     		movs	r4, r0
 624              	.LVL86:
 289:cc85xx.c      ****   
 290:cc85xx.c      ****   free(pTxPkt);
 625              		.loc 1 290 0
 626 004a 3800     		movs	r0, r7
 627 004c FFF7FEFF 		bl	free
 628              	.LVL87:
 291:cc85xx.c      ****   
 292:cc85xx.c      ****   if (!ret)
 629              		.loc 1 292 0
 630 0050 002C     		cmp	r4, #0
 631 0052 01D0     		beq	.L38
 293:cc85xx.c      ****   {
 294:cc85xx.c      ****     return ret;
 295:cc85xx.c      ****   }
 296:cc85xx.c      ****   
 297:cc85xx.c      ****   return true;
 632              		.loc 1 297 0
 633 0054 0120     		movs	r0, #1
 634 0056 00E0     		b	.L37
 635              	.L38:
 294:cc85xx.c      ****   }
 636              		.loc 1 294 0
 637 0058 2000     		movs	r0, r4
 638              	.L37:
 298:cc85xx.c      **** }
 639              		.loc 1 298 0
 640 005a 05B0     		add	sp, sp, #20
 641              		@ sp needed
 642              	.LVL88:
 643              	.LVL89:
 644              	.LVL90:
 645 005c F0BD     		pop	{r4, r5, r6, r7, pc}
 646              		.cfi_endproc
 647              	.LFE12:
 648              		.size	cc85xx_write, .-cc85xx_write
 649 005e C046     		.section	.text.cc85xx_read,"ax",%progbits
 650              		.align	2
 651              		.code	16
 652              		.thumb_func
 653              		.type	cc85xx_read, %function
 654              	cc85xx_read:
 655              	.LFB10:
 233:cc85xx.c      ****   bool ret = false;
 656              		.loc 1 233 0
 657              		.cfi_startproc
 658              		@ args = 0, pretend = 0, frame = 8
 659              		@ frame_needed = 0, uses_anonymous_args = 0
 660              	.LVL91:
 661 0000 F0B5     		push	{r4, r5, r6, r7, lr}
 662              		.cfi_def_cfa_offset 20
 663              		.cfi_offset 4, -20
 664              		.cfi_offset 5, -16
ARM GAS  C:\Users\TERENC~1\AppData\Local\Temp\ccl7zEj9.s 			page 18


 665              		.cfi_offset 6, -12
 666              		.cfi_offset 7, -8
 667              		.cfi_offset 14, -4
 668 0002 85B0     		sub	sp, sp, #20
 669              		.cfi_def_cfa_offset 40
 670 0004 0600     		movs	r6, r0
 671 0006 0391     		str	r1, [sp, #12]
 672 0008 1700     		movs	r7, r2
 673              	.LVL92:
 236:cc85xx.c      ****   
 674              		.loc 1 236 0
 675 000a 851C     		adds	r5, r0, #2
 676 000c 2800     		movs	r0, r5
 677              	.LVL93:
 678 000e FFF7FEFF 		bl	malloc
 679              	.LVL94:
 680 0012 0400     		movs	r4, r0
 681              	.LVL95:
 238:cc85xx.c      ****   
 682              		.loc 1 238 0
 683 0014 2A00     		movs	r2, r5
 684 0016 CC21     		movs	r1, #204
 685 0018 FFF7FEFF 		bl	memset
 686              	.LVL96:
 240:cc85xx.c      ****   pTxPkt->data_len = dataLen;
 687              		.loc 1 240 0
 688 001c 2378     		ldrb	r3, [r4]
 689 001e 0F22     		movs	r2, #15
 690 0020 1340     		ands	r3, r2
 691 0022 7F3A     		subs	r2, r2, #127
 692 0024 1343     		orrs	r3, r2
 693 0026 2370     		strb	r3, [r4]
 241:cc85xx.c      ****   
 694              		.loc 1 241 0
 695 0028 6670     		strb	r6, [r4, #1]
 243:cc85xx.c      **** 
 696              		.loc 1 243 0
 697 002a 0096     		str	r6, [sp]
 698 002c 3B00     		movs	r3, r7
 699 002e 039A     		ldr	r2, [sp, #12]
 700 0030 2900     		movs	r1, r5
 701 0032 2000     		movs	r0, r4
 702 0034 FFF7FEFF 		bl	cc85xx_basic_transaction
 703              	.LVL97:
 704 0038 0500     		movs	r5, r0
 705              	.LVL98:
 245:cc85xx.c      **** 
 706              		.loc 1 245 0
 707 003a 2000     		movs	r0, r4
 708 003c FFF7FEFF 		bl	free
 709              	.LVL99:
 247:cc85xx.c      ****   {
 710              		.loc 1 247 0
 711 0040 002D     		cmp	r5, #0
 712 0042 01D0     		beq	.L41
 252:cc85xx.c      **** }
 713              		.loc 1 252 0
ARM GAS  C:\Users\TERENC~1\AppData\Local\Temp\ccl7zEj9.s 			page 19


 714 0044 0120     		movs	r0, #1
 715 0046 00E0     		b	.L40
 716              	.L41:
 249:cc85xx.c      ****   }
 717              		.loc 1 249 0
 718 0048 2800     		movs	r0, r5
 719              	.L40:
 253:cc85xx.c      **** 
 720              		.loc 1 253 0
 721 004a 05B0     		add	sp, sp, #20
 722              		@ sp needed
 723              	.LVL100:
 724              	.LVL101:
 725              	.LVL102:
 726 004c F0BD     		pop	{r4, r5, r6, r7, pc}
 727              		.cfi_endproc
 728              	.LFE10:
 729              		.size	cc85xx_read, .-cc85xx_read
 730 004e C046     		.section	.text.cc85xx_sys_reset,"ax",%progbits
 731              		.align	2
 732              		.global	cc85xx_sys_reset
 733              		.code	16
 734              		.thumb_func
 735              		.type	cc85xx_sys_reset, %function
 736              	cc85xx_sys_reset:
 737              	.LFB5:
 113:cc85xx.c      ****   bool ret;
 738              		.loc 1 113 0
 739              		.cfi_startproc
 740              		@ args = 0, pretend = 0, frame = 0
 741              		@ frame_needed = 0, uses_anonymous_args = 0
 742 0000 10B5     		push	{r4, lr}
 743              		.cfi_def_cfa_offset 8
 744              		.cfi_offset 4, -8
 745              		.cfi_offset 14, -4
 116:cc85xx.c      ****   ret = cc85xx_reset(false);
 746              		.loc 1 116 0
 747 0002 FFF7FEFF 		bl	SPI_Stop
 748              	.LVL103:
 117:cc85xx.c      ****   SPI_Start();
 749              		.loc 1 117 0
 750 0006 0020     		movs	r0, #0
 751 0008 FFF7FEFF 		bl	cc85xx_reset
 752              	.LVL104:
 753 000c 0400     		movs	r4, r0
 754              	.LVL105:
 118:cc85xx.c      **** 
 755              		.loc 1 118 0
 756 000e FFF7FEFF 		bl	SPI_Start
 757              	.LVL106:
 121:cc85xx.c      **** 
 758              		.loc 1 121 0
 759 0012 2000     		movs	r0, r4
 760              		@ sp needed
 761              	.LVL107:
 762 0014 10BD     		pop	{r4, pc}
 763              		.cfi_endproc
ARM GAS  C:\Users\TERENC~1\AppData\Local\Temp\ccl7zEj9.s 			page 20


 764              	.LFE5:
 765              		.size	cc85xx_sys_reset, .-cc85xx_sys_reset
 766 0016 C046     		.section	.text.cc85xx_boot_reset,"ax",%progbits
 767              		.align	2
 768              		.global	cc85xx_boot_reset
 769              		.code	16
 770              		.thumb_func
 771              		.type	cc85xx_boot_reset, %function
 772              	cc85xx_boot_reset:
 773              	.LFB6:
 124:cc85xx.c      ****   bool ret;
 774              		.loc 1 124 0
 775              		.cfi_startproc
 776              		@ args = 0, pretend = 0, frame = 0
 777              		@ frame_needed = 0, uses_anonymous_args = 0
 778 0000 10B5     		push	{r4, lr}
 779              		.cfi_def_cfa_offset 8
 780              		.cfi_offset 4, -8
 781              		.cfi_offset 14, -4
 127:cc85xx.c      ****   ret = cc85xx_reset(true);
 782              		.loc 1 127 0
 783 0002 FFF7FEFF 		bl	SPI_Stop
 784              	.LVL108:
 128:cc85xx.c      ****   SPI_Start();
 785              		.loc 1 128 0
 786 0006 0120     		movs	r0, #1
 787 0008 FFF7FEFF 		bl	cc85xx_reset
 788              	.LVL109:
 789 000c 0400     		movs	r4, r0
 790              	.LVL110:
 129:cc85xx.c      ****   
 791              		.loc 1 129 0
 792 000e FFF7FEFF 		bl	SPI_Start
 793              	.LVL111:
 132:cc85xx.c      **** 
 794              		.loc 1 132 0
 795 0012 2000     		movs	r0, r4
 796              		@ sp needed
 797              	.LVL112:
 798 0014 10BD     		pop	{r4, pc}
 799              		.cfi_endproc
 800              	.LFE6:
 801              		.size	cc85xx_boot_reset, .-cc85xx_boot_reset
 802 0016 C046     		.section	.text.cc85xx_get_status,"ax",%progbits
 803              		.align	2
 804              		.global	cc85xx_get_status
 805              		.code	16
 806              		.thumb_func
 807              		.type	cc85xx_get_status, %function
 808              	cc85xx_get_status:
 809              	.LFB7:
 135:cc85xx.c      ****   uint16_t sw = 0;
 810              		.loc 1 135 0
 811              		.cfi_startproc
 812              		@ args = 0, pretend = 0, frame = 8
 813              		@ frame_needed = 0, uses_anonymous_args = 0
 814 0000 10B5     		push	{r4, lr}
ARM GAS  C:\Users\TERENC~1\AppData\Local\Temp\ccl7zEj9.s 			page 21


 815              		.cfi_def_cfa_offset 8
 816              		.cfi_offset 4, -8
 817              		.cfi_offset 14, -4
 818 0002 82B0     		sub	sp, sp, #8
 819              		.cfi_def_cfa_offset 16
 820              	.LVL113:
 137:cc85xx.c      ****   uint32_t start;
 821              		.loc 1 137 0
 822 0004 01A8     		add	r0, sp, #4
 823 0006 8023     		movs	r3, #128
 824 0008 0370     		strb	r3, [r0]
 825 000a 0023     		movs	r3, #0
 826 000c 4370     		strb	r3, [r0, #1]
 140:cc85xx.c      ****   
 827              		.loc 1 140 0
 828 000e 0221     		movs	r1, #2
 829 0010 FFF7FEFF 		bl	SPI_SpiUartPutArray
 830              	.LVL114:
 145:cc85xx.c      ****   
 831              		.loc 1 145 0
 832 0014 0F4B     		ldr	r3, .L49
 833 0016 1C68     		ldr	r4, [r3]
 834              	.LVL115:
 835              	.L46:
 147:cc85xx.c      ****   {
 836              		.loc 1 147 0 discriminator 2
 837 0018 FFF7FEFF 		bl	SPI_SpiUartGetRxBufferSize
 838              	.LVL116:
 839 001c 0228     		cmp	r0, #2
 840 001e 0FD0     		beq	.L48
 147:cc85xx.c      ****   {
 841              		.loc 1 147 0 is_stmt 0 discriminator 1
 842 0020 0C4B     		ldr	r3, .L49
 843 0022 1B68     		ldr	r3, [r3]
 844 0024 1B1B     		subs	r3, r3, r4
 845 0026 0C4A     		ldr	r2, .L49+4
 846 0028 9342     		cmp	r3, r2
 847 002a F5D9     		bls	.L46
 848 002c 0024     		movs	r4, #0
 849              	.LVL117:
 850 002e 08E0     		b	.L45
 851              	.LVL118:
 852              	.L47:
 153:cc85xx.c      ****     sw |= (SPI_SpiUartReadRxData() & 0xFF);
 853              		.loc 1 153 0 is_stmt 1
 854 0030 2402     		lsls	r4, r4, #8
 855              	.LVL119:
 856 0032 A4B2     		uxth	r4, r4
 857              	.LVL120:
 154:cc85xx.c      ****   }
 858              		.loc 1 154 0
 859 0034 FFF7FEFF 		bl	SPI_SpiUartReadRxData
 860              	.LVL121:
 861 0038 FF23     		movs	r3, #255
 862 003a 1840     		ands	r0, r3
 863 003c 0443     		orrs	r4, r0
 864              	.LVL122:
ARM GAS  C:\Users\TERENC~1\AppData\Local\Temp\ccl7zEj9.s 			page 22


 865 003e 00E0     		b	.L45
 866              	.LVL123:
 867              	.L48:
 868 0040 0024     		movs	r4, #0
 869              	.LVL124:
 870              	.L45:
 151:cc85xx.c      ****   {
 871              		.loc 1 151 0
 872 0042 FFF7FEFF 		bl	SPI_SpiUartGetRxBufferSize
 873              	.LVL125:
 874 0046 0028     		cmp	r0, #0
 875 0048 F2D1     		bne	.L47
 158:cc85xx.c      ****   
 876              		.loc 1 158 0
 877 004a FFF7FEFF 		bl	SPI_SpiUartClearRxBuffer
 878              	.LVL126:
 161:cc85xx.c      **** 
 879              		.loc 1 161 0
 880 004e 2000     		movs	r0, r4
 881 0050 02B0     		add	sp, sp, #8
 882              		@ sp needed
 883              	.LVL127:
 884 0052 10BD     		pop	{r4, pc}
 885              	.L50:
 886              		.align	2
 887              	.L49:
 888 0054 00000000 		.word	tmrCounter_ms
 889 0058 E7030000 		.word	999
 890              		.cfi_endproc
 891              	.LFE7:
 892              		.size	cc85xx_get_status, .-cc85xx_get_status
 893              		.section	.text.cc85xx_wait_for_status,"ax",%progbits
 894              		.align	2
 895              		.code	16
 896              		.thumb_func
 897              		.type	cc85xx_wait_for_status, %function
 898              	cc85xx_wait_for_status:
 899              	.LFB2:
  27:cc85xx.c      ****   uint32_t start = tmrGetCounter_ms();
 900              		.loc 1 27 0
 901              		.cfi_startproc
 902              		@ args = 0, pretend = 0, frame = 0
 903              		@ frame_needed = 0, uses_anonymous_args = 0
 904              	.LVL128:
 905 0000 F8B5     		push	{r3, r4, r5, r6, r7, lr}
 906              		.cfi_def_cfa_offset 24
 907              		.cfi_offset 3, -24
 908              		.cfi_offset 4, -20
 909              		.cfi_offset 5, -16
 910              		.cfi_offset 6, -12
 911              		.cfi_offset 7, -8
 912              		.cfi_offset 14, -4
 913 0002 0400     		movs	r4, r0
 914 0004 0F00     		movs	r7, r1
 915 0006 1500     		movs	r5, r2
  28:cc85xx.c      ****   
 916              		.loc 1 28 0
ARM GAS  C:\Users\TERENC~1\AppData\Local\Temp\ccl7zEj9.s 			page 23


 917 0008 084B     		ldr	r3, .L54
 918 000a 1E68     		ldr	r6, [r3]
 919              	.LVL129:
 920              	.L53:
  32:cc85xx.c      ****   } while ((*pStatus != expectedStatus) && (tmrGetElapsedMs(start) < timeout));
 921              		.loc 1 32 0 discriminator 2
 922 000c FFF7FEFF 		bl	cc85xx_get_status
 923              	.LVL130:
 924 0010 0200     		movs	r2, r0
 925 0012 2880     		strh	r0, [r5]
  33:cc85xx.c      ****   
 926              		.loc 1 33 0 discriminator 2
 927 0014 A042     		cmp	r0, r4
 928 0016 04D0     		beq	.L52
  33:cc85xx.c      ****   
 929              		.loc 1 33 0 is_stmt 0 discriminator 1
 930 0018 044B     		ldr	r3, .L54
 931 001a 1B68     		ldr	r3, [r3]
 932 001c 9B1B     		subs	r3, r3, r6
 933 001e BB42     		cmp	r3, r7
 934 0020 F4D3     		bcc	.L53
 935              	.L52:
  35:cc85xx.c      **** }
 936              		.loc 1 35 0 is_stmt 1
 937 0022 101B     		subs	r0, r2, r4
 938 0024 4242     		rsbs	r2, r0, #0
 939 0026 5041     		adcs	r0, r0, r2
 940 0028 C0B2     		uxtb	r0, r0
  36:cc85xx.c      **** 
 941              		.loc 1 36 0
 942              		@ sp needed
 943              	.LVL131:
 944              	.LVL132:
 945              	.LVL133:
 946 002a F8BD     		pop	{r3, r4, r5, r6, r7, pc}
 947              	.L55:
 948              		.align	2
 949              	.L54:
 950 002c 00000000 		.word	tmrCounter_ms
 951              		.cfi_endproc
 952              	.LFE2:
 953              		.size	cc85xx_wait_for_status, .-cc85xx_wait_for_status
 954              		.section	.text.cc85xx_bl_flash_page_prog,"ax",%progbits
 955              		.align	2
 956              		.code	16
 957              		.thumb_func
 958              		.type	cc85xx_bl_flash_page_prog, %function
 959              	cc85xx_bl_flash_page_prog:
 960              	.LFB13:
 299:cc85xx.c      **** 
 300:cc85xx.c      **** static bool cc85xx_bl_flash_page_prog(uint16_t ramAddr, uint16_t flashAddr, uint16_t dwordCount)
 301:cc85xx.c      **** {
 961              		.loc 1 301 0
 962              		.cfi_startproc
 963              		@ args = 0, pretend = 0, frame = 8
 964              		@ frame_needed = 0, uses_anonymous_args = 0
 965              	.LVL134:
ARM GAS  C:\Users\TERENC~1\AppData\Local\Temp\ccl7zEj9.s 			page 24


 966 0000 F0B5     		push	{r4, r5, r6, r7, lr}
 967              		.cfi_def_cfa_offset 20
 968              		.cfi_offset 4, -20
 969              		.cfi_offset 5, -16
 970              		.cfi_offset 6, -12
 971              		.cfi_offset 7, -8
 972              		.cfi_offset 14, -4
 973 0002 85B0     		sub	sp, sp, #20
 974              		.cfi_def_cfa_offset 40
 975 0004 0700     		movs	r7, r0
 976 0006 0D00     		movs	r5, r1
 977 0008 1400     		movs	r4, r2
 978              	.LVL135:
 302:cc85xx.c      ****   bool ret = false;
 303:cc85xx.c      ****   uint16_t sw;
 304:cc85xx.c      ****   cc85xx_bl_flash_page_prog_s *pTxPkt = (cc85xx_bl_flash_page_prog_s *)malloc(sizeof(cc85xx_bl_flas
 979              		.loc 1 304 0
 980 000a 0A20     		movs	r0, #10
 981              	.LVL136:
 982 000c FFF7FEFF 		bl	malloc
 983              	.LVL137:
 984 0010 0600     		movs	r6, r0
 985              	.LVL138:
 305:cc85xx.c      **** 
 306:cc85xx.c      ****   pTxPkt->ram_addr = BE16(ramAddr);
 986              		.loc 1 306 0
 987 0012 3B0A     		lsrs	r3, r7, #8
 988 0014 3F02     		lsls	r7, r7, #8
 989 0016 1F43     		orrs	r7, r3
 990 0018 BFB2     		uxth	r7, r7
 991 001a 0770     		strb	r7, [r0]
 992 001c 3F0A     		lsrs	r7, r7, #8
 993 001e 4770     		strb	r7, [r0, #1]
 307:cc85xx.c      ****   pTxPkt->flash_addr = BE16(flashAddr);
 994              		.loc 1 307 0
 995 0020 2B0A     		lsrs	r3, r5, #8
 996 0022 2D02     		lsls	r5, r5, #8
 997 0024 1D43     		orrs	r5, r3
 998 0026 ADB2     		uxth	r5, r5
 999 0028 8570     		strb	r5, [r0, #2]
 1000 002a 2D0A     		lsrs	r5, r5, #8
 1001 002c C570     		strb	r5, [r0, #3]
 308:cc85xx.c      ****   pTxPkt->dword_count = BE16(dwordCount);
 1002              		.loc 1 308 0
 1003 002e 230A     		lsrs	r3, r4, #8
 1004 0030 2402     		lsls	r4, r4, #8
 1005 0032 1C43     		orrs	r4, r3
 1006 0034 A4B2     		uxth	r4, r4
 1007 0036 0471     		strb	r4, [r0, #4]
 1008 0038 240A     		lsrs	r4, r4, #8
 1009 003a 4471     		strb	r4, [r0, #5]
 309:cc85xx.c      ****   pTxPkt->key = BE32(CC85XX_BL_MASS_ERASE_KEY);
 1010              		.loc 1 309 0
 1011 003c 2522     		movs	r2, #37
 1012 003e 8271     		strb	r2, [r0, #6]
 1013 0040 203A     		subs	r2, r2, #32
 1014 0042 C271     		strb	r2, [r0, #7]
ARM GAS  C:\Users\TERENC~1\AppData\Local\Temp\ccl7zEj9.s 			page 25


 1015 0044 0E32     		adds	r2, r2, #14
 1016 0046 0272     		strb	r2, [r0, #8]
 1017 0048 2432     		adds	r2, r2, #36
 1018 004a 4272     		strb	r2, [r0, #9]
 310:cc85xx.c      **** 
 311:cc85xx.c      ****   ret = cc85xx_cmd_req(CC85XX_CMD_TYPE_BL_FLASH_PAGE_PROG, sizeof(cc85xx_bl_flash_page_prog_s), (ui
 1019              		.loc 1 311 0
 1020 004c 0E23     		movs	r3, #14
 1021 004e 6B44     		add	r3, r3, sp
 1022 0050 0200     		movs	r2, r0
 1023 0052 0A21     		movs	r1, #10
 1024 0054 0720     		movs	r0, #7
 1025              	.LVL139:
 1026 0056 FFF7FEFF 		bl	cc85xx_cmd_req
 1027              	.LVL140:
 1028 005a 0400     		movs	r4, r0
 1029              	.LVL141:
 312:cc85xx.c      ****   
 313:cc85xx.c      ****   free(pTxPkt);
 1030              		.loc 1 313 0
 1031 005c 3000     		movs	r0, r6
 1032 005e FFF7FEFF 		bl	free
 1033              	.LVL142:
 314:cc85xx.c      **** 
 315:cc85xx.c      ****   if (!ret || !cc85xx_wait_for_status(CC85XX_SW_BL_FLASH_PAGE_PROG_SUCCESS, CC85XX_WAIT_FOR_OPERATI
 1034              		.loc 1 315 0
 1035 0062 002C     		cmp	r4, #0
 1036 0064 08D0     		beq	.L57
 1037              		.loc 1 315 0 is_stmt 0 discriminator 1
 1038 0066 0E22     		movs	r2, #14
 1039 0068 6A44     		add	r2, r2, sp
 1040 006a FA21     		movs	r1, #250
 1041 006c 8900     		lsls	r1, r1, #2
 1042 006e 1448     		ldr	r0, .L62
 1043 0070 FFF7FEFF 		bl	cc85xx_wait_for_status
 1044              	.LVL143:
 1045 0074 0028     		cmp	r0, #0
 1046 0076 20D1     		bne	.L58
 1047              	.L57:
 316:cc85xx.c      ****   {
 317:cc85xx.c      ****     PRINTF("ERROR: %s: ret=%d, status=0x%04X\n", __FUNCTION__, ret, sw);
 1048              		.loc 1 317 0 is_stmt 1
 1049 0078 FFF7FEFF 		bl	USBUART_GetConfiguration
 1050              	.LVL144:
 1051 007c 0028     		cmp	r0, #0
 1052 007e 1BD0     		beq	.L61
 1053              	.LBB3:
 1054              		.loc 1 317 0 is_stmt 0 discriminator 1
 1055 0080 104B     		ldr	r3, .L62+4
 1056 0082 1D68     		ldr	r5, [r3]
 1057              	.LVL145:
 1058              	.L60:
 1059              		.loc 1 317 0 discriminator 5
 1060 0084 FFF7FEFF 		bl	USBUART_CDCIsReady
 1061              	.LVL146:
 1062 0088 0028     		cmp	r0, #0
 1063 008a 05D1     		bne	.L59
ARM GAS  C:\Users\TERENC~1\AppData\Local\Temp\ccl7zEj9.s 			page 26


 1064              		.loc 1 317 0 discriminator 3
 1065 008c 0D4B     		ldr	r3, .L62+4
 1066 008e 1B68     		ldr	r3, [r3]
 1067 0090 5B1B     		subs	r3, r3, r5
 1068 0092 0D4A     		ldr	r2, .L62+8
 1069 0094 9342     		cmp	r3, r2
 1070 0096 F5D9     		bls	.L60
 1071              	.L59:
 1072              		.loc 1 317 0 discriminator 6
 1073 0098 0C4D     		ldr	r5, .L62+12
 1074              	.LVL147:
 1075 009a 0E23     		movs	r3, #14
 1076 009c 6B44     		add	r3, r3, sp
 1077 009e 1B88     		ldrh	r3, [r3]
 1078 00a0 0093     		str	r3, [sp]
 1079 00a2 2300     		movs	r3, r4
 1080 00a4 0A4A     		ldr	r2, .L62+16
 1081 00a6 0B49     		ldr	r1, .L62+20
 1082 00a8 2800     		movs	r0, r5
 1083 00aa FFF7FEFF 		bl	sprintf
 1084              	.LVL148:
 1085 00ae 2800     		movs	r0, r5
 1086 00b0 FFF7FEFF 		bl	USBUART_PutString
 1087              	.LVL149:
 1088              	.LBE3:
 318:cc85xx.c      ****     return false;
 1089              		.loc 1 318 0 is_stmt 1 discriminator 6
 1090 00b4 0020     		movs	r0, #0
 1091 00b6 00E0     		b	.L58
 1092              	.L61:
 1093              		.loc 1 318 0 is_stmt 0
 1094 00b8 0020     		movs	r0, #0
 1095              	.L58:
 319:cc85xx.c      ****   }
 320:cc85xx.c      ****   
 321:cc85xx.c      ****   return true;
 322:cc85xx.c      **** }
 1096              		.loc 1 322 0 is_stmt 1
 1097 00ba 05B0     		add	sp, sp, #20
 1098              		@ sp needed
 1099              	.LVL150:
 1100              	.LVL151:
 1101 00bc F0BD     		pop	{r4, r5, r6, r7, pc}
 1102              	.L63:
 1103 00be C046     		.align	2
 1104              	.L62:
 1105 00c0 0B800000 		.word	32779
 1106 00c4 00000000 		.word	tmrCounter_ms
 1107 00c8 E7030000 		.word	999
 1108 00cc 00000000 		.word	gbuf
 1109 00d0 00000000 		.word	.LANCHOR0
 1110 00d4 44000000 		.word	.LC9
 1111              		.cfi_endproc
 1112              	.LFE13:
 1113              		.size	cc85xx_bl_flash_page_prog, .-cc85xx_bl_flash_page_prog
 1114              		.section	.text.cc85xx_bl_unlock_spi,"ax",%progbits
 1115              		.align	2
ARM GAS  C:\Users\TERENC~1\AppData\Local\Temp\ccl7zEj9.s 			page 27


 1116              		.global	cc85xx_bl_unlock_spi
 1117              		.code	16
 1118              		.thumb_func
 1119              		.type	cc85xx_bl_unlock_spi, %function
 1120              	cc85xx_bl_unlock_spi:
 1121              	.LFB14:
 323:cc85xx.c      **** 
 324:cc85xx.c      **** bool cc85xx_bl_unlock_spi(void)
 325:cc85xx.c      **** {
 1122              		.loc 1 325 0
 1123              		.cfi_startproc
 1124              		@ args = 0, pretend = 0, frame = 8
 1125              		@ frame_needed = 0, uses_anonymous_args = 0
 1126 0000 30B5     		push	{r4, r5, lr}
 1127              		.cfi_def_cfa_offset 12
 1128              		.cfi_offset 4, -12
 1129              		.cfi_offset 5, -8
 1130              		.cfi_offset 14, -4
 1131 0002 85B0     		sub	sp, sp, #20
 1132              		.cfi_def_cfa_offset 32
 1133              	.LVL152:
 326:cc85xx.c      ****   bool ret = false;
 327:cc85xx.c      ****   uint32_t key = BE32(CC85XX_BL_UNLOCK_SPI_KEY);
 1134              		.loc 1 327 0
 1135 0004 1C4B     		ldr	r3, .L70
 1136 0006 0393     		str	r3, [sp, #12]
 328:cc85xx.c      ****   uint16_t sw = 0xCCCC;
 1137              		.loc 1 328 0
 1138 0008 0A23     		movs	r3, #10
 1139 000a 6B44     		add	r3, r3, sp
 1140 000c 1B4A     		ldr	r2, .L70+4
 1141 000e 1A80     		strh	r2, [r3]
 329:cc85xx.c      **** 
 330:cc85xx.c      ****   ret = cc85xx_cmd_req(CC85XX_CMD_TYPE_BL_UNLOCK_SPI, sizeof(key), (uint8_t *)&key, &sw);
 1142              		.loc 1 330 0
 1143 0010 03AA     		add	r2, sp, #12
 1144 0012 0421     		movs	r1, #4
 1145 0014 0020     		movs	r0, #0
 1146 0016 FFF7FEFF 		bl	cc85xx_cmd_req
 1147              	.LVL153:
 1148 001a 041E     		subs	r4, r0, #0
 1149              	.LVL154:
 331:cc85xx.c      ****   
 332:cc85xx.c      ****   if (!ret || !cc85xx_wait_for_status(CC85XX_SW_BL_UNLOCK_SPI_SUCCESS, CC85XX_WAIT_FOR_OPERATION_TI
 1150              		.loc 1 332 0
 1151 001c 08D0     		beq	.L65
 1152              		.loc 1 332 0 is_stmt 0 discriminator 1
 1153 001e 0A22     		movs	r2, #10
 1154 0020 6A44     		add	r2, r2, sp
 1155 0022 FA21     		movs	r1, #250
 1156 0024 8900     		lsls	r1, r1, #2
 1157 0026 1648     		ldr	r0, .L70+8
 1158              	.LVL155:
 1159 0028 FFF7FEFF 		bl	cc85xx_wait_for_status
 1160              	.LVL156:
 1161 002c 0028     		cmp	r0, #0
 1162 002e 21D1     		bne	.L66
ARM GAS  C:\Users\TERENC~1\AppData\Local\Temp\ccl7zEj9.s 			page 28


 1163              	.L65:
 333:cc85xx.c      ****   {
 334:cc85xx.c      ****     PRINTF("ERROR: %s: ret=%d, status=0x%04X\n", __FUNCTION__, ret, sw);
 1164              		.loc 1 334 0 is_stmt 1
 1165 0030 FFF7FEFF 		bl	USBUART_GetConfiguration
 1166              	.LVL157:
 1167 0034 0028     		cmp	r0, #0
 1168 0036 1CD0     		beq	.L69
 1169              	.LBB4:
 1170              		.loc 1 334 0 is_stmt 0 discriminator 1
 1171 0038 124B     		ldr	r3, .L70+12
 1172 003a 1D68     		ldr	r5, [r3]
 1173              	.LVL158:
 1174              	.L68:
 1175              		.loc 1 334 0 discriminator 5
 1176 003c FFF7FEFF 		bl	USBUART_CDCIsReady
 1177              	.LVL159:
 1178 0040 0028     		cmp	r0, #0
 1179 0042 05D1     		bne	.L67
 1180              		.loc 1 334 0 discriminator 3
 1181 0044 0F4B     		ldr	r3, .L70+12
 1182 0046 1B68     		ldr	r3, [r3]
 1183 0048 5B1B     		subs	r3, r3, r5
 1184 004a 0F4A     		ldr	r2, .L70+16
 1185 004c 9342     		cmp	r3, r2
 1186 004e F5D9     		bls	.L68
 1187              	.L67:
 1188              		.loc 1 334 0 discriminator 6
 1189 0050 0E4D     		ldr	r5, .L70+20
 1190              	.LVL160:
 1191 0052 0A23     		movs	r3, #10
 1192 0054 6B44     		add	r3, r3, sp
 1193 0056 1B88     		ldrh	r3, [r3]
 1194 0058 0093     		str	r3, [sp]
 1195 005a 2300     		movs	r3, r4
 1196 005c 0C4A     		ldr	r2, .L70+24
 1197 005e 1C32     		adds	r2, r2, #28
 1198 0060 0C49     		ldr	r1, .L70+28
 1199 0062 2800     		movs	r0, r5
 1200 0064 FFF7FEFF 		bl	sprintf
 1201              	.LVL161:
 1202 0068 2800     		movs	r0, r5
 1203 006a FFF7FEFF 		bl	USBUART_PutString
 1204              	.LVL162:
 1205              	.LBE4:
 335:cc85xx.c      ****     return false;
 1206              		.loc 1 335 0 is_stmt 1 discriminator 6
 1207 006e 0020     		movs	r0, #0
 1208 0070 00E0     		b	.L66
 1209              	.L69:
 1210              		.loc 1 335 0 is_stmt 0
 1211 0072 0020     		movs	r0, #0
 1212              	.L66:
 336:cc85xx.c      ****   }
 337:cc85xx.c      **** 
 338:cc85xx.c      ****   return true;
 339:cc85xx.c      **** }
ARM GAS  C:\Users\TERENC~1\AppData\Local\Temp\ccl7zEj9.s 			page 29


 1213              		.loc 1 339 0 is_stmt 1
 1214 0074 05B0     		add	sp, sp, #20
 1215              		@ sp needed
 1216 0076 30BD     		pop	{r4, r5, pc}
 1217              	.L71:
 1218              		.align	2
 1219              	.L70:
 1220 0078 2505B007 		.word	128976165
 1221 007c CCCCFFFF 		.word	-13108
 1222 0080 20800000 		.word	32800
 1223 0084 00000000 		.word	tmrCounter_ms
 1224 0088 E7030000 		.word	999
 1225 008c 00000000 		.word	gbuf
 1226 0090 00000000 		.word	.LANCHOR0
 1227 0094 44000000 		.word	.LC9
 1228              		.cfi_endproc
 1229              	.LFE14:
 1230              		.size	cc85xx_bl_unlock_spi, .-cc85xx_bl_unlock_spi
 1231              		.section	.text.cc85xx_bl_mass_erase,"ax",%progbits
 1232              		.align	2
 1233              		.global	cc85xx_bl_mass_erase
 1234              		.code	16
 1235              		.thumb_func
 1236              		.type	cc85xx_bl_mass_erase, %function
 1237              	cc85xx_bl_mass_erase:
 1238              	.LFB15:
 340:cc85xx.c      **** 
 341:cc85xx.c      **** bool cc85xx_bl_mass_erase(void)
 342:cc85xx.c      **** {
 1239              		.loc 1 342 0
 1240              		.cfi_startproc
 1241              		@ args = 0, pretend = 0, frame = 8
 1242              		@ frame_needed = 0, uses_anonymous_args = 0
 1243 0000 30B5     		push	{r4, r5, lr}
 1244              		.cfi_def_cfa_offset 12
 1245              		.cfi_offset 4, -12
 1246              		.cfi_offset 5, -8
 1247              		.cfi_offset 14, -4
 1248 0002 85B0     		sub	sp, sp, #20
 1249              		.cfi_def_cfa_offset 32
 1250              	.LVL163:
 343:cc85xx.c      ****   bool ret = false;
 344:cc85xx.c      ****   uint32_t key = BE32(CC85XX_BL_MASS_ERASE_KEY);
 1251              		.loc 1 344 0
 1252 0004 1C4B     		ldr	r3, .L78
 1253 0006 0393     		str	r3, [sp, #12]
 345:cc85xx.c      ****   uint16_t sw = 0xCCCC;
 1254              		.loc 1 345 0
 1255 0008 0A23     		movs	r3, #10
 1256 000a 6B44     		add	r3, r3, sp
 1257 000c 1B4A     		ldr	r2, .L78+4
 1258 000e 1A80     		strh	r2, [r3]
 346:cc85xx.c      **** 
 347:cc85xx.c      ****   ret = cc85xx_cmd_req(CC85XX_CMD_TYPE_BL_MASS_ERASE, sizeof(key), (uint8_t *)&key, &sw);
 1259              		.loc 1 347 0
 1260 0010 03AA     		add	r2, sp, #12
 1261 0012 0421     		movs	r1, #4
ARM GAS  C:\Users\TERENC~1\AppData\Local\Temp\ccl7zEj9.s 			page 30


 1262 0014 0320     		movs	r0, #3
 1263 0016 FFF7FEFF 		bl	cc85xx_cmd_req
 1264              	.LVL164:
 1265 001a 041E     		subs	r4, r0, #0
 1266              	.LVL165:
 348:cc85xx.c      ****   
 349:cc85xx.c      ****   if (!ret || !cc85xx_wait_for_status(CC85XX_SW_BL_MASS_ERASE_SUCCESS, CC85XX_WAIT_FOR_OPERATION_TI
 1267              		.loc 1 349 0
 1268 001c 08D0     		beq	.L73
 1269              		.loc 1 349 0 is_stmt 0 discriminator 1
 1270 001e 0A22     		movs	r2, #10
 1271 0020 6A44     		add	r2, r2, sp
 1272 0022 FA21     		movs	r1, #250
 1273 0024 8900     		lsls	r1, r1, #2
 1274 0026 1648     		ldr	r0, .L78+8
 1275              	.LVL166:
 1276 0028 FFF7FEFF 		bl	cc85xx_wait_for_status
 1277              	.LVL167:
 1278 002c 0028     		cmp	r0, #0
 1279 002e 21D1     		bne	.L74
 1280              	.L73:
 350:cc85xx.c      ****   {
 351:cc85xx.c      ****     PRINTF("ERROR: %s: ret=%d, status=0x%04X\n", __FUNCTION__, ret, sw);
 1281              		.loc 1 351 0 is_stmt 1
 1282 0030 FFF7FEFF 		bl	USBUART_GetConfiguration
 1283              	.LVL168:
 1284 0034 0028     		cmp	r0, #0
 1285 0036 1CD0     		beq	.L77
 1286              	.LBB5:
 1287              		.loc 1 351 0 is_stmt 0 discriminator 1
 1288 0038 124B     		ldr	r3, .L78+12
 1289 003a 1D68     		ldr	r5, [r3]
 1290              	.LVL169:
 1291              	.L76:
 1292              		.loc 1 351 0 discriminator 5
 1293 003c FFF7FEFF 		bl	USBUART_CDCIsReady
 1294              	.LVL170:
 1295 0040 0028     		cmp	r0, #0
 1296 0042 05D1     		bne	.L75
 1297              		.loc 1 351 0 discriminator 3
 1298 0044 0F4B     		ldr	r3, .L78+12
 1299 0046 1B68     		ldr	r3, [r3]
 1300 0048 5B1B     		subs	r3, r3, r5
 1301 004a 0F4A     		ldr	r2, .L78+16
 1302 004c 9342     		cmp	r3, r2
 1303 004e F5D9     		bls	.L76
 1304              	.L75:
 1305              		.loc 1 351 0 discriminator 6
 1306 0050 0E4D     		ldr	r5, .L78+20
 1307              	.LVL171:
 1308 0052 0A23     		movs	r3, #10
 1309 0054 6B44     		add	r3, r3, sp
 1310 0056 1B88     		ldrh	r3, [r3]
 1311 0058 0093     		str	r3, [sp]
 1312 005a 2300     		movs	r3, r4
 1313 005c 0C4A     		ldr	r2, .L78+24
 1314 005e 3432     		adds	r2, r2, #52
ARM GAS  C:\Users\TERENC~1\AppData\Local\Temp\ccl7zEj9.s 			page 31


 1315 0060 0C49     		ldr	r1, .L78+28
 1316 0062 2800     		movs	r0, r5
 1317 0064 FFF7FEFF 		bl	sprintf
 1318              	.LVL172:
 1319 0068 2800     		movs	r0, r5
 1320 006a FFF7FEFF 		bl	USBUART_PutString
 1321              	.LVL173:
 1322              	.LBE5:
 352:cc85xx.c      ****     return false;
 1323              		.loc 1 352 0 is_stmt 1 discriminator 6
 1324 006e 0020     		movs	r0, #0
 1325 0070 00E0     		b	.L74
 1326              	.L77:
 1327              		.loc 1 352 0 is_stmt 0
 1328 0072 0020     		movs	r0, #0
 1329              	.L74:
 353:cc85xx.c      ****   }
 354:cc85xx.c      **** 
 355:cc85xx.c      ****   return true;
 356:cc85xx.c      **** }
 1330              		.loc 1 356 0 is_stmt 1
 1331 0074 05B0     		add	sp, sp, #20
 1332              		@ sp needed
 1333 0076 30BD     		pop	{r4, r5, pc}
 1334              	.L79:
 1335              		.align	2
 1336              	.L78:
 1337 0078 25051337 		.word	923993381
 1338 007c CCCCFFFF 		.word	-13108
 1339 0080 03800000 		.word	32771
 1340 0084 00000000 		.word	tmrCounter_ms
 1341 0088 E7030000 		.word	999
 1342 008c 00000000 		.word	gbuf
 1343 0090 00000000 		.word	.LANCHOR0
 1344 0094 44000000 		.word	.LC9
 1345              		.cfi_endproc
 1346              	.LFE15:
 1347              		.size	cc85xx_bl_mass_erase, .-cc85xx_bl_mass_erase
 1348              		.section	.text.cc85xx_bl_flash_verify,"ax",%progbits
 1349              		.align	2
 1350              		.global	cc85xx_bl_flash_verify
 1351              		.code	16
 1352              		.thumb_func
 1353              		.type	cc85xx_bl_flash_verify, %function
 1354              	cc85xx_bl_flash_verify:
 1355              	.LFB16:
 357:cc85xx.c      **** 
 358:cc85xx.c      **** bool cc85xx_bl_flash_verify(uint32_t *pCrc32)
 359:cc85xx.c      **** {
 1356              		.loc 1 359 0
 1357              		.cfi_startproc
 1358              		@ args = 0, pretend = 0, frame = 8
 1359              		@ frame_needed = 0, uses_anonymous_args = 0
 1360              	.LVL174:
 1361 0000 F0B5     		push	{r4, r5, r6, r7, lr}
 1362              		.cfi_def_cfa_offset 20
 1363              		.cfi_offset 4, -20
ARM GAS  C:\Users\TERENC~1\AppData\Local\Temp\ccl7zEj9.s 			page 32


 1364              		.cfi_offset 5, -16
 1365              		.cfi_offset 6, -12
 1366              		.cfi_offset 7, -8
 1367              		.cfi_offset 14, -4
 1368 0002 85B0     		sub	sp, sp, #20
 1369              		.cfi_def_cfa_offset 40
 1370 0004 0400     		movs	r4, r0
 1371              	.LVL175:
 360:cc85xx.c      ****   bool ret = false;
 361:cc85xx.c      ****   bool rv = true;
 362:cc85xx.c      ****   uint16_t sw;
 363:cc85xx.c      **** 
 364:cc85xx.c      ****   cc85xx_bl_flash_verify_s *pTxPkt = (cc85xx_bl_flash_verify_s *)malloc(sizeof(cc85xx_bl_flash_veri
 1372              		.loc 1 364 0
 1373 0006 0820     		movs	r0, #8
 1374              	.LVL176:
 1375 0008 FFF7FEFF 		bl	malloc
 1376              	.LVL177:
 1377 000c 0600     		movs	r6, r0
 1378              	.LVL178:
 365:cc85xx.c      **** 
 366:cc85xx.c      ****   pTxPkt->byte_count = BE32(nImageBytes);
 1379              		.loc 1 366 0
 1380 000e 424B     		ldr	r3, .L90
 1381 0010 1A68     		ldr	r2, [r3]
 1382 0012 100E     		lsrs	r0, r2, #24
 1383              	.LVL179:
 1384 0014 130A     		lsrs	r3, r2, #8
 1385 0016 FF21     		movs	r1, #255
 1386 0018 0902     		lsls	r1, r1, #8
 1387 001a 0B40     		ands	r3, r1
 1388 001c 0343     		orrs	r3, r0
 1389 001e 1002     		lsls	r0, r2, #8
 1390 0020 FF21     		movs	r1, #255
 1391 0022 0904     		lsls	r1, r1, #16
 1392 0024 0140     		ands	r1, r0
 1393 0026 0B43     		orrs	r3, r1
 1394 0028 1206     		lsls	r2, r2, #24
 1395 002a 1343     		orrs	r3, r2
 1396 002c 3371     		strb	r3, [r6, #4]
 1397 002e 1A0A     		lsrs	r2, r3, #8
 1398 0030 7271     		strb	r2, [r6, #5]
 1399 0032 1A0C     		lsrs	r2, r3, #16
 1400 0034 B271     		strb	r2, [r6, #6]
 1401 0036 1B0E     		lsrs	r3, r3, #24
 1402 0038 F371     		strb	r3, [r6, #7]
 367:cc85xx.c      ****   pTxPkt->data_addr = BE32(0x8000UL);
 1403              		.loc 1 367 0
 1404 003a 0023     		movs	r3, #0
 1405 003c 3370     		strb	r3, [r6]
 1406 003e 7370     		strb	r3, [r6, #1]
 1407 0040 803B     		subs	r3, r3, #128
 1408 0042 B370     		strb	r3, [r6, #2]
 1409 0044 0023     		movs	r3, #0
 1410 0046 F370     		strb	r3, [r6, #3]
 368:cc85xx.c      ****   ret = cc85xx_cmd_req(CC85XX_CMD_TYPE_BL_FLASH_VERIFY, sizeof(cc85xx_bl_flash_verify_s), (uint8_t 
 1411              		.loc 1 368 0
ARM GAS  C:\Users\TERENC~1\AppData\Local\Temp\ccl7zEj9.s 			page 33


 1412 0048 0E33     		adds	r3, r3, #14
 1413 004a 6B44     		add	r3, r3, sp
 1414 004c 3200     		movs	r2, r6
 1415 004e 0821     		movs	r1, #8
 1416 0050 0F20     		movs	r0, #15
 1417 0052 FFF7FEFF 		bl	cc85xx_cmd_req
 1418              	.LVL180:
 1419 0056 0500     		movs	r5, r0
 1420              	.LVL181:
 369:cc85xx.c      **** 
 370:cc85xx.c      ****   free(pTxPkt);
 1421              		.loc 1 370 0
 1422 0058 3000     		movs	r0, r6
 1423 005a FFF7FEFF 		bl	free
 1424              	.LVL182:
 371:cc85xx.c      **** 
 372:cc85xx.c      ****   if (!ret || !cc85xx_wait_for_status(CC85XX_SW_BL_FLASH_VERIFY_SUCCESS, CC85XX_WAIT_FOR_OPERATION_
 1425              		.loc 1 372 0
 1426 005e 002D     		cmp	r5, #0
 1427 0060 08D0     		beq	.L81
 1428              		.loc 1 372 0 is_stmt 0 discriminator 1
 1429 0062 0E22     		movs	r2, #14
 1430 0064 6A44     		add	r2, r2, sp
 1431 0066 FA21     		movs	r1, #250
 1432 0068 8900     		lsls	r1, r1, #2
 1433 006a 2C48     		ldr	r0, .L90+4
 1434 006c FFF7FEFF 		bl	cc85xx_wait_for_status
 1435              	.LVL183:
 1436 0070 0028     		cmp	r0, #0
 1437 0072 20D1     		bne	.L88
 1438              	.L81:
 373:cc85xx.c      ****   {
 374:cc85xx.c      ****     PRINTF("ERROR: %s: ret=%d, status=0x%04X\n", __FUNCTION__, ret, sw);
 1439              		.loc 1 374 0 is_stmt 1
 1440 0074 FFF7FEFF 		bl	USBUART_GetConfiguration
 1441              	.LVL184:
 1442 0078 0028     		cmp	r0, #0
 1443 007a 1ED0     		beq	.L89
 1444              	.LBB6:
 1445              		.loc 1 374 0 is_stmt 0 discriminator 1
 1446 007c 284B     		ldr	r3, .L90+8
 1447 007e 1E68     		ldr	r6, [r3]
 1448              	.LVL185:
 1449              	.L84:
 1450              		.loc 1 374 0 discriminator 5
 1451 0080 FFF7FEFF 		bl	USBUART_CDCIsReady
 1452              	.LVL186:
 1453 0084 0028     		cmp	r0, #0
 1454 0086 05D1     		bne	.L83
 1455              		.loc 1 374 0 discriminator 3
 1456 0088 254B     		ldr	r3, .L90+8
 1457 008a 1B68     		ldr	r3, [r3]
 1458 008c 9B1B     		subs	r3, r3, r6
 1459 008e 254A     		ldr	r2, .L90+12
 1460 0090 9342     		cmp	r3, r2
 1461 0092 F5D9     		bls	.L84
 1462              	.L83:
ARM GAS  C:\Users\TERENC~1\AppData\Local\Temp\ccl7zEj9.s 			page 34


 1463              		.loc 1 374 0 discriminator 6
 1464 0094 244E     		ldr	r6, .L90+16
 1465              	.LVL187:
 1466 0096 0E23     		movs	r3, #14
 1467 0098 6B44     		add	r3, r3, sp
 1468 009a 1B88     		ldrh	r3, [r3]
 1469 009c 0093     		str	r3, [sp]
 1470 009e 2B00     		movs	r3, r5
 1471 00a0 224A     		ldr	r2, .L90+20
 1472 00a2 4C32     		adds	r2, r2, #76
 1473 00a4 2249     		ldr	r1, .L90+24
 1474 00a6 3000     		movs	r0, r6
 1475 00a8 FFF7FEFF 		bl	sprintf
 1476              	.LVL188:
 1477 00ac 3000     		movs	r0, r6
 1478 00ae FFF7FEFF 		bl	USBUART_PutString
 1479              	.LVL189:
 1480              	.LBE6:
 375:cc85xx.c      ****     rv = false;
 1481              		.loc 1 375 0 is_stmt 1 discriminator 6
 1482 00b2 0025     		movs	r5, #0
 1483              	.LVL190:
 1484 00b4 02E0     		b	.L82
 1485              	.LVL191:
 1486              	.L88:
 361:cc85xx.c      ****   uint16_t sw;
 1487              		.loc 1 361 0
 1488 00b6 0125     		movs	r5, #1
 1489              	.LVL192:
 1490 00b8 00E0     		b	.L82
 1491              	.LVL193:
 1492              	.L89:
 1493              		.loc 1 375 0
 1494 00ba 0025     		movs	r5, #0
 1495              	.LVL194:
 1496              	.L82:
 376:cc85xx.c      ****   }
 377:cc85xx.c      ****   
 378:cc85xx.c      ****   if (pCrc32)
 1497              		.loc 1 378 0
 1498 00bc 002C     		cmp	r4, #0
 1499 00be 28D0     		beq	.L85
 379:cc85xx.c      ****   {
 380:cc85xx.c      ****     ret = cc85xx_read(sizeof(uint32_t), &sw, (uint8_t *)pCrc32);
 1500              		.loc 1 380 0
 1501 00c0 2200     		movs	r2, r4
 1502 00c2 0E21     		movs	r1, #14
 1503 00c4 6944     		add	r1, r1, sp
 1504 00c6 0420     		movs	r0, #4
 1505 00c8 FFF7FEFF 		bl	cc85xx_read
 1506              	.LVL195:
 381:cc85xx.c      ****     if (ret)
 1507              		.loc 1 381 0
 1508 00cc 0028     		cmp	r0, #0
 1509 00ce 20D0     		beq	.L85
 382:cc85xx.c      ****     {
 383:cc85xx.c      ****       PRINTF("nImageBytes = %u (0x%08x)\nCRC_VAL = 0x%08X\nsw = 0x%04X\n", nImageBytes, nImageBytes
ARM GAS  C:\Users\TERENC~1\AppData\Local\Temp\ccl7zEj9.s 			page 35


 1510              		.loc 1 383 0
 1511 00d0 FFF7FEFF 		bl	USBUART_GetConfiguration
 1512              	.LVL196:
 1513 00d4 0028     		cmp	r0, #0
 1514 00d6 1CD0     		beq	.L85
 1515              	.LBB7:
 1516              		.loc 1 383 0 is_stmt 0 discriminator 1
 1517 00d8 114B     		ldr	r3, .L90+8
 1518 00da 1E68     		ldr	r6, [r3]
 1519              	.LVL197:
 1520              	.L87:
 1521              		.loc 1 383 0 discriminator 5
 1522 00dc FFF7FEFF 		bl	USBUART_CDCIsReady
 1523              	.LVL198:
 1524 00e0 0028     		cmp	r0, #0
 1525 00e2 05D1     		bne	.L86
 1526              		.loc 1 383 0 discriminator 3
 1527 00e4 0E4B     		ldr	r3, .L90+8
 1528 00e6 1B68     		ldr	r3, [r3]
 1529 00e8 9B1B     		subs	r3, r3, r6
 1530 00ea 0E4A     		ldr	r2, .L90+12
 1531 00ec 9342     		cmp	r3, r2
 1532 00ee F5D9     		bls	.L87
 1533              	.L86:
 1534              		.loc 1 383 0 discriminator 6
 1535 00f0 094B     		ldr	r3, .L90
 1536 00f2 1A68     		ldr	r2, [r3]
 1537 00f4 0C4E     		ldr	r6, .L90+16
 1538              	.LVL199:
 1539 00f6 0E23     		movs	r3, #14
 1540 00f8 6B44     		add	r3, r3, sp
 1541 00fa 1B88     		ldrh	r3, [r3]
 1542 00fc 0193     		str	r3, [sp, #4]
 1543 00fe 2368     		ldr	r3, [r4]
 1544 0100 0093     		str	r3, [sp]
 1545 0102 1300     		movs	r3, r2
 1546 0104 0B49     		ldr	r1, .L90+28
 1547 0106 3000     		movs	r0, r6
 1548 0108 FFF7FEFF 		bl	sprintf
 1549              	.LVL200:
 1550 010c 3000     		movs	r0, r6
 1551 010e FFF7FEFF 		bl	USBUART_PutString
 1552              	.LVL201:
 1553              	.L85:
 1554              	.LBE7:
 384:cc85xx.c      ****     }
 385:cc85xx.c      ****   }
 386:cc85xx.c      ****   
 387:cc85xx.c      ****   return rv;
 388:cc85xx.c      **** }
 1555              		.loc 1 388 0 is_stmt 1
 1556 0112 2800     		movs	r0, r5
 1557 0114 05B0     		add	sp, sp, #20
 1558              		@ sp needed
 1559              	.LVL202:
 1560              	.LVL203:
 1561 0116 F0BD     		pop	{r4, r5, r6, r7, pc}
ARM GAS  C:\Users\TERENC~1\AppData\Local\Temp\ccl7zEj9.s 			page 36


 1562              	.L91:
 1563              		.align	2
 1564              	.L90:
 1565 0118 00000000 		.word	.LANCHOR1
 1566 011c 0E800000 		.word	32782
 1567 0120 00000000 		.word	tmrCounter_ms
 1568 0124 E7030000 		.word	999
 1569 0128 00000000 		.word	gbuf
 1570 012c 00000000 		.word	.LANCHOR0
 1571 0130 44000000 		.word	.LC9
 1572 0134 68000000 		.word	.LC25
 1573              		.cfi_endproc
 1574              	.LFE16:
 1575              		.size	cc85xx_bl_flash_verify, .-cc85xx_bl_flash_verify
 1576              		.section	.text.cc85xx_print_info,"ax",%progbits
 1577              		.align	2
 1578              		.global	cc85xx_print_info
 1579              		.code	16
 1580              		.thumb_func
 1581              		.type	cc85xx_print_info, %function
 1582              	cc85xx_print_info:
 1583              	.LFB17:
 389:cc85xx.c      **** 
 390:cc85xx.c      **** bool cc85xx_print_info(void)
 391:cc85xx.c      **** {
 1584              		.loc 1 391 0
 1585              		.cfi_startproc
 1586              		@ args = 0, pretend = 0, frame = 32
 1587              		@ frame_needed = 0, uses_anonymous_args = 0
 1588 0000 30B5     		push	{r4, r5, lr}
 1589              		.cfi_def_cfa_offset 12
 1590              		.cfi_offset 4, -12
 1591              		.cfi_offset 5, -8
 1592              		.cfi_offset 14, -4
 1593 0002 89B0     		sub	sp, sp, #36
 1594              		.cfi_def_cfa_offset 48
 392:cc85xx.c      ****   uint32_t i;
 393:cc85xx.c      ****   uint8_t rsp[24];
 394:cc85xx.c      ****   const uint16_t rsvd = 0x00B0;
 1595              		.loc 1 394 0
 1596 0004 6B46     		mov	r3, sp
 1597 0006 9A1D     		adds	r2, r3, #6
 1598 0008 B023     		movs	r3, #176
 1599 000a 1380     		strh	r3, [r2]
 395:cc85xx.c      ****   uint16_t sw = 0;
 1600              		.loc 1 395 0
 1601 000c 01AB     		add	r3, sp, #4
 1602 000e 0021     		movs	r1, #0
 1603 0010 1980     		strh	r1, [r3]
 1604              	.LVL204:
 396:cc85xx.c      ****   bool ret = false;
 397:cc85xx.c      ****   cc85xx_di_get_chip_info_rsp_s *pRsp;
 398:cc85xx.c      ****   
 399:cc85xx.c      ****   ret = cc85xx_cmd_req(CC85XX_CMD_TYPE_DI_GET_CHIP_INFO, sizeof(rsvd), (uint8_t *)&rsvd, &sw);
 1605              		.loc 1 399 0
 1606 0012 0231     		adds	r1, r1, #2
 1607 0014 1F20     		movs	r0, #31
ARM GAS  C:\Users\TERENC~1\AppData\Local\Temp\ccl7zEj9.s 			page 37


 1608 0016 FFF7FEFF 		bl	cc85xx_cmd_req
 1609              	.LVL205:
 1610 001a 041E     		subs	r4, r0, #0
 1611              	.LVL206:
 400:cc85xx.c      ****   if (!ret)
 1612              		.loc 1 400 0
 1613 001c 1DD1     		bne	.L93
 401:cc85xx.c      ****   {
 402:cc85xx.c      ****     PRINTF("ERROR: CMD_REQ 0x%02X failed: sw=0x%04X\n", CC85XX_CMD_TYPE_DI_GET_CHIP_INFO, sw);
 1614              		.loc 1 402 0
 1615 001e FFF7FEFF 		bl	USBUART_GetConfiguration
 1616              	.LVL207:
 1617 0022 0028     		cmp	r0, #0
 1618 0024 00D1     		bne	.LCB1551
 1619 0026 C2E1     		b	.L138	@long jump
 1620              	.LCB1551:
 1621              	.LBB8:
 1622              		.loc 1 402 0 is_stmt 0 discriminator 1
 1623 0028 1E4B     		ldr	r3, .L141
 1624 002a 1D68     		ldr	r5, [r3]
 1625              	.LVL208:
 1626              	.L96:
 1627              		.loc 1 402 0 discriminator 5
 1628 002c FFF7FEFF 		bl	USBUART_CDCIsReady
 1629              	.LVL209:
 1630 0030 0028     		cmp	r0, #0
 1631 0032 05D1     		bne	.L95
 1632              		.loc 1 402 0 discriminator 3
 1633 0034 1B4B     		ldr	r3, .L141
 1634 0036 1B68     		ldr	r3, [r3]
 1635 0038 5B1B     		subs	r3, r3, r5
 1636 003a 1B4A     		ldr	r2, .L141+4
 1637 003c 9342     		cmp	r3, r2
 1638 003e F5D9     		bls	.L96
 1639              	.L95:
 1640              		.loc 1 402 0 discriminator 6
 1641 0040 01AB     		add	r3, sp, #4
 1642 0042 1B88     		ldrh	r3, [r3]
 1643 0044 194D     		ldr	r5, .L141+8
 1644              	.LVL210:
 1645 0046 1F22     		movs	r2, #31
 1646 0048 1949     		ldr	r1, .L141+12
 1647 004a 2800     		movs	r0, r5
 1648 004c FFF7FEFF 		bl	sprintf
 1649              	.LVL211:
 1650 0050 2800     		movs	r0, r5
 1651 0052 FFF7FEFF 		bl	USBUART_PutString
 1652              	.LVL212:
 1653              	.LBE8:
 403:cc85xx.c      ****     return ret;
 1654              		.loc 1 403 0 is_stmt 1 discriminator 6
 1655 0056 2000     		movs	r0, r4
 1656 0058 AEE1     		b	.L94
 1657              	.LVL213:
 1658              	.L93:
 404:cc85xx.c      ****   }
 405:cc85xx.c      **** 
ARM GAS  C:\Users\TERENC~1\AppData\Local\Temp\ccl7zEj9.s 			page 38


 406:cc85xx.c      ****   ret = cc85xx_read(24, &sw, rsp);
 1659              		.loc 1 406 0
 1660 005a 02AA     		add	r2, sp, #8
 1661 005c 01A9     		add	r1, sp, #4
 1662 005e 1820     		movs	r0, #24
 1663              	.LVL214:
 1664 0060 FFF7FEFF 		bl	cc85xx_read
 1665              	.LVL215:
 1666 0064 041E     		subs	r4, r0, #0
 1667              	.LVL216:
 407:cc85xx.c      ****   if (!ret)
 1668              		.loc 1 407 0
 1669 0066 27D1     		bne	.L97
 408:cc85xx.c      ****   {
 409:cc85xx.c      ****     PRINTF("ERROR: READ failed: sw=0x%04X\n", sw);
 1670              		.loc 1 409 0
 1671 0068 FFF7FEFF 		bl	USBUART_GetConfiguration
 1672              	.LVL217:
 1673 006c 0028     		cmp	r0, #0
 1674 006e 00D1     		bne	.LCB1605
 1675 0070 9FE1     		b	.L139	@long jump
 1676              	.LCB1605:
 1677              	.LBB9:
 1678              		.loc 1 409 0 is_stmt 0 discriminator 1
 1679 0072 0C4B     		ldr	r3, .L141
 1680 0074 1D68     		ldr	r5, [r3]
 1681              	.LVL218:
 1682              	.L99:
 1683              		.loc 1 409 0 discriminator 5
 1684 0076 FFF7FEFF 		bl	USBUART_CDCIsReady
 1685              	.LVL219:
 1686 007a 0028     		cmp	r0, #0
 1687 007c 05D1     		bne	.L98
 1688              		.loc 1 409 0 discriminator 3
 1689 007e 094B     		ldr	r3, .L141
 1690 0080 1B68     		ldr	r3, [r3]
 1691 0082 5B1B     		subs	r3, r3, r5
 1692 0084 084A     		ldr	r2, .L141+4
 1693 0086 9342     		cmp	r3, r2
 1694 0088 F5D9     		bls	.L99
 1695              	.L98:
 1696              		.loc 1 409 0 discriminator 6
 1697 008a 01AB     		add	r3, sp, #4
 1698 008c 1A88     		ldrh	r2, [r3]
 1699 008e 074D     		ldr	r5, .L141+8
 1700              	.LVL220:
 1701 0090 0849     		ldr	r1, .L141+16
 1702 0092 2800     		movs	r0, r5
 1703 0094 FFF7FEFF 		bl	sprintf
 1704              	.LVL221:
 1705 0098 2800     		movs	r0, r5
 1706 009a FFF7FEFF 		bl	USBUART_PutString
 1707              	.LVL222:
 1708              	.LBE9:
 410:cc85xx.c      ****     return ret;
 1709              		.loc 1 410 0 is_stmt 1 discriminator 6
 1710 009e 2000     		movs	r0, r4
ARM GAS  C:\Users\TERENC~1\AppData\Local\Temp\ccl7zEj9.s 			page 39


 1711 00a0 8AE1     		b	.L94
 1712              	.L142:
 1713 00a2 C046     		.align	2
 1714              	.L141:
 1715 00a4 00000000 		.word	tmrCounter_ms
 1716 00a8 E7030000 		.word	999
 1717 00ac 00000000 		.word	gbuf
 1718 00b0 A0000000 		.word	.LC28
 1719 00b4 CC000000 		.word	.LC31
 1720              	.LVL223:
 1721              	.L97:
 411:cc85xx.c      ****   }
 412:cc85xx.c      ****   
 413:cc85xx.c      **** #if 0
 414:cc85xx.c      ****   for (i = 0; i < 24; i++)
 415:cc85xx.c      ****   {
 416:cc85xx.c      ****     PRINTF("0x%02X: %02X\n", i, rsp[i]);
 417:cc85xx.c      ****   }
 418:cc85xx.c      **** #endif
 419:cc85xx.c      ****   
 420:cc85xx.c      ****   pRsp = (cc85xx_di_get_chip_info_rsp_s *)rsp;
 421:cc85xx.c      ****   
 422:cc85xx.c      ****   PRINTF("\tfamily_id: 0x%04X\n", BE16(pRsp->family_id));
 1722              		.loc 1 422 0
 1723 00b8 FFF7FEFF 		bl	USBUART_GetConfiguration
 1724              	.LVL224:
 1725 00bc 0028     		cmp	r0, #0
 1726 00be 19D0     		beq	.L100
 1727              	.LBB10:
 1728              		.loc 1 422 0 is_stmt 0 discriminator 1
 1729 00c0 BE4B     		ldr	r3, .L143
 1730 00c2 1D68     		ldr	r5, [r3]
 1731              	.LVL225:
 1732              	.L102:
 1733              		.loc 1 422 0 discriminator 5
 1734 00c4 FFF7FEFF 		bl	USBUART_CDCIsReady
 1735              	.LVL226:
 1736 00c8 0028     		cmp	r0, #0
 1737 00ca 05D1     		bne	.L101
 1738              		.loc 1 422 0 discriminator 3
 1739 00cc BB4B     		ldr	r3, .L143
 1740 00ce 1B68     		ldr	r3, [r3]
 1741 00d0 5B1B     		subs	r3, r3, r5
 1742 00d2 BB4A     		ldr	r2, .L143+4
 1743 00d4 9342     		cmp	r3, r2
 1744 00d6 F5D9     		bls	.L102
 1745              	.L101:
 1746              		.loc 1 422 0 discriminator 6
 1747 00d8 02AB     		add	r3, sp, #8
 1748              	.LVL227:
 1749 00da 1B88     		ldrh	r3, [r3]
 1750              	.LVL228:
 1751 00dc 1A0A     		lsrs	r2, r3, #8
 1752 00de 1B06     		lsls	r3, r3, #24
 1753 00e0 1B0C     		lsrs	r3, r3, #16
 1754 00e2 1A43     		orrs	r2, r3
 1755 00e4 B74D     		ldr	r5, .L143+8
ARM GAS  C:\Users\TERENC~1\AppData\Local\Temp\ccl7zEj9.s 			page 40


 1756              	.LVL229:
 1757 00e6 B849     		ldr	r1, .L143+12
 1758 00e8 2800     		movs	r0, r5
 1759 00ea FFF7FEFF 		bl	sprintf
 1760              	.LVL230:
 1761 00ee 2800     		movs	r0, r5
 1762 00f0 FFF7FEFF 		bl	USBUART_PutString
 1763              	.LVL231:
 1764              	.L100:
 1765              	.LBE10:
 423:cc85xx.c      ****   
 424:cc85xx.c      ****   PRINTF("\tsil_min_rev: %d\n", pRsp->sil_min_rev);
 1766              		.loc 1 424 0 is_stmt 1
 1767 00f4 FFF7FEFF 		bl	USBUART_GetConfiguration
 1768              	.LVL232:
 1769 00f8 0028     		cmp	r0, #0
 1770 00fa 17D0     		beq	.L103
 1771              	.LBB11:
 1772              		.loc 1 424 0 is_stmt 0 discriminator 1
 1773 00fc AF4B     		ldr	r3, .L143
 1774 00fe 1D68     		ldr	r5, [r3]
 1775              	.LVL233:
 1776              	.L105:
 1777              		.loc 1 424 0 discriminator 5
 1778 0100 FFF7FEFF 		bl	USBUART_CDCIsReady
 1779              	.LVL234:
 1780 0104 0028     		cmp	r0, #0
 1781 0106 05D1     		bne	.L104
 1782              		.loc 1 424 0 discriminator 3
 1783 0108 AC4B     		ldr	r3, .L143
 1784 010a 1B68     		ldr	r3, [r3]
 1785 010c 5B1B     		subs	r3, r3, r5
 1786 010e AC4A     		ldr	r2, .L143+4
 1787 0110 9342     		cmp	r3, r2
 1788 0112 F5D9     		bls	.L105
 1789              	.L104:
 1790              		.loc 1 424 0 discriminator 6
 1791 0114 02AB     		add	r3, sp, #8
 1792              	.LVL235:
 1793 0116 9A78     		ldrb	r2, [r3, #2]
 1794 0118 1207     		lsls	r2, r2, #28
 1795 011a 120F     		lsrs	r2, r2, #28
 1796 011c A94D     		ldr	r5, .L143+8
 1797              	.LVL236:
 1798 011e AB49     		ldr	r1, .L143+16
 1799 0120 2800     		movs	r0, r5
 1800 0122 FFF7FEFF 		bl	sprintf
 1801              	.LVL237:
 1802 0126 2800     		movs	r0, r5
 1803 0128 FFF7FEFF 		bl	USBUART_PutString
 1804              	.LVL238:
 1805              	.L103:
 1806              	.LBE11:
 425:cc85xx.c      ****   PRINTF("\tsil_maj_rev: %d\n", pRsp->sil_maj_rev);
 1807              		.loc 1 425 0 is_stmt 1
 1808 012c FFF7FEFF 		bl	USBUART_GetConfiguration
 1809              	.LVL239:
ARM GAS  C:\Users\TERENC~1\AppData\Local\Temp\ccl7zEj9.s 			page 41


 1810 0130 0028     		cmp	r0, #0
 1811 0132 16D0     		beq	.L106
 1812              	.LBB12:
 1813              		.loc 1 425 0 is_stmt 0 discriminator 1
 1814 0134 A14B     		ldr	r3, .L143
 1815 0136 1D68     		ldr	r5, [r3]
 1816              	.LVL240:
 1817              	.L108:
 1818              		.loc 1 425 0 discriminator 5
 1819 0138 FFF7FEFF 		bl	USBUART_CDCIsReady
 1820              	.LVL241:
 1821 013c 0028     		cmp	r0, #0
 1822 013e 05D1     		bne	.L107
 1823              		.loc 1 425 0 discriminator 3
 1824 0140 9E4B     		ldr	r3, .L143
 1825 0142 1B68     		ldr	r3, [r3]
 1826 0144 5B1B     		subs	r3, r3, r5
 1827 0146 9E4A     		ldr	r2, .L143+4
 1828 0148 9342     		cmp	r3, r2
 1829 014a F5D9     		bls	.L108
 1830              	.L107:
 1831              		.loc 1 425 0 discriminator 6
 1832 014c 02AB     		add	r3, sp, #8
 1833              	.LVL242:
 1834 014e 9A78     		ldrb	r2, [r3, #2]
 1835 0150 1209     		lsrs	r2, r2, #4
 1836 0152 9C4D     		ldr	r5, .L143+8
 1837              	.LVL243:
 1838 0154 9E49     		ldr	r1, .L143+20
 1839 0156 2800     		movs	r0, r5
 1840 0158 FFF7FEFF 		bl	sprintf
 1841              	.LVL244:
 1842 015c 2800     		movs	r0, r5
 1843 015e FFF7FEFF 		bl	USBUART_PutString
 1844              	.LVL245:
 1845              	.L106:
 1846              	.LBE12:
 426:cc85xx.c      ****   
 427:cc85xx.c      ****   PRINTF("\trom_min_rev: %d\n", pRsp->rom_min_rev);
 1847              		.loc 1 427 0 is_stmt 1
 1848 0162 FFF7FEFF 		bl	USBUART_GetConfiguration
 1849              	.LVL246:
 1850 0166 0028     		cmp	r0, #0
 1851 0168 15D0     		beq	.L109
 1852              	.LBB13:
 1853              		.loc 1 427 0 is_stmt 0 discriminator 1
 1854 016a 944B     		ldr	r3, .L143
 1855 016c 1D68     		ldr	r5, [r3]
 1856              	.LVL247:
 1857              	.L111:
 1858              		.loc 1 427 0 discriminator 5
 1859 016e FFF7FEFF 		bl	USBUART_CDCIsReady
 1860              	.LVL248:
 1861 0172 0028     		cmp	r0, #0
 1862 0174 05D1     		bne	.L110
 1863              		.loc 1 427 0 discriminator 3
 1864 0176 914B     		ldr	r3, .L143
ARM GAS  C:\Users\TERENC~1\AppData\Local\Temp\ccl7zEj9.s 			page 42


 1865 0178 1B68     		ldr	r3, [r3]
 1866 017a 5B1B     		subs	r3, r3, r5
 1867 017c 904A     		ldr	r2, .L143+4
 1868 017e 9342     		cmp	r3, r2
 1869 0180 F5D9     		bls	.L111
 1870              	.L110:
 1871              		.loc 1 427 0 discriminator 6
 1872 0182 02AB     		add	r3, sp, #8
 1873              	.LVL249:
 1874 0184 DA79     		ldrb	r2, [r3, #7]
 1875 0186 8F4D     		ldr	r5, .L143+8
 1876              	.LVL250:
 1877 0188 9249     		ldr	r1, .L143+24
 1878 018a 2800     		movs	r0, r5
 1879 018c FFF7FEFF 		bl	sprintf
 1880              	.LVL251:
 1881 0190 2800     		movs	r0, r5
 1882 0192 FFF7FEFF 		bl	USBUART_PutString
 1883              	.LVL252:
 1884              	.L109:
 1885              	.LBE13:
 428:cc85xx.c      ****   PRINTF("\trom_maj_rev: %d\n", pRsp->rom_maj_rev);
 1886              		.loc 1 428 0 is_stmt 1
 1887 0196 FFF7FEFF 		bl	USBUART_GetConfiguration
 1888              	.LVL253:
 1889 019a 0028     		cmp	r0, #0
 1890 019c 15D0     		beq	.L112
 1891              	.LBB14:
 1892              		.loc 1 428 0 is_stmt 0 discriminator 1
 1893 019e 874B     		ldr	r3, .L143
 1894 01a0 1D68     		ldr	r5, [r3]
 1895              	.LVL254:
 1896              	.L114:
 1897              		.loc 1 428 0 discriminator 5
 1898 01a2 FFF7FEFF 		bl	USBUART_CDCIsReady
 1899              	.LVL255:
 1900 01a6 0028     		cmp	r0, #0
 1901 01a8 05D1     		bne	.L113
 1902              		.loc 1 428 0 discriminator 3
 1903 01aa 844B     		ldr	r3, .L143
 1904 01ac 1B68     		ldr	r3, [r3]
 1905 01ae 5B1B     		subs	r3, r3, r5
 1906 01b0 834A     		ldr	r2, .L143+4
 1907 01b2 9342     		cmp	r3, r2
 1908 01b4 F5D9     		bls	.L114
 1909              	.L113:
 1910              		.loc 1 428 0 discriminator 6
 1911 01b6 02AB     		add	r3, sp, #8
 1912              	.LVL256:
 1913 01b8 9A79     		ldrb	r2, [r3, #6]
 1914 01ba 824D     		ldr	r5, .L143+8
 1915              	.LVL257:
 1916 01bc 8649     		ldr	r1, .L143+28
 1917 01be 2800     		movs	r0, r5
 1918 01c0 FFF7FEFF 		bl	sprintf
 1919              	.LVL258:
 1920 01c4 2800     		movs	r0, r5
ARM GAS  C:\Users\TERENC~1\AppData\Local\Temp\ccl7zEj9.s 			page 43


 1921 01c6 FFF7FEFF 		bl	USBUART_PutString
 1922              	.LVL259:
 1923              	.L112:
 1924              	.LBE14:
 429:cc85xx.c      ****   PRINTF("\trom_type: 0x%04X\n", BE16(pRsp->rom_type));
 1925              		.loc 1 429 0 is_stmt 1
 1926 01ca FFF7FEFF 		bl	USBUART_GetConfiguration
 1927              	.LVL260:
 1928 01ce 0028     		cmp	r0, #0
 1929 01d0 19D0     		beq	.L115
 1930              	.LBB15:
 1931              		.loc 1 429 0 is_stmt 0 discriminator 1
 1932 01d2 7A4B     		ldr	r3, .L143
 1933 01d4 1D68     		ldr	r5, [r3]
 1934              	.LVL261:
 1935              	.L117:
 1936              		.loc 1 429 0 discriminator 5
 1937 01d6 FFF7FEFF 		bl	USBUART_CDCIsReady
 1938              	.LVL262:
 1939 01da 0028     		cmp	r0, #0
 1940 01dc 05D1     		bne	.L116
 1941              		.loc 1 429 0 discriminator 3
 1942 01de 774B     		ldr	r3, .L143
 1943 01e0 1B68     		ldr	r3, [r3]
 1944 01e2 5B1B     		subs	r3, r3, r5
 1945 01e4 764A     		ldr	r2, .L143+4
 1946 01e6 9342     		cmp	r3, r2
 1947 01e8 F5D9     		bls	.L117
 1948              	.L116:
 1949              		.loc 1 429 0 discriminator 6
 1950 01ea 02AB     		add	r3, sp, #8
 1951              	.LVL263:
 1952 01ec 9B88     		ldrh	r3, [r3, #4]
 1953              	.LVL264:
 1954 01ee 1A0A     		lsrs	r2, r3, #8
 1955 01f0 1B06     		lsls	r3, r3, #24
 1956 01f2 1B0C     		lsrs	r3, r3, #16
 1957 01f4 1A43     		orrs	r2, r3
 1958 01f6 734D     		ldr	r5, .L143+8
 1959              	.LVL265:
 1960 01f8 7849     		ldr	r1, .L143+32
 1961 01fa 2800     		movs	r0, r5
 1962 01fc FFF7FEFF 		bl	sprintf
 1963              	.LVL266:
 1964 0200 2800     		movs	r0, r5
 1965 0202 FFF7FEFF 		bl	USBUART_PutString
 1966              	.LVL267:
 1967              	.L115:
 1968              	.LBE15:
 430:cc85xx.c      ****   
 431:cc85xx.c      ****   PRINTF("\tfw_patch_rev: %d\n", pRsp->fw_patch_rev);
 1969              		.loc 1 431 0 is_stmt 1
 1970 0206 FFF7FEFF 		bl	USBUART_GetConfiguration
 1971              	.LVL268:
 1972 020a 0028     		cmp	r0, #0
 1973 020c 15D0     		beq	.L118
 1974              	.LBB16:
ARM GAS  C:\Users\TERENC~1\AppData\Local\Temp\ccl7zEj9.s 			page 44


 1975              		.loc 1 431 0 is_stmt 0 discriminator 1
 1976 020e 6B4B     		ldr	r3, .L143
 1977 0210 1D68     		ldr	r5, [r3]
 1978              	.LVL269:
 1979              	.L120:
 1980              		.loc 1 431 0 discriminator 5
 1981 0212 FFF7FEFF 		bl	USBUART_CDCIsReady
 1982              	.LVL270:
 1983 0216 0028     		cmp	r0, #0
 1984 0218 05D1     		bne	.L119
 1985              		.loc 1 431 0 discriminator 3
 1986 021a 684B     		ldr	r3, .L143
 1987 021c 1B68     		ldr	r3, [r3]
 1988 021e 5B1B     		subs	r3, r3, r5
 1989 0220 674A     		ldr	r2, .L143+4
 1990 0222 9342     		cmp	r3, r2
 1991 0224 F5D9     		bls	.L120
 1992              	.L119:
 1993              		.loc 1 431 0 discriminator 6
 1994 0226 02AB     		add	r3, sp, #8
 1995              	.LVL271:
 1996 0228 DA7A     		ldrb	r2, [r3, #11]
 1997 022a 664D     		ldr	r5, .L143+8
 1998              	.LVL272:
 1999 022c 6C49     		ldr	r1, .L143+36
 2000 022e 2800     		movs	r0, r5
 2001 0230 FFF7FEFF 		bl	sprintf
 2002              	.LVL273:
 2003 0234 2800     		movs	r0, r5
 2004 0236 FFF7FEFF 		bl	USBUART_PutString
 2005              	.LVL274:
 2006              	.L118:
 2007              	.LBE16:
 432:cc85xx.c      ****   PRINTF("\tfw_min_rev: %d\n", pRsp->fw_min_rev);
 2008              		.loc 1 432 0 is_stmt 1
 2009 023a FFF7FEFF 		bl	USBUART_GetConfiguration
 2010              	.LVL275:
 2011 023e 0028     		cmp	r0, #0
 2012 0240 16D0     		beq	.L121
 2013              	.LBB17:
 2014              		.loc 1 432 0 is_stmt 0 discriminator 1
 2015 0242 5E4B     		ldr	r3, .L143
 2016 0244 1D68     		ldr	r5, [r3]
 2017              	.LVL276:
 2018              	.L123:
 2019              		.loc 1 432 0 discriminator 5
 2020 0246 FFF7FEFF 		bl	USBUART_CDCIsReady
 2021              	.LVL277:
 2022 024a 0028     		cmp	r0, #0
 2023 024c 05D1     		bne	.L122
 2024              		.loc 1 432 0 discriminator 3
 2025 024e 5B4B     		ldr	r3, .L143
 2026 0250 1B68     		ldr	r3, [r3]
 2027 0252 5B1B     		subs	r3, r3, r5
 2028 0254 5A4A     		ldr	r2, .L143+4
 2029 0256 9342     		cmp	r3, r2
 2030 0258 F5D9     		bls	.L123
ARM GAS  C:\Users\TERENC~1\AppData\Local\Temp\ccl7zEj9.s 			page 45


 2031              	.L122:
 2032              		.loc 1 432 0 discriminator 6
 2033 025a 02AB     		add	r3, sp, #8
 2034              	.LVL278:
 2035 025c 9A7A     		ldrb	r2, [r3, #10]
 2036 025e 1209     		lsrs	r2, r2, #4
 2037 0260 584D     		ldr	r5, .L143+8
 2038              	.LVL279:
 2039 0262 6049     		ldr	r1, .L143+40
 2040 0264 2800     		movs	r0, r5
 2041 0266 FFF7FEFF 		bl	sprintf
 2042              	.LVL280:
 2043 026a 2800     		movs	r0, r5
 2044 026c FFF7FEFF 		bl	USBUART_PutString
 2045              	.LVL281:
 2046              	.L121:
 2047              	.LBE17:
 433:cc85xx.c      ****   PRINTF("\tfw_maj_rev: %d\n", pRsp->fw_maj_rev);
 2048              		.loc 1 433 0 is_stmt 1
 2049 0270 FFF7FEFF 		bl	USBUART_GetConfiguration
 2050              	.LVL282:
 2051 0274 0028     		cmp	r0, #0
 2052 0276 17D0     		beq	.L124
 2053              	.LBB18:
 2054              		.loc 1 433 0 is_stmt 0 discriminator 1
 2055 0278 504B     		ldr	r3, .L143
 2056 027a 1D68     		ldr	r5, [r3]
 2057              	.LVL283:
 2058              	.L126:
 2059              		.loc 1 433 0 discriminator 5
 2060 027c FFF7FEFF 		bl	USBUART_CDCIsReady
 2061              	.LVL284:
 2062 0280 0028     		cmp	r0, #0
 2063 0282 05D1     		bne	.L125
 2064              		.loc 1 433 0 discriminator 3
 2065 0284 4D4B     		ldr	r3, .L143
 2066 0286 1B68     		ldr	r3, [r3]
 2067 0288 5B1B     		subs	r3, r3, r5
 2068 028a 4D4A     		ldr	r2, .L143+4
 2069 028c 9342     		cmp	r3, r2
 2070 028e F5D9     		bls	.L126
 2071              	.L125:
 2072              		.loc 1 433 0 discriminator 6
 2073 0290 02AB     		add	r3, sp, #8
 2074              	.LVL285:
 2075 0292 9A7A     		ldrb	r2, [r3, #10]
 2076 0294 1207     		lsls	r2, r2, #28
 2077 0296 120F     		lsrs	r2, r2, #28
 2078 0298 4A4D     		ldr	r5, .L143+8
 2079              	.LVL286:
 2080 029a 5349     		ldr	r1, .L143+44
 2081 029c 2800     		movs	r0, r5
 2082 029e FFF7FEFF 		bl	sprintf
 2083              	.LVL287:
 2084 02a2 2800     		movs	r0, r5
 2085 02a4 FFF7FEFF 		bl	USBUART_PutString
 2086              	.LVL288:
ARM GAS  C:\Users\TERENC~1\AppData\Local\Temp\ccl7zEj9.s 			page 46


 2087              	.L124:
 2088              	.LBE18:
 434:cc85xx.c      ****   PRINTF("\tfw_type: 0x%04X\n", BE16(pRsp->fw_type));
 2089              		.loc 1 434 0 is_stmt 1
 2090 02a8 FFF7FEFF 		bl	USBUART_GetConfiguration
 2091              	.LVL289:
 2092 02ac 0028     		cmp	r0, #0
 2093 02ae 19D0     		beq	.L127
 2094              	.LBB19:
 2095              		.loc 1 434 0 is_stmt 0 discriminator 1
 2096 02b0 424B     		ldr	r3, .L143
 2097 02b2 1D68     		ldr	r5, [r3]
 2098              	.LVL290:
 2099              	.L129:
 2100              		.loc 1 434 0 discriminator 5
 2101 02b4 FFF7FEFF 		bl	USBUART_CDCIsReady
 2102              	.LVL291:
 2103 02b8 0028     		cmp	r0, #0
 2104 02ba 05D1     		bne	.L128
 2105              		.loc 1 434 0 discriminator 3
 2106 02bc 3F4B     		ldr	r3, .L143
 2107 02be 1B68     		ldr	r3, [r3]
 2108 02c0 5B1B     		subs	r3, r3, r5
 2109 02c2 3F4A     		ldr	r2, .L143+4
 2110 02c4 9342     		cmp	r3, r2
 2111 02c6 F5D9     		bls	.L129
 2112              	.L128:
 2113              		.loc 1 434 0 discriminator 6
 2114 02c8 02AB     		add	r3, sp, #8
 2115              	.LVL292:
 2116 02ca 1B89     		ldrh	r3, [r3, #8]
 2117              	.LVL293:
 2118 02cc 1A0A     		lsrs	r2, r3, #8
 2119 02ce 1B06     		lsls	r3, r3, #24
 2120 02d0 1B0C     		lsrs	r3, r3, #16
 2121 02d2 1A43     		orrs	r2, r3
 2122 02d4 3B4D     		ldr	r5, .L143+8
 2123              	.LVL294:
 2124 02d6 4549     		ldr	r1, .L143+48
 2125 02d8 2800     		movs	r0, r5
 2126 02da FFF7FEFF 		bl	sprintf
 2127              	.LVL295:
 2128 02de 2800     		movs	r0, r5
 2129 02e0 FFF7FEFF 		bl	USBUART_PutString
 2130              	.LVL296:
 2131              	.L127:
 2132              	.LBE19:
 435:cc85xx.c      ****   
 436:cc85xx.c      ****   PRINTF("\tfw_image_size: %d\n", BE32(pRsp->fw_image_size));
 2133              		.loc 1 436 0 is_stmt 1
 2134 02e4 FFF7FEFF 		bl	USBUART_GetConfiguration
 2135              	.LVL297:
 2136 02e8 0028     		cmp	r0, #0
 2137 02ea 22D0     		beq	.L130
 2138              	.LBB20:
 2139              		.loc 1 436 0 is_stmt 0 discriminator 1
 2140 02ec 334B     		ldr	r3, .L143
ARM GAS  C:\Users\TERENC~1\AppData\Local\Temp\ccl7zEj9.s 			page 47


 2141 02ee 1D68     		ldr	r5, [r3]
 2142              	.LVL298:
 2143              	.L132:
 2144              		.loc 1 436 0 discriminator 5
 2145 02f0 FFF7FEFF 		bl	USBUART_CDCIsReady
 2146              	.LVL299:
 2147 02f4 0028     		cmp	r0, #0
 2148 02f6 05D1     		bne	.L131
 2149              		.loc 1 436 0 discriminator 3
 2150 02f8 304B     		ldr	r3, .L143
 2151 02fa 1B68     		ldr	r3, [r3]
 2152 02fc 5B1B     		subs	r3, r3, r5
 2153 02fe 304A     		ldr	r2, .L143+4
 2154 0300 9342     		cmp	r3, r2
 2155 0302 F5D9     		bls	.L132
 2156              	.L131:
 2157              		.loc 1 436 0 discriminator 6
 2158 0304 069B     		ldr	r3, [sp, #24]
 2159 0306 1D0E     		lsrs	r5, r3, #24
 2160              	.LVL300:
 2161 0308 1A0A     		lsrs	r2, r3, #8
 2162 030a FF21     		movs	r1, #255
 2163 030c 0902     		lsls	r1, r1, #8
 2164 030e 0A40     		ands	r2, r1
 2165 0310 2800     		movs	r0, r5
 2166 0312 1043     		orrs	r0, r2
 2167 0314 1A02     		lsls	r2, r3, #8
 2168 0316 FF21     		movs	r1, #255
 2169 0318 0904     		lsls	r1, r1, #16
 2170 031a 0A40     		ands	r2, r1
 2171 031c 0243     		orrs	r2, r0
 2172 031e 1B06     		lsls	r3, r3, #24
 2173 0320 1A43     		orrs	r2, r3
 2174 0322 284D     		ldr	r5, .L143+8
 2175 0324 3249     		ldr	r1, .L143+52
 2176 0326 2800     		movs	r0, r5
 2177 0328 FFF7FEFF 		bl	sprintf
 2178              	.LVL301:
 2179 032c 2800     		movs	r0, r5
 2180 032e FFF7FEFF 		bl	USBUART_PutString
 2181              	.LVL302:
 2182              	.L130:
 2183              	.LBE20:
 437:cc85xx.c      ****   
 438:cc85xx.c      ****   PRINTF("\tchip_id: 0x%04X\n", BE16(pRsp->chip_id));
 2184              		.loc 1 438 0 is_stmt 1
 2185 0332 FFF7FEFF 		bl	USBUART_GetConfiguration
 2186              	.LVL303:
 2187 0336 0028     		cmp	r0, #0
 2188 0338 19D0     		beq	.L133
 2189              	.LBB21:
 2190              		.loc 1 438 0 is_stmt 0 discriminator 1
 2191 033a 204B     		ldr	r3, .L143
 2192 033c 1D68     		ldr	r5, [r3]
 2193              	.LVL304:
 2194              	.L135:
 2195              		.loc 1 438 0 discriminator 5
ARM GAS  C:\Users\TERENC~1\AppData\Local\Temp\ccl7zEj9.s 			page 48


 2196 033e FFF7FEFF 		bl	USBUART_CDCIsReady
 2197              	.LVL305:
 2198 0342 0028     		cmp	r0, #0
 2199 0344 05D1     		bne	.L134
 2200              		.loc 1 438 0 discriminator 3
 2201 0346 1D4B     		ldr	r3, .L143
 2202 0348 1B68     		ldr	r3, [r3]
 2203 034a 5B1B     		subs	r3, r3, r5
 2204 034c 1C4A     		ldr	r2, .L143+4
 2205 034e 9342     		cmp	r3, r2
 2206 0350 F5D9     		bls	.L135
 2207              	.L134:
 2208              		.loc 1 438 0 discriminator 6
 2209 0352 02AB     		add	r3, sp, #8
 2210              	.LVL306:
 2211 0354 DB8A     		ldrh	r3, [r3, #22]
 2212              	.LVL307:
 2213 0356 1A0A     		lsrs	r2, r3, #8
 2214 0358 1B06     		lsls	r3, r3, #24
 2215 035a 1B0C     		lsrs	r3, r3, #16
 2216 035c 1A43     		orrs	r2, r3
 2217 035e 194D     		ldr	r5, .L143+8
 2218              	.LVL308:
 2219 0360 2449     		ldr	r1, .L143+56
 2220 0362 2800     		movs	r0, r5
 2221 0364 FFF7FEFF 		bl	sprintf
 2222              	.LVL309:
 2223 0368 2800     		movs	r0, r5
 2224 036a FFF7FEFF 		bl	USBUART_PutString
 2225              	.LVL310:
 2226              	.L133:
 2227              	.LBE21:
 439:cc85xx.c      ****   PRINTF("\tchip_caps: 0x%04X\n", BE16(pRsp->chip_caps));
 2228              		.loc 1 439 0 is_stmt 1
 2229 036e FFF7FEFF 		bl	USBUART_GetConfiguration
 2230              	.LVL311:
 2231 0372 0028     		cmp	r0, #0
 2232 0374 1FD0     		beq	.L140
 2233              	.LBB22:
 2234              		.loc 1 439 0 is_stmt 0 discriminator 1
 2235 0376 114B     		ldr	r3, .L143
 2236 0378 1D68     		ldr	r5, [r3]
 2237              	.LVL312:
 2238              	.L137:
 2239              		.loc 1 439 0 discriminator 5
 2240 037a FFF7FEFF 		bl	USBUART_CDCIsReady
 2241              	.LVL313:
 2242 037e 0028     		cmp	r0, #0
 2243 0380 05D1     		bne	.L136
 2244              		.loc 1 439 0 discriminator 3
 2245 0382 0E4B     		ldr	r3, .L143
 2246 0384 1B68     		ldr	r3, [r3]
 2247 0386 5B1B     		subs	r3, r3, r5
 2248 0388 0D4A     		ldr	r2, .L143+4
 2249 038a 9342     		cmp	r3, r2
 2250 038c F5D9     		bls	.L137
 2251              	.L136:
ARM GAS  C:\Users\TERENC~1\AppData\Local\Temp\ccl7zEj9.s 			page 49


 2252              		.loc 1 439 0 discriminator 6
 2253 038e 02AB     		add	r3, sp, #8
 2254              	.LVL314:
 2255 0390 9B8A     		ldrh	r3, [r3, #20]
 2256              	.LVL315:
 2257 0392 1A0A     		lsrs	r2, r3, #8
 2258 0394 1B06     		lsls	r3, r3, #24
 2259 0396 1B0C     		lsrs	r3, r3, #16
 2260 0398 1A43     		orrs	r2, r3
 2261 039a 0A4D     		ldr	r5, .L143+8
 2262              	.LVL316:
 2263 039c 1649     		ldr	r1, .L143+60
 2264 039e 2800     		movs	r0, r5
 2265 03a0 FFF7FEFF 		bl	sprintf
 2266              	.LVL317:
 2267 03a4 2800     		movs	r0, r5
 2268 03a6 FFF7FEFF 		bl	USBUART_PutString
 2269              	.LVL318:
 2270              	.LBE22:
 440:cc85xx.c      **** 
 441:cc85xx.c      ****   return ret;
 2271              		.loc 1 441 0 is_stmt 1 discriminator 6
 2272 03aa 2000     		movs	r0, r4
 2273 03ac 04E0     		b	.L94
 2274              	.LVL319:
 2275              	.L138:
 403:cc85xx.c      ****   }
 2276              		.loc 1 403 0
 2277 03ae 2000     		movs	r0, r4
 2278 03b0 02E0     		b	.L94
 2279              	.L139:
 410:cc85xx.c      ****   }
 2280              		.loc 1 410 0
 2281 03b2 2000     		movs	r0, r4
 2282 03b4 00E0     		b	.L94
 2283              	.LVL320:
 2284              	.L140:
 2285              		.loc 1 441 0
 2286 03b6 2000     		movs	r0, r4
 2287              	.LVL321:
 2288              	.L94:
 442:cc85xx.c      **** }
 2289              		.loc 1 442 0
 2290 03b8 09B0     		add	sp, sp, #36
 2291              		@ sp needed
 2292 03ba 30BD     		pop	{r4, r5, pc}
 2293              	.L144:
 2294              		.align	2
 2295              	.L143:
 2296 03bc 00000000 		.word	tmrCounter_ms
 2297 03c0 E7030000 		.word	999
 2298 03c4 00000000 		.word	gbuf
 2299 03c8 EC000000 		.word	.LC33
 2300 03cc 00010000 		.word	.LC35
 2301 03d0 14010000 		.word	.LC37
 2302 03d4 28010000 		.word	.LC39
 2303 03d8 3C010000 		.word	.LC41
ARM GAS  C:\Users\TERENC~1\AppData\Local\Temp\ccl7zEj9.s 			page 50


 2304 03dc 50010000 		.word	.LC43
 2305 03e0 64010000 		.word	.LC45
 2306 03e4 78010000 		.word	.LC47
 2307 03e8 8C010000 		.word	.LC49
 2308 03ec A0010000 		.word	.LC51
 2309 03f0 B4010000 		.word	.LC53
 2310 03f4 C8010000 		.word	.LC55
 2311 03f8 DC010000 		.word	.LC57
 2312              		.cfi_endproc
 2313              	.LFE17:
 2314              		.size	cc85xx_print_info, .-cc85xx_print_info
 2315              		.section	.text.cc85xx_init,"ax",%progbits
 2316              		.align	2
 2317              		.global	cc85xx_init
 2318              		.code	16
 2319              		.thumb_func
 2320              		.type	cc85xx_init, %function
 2321              	cc85xx_init:
 2322              	.LFB18:
 443:cc85xx.c      **** 
 444:cc85xx.c      **** void cc85xx_init(void)
 445:cc85xx.c      **** {
 2323              		.loc 1 445 0
 2324              		.cfi_startproc
 2325              		@ args = 0, pretend = 0, frame = 0
 2326              		@ frame_needed = 0, uses_anonymous_args = 0
 2327 0000 10B5     		push	{r4, lr}
 2328              		.cfi_def_cfa_offset 8
 2329              		.cfi_offset 4, -8
 2330              		.cfi_offset 14, -4
 446:cc85xx.c      ****   /*
 447:cc85xx.c      ****   SPI_Stop();
 448:cc85xx.c      **** 
 449:cc85xx.c      ****   if (cc85xx_boot_reset() == false)
 450:cc85xx.c      ****   {
 451:cc85xx.c      ****     PRINTF("Failed to initialize cc85xx\n");
 452:cc85xx.c      ****     return;
 453:cc85xx.c      ****   }
 454:cc85xx.c      ****   */
 455:cc85xx.c      **** 
 456:cc85xx.c      ****   SPI_Start();
 2331              		.loc 1 456 0
 2332 0002 FFF7FEFF 		bl	SPI_Start
 2333              	.LVL322:
 457:cc85xx.c      **** }
 2334              		.loc 1 457 0
 2335              		@ sp needed
 2336 0006 10BD     		pop	{r4, pc}
 2337              		.cfi_endproc
 2338              	.LFE18:
 2339              		.size	cc85xx_init, .-cc85xx_init
 2340              		.section	.text.cc85xx_flash_bytes,"ax",%progbits
 2341              		.align	2
 2342              		.global	cc85xx_flash_bytes
 2343              		.code	16
 2344              		.thumb_func
 2345              		.type	cc85xx_flash_bytes, %function
ARM GAS  C:\Users\TERENC~1\AppData\Local\Temp\ccl7zEj9.s 			page 51


 2346              	cc85xx_flash_bytes:
 2347              	.LFB19:
 458:cc85xx.c      **** 
 459:cc85xx.c      **** bool cc85xx_flash_bytes(uint16_t addr, uint8_t *pData, uint16_t dataLen)
 460:cc85xx.c      **** {
 2348              		.loc 1 460 0
 2349              		.cfi_startproc
 2350              		@ args = 0, pretend = 0, frame = 8
 2351              		@ frame_needed = 0, uses_anonymous_args = 0
 2352              	.LVL323:
 2353 0000 F0B5     		push	{r4, r5, r6, r7, lr}
 2354              		.cfi_def_cfa_offset 20
 2355              		.cfi_offset 4, -20
 2356              		.cfi_offset 5, -16
 2357              		.cfi_offset 6, -12
 2358              		.cfi_offset 7, -8
 2359              		.cfi_offset 14, -4
 2360 0002 83B0     		sub	sp, sp, #12
 2361              		.cfi_def_cfa_offset 32
 2362 0004 0700     		movs	r7, r0
 2363 0006 0D00     		movs	r5, r1
 2364 0008 1600     		movs	r6, r2
 2365              	.LVL324:
 461:cc85xx.c      ****   bool ret = true;
 462:cc85xx.c      ****   uint16_t sw;
 463:cc85xx.c      ****   uint16_t ram_addr = 0x6000 + (addr % CC85XX_PAGE_SIZE);
 2366              		.loc 1 463 0
 2367 000a 8405     		lsls	r4, r0, #22
 2368 000c A40D     		lsrs	r4, r4, #22
 2369 000e C023     		movs	r3, #192
 2370 0010 DB01     		lsls	r3, r3, #7
 2371 0012 E018     		adds	r0, r4, r3
 2372              	.LVL325:
 464:cc85xx.c      ****   
 465:cc85xx.c      ****   // SET_ADDR
 466:cc85xx.c      ****   cc85xx_set_addr(ram_addr, &sw);
 2373              		.loc 1 466 0
 2374 0014 6B46     		mov	r3, sp
 2375 0016 991D     		adds	r1, r3, #6
 2376              	.LVL326:
 2377 0018 FFF7FEFF 		bl	cc85xx_set_addr
 2378              	.LVL327:
 467:cc85xx.c      ****   
 468:cc85xx.c      ****   // WRITE
 469:cc85xx.c      ****   cc85xx_write(dataLen, pData, &sw);
 2379              		.loc 1 469 0
 2380 001c 6B46     		mov	r3, sp
 2381 001e 9A1D     		adds	r2, r3, #6
 2382 0020 2900     		movs	r1, r5
 2383 0022 3000     		movs	r0, r6
 2384 0024 FFF7FEFF 		bl	cc85xx_write
 2385              	.LVL328:
 470:cc85xx.c      ****   
 471:cc85xx.c      ****   if ((dataLen + (addr % CC85XX_PAGE_SIZE)) >= CC85XX_PAGE_SIZE)
 2386              		.loc 1 471 0
 2387 0028 3419     		adds	r4, r6, r4
 2388              	.LVL329:
ARM GAS  C:\Users\TERENC~1\AppData\Local\Temp\ccl7zEj9.s 			page 52


 2389 002a 194B     		ldr	r3, .L150
 2390 002c 9C42     		cmp	r4, r3
 2391 002e 10DD     		ble	.L149
 472:cc85xx.c      ****   {
 473:cc85xx.c      ****     // Program the page
 474:cc85xx.c      ****     ret = cc85xx_bl_flash_page_prog(0x6000, 0x8000 + ((addr - 0x8000) / CC85XX_PAGE_SIZE) * CC85XX_
 2392              		.loc 1 474 0
 2393 0030 184B     		ldr	r3, .L150+4
 2394 0032 FB18     		adds	r3, r7, r3
 2395 0034 D917     		asrs	r1, r3, #31
 2396 0036 8905     		lsls	r1, r1, #22
 2397 0038 890D     		lsrs	r1, r1, #22
 2398 003a C918     		adds	r1, r1, r3
 2399 003c 8912     		asrs	r1, r1, #10
 2400 003e 2031     		adds	r1, r1, #32
 2401 0040 8902     		lsls	r1, r1, #10
 2402 0042 89B2     		uxth	r1, r1
 2403 0044 8022     		movs	r2, #128
 2404 0046 5200     		lsls	r2, r2, #1
 2405 0048 C020     		movs	r0, #192
 2406              	.LVL330:
 2407 004a C001     		lsls	r0, r0, #7
 2408              	.LVL331:
 2409 004c FFF7FEFF 		bl	cc85xx_bl_flash_page_prog
 2410              	.LVL332:
 2411 0050 00E0     		b	.L147
 2412              	.LVL333:
 2413              	.L149:
 461:cc85xx.c      ****   uint16_t sw;
 2414              		.loc 1 461 0
 2415 0052 0120     		movs	r0, #1
 2416              	.LVL334:
 2417              	.L147:
 475:cc85xx.c      ****   }
 476:cc85xx.c      ****   
 477:cc85xx.c      ****   if (addr <= 0x801C && (addr + dataLen) >= 0x801C)
 2418              		.loc 1 477 0
 2419 0054 104B     		ldr	r3, .L150+8
 2420 0056 9F42     		cmp	r7, r3
 2421 0058 18D8     		bhi	.L148
 2422              		.loc 1 477 0 is_stmt 0 discriminator 1
 2423 005a BE19     		adds	r6, r7, r6
 2424 005c 0F4B     		ldr	r3, .L150+12
 2425 005e 9E42     		cmp	r6, r3
 2426 0060 14DD     		ble	.L148
 478:cc85xx.c      ****   {
 479:cc85xx.c      ****     addr = 0x801C - addr;
 2427              		.loc 1 479 0 is_stmt 1
 2428 0062 0F4B     		ldr	r3, .L150+16
 2429 0064 DF1B     		subs	r7, r3, r7
 2430              	.LVL335:
 2431 0066 BFB2     		uxth	r7, r7
 2432              	.LVL336:
 480:cc85xx.c      ****     nImageBytes = BE32(*((uint32_t *)&pData[addr]));
 2433              		.loc 1 480 0
 2434 0068 EB59     		ldr	r3, [r5, r7]
 2435 006a 1D0E     		lsrs	r5, r3, #24
ARM GAS  C:\Users\TERENC~1\AppData\Local\Temp\ccl7zEj9.s 			page 53


 2436              	.LVL337:
 2437 006c 1A0A     		lsrs	r2, r3, #8
 2438 006e FF21     		movs	r1, #255
 2439 0070 0902     		lsls	r1, r1, #8
 2440 0072 0A40     		ands	r2, r1
 2441 0074 2C00     		movs	r4, r5
 2442 0076 1443     		orrs	r4, r2
 2443 0078 1A02     		lsls	r2, r3, #8
 2444 007a FF21     		movs	r1, #255
 2445 007c 0904     		lsls	r1, r1, #16
 2446 007e 1140     		ands	r1, r2
 2447 0080 2200     		movs	r2, r4
 2448 0082 0A43     		orrs	r2, r1
 2449 0084 1B06     		lsls	r3, r3, #24
 2450 0086 1343     		orrs	r3, r2
 2451 0088 064A     		ldr	r2, .L150+20
 2452 008a 1360     		str	r3, [r2]
 2453              	.LVL338:
 2454              	.L148:
 481:cc85xx.c      ****   }
 482:cc85xx.c      **** 
 483:cc85xx.c      ****   return ret;
 484:cc85xx.c      **** }
 2455              		.loc 1 484 0
 2456 008c 03B0     		add	sp, sp, #12
 2457              		@ sp needed
 2458 008e F0BD     		pop	{r4, r5, r6, r7, pc}
 2459              	.L151:
 2460              		.align	2
 2461              	.L150:
 2462 0090 FF030000 		.word	1023
 2463 0094 0080FFFF 		.word	-32768
 2464 0098 1C800000 		.word	32796
 2465 009c 1B800000 		.word	32795
 2466 00a0 1C80FFFF 		.word	-32740
 2467 00a4 00000000 		.word	.LANCHOR1
 2468              		.cfi_endproc
 2469              	.LFE19:
 2470              		.size	cc85xx_flash_bytes, .-cc85xx_flash_bytes
 2471              		.section	.rodata
 2472              		.align	2
 2473              		.set	.LANCHOR0,. + 0
 2474              		.type	__FUNCTION__.6921, %object
 2475              		.size	__FUNCTION__.6921, 26
 2476              	__FUNCTION__.6921:
 2477 0000 63633835 		.ascii	"cc85xx_bl_flash_page_prog\000"
 2477      78785F62 
 2477      6C5F666C 
 2477      6173685F 
 2477      70616765 
 2478 001a 0000     		.space	2
 2479              		.type	__FUNCTION__.6932, %object
 2480              		.size	__FUNCTION__.6932, 21
 2481              	__FUNCTION__.6932:
 2482 001c 63633835 		.ascii	"cc85xx_bl_unlock_spi\000"
 2482      78785F62 
 2482      6C5F756E 
ARM GAS  C:\Users\TERENC~1\AppData\Local\Temp\ccl7zEj9.s 			page 54


 2482      6C6F636B 
 2482      5F737069 
 2483 0031 000000   		.space	3
 2484              		.type	__FUNCTION__.6943, %object
 2485              		.size	__FUNCTION__.6943, 21
 2486              	__FUNCTION__.6943:
 2487 0034 63633835 		.ascii	"cc85xx_bl_mass_erase\000"
 2487      78785F62 
 2487      6C5F6D61 
 2487      73735F65 
 2487      72617365 
 2488 0049 000000   		.space	3
 2489              		.type	__FUNCTION__.6955, %object
 2490              		.size	__FUNCTION__.6955, 23
 2491              	__FUNCTION__.6955:
 2492 004c 63633835 		.ascii	"cc85xx_bl_flash_verify\000"
 2492      78785F62 
 2492      6C5F666C 
 2492      6173685F 
 2492      76657269 
 2493              		.section	.rodata.str1.4,"aMS",%progbits,1
 2494              		.align	2
 2495              	.LC3:
 2496 0000 4552524F 		.ascii	"ERROR: Timed out waiting for previous SPI operation"
 2496      523A2054 
 2496      696D6564 
 2496      206F7574 
 2496      20776169 
 2497 0033 20746F20 		.ascii	" to complete\012\000"
 2497      636F6D70 
 2497      6C657465 
 2497      0A00
 2498 0041 000000   		.space	3
 2499              	.LC9:
 2500 0044 4552524F 		.ascii	"ERROR: %s: ret=%d, status=0x%04X\012\000"
 2500      523A2025 
 2500      733A2072 
 2500      65743D25 
 2500      642C2073 
 2501 0066 0000     		.space	2
 2502              	.LC25:
 2503 0068 6E496D61 		.ascii	"nImageBytes = %u (0x%08x)\012CRC_VAL = 0x%08X\012sw"
 2503      67654279 
 2503      74657320 
 2503      3D202575 
 2503      20283078 
 2504 0095 203D2030 		.ascii	" = 0x%04X\012\000"
 2504      78253034 
 2504      580A00
 2505              	.LC28:
 2506 00a0 4552524F 		.ascii	"ERROR: CMD_REQ 0x%02X failed: sw=0x%04X\012\000"
 2506      523A2043 
 2506      4D445F52 
 2506      45512030 
 2506      78253032 
 2507 00c9 000000   		.space	3
 2508              	.LC31:
ARM GAS  C:\Users\TERENC~1\AppData\Local\Temp\ccl7zEj9.s 			page 55


 2509 00cc 4552524F 		.ascii	"ERROR: READ failed: sw=0x%04X\012\000"
 2509      523A2052 
 2509      45414420 
 2509      6661696C 
 2509      65643A20 
 2510 00eb 00       		.space	1
 2511              	.LC33:
 2512 00ec 0966616D 		.ascii	"\011family_id: 0x%04X\012\000"
 2512      696C795F 
 2512      69643A20 
 2512      30782530 
 2512      34580A00 
 2513              	.LC35:
 2514 0100 0973696C 		.ascii	"\011sil_min_rev: %d\012\000"
 2514      5F6D696E 
 2514      5F726576 
 2514      3A202564 
 2514      0A00
 2515 0112 0000     		.space	2
 2516              	.LC37:
 2517 0114 0973696C 		.ascii	"\011sil_maj_rev: %d\012\000"
 2517      5F6D616A 
 2517      5F726576 
 2517      3A202564 
 2517      0A00
 2518 0126 0000     		.space	2
 2519              	.LC39:
 2520 0128 09726F6D 		.ascii	"\011rom_min_rev: %d\012\000"
 2520      5F6D696E 
 2520      5F726576 
 2520      3A202564 
 2520      0A00
 2521 013a 0000     		.space	2
 2522              	.LC41:
 2523 013c 09726F6D 		.ascii	"\011rom_maj_rev: %d\012\000"
 2523      5F6D616A 
 2523      5F726576 
 2523      3A202564 
 2523      0A00
 2524 014e 0000     		.space	2
 2525              	.LC43:
 2526 0150 09726F6D 		.ascii	"\011rom_type: 0x%04X\012\000"
 2526      5F747970 
 2526      653A2030 
 2526      78253034 
 2526      580A00
 2527 0163 00       		.space	1
 2528              	.LC45:
 2529 0164 0966775F 		.ascii	"\011fw_patch_rev: %d\012\000"
 2529      70617463 
 2529      685F7265 
 2529      763A2025 
 2529      640A00
 2530 0177 00       		.space	1
 2531              	.LC47:
 2532 0178 0966775F 		.ascii	"\011fw_min_rev: %d\012\000"
 2532      6D696E5F 
ARM GAS  C:\Users\TERENC~1\AppData\Local\Temp\ccl7zEj9.s 			page 56


 2532      7265763A 
 2532      2025640A 
 2532      00
 2533 0189 000000   		.space	3
 2534              	.LC49:
 2535 018c 0966775F 		.ascii	"\011fw_maj_rev: %d\012\000"
 2535      6D616A5F 
 2535      7265763A 
 2535      2025640A 
 2535      00
 2536 019d 000000   		.space	3
 2537              	.LC51:
 2538 01a0 0966775F 		.ascii	"\011fw_type: 0x%04X\012\000"
 2538      74797065 
 2538      3A203078 
 2538      25303458 
 2538      0A00
 2539 01b2 0000     		.space	2
 2540              	.LC53:
 2541 01b4 0966775F 		.ascii	"\011fw_image_size: %d\012\000"
 2541      696D6167 
 2541      655F7369 
 2541      7A653A20 
 2541      25640A00 
 2542              	.LC55:
 2543 01c8 09636869 		.ascii	"\011chip_id: 0x%04X\012\000"
 2543      705F6964 
 2543      3A203078 
 2543      25303458 
 2543      0A00
 2544 01da 0000     		.space	2
 2545              	.LC57:
 2546 01dc 09636869 		.ascii	"\011chip_caps: 0x%04X\012\000"
 2546      705F6361 
 2546      70733A20 
 2546      30782530 
 2546      34580A00 
 2547              		.bss
 2548              		.align	2
 2549              		.set	.LANCHOR1,. + 0
 2550              		.type	nImageBytes, %object
 2551              		.size	nImageBytes, 4
 2552              	nImageBytes:
 2553 0000 00000000 		.space	4
 2554              		.text
 2555              	.Letext0:
 2556              		.file 2 "c:\\program files (x86)\\cypress\\psoc creator\\4.2\\psoc creator\\import\\gnu\\arm\\5.4.
 2557              		.file 3 "c:\\program files (x86)\\cypress\\psoc creator\\4.2\\psoc creator\\import\\gnu\\arm\\5.4.
 2558              		.file 4 "./cc85xx.h"
 2559              		.file 5 "Generated_Source\\PSoC4/cytypes.h"
 2560              		.file 6 "./timers.h"
 2561              		.file 7 "./Application.h"
 2562              		.file 8 "Generated_Source\\PSoC4/RSTn.h"
 2563              		.file 9 "Generated_Source\\PSoC4/SPI_ss0_m.h"
 2564              		.file 10 "Generated_Source\\PSoC4/SPI_mosi_m.h"
 2565              		.file 11 "Generated_Source\\PSoC4/CyLib.h"
 2566              		.file 12 "Generated_Source\\PSoC4/SPI_miso_m.h"
ARM GAS  C:\Users\TERENC~1\AppData\Local\Temp\ccl7zEj9.s 			page 57


 2567              		.file 13 "Generated_Source\\PSoC4/SPI_SPI_UART.h"
 2568              		.file 14 "Generated_Source\\PSoC4/USBUART_cdc.h"
 2569              		.file 15 "Generated_Source\\PSoC4/USBUART.h"
 2570              		.file 16 "c:\\program files (x86)\\cypress\\psoc creator\\4.2\\psoc creator\\import\\gnu\\arm\\5.4
 2571              		.file 17 "c:\\program files (x86)\\cypress\\psoc creator\\4.2\\psoc creator\\import\\gnu\\arm\\5.4
 2572              		.file 18 "Generated_Source\\PSoC4/SPI.h"
 2573              		.file 19 "c:\\program files (x86)\\cypress\\psoc creator\\4.2\\psoc creator\\import\\gnu\\arm\\5.4
 2574              		.section	.debug_info,"",%progbits
 2575              	.Ldebug_info0:
 2576 0000 35190000 		.4byte	0x1935
 2577 0004 0400     		.2byte	0x4
 2578 0006 00000000 		.4byte	.Ldebug_abbrev0
 2579 000a 04       		.byte	0x4
 2580 000b 01       		.uleb128 0x1
 2581 000c 0A020000 		.4byte	.LASF124
 2582 0010 0C       		.byte	0xc
 2583 0011 CE060000 		.4byte	.LASF125
 2584 0015 98020000 		.4byte	.LASF126
 2585 0019 00000000 		.4byte	.Ldebug_ranges0+0
 2586 001d 00000000 		.4byte	0
 2587 0021 00000000 		.4byte	.Ldebug_line0
 2588 0025 02       		.uleb128 0x2
 2589 0026 01       		.byte	0x1
 2590 0027 06       		.byte	0x6
 2591 0028 3F060000 		.4byte	.LASF0
 2592 002c 03       		.uleb128 0x3
 2593 002d 58050000 		.4byte	.LASF3
 2594 0031 02       		.byte	0x2
 2595 0032 1D       		.byte	0x1d
 2596 0033 37000000 		.4byte	0x37
 2597 0037 02       		.uleb128 0x2
 2598 0038 01       		.byte	0x1
 2599 0039 08       		.byte	0x8
 2600 003a EF050000 		.4byte	.LASF1
 2601 003e 02       		.uleb128 0x2
 2602 003f 02       		.byte	0x2
 2603 0040 05       		.byte	0x5
 2604 0041 B8040000 		.4byte	.LASF2
 2605 0045 03       		.uleb128 0x3
 2606 0046 E8010000 		.4byte	.LASF4
 2607 004a 02       		.byte	0x2
 2608 004b 2B       		.byte	0x2b
 2609 004c 50000000 		.4byte	0x50
 2610 0050 02       		.uleb128 0x2
 2611 0051 02       		.byte	0x2
 2612 0052 07       		.byte	0x7
 2613 0053 4B060000 		.4byte	.LASF5
 2614 0057 02       		.uleb128 0x2
 2615 0058 04       		.byte	0x4
 2616 0059 05       		.byte	0x5
 2617 005a D5040000 		.4byte	.LASF6
 2618 005e 03       		.uleb128 0x3
 2619 005f FD050000 		.4byte	.LASF7
 2620 0063 02       		.byte	0x2
 2621 0064 41       		.byte	0x41
 2622 0065 69000000 		.4byte	0x69
 2623 0069 02       		.uleb128 0x2
ARM GAS  C:\Users\TERENC~1\AppData\Local\Temp\ccl7zEj9.s 			page 58


 2624 006a 04       		.byte	0x4
 2625 006b 07       		.byte	0x7
 2626 006c AA050000 		.4byte	.LASF8
 2627 0070 02       		.uleb128 0x2
 2628 0071 08       		.byte	0x8
 2629 0072 05       		.byte	0x5
 2630 0073 AB030000 		.4byte	.LASF9
 2631 0077 02       		.uleb128 0x2
 2632 0078 08       		.byte	0x8
 2633 0079 07       		.byte	0x7
 2634 007a C0010000 		.4byte	.LASF10
 2635 007e 04       		.uleb128 0x4
 2636 007f 04       		.byte	0x4
 2637 0080 05       		.byte	0x5
 2638 0081 696E7400 		.ascii	"int\000"
 2639 0085 02       		.uleb128 0x2
 2640 0086 04       		.byte	0x4
 2641 0087 07       		.byte	0x7
 2642 0088 DC000000 		.4byte	.LASF11
 2643 008c 03       		.uleb128 0x3
 2644 008d 68030000 		.4byte	.LASF12
 2645 0091 03       		.byte	0x3
 2646 0092 18       		.byte	0x18
 2647 0093 2C000000 		.4byte	0x2c
 2648 0097 03       		.uleb128 0x3
 2649 0098 6C040000 		.4byte	.LASF13
 2650 009c 03       		.byte	0x3
 2651 009d 24       		.byte	0x24
 2652 009e 45000000 		.4byte	0x45
 2653 00a2 03       		.uleb128 0x3
 2654 00a3 90010000 		.4byte	.LASF14
 2655 00a7 03       		.byte	0x3
 2656 00a8 30       		.byte	0x30
 2657 00a9 5E000000 		.4byte	0x5e
 2658 00ad 05       		.uleb128 0x5
 2659 00ae 02       		.byte	0x2
 2660 00af 04       		.byte	0x4
 2661 00b0 2A       		.byte	0x2a
 2662 00b1 E3000000 		.4byte	0xe3
 2663 00b5 06       		.uleb128 0x6
 2664 00b6 5B000000 		.4byte	.LASF15
 2665 00ba 04       		.byte	0x4
 2666 00bb 2C       		.byte	0x2c
 2667 00bc 85000000 		.4byte	0x85
 2668 00c0 04       		.byte	0x4
 2669 00c1 06       		.byte	0x6
 2670 00c2 1A       		.byte	0x1a
 2671 00c3 00       		.byte	0
 2672 00c4 06       		.uleb128 0x6
 2673 00c5 53030000 		.4byte	.LASF16
 2674 00c9 04       		.byte	0x4
 2675 00ca 2D       		.byte	0x2d
 2676 00cb 85000000 		.4byte	0x85
 2677 00cf 04       		.byte	0x4
 2678 00d0 02       		.byte	0x2
 2679 00d1 18       		.byte	0x18
 2680 00d2 00       		.byte	0
ARM GAS  C:\Users\TERENC~1\AppData\Local\Temp\ccl7zEj9.s 			page 59


 2681 00d3 06       		.uleb128 0x6
 2682 00d4 64000000 		.4byte	.LASF17
 2683 00d8 04       		.byte	0x4
 2684 00d9 2F       		.byte	0x2f
 2685 00da 85000000 		.4byte	0x85
 2686 00de 04       		.byte	0x4
 2687 00df 08       		.byte	0x8
 2688 00e0 10       		.byte	0x10
 2689 00e1 00       		.byte	0
 2690 00e2 00       		.byte	0
 2691 00e3 03       		.uleb128 0x3
 2692 00e4 7A030000 		.4byte	.LASF18
 2693 00e8 04       		.byte	0x4
 2694 00e9 30       		.byte	0x30
 2695 00ea AD000000 		.4byte	0xad
 2696 00ee 05       		.uleb128 0x5
 2697 00ef 03       		.byte	0x3
 2698 00f0 04       		.byte	0x4
 2699 00f1 32       		.byte	0x32
 2700 00f2 0F010000 		.4byte	0x10f
 2701 00f6 07       		.uleb128 0x7
 2702 00f7 68647200 		.ascii	"hdr\000"
 2703 00fb 04       		.byte	0x4
 2704 00fc 34       		.byte	0x34
 2705 00fd E3000000 		.4byte	0xe3
 2706 0101 00       		.byte	0
 2707 0102 08       		.uleb128 0x8
 2708 0103 29040000 		.4byte	.LASF19
 2709 0107 04       		.byte	0x4
 2710 0108 35       		.byte	0x35
 2711 0109 0F010000 		.4byte	0x10f
 2712 010d 02       		.byte	0x2
 2713 010e 00       		.byte	0
 2714 010f 09       		.uleb128 0x9
 2715 0110 8C000000 		.4byte	0x8c
 2716 0114 1F010000 		.4byte	0x11f
 2717 0118 0A       		.uleb128 0xa
 2718 0119 1F010000 		.4byte	0x11f
 2719 011d 00       		.byte	0
 2720 011e 00       		.byte	0
 2721 011f 02       		.uleb128 0x2
 2722 0120 04       		.byte	0x4
 2723 0121 07       		.byte	0x7
 2724 0122 A1050000 		.4byte	.LASF20
 2725 0126 03       		.uleb128 0x3
 2726 0127 15050000 		.4byte	.LASF21
 2727 012b 04       		.byte	0x4
 2728 012c 36       		.byte	0x36
 2729 012d EE000000 		.4byte	0xee
 2730 0131 05       		.uleb128 0x5
 2731 0132 02       		.byte	0x2
 2732 0133 04       		.byte	0x4
 2733 0134 38       		.byte	0x38
 2734 0135 58010000 		.4byte	0x158
 2735 0139 06       		.uleb128 0x6
 2736 013a 53030000 		.4byte	.LASF16
 2737 013e 04       		.byte	0x4
ARM GAS  C:\Users\TERENC~1\AppData\Local\Temp\ccl7zEj9.s 			page 60


 2738 013f 3B       		.byte	0x3b
 2739 0140 85000000 		.4byte	0x85
 2740 0144 04       		.byte	0x4
 2741 0145 04       		.byte	0x4
 2742 0146 18       		.byte	0x18
 2743 0147 00       		.byte	0
 2744 0148 06       		.uleb128 0x6
 2745 0149 80040000 		.4byte	.LASF22
 2746 014d 04       		.byte	0x4
 2747 014e 3D       		.byte	0x3d
 2748 014f 85000000 		.4byte	0x85
 2749 0153 04       		.byte	0x4
 2750 0154 08       		.byte	0x8
 2751 0155 10       		.byte	0x10
 2752 0156 00       		.byte	0
 2753 0157 00       		.byte	0
 2754 0158 03       		.uleb128 0x3
 2755 0159 F8040000 		.4byte	.LASF23
 2756 015d 04       		.byte	0x4
 2757 015e 3E       		.byte	0x3e
 2758 015f 31010000 		.4byte	0x131
 2759 0163 05       		.uleb128 0x5
 2760 0164 03       		.byte	0x3
 2761 0165 04       		.byte	0x4
 2762 0166 40       		.byte	0x40
 2763 0167 A5010000 		.4byte	0x1a5
 2764 016b 06       		.uleb128 0x6
 2765 016c 51050000 		.4byte	.LASF24
 2766 0170 04       		.byte	0x4
 2767 0171 42       		.byte	0x42
 2768 0172 85000000 		.4byte	0x85
 2769 0176 04       		.byte	0x4
 2770 0177 04       		.byte	0x4
 2771 0178 1C       		.byte	0x1c
 2772 0179 00       		.byte	0
 2773 017a 06       		.uleb128 0x6
 2774 017b 53030000 		.4byte	.LASF16
 2775 017f 04       		.byte	0x4
 2776 0180 43       		.byte	0x43
 2777 0181 85000000 		.4byte	0x85
 2778 0185 04       		.byte	0x4
 2779 0186 04       		.byte	0x4
 2780 0187 18       		.byte	0x18
 2781 0188 00       		.byte	0
 2782 0189 06       		.uleb128 0x6
 2783 018a 00000000 		.4byte	.LASF25
 2784 018e 04       		.byte	0x4
 2785 018f 45       		.byte	0x45
 2786 0190 85000000 		.4byte	0x85
 2787 0194 04       		.byte	0x4
 2788 0195 08       		.byte	0x8
 2789 0196 10       		.byte	0x10
 2790 0197 00       		.byte	0
 2791 0198 08       		.uleb128 0x8
 2792 0199 29040000 		.4byte	.LASF19
 2793 019d 04       		.byte	0x4
 2794 019e 47       		.byte	0x47
ARM GAS  C:\Users\TERENC~1\AppData\Local\Temp\ccl7zEj9.s 			page 61


 2795 019f 0F010000 		.4byte	0x10f
 2796 01a3 02       		.byte	0x2
 2797 01a4 00       		.byte	0
 2798 01a5 03       		.uleb128 0x3
 2799 01a6 EF030000 		.4byte	.LASF26
 2800 01aa 04       		.byte	0x4
 2801 01ab 48       		.byte	0x48
 2802 01ac 63010000 		.4byte	0x163
 2803 01b0 05       		.uleb128 0x5
 2804 01b1 02       		.byte	0x2
 2805 01b2 04       		.byte	0x4
 2806 01b3 4A       		.byte	0x4a
 2807 01b4 E6010000 		.4byte	0x1e6
 2808 01b8 06       		.uleb128 0x6
 2809 01b9 CD040000 		.4byte	.LASF27
 2810 01bd 04       		.byte	0x4
 2811 01be 4C       		.byte	0x4c
 2812 01bf 85000000 		.4byte	0x85
 2813 01c3 04       		.byte	0x4
 2814 01c4 07       		.byte	0x7
 2815 01c5 19       		.byte	0x19
 2816 01c6 00       		.byte	0
 2817 01c7 06       		.uleb128 0x6
 2818 01c8 53030000 		.4byte	.LASF16
 2819 01cc 04       		.byte	0x4
 2820 01cd 4D       		.byte	0x4d
 2821 01ce 85000000 		.4byte	0x85
 2822 01d2 04       		.byte	0x4
 2823 01d3 01       		.byte	0x1
 2824 01d4 18       		.byte	0x18
 2825 01d5 00       		.byte	0
 2826 01d6 06       		.uleb128 0x6
 2827 01d7 8A060000 		.4byte	.LASF28
 2828 01db 04       		.byte	0x4
 2829 01dc 4F       		.byte	0x4f
 2830 01dd 85000000 		.4byte	0x85
 2831 01e1 04       		.byte	0x4
 2832 01e2 08       		.byte	0x8
 2833 01e3 10       		.byte	0x10
 2834 01e4 00       		.byte	0
 2835 01e5 00       		.byte	0
 2836 01e6 03       		.uleb128 0x3
 2837 01e7 65060000 		.4byte	.LASF29
 2838 01eb 04       		.byte	0x4
 2839 01ec 50       		.byte	0x50
 2840 01ed B0010000 		.4byte	0x1b0
 2841 01f1 05       		.uleb128 0x5
 2842 01f2 0A       		.byte	0xa
 2843 01f3 04       		.byte	0x4
 2844 01f4 52       		.byte	0x52
 2845 01f5 2A020000 		.4byte	0x22a
 2846 01f9 08       		.uleb128 0x8
 2847 01fa 4A010000 		.4byte	.LASF30
 2848 01fe 04       		.byte	0x4
 2849 01ff 54       		.byte	0x54
 2850 0200 97000000 		.4byte	0x97
 2851 0204 00       		.byte	0
ARM GAS  C:\Users\TERENC~1\AppData\Local\Temp\ccl7zEj9.s 			page 62


 2852 0205 08       		.uleb128 0x8
 2853 0206 34060000 		.4byte	.LASF31
 2854 020a 04       		.byte	0x4
 2855 020b 55       		.byte	0x55
 2856 020c 97000000 		.4byte	0x97
 2857 0210 02       		.byte	0x2
 2858 0211 08       		.uleb128 0x8
 2859 0212 45050000 		.4byte	.LASF32
 2860 0216 04       		.byte	0x4
 2861 0217 56       		.byte	0x56
 2862 0218 97000000 		.4byte	0x97
 2863 021c 04       		.byte	0x4
 2864 021d 07       		.uleb128 0x7
 2865 021e 6B657900 		.ascii	"key\000"
 2866 0222 04       		.byte	0x4
 2867 0223 57       		.byte	0x57
 2868 0224 A2000000 		.4byte	0xa2
 2869 0228 06       		.byte	0x6
 2870 0229 00       		.byte	0
 2871 022a 03       		.uleb128 0x3
 2872 022b 8F030000 		.4byte	.LASF33
 2873 022f 04       		.byte	0x4
 2874 0230 58       		.byte	0x58
 2875 0231 F1010000 		.4byte	0x1f1
 2876 0235 05       		.uleb128 0x5
 2877 0236 08       		.byte	0x8
 2878 0237 04       		.byte	0x4
 2879 0238 5A       		.byte	0x5a
 2880 0239 56020000 		.4byte	0x256
 2881 023d 08       		.uleb128 0x8
 2882 023e DF030000 		.4byte	.LASF34
 2883 0242 04       		.byte	0x4
 2884 0243 5C       		.byte	0x5c
 2885 0244 A2000000 		.4byte	0xa2
 2886 0248 00       		.byte	0
 2887 0249 08       		.uleb128 0x8
 2888 024a 1D030000 		.4byte	.LASF35
 2889 024e 04       		.byte	0x4
 2890 024f 5D       		.byte	0x5d
 2891 0250 A2000000 		.4byte	0xa2
 2892 0254 04       		.byte	0x4
 2893 0255 00       		.byte	0
 2894 0256 03       		.uleb128 0x3
 2895 0257 9F000000 		.4byte	.LASF36
 2896 025b 04       		.byte	0x4
 2897 025c 5E       		.byte	0x5e
 2898 025d 35020000 		.4byte	0x235
 2899 0261 05       		.uleb128 0x5
 2900 0262 18       		.byte	0x18
 2901 0263 04       		.byte	0x4
 2902 0264 60       		.byte	0x60
 2903 0265 2D030000 		.4byte	0x32d
 2904 0269 06       		.uleb128 0x6
 2905 026a DE040000 		.4byte	.LASF37
 2906 026e 04       		.byte	0x4
 2907 026f 62       		.byte	0x62
 2908 0270 85000000 		.4byte	0x85
ARM GAS  C:\Users\TERENC~1\AppData\Local\Temp\ccl7zEj9.s 			page 63


 2909 0274 04       		.byte	0x4
 2910 0275 10       		.byte	0x10
 2911 0276 10       		.byte	0x10
 2912 0277 00       		.byte	0
 2913 0278 06       		.uleb128 0x6
 2914 0279 8C000000 		.4byte	.LASF38
 2915 027d 04       		.byte	0x4
 2916 027e 64       		.byte	0x64
 2917 027f 85000000 		.4byte	0x85
 2918 0283 04       		.byte	0x4
 2919 0284 04       		.byte	0x4
 2920 0285 0C       		.byte	0xc
 2921 0286 00       		.byte	0
 2922 0287 06       		.uleb128 0x6
 2923 0288 89040000 		.4byte	.LASF39
 2924 028c 04       		.byte	0x4
 2925 028d 65       		.byte	0x65
 2926 028e 85000000 		.4byte	0x85
 2927 0292 04       		.byte	0x4
 2928 0293 04       		.byte	0x4
 2929 0294 08       		.byte	0x8
 2930 0295 00       		.byte	0
 2931 0296 06       		.uleb128 0x6
 2932 0297 0F000000 		.4byte	.LASF40
 2933 029b 04       		.byte	0x4
 2934 029c 69       		.byte	0x69
 2935 029d 85000000 		.4byte	0x85
 2936 02a1 04       		.byte	0x4
 2937 02a2 10       		.byte	0x10
 2938 02a3 10       		.byte	0x10
 2939 02a4 04       		.byte	0x4
 2940 02a5 06       		.uleb128 0x6
 2941 02a6 47030000 		.4byte	.LASF41
 2942 02aa 04       		.byte	0x4
 2943 02ab 6A       		.byte	0x6a
 2944 02ac 85000000 		.4byte	0x85
 2945 02b0 04       		.byte	0x4
 2946 02b1 08       		.byte	0x8
 2947 02b2 08       		.byte	0x8
 2948 02b3 04       		.byte	0x4
 2949 02b4 06       		.uleb128 0x6
 2950 02b5 7E060000 		.4byte	.LASF42
 2951 02b9 04       		.byte	0x4
 2952 02ba 6B       		.byte	0x6b
 2953 02bb 85000000 		.4byte	0x85
 2954 02bf 04       		.byte	0x4
 2955 02c0 08       		.byte	0x8
 2956 02c1 00       		.byte	0
 2957 02c2 04       		.byte	0x4
 2958 02c3 06       		.uleb128 0x6
 2959 02c4 50040000 		.4byte	.LASF43
 2960 02c8 04       		.byte	0x4
 2961 02c9 6D       		.byte	0x6d
 2962 02ca 85000000 		.4byte	0x85
 2963 02ce 04       		.byte	0x4
 2964 02cf 10       		.byte	0x10
 2965 02d0 10       		.byte	0x10
ARM GAS  C:\Users\TERENC~1\AppData\Local\Temp\ccl7zEj9.s 			page 64


 2966 02d1 08       		.byte	0x8
 2967 02d2 06       		.uleb128 0x6
 2968 02d3 2F030000 		.4byte	.LASF44
 2969 02d7 04       		.byte	0x4
 2970 02d8 6E       		.byte	0x6e
 2971 02d9 85000000 		.4byte	0x85
 2972 02dd 04       		.byte	0x4
 2973 02de 04       		.byte	0x4
 2974 02df 0C       		.byte	0xc
 2975 02e0 08       		.byte	0x8
 2976 02e1 06       		.uleb128 0x6
 2977 02e2 D8050000 		.4byte	.LASF45
 2978 02e6 04       		.byte	0x4
 2979 02e7 6F       		.byte	0x6f
 2980 02e8 85000000 		.4byte	0x85
 2981 02ec 04       		.byte	0x4
 2982 02ed 04       		.byte	0x4
 2983 02ee 08       		.byte	0x8
 2984 02ef 08       		.byte	0x8
 2985 02f0 06       		.uleb128 0x6
 2986 02f1 10030000 		.4byte	.LASF46
 2987 02f5 04       		.byte	0x4
 2988 02f6 70       		.byte	0x70
 2989 02f7 85000000 		.4byte	0x85
 2990 02fb 04       		.byte	0x4
 2991 02fc 08       		.byte	0x8
 2992 02fd 00       		.byte	0
 2993 02fe 08       		.byte	0x8
 2994 02ff 06       		.uleb128 0x6
 2995 0300 7E000000 		.4byte	.LASF47
 2996 0304 04       		.byte	0x4
 2997 0305 74       		.byte	0x74
 2998 0306 85000000 		.4byte	0x85
 2999 030a 04       		.byte	0x4
 3000 030b 20       		.byte	0x20
 3001 030c 00       		.byte	0
 3002 030d 10       		.byte	0x10
 3003 030e 06       		.uleb128 0x6
 3004 030f 70030000 		.4byte	.LASF48
 3005 0313 04       		.byte	0x4
 3006 0314 76       		.byte	0x76
 3007 0315 85000000 		.4byte	0x85
 3008 0319 04       		.byte	0x4
 3009 031a 10       		.byte	0x10
 3010 031b 10       		.byte	0x10
 3011 031c 14       		.byte	0x14
 3012 031d 06       		.uleb128 0x6
 3013 031e D8020000 		.4byte	.LASF49
 3014 0322 04       		.byte	0x4
 3015 0323 77       		.byte	0x77
 3016 0324 85000000 		.4byte	0x85
 3017 0328 04       		.byte	0x4
 3018 0329 10       		.byte	0x10
 3019 032a 00       		.byte	0
 3020 032b 14       		.byte	0x14
 3021 032c 00       		.byte	0
 3022 032d 03       		.uleb128 0x3
ARM GAS  C:\Users\TERENC~1\AppData\Local\Temp\ccl7zEj9.s 			page 65


 3023 032e 3D000000 		.4byte	.LASF50
 3024 0332 04       		.byte	0x4
 3025 0333 78       		.byte	0x78
 3026 0334 61020000 		.4byte	0x261
 3027 0338 0B       		.uleb128 0xb
 3028 0339 3E050000 		.4byte	.LASF51
 3029 033d 05       		.byte	0x5
 3030 033e E601     		.2byte	0x1e6
 3031 0340 69000000 		.4byte	0x69
 3032 0344 02       		.uleb128 0x2
 3033 0345 04       		.byte	0x4
 3034 0346 04       		.byte	0x4
 3035 0347 99010000 		.4byte	.LASF52
 3036 034b 02       		.uleb128 0x2
 3037 034c 08       		.byte	0x8
 3038 034d 04       		.byte	0x4
 3039 034e 77060000 		.4byte	.LASF53
 3040 0352 02       		.uleb128 0x2
 3041 0353 01       		.byte	0x1
 3042 0354 08       		.byte	0x8
 3043 0355 42030000 		.4byte	.LASF54
 3044 0359 0B       		.uleb128 0xb
 3045 035a 75040000 		.4byte	.LASF55
 3046 035e 05       		.byte	0x5
 3047 035f 9002     		.2byte	0x290
 3048 0361 65030000 		.4byte	0x365
 3049 0365 0C       		.uleb128 0xc
 3050 0366 38030000 		.4byte	0x338
 3051 036a 02       		.uleb128 0x2
 3052 036b 08       		.byte	0x8
 3053 036c 04       		.byte	0x4
 3054 036d 58040000 		.4byte	.LASF56
 3055 0371 0D       		.uleb128 0xd
 3056 0372 52030000 		.4byte	0x352
 3057 0376 0E       		.uleb128 0xe
 3058 0377 19010000 		.4byte	.LASF60
 3059 037b 01       		.byte	0x1
 3060 037c 26       		.byte	0x26
 3061 037d E7040000 		.4byte	0x4e7
 3062 0381 00000000 		.4byte	.LFB3
 3063 0385 C4000000 		.4byte	.LFE3-.LFB3
 3064 0389 01       		.uleb128 0x1
 3065 038a 9C       		.byte	0x9c
 3066 038b E7040000 		.4byte	0x4e7
 3067 038f 0F       		.uleb128 0xf
 3068 0390 FE030000 		.4byte	.LASF63
 3069 0394 01       		.byte	0x1
 3070 0395 26       		.byte	0x26
 3071 0396 E7040000 		.4byte	0x4e7
 3072 039a 00000000 		.4byte	.LLST0
 3073 039e 10       		.uleb128 0x10
 3074 039f 74050000 		.4byte	.LASF57
 3075 03a3 01       		.byte	0x1
 3076 03a4 28       		.byte	0x28
 3077 03a5 A2000000 		.4byte	0xa2
 3078 03a9 21000000 		.4byte	.LLST1
 3079 03ad 10       		.uleb128 0x10
ARM GAS  C:\Users\TERENC~1\AppData\Local\Temp\ccl7zEj9.s 			page 66


 3080 03ae 98000000 		.4byte	.LASF58
 3081 03b2 01       		.byte	0x1
 3082 03b3 29       		.byte	0x29
 3083 03b4 8C000000 		.4byte	0x8c
 3084 03b8 3F000000 		.4byte	.LLST2
 3085 03bc 11       		.uleb128 0x11
 3086 03bd 72657400 		.ascii	"ret\000"
 3087 03c1 01       		.byte	0x1
 3088 03c2 2A       		.byte	0x2a
 3089 03c3 E7040000 		.4byte	0x4e7
 3090 03c7 5D000000 		.4byte	.LLST3
 3091 03cb 12       		.uleb128 0x12
 3092 03cc 0A000000 		.4byte	.LVL3
 3093 03d0 38180000 		.4byte	0x1838
 3094 03d4 DE030000 		.4byte	0x3de
 3095 03d8 13       		.uleb128 0x13
 3096 03d9 01       		.uleb128 0x1
 3097 03da 50       		.byte	0x50
 3098 03db 01       		.uleb128 0x1
 3099 03dc 36       		.byte	0x36
 3100 03dd 00       		.byte	0
 3101 03de 12       		.uleb128 0x12
 3102 03df 10000000 		.4byte	.LVL4
 3103 03e3 43180000 		.4byte	0x1843
 3104 03e7 F1030000 		.4byte	0x3f1
 3105 03eb 13       		.uleb128 0x13
 3106 03ec 01       		.uleb128 0x1
 3107 03ed 50       		.byte	0x50
 3108 03ee 01       		.uleb128 0x1
 3109 03ef 30       		.byte	0x30
 3110 03f0 00       		.byte	0
 3111 03f1 12       		.uleb128 0x12
 3112 03f2 16000000 		.4byte	.LVL5
 3113 03f6 4E180000 		.4byte	0x184e
 3114 03fa 04040000 		.4byte	0x404
 3115 03fe 13       		.uleb128 0x13
 3116 03ff 01       		.uleb128 0x1
 3117 0400 50       		.byte	0x50
 3118 0401 01       		.uleb128 0x1
 3119 0402 36       		.byte	0x36
 3120 0403 00       		.byte	0
 3121 0404 12       		.uleb128 0x12
 3122 0405 1C000000 		.4byte	.LVL6
 3123 0409 59180000 		.4byte	0x1859
 3124 040d 17040000 		.4byte	0x417
 3125 0411 13       		.uleb128 0x13
 3126 0412 01       		.uleb128 0x1
 3127 0413 50       		.byte	0x50
 3128 0414 01       		.uleb128 0x1
 3129 0415 30       		.byte	0x30
 3130 0416 00       		.byte	0
 3131 0417 12       		.uleb128 0x12
 3132 0418 2C000000 		.4byte	.LVL7
 3133 041c 64180000 		.4byte	0x1864
 3134 0420 2A040000 		.4byte	0x42a
 3135 0424 13       		.uleb128 0x13
 3136 0425 01       		.uleb128 0x1
ARM GAS  C:\Users\TERENC~1\AppData\Local\Temp\ccl7zEj9.s 			page 67


 3137 0426 50       		.byte	0x50
 3138 0427 01       		.uleb128 0x1
 3139 0428 36       		.byte	0x36
 3140 0429 00       		.byte	0
 3141 042a 12       		.uleb128 0x12
 3142 042b 36000000 		.4byte	.LVL8
 3143 042f 6F180000 		.4byte	0x186f
 3144 0433 3D040000 		.4byte	0x43d
 3145 0437 13       		.uleb128 0x13
 3146 0438 01       		.uleb128 0x1
 3147 0439 50       		.byte	0x50
 3148 043a 01       		.uleb128 0x1
 3149 043b 30       		.byte	0x30
 3150 043c 00       		.byte	0
 3151 043d 12       		.uleb128 0x12
 3152 043e 3E000000 		.4byte	.LVL9
 3153 0442 6F180000 		.4byte	0x186f
 3154 0446 50040000 		.4byte	0x450
 3155 044a 13       		.uleb128 0x13
 3156 044b 01       		.uleb128 0x1
 3157 044c 50       		.byte	0x50
 3158 044d 01       		.uleb128 0x1
 3159 044e 31       		.byte	0x31
 3160 044f 00       		.byte	0
 3161 0450 12       		.uleb128 0x12
 3162 0451 44000000 		.4byte	.LVL10
 3163 0455 7A180000 		.4byte	0x187a
 3164 0459 63040000 		.4byte	0x463
 3165 045d 13       		.uleb128 0x13
 3166 045e 01       		.uleb128 0x1
 3167 045f 50       		.byte	0x50
 3168 0460 01       		.uleb128 0x1
 3169 0461 33       		.byte	0x33
 3170 0462 00       		.byte	0
 3171 0463 12       		.uleb128 0x12
 3172 0464 4A000000 		.4byte	.LVL11
 3173 0468 43180000 		.4byte	0x1843
 3174 046c 76040000 		.4byte	0x476
 3175 0470 13       		.uleb128 0x13
 3176 0471 01       		.uleb128 0x1
 3177 0472 50       		.byte	0x50
 3178 0473 01       		.uleb128 0x1
 3179 0474 31       		.byte	0x31
 3180 0475 00       		.byte	0
 3181 0476 12       		.uleb128 0x12
 3182 0477 50000000 		.4byte	.LVL12
 3183 047b 85180000 		.4byte	0x1885
 3184 047f 89040000 		.4byte	0x489
 3185 0483 13       		.uleb128 0x13
 3186 0484 01       		.uleb128 0x1
 3187 0485 50       		.byte	0x50
 3188 0486 01       		.uleb128 0x1
 3189 0487 36       		.byte	0x36
 3190 0488 00       		.byte	0
 3191 0489 12       		.uleb128 0x12
 3192 048a 56000000 		.4byte	.LVL13
 3193 048e 59180000 		.4byte	0x1859
ARM GAS  C:\Users\TERENC~1\AppData\Local\Temp\ccl7zEj9.s 			page 68


 3194 0492 9C040000 		.4byte	0x49c
 3195 0496 13       		.uleb128 0x13
 3196 0497 01       		.uleb128 0x1
 3197 0498 50       		.byte	0x50
 3198 0499 01       		.uleb128 0x1
 3199 049a 31       		.byte	0x31
 3200 049b 00       		.byte	0
 3201 049c 12       		.uleb128 0x12
 3202 049d 5C000000 		.4byte	.LVL14
 3203 04a1 85180000 		.4byte	0x1885
 3204 04a5 AF040000 		.4byte	0x4af
 3205 04a9 13       		.uleb128 0x13
 3206 04aa 01       		.uleb128 0x1
 3207 04ab 50       		.byte	0x50
 3208 04ac 01       		.uleb128 0x1
 3209 04ad 32       		.byte	0x32
 3210 04ae 00       		.byte	0
 3211 04af 12       		.uleb128 0x12
 3212 04b0 62000000 		.4byte	.LVL15
 3213 04b4 59180000 		.4byte	0x1859
 3214 04b8 C2040000 		.4byte	0x4c2
 3215 04bc 13       		.uleb128 0x13
 3216 04bd 01       		.uleb128 0x1
 3217 04be 50       		.byte	0x50
 3218 04bf 01       		.uleb128 0x1
 3219 04c0 30       		.byte	0x30
 3220 04c1 00       		.byte	0
 3221 04c2 14       		.uleb128 0x14
 3222 04c3 66000000 		.4byte	.LVL16
 3223 04c7 90180000 		.4byte	0x1890
 3224 04cb 14       		.uleb128 0x14
 3225 04cc 70000000 		.4byte	.LVL19
 3226 04d0 90180000 		.4byte	0x1890
 3227 04d4 14       		.uleb128 0x14
 3228 04d5 84000000 		.4byte	.LVL20
 3229 04d9 90180000 		.4byte	0x1890
 3230 04dd 14       		.uleb128 0x14
 3231 04de 8C000000 		.4byte	.LVL21
 3232 04e2 90180000 		.4byte	0x1890
 3233 04e6 00       		.byte	0
 3234 04e7 02       		.uleb128 0x2
 3235 04e8 01       		.byte	0x1
 3236 04e9 02       		.byte	0x2
 3237 04ea F8020000 		.4byte	.LASF59
 3238 04ee 0E       		.uleb128 0xe
 3239 04ef 19040000 		.4byte	.LASF61
 3240 04f3 01       		.byte	0x1
 3241 04f4 69       		.byte	0x69
 3242 04f5 8C000000 		.4byte	0x8c
 3243 04f9 00000000 		.4byte	.LFB4
 3244 04fd 0A000000 		.4byte	.LFE4-.LFB4
 3245 0501 01       		.uleb128 0x1
 3246 0502 9C       		.byte	0x9c
 3247 0503 11050000 		.4byte	0x511
 3248 0507 14       		.uleb128 0x14
 3249 0508 06000000 		.4byte	.LVL27
 3250 050c 9B180000 		.4byte	0x189b
ARM GAS  C:\Users\TERENC~1\AppData\Local\Temp\ccl7zEj9.s 			page 69


 3251 0510 00       		.byte	0
 3252 0511 0E       		.uleb128 0xe
 3253 0512 BF020000 		.4byte	.LASF62
 3254 0516 01       		.byte	0x1
 3255 0517 A3       		.byte	0xa3
 3256 0518 E7040000 		.4byte	0x4e7
 3257 051c 00000000 		.4byte	.LFB8
 3258 0520 E0000000 		.4byte	.LFE8-.LFB8
 3259 0524 01       		.uleb128 0x1
 3260 0525 9C       		.byte	0x9c
 3261 0526 44060000 		.4byte	0x644
 3262 052a 0F       		.uleb128 0xf
 3263 052b 3A030000 		.4byte	.LASF64
 3264 052f 01       		.byte	0x1
 3265 0530 A3       		.byte	0xa3
 3266 0531 44060000 		.4byte	0x644
 3267 0535 7C000000 		.4byte	.LLST4
 3268 0539 0F       		.uleb128 0xf
 3269 053a E9030000 		.4byte	.LASF65
 3270 053e 01       		.byte	0x1
 3271 053f A3       		.byte	0xa3
 3272 0540 A2000000 		.4byte	0xa2
 3273 0544 9B000000 		.4byte	.LLST5
 3274 0548 0F       		.uleb128 0xf
 3275 0549 C6030000 		.4byte	.LASF66
 3276 054d 01       		.byte	0x1
 3277 054e A3       		.byte	0xa3
 3278 054f 4A060000 		.4byte	0x64a
 3279 0553 C7000000 		.4byte	.LLST6
 3280 0557 0F       		.uleb128 0xf
 3281 0558 26010000 		.4byte	.LASF67
 3282 055c 01       		.byte	0x1
 3283 055d A3       		.byte	0xa3
 3284 055e 44060000 		.4byte	0x644
 3285 0562 25010000 		.4byte	.LLST7
 3286 0566 0F       		.uleb128 0xf
 3287 0567 9F010000 		.4byte	.LASF68
 3288 056b 01       		.byte	0x1
 3289 056c A3       		.byte	0xa3
 3290 056d 97000000 		.4byte	0x97
 3291 0571 51010000 		.4byte	.LLST8
 3292 0575 10       		.uleb128 0x10
 3293 0576 74050000 		.4byte	.LASF57
 3294 057a 01       		.byte	0x1
 3295 057b A5       		.byte	0xa5
 3296 057c A2000000 		.4byte	0xa2
 3297 0580 7D010000 		.4byte	.LLST9
 3298 0584 11       		.uleb128 0x11
 3299 0585 6900     		.ascii	"i\000"
 3300 0587 01       		.byte	0x1
 3301 0588 A6       		.byte	0xa6
 3302 0589 A2000000 		.4byte	0xa2
 3303 058d A6010000 		.4byte	.LLST10
 3304 0591 15       		.uleb128 0x15
 3305 0592 42000000 		.4byte	.LBB2
 3306 0596 2A000000 		.4byte	.LBE2-.LBB2
 3307 059a E9050000 		.4byte	0x5e9
ARM GAS  C:\Users\TERENC~1\AppData\Local\Temp\ccl7zEj9.s 			page 70


 3308 059e 11       		.uleb128 0x11
 3309 059f 733100   		.ascii	"s1\000"
 3310 05a2 01       		.byte	0x1
 3311 05a3 AD       		.byte	0xad
 3312 05a4 A2000000 		.4byte	0xa2
 3313 05a8 C4010000 		.4byte	.LLST11
 3314 05ac 14       		.uleb128 0x14
 3315 05ad 4A000000 		.4byte	.LVL36
 3316 05b1 A7180000 		.4byte	0x18a7
 3317 05b5 12       		.uleb128 0x12
 3318 05b6 66000000 		.4byte	.LVL38
 3319 05ba B2180000 		.4byte	0x18b2
 3320 05be D8050000 		.4byte	0x5d8
 3321 05c2 13       		.uleb128 0x13
 3322 05c3 01       		.uleb128 0x1
 3323 05c4 50       		.byte	0x50
 3324 05c5 02       		.uleb128 0x2
 3325 05c6 74       		.byte	0x74
 3326 05c7 00       		.sleb128 0
 3327 05c8 13       		.uleb128 0x13
 3328 05c9 01       		.uleb128 0x1
 3329 05ca 51       		.byte	0x51
 3330 05cb 05       		.uleb128 0x5
 3331 05cc 03       		.byte	0x3
 3332 05cd 00000000 		.4byte	.LC3
 3333 05d1 13       		.uleb128 0x13
 3334 05d2 01       		.uleb128 0x1
 3335 05d3 52       		.byte	0x52
 3336 05d4 02       		.uleb128 0x2
 3337 05d5 08       		.byte	0x8
 3338 05d6 41       		.byte	0x41
 3339 05d7 00       		.byte	0
 3340 05d8 16       		.uleb128 0x16
 3341 05d9 6C000000 		.4byte	.LVL39
 3342 05dd BB180000 		.4byte	0x18bb
 3343 05e1 13       		.uleb128 0x13
 3344 05e2 01       		.uleb128 0x1
 3345 05e3 50       		.byte	0x50
 3346 05e4 02       		.uleb128 0x2
 3347 05e5 74       		.byte	0x74
 3348 05e6 00       		.sleb128 0
 3349 05e7 00       		.byte	0
 3350 05e8 00       		.byte	0
 3351 05e9 14       		.uleb128 0x14
 3352 05ea 1E000000 		.4byte	.LVL32
 3353 05ee 90180000 		.4byte	0x1890
 3354 05f2 14       		.uleb128 0x14
 3355 05f3 3E000000 		.4byte	.LVL34
 3356 05f7 C6180000 		.4byte	0x18c6
 3357 05fb 12       		.uleb128 0x12
 3358 05fc 78000000 		.4byte	.LVL40
 3359 0600 D2180000 		.4byte	0x18d2
 3360 0604 16060000 		.4byte	0x616
 3361 0608 13       		.uleb128 0x13
 3362 0609 01       		.uleb128 0x1
 3363 060a 50       		.byte	0x50
 3364 060b 03       		.uleb128 0x3
ARM GAS  C:\Users\TERENC~1\AppData\Local\Temp\ccl7zEj9.s 			page 71


 3365 060c 91       		.byte	0x91
 3366 060d 64       		.sleb128 -28
 3367 060e 06       		.byte	0x6
 3368 060f 13       		.uleb128 0x13
 3369 0610 01       		.uleb128 0x1
 3370 0611 51       		.byte	0x51
 3371 0612 02       		.uleb128 0x2
 3372 0613 76       		.byte	0x76
 3373 0614 00       		.sleb128 0
 3374 0615 00       		.byte	0
 3375 0616 14       		.uleb128 0x14
 3376 0617 80000000 		.4byte	.LVL42
 3377 061b DE180000 		.4byte	0x18de
 3378 061f 14       		.uleb128 0x14
 3379 0620 98000000 		.4byte	.LVL43
 3380 0624 EE040000 		.4byte	0x4ee
 3381 0628 14       		.uleb128 0x14
 3382 0629 A0000000 		.4byte	.LVL44
 3383 062d EE040000 		.4byte	0x4ee
 3384 0631 14       		.uleb128 0x14
 3385 0632 B2000000 		.4byte	.LVL46
 3386 0636 EE040000 		.4byte	0x4ee
 3387 063a 14       		.uleb128 0x14
 3388 063b C2000000 		.4byte	.LVL51
 3389 063f EA180000 		.4byte	0x18ea
 3390 0643 00       		.byte	0
 3391 0644 17       		.uleb128 0x17
 3392 0645 04       		.byte	0x4
 3393 0646 8C000000 		.4byte	0x8c
 3394 064a 17       		.uleb128 0x17
 3395 064b 04       		.byte	0x4
 3396 064c 97000000 		.4byte	0x97
 3397 0650 0E       		.uleb128 0xe
 3398 0651 0A040000 		.4byte	.LASF69
 3399 0655 01       		.byte	0x1
 3400 0656 D1       		.byte	0xd1
 3401 0657 E7040000 		.4byte	0x4e7
 3402 065b 00000000 		.4byte	.LFB9
 3403 065f 5E000000 		.4byte	.LFE9-.LFB9
 3404 0663 01       		.uleb128 0x1
 3405 0664 9C       		.byte	0x9c
 3406 0665 35070000 		.4byte	0x735
 3407 0669 0F       		.uleb128 0xf
 3408 066a 84050000 		.4byte	.LASF70
 3409 066e 01       		.byte	0x1
 3410 066f D1       		.byte	0xd1
 3411 0670 8C000000 		.4byte	0x8c
 3412 0674 D7010000 		.4byte	.LLST12
 3413 0678 0F       		.uleb128 0xf
 3414 0679 41010000 		.4byte	.LASF71
 3415 067d 01       		.byte	0x1
 3416 067e D1       		.byte	0xd1
 3417 067f 8C000000 		.4byte	0x8c
 3418 0683 F8010000 		.4byte	.LLST13
 3419 0687 0F       		.uleb128 0xf
 3420 0688 F2020000 		.4byte	.LASF72
 3421 068c 01       		.byte	0x1
ARM GAS  C:\Users\TERENC~1\AppData\Local\Temp\ccl7zEj9.s 			page 72


 3422 068d D1       		.byte	0xd1
 3423 068e 44060000 		.4byte	0x644
 3424 0692 19020000 		.4byte	.LLST14
 3425 0696 0F       		.uleb128 0xf
 3426 0697 C6030000 		.4byte	.LASF66
 3427 069b 01       		.byte	0x1
 3428 069c D1       		.byte	0xd1
 3429 069d 4A060000 		.4byte	0x64a
 3430 06a1 38020000 		.4byte	.LLST15
 3431 06a5 11       		.uleb128 0x11
 3432 06a6 72657400 		.ascii	"ret\000"
 3433 06aa 01       		.byte	0x1
 3434 06ab D3       		.byte	0xd3
 3435 06ac E7040000 		.4byte	0x4e7
 3436 06b0 57020000 		.4byte	.LLST16
 3437 06b4 10       		.uleb128 0x10
 3438 06b5 2E010000 		.4byte	.LASF73
 3439 06b9 01       		.byte	0x1
 3440 06ba D5       		.byte	0xd5
 3441 06bb 35070000 		.4byte	0x735
 3442 06bf 76020000 		.4byte	.LLST17
 3443 06c3 12       		.uleb128 0x12
 3444 06c4 14000000 		.4byte	.LVL59
 3445 06c8 F6180000 		.4byte	0x18f6
 3446 06cc D7060000 		.4byte	0x6d7
 3447 06d0 13       		.uleb128 0x13
 3448 06d1 01       		.uleb128 0x1
 3449 06d2 50       		.byte	0x50
 3450 06d3 02       		.uleb128 0x2
 3451 06d4 74       		.byte	0x74
 3452 06d5 00       		.sleb128 0
 3453 06d6 00       		.byte	0
 3454 06d7 12       		.uleb128 0x12
 3455 06d8 3A000000 		.4byte	.LVL62
 3456 06dc B2180000 		.4byte	0x18b2
 3457 06e0 F8060000 		.4byte	0x6f8
 3458 06e4 13       		.uleb128 0x13
 3459 06e5 01       		.uleb128 0x1
 3460 06e6 50       		.byte	0x50
 3461 06e7 02       		.uleb128 0x2
 3462 06e8 77       		.byte	0x77
 3463 06e9 02       		.sleb128 2
 3464 06ea 13       		.uleb128 0x13
 3465 06eb 01       		.uleb128 0x1
 3466 06ec 51       		.byte	0x51
 3467 06ed 03       		.uleb128 0x3
 3468 06ee 91       		.byte	0x91
 3469 06ef 60       		.sleb128 -32
 3470 06f0 06       		.byte	0x6
 3471 06f1 13       		.uleb128 0x13
 3472 06f2 01       		.uleb128 0x1
 3473 06f3 52       		.byte	0x52
 3474 06f4 02       		.uleb128 0x2
 3475 06f5 75       		.byte	0x75
 3476 06f6 00       		.sleb128 0
 3477 06f7 00       		.byte	0
 3478 06f8 12       		.uleb128 0x12
ARM GAS  C:\Users\TERENC~1\AppData\Local\Temp\ccl7zEj9.s 			page 73


 3479 06f9 48000000 		.4byte	.LVL63
 3480 06fd 11050000 		.4byte	0x511
 3481 0701 24070000 		.4byte	0x724
 3482 0705 13       		.uleb128 0x13
 3483 0706 01       		.uleb128 0x1
 3484 0707 50       		.byte	0x50
 3485 0708 02       		.uleb128 0x2
 3486 0709 77       		.byte	0x77
 3487 070a 00       		.sleb128 0
 3488 070b 13       		.uleb128 0x13
 3489 070c 01       		.uleb128 0x1
 3490 070d 51       		.byte	0x51
 3491 070e 02       		.uleb128 0x2
 3492 070f 74       		.byte	0x74
 3493 0710 00       		.sleb128 0
 3494 0711 13       		.uleb128 0x13
 3495 0712 01       		.uleb128 0x1
 3496 0713 52       		.byte	0x52
 3497 0714 03       		.uleb128 0x3
 3498 0715 91       		.byte	0x91
 3499 0716 64       		.sleb128 -28
 3500 0717 06       		.byte	0x6
 3501 0718 13       		.uleb128 0x13
 3502 0719 01       		.uleb128 0x1
 3503 071a 53       		.byte	0x53
 3504 071b 01       		.uleb128 0x1
 3505 071c 30       		.byte	0x30
 3506 071d 13       		.uleb128 0x13
 3507 071e 02       		.uleb128 0x2
 3508 071f 7D       		.byte	0x7d
 3509 0720 00       		.sleb128 0
 3510 0721 01       		.uleb128 0x1
 3511 0722 30       		.byte	0x30
 3512 0723 00       		.byte	0
 3513 0724 16       		.uleb128 0x16
 3514 0725 50000000 		.4byte	.LVL65
 3515 0729 01190000 		.4byte	0x1901
 3516 072d 13       		.uleb128 0x13
 3517 072e 01       		.uleb128 0x1
 3518 072f 50       		.byte	0x50
 3519 0730 02       		.uleb128 0x2
 3520 0731 77       		.byte	0x77
 3521 0732 00       		.sleb128 0
 3522 0733 00       		.byte	0
 3523 0734 00       		.byte	0
 3524 0735 17       		.uleb128 0x17
 3525 0736 04       		.byte	0x4
 3526 0737 26010000 		.4byte	0x126
 3527 073b 0E       		.uleb128 0xe
 3528 073c CC000000 		.4byte	.LASF74
 3529 0740 01       		.byte	0x1
 3530 0741 FF       		.byte	0xff
 3531 0742 E7040000 		.4byte	0x4e7
 3532 0746 00000000 		.4byte	.LFB11
 3533 074a 3C000000 		.4byte	.LFE11-.LFB11
 3534 074e 01       		.uleb128 0x1
 3535 074f 9C       		.byte	0x9c
ARM GAS  C:\Users\TERENC~1\AppData\Local\Temp\ccl7zEj9.s 			page 74


 3536 0750 E0070000 		.4byte	0x7e0
 3537 0754 0F       		.uleb128 0xf
 3538 0755 10060000 		.4byte	.LASF75
 3539 0759 01       		.byte	0x1
 3540 075a FF       		.byte	0xff
 3541 075b 97000000 		.4byte	0x97
 3542 075f 94020000 		.4byte	.LLST18
 3543 0763 0F       		.uleb128 0xf
 3544 0764 C6030000 		.4byte	.LASF66
 3545 0768 01       		.byte	0x1
 3546 0769 FF       		.byte	0xff
 3547 076a 4A060000 		.4byte	0x64a
 3548 076e B5020000 		.4byte	.LLST19
 3549 0772 18       		.uleb128 0x18
 3550 0773 72657400 		.ascii	"ret\000"
 3551 0777 01       		.byte	0x1
 3552 0778 0101     		.2byte	0x101
 3553 077a E7040000 		.4byte	0x4e7
 3554 077e E1020000 		.4byte	.LLST20
 3555 0782 19       		.uleb128 0x19
 3556 0783 2E010000 		.4byte	.LASF73
 3557 0787 01       		.byte	0x1
 3558 0788 0301     		.2byte	0x103
 3559 078a E0070000 		.4byte	0x7e0
 3560 078e 00030000 		.4byte	.LLST21
 3561 0792 12       		.uleb128 0x12
 3562 0793 0E000000 		.4byte	.LVL71
 3563 0797 F6180000 		.4byte	0x18f6
 3564 079b A5070000 		.4byte	0x7a5
 3565 079f 13       		.uleb128 0x13
 3566 07a0 01       		.uleb128 0x1
 3567 07a1 50       		.byte	0x50
 3568 07a2 01       		.uleb128 0x1
 3569 07a3 32       		.byte	0x32
 3570 07a4 00       		.byte	0
 3571 07a5 12       		.uleb128 0x12
 3572 07a6 26000000 		.4byte	.LVL73
 3573 07aa 11050000 		.4byte	0x511
 3574 07ae CF070000 		.4byte	0x7cf
 3575 07b2 13       		.uleb128 0x13
 3576 07b3 01       		.uleb128 0x1
 3577 07b4 50       		.byte	0x50
 3578 07b5 02       		.uleb128 0x2
 3579 07b6 74       		.byte	0x74
 3580 07b7 00       		.sleb128 0
 3581 07b8 13       		.uleb128 0x13
 3582 07b9 01       		.uleb128 0x1
 3583 07ba 51       		.byte	0x51
 3584 07bb 01       		.uleb128 0x1
 3585 07bc 32       		.byte	0x32
 3586 07bd 13       		.uleb128 0x13
 3587 07be 01       		.uleb128 0x1
 3588 07bf 52       		.byte	0x52
 3589 07c0 02       		.uleb128 0x2
 3590 07c1 75       		.byte	0x75
 3591 07c2 00       		.sleb128 0
 3592 07c3 13       		.uleb128 0x13
ARM GAS  C:\Users\TERENC~1\AppData\Local\Temp\ccl7zEj9.s 			page 75


 3593 07c4 01       		.uleb128 0x1
 3594 07c5 53       		.byte	0x53
 3595 07c6 01       		.uleb128 0x1
 3596 07c7 30       		.byte	0x30
 3597 07c8 13       		.uleb128 0x13
 3598 07c9 02       		.uleb128 0x2
 3599 07ca 7D       		.byte	0x7d
 3600 07cb 00       		.sleb128 0
 3601 07cc 01       		.uleb128 0x1
 3602 07cd 30       		.byte	0x30
 3603 07ce 00       		.byte	0
 3604 07cf 16       		.uleb128 0x16
 3605 07d0 2E000000 		.4byte	.LVL75
 3606 07d4 01190000 		.4byte	0x1901
 3607 07d8 13       		.uleb128 0x13
 3608 07d9 01       		.uleb128 0x1
 3609 07da 50       		.byte	0x50
 3610 07db 02       		.uleb128 0x2
 3611 07dc 74       		.byte	0x74
 3612 07dd 00       		.sleb128 0
 3613 07de 00       		.byte	0
 3614 07df 00       		.byte	0
 3615 07e0 17       		.uleb128 0x17
 3616 07e1 04       		.byte	0x4
 3617 07e2 E6010000 		.4byte	0x1e6
 3618 07e6 1A       		.uleb128 0x1a
 3619 07e7 15060000 		.4byte	.LASF76
 3620 07eb 01       		.byte	0x1
 3621 07ec 1501     		.2byte	0x115
 3622 07ee E7040000 		.4byte	0x4e7
 3623 07f2 00000000 		.4byte	.LFB12
 3624 07f6 5E000000 		.4byte	.LFE12-.LFB12
 3625 07fa 01       		.uleb128 0x1
 3626 07fb 9C       		.byte	0x9c
 3627 07fc C1080000 		.4byte	0x8c1
 3628 0800 1B       		.uleb128 0x1b
 3629 0801 FE020000 		.4byte	.LASF77
 3630 0805 01       		.byte	0x1
 3631 0806 1501     		.2byte	0x115
 3632 0808 97000000 		.4byte	0x97
 3633 080c 1E030000 		.4byte	.LLST22
 3634 0810 1B       		.uleb128 0x1b
 3635 0811 F2020000 		.4byte	.LASF72
 3636 0815 01       		.byte	0x1
 3637 0816 1501     		.2byte	0x115
 3638 0818 44060000 		.4byte	0x644
 3639 081c 3F030000 		.4byte	.LLST23
 3640 0820 1B       		.uleb128 0x1b
 3641 0821 C6030000 		.4byte	.LASF66
 3642 0825 01       		.byte	0x1
 3643 0826 1501     		.2byte	0x115
 3644 0828 4A060000 		.4byte	0x64a
 3645 082c 6B030000 		.4byte	.LLST24
 3646 0830 18       		.uleb128 0x18
 3647 0831 72657400 		.ascii	"ret\000"
 3648 0835 01       		.byte	0x1
 3649 0836 1701     		.2byte	0x117
ARM GAS  C:\Users\TERENC~1\AppData\Local\Temp\ccl7zEj9.s 			page 76


 3650 0838 E7040000 		.4byte	0x4e7
 3651 083c 8A030000 		.4byte	.LLST25
 3652 0840 19       		.uleb128 0x19
 3653 0841 2E010000 		.4byte	.LASF73
 3654 0845 01       		.byte	0x1
 3655 0846 1901     		.2byte	0x119
 3656 0848 C1080000 		.4byte	0x8c1
 3657 084c A9030000 		.4byte	.LLST26
 3658 0850 12       		.uleb128 0x12
 3659 0851 12000000 		.4byte	.LVL81
 3660 0855 F6180000 		.4byte	0x18f6
 3661 0859 64080000 		.4byte	0x864
 3662 085d 13       		.uleb128 0x13
 3663 085e 01       		.uleb128 0x1
 3664 085f 50       		.byte	0x50
 3665 0860 02       		.uleb128 0x2
 3666 0861 74       		.byte	0x74
 3667 0862 00       		.sleb128 0
 3668 0863 00       		.byte	0
 3669 0864 12       		.uleb128 0x12
 3670 0865 3A000000 		.4byte	.LVL84
 3671 0869 B2180000 		.4byte	0x18b2
 3672 086d 84080000 		.4byte	0x884
 3673 0871 13       		.uleb128 0x13
 3674 0872 01       		.uleb128 0x1
 3675 0873 50       		.byte	0x50
 3676 0874 02       		.uleb128 0x2
 3677 0875 77       		.byte	0x77
 3678 0876 02       		.sleb128 2
 3679 0877 13       		.uleb128 0x13
 3680 0878 01       		.uleb128 0x1
 3681 0879 51       		.byte	0x51
 3682 087a 02       		.uleb128 0x2
 3683 087b 76       		.byte	0x76
 3684 087c 00       		.sleb128 0
 3685 087d 13       		.uleb128 0x13
 3686 087e 01       		.uleb128 0x1
 3687 087f 52       		.byte	0x52
 3688 0880 02       		.uleb128 0x2
 3689 0881 75       		.byte	0x75
 3690 0882 00       		.sleb128 0
 3691 0883 00       		.byte	0
 3692 0884 12       		.uleb128 0x12
 3693 0885 48000000 		.4byte	.LVL85
 3694 0889 11050000 		.4byte	0x511
 3695 088d B0080000 		.4byte	0x8b0
 3696 0891 13       		.uleb128 0x13
 3697 0892 01       		.uleb128 0x1
 3698 0893 50       		.byte	0x50
 3699 0894 02       		.uleb128 0x2
 3700 0895 77       		.byte	0x77
 3701 0896 00       		.sleb128 0
 3702 0897 13       		.uleb128 0x13
 3703 0898 01       		.uleb128 0x1
 3704 0899 51       		.byte	0x51
 3705 089a 02       		.uleb128 0x2
 3706 089b 74       		.byte	0x74
ARM GAS  C:\Users\TERENC~1\AppData\Local\Temp\ccl7zEj9.s 			page 77


 3707 089c 00       		.sleb128 0
 3708 089d 13       		.uleb128 0x13
 3709 089e 01       		.uleb128 0x1
 3710 089f 52       		.byte	0x52
 3711 08a0 03       		.uleb128 0x3
 3712 08a1 91       		.byte	0x91
 3713 08a2 64       		.sleb128 -28
 3714 08a3 06       		.byte	0x6
 3715 08a4 13       		.uleb128 0x13
 3716 08a5 01       		.uleb128 0x1
 3717 08a6 53       		.byte	0x53
 3718 08a7 01       		.uleb128 0x1
 3719 08a8 30       		.byte	0x30
 3720 08a9 13       		.uleb128 0x13
 3721 08aa 02       		.uleb128 0x2
 3722 08ab 7D       		.byte	0x7d
 3723 08ac 00       		.sleb128 0
 3724 08ad 01       		.uleb128 0x1
 3725 08ae 30       		.byte	0x30
 3726 08af 00       		.byte	0
 3727 08b0 16       		.uleb128 0x16
 3728 08b1 50000000 		.4byte	.LVL87
 3729 08b5 01190000 		.4byte	0x1901
 3730 08b9 13       		.uleb128 0x13
 3731 08ba 01       		.uleb128 0x1
 3732 08bb 50       		.byte	0x50
 3733 08bc 02       		.uleb128 0x2
 3734 08bd 77       		.byte	0x77
 3735 08be 00       		.sleb128 0
 3736 08bf 00       		.byte	0
 3737 08c0 00       		.byte	0
 3738 08c1 17       		.uleb128 0x17
 3739 08c2 04       		.byte	0x4
 3740 08c3 A5010000 		.4byte	0x1a5
 3741 08c7 0E       		.uleb128 0xe
 3742 08c8 84010000 		.4byte	.LASF78
 3743 08cc 01       		.byte	0x1
 3744 08cd E8       		.byte	0xe8
 3745 08ce E7040000 		.4byte	0x4e7
 3746 08d2 00000000 		.4byte	.LFB10
 3747 08d6 4E000000 		.4byte	.LFE10-.LFB10
 3748 08da 01       		.uleb128 0x1
 3749 08db 9C       		.byte	0x9c
 3750 08dc 9E090000 		.4byte	0x99e
 3751 08e0 0F       		.uleb128 0xf
 3752 08e1 FE020000 		.4byte	.LASF77
 3753 08e5 01       		.byte	0x1
 3754 08e6 E8       		.byte	0xe8
 3755 08e7 97000000 		.4byte	0x97
 3756 08eb C7030000 		.4byte	.LLST27
 3757 08ef 0F       		.uleb128 0xf
 3758 08f0 C6030000 		.4byte	.LASF66
 3759 08f4 01       		.byte	0x1
 3760 08f5 E8       		.byte	0xe8
 3761 08f6 4A060000 		.4byte	0x64a
 3762 08fa E8030000 		.4byte	.LLST28
 3763 08fe 0F       		.uleb128 0xf
ARM GAS  C:\Users\TERENC~1\AppData\Local\Temp\ccl7zEj9.s 			page 78


 3764 08ff F2020000 		.4byte	.LASF72
 3765 0903 01       		.byte	0x1
 3766 0904 E8       		.byte	0xe8
 3767 0905 44060000 		.4byte	0x644
 3768 0909 07040000 		.4byte	.LLST29
 3769 090d 11       		.uleb128 0x11
 3770 090e 72657400 		.ascii	"ret\000"
 3771 0912 01       		.byte	0x1
 3772 0913 EA       		.byte	0xea
 3773 0914 E7040000 		.4byte	0x4e7
 3774 0918 33040000 		.4byte	.LLST30
 3775 091c 10       		.uleb128 0x10
 3776 091d 2E010000 		.4byte	.LASF73
 3777 0921 01       		.byte	0x1
 3778 0922 EC       		.byte	0xec
 3779 0923 9E090000 		.4byte	0x99e
 3780 0927 52040000 		.4byte	.LLST31
 3781 092b 12       		.uleb128 0x12
 3782 092c 12000000 		.4byte	.LVL94
 3783 0930 F6180000 		.4byte	0x18f6
 3784 0934 3F090000 		.4byte	0x93f
 3785 0938 13       		.uleb128 0x13
 3786 0939 01       		.uleb128 0x1
 3787 093a 50       		.byte	0x50
 3788 093b 02       		.uleb128 0x2
 3789 093c 75       		.byte	0x75
 3790 093d 00       		.sleb128 0
 3791 093e 00       		.byte	0
 3792 093f 12       		.uleb128 0x12
 3793 0940 1C000000 		.4byte	.LVL96
 3794 0944 0C190000 		.4byte	0x190c
 3795 0948 5F090000 		.4byte	0x95f
 3796 094c 13       		.uleb128 0x13
 3797 094d 01       		.uleb128 0x1
 3798 094e 50       		.byte	0x50
 3799 094f 02       		.uleb128 0x2
 3800 0950 74       		.byte	0x74
 3801 0951 00       		.sleb128 0
 3802 0952 13       		.uleb128 0x13
 3803 0953 01       		.uleb128 0x1
 3804 0954 51       		.byte	0x51
 3805 0955 02       		.uleb128 0x2
 3806 0956 08       		.byte	0x8
 3807 0957 CC       		.byte	0xcc
 3808 0958 13       		.uleb128 0x13
 3809 0959 01       		.uleb128 0x1
 3810 095a 52       		.byte	0x52
 3811 095b 02       		.uleb128 0x2
 3812 095c 75       		.byte	0x75
 3813 095d 00       		.sleb128 0
 3814 095e 00       		.byte	0
 3815 095f 12       		.uleb128 0x12
 3816 0960 38000000 		.4byte	.LVL97
 3817 0964 11050000 		.4byte	0x511
 3818 0968 8D090000 		.4byte	0x98d
 3819 096c 13       		.uleb128 0x13
 3820 096d 01       		.uleb128 0x1
ARM GAS  C:\Users\TERENC~1\AppData\Local\Temp\ccl7zEj9.s 			page 79


 3821 096e 50       		.byte	0x50
 3822 096f 02       		.uleb128 0x2
 3823 0970 74       		.byte	0x74
 3824 0971 00       		.sleb128 0
 3825 0972 13       		.uleb128 0x13
 3826 0973 01       		.uleb128 0x1
 3827 0974 51       		.byte	0x51
 3828 0975 02       		.uleb128 0x2
 3829 0976 75       		.byte	0x75
 3830 0977 00       		.sleb128 0
 3831 0978 13       		.uleb128 0x13
 3832 0979 01       		.uleb128 0x1
 3833 097a 52       		.byte	0x52
 3834 097b 03       		.uleb128 0x3
 3835 097c 91       		.byte	0x91
 3836 097d 64       		.sleb128 -28
 3837 097e 06       		.byte	0x6
 3838 097f 13       		.uleb128 0x13
 3839 0980 01       		.uleb128 0x1
 3840 0981 53       		.byte	0x53
 3841 0982 02       		.uleb128 0x2
 3842 0983 77       		.byte	0x77
 3843 0984 00       		.sleb128 0
 3844 0985 13       		.uleb128 0x13
 3845 0986 02       		.uleb128 0x2
 3846 0987 7D       		.byte	0x7d
 3847 0988 00       		.sleb128 0
 3848 0989 02       		.uleb128 0x2
 3849 098a 76       		.byte	0x76
 3850 098b 00       		.sleb128 0
 3851 098c 00       		.byte	0
 3852 098d 16       		.uleb128 0x16
 3853 098e 40000000 		.4byte	.LVL99
 3854 0992 01190000 		.4byte	0x1901
 3855 0996 13       		.uleb128 0x13
 3856 0997 01       		.uleb128 0x1
 3857 0998 50       		.byte	0x50
 3858 0999 02       		.uleb128 0x2
 3859 099a 74       		.byte	0x74
 3860 099b 00       		.sleb128 0
 3861 099c 00       		.byte	0
 3862 099d 00       		.byte	0
 3863 099e 17       		.uleb128 0x17
 3864 099f 04       		.byte	0x4
 3865 09a0 58010000 		.4byte	0x158
 3866 09a4 1C       		.uleb128 0x1c
 3867 09a5 D7010000 		.4byte	.LASF79
 3868 09a9 01       		.byte	0x1
 3869 09aa 70       		.byte	0x70
 3870 09ab E7040000 		.4byte	0x4e7
 3871 09af 00000000 		.4byte	.LFB5
 3872 09b3 16000000 		.4byte	.LFE5-.LFB5
 3873 09b7 01       		.uleb128 0x1
 3874 09b8 9C       		.byte	0x9c
 3875 09b9 F2090000 		.4byte	0x9f2
 3876 09bd 11       		.uleb128 0x11
 3877 09be 72657400 		.ascii	"ret\000"
ARM GAS  C:\Users\TERENC~1\AppData\Local\Temp\ccl7zEj9.s 			page 80


 3878 09c2 01       		.byte	0x1
 3879 09c3 72       		.byte	0x72
 3880 09c4 E7040000 		.4byte	0x4e7
 3881 09c8 70040000 		.4byte	.LLST32
 3882 09cc 14       		.uleb128 0x14
 3883 09cd 06000000 		.4byte	.LVL103
 3884 09d1 17190000 		.4byte	0x1917
 3885 09d5 12       		.uleb128 0x12
 3886 09d6 0C000000 		.4byte	.LVL104
 3887 09da 76030000 		.4byte	0x376
 3888 09de E8090000 		.4byte	0x9e8
 3889 09e2 13       		.uleb128 0x13
 3890 09e3 01       		.uleb128 0x1
 3891 09e4 50       		.byte	0x50
 3892 09e5 01       		.uleb128 0x1
 3893 09e6 30       		.byte	0x30
 3894 09e7 00       		.byte	0
 3895 09e8 14       		.uleb128 0x14
 3896 09e9 12000000 		.4byte	.LVL106
 3897 09ed 22190000 		.4byte	0x1922
 3898 09f1 00       		.byte	0
 3899 09f2 1C       		.uleb128 0x1c
 3900 09f3 2B000000 		.4byte	.LASF80
 3901 09f7 01       		.byte	0x1
 3902 09f8 7B       		.byte	0x7b
 3903 09f9 E7040000 		.4byte	0x4e7
 3904 09fd 00000000 		.4byte	.LFB6
 3905 0a01 16000000 		.4byte	.LFE6-.LFB6
 3906 0a05 01       		.uleb128 0x1
 3907 0a06 9C       		.byte	0x9c
 3908 0a07 400A0000 		.4byte	0xa40
 3909 0a0b 11       		.uleb128 0x11
 3910 0a0c 72657400 		.ascii	"ret\000"
 3911 0a10 01       		.byte	0x1
 3912 0a11 7D       		.byte	0x7d
 3913 0a12 E7040000 		.4byte	0x4e7
 3914 0a16 83040000 		.4byte	.LLST33
 3915 0a1a 14       		.uleb128 0x14
 3916 0a1b 06000000 		.4byte	.LVL108
 3917 0a1f 17190000 		.4byte	0x1917
 3918 0a23 12       		.uleb128 0x12
 3919 0a24 0C000000 		.4byte	.LVL109
 3920 0a28 76030000 		.4byte	0x376
 3921 0a2c 360A0000 		.4byte	0xa36
 3922 0a30 13       		.uleb128 0x13
 3923 0a31 01       		.uleb128 0x1
 3924 0a32 50       		.byte	0x50
 3925 0a33 01       		.uleb128 0x1
 3926 0a34 31       		.byte	0x31
 3927 0a35 00       		.byte	0
 3928 0a36 14       		.uleb128 0x14
 3929 0a37 12000000 		.4byte	.LVL111
 3930 0a3b 22190000 		.4byte	0x1922
 3931 0a3f 00       		.byte	0
 3932 0a40 1C       		.uleb128 0x1c
 3933 0a41 D7060000 		.4byte	.LASF81
 3934 0a45 01       		.byte	0x1
ARM GAS  C:\Users\TERENC~1\AppData\Local\Temp\ccl7zEj9.s 			page 81


 3935 0a46 86       		.byte	0x86
 3936 0a47 97000000 		.4byte	0x97
 3937 0a4b 00000000 		.4byte	.LFB7
 3938 0a4f 5C000000 		.4byte	.LFE7-.LFB7
 3939 0a53 01       		.uleb128 0x1
 3940 0a54 9C       		.byte	0x9c
 3941 0a55 C20A0000 		.4byte	0xac2
 3942 0a59 11       		.uleb128 0x11
 3943 0a5a 737700   		.ascii	"sw\000"
 3944 0a5d 01       		.byte	0x1
 3945 0a5e 88       		.byte	0x88
 3946 0a5f 97000000 		.4byte	0x97
 3947 0a63 96040000 		.4byte	.LLST34
 3948 0a67 1D       		.uleb128 0x1d
 3949 0a68 95040000 		.4byte	.LASF82
 3950 0a6c 01       		.byte	0x1
 3951 0a6d 89       		.byte	0x89
 3952 0a6e C20A0000 		.4byte	0xac2
 3953 0a72 02       		.uleb128 0x2
 3954 0a73 91       		.byte	0x91
 3955 0a74 74       		.sleb128 -12
 3956 0a75 10       		.uleb128 0x10
 3957 0a76 74050000 		.4byte	.LASF57
 3958 0a7a 01       		.byte	0x1
 3959 0a7b 8A       		.byte	0x8a
 3960 0a7c A2000000 		.4byte	0xa2
 3961 0a80 D7040000 		.4byte	.LLST35
 3962 0a84 12       		.uleb128 0x12
 3963 0a85 14000000 		.4byte	.LVL114
 3964 0a89 D2180000 		.4byte	0x18d2
 3965 0a8d 9D0A0000 		.4byte	0xa9d
 3966 0a91 13       		.uleb128 0x13
 3967 0a92 01       		.uleb128 0x1
 3968 0a93 50       		.byte	0x50
 3969 0a94 02       		.uleb128 0x2
 3970 0a95 91       		.byte	0x91
 3971 0a96 74       		.sleb128 -12
 3972 0a97 13       		.uleb128 0x13
 3973 0a98 01       		.uleb128 0x1
 3974 0a99 51       		.byte	0x51
 3975 0a9a 01       		.uleb128 0x1
 3976 0a9b 32       		.byte	0x32
 3977 0a9c 00       		.byte	0
 3978 0a9d 14       		.uleb128 0x14
 3979 0a9e 1C000000 		.4byte	.LVL116
 3980 0aa2 DE180000 		.4byte	0x18de
 3981 0aa6 14       		.uleb128 0x14
 3982 0aa7 38000000 		.4byte	.LVL121
 3983 0aab 9B180000 		.4byte	0x189b
 3984 0aaf 14       		.uleb128 0x14
 3985 0ab0 46000000 		.4byte	.LVL125
 3986 0ab4 DE180000 		.4byte	0x18de
 3987 0ab8 14       		.uleb128 0x14
 3988 0ab9 4E000000 		.4byte	.LVL126
 3989 0abd EA180000 		.4byte	0x18ea
 3990 0ac1 00       		.byte	0
 3991 0ac2 09       		.uleb128 0x9
ARM GAS  C:\Users\TERENC~1\AppData\Local\Temp\ccl7zEj9.s 			page 82


 3992 0ac3 8C000000 		.4byte	0x8c
 3993 0ac7 D20A0000 		.4byte	0xad2
 3994 0acb 0A       		.uleb128 0xa
 3995 0acc 1F010000 		.4byte	0x11f
 3996 0ad0 01       		.byte	0x1
 3997 0ad1 00       		.byte	0
 3998 0ad2 0E       		.uleb128 0xe
 3999 0ad3 F3010000 		.4byte	.LASF83
 4000 0ad7 01       		.byte	0x1
 4001 0ad8 1A       		.byte	0x1a
 4002 0ad9 E7040000 		.4byte	0x4e7
 4003 0add 00000000 		.4byte	.LFB2
 4004 0ae1 30000000 		.4byte	.LFE2-.LFB2
 4005 0ae5 01       		.uleb128 0x1
 4006 0ae6 9C       		.byte	0x9c
 4007 0ae7 310B0000 		.4byte	0xb31
 4008 0aeb 0F       		.uleb128 0xf
 4009 0aec 06050000 		.4byte	.LASF84
 4010 0af0 01       		.byte	0x1
 4011 0af1 1A       		.byte	0x1a
 4012 0af2 97000000 		.4byte	0x97
 4013 0af6 F5040000 		.4byte	.LLST36
 4014 0afa 0F       		.uleb128 0xf
 4015 0afb 08060000 		.4byte	.LASF85
 4016 0aff 01       		.byte	0x1
 4017 0b00 1A       		.byte	0x1a
 4018 0b01 A2000000 		.4byte	0xa2
 4019 0b05 16050000 		.4byte	.LLST37
 4020 0b09 0F       		.uleb128 0xf
 4021 0b0a C6030000 		.4byte	.LASF66
 4022 0b0e 01       		.byte	0x1
 4023 0b0f 1A       		.byte	0x1a
 4024 0b10 4A060000 		.4byte	0x64a
 4025 0b14 42050000 		.4byte	.LLST38
 4026 0b18 10       		.uleb128 0x10
 4027 0b19 74050000 		.4byte	.LASF57
 4028 0b1d 01       		.byte	0x1
 4029 0b1e 1C       		.byte	0x1c
 4030 0b1f A2000000 		.4byte	0xa2
 4031 0b23 6E050000 		.4byte	.LLST39
 4032 0b27 14       		.uleb128 0x14
 4033 0b28 10000000 		.4byte	.LVL130
 4034 0b2c 400A0000 		.4byte	0xa40
 4035 0b30 00       		.byte	0
 4036 0b31 1A       		.uleb128 0x1a
 4037 0b32 9E040000 		.4byte	.LASF86
 4038 0b36 01       		.byte	0x1
 4039 0b37 2C01     		.2byte	0x12c
 4040 0b39 E7040000 		.4byte	0x4e7
 4041 0b3d 00000000 		.4byte	.LFB13
 4042 0b41 D8000000 		.4byte	.LFE13-.LFB13
 4043 0b45 01       		.uleb128 0x1
 4044 0b46 9C       		.byte	0x9c
 4045 0b47 910C0000 		.4byte	0xc91
 4046 0b4b 1B       		.uleb128 0x1b
 4047 0b4c 2F040000 		.4byte	.LASF87
 4048 0b50 01       		.byte	0x1
ARM GAS  C:\Users\TERENC~1\AppData\Local\Temp\ccl7zEj9.s 			page 83


 4049 0b51 2C01     		.2byte	0x12c
 4050 0b53 97000000 		.4byte	0x97
 4051 0b57 81050000 		.4byte	.LLST40
 4052 0b5b 1B       		.uleb128 0x1b
 4053 0b5c 7A050000 		.4byte	.LASF88
 4054 0b60 01       		.byte	0x1
 4055 0b61 2C01     		.2byte	0x12c
 4056 0b63 97000000 		.4byte	0x97
 4057 0b67 A2050000 		.4byte	.LLST41
 4058 0b6b 1B       		.uleb128 0x1b
 4059 0b6c 97060000 		.4byte	.LASF89
 4060 0b70 01       		.byte	0x1
 4061 0b71 2C01     		.2byte	0x12c
 4062 0b73 97000000 		.4byte	0x97
 4063 0b77 C3050000 		.4byte	.LLST42
 4064 0b7b 18       		.uleb128 0x18
 4065 0b7c 72657400 		.ascii	"ret\000"
 4066 0b80 01       		.byte	0x1
 4067 0b81 2E01     		.2byte	0x12e
 4068 0b83 E7040000 		.4byte	0x4e7
 4069 0b87 E4050000 		.4byte	.LLST43
 4070 0b8b 1E       		.uleb128 0x1e
 4071 0b8c 737700   		.ascii	"sw\000"
 4072 0b8f 01       		.byte	0x1
 4073 0b90 2F01     		.2byte	0x12f
 4074 0b92 97000000 		.4byte	0x97
 4075 0b96 02       		.uleb128 0x2
 4076 0b97 91       		.byte	0x91
 4077 0b98 66       		.sleb128 -26
 4078 0b99 19       		.uleb128 0x19
 4079 0b9a 2E010000 		.4byte	.LASF73
 4080 0b9e 01       		.byte	0x1
 4081 0b9f 3001     		.2byte	0x130
 4082 0ba1 910C0000 		.4byte	0xc91
 4083 0ba5 03060000 		.4byte	.LLST44
 4084 0ba9 1F       		.uleb128 0x1f
 4085 0baa B9030000 		.4byte	.LASF91
 4086 0bae A70C0000 		.4byte	0xca7
 4087 0bb2 05       		.uleb128 0x5
 4088 0bb3 03       		.byte	0x3
 4089 0bb4 00000000 		.4byte	__FUNCTION__.6921
 4090 0bb8 15       		.uleb128 0x15
 4091 0bb9 80000000 		.4byte	.LBB3
 4092 0bbd 34000000 		.4byte	.LBE3-.LBB3
 4093 0bc1 1A0C0000 		.4byte	0xc1a
 4094 0bc5 18       		.uleb128 0x18
 4095 0bc6 733100   		.ascii	"s1\000"
 4096 0bc9 01       		.byte	0x1
 4097 0bca 3D01     		.2byte	0x13d
 4098 0bcc A2000000 		.4byte	0xa2
 4099 0bd0 2C060000 		.4byte	.LLST45
 4100 0bd4 14       		.uleb128 0x14
 4101 0bd5 88000000 		.4byte	.LVL146
 4102 0bd9 A7180000 		.4byte	0x18a7
 4103 0bdd 12       		.uleb128 0x12
 4104 0bde AE000000 		.4byte	.LVL148
 4105 0be2 2D190000 		.4byte	0x192d
ARM GAS  C:\Users\TERENC~1\AppData\Local\Temp\ccl7zEj9.s 			page 84


 4106 0be6 090C0000 		.4byte	0xc09
 4107 0bea 13       		.uleb128 0x13
 4108 0beb 01       		.uleb128 0x1
 4109 0bec 50       		.byte	0x50
 4110 0bed 02       		.uleb128 0x2
 4111 0bee 75       		.byte	0x75
 4112 0bef 00       		.sleb128 0
 4113 0bf0 13       		.uleb128 0x13
 4114 0bf1 01       		.uleb128 0x1
 4115 0bf2 51       		.byte	0x51
 4116 0bf3 05       		.uleb128 0x5
 4117 0bf4 03       		.byte	0x3
 4118 0bf5 44000000 		.4byte	.LC9
 4119 0bf9 13       		.uleb128 0x13
 4120 0bfa 01       		.uleb128 0x1
 4121 0bfb 52       		.byte	0x52
 4122 0bfc 05       		.uleb128 0x5
 4123 0bfd 03       		.byte	0x3
 4124 0bfe 00000000 		.4byte	.LANCHOR0
 4125 0c02 13       		.uleb128 0x13
 4126 0c03 01       		.uleb128 0x1
 4127 0c04 53       		.byte	0x53
 4128 0c05 02       		.uleb128 0x2
 4129 0c06 74       		.byte	0x74
 4130 0c07 00       		.sleb128 0
 4131 0c08 00       		.byte	0
 4132 0c09 16       		.uleb128 0x16
 4133 0c0a B4000000 		.4byte	.LVL149
 4134 0c0e BB180000 		.4byte	0x18bb
 4135 0c12 13       		.uleb128 0x13
 4136 0c13 01       		.uleb128 0x1
 4137 0c14 50       		.byte	0x50
 4138 0c15 02       		.uleb128 0x2
 4139 0c16 75       		.byte	0x75
 4140 0c17 00       		.sleb128 0
 4141 0c18 00       		.byte	0
 4142 0c19 00       		.byte	0
 4143 0c1a 12       		.uleb128 0x12
 4144 0c1b 10000000 		.4byte	.LVL137
 4145 0c1f F6180000 		.4byte	0x18f6
 4146 0c23 2D0C0000 		.4byte	0xc2d
 4147 0c27 13       		.uleb128 0x13
 4148 0c28 01       		.uleb128 0x1
 4149 0c29 50       		.byte	0x50
 4150 0c2a 01       		.uleb128 0x1
 4151 0c2b 3A       		.byte	0x3a
 4152 0c2c 00       		.byte	0
 4153 0c2d 12       		.uleb128 0x12
 4154 0c2e 5A000000 		.4byte	.LVL140
 4155 0c32 50060000 		.4byte	0x650
 4156 0c36 510C0000 		.4byte	0xc51
 4157 0c3a 13       		.uleb128 0x13
 4158 0c3b 01       		.uleb128 0x1
 4159 0c3c 50       		.byte	0x50
 4160 0c3d 01       		.uleb128 0x1
 4161 0c3e 37       		.byte	0x37
 4162 0c3f 13       		.uleb128 0x13
ARM GAS  C:\Users\TERENC~1\AppData\Local\Temp\ccl7zEj9.s 			page 85


 4163 0c40 01       		.uleb128 0x1
 4164 0c41 51       		.byte	0x51
 4165 0c42 01       		.uleb128 0x1
 4166 0c43 3A       		.byte	0x3a
 4167 0c44 13       		.uleb128 0x13
 4168 0c45 01       		.uleb128 0x1
 4169 0c46 52       		.byte	0x52
 4170 0c47 02       		.uleb128 0x2
 4171 0c48 76       		.byte	0x76
 4172 0c49 00       		.sleb128 0
 4173 0c4a 13       		.uleb128 0x13
 4174 0c4b 01       		.uleb128 0x1
 4175 0c4c 53       		.byte	0x53
 4176 0c4d 02       		.uleb128 0x2
 4177 0c4e 91       		.byte	0x91
 4178 0c4f 66       		.sleb128 -26
 4179 0c50 00       		.byte	0
 4180 0c51 12       		.uleb128 0x12
 4181 0c52 62000000 		.4byte	.LVL142
 4182 0c56 01190000 		.4byte	0x1901
 4183 0c5a 650C0000 		.4byte	0xc65
 4184 0c5e 13       		.uleb128 0x13
 4185 0c5f 01       		.uleb128 0x1
 4186 0c60 50       		.byte	0x50
 4187 0c61 02       		.uleb128 0x2
 4188 0c62 76       		.byte	0x76
 4189 0c63 00       		.sleb128 0
 4190 0c64 00       		.byte	0
 4191 0c65 12       		.uleb128 0x12
 4192 0c66 74000000 		.4byte	.LVL143
 4193 0c6a D20A0000 		.4byte	0xad2
 4194 0c6e 870C0000 		.4byte	0xc87
 4195 0c72 13       		.uleb128 0x13
 4196 0c73 01       		.uleb128 0x1
 4197 0c74 50       		.byte	0x50
 4198 0c75 03       		.uleb128 0x3
 4199 0c76 0B       		.byte	0xb
 4200 0c77 0B80     		.2byte	0x800b
 4201 0c79 13       		.uleb128 0x13
 4202 0c7a 01       		.uleb128 0x1
 4203 0c7b 51       		.byte	0x51
 4204 0c7c 03       		.uleb128 0x3
 4205 0c7d 0A       		.byte	0xa
 4206 0c7e E803     		.2byte	0x3e8
 4207 0c80 13       		.uleb128 0x13
 4208 0c81 01       		.uleb128 0x1
 4209 0c82 52       		.byte	0x52
 4210 0c83 02       		.uleb128 0x2
 4211 0c84 91       		.byte	0x91
 4212 0c85 66       		.sleb128 -26
 4213 0c86 00       		.byte	0
 4214 0c87 14       		.uleb128 0x14
 4215 0c88 7C000000 		.4byte	.LVL144
 4216 0c8c C6180000 		.4byte	0x18c6
 4217 0c90 00       		.byte	0
 4218 0c91 17       		.uleb128 0x17
 4219 0c92 04       		.byte	0x4
ARM GAS  C:\Users\TERENC~1\AppData\Local\Temp\ccl7zEj9.s 			page 86


 4220 0c93 2A020000 		.4byte	0x22a
 4221 0c97 09       		.uleb128 0x9
 4222 0c98 71030000 		.4byte	0x371
 4223 0c9c A70C0000 		.4byte	0xca7
 4224 0ca0 0A       		.uleb128 0xa
 4225 0ca1 1F010000 		.4byte	0x11f
 4226 0ca5 19       		.byte	0x19
 4227 0ca6 00       		.byte	0
 4228 0ca7 0D       		.uleb128 0xd
 4229 0ca8 970C0000 		.4byte	0xc97
 4230 0cac 20       		.uleb128 0x20
 4231 0cad B9060000 		.4byte	.LASF90
 4232 0cb1 01       		.byte	0x1
 4233 0cb2 4401     		.2byte	0x144
 4234 0cb4 E7040000 		.4byte	0x4e7
 4235 0cb8 00000000 		.4byte	.LFB14
 4236 0cbc 98000000 		.4byte	.LFE14-.LFB14
 4237 0cc0 01       		.uleb128 0x1
 4238 0cc1 9C       		.byte	0x9c
 4239 0cc2 B40D0000 		.4byte	0xdb4
 4240 0cc6 18       		.uleb128 0x18
 4241 0cc7 72657400 		.ascii	"ret\000"
 4242 0ccb 01       		.byte	0x1
 4243 0ccc 4601     		.2byte	0x146
 4244 0cce E7040000 		.4byte	0x4e7
 4245 0cd2 3F060000 		.4byte	.LLST46
 4246 0cd6 1E       		.uleb128 0x1e
 4247 0cd7 6B657900 		.ascii	"key\000"
 4248 0cdb 01       		.byte	0x1
 4249 0cdc 4701     		.2byte	0x147
 4250 0cde A2000000 		.4byte	0xa2
 4251 0ce2 02       		.uleb128 0x2
 4252 0ce3 91       		.byte	0x91
 4253 0ce4 6C       		.sleb128 -20
 4254 0ce5 1E       		.uleb128 0x1e
 4255 0ce6 737700   		.ascii	"sw\000"
 4256 0ce9 01       		.byte	0x1
 4257 0cea 4801     		.2byte	0x148
 4258 0cec 97000000 		.4byte	0x97
 4259 0cf0 02       		.uleb128 0x2
 4260 0cf1 91       		.byte	0x91
 4261 0cf2 6A       		.sleb128 -22
 4262 0cf3 1F       		.uleb128 0x1f
 4263 0cf4 B9030000 		.4byte	.LASF91
 4264 0cf8 C40D0000 		.4byte	0xdc4
 4265 0cfc 05       		.uleb128 0x5
 4266 0cfd 03       		.byte	0x3
 4267 0cfe 1C000000 		.4byte	__FUNCTION__.6932
 4268 0d02 15       		.uleb128 0x15
 4269 0d03 38000000 		.4byte	.LBB4
 4270 0d07 36000000 		.4byte	.LBE4-.LBB4
 4271 0d0b 640D0000 		.4byte	0xd64
 4272 0d0f 18       		.uleb128 0x18
 4273 0d10 733100   		.ascii	"s1\000"
 4274 0d13 01       		.byte	0x1
 4275 0d14 4E01     		.2byte	0x14e
 4276 0d16 A2000000 		.4byte	0xa2
ARM GAS  C:\Users\TERENC~1\AppData\Local\Temp\ccl7zEj9.s 			page 87


 4277 0d1a 5E060000 		.4byte	.LLST47
 4278 0d1e 14       		.uleb128 0x14
 4279 0d1f 40000000 		.4byte	.LVL159
 4280 0d23 A7180000 		.4byte	0x18a7
 4281 0d27 12       		.uleb128 0x12
 4282 0d28 68000000 		.4byte	.LVL161
 4283 0d2c 2D190000 		.4byte	0x192d
 4284 0d30 530D0000 		.4byte	0xd53
 4285 0d34 13       		.uleb128 0x13
 4286 0d35 01       		.uleb128 0x1
 4287 0d36 50       		.byte	0x50
 4288 0d37 02       		.uleb128 0x2
 4289 0d38 75       		.byte	0x75
 4290 0d39 00       		.sleb128 0
 4291 0d3a 13       		.uleb128 0x13
 4292 0d3b 01       		.uleb128 0x1
 4293 0d3c 51       		.byte	0x51
 4294 0d3d 05       		.uleb128 0x5
 4295 0d3e 03       		.byte	0x3
 4296 0d3f 44000000 		.4byte	.LC9
 4297 0d43 13       		.uleb128 0x13
 4298 0d44 01       		.uleb128 0x1
 4299 0d45 52       		.byte	0x52
 4300 0d46 05       		.uleb128 0x5
 4301 0d47 03       		.byte	0x3
 4302 0d48 1C000000 		.4byte	.LANCHOR0+28
 4303 0d4c 13       		.uleb128 0x13
 4304 0d4d 01       		.uleb128 0x1
 4305 0d4e 53       		.byte	0x53
 4306 0d4f 02       		.uleb128 0x2
 4307 0d50 74       		.byte	0x74
 4308 0d51 00       		.sleb128 0
 4309 0d52 00       		.byte	0
 4310 0d53 16       		.uleb128 0x16
 4311 0d54 6E000000 		.4byte	.LVL162
 4312 0d58 BB180000 		.4byte	0x18bb
 4313 0d5c 13       		.uleb128 0x13
 4314 0d5d 01       		.uleb128 0x1
 4315 0d5e 50       		.byte	0x50
 4316 0d5f 02       		.uleb128 0x2
 4317 0d60 75       		.byte	0x75
 4318 0d61 00       		.sleb128 0
 4319 0d62 00       		.byte	0
 4320 0d63 00       		.byte	0
 4321 0d64 12       		.uleb128 0x12
 4322 0d65 1A000000 		.4byte	.LVL153
 4323 0d69 50060000 		.4byte	0x650
 4324 0d6d 880D0000 		.4byte	0xd88
 4325 0d71 13       		.uleb128 0x13
 4326 0d72 01       		.uleb128 0x1
 4327 0d73 50       		.byte	0x50
 4328 0d74 01       		.uleb128 0x1
 4329 0d75 30       		.byte	0x30
 4330 0d76 13       		.uleb128 0x13
 4331 0d77 01       		.uleb128 0x1
 4332 0d78 51       		.byte	0x51
 4333 0d79 01       		.uleb128 0x1
ARM GAS  C:\Users\TERENC~1\AppData\Local\Temp\ccl7zEj9.s 			page 88


 4334 0d7a 34       		.byte	0x34
 4335 0d7b 13       		.uleb128 0x13
 4336 0d7c 01       		.uleb128 0x1
 4337 0d7d 52       		.byte	0x52
 4338 0d7e 02       		.uleb128 0x2
 4339 0d7f 91       		.byte	0x91
 4340 0d80 6C       		.sleb128 -20
 4341 0d81 13       		.uleb128 0x13
 4342 0d82 01       		.uleb128 0x1
 4343 0d83 53       		.byte	0x53
 4344 0d84 02       		.uleb128 0x2
 4345 0d85 91       		.byte	0x91
 4346 0d86 6A       		.sleb128 -22
 4347 0d87 00       		.byte	0
 4348 0d88 12       		.uleb128 0x12
 4349 0d89 2C000000 		.4byte	.LVL156
 4350 0d8d D20A0000 		.4byte	0xad2
 4351 0d91 AA0D0000 		.4byte	0xdaa
 4352 0d95 13       		.uleb128 0x13
 4353 0d96 01       		.uleb128 0x1
 4354 0d97 50       		.byte	0x50
 4355 0d98 03       		.uleb128 0x3
 4356 0d99 0B       		.byte	0xb
 4357 0d9a 2080     		.2byte	0x8020
 4358 0d9c 13       		.uleb128 0x13
 4359 0d9d 01       		.uleb128 0x1
 4360 0d9e 51       		.byte	0x51
 4361 0d9f 03       		.uleb128 0x3
 4362 0da0 0A       		.byte	0xa
 4363 0da1 E803     		.2byte	0x3e8
 4364 0da3 13       		.uleb128 0x13
 4365 0da4 01       		.uleb128 0x1
 4366 0da5 52       		.byte	0x52
 4367 0da6 02       		.uleb128 0x2
 4368 0da7 91       		.byte	0x91
 4369 0da8 6A       		.sleb128 -22
 4370 0da9 00       		.byte	0
 4371 0daa 14       		.uleb128 0x14
 4372 0dab 34000000 		.4byte	.LVL157
 4373 0daf C6180000 		.4byte	0x18c6
 4374 0db3 00       		.byte	0
 4375 0db4 09       		.uleb128 0x9
 4376 0db5 71030000 		.4byte	0x371
 4377 0db9 C40D0000 		.4byte	0xdc4
 4378 0dbd 0A       		.uleb128 0xa
 4379 0dbe 1F010000 		.4byte	0x11f
 4380 0dc2 14       		.byte	0x14
 4381 0dc3 00       		.byte	0
 4382 0dc4 0D       		.uleb128 0xd
 4383 0dc5 B40D0000 		.4byte	0xdb4
 4384 0dc9 20       		.uleb128 0x20
 4385 0dca 8C050000 		.4byte	.LASF92
 4386 0dce 01       		.byte	0x1
 4387 0dcf 5501     		.2byte	0x155
 4388 0dd1 E7040000 		.4byte	0x4e7
 4389 0dd5 00000000 		.4byte	.LFB15
 4390 0dd9 98000000 		.4byte	.LFE15-.LFB15
ARM GAS  C:\Users\TERENC~1\AppData\Local\Temp\ccl7zEj9.s 			page 89


 4391 0ddd 01       		.uleb128 0x1
 4392 0dde 9C       		.byte	0x9c
 4393 0ddf D10E0000 		.4byte	0xed1
 4394 0de3 18       		.uleb128 0x18
 4395 0de4 72657400 		.ascii	"ret\000"
 4396 0de8 01       		.byte	0x1
 4397 0de9 5701     		.2byte	0x157
 4398 0deb E7040000 		.4byte	0x4e7
 4399 0def 71060000 		.4byte	.LLST48
 4400 0df3 1E       		.uleb128 0x1e
 4401 0df4 6B657900 		.ascii	"key\000"
 4402 0df8 01       		.byte	0x1
 4403 0df9 5801     		.2byte	0x158
 4404 0dfb A2000000 		.4byte	0xa2
 4405 0dff 02       		.uleb128 0x2
 4406 0e00 91       		.byte	0x91
 4407 0e01 6C       		.sleb128 -20
 4408 0e02 1E       		.uleb128 0x1e
 4409 0e03 737700   		.ascii	"sw\000"
 4410 0e06 01       		.byte	0x1
 4411 0e07 5901     		.2byte	0x159
 4412 0e09 97000000 		.4byte	0x97
 4413 0e0d 02       		.uleb128 0x2
 4414 0e0e 91       		.byte	0x91
 4415 0e0f 6A       		.sleb128 -22
 4416 0e10 1F       		.uleb128 0x1f
 4417 0e11 B9030000 		.4byte	.LASF91
 4418 0e15 D10E0000 		.4byte	0xed1
 4419 0e19 05       		.uleb128 0x5
 4420 0e1a 03       		.byte	0x3
 4421 0e1b 34000000 		.4byte	__FUNCTION__.6943
 4422 0e1f 15       		.uleb128 0x15
 4423 0e20 38000000 		.4byte	.LBB5
 4424 0e24 36000000 		.4byte	.LBE5-.LBB5
 4425 0e28 810E0000 		.4byte	0xe81
 4426 0e2c 18       		.uleb128 0x18
 4427 0e2d 733100   		.ascii	"s1\000"
 4428 0e30 01       		.byte	0x1
 4429 0e31 5F01     		.2byte	0x15f
 4430 0e33 A2000000 		.4byte	0xa2
 4431 0e37 90060000 		.4byte	.LLST49
 4432 0e3b 14       		.uleb128 0x14
 4433 0e3c 40000000 		.4byte	.LVL170
 4434 0e40 A7180000 		.4byte	0x18a7
 4435 0e44 12       		.uleb128 0x12
 4436 0e45 68000000 		.4byte	.LVL172
 4437 0e49 2D190000 		.4byte	0x192d
 4438 0e4d 700E0000 		.4byte	0xe70
 4439 0e51 13       		.uleb128 0x13
 4440 0e52 01       		.uleb128 0x1
 4441 0e53 50       		.byte	0x50
 4442 0e54 02       		.uleb128 0x2
 4443 0e55 75       		.byte	0x75
 4444 0e56 00       		.sleb128 0
 4445 0e57 13       		.uleb128 0x13
 4446 0e58 01       		.uleb128 0x1
 4447 0e59 51       		.byte	0x51
ARM GAS  C:\Users\TERENC~1\AppData\Local\Temp\ccl7zEj9.s 			page 90


 4448 0e5a 05       		.uleb128 0x5
 4449 0e5b 03       		.byte	0x3
 4450 0e5c 44000000 		.4byte	.LC9
 4451 0e60 13       		.uleb128 0x13
 4452 0e61 01       		.uleb128 0x1
 4453 0e62 52       		.byte	0x52
 4454 0e63 05       		.uleb128 0x5
 4455 0e64 03       		.byte	0x3
 4456 0e65 34000000 		.4byte	.LANCHOR0+52
 4457 0e69 13       		.uleb128 0x13
 4458 0e6a 01       		.uleb128 0x1
 4459 0e6b 53       		.byte	0x53
 4460 0e6c 02       		.uleb128 0x2
 4461 0e6d 74       		.byte	0x74
 4462 0e6e 00       		.sleb128 0
 4463 0e6f 00       		.byte	0
 4464 0e70 16       		.uleb128 0x16
 4465 0e71 6E000000 		.4byte	.LVL173
 4466 0e75 BB180000 		.4byte	0x18bb
 4467 0e79 13       		.uleb128 0x13
 4468 0e7a 01       		.uleb128 0x1
 4469 0e7b 50       		.byte	0x50
 4470 0e7c 02       		.uleb128 0x2
 4471 0e7d 75       		.byte	0x75
 4472 0e7e 00       		.sleb128 0
 4473 0e7f 00       		.byte	0
 4474 0e80 00       		.byte	0
 4475 0e81 12       		.uleb128 0x12
 4476 0e82 1A000000 		.4byte	.LVL164
 4477 0e86 50060000 		.4byte	0x650
 4478 0e8a A50E0000 		.4byte	0xea5
 4479 0e8e 13       		.uleb128 0x13
 4480 0e8f 01       		.uleb128 0x1
 4481 0e90 50       		.byte	0x50
 4482 0e91 01       		.uleb128 0x1
 4483 0e92 33       		.byte	0x33
 4484 0e93 13       		.uleb128 0x13
 4485 0e94 01       		.uleb128 0x1
 4486 0e95 51       		.byte	0x51
 4487 0e96 01       		.uleb128 0x1
 4488 0e97 34       		.byte	0x34
 4489 0e98 13       		.uleb128 0x13
 4490 0e99 01       		.uleb128 0x1
 4491 0e9a 52       		.byte	0x52
 4492 0e9b 02       		.uleb128 0x2
 4493 0e9c 91       		.byte	0x91
 4494 0e9d 6C       		.sleb128 -20
 4495 0e9e 13       		.uleb128 0x13
 4496 0e9f 01       		.uleb128 0x1
 4497 0ea0 53       		.byte	0x53
 4498 0ea1 02       		.uleb128 0x2
 4499 0ea2 91       		.byte	0x91
 4500 0ea3 6A       		.sleb128 -22
 4501 0ea4 00       		.byte	0
 4502 0ea5 12       		.uleb128 0x12
 4503 0ea6 2C000000 		.4byte	.LVL167
 4504 0eaa D20A0000 		.4byte	0xad2
ARM GAS  C:\Users\TERENC~1\AppData\Local\Temp\ccl7zEj9.s 			page 91


 4505 0eae C70E0000 		.4byte	0xec7
 4506 0eb2 13       		.uleb128 0x13
 4507 0eb3 01       		.uleb128 0x1
 4508 0eb4 50       		.byte	0x50
 4509 0eb5 03       		.uleb128 0x3
 4510 0eb6 0B       		.byte	0xb
 4511 0eb7 0380     		.2byte	0x8003
 4512 0eb9 13       		.uleb128 0x13
 4513 0eba 01       		.uleb128 0x1
 4514 0ebb 51       		.byte	0x51
 4515 0ebc 03       		.uleb128 0x3
 4516 0ebd 0A       		.byte	0xa
 4517 0ebe E803     		.2byte	0x3e8
 4518 0ec0 13       		.uleb128 0x13
 4519 0ec1 01       		.uleb128 0x1
 4520 0ec2 52       		.byte	0x52
 4521 0ec3 02       		.uleb128 0x2
 4522 0ec4 91       		.byte	0x91
 4523 0ec5 6A       		.sleb128 -22
 4524 0ec6 00       		.byte	0
 4525 0ec7 14       		.uleb128 0x14
 4526 0ec8 34000000 		.4byte	.LVL168
 4527 0ecc C6180000 		.4byte	0x18c6
 4528 0ed0 00       		.byte	0
 4529 0ed1 0D       		.uleb128 0xd
 4530 0ed2 B40D0000 		.4byte	0xdb4
 4531 0ed6 20       		.uleb128 0x20
 4532 0ed7 E9000000 		.4byte	.LASF93
 4533 0edb 01       		.byte	0x1
 4534 0edc 6601     		.2byte	0x166
 4535 0ede E7040000 		.4byte	0x4e7
 4536 0ee2 00000000 		.4byte	.LFB16
 4537 0ee6 38010000 		.4byte	.LFE16-.LFB16
 4538 0eea 01       		.uleb128 0x1
 4539 0eeb 9C       		.byte	0x9c
 4540 0eec A0100000 		.4byte	0x10a0
 4541 0ef0 1B       		.uleb128 0x1b
 4542 0ef1 28030000 		.4byte	.LASF94
 4543 0ef5 01       		.byte	0x1
 4544 0ef6 6601     		.2byte	0x166
 4545 0ef8 A0100000 		.4byte	0x10a0
 4546 0efc A3060000 		.4byte	.LLST50
 4547 0f00 18       		.uleb128 0x18
 4548 0f01 72657400 		.ascii	"ret\000"
 4549 0f05 01       		.byte	0x1
 4550 0f06 6801     		.2byte	0x168
 4551 0f08 E7040000 		.4byte	0x4e7
 4552 0f0c CF060000 		.4byte	.LLST51
 4553 0f10 18       		.uleb128 0x18
 4554 0f11 727600   		.ascii	"rv\000"
 4555 0f14 01       		.byte	0x1
 4556 0f15 6901     		.2byte	0x169
 4557 0f17 E7040000 		.4byte	0x4e7
 4558 0f1b 0F070000 		.4byte	.LLST52
 4559 0f1f 1E       		.uleb128 0x1e
 4560 0f20 737700   		.ascii	"sw\000"
 4561 0f23 01       		.byte	0x1
ARM GAS  C:\Users\TERENC~1\AppData\Local\Temp\ccl7zEj9.s 			page 92


 4562 0f24 6A01     		.2byte	0x16a
 4563 0f26 97000000 		.4byte	0x97
 4564 0f2a 02       		.uleb128 0x2
 4565 0f2b 91       		.byte	0x91
 4566 0f2c 66       		.sleb128 -26
 4567 0f2d 19       		.uleb128 0x19
 4568 0f2e 2E010000 		.4byte	.LASF73
 4569 0f32 01       		.byte	0x1
 4570 0f33 6C01     		.2byte	0x16c
 4571 0f35 A6100000 		.4byte	0x10a6
 4572 0f39 2E070000 		.4byte	.LLST53
 4573 0f3d 1F       		.uleb128 0x1f
 4574 0f3e B9030000 		.4byte	.LASF91
 4575 0f42 BC100000 		.4byte	0x10bc
 4576 0f46 05       		.uleb128 0x5
 4577 0f47 03       		.byte	0x3
 4578 0f48 4C000000 		.4byte	__FUNCTION__.6955
 4579 0f4c 15       		.uleb128 0x15
 4580 0f4d 7C000000 		.4byte	.LBB6
 4581 0f51 36000000 		.4byte	.LBE6-.LBB6
 4582 0f55 AE0F0000 		.4byte	0xfae
 4583 0f59 18       		.uleb128 0x18
 4584 0f5a 733100   		.ascii	"s1\000"
 4585 0f5d 01       		.byte	0x1
 4586 0f5e 7601     		.2byte	0x176
 4587 0f60 A2000000 		.4byte	0xa2
 4588 0f64 57070000 		.4byte	.LLST54
 4589 0f68 14       		.uleb128 0x14
 4590 0f69 84000000 		.4byte	.LVL186
 4591 0f6d A7180000 		.4byte	0x18a7
 4592 0f71 12       		.uleb128 0x12
 4593 0f72 AC000000 		.4byte	.LVL188
 4594 0f76 2D190000 		.4byte	0x192d
 4595 0f7a 9D0F0000 		.4byte	0xf9d
 4596 0f7e 13       		.uleb128 0x13
 4597 0f7f 01       		.uleb128 0x1
 4598 0f80 50       		.byte	0x50
 4599 0f81 02       		.uleb128 0x2
 4600 0f82 76       		.byte	0x76
 4601 0f83 00       		.sleb128 0
 4602 0f84 13       		.uleb128 0x13
 4603 0f85 01       		.uleb128 0x1
 4604 0f86 51       		.byte	0x51
 4605 0f87 05       		.uleb128 0x5
 4606 0f88 03       		.byte	0x3
 4607 0f89 44000000 		.4byte	.LC9
 4608 0f8d 13       		.uleb128 0x13
 4609 0f8e 01       		.uleb128 0x1
 4610 0f8f 52       		.byte	0x52
 4611 0f90 05       		.uleb128 0x5
 4612 0f91 03       		.byte	0x3
 4613 0f92 4C000000 		.4byte	.LANCHOR0+76
 4614 0f96 13       		.uleb128 0x13
 4615 0f97 01       		.uleb128 0x1
 4616 0f98 53       		.byte	0x53
 4617 0f99 02       		.uleb128 0x2
 4618 0f9a 75       		.byte	0x75
ARM GAS  C:\Users\TERENC~1\AppData\Local\Temp\ccl7zEj9.s 			page 93


 4619 0f9b 00       		.sleb128 0
 4620 0f9c 00       		.byte	0
 4621 0f9d 16       		.uleb128 0x16
 4622 0f9e B2000000 		.4byte	.LVL189
 4623 0fa2 BB180000 		.4byte	0x18bb
 4624 0fa6 13       		.uleb128 0x13
 4625 0fa7 01       		.uleb128 0x1
 4626 0fa8 50       		.byte	0x50
 4627 0fa9 02       		.uleb128 0x2
 4628 0faa 76       		.byte	0x76
 4629 0fab 00       		.sleb128 0
 4630 0fac 00       		.byte	0
 4631 0fad 00       		.byte	0
 4632 0fae 15       		.uleb128 0x15
 4633 0faf D8000000 		.4byte	.LBB7
 4634 0fb3 3A000000 		.4byte	.LBE7-.LBB7
 4635 0fb7 01100000 		.4byte	0x1001
 4636 0fbb 18       		.uleb128 0x18
 4637 0fbc 733100   		.ascii	"s1\000"
 4638 0fbf 01       		.byte	0x1
 4639 0fc0 7F01     		.2byte	0x17f
 4640 0fc2 A2000000 		.4byte	0xa2
 4641 0fc6 6A070000 		.4byte	.LLST55
 4642 0fca 14       		.uleb128 0x14
 4643 0fcb E0000000 		.4byte	.LVL198
 4644 0fcf A7180000 		.4byte	0x18a7
 4645 0fd3 12       		.uleb128 0x12
 4646 0fd4 0C010000 		.4byte	.LVL200
 4647 0fd8 2D190000 		.4byte	0x192d
 4648 0fdc F00F0000 		.4byte	0xff0
 4649 0fe0 13       		.uleb128 0x13
 4650 0fe1 01       		.uleb128 0x1
 4651 0fe2 50       		.byte	0x50
 4652 0fe3 02       		.uleb128 0x2
 4653 0fe4 76       		.byte	0x76
 4654 0fe5 00       		.sleb128 0
 4655 0fe6 13       		.uleb128 0x13
 4656 0fe7 01       		.uleb128 0x1
 4657 0fe8 51       		.byte	0x51
 4658 0fe9 05       		.uleb128 0x5
 4659 0fea 03       		.byte	0x3
 4660 0feb 68000000 		.4byte	.LC25
 4661 0fef 00       		.byte	0
 4662 0ff0 16       		.uleb128 0x16
 4663 0ff1 12010000 		.4byte	.LVL201
 4664 0ff5 BB180000 		.4byte	0x18bb
 4665 0ff9 13       		.uleb128 0x13
 4666 0ffa 01       		.uleb128 0x1
 4667 0ffb 50       		.byte	0x50
 4668 0ffc 02       		.uleb128 0x2
 4669 0ffd 76       		.byte	0x76
 4670 0ffe 00       		.sleb128 0
 4671 0fff 00       		.byte	0
 4672 1000 00       		.byte	0
 4673 1001 12       		.uleb128 0x12
 4674 1002 0C000000 		.4byte	.LVL177
 4675 1006 F6180000 		.4byte	0x18f6
ARM GAS  C:\Users\TERENC~1\AppData\Local\Temp\ccl7zEj9.s 			page 94


 4676 100a 14100000 		.4byte	0x1014
 4677 100e 13       		.uleb128 0x13
 4678 100f 01       		.uleb128 0x1
 4679 1010 50       		.byte	0x50
 4680 1011 01       		.uleb128 0x1
 4681 1012 38       		.byte	0x38
 4682 1013 00       		.byte	0
 4683 1014 12       		.uleb128 0x12
 4684 1015 56000000 		.4byte	.LVL180
 4685 1019 50060000 		.4byte	0x650
 4686 101d 38100000 		.4byte	0x1038
 4687 1021 13       		.uleb128 0x13
 4688 1022 01       		.uleb128 0x1
 4689 1023 50       		.byte	0x50
 4690 1024 01       		.uleb128 0x1
 4691 1025 3F       		.byte	0x3f
 4692 1026 13       		.uleb128 0x13
 4693 1027 01       		.uleb128 0x1
 4694 1028 51       		.byte	0x51
 4695 1029 01       		.uleb128 0x1
 4696 102a 38       		.byte	0x38
 4697 102b 13       		.uleb128 0x13
 4698 102c 01       		.uleb128 0x1
 4699 102d 52       		.byte	0x52
 4700 102e 02       		.uleb128 0x2
 4701 102f 76       		.byte	0x76
 4702 1030 00       		.sleb128 0
 4703 1031 13       		.uleb128 0x13
 4704 1032 01       		.uleb128 0x1
 4705 1033 53       		.byte	0x53
 4706 1034 02       		.uleb128 0x2
 4707 1035 91       		.byte	0x91
 4708 1036 66       		.sleb128 -26
 4709 1037 00       		.byte	0
 4710 1038 12       		.uleb128 0x12
 4711 1039 5E000000 		.4byte	.LVL182
 4712 103d 01190000 		.4byte	0x1901
 4713 1041 4C100000 		.4byte	0x104c
 4714 1045 13       		.uleb128 0x13
 4715 1046 01       		.uleb128 0x1
 4716 1047 50       		.byte	0x50
 4717 1048 02       		.uleb128 0x2
 4718 1049 76       		.byte	0x76
 4719 104a 00       		.sleb128 0
 4720 104b 00       		.byte	0
 4721 104c 12       		.uleb128 0x12
 4722 104d 70000000 		.4byte	.LVL183
 4723 1051 D20A0000 		.4byte	0xad2
 4724 1055 6E100000 		.4byte	0x106e
 4725 1059 13       		.uleb128 0x13
 4726 105a 01       		.uleb128 0x1
 4727 105b 50       		.byte	0x50
 4728 105c 03       		.uleb128 0x3
 4729 105d 0B       		.byte	0xb
 4730 105e 0E80     		.2byte	0x800e
 4731 1060 13       		.uleb128 0x13
 4732 1061 01       		.uleb128 0x1
ARM GAS  C:\Users\TERENC~1\AppData\Local\Temp\ccl7zEj9.s 			page 95


 4733 1062 51       		.byte	0x51
 4734 1063 03       		.uleb128 0x3
 4735 1064 0A       		.byte	0xa
 4736 1065 E803     		.2byte	0x3e8
 4737 1067 13       		.uleb128 0x13
 4738 1068 01       		.uleb128 0x1
 4739 1069 52       		.byte	0x52
 4740 106a 02       		.uleb128 0x2
 4741 106b 91       		.byte	0x91
 4742 106c 66       		.sleb128 -26
 4743 106d 00       		.byte	0
 4744 106e 14       		.uleb128 0x14
 4745 106f 78000000 		.4byte	.LVL184
 4746 1073 C6180000 		.4byte	0x18c6
 4747 1077 12       		.uleb128 0x12
 4748 1078 CC000000 		.4byte	.LVL195
 4749 107c C7080000 		.4byte	0x8c7
 4750 1080 96100000 		.4byte	0x1096
 4751 1084 13       		.uleb128 0x13
 4752 1085 01       		.uleb128 0x1
 4753 1086 50       		.byte	0x50
 4754 1087 01       		.uleb128 0x1
 4755 1088 34       		.byte	0x34
 4756 1089 13       		.uleb128 0x13
 4757 108a 01       		.uleb128 0x1
 4758 108b 51       		.byte	0x51
 4759 108c 02       		.uleb128 0x2
 4760 108d 91       		.byte	0x91
 4761 108e 66       		.sleb128 -26
 4762 108f 13       		.uleb128 0x13
 4763 1090 01       		.uleb128 0x1
 4764 1091 52       		.byte	0x52
 4765 1092 02       		.uleb128 0x2
 4766 1093 74       		.byte	0x74
 4767 1094 00       		.sleb128 0
 4768 1095 00       		.byte	0
 4769 1096 14       		.uleb128 0x14
 4770 1097 D4000000 		.4byte	.LVL196
 4771 109b C6180000 		.4byte	0x18c6
 4772 109f 00       		.byte	0
 4773 10a0 17       		.uleb128 0x17
 4774 10a1 04       		.byte	0x4
 4775 10a2 A2000000 		.4byte	0xa2
 4776 10a6 17       		.uleb128 0x17
 4777 10a7 04       		.byte	0x4
 4778 10a8 56020000 		.4byte	0x256
 4779 10ac 09       		.uleb128 0x9
 4780 10ad 71030000 		.4byte	0x371
 4781 10b1 BC100000 		.4byte	0x10bc
 4782 10b5 0A       		.uleb128 0xa
 4783 10b6 1F010000 		.4byte	0x11f
 4784 10ba 16       		.byte	0x16
 4785 10bb 00       		.byte	0
 4786 10bc 0D       		.uleb128 0xd
 4787 10bd AC100000 		.4byte	0x10ac
 4788 10c1 20       		.uleb128 0x20
 4789 10c2 E0020000 		.4byte	.LASF95
ARM GAS  C:\Users\TERENC~1\AppData\Local\Temp\ccl7zEj9.s 			page 96


 4790 10c6 01       		.byte	0x1
 4791 10c7 8601     		.2byte	0x186
 4792 10c9 E7040000 		.4byte	0x4e7
 4793 10cd 00000000 		.4byte	.LFB17
 4794 10d1 FC030000 		.4byte	.LFE17-.LFB17
 4795 10d5 01       		.uleb128 0x1
 4796 10d6 9C       		.byte	0x9c
 4797 10d7 DE160000 		.4byte	0x16de
 4798 10db 21       		.uleb128 0x21
 4799 10dc 6900     		.ascii	"i\000"
 4800 10de 01       		.byte	0x1
 4801 10df 8801     		.2byte	0x188
 4802 10e1 A2000000 		.4byte	0xa2
 4803 10e5 1E       		.uleb128 0x1e
 4804 10e6 72737000 		.ascii	"rsp\000"
 4805 10ea 01       		.byte	0x1
 4806 10eb 8901     		.2byte	0x189
 4807 10ed DE160000 		.4byte	0x16de
 4808 10f1 02       		.uleb128 0x2
 4809 10f2 91       		.byte	0x91
 4810 10f3 58       		.sleb128 -40
 4811 10f4 22       		.uleb128 0x22
 4812 10f5 92060000 		.4byte	.LASF96
 4813 10f9 01       		.byte	0x1
 4814 10fa 8A01     		.2byte	0x18a
 4815 10fc EE160000 		.4byte	0x16ee
 4816 1100 02       		.uleb128 0x2
 4817 1101 91       		.byte	0x91
 4818 1102 56       		.sleb128 -42
 4819 1103 1E       		.uleb128 0x1e
 4820 1104 737700   		.ascii	"sw\000"
 4821 1107 01       		.byte	0x1
 4822 1108 8B01     		.2byte	0x18b
 4823 110a 97000000 		.4byte	0x97
 4824 110e 02       		.uleb128 0x2
 4825 110f 91       		.byte	0x91
 4826 1110 54       		.sleb128 -44
 4827 1111 18       		.uleb128 0x18
 4828 1112 72657400 		.ascii	"ret\000"
 4829 1116 01       		.byte	0x1
 4830 1117 8C01     		.2byte	0x18c
 4831 1119 E7040000 		.4byte	0x4e7
 4832 111d 7D070000 		.4byte	.LLST56
 4833 1121 19       		.uleb128 0x19
 4834 1122 0B030000 		.4byte	.LASF97
 4835 1126 01       		.byte	0x1
 4836 1127 8D01     		.2byte	0x18d
 4837 1129 F3160000 		.4byte	0x16f3
 4838 112d BD070000 		.4byte	.LLST57
 4839 1131 15       		.uleb128 0x15
 4840 1132 28000000 		.4byte	.LBB8
 4841 1136 2E000000 		.4byte	.LBE8-.LBB8
 4842 113a 89110000 		.4byte	0x1189
 4843 113e 18       		.uleb128 0x18
 4844 113f 733100   		.ascii	"s1\000"
 4845 1142 01       		.byte	0x1
 4846 1143 9201     		.2byte	0x192
ARM GAS  C:\Users\TERENC~1\AppData\Local\Temp\ccl7zEj9.s 			page 97


 4847 1145 A2000000 		.4byte	0xa2
 4848 1149 FF080000 		.4byte	.LLST58
 4849 114d 14       		.uleb128 0x14
 4850 114e 30000000 		.4byte	.LVL209
 4851 1152 A7180000 		.4byte	0x18a7
 4852 1156 12       		.uleb128 0x12
 4853 1157 50000000 		.4byte	.LVL211
 4854 115b 2D190000 		.4byte	0x192d
 4855 115f 78110000 		.4byte	0x1178
 4856 1163 13       		.uleb128 0x13
 4857 1164 01       		.uleb128 0x1
 4858 1165 50       		.byte	0x50
 4859 1166 02       		.uleb128 0x2
 4860 1167 75       		.byte	0x75
 4861 1168 00       		.sleb128 0
 4862 1169 13       		.uleb128 0x13
 4863 116a 01       		.uleb128 0x1
 4864 116b 51       		.byte	0x51
 4865 116c 05       		.uleb128 0x5
 4866 116d 03       		.byte	0x3
 4867 116e A0000000 		.4byte	.LC28
 4868 1172 13       		.uleb128 0x13
 4869 1173 01       		.uleb128 0x1
 4870 1174 52       		.byte	0x52
 4871 1175 01       		.uleb128 0x1
 4872 1176 4F       		.byte	0x4f
 4873 1177 00       		.byte	0
 4874 1178 16       		.uleb128 0x16
 4875 1179 56000000 		.4byte	.LVL212
 4876 117d BB180000 		.4byte	0x18bb
 4877 1181 13       		.uleb128 0x13
 4878 1182 01       		.uleb128 0x1
 4879 1183 50       		.byte	0x50
 4880 1184 02       		.uleb128 0x2
 4881 1185 75       		.byte	0x75
 4882 1186 00       		.sleb128 0
 4883 1187 00       		.byte	0
 4884 1188 00       		.byte	0
 4885 1189 15       		.uleb128 0x15
 4886 118a 72000000 		.4byte	.LBB9
 4887 118e 2C000000 		.4byte	.LBE9-.LBB9
 4888 1192 DC110000 		.4byte	0x11dc
 4889 1196 18       		.uleb128 0x18
 4890 1197 733100   		.ascii	"s1\000"
 4891 119a 01       		.byte	0x1
 4892 119b 9901     		.2byte	0x199
 4893 119d A2000000 		.4byte	0xa2
 4894 11a1 12090000 		.4byte	.LLST59
 4895 11a5 14       		.uleb128 0x14
 4896 11a6 7A000000 		.4byte	.LVL219
 4897 11aa A7180000 		.4byte	0x18a7
 4898 11ae 12       		.uleb128 0x12
 4899 11af 98000000 		.4byte	.LVL221
 4900 11b3 2D190000 		.4byte	0x192d
 4901 11b7 CB110000 		.4byte	0x11cb
 4902 11bb 13       		.uleb128 0x13
 4903 11bc 01       		.uleb128 0x1
ARM GAS  C:\Users\TERENC~1\AppData\Local\Temp\ccl7zEj9.s 			page 98


 4904 11bd 50       		.byte	0x50
 4905 11be 02       		.uleb128 0x2
 4906 11bf 75       		.byte	0x75
 4907 11c0 00       		.sleb128 0
 4908 11c1 13       		.uleb128 0x13
 4909 11c2 01       		.uleb128 0x1
 4910 11c3 51       		.byte	0x51
 4911 11c4 05       		.uleb128 0x5
 4912 11c5 03       		.byte	0x3
 4913 11c6 CC000000 		.4byte	.LC31
 4914 11ca 00       		.byte	0
 4915 11cb 16       		.uleb128 0x16
 4916 11cc 9E000000 		.4byte	.LVL222
 4917 11d0 BB180000 		.4byte	0x18bb
 4918 11d4 13       		.uleb128 0x13
 4919 11d5 01       		.uleb128 0x1
 4920 11d6 50       		.byte	0x50
 4921 11d7 02       		.uleb128 0x2
 4922 11d8 75       		.byte	0x75
 4923 11d9 00       		.sleb128 0
 4924 11da 00       		.byte	0
 4925 11db 00       		.byte	0
 4926 11dc 15       		.uleb128 0x15
 4927 11dd C0000000 		.4byte	.LBB10
 4928 11e1 34000000 		.4byte	.LBE10-.LBB10
 4929 11e5 2F120000 		.4byte	0x122f
 4930 11e9 18       		.uleb128 0x18
 4931 11ea 733100   		.ascii	"s1\000"
 4932 11ed 01       		.byte	0x1
 4933 11ee A601     		.2byte	0x1a6
 4934 11f0 A2000000 		.4byte	0xa2
 4935 11f4 25090000 		.4byte	.LLST60
 4936 11f8 14       		.uleb128 0x14
 4937 11f9 C8000000 		.4byte	.LVL226
 4938 11fd A7180000 		.4byte	0x18a7
 4939 1201 12       		.uleb128 0x12
 4940 1202 EE000000 		.4byte	.LVL230
 4941 1206 2D190000 		.4byte	0x192d
 4942 120a 1E120000 		.4byte	0x121e
 4943 120e 13       		.uleb128 0x13
 4944 120f 01       		.uleb128 0x1
 4945 1210 50       		.byte	0x50
 4946 1211 02       		.uleb128 0x2
 4947 1212 75       		.byte	0x75
 4948 1213 00       		.sleb128 0
 4949 1214 13       		.uleb128 0x13
 4950 1215 01       		.uleb128 0x1
 4951 1216 51       		.byte	0x51
 4952 1217 05       		.uleb128 0x5
 4953 1218 03       		.byte	0x3
 4954 1219 EC000000 		.4byte	.LC33
 4955 121d 00       		.byte	0
 4956 121e 16       		.uleb128 0x16
 4957 121f F4000000 		.4byte	.LVL231
 4958 1223 BB180000 		.4byte	0x18bb
 4959 1227 13       		.uleb128 0x13
 4960 1228 01       		.uleb128 0x1
ARM GAS  C:\Users\TERENC~1\AppData\Local\Temp\ccl7zEj9.s 			page 99


 4961 1229 50       		.byte	0x50
 4962 122a 02       		.uleb128 0x2
 4963 122b 75       		.byte	0x75
 4964 122c 00       		.sleb128 0
 4965 122d 00       		.byte	0
 4966 122e 00       		.byte	0
 4967 122f 15       		.uleb128 0x15
 4968 1230 FC000000 		.4byte	.LBB11
 4969 1234 30000000 		.4byte	.LBE11-.LBB11
 4970 1238 82120000 		.4byte	0x1282
 4971 123c 18       		.uleb128 0x18
 4972 123d 733100   		.ascii	"s1\000"
 4973 1240 01       		.byte	0x1
 4974 1241 A801     		.2byte	0x1a8
 4975 1243 A2000000 		.4byte	0xa2
 4976 1247 38090000 		.4byte	.LLST61
 4977 124b 14       		.uleb128 0x14
 4978 124c 04010000 		.4byte	.LVL234
 4979 1250 A7180000 		.4byte	0x18a7
 4980 1254 12       		.uleb128 0x12
 4981 1255 26010000 		.4byte	.LVL237
 4982 1259 2D190000 		.4byte	0x192d
 4983 125d 71120000 		.4byte	0x1271
 4984 1261 13       		.uleb128 0x13
 4985 1262 01       		.uleb128 0x1
 4986 1263 50       		.byte	0x50
 4987 1264 02       		.uleb128 0x2
 4988 1265 75       		.byte	0x75
 4989 1266 00       		.sleb128 0
 4990 1267 13       		.uleb128 0x13
 4991 1268 01       		.uleb128 0x1
 4992 1269 51       		.byte	0x51
 4993 126a 05       		.uleb128 0x5
 4994 126b 03       		.byte	0x3
 4995 126c 00010000 		.4byte	.LC35
 4996 1270 00       		.byte	0
 4997 1271 16       		.uleb128 0x16
 4998 1272 2C010000 		.4byte	.LVL238
 4999 1276 BB180000 		.4byte	0x18bb
 5000 127a 13       		.uleb128 0x13
 5001 127b 01       		.uleb128 0x1
 5002 127c 50       		.byte	0x50
 5003 127d 02       		.uleb128 0x2
 5004 127e 75       		.byte	0x75
 5005 127f 00       		.sleb128 0
 5006 1280 00       		.byte	0
 5007 1281 00       		.byte	0
 5008 1282 15       		.uleb128 0x15
 5009 1283 34010000 		.4byte	.LBB12
 5010 1287 2E000000 		.4byte	.LBE12-.LBB12
 5011 128b D5120000 		.4byte	0x12d5
 5012 128f 18       		.uleb128 0x18
 5013 1290 733100   		.ascii	"s1\000"
 5014 1293 01       		.byte	0x1
 5015 1294 A901     		.2byte	0x1a9
 5016 1296 A2000000 		.4byte	0xa2
 5017 129a 4B090000 		.4byte	.LLST62
ARM GAS  C:\Users\TERENC~1\AppData\Local\Temp\ccl7zEj9.s 			page 100


 5018 129e 14       		.uleb128 0x14
 5019 129f 3C010000 		.4byte	.LVL241
 5020 12a3 A7180000 		.4byte	0x18a7
 5021 12a7 12       		.uleb128 0x12
 5022 12a8 5C010000 		.4byte	.LVL244
 5023 12ac 2D190000 		.4byte	0x192d
 5024 12b0 C4120000 		.4byte	0x12c4
 5025 12b4 13       		.uleb128 0x13
 5026 12b5 01       		.uleb128 0x1
 5027 12b6 50       		.byte	0x50
 5028 12b7 02       		.uleb128 0x2
 5029 12b8 75       		.byte	0x75
 5030 12b9 00       		.sleb128 0
 5031 12ba 13       		.uleb128 0x13
 5032 12bb 01       		.uleb128 0x1
 5033 12bc 51       		.byte	0x51
 5034 12bd 05       		.uleb128 0x5
 5035 12be 03       		.byte	0x3
 5036 12bf 14010000 		.4byte	.LC37
 5037 12c3 00       		.byte	0
 5038 12c4 16       		.uleb128 0x16
 5039 12c5 62010000 		.4byte	.LVL245
 5040 12c9 BB180000 		.4byte	0x18bb
 5041 12cd 13       		.uleb128 0x13
 5042 12ce 01       		.uleb128 0x1
 5043 12cf 50       		.byte	0x50
 5044 12d0 02       		.uleb128 0x2
 5045 12d1 75       		.byte	0x75
 5046 12d2 00       		.sleb128 0
 5047 12d3 00       		.byte	0
 5048 12d4 00       		.byte	0
 5049 12d5 15       		.uleb128 0x15
 5050 12d6 6A010000 		.4byte	.LBB13
 5051 12da 2C000000 		.4byte	.LBE13-.LBB13
 5052 12de 28130000 		.4byte	0x1328
 5053 12e2 18       		.uleb128 0x18
 5054 12e3 733100   		.ascii	"s1\000"
 5055 12e6 01       		.byte	0x1
 5056 12e7 AB01     		.2byte	0x1ab
 5057 12e9 A2000000 		.4byte	0xa2
 5058 12ed 5E090000 		.4byte	.LLST63
 5059 12f1 14       		.uleb128 0x14
 5060 12f2 72010000 		.4byte	.LVL248
 5061 12f6 A7180000 		.4byte	0x18a7
 5062 12fa 12       		.uleb128 0x12
 5063 12fb 90010000 		.4byte	.LVL251
 5064 12ff 2D190000 		.4byte	0x192d
 5065 1303 17130000 		.4byte	0x1317
 5066 1307 13       		.uleb128 0x13
 5067 1308 01       		.uleb128 0x1
 5068 1309 50       		.byte	0x50
 5069 130a 02       		.uleb128 0x2
 5070 130b 75       		.byte	0x75
 5071 130c 00       		.sleb128 0
 5072 130d 13       		.uleb128 0x13
 5073 130e 01       		.uleb128 0x1
 5074 130f 51       		.byte	0x51
ARM GAS  C:\Users\TERENC~1\AppData\Local\Temp\ccl7zEj9.s 			page 101


 5075 1310 05       		.uleb128 0x5
 5076 1311 03       		.byte	0x3
 5077 1312 28010000 		.4byte	.LC39
 5078 1316 00       		.byte	0
 5079 1317 16       		.uleb128 0x16
 5080 1318 96010000 		.4byte	.LVL252
 5081 131c BB180000 		.4byte	0x18bb
 5082 1320 13       		.uleb128 0x13
 5083 1321 01       		.uleb128 0x1
 5084 1322 50       		.byte	0x50
 5085 1323 02       		.uleb128 0x2
 5086 1324 75       		.byte	0x75
 5087 1325 00       		.sleb128 0
 5088 1326 00       		.byte	0
 5089 1327 00       		.byte	0
 5090 1328 15       		.uleb128 0x15
 5091 1329 9E010000 		.4byte	.LBB14
 5092 132d 2C000000 		.4byte	.LBE14-.LBB14
 5093 1331 7B130000 		.4byte	0x137b
 5094 1335 18       		.uleb128 0x18
 5095 1336 733100   		.ascii	"s1\000"
 5096 1339 01       		.byte	0x1
 5097 133a AC01     		.2byte	0x1ac
 5098 133c A2000000 		.4byte	0xa2
 5099 1340 71090000 		.4byte	.LLST64
 5100 1344 14       		.uleb128 0x14
 5101 1345 A6010000 		.4byte	.LVL255
 5102 1349 A7180000 		.4byte	0x18a7
 5103 134d 12       		.uleb128 0x12
 5104 134e C4010000 		.4byte	.LVL258
 5105 1352 2D190000 		.4byte	0x192d
 5106 1356 6A130000 		.4byte	0x136a
 5107 135a 13       		.uleb128 0x13
 5108 135b 01       		.uleb128 0x1
 5109 135c 50       		.byte	0x50
 5110 135d 02       		.uleb128 0x2
 5111 135e 75       		.byte	0x75
 5112 135f 00       		.sleb128 0
 5113 1360 13       		.uleb128 0x13
 5114 1361 01       		.uleb128 0x1
 5115 1362 51       		.byte	0x51
 5116 1363 05       		.uleb128 0x5
 5117 1364 03       		.byte	0x3
 5118 1365 3C010000 		.4byte	.LC41
 5119 1369 00       		.byte	0
 5120 136a 16       		.uleb128 0x16
 5121 136b CA010000 		.4byte	.LVL259
 5122 136f BB180000 		.4byte	0x18bb
 5123 1373 13       		.uleb128 0x13
 5124 1374 01       		.uleb128 0x1
 5125 1375 50       		.byte	0x50
 5126 1376 02       		.uleb128 0x2
 5127 1377 75       		.byte	0x75
 5128 1378 00       		.sleb128 0
 5129 1379 00       		.byte	0
 5130 137a 00       		.byte	0
 5131 137b 15       		.uleb128 0x15
ARM GAS  C:\Users\TERENC~1\AppData\Local\Temp\ccl7zEj9.s 			page 102


 5132 137c D2010000 		.4byte	.LBB15
 5133 1380 34000000 		.4byte	.LBE15-.LBB15
 5134 1384 CE130000 		.4byte	0x13ce
 5135 1388 18       		.uleb128 0x18
 5136 1389 733100   		.ascii	"s1\000"
 5137 138c 01       		.byte	0x1
 5138 138d AD01     		.2byte	0x1ad
 5139 138f A2000000 		.4byte	0xa2
 5140 1393 84090000 		.4byte	.LLST65
 5141 1397 14       		.uleb128 0x14
 5142 1398 DA010000 		.4byte	.LVL262
 5143 139c A7180000 		.4byte	0x18a7
 5144 13a0 12       		.uleb128 0x12
 5145 13a1 00020000 		.4byte	.LVL266
 5146 13a5 2D190000 		.4byte	0x192d
 5147 13a9 BD130000 		.4byte	0x13bd
 5148 13ad 13       		.uleb128 0x13
 5149 13ae 01       		.uleb128 0x1
 5150 13af 50       		.byte	0x50
 5151 13b0 02       		.uleb128 0x2
 5152 13b1 75       		.byte	0x75
 5153 13b2 00       		.sleb128 0
 5154 13b3 13       		.uleb128 0x13
 5155 13b4 01       		.uleb128 0x1
 5156 13b5 51       		.byte	0x51
 5157 13b6 05       		.uleb128 0x5
 5158 13b7 03       		.byte	0x3
 5159 13b8 50010000 		.4byte	.LC43
 5160 13bc 00       		.byte	0
 5161 13bd 16       		.uleb128 0x16
 5162 13be 06020000 		.4byte	.LVL267
 5163 13c2 BB180000 		.4byte	0x18bb
 5164 13c6 13       		.uleb128 0x13
 5165 13c7 01       		.uleb128 0x1
 5166 13c8 50       		.byte	0x50
 5167 13c9 02       		.uleb128 0x2
 5168 13ca 75       		.byte	0x75
 5169 13cb 00       		.sleb128 0
 5170 13cc 00       		.byte	0
 5171 13cd 00       		.byte	0
 5172 13ce 15       		.uleb128 0x15
 5173 13cf 0E020000 		.4byte	.LBB16
 5174 13d3 2C000000 		.4byte	.LBE16-.LBB16
 5175 13d7 21140000 		.4byte	0x1421
 5176 13db 18       		.uleb128 0x18
 5177 13dc 733100   		.ascii	"s1\000"
 5178 13df 01       		.byte	0x1
 5179 13e0 AF01     		.2byte	0x1af
 5180 13e2 A2000000 		.4byte	0xa2
 5181 13e6 97090000 		.4byte	.LLST66
 5182 13ea 14       		.uleb128 0x14
 5183 13eb 16020000 		.4byte	.LVL270
 5184 13ef A7180000 		.4byte	0x18a7
 5185 13f3 12       		.uleb128 0x12
 5186 13f4 34020000 		.4byte	.LVL273
 5187 13f8 2D190000 		.4byte	0x192d
 5188 13fc 10140000 		.4byte	0x1410
ARM GAS  C:\Users\TERENC~1\AppData\Local\Temp\ccl7zEj9.s 			page 103


 5189 1400 13       		.uleb128 0x13
 5190 1401 01       		.uleb128 0x1
 5191 1402 50       		.byte	0x50
 5192 1403 02       		.uleb128 0x2
 5193 1404 75       		.byte	0x75
 5194 1405 00       		.sleb128 0
 5195 1406 13       		.uleb128 0x13
 5196 1407 01       		.uleb128 0x1
 5197 1408 51       		.byte	0x51
 5198 1409 05       		.uleb128 0x5
 5199 140a 03       		.byte	0x3
 5200 140b 64010000 		.4byte	.LC45
 5201 140f 00       		.byte	0
 5202 1410 16       		.uleb128 0x16
 5203 1411 3A020000 		.4byte	.LVL274
 5204 1415 BB180000 		.4byte	0x18bb
 5205 1419 13       		.uleb128 0x13
 5206 141a 01       		.uleb128 0x1
 5207 141b 50       		.byte	0x50
 5208 141c 02       		.uleb128 0x2
 5209 141d 75       		.byte	0x75
 5210 141e 00       		.sleb128 0
 5211 141f 00       		.byte	0
 5212 1420 00       		.byte	0
 5213 1421 15       		.uleb128 0x15
 5214 1422 42020000 		.4byte	.LBB17
 5215 1426 2E000000 		.4byte	.LBE17-.LBB17
 5216 142a 74140000 		.4byte	0x1474
 5217 142e 18       		.uleb128 0x18
 5218 142f 733100   		.ascii	"s1\000"
 5219 1432 01       		.byte	0x1
 5220 1433 B001     		.2byte	0x1b0
 5221 1435 A2000000 		.4byte	0xa2
 5222 1439 AA090000 		.4byte	.LLST67
 5223 143d 14       		.uleb128 0x14
 5224 143e 4A020000 		.4byte	.LVL277
 5225 1442 A7180000 		.4byte	0x18a7
 5226 1446 12       		.uleb128 0x12
 5227 1447 6A020000 		.4byte	.LVL280
 5228 144b 2D190000 		.4byte	0x192d
 5229 144f 63140000 		.4byte	0x1463
 5230 1453 13       		.uleb128 0x13
 5231 1454 01       		.uleb128 0x1
 5232 1455 50       		.byte	0x50
 5233 1456 02       		.uleb128 0x2
 5234 1457 75       		.byte	0x75
 5235 1458 00       		.sleb128 0
 5236 1459 13       		.uleb128 0x13
 5237 145a 01       		.uleb128 0x1
 5238 145b 51       		.byte	0x51
 5239 145c 05       		.uleb128 0x5
 5240 145d 03       		.byte	0x3
 5241 145e 78010000 		.4byte	.LC47
 5242 1462 00       		.byte	0
 5243 1463 16       		.uleb128 0x16
 5244 1464 70020000 		.4byte	.LVL281
 5245 1468 BB180000 		.4byte	0x18bb
ARM GAS  C:\Users\TERENC~1\AppData\Local\Temp\ccl7zEj9.s 			page 104


 5246 146c 13       		.uleb128 0x13
 5247 146d 01       		.uleb128 0x1
 5248 146e 50       		.byte	0x50
 5249 146f 02       		.uleb128 0x2
 5250 1470 75       		.byte	0x75
 5251 1471 00       		.sleb128 0
 5252 1472 00       		.byte	0
 5253 1473 00       		.byte	0
 5254 1474 15       		.uleb128 0x15
 5255 1475 78020000 		.4byte	.LBB18
 5256 1479 30000000 		.4byte	.LBE18-.LBB18
 5257 147d C7140000 		.4byte	0x14c7
 5258 1481 18       		.uleb128 0x18
 5259 1482 733100   		.ascii	"s1\000"
 5260 1485 01       		.byte	0x1
 5261 1486 B101     		.2byte	0x1b1
 5262 1488 A2000000 		.4byte	0xa2
 5263 148c BD090000 		.4byte	.LLST68
 5264 1490 14       		.uleb128 0x14
 5265 1491 80020000 		.4byte	.LVL284
 5266 1495 A7180000 		.4byte	0x18a7
 5267 1499 12       		.uleb128 0x12
 5268 149a A2020000 		.4byte	.LVL287
 5269 149e 2D190000 		.4byte	0x192d
 5270 14a2 B6140000 		.4byte	0x14b6
 5271 14a6 13       		.uleb128 0x13
 5272 14a7 01       		.uleb128 0x1
 5273 14a8 50       		.byte	0x50
 5274 14a9 02       		.uleb128 0x2
 5275 14aa 75       		.byte	0x75
 5276 14ab 00       		.sleb128 0
 5277 14ac 13       		.uleb128 0x13
 5278 14ad 01       		.uleb128 0x1
 5279 14ae 51       		.byte	0x51
 5280 14af 05       		.uleb128 0x5
 5281 14b0 03       		.byte	0x3
 5282 14b1 8C010000 		.4byte	.LC49
 5283 14b5 00       		.byte	0
 5284 14b6 16       		.uleb128 0x16
 5285 14b7 A8020000 		.4byte	.LVL288
 5286 14bb BB180000 		.4byte	0x18bb
 5287 14bf 13       		.uleb128 0x13
 5288 14c0 01       		.uleb128 0x1
 5289 14c1 50       		.byte	0x50
 5290 14c2 02       		.uleb128 0x2
 5291 14c3 75       		.byte	0x75
 5292 14c4 00       		.sleb128 0
 5293 14c5 00       		.byte	0
 5294 14c6 00       		.byte	0
 5295 14c7 15       		.uleb128 0x15
 5296 14c8 B0020000 		.4byte	.LBB19
 5297 14cc 34000000 		.4byte	.LBE19-.LBB19
 5298 14d0 1A150000 		.4byte	0x151a
 5299 14d4 18       		.uleb128 0x18
 5300 14d5 733100   		.ascii	"s1\000"
 5301 14d8 01       		.byte	0x1
 5302 14d9 B201     		.2byte	0x1b2
ARM GAS  C:\Users\TERENC~1\AppData\Local\Temp\ccl7zEj9.s 			page 105


 5303 14db A2000000 		.4byte	0xa2
 5304 14df D0090000 		.4byte	.LLST69
 5305 14e3 14       		.uleb128 0x14
 5306 14e4 B8020000 		.4byte	.LVL291
 5307 14e8 A7180000 		.4byte	0x18a7
 5308 14ec 12       		.uleb128 0x12
 5309 14ed DE020000 		.4byte	.LVL295
 5310 14f1 2D190000 		.4byte	0x192d
 5311 14f5 09150000 		.4byte	0x1509
 5312 14f9 13       		.uleb128 0x13
 5313 14fa 01       		.uleb128 0x1
 5314 14fb 50       		.byte	0x50
 5315 14fc 02       		.uleb128 0x2
 5316 14fd 75       		.byte	0x75
 5317 14fe 00       		.sleb128 0
 5318 14ff 13       		.uleb128 0x13
 5319 1500 01       		.uleb128 0x1
 5320 1501 51       		.byte	0x51
 5321 1502 05       		.uleb128 0x5
 5322 1503 03       		.byte	0x3
 5323 1504 A0010000 		.4byte	.LC51
 5324 1508 00       		.byte	0
 5325 1509 16       		.uleb128 0x16
 5326 150a E4020000 		.4byte	.LVL296
 5327 150e BB180000 		.4byte	0x18bb
 5328 1512 13       		.uleb128 0x13
 5329 1513 01       		.uleb128 0x1
 5330 1514 50       		.byte	0x50
 5331 1515 02       		.uleb128 0x2
 5332 1516 75       		.byte	0x75
 5333 1517 00       		.sleb128 0
 5334 1518 00       		.byte	0
 5335 1519 00       		.byte	0
 5336 151a 15       		.uleb128 0x15
 5337 151b EC020000 		.4byte	.LBB20
 5338 151f 46000000 		.4byte	.LBE20-.LBB20
 5339 1523 6D150000 		.4byte	0x156d
 5340 1527 18       		.uleb128 0x18
 5341 1528 733100   		.ascii	"s1\000"
 5342 152b 01       		.byte	0x1
 5343 152c B401     		.2byte	0x1b4
 5344 152e A2000000 		.4byte	0xa2
 5345 1532 E3090000 		.4byte	.LLST70
 5346 1536 14       		.uleb128 0x14
 5347 1537 F4020000 		.4byte	.LVL299
 5348 153b A7180000 		.4byte	0x18a7
 5349 153f 12       		.uleb128 0x12
 5350 1540 2C030000 		.4byte	.LVL301
 5351 1544 2D190000 		.4byte	0x192d
 5352 1548 5C150000 		.4byte	0x155c
 5353 154c 13       		.uleb128 0x13
 5354 154d 01       		.uleb128 0x1
 5355 154e 50       		.byte	0x50
 5356 154f 02       		.uleb128 0x2
 5357 1550 75       		.byte	0x75
 5358 1551 00       		.sleb128 0
 5359 1552 13       		.uleb128 0x13
ARM GAS  C:\Users\TERENC~1\AppData\Local\Temp\ccl7zEj9.s 			page 106


 5360 1553 01       		.uleb128 0x1
 5361 1554 51       		.byte	0x51
 5362 1555 05       		.uleb128 0x5
 5363 1556 03       		.byte	0x3
 5364 1557 B4010000 		.4byte	.LC53
 5365 155b 00       		.byte	0
 5366 155c 16       		.uleb128 0x16
 5367 155d 32030000 		.4byte	.LVL302
 5368 1561 BB180000 		.4byte	0x18bb
 5369 1565 13       		.uleb128 0x13
 5370 1566 01       		.uleb128 0x1
 5371 1567 50       		.byte	0x50
 5372 1568 02       		.uleb128 0x2
 5373 1569 75       		.byte	0x75
 5374 156a 00       		.sleb128 0
 5375 156b 00       		.byte	0
 5376 156c 00       		.byte	0
 5377 156d 15       		.uleb128 0x15
 5378 156e 3A030000 		.4byte	.LBB21
 5379 1572 34000000 		.4byte	.LBE21-.LBB21
 5380 1576 C0150000 		.4byte	0x15c0
 5381 157a 18       		.uleb128 0x18
 5382 157b 733100   		.ascii	"s1\000"
 5383 157e 01       		.byte	0x1
 5384 157f B601     		.2byte	0x1b6
 5385 1581 A2000000 		.4byte	0xa2
 5386 1585 F6090000 		.4byte	.LLST71
 5387 1589 14       		.uleb128 0x14
 5388 158a 42030000 		.4byte	.LVL305
 5389 158e A7180000 		.4byte	0x18a7
 5390 1592 12       		.uleb128 0x12
 5391 1593 68030000 		.4byte	.LVL309
 5392 1597 2D190000 		.4byte	0x192d
 5393 159b AF150000 		.4byte	0x15af
 5394 159f 13       		.uleb128 0x13
 5395 15a0 01       		.uleb128 0x1
 5396 15a1 50       		.byte	0x50
 5397 15a2 02       		.uleb128 0x2
 5398 15a3 75       		.byte	0x75
 5399 15a4 00       		.sleb128 0
 5400 15a5 13       		.uleb128 0x13
 5401 15a6 01       		.uleb128 0x1
 5402 15a7 51       		.byte	0x51
 5403 15a8 05       		.uleb128 0x5
 5404 15a9 03       		.byte	0x3
 5405 15aa C8010000 		.4byte	.LC55
 5406 15ae 00       		.byte	0
 5407 15af 16       		.uleb128 0x16
 5408 15b0 6E030000 		.4byte	.LVL310
 5409 15b4 BB180000 		.4byte	0x18bb
 5410 15b8 13       		.uleb128 0x13
 5411 15b9 01       		.uleb128 0x1
 5412 15ba 50       		.byte	0x50
 5413 15bb 02       		.uleb128 0x2
 5414 15bc 75       		.byte	0x75
 5415 15bd 00       		.sleb128 0
 5416 15be 00       		.byte	0
ARM GAS  C:\Users\TERENC~1\AppData\Local\Temp\ccl7zEj9.s 			page 107


 5417 15bf 00       		.byte	0
 5418 15c0 15       		.uleb128 0x15
 5419 15c1 76030000 		.4byte	.LBB22
 5420 15c5 34000000 		.4byte	.LBE22-.LBB22
 5421 15c9 13160000 		.4byte	0x1613
 5422 15cd 18       		.uleb128 0x18
 5423 15ce 733100   		.ascii	"s1\000"
 5424 15d1 01       		.byte	0x1
 5425 15d2 B701     		.2byte	0x1b7
 5426 15d4 A2000000 		.4byte	0xa2
 5427 15d8 090A0000 		.4byte	.LLST72
 5428 15dc 14       		.uleb128 0x14
 5429 15dd 7E030000 		.4byte	.LVL313
 5430 15e1 A7180000 		.4byte	0x18a7
 5431 15e5 12       		.uleb128 0x12
 5432 15e6 A4030000 		.4byte	.LVL317
 5433 15ea 2D190000 		.4byte	0x192d
 5434 15ee 02160000 		.4byte	0x1602
 5435 15f2 13       		.uleb128 0x13
 5436 15f3 01       		.uleb128 0x1
 5437 15f4 50       		.byte	0x50
 5438 15f5 02       		.uleb128 0x2
 5439 15f6 75       		.byte	0x75
 5440 15f7 00       		.sleb128 0
 5441 15f8 13       		.uleb128 0x13
 5442 15f9 01       		.uleb128 0x1
 5443 15fa 51       		.byte	0x51
 5444 15fb 05       		.uleb128 0x5
 5445 15fc 03       		.byte	0x3
 5446 15fd DC010000 		.4byte	.LC57
 5447 1601 00       		.byte	0
 5448 1602 16       		.uleb128 0x16
 5449 1603 AA030000 		.4byte	.LVL318
 5450 1607 BB180000 		.4byte	0x18bb
 5451 160b 13       		.uleb128 0x13
 5452 160c 01       		.uleb128 0x1
 5453 160d 50       		.byte	0x50
 5454 160e 02       		.uleb128 0x2
 5455 160f 75       		.byte	0x75
 5456 1610 00       		.sleb128 0
 5457 1611 00       		.byte	0
 5458 1612 00       		.byte	0
 5459 1613 12       		.uleb128 0x12
 5460 1614 1A000000 		.4byte	.LVL205
 5461 1618 50060000 		.4byte	0x650
 5462 161c 37160000 		.4byte	0x1637
 5463 1620 13       		.uleb128 0x13
 5464 1621 01       		.uleb128 0x1
 5465 1622 50       		.byte	0x50
 5466 1623 01       		.uleb128 0x1
 5467 1624 4F       		.byte	0x4f
 5468 1625 13       		.uleb128 0x13
 5469 1626 01       		.uleb128 0x1
 5470 1627 51       		.byte	0x51
 5471 1628 01       		.uleb128 0x1
 5472 1629 32       		.byte	0x32
 5473 162a 13       		.uleb128 0x13
ARM GAS  C:\Users\TERENC~1\AppData\Local\Temp\ccl7zEj9.s 			page 108


 5474 162b 01       		.uleb128 0x1
 5475 162c 52       		.byte	0x52
 5476 162d 02       		.uleb128 0x2
 5477 162e 7D       		.byte	0x7d
 5478 162f 06       		.sleb128 6
 5479 1630 13       		.uleb128 0x13
 5480 1631 01       		.uleb128 0x1
 5481 1632 53       		.byte	0x53
 5482 1633 02       		.uleb128 0x2
 5483 1634 91       		.byte	0x91
 5484 1635 54       		.sleb128 -44
 5485 1636 00       		.byte	0
 5486 1637 14       		.uleb128 0x14
 5487 1638 22000000 		.4byte	.LVL207
 5488 163c C6180000 		.4byte	0x18c6
 5489 1640 12       		.uleb128 0x12
 5490 1641 64000000 		.4byte	.LVL215
 5491 1645 C7080000 		.4byte	0x8c7
 5492 1649 5F160000 		.4byte	0x165f
 5493 164d 13       		.uleb128 0x13
 5494 164e 01       		.uleb128 0x1
 5495 164f 50       		.byte	0x50
 5496 1650 01       		.uleb128 0x1
 5497 1651 48       		.byte	0x48
 5498 1652 13       		.uleb128 0x13
 5499 1653 01       		.uleb128 0x1
 5500 1654 51       		.byte	0x51
 5501 1655 02       		.uleb128 0x2
 5502 1656 91       		.byte	0x91
 5503 1657 54       		.sleb128 -44
 5504 1658 13       		.uleb128 0x13
 5505 1659 01       		.uleb128 0x1
 5506 165a 52       		.byte	0x52
 5507 165b 02       		.uleb128 0x2
 5508 165c 91       		.byte	0x91
 5509 165d 58       		.sleb128 -40
 5510 165e 00       		.byte	0
 5511 165f 14       		.uleb128 0x14
 5512 1660 6C000000 		.4byte	.LVL217
 5513 1664 C6180000 		.4byte	0x18c6
 5514 1668 14       		.uleb128 0x14
 5515 1669 BC000000 		.4byte	.LVL224
 5516 166d C6180000 		.4byte	0x18c6
 5517 1671 14       		.uleb128 0x14
 5518 1672 F8000000 		.4byte	.LVL232
 5519 1676 C6180000 		.4byte	0x18c6
 5520 167a 14       		.uleb128 0x14
 5521 167b 30010000 		.4byte	.LVL239
 5522 167f C6180000 		.4byte	0x18c6
 5523 1683 14       		.uleb128 0x14
 5524 1684 66010000 		.4byte	.LVL246
 5525 1688 C6180000 		.4byte	0x18c6
 5526 168c 14       		.uleb128 0x14
 5527 168d 9A010000 		.4byte	.LVL253
 5528 1691 C6180000 		.4byte	0x18c6
 5529 1695 14       		.uleb128 0x14
 5530 1696 CE010000 		.4byte	.LVL260
ARM GAS  C:\Users\TERENC~1\AppData\Local\Temp\ccl7zEj9.s 			page 109


 5531 169a C6180000 		.4byte	0x18c6
 5532 169e 14       		.uleb128 0x14
 5533 169f 0A020000 		.4byte	.LVL268
 5534 16a3 C6180000 		.4byte	0x18c6
 5535 16a7 14       		.uleb128 0x14
 5536 16a8 3E020000 		.4byte	.LVL275
 5537 16ac C6180000 		.4byte	0x18c6
 5538 16b0 14       		.uleb128 0x14
 5539 16b1 74020000 		.4byte	.LVL282
 5540 16b5 C6180000 		.4byte	0x18c6
 5541 16b9 14       		.uleb128 0x14
 5542 16ba AC020000 		.4byte	.LVL289
 5543 16be C6180000 		.4byte	0x18c6
 5544 16c2 14       		.uleb128 0x14
 5545 16c3 E8020000 		.4byte	.LVL297
 5546 16c7 C6180000 		.4byte	0x18c6
 5547 16cb 14       		.uleb128 0x14
 5548 16cc 36030000 		.4byte	.LVL303
 5549 16d0 C6180000 		.4byte	0x18c6
 5550 16d4 14       		.uleb128 0x14
 5551 16d5 72030000 		.4byte	.LVL311
 5552 16d9 C6180000 		.4byte	0x18c6
 5553 16dd 00       		.byte	0
 5554 16de 09       		.uleb128 0x9
 5555 16df 8C000000 		.4byte	0x8c
 5556 16e3 EE160000 		.4byte	0x16ee
 5557 16e7 0A       		.uleb128 0xa
 5558 16e8 1F010000 		.4byte	0x11f
 5559 16ec 17       		.byte	0x17
 5560 16ed 00       		.byte	0
 5561 16ee 0D       		.uleb128 0xd
 5562 16ef 97000000 		.4byte	0x97
 5563 16f3 17       		.uleb128 0x17
 5564 16f4 04       		.byte	0x4
 5565 16f5 2D030000 		.4byte	0x32d
 5566 16f9 23       		.uleb128 0x23
 5567 16fa 35010000 		.4byte	.LASF127
 5568 16fe 01       		.byte	0x1
 5569 16ff BC01     		.2byte	0x1bc
 5570 1701 00000000 		.4byte	.LFB18
 5571 1705 08000000 		.4byte	.LFE18-.LFB18
 5572 1709 01       		.uleb128 0x1
 5573 170a 9C       		.byte	0x9c
 5574 170b 19170000 		.4byte	0x1719
 5575 170f 14       		.uleb128 0x14
 5576 1710 06000000 		.4byte	.LVL322
 5577 1714 22190000 		.4byte	0x1922
 5578 1718 00       		.byte	0
 5579 1719 20       		.uleb128 0x20
 5580 171a 18000000 		.4byte	.LASF98
 5581 171e 01       		.byte	0x1
 5582 171f CB01     		.2byte	0x1cb
 5583 1721 E7040000 		.4byte	0x4e7
 5584 1725 00000000 		.4byte	.LFB19
 5585 1729 A8000000 		.4byte	.LFE19-.LFB19
 5586 172d 01       		.uleb128 0x1
 5587 172e 9C       		.byte	0x9c
ARM GAS  C:\Users\TERENC~1\AppData\Local\Temp\ccl7zEj9.s 			page 110


 5588 172f 01180000 		.4byte	0x1801
 5589 1733 1B       		.uleb128 0x1b
 5590 1734 10060000 		.4byte	.LASF75
 5591 1738 01       		.byte	0x1
 5592 1739 CB01     		.2byte	0x1cb
 5593 173b 97000000 		.4byte	0x97
 5594 173f 1C0A0000 		.4byte	.LLST73
 5595 1743 1B       		.uleb128 0x1b
 5596 1744 F2020000 		.4byte	.LASF72
 5597 1748 01       		.byte	0x1
 5598 1749 CB01     		.2byte	0x1cb
 5599 174b 44060000 		.4byte	0x644
 5600 174f 480A0000 		.4byte	.LLST74
 5601 1753 1B       		.uleb128 0x1b
 5602 1754 FE020000 		.4byte	.LASF77
 5603 1758 01       		.byte	0x1
 5604 1759 CB01     		.2byte	0x1cb
 5605 175b 97000000 		.4byte	0x97
 5606 175f 740A0000 		.4byte	.LLST75
 5607 1763 18       		.uleb128 0x18
 5608 1764 72657400 		.ascii	"ret\000"
 5609 1768 01       		.byte	0x1
 5610 1769 CD01     		.2byte	0x1cd
 5611 176b E7040000 		.4byte	0x4e7
 5612 176f 950A0000 		.4byte	.LLST76
 5613 1773 1E       		.uleb128 0x1e
 5614 1774 737700   		.ascii	"sw\000"
 5615 1777 01       		.byte	0x1
 5616 1778 CE01     		.2byte	0x1ce
 5617 177a 97000000 		.4byte	0x97
 5618 177e 02       		.uleb128 0x2
 5619 177f 91       		.byte	0x91
 5620 1780 66       		.sleb128 -26
 5621 1781 19       		.uleb128 0x19
 5622 1782 4A010000 		.4byte	.LASF30
 5623 1786 01       		.byte	0x1
 5624 1787 CF01     		.2byte	0x1cf
 5625 1789 97000000 		.4byte	0x97
 5626 178d CB0A0000 		.4byte	.LLST77
 5627 1791 12       		.uleb128 0x12
 5628 1792 1C000000 		.4byte	.LVL327
 5629 1796 3B070000 		.4byte	0x73b
 5630 179a AD170000 		.4byte	0x17ad
 5631 179e 13       		.uleb128 0x13
 5632 179f 01       		.uleb128 0x1
 5633 17a0 50       		.byte	0x50
 5634 17a1 04       		.uleb128 0x4
 5635 17a2 74       		.byte	0x74
 5636 17a3 80C001   		.sleb128 24576
 5637 17a6 13       		.uleb128 0x13
 5638 17a7 01       		.uleb128 0x1
 5639 17a8 51       		.byte	0x51
 5640 17a9 02       		.uleb128 0x2
 5641 17aa 7D       		.byte	0x7d
 5642 17ab 06       		.sleb128 6
 5643 17ac 00       		.byte	0
 5644 17ad 12       		.uleb128 0x12
ARM GAS  C:\Users\TERENC~1\AppData\Local\Temp\ccl7zEj9.s 			page 111


 5645 17ae 28000000 		.4byte	.LVL328
 5646 17b2 E6070000 		.4byte	0x7e6
 5647 17b6 CD170000 		.4byte	0x17cd
 5648 17ba 13       		.uleb128 0x13
 5649 17bb 01       		.uleb128 0x1
 5650 17bc 50       		.byte	0x50
 5651 17bd 02       		.uleb128 0x2
 5652 17be 76       		.byte	0x76
 5653 17bf 00       		.sleb128 0
 5654 17c0 13       		.uleb128 0x13
 5655 17c1 01       		.uleb128 0x1
 5656 17c2 51       		.byte	0x51
 5657 17c3 02       		.uleb128 0x2
 5658 17c4 75       		.byte	0x75
 5659 17c5 00       		.sleb128 0
 5660 17c6 13       		.uleb128 0x13
 5661 17c7 01       		.uleb128 0x1
 5662 17c8 52       		.byte	0x52
 5663 17c9 02       		.uleb128 0x2
 5664 17ca 7D       		.byte	0x7d
 5665 17cb 06       		.sleb128 6
 5666 17cc 00       		.byte	0
 5667 17cd 16       		.uleb128 0x16
 5668 17ce 50000000 		.4byte	.LVL332
 5669 17d2 310B0000 		.4byte	0xb31
 5670 17d6 13       		.uleb128 0x13
 5671 17d7 01       		.uleb128 0x1
 5672 17d8 50       		.byte	0x50
 5673 17d9 03       		.uleb128 0x3
 5674 17da 0A       		.byte	0xa
 5675 17db 0060     		.2byte	0x6000
 5676 17dd 13       		.uleb128 0x13
 5677 17de 01       		.uleb128 0x1
 5678 17df 51       		.byte	0x51
 5679 17e0 17       		.uleb128 0x17
 5680 17e1 77       		.byte	0x77
 5681 17e2 80807E   		.sleb128 -32768
 5682 17e5 4F       		.byte	0x4f
 5683 17e6 26       		.byte	0x26
 5684 17e7 46       		.byte	0x46
 5685 17e8 24       		.byte	0x24
 5686 17e9 46       		.byte	0x46
 5687 17ea 25       		.byte	0x25
 5688 17eb 77       		.byte	0x77
 5689 17ec 00       		.sleb128 0
 5690 17ed 22       		.byte	0x22
 5691 17ee 0A       		.byte	0xa
 5692 17ef 0080     		.2byte	0x8000
 5693 17f1 1C       		.byte	0x1c
 5694 17f2 3A       		.byte	0x3a
 5695 17f3 26       		.byte	0x26
 5696 17f4 23       		.byte	0x23
 5697 17f5 20       		.uleb128 0x20
 5698 17f6 3A       		.byte	0x3a
 5699 17f7 24       		.byte	0x24
 5700 17f8 13       		.uleb128 0x13
 5701 17f9 01       		.uleb128 0x1
ARM GAS  C:\Users\TERENC~1\AppData\Local\Temp\ccl7zEj9.s 			page 112


 5702 17fa 52       		.byte	0x52
 5703 17fb 03       		.uleb128 0x3
 5704 17fc 0A       		.byte	0xa
 5705 17fd 0001     		.2byte	0x100
 5706 17ff 00       		.byte	0
 5707 1800 00       		.byte	0
 5708 1801 1D       		.uleb128 0x1d
 5709 1802 E3050000 		.4byte	.LASF99
 5710 1806 01       		.byte	0x1
 5711 1807 17       		.byte	0x17
 5712 1808 A2000000 		.4byte	0xa2
 5713 180c 05       		.uleb128 0x5
 5714 180d 03       		.byte	0x3
 5715 180e 00000000 		.4byte	nImageBytes
 5716 1812 24       		.uleb128 0x24
 5717 1813 5A030000 		.4byte	.LASF100
 5718 1817 06       		.byte	0x6
 5719 1818 13       		.byte	0x13
 5720 1819 1D180000 		.4byte	0x181d
 5721 181d 0C       		.uleb128 0xc
 5722 181e A2000000 		.4byte	0xa2
 5723 1822 09       		.uleb128 0x9
 5724 1823 52030000 		.4byte	0x352
 5725 1827 2D180000 		.4byte	0x182d
 5726 182b 25       		.uleb128 0x25
 5727 182c 00       		.byte	0
 5728 182d 24       		.uleb128 0x24
 5729 182e 7B040000 		.4byte	.LASF101
 5730 1832 07       		.byte	0x7
 5731 1833 3C       		.byte	0x3c
 5732 1834 22180000 		.4byte	0x1822
 5733 1838 26       		.uleb128 0x26
 5734 1839 22060000 		.4byte	.LASF102
 5735 183d 22060000 		.4byte	.LASF102
 5736 1841 08       		.byte	0x8
 5737 1842 36       		.byte	0x36
 5738 1843 26       		.uleb128 0x26
 5739 1844 C2040000 		.4byte	.LASF103
 5740 1848 C2040000 		.4byte	.LASF103
 5741 184c 08       		.byte	0x8
 5742 184d 33       		.byte	0x33
 5743 184e 26       		.uleb128 0x26
 5744 184f A2060000 		.4byte	.LASF104
 5745 1853 A2060000 		.4byte	.LASF104
 5746 1857 09       		.byte	0x9
 5747 1858 36       		.byte	0x36
 5748 1859 26       		.uleb128 0x26
 5749 185a E8040000 		.4byte	.LASF105
 5750 185e E8040000 		.4byte	.LASF105
 5751 1862 09       		.byte	0x9
 5752 1863 33       		.byte	0x33
 5753 1864 26       		.uleb128 0x26
 5754 1865 26050000 		.4byte	.LASF106
 5755 1869 26050000 		.4byte	.LASF106
 5756 186d 0A       		.byte	0xa
 5757 186e 36       		.byte	0x36
 5758 186f 26       		.uleb128 0x26
ARM GAS  C:\Users\TERENC~1\AppData\Local\Temp\ccl7zEj9.s 			page 113


 5759 1870 CE030000 		.4byte	.LASF107
 5760 1874 CE030000 		.4byte	.LASF107
 5761 1878 0A       		.byte	0xa
 5762 1879 33       		.byte	0x33
 5763 187a 26       		.uleb128 0x26
 5764 187b 07000000 		.4byte	.LASF108
 5765 187f 07000000 		.4byte	.LASF108
 5766 1883 0B       		.byte	0xb
 5767 1884 D9       		.byte	0xd9
 5768 1885 26       		.uleb128 0x26
 5769 1886 AC010000 		.4byte	.LASF109
 5770 188a AC010000 		.4byte	.LASF109
 5771 188e 0B       		.byte	0xb
 5772 188f DA       		.byte	0xda
 5773 1890 26       		.uleb128 0x26
 5774 1891 6E000000 		.4byte	.LASF110
 5775 1895 6E000000 		.4byte	.LASF110
 5776 1899 0C       		.byte	0xc
 5777 189a 32       		.byte	0x32
 5778 189b 27       		.uleb128 0x27
 5779 189c 6E010000 		.4byte	.LASF111
 5780 18a0 6E010000 		.4byte	.LASF111
 5781 18a4 0D       		.byte	0xd
 5782 18a5 3D03     		.2byte	0x33d
 5783 18a7 26       		.uleb128 0x26
 5784 18a8 BC050000 		.4byte	.LASF112
 5785 18ac BC050000 		.4byte	.LASF112
 5786 18b0 0E       		.byte	0xe
 5787 18b1 28       		.byte	0x28
 5788 18b2 28       		.uleb128 0x28
 5789 18b3 5E060000 		.4byte	.LASF128
 5790 18b7 5E060000 		.4byte	.LASF128
 5791 18bb 26       		.uleb128 0x26
 5792 18bc 62050000 		.4byte	.LASF113
 5793 18c0 62050000 		.4byte	.LASF113
 5794 18c4 0E       		.byte	0xe
 5795 18c5 24       		.byte	0x24
 5796 18c6 27       		.uleb128 0x27
 5797 18c7 00010000 		.4byte	.LASF114
 5798 18cb 00010000 		.4byte	.LASF114
 5799 18cf 0F       		.byte	0xf
 5800 18d0 3201     		.2byte	0x132
 5801 18d2 27       		.uleb128 0x27
 5802 18d3 B8000000 		.4byte	.LASF115
 5803 18d7 B8000000 		.4byte	.LASF115
 5804 18db 0D       		.byte	0xd
 5805 18dc 4503     		.2byte	0x345
 5806 18de 27       		.uleb128 0x27
 5807 18df 53010000 		.4byte	.LASF116
 5808 18e3 53010000 		.4byte	.LASF116
 5809 18e7 0D       		.byte	0xd
 5810 18e8 3E03     		.2byte	0x33e
 5811 18ea 27       		.uleb128 0x27
 5812 18eb 37040000 		.4byte	.LASF117
 5813 18ef 37040000 		.4byte	.LASF117
 5814 18f3 0D       		.byte	0xd
 5815 18f4 3F03     		.2byte	0x33f
ARM GAS  C:\Users\TERENC~1\AppData\Local\Temp\ccl7zEj9.s 			page 114


 5816 18f6 26       		.uleb128 0x26
 5817 18f7 A5010000 		.4byte	.LASF118
 5818 18fb A5010000 		.4byte	.LASF118
 5819 18ff 10       		.byte	0x10
 5820 1900 64       		.byte	0x64
 5821 1901 26       		.uleb128 0x26
 5822 1902 06030000 		.4byte	.LASF119
 5823 1906 06030000 		.4byte	.LASF119
 5824 190a 10       		.byte	0x10
 5825 190b 59       		.byte	0x59
 5826 190c 26       		.uleb128 0x26
 5827 190d 03040000 		.4byte	.LASF120
 5828 1911 03040000 		.4byte	.LASF120
 5829 1915 11       		.byte	0x11
 5830 1916 19       		.byte	0x19
 5831 1917 26       		.uleb128 0x26
 5832 1918 CF050000 		.4byte	.LASF121
 5833 191c CF050000 		.4byte	.LASF121
 5834 1920 12       		.byte	0x12
 5835 1921 73       		.byte	0x73
 5836 1922 26       		.uleb128 0x26
 5837 1923 B6010000 		.4byte	.LASF122
 5838 1927 B6010000 		.4byte	.LASF122
 5839 192b 12       		.byte	0x12
 5840 192c 72       		.byte	0x72
 5841 192d 26       		.uleb128 0x26
 5842 192e 64040000 		.4byte	.LASF123
 5843 1932 64040000 		.4byte	.LASF123
 5844 1936 13       		.byte	0x13
 5845 1937 E7       		.byte	0xe7
 5846 1938 00       		.byte	0
 5847              		.section	.debug_abbrev,"",%progbits
 5848              	.Ldebug_abbrev0:
 5849 0000 01       		.uleb128 0x1
 5850 0001 11       		.uleb128 0x11
 5851 0002 01       		.byte	0x1
 5852 0003 25       		.uleb128 0x25
 5853 0004 0E       		.uleb128 0xe
 5854 0005 13       		.uleb128 0x13
 5855 0006 0B       		.uleb128 0xb
 5856 0007 03       		.uleb128 0x3
 5857 0008 0E       		.uleb128 0xe
 5858 0009 1B       		.uleb128 0x1b
 5859 000a 0E       		.uleb128 0xe
 5860 000b 55       		.uleb128 0x55
 5861 000c 17       		.uleb128 0x17
 5862 000d 11       		.uleb128 0x11
 5863 000e 01       		.uleb128 0x1
 5864 000f 10       		.uleb128 0x10
 5865 0010 17       		.uleb128 0x17
 5866 0011 00       		.byte	0
 5867 0012 00       		.byte	0
 5868 0013 02       		.uleb128 0x2
 5869 0014 24       		.uleb128 0x24
 5870 0015 00       		.byte	0
 5871 0016 0B       		.uleb128 0xb
 5872 0017 0B       		.uleb128 0xb
ARM GAS  C:\Users\TERENC~1\AppData\Local\Temp\ccl7zEj9.s 			page 115


 5873 0018 3E       		.uleb128 0x3e
 5874 0019 0B       		.uleb128 0xb
 5875 001a 03       		.uleb128 0x3
 5876 001b 0E       		.uleb128 0xe
 5877 001c 00       		.byte	0
 5878 001d 00       		.byte	0
 5879 001e 03       		.uleb128 0x3
 5880 001f 16       		.uleb128 0x16
 5881 0020 00       		.byte	0
 5882 0021 03       		.uleb128 0x3
 5883 0022 0E       		.uleb128 0xe
 5884 0023 3A       		.uleb128 0x3a
 5885 0024 0B       		.uleb128 0xb
 5886 0025 3B       		.uleb128 0x3b
 5887 0026 0B       		.uleb128 0xb
 5888 0027 49       		.uleb128 0x49
 5889 0028 13       		.uleb128 0x13
 5890 0029 00       		.byte	0
 5891 002a 00       		.byte	0
 5892 002b 04       		.uleb128 0x4
 5893 002c 24       		.uleb128 0x24
 5894 002d 00       		.byte	0
 5895 002e 0B       		.uleb128 0xb
 5896 002f 0B       		.uleb128 0xb
 5897 0030 3E       		.uleb128 0x3e
 5898 0031 0B       		.uleb128 0xb
 5899 0032 03       		.uleb128 0x3
 5900 0033 08       		.uleb128 0x8
 5901 0034 00       		.byte	0
 5902 0035 00       		.byte	0
 5903 0036 05       		.uleb128 0x5
 5904 0037 13       		.uleb128 0x13
 5905 0038 01       		.byte	0x1
 5906 0039 0B       		.uleb128 0xb
 5907 003a 0B       		.uleb128 0xb
 5908 003b 3A       		.uleb128 0x3a
 5909 003c 0B       		.uleb128 0xb
 5910 003d 3B       		.uleb128 0x3b
 5911 003e 0B       		.uleb128 0xb
 5912 003f 01       		.uleb128 0x1
 5913 0040 13       		.uleb128 0x13
 5914 0041 00       		.byte	0
 5915 0042 00       		.byte	0
 5916 0043 06       		.uleb128 0x6
 5917 0044 0D       		.uleb128 0xd
 5918 0045 00       		.byte	0
 5919 0046 03       		.uleb128 0x3
 5920 0047 0E       		.uleb128 0xe
 5921 0048 3A       		.uleb128 0x3a
 5922 0049 0B       		.uleb128 0xb
 5923 004a 3B       		.uleb128 0x3b
 5924 004b 0B       		.uleb128 0xb
 5925 004c 49       		.uleb128 0x49
 5926 004d 13       		.uleb128 0x13
 5927 004e 0B       		.uleb128 0xb
 5928 004f 0B       		.uleb128 0xb
 5929 0050 0D       		.uleb128 0xd
ARM GAS  C:\Users\TERENC~1\AppData\Local\Temp\ccl7zEj9.s 			page 116


 5930 0051 0B       		.uleb128 0xb
 5931 0052 0C       		.uleb128 0xc
 5932 0053 0B       		.uleb128 0xb
 5933 0054 38       		.uleb128 0x38
 5934 0055 0B       		.uleb128 0xb
 5935 0056 00       		.byte	0
 5936 0057 00       		.byte	0
 5937 0058 07       		.uleb128 0x7
 5938 0059 0D       		.uleb128 0xd
 5939 005a 00       		.byte	0
 5940 005b 03       		.uleb128 0x3
 5941 005c 08       		.uleb128 0x8
 5942 005d 3A       		.uleb128 0x3a
 5943 005e 0B       		.uleb128 0xb
 5944 005f 3B       		.uleb128 0x3b
 5945 0060 0B       		.uleb128 0xb
 5946 0061 49       		.uleb128 0x49
 5947 0062 13       		.uleb128 0x13
 5948 0063 38       		.uleb128 0x38
 5949 0064 0B       		.uleb128 0xb
 5950 0065 00       		.byte	0
 5951 0066 00       		.byte	0
 5952 0067 08       		.uleb128 0x8
 5953 0068 0D       		.uleb128 0xd
 5954 0069 00       		.byte	0
 5955 006a 03       		.uleb128 0x3
 5956 006b 0E       		.uleb128 0xe
 5957 006c 3A       		.uleb128 0x3a
 5958 006d 0B       		.uleb128 0xb
 5959 006e 3B       		.uleb128 0x3b
 5960 006f 0B       		.uleb128 0xb
 5961 0070 49       		.uleb128 0x49
 5962 0071 13       		.uleb128 0x13
 5963 0072 38       		.uleb128 0x38
 5964 0073 0B       		.uleb128 0xb
 5965 0074 00       		.byte	0
 5966 0075 00       		.byte	0
 5967 0076 09       		.uleb128 0x9
 5968 0077 01       		.uleb128 0x1
 5969 0078 01       		.byte	0x1
 5970 0079 49       		.uleb128 0x49
 5971 007a 13       		.uleb128 0x13
 5972 007b 01       		.uleb128 0x1
 5973 007c 13       		.uleb128 0x13
 5974 007d 00       		.byte	0
 5975 007e 00       		.byte	0
 5976 007f 0A       		.uleb128 0xa
 5977 0080 21       		.uleb128 0x21
 5978 0081 00       		.byte	0
 5979 0082 49       		.uleb128 0x49
 5980 0083 13       		.uleb128 0x13
 5981 0084 2F       		.uleb128 0x2f
 5982 0085 0B       		.uleb128 0xb
 5983 0086 00       		.byte	0
 5984 0087 00       		.byte	0
 5985 0088 0B       		.uleb128 0xb
 5986 0089 16       		.uleb128 0x16
ARM GAS  C:\Users\TERENC~1\AppData\Local\Temp\ccl7zEj9.s 			page 117


 5987 008a 00       		.byte	0
 5988 008b 03       		.uleb128 0x3
 5989 008c 0E       		.uleb128 0xe
 5990 008d 3A       		.uleb128 0x3a
 5991 008e 0B       		.uleb128 0xb
 5992 008f 3B       		.uleb128 0x3b
 5993 0090 05       		.uleb128 0x5
 5994 0091 49       		.uleb128 0x49
 5995 0092 13       		.uleb128 0x13
 5996 0093 00       		.byte	0
 5997 0094 00       		.byte	0
 5998 0095 0C       		.uleb128 0xc
 5999 0096 35       		.uleb128 0x35
 6000 0097 00       		.byte	0
 6001 0098 49       		.uleb128 0x49
 6002 0099 13       		.uleb128 0x13
 6003 009a 00       		.byte	0
 6004 009b 00       		.byte	0
 6005 009c 0D       		.uleb128 0xd
 6006 009d 26       		.uleb128 0x26
 6007 009e 00       		.byte	0
 6008 009f 49       		.uleb128 0x49
 6009 00a0 13       		.uleb128 0x13
 6010 00a1 00       		.byte	0
 6011 00a2 00       		.byte	0
 6012 00a3 0E       		.uleb128 0xe
 6013 00a4 2E       		.uleb128 0x2e
 6014 00a5 01       		.byte	0x1
 6015 00a6 03       		.uleb128 0x3
 6016 00a7 0E       		.uleb128 0xe
 6017 00a8 3A       		.uleb128 0x3a
 6018 00a9 0B       		.uleb128 0xb
 6019 00aa 3B       		.uleb128 0x3b
 6020 00ab 0B       		.uleb128 0xb
 6021 00ac 27       		.uleb128 0x27
 6022 00ad 19       		.uleb128 0x19
 6023 00ae 49       		.uleb128 0x49
 6024 00af 13       		.uleb128 0x13
 6025 00b0 11       		.uleb128 0x11
 6026 00b1 01       		.uleb128 0x1
 6027 00b2 12       		.uleb128 0x12
 6028 00b3 06       		.uleb128 0x6
 6029 00b4 40       		.uleb128 0x40
 6030 00b5 18       		.uleb128 0x18
 6031 00b6 9742     		.uleb128 0x2117
 6032 00b8 19       		.uleb128 0x19
 6033 00b9 01       		.uleb128 0x1
 6034 00ba 13       		.uleb128 0x13
 6035 00bb 00       		.byte	0
 6036 00bc 00       		.byte	0
 6037 00bd 0F       		.uleb128 0xf
 6038 00be 05       		.uleb128 0x5
 6039 00bf 00       		.byte	0
 6040 00c0 03       		.uleb128 0x3
 6041 00c1 0E       		.uleb128 0xe
 6042 00c2 3A       		.uleb128 0x3a
 6043 00c3 0B       		.uleb128 0xb
ARM GAS  C:\Users\TERENC~1\AppData\Local\Temp\ccl7zEj9.s 			page 118


 6044 00c4 3B       		.uleb128 0x3b
 6045 00c5 0B       		.uleb128 0xb
 6046 00c6 49       		.uleb128 0x49
 6047 00c7 13       		.uleb128 0x13
 6048 00c8 02       		.uleb128 0x2
 6049 00c9 17       		.uleb128 0x17
 6050 00ca 00       		.byte	0
 6051 00cb 00       		.byte	0
 6052 00cc 10       		.uleb128 0x10
 6053 00cd 34       		.uleb128 0x34
 6054 00ce 00       		.byte	0
 6055 00cf 03       		.uleb128 0x3
 6056 00d0 0E       		.uleb128 0xe
 6057 00d1 3A       		.uleb128 0x3a
 6058 00d2 0B       		.uleb128 0xb
 6059 00d3 3B       		.uleb128 0x3b
 6060 00d4 0B       		.uleb128 0xb
 6061 00d5 49       		.uleb128 0x49
 6062 00d6 13       		.uleb128 0x13
 6063 00d7 02       		.uleb128 0x2
 6064 00d8 17       		.uleb128 0x17
 6065 00d9 00       		.byte	0
 6066 00da 00       		.byte	0
 6067 00db 11       		.uleb128 0x11
 6068 00dc 34       		.uleb128 0x34
 6069 00dd 00       		.byte	0
 6070 00de 03       		.uleb128 0x3
 6071 00df 08       		.uleb128 0x8
 6072 00e0 3A       		.uleb128 0x3a
 6073 00e1 0B       		.uleb128 0xb
 6074 00e2 3B       		.uleb128 0x3b
 6075 00e3 0B       		.uleb128 0xb
 6076 00e4 49       		.uleb128 0x49
 6077 00e5 13       		.uleb128 0x13
 6078 00e6 02       		.uleb128 0x2
 6079 00e7 17       		.uleb128 0x17
 6080 00e8 00       		.byte	0
 6081 00e9 00       		.byte	0
 6082 00ea 12       		.uleb128 0x12
 6083 00eb 898201   		.uleb128 0x4109
 6084 00ee 01       		.byte	0x1
 6085 00ef 11       		.uleb128 0x11
 6086 00f0 01       		.uleb128 0x1
 6087 00f1 31       		.uleb128 0x31
 6088 00f2 13       		.uleb128 0x13
 6089 00f3 01       		.uleb128 0x1
 6090 00f4 13       		.uleb128 0x13
 6091 00f5 00       		.byte	0
 6092 00f6 00       		.byte	0
 6093 00f7 13       		.uleb128 0x13
 6094 00f8 8A8201   		.uleb128 0x410a
 6095 00fb 00       		.byte	0
 6096 00fc 02       		.uleb128 0x2
 6097 00fd 18       		.uleb128 0x18
 6098 00fe 9142     		.uleb128 0x2111
 6099 0100 18       		.uleb128 0x18
 6100 0101 00       		.byte	0
ARM GAS  C:\Users\TERENC~1\AppData\Local\Temp\ccl7zEj9.s 			page 119


 6101 0102 00       		.byte	0
 6102 0103 14       		.uleb128 0x14
 6103 0104 898201   		.uleb128 0x4109
 6104 0107 00       		.byte	0
 6105 0108 11       		.uleb128 0x11
 6106 0109 01       		.uleb128 0x1
 6107 010a 31       		.uleb128 0x31
 6108 010b 13       		.uleb128 0x13
 6109 010c 00       		.byte	0
 6110 010d 00       		.byte	0
 6111 010e 15       		.uleb128 0x15
 6112 010f 0B       		.uleb128 0xb
 6113 0110 01       		.byte	0x1
 6114 0111 11       		.uleb128 0x11
 6115 0112 01       		.uleb128 0x1
 6116 0113 12       		.uleb128 0x12
 6117 0114 06       		.uleb128 0x6
 6118 0115 01       		.uleb128 0x1
 6119 0116 13       		.uleb128 0x13
 6120 0117 00       		.byte	0
 6121 0118 00       		.byte	0
 6122 0119 16       		.uleb128 0x16
 6123 011a 898201   		.uleb128 0x4109
 6124 011d 01       		.byte	0x1
 6125 011e 11       		.uleb128 0x11
 6126 011f 01       		.uleb128 0x1
 6127 0120 31       		.uleb128 0x31
 6128 0121 13       		.uleb128 0x13
 6129 0122 00       		.byte	0
 6130 0123 00       		.byte	0
 6131 0124 17       		.uleb128 0x17
 6132 0125 0F       		.uleb128 0xf
 6133 0126 00       		.byte	0
 6134 0127 0B       		.uleb128 0xb
 6135 0128 0B       		.uleb128 0xb
 6136 0129 49       		.uleb128 0x49
 6137 012a 13       		.uleb128 0x13
 6138 012b 00       		.byte	0
 6139 012c 00       		.byte	0
 6140 012d 18       		.uleb128 0x18
 6141 012e 34       		.uleb128 0x34
 6142 012f 00       		.byte	0
 6143 0130 03       		.uleb128 0x3
 6144 0131 08       		.uleb128 0x8
 6145 0132 3A       		.uleb128 0x3a
 6146 0133 0B       		.uleb128 0xb
 6147 0134 3B       		.uleb128 0x3b
 6148 0135 05       		.uleb128 0x5
 6149 0136 49       		.uleb128 0x49
 6150 0137 13       		.uleb128 0x13
 6151 0138 02       		.uleb128 0x2
 6152 0139 17       		.uleb128 0x17
 6153 013a 00       		.byte	0
 6154 013b 00       		.byte	0
 6155 013c 19       		.uleb128 0x19
 6156 013d 34       		.uleb128 0x34
 6157 013e 00       		.byte	0
ARM GAS  C:\Users\TERENC~1\AppData\Local\Temp\ccl7zEj9.s 			page 120


 6158 013f 03       		.uleb128 0x3
 6159 0140 0E       		.uleb128 0xe
 6160 0141 3A       		.uleb128 0x3a
 6161 0142 0B       		.uleb128 0xb
 6162 0143 3B       		.uleb128 0x3b
 6163 0144 05       		.uleb128 0x5
 6164 0145 49       		.uleb128 0x49
 6165 0146 13       		.uleb128 0x13
 6166 0147 02       		.uleb128 0x2
 6167 0148 17       		.uleb128 0x17
 6168 0149 00       		.byte	0
 6169 014a 00       		.byte	0
 6170 014b 1A       		.uleb128 0x1a
 6171 014c 2E       		.uleb128 0x2e
 6172 014d 01       		.byte	0x1
 6173 014e 03       		.uleb128 0x3
 6174 014f 0E       		.uleb128 0xe
 6175 0150 3A       		.uleb128 0x3a
 6176 0151 0B       		.uleb128 0xb
 6177 0152 3B       		.uleb128 0x3b
 6178 0153 05       		.uleb128 0x5
 6179 0154 27       		.uleb128 0x27
 6180 0155 19       		.uleb128 0x19
 6181 0156 49       		.uleb128 0x49
 6182 0157 13       		.uleb128 0x13
 6183 0158 11       		.uleb128 0x11
 6184 0159 01       		.uleb128 0x1
 6185 015a 12       		.uleb128 0x12
 6186 015b 06       		.uleb128 0x6
 6187 015c 40       		.uleb128 0x40
 6188 015d 18       		.uleb128 0x18
 6189 015e 9742     		.uleb128 0x2117
 6190 0160 19       		.uleb128 0x19
 6191 0161 01       		.uleb128 0x1
 6192 0162 13       		.uleb128 0x13
 6193 0163 00       		.byte	0
 6194 0164 00       		.byte	0
 6195 0165 1B       		.uleb128 0x1b
 6196 0166 05       		.uleb128 0x5
 6197 0167 00       		.byte	0
 6198 0168 03       		.uleb128 0x3
 6199 0169 0E       		.uleb128 0xe
 6200 016a 3A       		.uleb128 0x3a
 6201 016b 0B       		.uleb128 0xb
 6202 016c 3B       		.uleb128 0x3b
 6203 016d 05       		.uleb128 0x5
 6204 016e 49       		.uleb128 0x49
 6205 016f 13       		.uleb128 0x13
 6206 0170 02       		.uleb128 0x2
 6207 0171 17       		.uleb128 0x17
 6208 0172 00       		.byte	0
 6209 0173 00       		.byte	0
 6210 0174 1C       		.uleb128 0x1c
 6211 0175 2E       		.uleb128 0x2e
 6212 0176 01       		.byte	0x1
 6213 0177 3F       		.uleb128 0x3f
 6214 0178 19       		.uleb128 0x19
ARM GAS  C:\Users\TERENC~1\AppData\Local\Temp\ccl7zEj9.s 			page 121


 6215 0179 03       		.uleb128 0x3
 6216 017a 0E       		.uleb128 0xe
 6217 017b 3A       		.uleb128 0x3a
 6218 017c 0B       		.uleb128 0xb
 6219 017d 3B       		.uleb128 0x3b
 6220 017e 0B       		.uleb128 0xb
 6221 017f 27       		.uleb128 0x27
 6222 0180 19       		.uleb128 0x19
 6223 0181 49       		.uleb128 0x49
 6224 0182 13       		.uleb128 0x13
 6225 0183 11       		.uleb128 0x11
 6226 0184 01       		.uleb128 0x1
 6227 0185 12       		.uleb128 0x12
 6228 0186 06       		.uleb128 0x6
 6229 0187 40       		.uleb128 0x40
 6230 0188 18       		.uleb128 0x18
 6231 0189 9742     		.uleb128 0x2117
 6232 018b 19       		.uleb128 0x19
 6233 018c 01       		.uleb128 0x1
 6234 018d 13       		.uleb128 0x13
 6235 018e 00       		.byte	0
 6236 018f 00       		.byte	0
 6237 0190 1D       		.uleb128 0x1d
 6238 0191 34       		.uleb128 0x34
 6239 0192 00       		.byte	0
 6240 0193 03       		.uleb128 0x3
 6241 0194 0E       		.uleb128 0xe
 6242 0195 3A       		.uleb128 0x3a
 6243 0196 0B       		.uleb128 0xb
 6244 0197 3B       		.uleb128 0x3b
 6245 0198 0B       		.uleb128 0xb
 6246 0199 49       		.uleb128 0x49
 6247 019a 13       		.uleb128 0x13
 6248 019b 02       		.uleb128 0x2
 6249 019c 18       		.uleb128 0x18
 6250 019d 00       		.byte	0
 6251 019e 00       		.byte	0
 6252 019f 1E       		.uleb128 0x1e
 6253 01a0 34       		.uleb128 0x34
 6254 01a1 00       		.byte	0
 6255 01a2 03       		.uleb128 0x3
 6256 01a3 08       		.uleb128 0x8
 6257 01a4 3A       		.uleb128 0x3a
 6258 01a5 0B       		.uleb128 0xb
 6259 01a6 3B       		.uleb128 0x3b
 6260 01a7 05       		.uleb128 0x5
 6261 01a8 49       		.uleb128 0x49
 6262 01a9 13       		.uleb128 0x13
 6263 01aa 02       		.uleb128 0x2
 6264 01ab 18       		.uleb128 0x18
 6265 01ac 00       		.byte	0
 6266 01ad 00       		.byte	0
 6267 01ae 1F       		.uleb128 0x1f
 6268 01af 34       		.uleb128 0x34
 6269 01b0 00       		.byte	0
 6270 01b1 03       		.uleb128 0x3
 6271 01b2 0E       		.uleb128 0xe
ARM GAS  C:\Users\TERENC~1\AppData\Local\Temp\ccl7zEj9.s 			page 122


 6272 01b3 49       		.uleb128 0x49
 6273 01b4 13       		.uleb128 0x13
 6274 01b5 34       		.uleb128 0x34
 6275 01b6 19       		.uleb128 0x19
 6276 01b7 02       		.uleb128 0x2
 6277 01b8 18       		.uleb128 0x18
 6278 01b9 00       		.byte	0
 6279 01ba 00       		.byte	0
 6280 01bb 20       		.uleb128 0x20
 6281 01bc 2E       		.uleb128 0x2e
 6282 01bd 01       		.byte	0x1
 6283 01be 3F       		.uleb128 0x3f
 6284 01bf 19       		.uleb128 0x19
 6285 01c0 03       		.uleb128 0x3
 6286 01c1 0E       		.uleb128 0xe
 6287 01c2 3A       		.uleb128 0x3a
 6288 01c3 0B       		.uleb128 0xb
 6289 01c4 3B       		.uleb128 0x3b
 6290 01c5 05       		.uleb128 0x5
 6291 01c6 27       		.uleb128 0x27
 6292 01c7 19       		.uleb128 0x19
 6293 01c8 49       		.uleb128 0x49
 6294 01c9 13       		.uleb128 0x13
 6295 01ca 11       		.uleb128 0x11
 6296 01cb 01       		.uleb128 0x1
 6297 01cc 12       		.uleb128 0x12
 6298 01cd 06       		.uleb128 0x6
 6299 01ce 40       		.uleb128 0x40
 6300 01cf 18       		.uleb128 0x18
 6301 01d0 9742     		.uleb128 0x2117
 6302 01d2 19       		.uleb128 0x19
 6303 01d3 01       		.uleb128 0x1
 6304 01d4 13       		.uleb128 0x13
 6305 01d5 00       		.byte	0
 6306 01d6 00       		.byte	0
 6307 01d7 21       		.uleb128 0x21
 6308 01d8 34       		.uleb128 0x34
 6309 01d9 00       		.byte	0
 6310 01da 03       		.uleb128 0x3
 6311 01db 08       		.uleb128 0x8
 6312 01dc 3A       		.uleb128 0x3a
 6313 01dd 0B       		.uleb128 0xb
 6314 01de 3B       		.uleb128 0x3b
 6315 01df 05       		.uleb128 0x5
 6316 01e0 49       		.uleb128 0x49
 6317 01e1 13       		.uleb128 0x13
 6318 01e2 00       		.byte	0
 6319 01e3 00       		.byte	0
 6320 01e4 22       		.uleb128 0x22
 6321 01e5 34       		.uleb128 0x34
 6322 01e6 00       		.byte	0
 6323 01e7 03       		.uleb128 0x3
 6324 01e8 0E       		.uleb128 0xe
 6325 01e9 3A       		.uleb128 0x3a
 6326 01ea 0B       		.uleb128 0xb
 6327 01eb 3B       		.uleb128 0x3b
 6328 01ec 05       		.uleb128 0x5
ARM GAS  C:\Users\TERENC~1\AppData\Local\Temp\ccl7zEj9.s 			page 123


 6329 01ed 49       		.uleb128 0x49
 6330 01ee 13       		.uleb128 0x13
 6331 01ef 02       		.uleb128 0x2
 6332 01f0 18       		.uleb128 0x18
 6333 01f1 00       		.byte	0
 6334 01f2 00       		.byte	0
 6335 01f3 23       		.uleb128 0x23
 6336 01f4 2E       		.uleb128 0x2e
 6337 01f5 01       		.byte	0x1
 6338 01f6 3F       		.uleb128 0x3f
 6339 01f7 19       		.uleb128 0x19
 6340 01f8 03       		.uleb128 0x3
 6341 01f9 0E       		.uleb128 0xe
 6342 01fa 3A       		.uleb128 0x3a
 6343 01fb 0B       		.uleb128 0xb
 6344 01fc 3B       		.uleb128 0x3b
 6345 01fd 05       		.uleb128 0x5
 6346 01fe 27       		.uleb128 0x27
 6347 01ff 19       		.uleb128 0x19
 6348 0200 11       		.uleb128 0x11
 6349 0201 01       		.uleb128 0x1
 6350 0202 12       		.uleb128 0x12
 6351 0203 06       		.uleb128 0x6
 6352 0204 40       		.uleb128 0x40
 6353 0205 18       		.uleb128 0x18
 6354 0206 9742     		.uleb128 0x2117
 6355 0208 19       		.uleb128 0x19
 6356 0209 01       		.uleb128 0x1
 6357 020a 13       		.uleb128 0x13
 6358 020b 00       		.byte	0
 6359 020c 00       		.byte	0
 6360 020d 24       		.uleb128 0x24
 6361 020e 34       		.uleb128 0x34
 6362 020f 00       		.byte	0
 6363 0210 03       		.uleb128 0x3
 6364 0211 0E       		.uleb128 0xe
 6365 0212 3A       		.uleb128 0x3a
 6366 0213 0B       		.uleb128 0xb
 6367 0214 3B       		.uleb128 0x3b
 6368 0215 0B       		.uleb128 0xb
 6369 0216 49       		.uleb128 0x49
 6370 0217 13       		.uleb128 0x13
 6371 0218 3F       		.uleb128 0x3f
 6372 0219 19       		.uleb128 0x19
 6373 021a 3C       		.uleb128 0x3c
 6374 021b 19       		.uleb128 0x19
 6375 021c 00       		.byte	0
 6376 021d 00       		.byte	0
 6377 021e 25       		.uleb128 0x25
 6378 021f 21       		.uleb128 0x21
 6379 0220 00       		.byte	0
 6380 0221 00       		.byte	0
 6381 0222 00       		.byte	0
 6382 0223 26       		.uleb128 0x26
 6383 0224 2E       		.uleb128 0x2e
 6384 0225 00       		.byte	0
 6385 0226 3F       		.uleb128 0x3f
ARM GAS  C:\Users\TERENC~1\AppData\Local\Temp\ccl7zEj9.s 			page 124


 6386 0227 19       		.uleb128 0x19
 6387 0228 3C       		.uleb128 0x3c
 6388 0229 19       		.uleb128 0x19
 6389 022a 6E       		.uleb128 0x6e
 6390 022b 0E       		.uleb128 0xe
 6391 022c 03       		.uleb128 0x3
 6392 022d 0E       		.uleb128 0xe
 6393 022e 3A       		.uleb128 0x3a
 6394 022f 0B       		.uleb128 0xb
 6395 0230 3B       		.uleb128 0x3b
 6396 0231 0B       		.uleb128 0xb
 6397 0232 00       		.byte	0
 6398 0233 00       		.byte	0
 6399 0234 27       		.uleb128 0x27
 6400 0235 2E       		.uleb128 0x2e
 6401 0236 00       		.byte	0
 6402 0237 3F       		.uleb128 0x3f
 6403 0238 19       		.uleb128 0x19
 6404 0239 3C       		.uleb128 0x3c
 6405 023a 19       		.uleb128 0x19
 6406 023b 6E       		.uleb128 0x6e
 6407 023c 0E       		.uleb128 0xe
 6408 023d 03       		.uleb128 0x3
 6409 023e 0E       		.uleb128 0xe
 6410 023f 3A       		.uleb128 0x3a
 6411 0240 0B       		.uleb128 0xb
 6412 0241 3B       		.uleb128 0x3b
 6413 0242 05       		.uleb128 0x5
 6414 0243 00       		.byte	0
 6415 0244 00       		.byte	0
 6416 0245 28       		.uleb128 0x28
 6417 0246 2E       		.uleb128 0x2e
 6418 0247 00       		.byte	0
 6419 0248 3F       		.uleb128 0x3f
 6420 0249 19       		.uleb128 0x19
 6421 024a 3C       		.uleb128 0x3c
 6422 024b 19       		.uleb128 0x19
 6423 024c 6E       		.uleb128 0x6e
 6424 024d 0E       		.uleb128 0xe
 6425 024e 03       		.uleb128 0x3
 6426 024f 0E       		.uleb128 0xe
 6427 0250 00       		.byte	0
 6428 0251 00       		.byte	0
 6429 0252 00       		.byte	0
 6430              		.section	.debug_loc,"",%progbits
 6431              	.Ldebug_loc0:
 6432              	.LLST0:
 6433 0000 00000000 		.4byte	.LVL0
 6434 0004 06000000 		.4byte	.LVL2
 6435 0008 0100     		.2byte	0x1
 6436 000a 50       		.byte	0x50
 6437 000b 06000000 		.4byte	.LVL2
 6438 000f C4000000 		.4byte	.LFE3
 6439 0013 0400     		.2byte	0x4
 6440 0015 F3       		.byte	0xf3
 6441 0016 01       		.uleb128 0x1
 6442 0017 50       		.byte	0x50
ARM GAS  C:\Users\TERENC~1\AppData\Local\Temp\ccl7zEj9.s 			page 125


 6443 0018 9F       		.byte	0x9f
 6444 0019 00000000 		.4byte	0
 6445 001d 00000000 		.4byte	0
 6446              	.LLST1:
 6447 0021 6C000000 		.4byte	.LVL18
 6448 0025 96000000 		.4byte	.LVL22
 6449 0029 0100     		.2byte	0x1
 6450 002b 55       		.byte	0x55
 6451 002c A0000000 		.4byte	.LVL23
 6452 0030 A8000000 		.4byte	.LVL24
 6453 0034 0100     		.2byte	0x1
 6454 0036 55       		.byte	0x55
 6455 0037 00000000 		.4byte	0
 6456 003b 00000000 		.4byte	0
 6457              	.LLST2:
 6458 003f 68000000 		.4byte	.LVL17
 6459 0043 6C000000 		.4byte	.LVL18
 6460 0047 0100     		.2byte	0x1
 6461 0049 50       		.byte	0x50
 6462 004a 6C000000 		.4byte	.LVL18
 6463 004e B4000000 		.4byte	.LVL26
 6464 0052 0100     		.2byte	0x1
 6465 0054 54       		.byte	0x54
 6466 0055 00000000 		.4byte	0
 6467 0059 00000000 		.4byte	0
 6468              	.LLST3:
 6469 005d 04000000 		.4byte	.LVL1
 6470 0061 AA000000 		.4byte	.LVL25
 6471 0065 0200     		.2byte	0x2
 6472 0067 30       		.byte	0x30
 6473 0068 9F       		.byte	0x9f
 6474 0069 AA000000 		.4byte	.LVL25
 6475 006d C4000000 		.4byte	.LFE3
 6476 0071 0100     		.2byte	0x1
 6477 0073 50       		.byte	0x50
 6478 0074 00000000 		.4byte	0
 6479 0078 00000000 		.4byte	0
 6480              	.LLST4:
 6481 007c 00000000 		.4byte	.LVL28
 6482 0080 1A000000 		.4byte	.LVL31
 6483 0084 0100     		.2byte	0x1
 6484 0086 50       		.byte	0x50
 6485 0087 1A000000 		.4byte	.LVL31
 6486 008b E0000000 		.4byte	.LFE8
 6487 008f 0200     		.2byte	0x2
 6488 0091 91       		.byte	0x91
 6489 0092 64       		.sleb128 -28
 6490 0093 00000000 		.4byte	0
 6491 0097 00000000 		.4byte	0
 6492              	.LLST5:
 6493 009b 00000000 		.4byte	.LVL28
 6494 009f 1A000000 		.4byte	.LVL31
 6495 00a3 0100     		.2byte	0x1
 6496 00a5 51       		.byte	0x51
 6497 00a6 1A000000 		.4byte	.LVL31
 6498 00aa CA000000 		.4byte	.LVL54
 6499 00ae 0100     		.2byte	0x1
ARM GAS  C:\Users\TERENC~1\AppData\Local\Temp\ccl7zEj9.s 			page 126


 6500 00b0 56       		.byte	0x56
 6501 00b1 CA000000 		.4byte	.LVL54
 6502 00b5 E0000000 		.4byte	.LFE8
 6503 00b9 0400     		.2byte	0x4
 6504 00bb F3       		.byte	0xf3
 6505 00bc 01       		.uleb128 0x1
 6506 00bd 51       		.byte	0x51
 6507 00be 9F       		.byte	0x9f
 6508 00bf 00000000 		.4byte	0
 6509 00c3 00000000 		.4byte	0
 6510              	.LLST6:
 6511 00c7 00000000 		.4byte	.LVL28
 6512 00cb 1A000000 		.4byte	.LVL31
 6513 00cf 0100     		.2byte	0x1
 6514 00d1 52       		.byte	0x52
 6515 00d2 1A000000 		.4byte	.LVL31
 6516 00d6 AC000000 		.4byte	.LVL45
 6517 00da 0100     		.2byte	0x1
 6518 00dc 55       		.byte	0x55
 6519 00dd AC000000 		.4byte	.LVL45
 6520 00e1 B8000000 		.4byte	.LVL48
 6521 00e5 0400     		.2byte	0x4
 6522 00e7 F3       		.byte	0xf3
 6523 00e8 01       		.uleb128 0x1
 6524 00e9 52       		.byte	0x52
 6525 00ea 9F       		.byte	0x9f
 6526 00eb B8000000 		.4byte	.LVL48
 6527 00ef BA000000 		.4byte	.LVL49
 6528 00f3 0100     		.2byte	0x1
 6529 00f5 55       		.byte	0x55
 6530 00f6 BA000000 		.4byte	.LVL49
 6531 00fa C6000000 		.4byte	.LVL52
 6532 00fe 0400     		.2byte	0x4
 6533 0100 F3       		.byte	0xf3
 6534 0101 01       		.uleb128 0x1
 6535 0102 52       		.byte	0x52
 6536 0103 9F       		.byte	0x9f
 6537 0104 C6000000 		.4byte	.LVL52
 6538 0108 C8000000 		.4byte	.LVL53
 6539 010c 0100     		.2byte	0x1
 6540 010e 55       		.byte	0x55
 6541 010f C8000000 		.4byte	.LVL53
 6542 0113 E0000000 		.4byte	.LFE8
 6543 0117 0400     		.2byte	0x4
 6544 0119 F3       		.byte	0xf3
 6545 011a 01       		.uleb128 0x1
 6546 011b 52       		.byte	0x52
 6547 011c 9F       		.byte	0x9f
 6548 011d 00000000 		.4byte	0
 6549 0121 00000000 		.4byte	0
 6550              	.LLST7:
 6551 0125 00000000 		.4byte	.LVL28
 6552 0129 12000000 		.4byte	.LVL29
 6553 012d 0100     		.2byte	0x1
 6554 012f 53       		.byte	0x53
 6555 0130 12000000 		.4byte	.LVL29
 6556 0134 CA000000 		.4byte	.LVL55
ARM GAS  C:\Users\TERENC~1\AppData\Local\Temp\ccl7zEj9.s 			page 127


 6557 0138 0100     		.2byte	0x1
 6558 013a 57       		.byte	0x57
 6559 013b CA000000 		.4byte	.LVL55
 6560 013f E0000000 		.4byte	.LFE8
 6561 0143 0400     		.2byte	0x4
 6562 0145 F3       		.byte	0xf3
 6563 0146 01       		.uleb128 0x1
 6564 0147 53       		.byte	0x53
 6565 0148 9F       		.byte	0x9f
 6566 0149 00000000 		.4byte	0
 6567 014d 00000000 		.4byte	0
 6568              	.LLST8:
 6569 0151 00000000 		.4byte	.LVL28
 6570 0155 12000000 		.4byte	.LVL29
 6571 0159 0200     		.2byte	0x2
 6572 015b 91       		.byte	0x91
 6573 015c 00       		.sleb128 0
 6574 015d 12000000 		.4byte	.LVL29
 6575 0161 14000000 		.4byte	.LVL30
 6576 0165 0200     		.2byte	0x2
 6577 0167 73       		.byte	0x73
 6578 0168 00       		.sleb128 0
 6579 0169 14000000 		.4byte	.LVL30
 6580 016d E0000000 		.4byte	.LFE8
 6581 0171 0200     		.2byte	0x2
 6582 0173 91       		.byte	0x91
 6583 0174 00       		.sleb128 0
 6584 0175 00000000 		.4byte	0
 6585 0179 00000000 		.4byte	0
 6586              	.LLST9:
 6587 017d 1A000000 		.4byte	.LVL31
 6588 0181 34000000 		.4byte	.LVL33
 6589 0185 0100     		.2byte	0x1
 6590 0187 54       		.byte	0x54
 6591 0188 7C000000 		.4byte	.LVL41
 6592 018c AC000000 		.4byte	.LVL45
 6593 0190 0100     		.2byte	0x1
 6594 0192 54       		.byte	0x54
 6595 0193 B8000000 		.4byte	.LVL48
 6596 0197 BA000000 		.4byte	.LVL49
 6597 019b 0100     		.2byte	0x1
 6598 019d 54       		.byte	0x54
 6599 019e 00000000 		.4byte	0
 6600 01a2 00000000 		.4byte	0
 6601              	.LLST10:
 6602 01a6 AC000000 		.4byte	.LVL45
 6603 01aa B8000000 		.4byte	.LVL48
 6604 01ae 0100     		.2byte	0x1
 6605 01b0 54       		.byte	0x54
 6606 01b1 BA000000 		.4byte	.LVL49
 6607 01b5 BE000000 		.4byte	.LVL50
 6608 01b9 0100     		.2byte	0x1
 6609 01bb 54       		.byte	0x54
 6610 01bc 00000000 		.4byte	0
 6611 01c0 00000000 		.4byte	0
 6612              	.LLST11:
 6613 01c4 46000000 		.4byte	.LVL35
ARM GAS  C:\Users\TERENC~1\AppData\Local\Temp\ccl7zEj9.s 			page 128


 6614 01c8 5C000000 		.4byte	.LVL37
 6615 01cc 0100     		.2byte	0x1
 6616 01ce 54       		.byte	0x54
 6617 01cf 00000000 		.4byte	0
 6618 01d3 00000000 		.4byte	0
 6619              	.LLST12:
 6620 01d7 00000000 		.4byte	.LVL56
 6621 01db 10000000 		.4byte	.LVL58
 6622 01df 0100     		.2byte	0x1
 6623 01e1 50       		.byte	0x50
 6624 01e2 10000000 		.4byte	.LVL58
 6625 01e6 5E000000 		.4byte	.LFE9
 6626 01ea 0400     		.2byte	0x4
 6627 01ec F3       		.byte	0xf3
 6628 01ed 01       		.uleb128 0x1
 6629 01ee 50       		.byte	0x50
 6630 01ef 9F       		.byte	0x9f
 6631 01f0 00000000 		.4byte	0
 6632 01f4 00000000 		.4byte	0
 6633              	.LLST13:
 6634 01f8 00000000 		.4byte	.LVL56
 6635 01fc 13000000 		.4byte	.LVL59-1
 6636 0200 0100     		.2byte	0x1
 6637 0202 51       		.byte	0x51
 6638 0203 13000000 		.4byte	.LVL59-1
 6639 0207 5E000000 		.4byte	.LFE9
 6640 020b 0400     		.2byte	0x4
 6641 020d F3       		.byte	0xf3
 6642 020e 01       		.uleb128 0x1
 6643 020f 51       		.byte	0x51
 6644 0210 9F       		.byte	0x9f
 6645 0211 00000000 		.4byte	0
 6646 0215 00000000 		.4byte	0
 6647              	.LLST14:
 6648 0219 00000000 		.4byte	.LVL56
 6649 021d 13000000 		.4byte	.LVL59-1
 6650 0221 0100     		.2byte	0x1
 6651 0223 52       		.byte	0x52
 6652 0224 13000000 		.4byte	.LVL59-1
 6653 0228 5E000000 		.4byte	.LFE9
 6654 022c 0200     		.2byte	0x2
 6655 022e 91       		.byte	0x91
 6656 022f 60       		.sleb128 -32
 6657 0230 00000000 		.4byte	0
 6658 0234 00000000 		.4byte	0
 6659              	.LLST15:
 6660 0238 00000000 		.4byte	.LVL56
 6661 023c 13000000 		.4byte	.LVL59-1
 6662 0240 0100     		.2byte	0x1
 6663 0242 53       		.byte	0x53
 6664 0243 13000000 		.4byte	.LVL59-1
 6665 0247 5E000000 		.4byte	.LFE9
 6666 024b 0200     		.2byte	0x2
 6667 024d 91       		.byte	0x91
 6668 024e 64       		.sleb128 -28
 6669 024f 00000000 		.4byte	0
 6670 0253 00000000 		.4byte	0
ARM GAS  C:\Users\TERENC~1\AppData\Local\Temp\ccl7zEj9.s 			page 129


 6671              	.LLST16:
 6672 0257 0C000000 		.4byte	.LVL57
 6673 025b 4A000000 		.4byte	.LVL64
 6674 025f 0200     		.2byte	0x2
 6675 0261 30       		.byte	0x30
 6676 0262 9F       		.byte	0x9f
 6677 0263 4A000000 		.4byte	.LVL64
 6678 0267 5C000000 		.4byte	.LVL66
 6679 026b 0100     		.2byte	0x1
 6680 026d 54       		.byte	0x54
 6681 026e 00000000 		.4byte	0
 6682 0272 00000000 		.4byte	0
 6683              	.LLST17:
 6684 0276 16000000 		.4byte	.LVL60
 6685 027a 32000000 		.4byte	.LVL61
 6686 027e 0100     		.2byte	0x1
 6687 0280 50       		.byte	0x50
 6688 0281 32000000 		.4byte	.LVL61
 6689 0285 5C000000 		.4byte	.LVL67
 6690 0289 0100     		.2byte	0x1
 6691 028b 57       		.byte	0x57
 6692 028c 00000000 		.4byte	0
 6693 0290 00000000 		.4byte	0
 6694              	.LLST18:
 6695 0294 00000000 		.4byte	.LVL68
 6696 0298 0A000000 		.4byte	.LVL70
 6697 029c 0100     		.2byte	0x1
 6698 029e 50       		.byte	0x50
 6699 029f 0A000000 		.4byte	.LVL70
 6700 02a3 3C000000 		.4byte	.LFE11
 6701 02a7 0400     		.2byte	0x4
 6702 02a9 F3       		.byte	0xf3
 6703 02aa 01       		.uleb128 0x1
 6704 02ab 50       		.byte	0x50
 6705 02ac 9F       		.byte	0x9f
 6706 02ad 00000000 		.4byte	0
 6707 02b1 00000000 		.4byte	0
 6708              	.LLST19:
 6709 02b5 00000000 		.4byte	.LVL68
 6710 02b9 0D000000 		.4byte	.LVL71-1
 6711 02bd 0100     		.2byte	0x1
 6712 02bf 51       		.byte	0x51
 6713 02c0 0D000000 		.4byte	.LVL71-1
 6714 02c4 28000000 		.4byte	.LVL74
 6715 02c8 0100     		.2byte	0x1
 6716 02ca 55       		.byte	0x55
 6717 02cb 28000000 		.4byte	.LVL74
 6718 02cf 3C000000 		.4byte	.LFE11
 6719 02d3 0400     		.2byte	0x4
 6720 02d5 F3       		.byte	0xf3
 6721 02d6 01       		.uleb128 0x1
 6722 02d7 51       		.byte	0x51
 6723 02d8 9F       		.byte	0x9f
 6724 02d9 00000000 		.4byte	0
 6725 02dd 00000000 		.4byte	0
 6726              	.LLST20:
 6727 02e1 08000000 		.4byte	.LVL69
ARM GAS  C:\Users\TERENC~1\AppData\Local\Temp\ccl7zEj9.s 			page 130


 6728 02e5 28000000 		.4byte	.LVL74
 6729 02e9 0200     		.2byte	0x2
 6730 02eb 30       		.byte	0x30
 6731 02ec 9F       		.byte	0x9f
 6732 02ed 28000000 		.4byte	.LVL74
 6733 02f1 3A000000 		.4byte	.LVL77
 6734 02f5 0100     		.2byte	0x1
 6735 02f7 55       		.byte	0x55
 6736 02f8 00000000 		.4byte	0
 6737 02fc 00000000 		.4byte	0
 6738              	.LLST21:
 6739 0300 10000000 		.4byte	.LVL72
 6740 0304 25000000 		.4byte	.LVL73-1
 6741 0308 0100     		.2byte	0x1
 6742 030a 50       		.byte	0x50
 6743 030b 25000000 		.4byte	.LVL73-1
 6744 030f 3A000000 		.4byte	.LVL76
 6745 0313 0100     		.2byte	0x1
 6746 0315 54       		.byte	0x54
 6747 0316 00000000 		.4byte	0
 6748 031a 00000000 		.4byte	0
 6749              	.LLST22:
 6750 031e 00000000 		.4byte	.LVL78
 6751 0322 0E000000 		.4byte	.LVL80
 6752 0326 0100     		.2byte	0x1
 6753 0328 50       		.byte	0x50
 6754 0329 0E000000 		.4byte	.LVL80
 6755 032d 5E000000 		.4byte	.LFE12
 6756 0331 0400     		.2byte	0x4
 6757 0333 F3       		.byte	0xf3
 6758 0334 01       		.uleb128 0x1
 6759 0335 50       		.byte	0x50
 6760 0336 9F       		.byte	0x9f
 6761 0337 00000000 		.4byte	0
 6762 033b 00000000 		.4byte	0
 6763              	.LLST23:
 6764 033f 00000000 		.4byte	.LVL78
 6765 0343 11000000 		.4byte	.LVL81-1
 6766 0347 0100     		.2byte	0x1
 6767 0349 51       		.byte	0x51
 6768 034a 11000000 		.4byte	.LVL81-1
 6769 034e 5C000000 		.4byte	.LVL89
 6770 0352 0100     		.2byte	0x1
 6771 0354 56       		.byte	0x56
 6772 0355 5C000000 		.4byte	.LVL89
 6773 0359 5E000000 		.4byte	.LFE12
 6774 035d 0400     		.2byte	0x4
 6775 035f F3       		.byte	0xf3
 6776 0360 01       		.uleb128 0x1
 6777 0361 51       		.byte	0x51
 6778 0362 9F       		.byte	0x9f
 6779 0363 00000000 		.4byte	0
 6780 0367 00000000 		.4byte	0
 6781              	.LLST24:
 6782 036b 00000000 		.4byte	.LVL78
 6783 036f 11000000 		.4byte	.LVL81-1
 6784 0373 0100     		.2byte	0x1
ARM GAS  C:\Users\TERENC~1\AppData\Local\Temp\ccl7zEj9.s 			page 131


 6785 0375 52       		.byte	0x52
 6786 0376 11000000 		.4byte	.LVL81-1
 6787 037a 5E000000 		.4byte	.LFE12
 6788 037e 0200     		.2byte	0x2
 6789 0380 91       		.byte	0x91
 6790 0381 64       		.sleb128 -28
 6791 0382 00000000 		.4byte	0
 6792 0386 00000000 		.4byte	0
 6793              	.LLST25:
 6794 038a 0A000000 		.4byte	.LVL79
 6795 038e 4A000000 		.4byte	.LVL86
 6796 0392 0200     		.2byte	0x2
 6797 0394 30       		.byte	0x30
 6798 0395 9F       		.byte	0x9f
 6799 0396 4A000000 		.4byte	.LVL86
 6800 039a 5C000000 		.4byte	.LVL88
 6801 039e 0100     		.2byte	0x1
 6802 03a0 54       		.byte	0x54
 6803 03a1 00000000 		.4byte	0
 6804 03a5 00000000 		.4byte	0
 6805              	.LLST26:
 6806 03a9 14000000 		.4byte	.LVL82
 6807 03ad 32000000 		.4byte	.LVL83
 6808 03b1 0100     		.2byte	0x1
 6809 03b3 50       		.byte	0x50
 6810 03b4 32000000 		.4byte	.LVL83
 6811 03b8 5C000000 		.4byte	.LVL90
 6812 03bc 0100     		.2byte	0x1
 6813 03be 57       		.byte	0x57
 6814 03bf 00000000 		.4byte	0
 6815 03c3 00000000 		.4byte	0
 6816              	.LLST27:
 6817 03c7 00000000 		.4byte	.LVL91
 6818 03cb 0E000000 		.4byte	.LVL93
 6819 03cf 0100     		.2byte	0x1
 6820 03d1 50       		.byte	0x50
 6821 03d2 0E000000 		.4byte	.LVL93
 6822 03d6 4E000000 		.4byte	.LFE10
 6823 03da 0400     		.2byte	0x4
 6824 03dc F3       		.byte	0xf3
 6825 03dd 01       		.uleb128 0x1
 6826 03de 50       		.byte	0x50
 6827 03df 9F       		.byte	0x9f
 6828 03e0 00000000 		.4byte	0
 6829 03e4 00000000 		.4byte	0
 6830              	.LLST28:
 6831 03e8 00000000 		.4byte	.LVL91
 6832 03ec 11000000 		.4byte	.LVL94-1
 6833 03f0 0100     		.2byte	0x1
 6834 03f2 51       		.byte	0x51
 6835 03f3 11000000 		.4byte	.LVL94-1
 6836 03f7 4E000000 		.4byte	.LFE10
 6837 03fb 0200     		.2byte	0x2
 6838 03fd 91       		.byte	0x91
 6839 03fe 64       		.sleb128 -28
 6840 03ff 00000000 		.4byte	0
 6841 0403 00000000 		.4byte	0
ARM GAS  C:\Users\TERENC~1\AppData\Local\Temp\ccl7zEj9.s 			page 132


 6842              	.LLST29:
 6843 0407 00000000 		.4byte	.LVL91
 6844 040b 11000000 		.4byte	.LVL94-1
 6845 040f 0100     		.2byte	0x1
 6846 0411 52       		.byte	0x52
 6847 0412 11000000 		.4byte	.LVL94-1
 6848 0416 4C000000 		.4byte	.LVL102
 6849 041a 0100     		.2byte	0x1
 6850 041c 57       		.byte	0x57
 6851 041d 4C000000 		.4byte	.LVL102
 6852 0421 4E000000 		.4byte	.LFE10
 6853 0425 0400     		.2byte	0x4
 6854 0427 F3       		.byte	0xf3
 6855 0428 01       		.uleb128 0x1
 6856 0429 52       		.byte	0x52
 6857 042a 9F       		.byte	0x9f
 6858 042b 00000000 		.4byte	0
 6859 042f 00000000 		.4byte	0
 6860              	.LLST30:
 6861 0433 0A000000 		.4byte	.LVL92
 6862 0437 3A000000 		.4byte	.LVL98
 6863 043b 0200     		.2byte	0x2
 6864 043d 30       		.byte	0x30
 6865 043e 9F       		.byte	0x9f
 6866 043f 3A000000 		.4byte	.LVL98
 6867 0443 4C000000 		.4byte	.LVL101
 6868 0447 0100     		.2byte	0x1
 6869 0449 55       		.byte	0x55
 6870 044a 00000000 		.4byte	0
 6871 044e 00000000 		.4byte	0
 6872              	.LLST31:
 6873 0452 14000000 		.4byte	.LVL95
 6874 0456 1B000000 		.4byte	.LVL96-1
 6875 045a 0100     		.2byte	0x1
 6876 045c 50       		.byte	0x50
 6877 045d 1B000000 		.4byte	.LVL96-1
 6878 0461 4C000000 		.4byte	.LVL100
 6879 0465 0100     		.2byte	0x1
 6880 0467 54       		.byte	0x54
 6881 0468 00000000 		.4byte	0
 6882 046c 00000000 		.4byte	0
 6883              	.LLST32:
 6884 0470 0E000000 		.4byte	.LVL105
 6885 0474 14000000 		.4byte	.LVL107
 6886 0478 0100     		.2byte	0x1
 6887 047a 54       		.byte	0x54
 6888 047b 00000000 		.4byte	0
 6889 047f 00000000 		.4byte	0
 6890              	.LLST33:
 6891 0483 0E000000 		.4byte	.LVL110
 6892 0487 14000000 		.4byte	.LVL112
 6893 048b 0100     		.2byte	0x1
 6894 048d 54       		.byte	0x54
 6895 048e 00000000 		.4byte	0
 6896 0492 00000000 		.4byte	0
 6897              	.LLST34:
 6898 0496 04000000 		.4byte	.LVL113
ARM GAS  C:\Users\TERENC~1\AppData\Local\Temp\ccl7zEj9.s 			page 133


 6899 049a 30000000 		.4byte	.LVL118
 6900 049e 0200     		.2byte	0x2
 6901 04a0 30       		.byte	0x30
 6902 04a1 9F       		.byte	0x9f
 6903 04a2 30000000 		.4byte	.LVL118
 6904 04a6 32000000 		.4byte	.LVL119
 6905 04aa 0100     		.2byte	0x1
 6906 04ac 54       		.byte	0x54
 6907 04ad 34000000 		.4byte	.LVL120
 6908 04b1 40000000 		.4byte	.LVL123
 6909 04b5 0100     		.2byte	0x1
 6910 04b7 54       		.byte	0x54
 6911 04b8 40000000 		.4byte	.LVL123
 6912 04bc 42000000 		.4byte	.LVL124
 6913 04c0 0200     		.2byte	0x2
 6914 04c2 30       		.byte	0x30
 6915 04c3 9F       		.byte	0x9f
 6916 04c4 42000000 		.4byte	.LVL124
 6917 04c8 52000000 		.4byte	.LVL127
 6918 04cc 0100     		.2byte	0x1
 6919 04ce 54       		.byte	0x54
 6920 04cf 00000000 		.4byte	0
 6921 04d3 00000000 		.4byte	0
 6922              	.LLST35:
 6923 04d7 18000000 		.4byte	.LVL115
 6924 04db 2E000000 		.4byte	.LVL117
 6925 04df 0100     		.2byte	0x1
 6926 04e1 54       		.byte	0x54
 6927 04e2 40000000 		.4byte	.LVL123
 6928 04e6 42000000 		.4byte	.LVL124
 6929 04ea 0100     		.2byte	0x1
 6930 04ec 54       		.byte	0x54
 6931 04ed 00000000 		.4byte	0
 6932 04f1 00000000 		.4byte	0
 6933              	.LLST36:
 6934 04f5 00000000 		.4byte	.LVL128
 6935 04f9 0C000000 		.4byte	.LVL129
 6936 04fd 0100     		.2byte	0x1
 6937 04ff 50       		.byte	0x50
 6938 0500 0C000000 		.4byte	.LVL129
 6939 0504 30000000 		.4byte	.LFE2
 6940 0508 0400     		.2byte	0x4
 6941 050a F3       		.byte	0xf3
 6942 050b 01       		.uleb128 0x1
 6943 050c 50       		.byte	0x50
 6944 050d 9F       		.byte	0x9f
 6945 050e 00000000 		.4byte	0
 6946 0512 00000000 		.4byte	0
 6947              	.LLST37:
 6948 0516 00000000 		.4byte	.LVL128
 6949 051a 0C000000 		.4byte	.LVL129
 6950 051e 0100     		.2byte	0x1
 6951 0520 51       		.byte	0x51
 6952 0521 0C000000 		.4byte	.LVL129
 6953 0525 2A000000 		.4byte	.LVL133
 6954 0529 0100     		.2byte	0x1
 6955 052b 57       		.byte	0x57
ARM GAS  C:\Users\TERENC~1\AppData\Local\Temp\ccl7zEj9.s 			page 134


 6956 052c 2A000000 		.4byte	.LVL133
 6957 0530 30000000 		.4byte	.LFE2
 6958 0534 0400     		.2byte	0x4
 6959 0536 F3       		.byte	0xf3
 6960 0537 01       		.uleb128 0x1
 6961 0538 51       		.byte	0x51
 6962 0539 9F       		.byte	0x9f
 6963 053a 00000000 		.4byte	0
 6964 053e 00000000 		.4byte	0
 6965              	.LLST38:
 6966 0542 00000000 		.4byte	.LVL128
 6967 0546 0C000000 		.4byte	.LVL129
 6968 054a 0100     		.2byte	0x1
 6969 054c 52       		.byte	0x52
 6970 054d 0C000000 		.4byte	.LVL129
 6971 0551 2A000000 		.4byte	.LVL131
 6972 0555 0100     		.2byte	0x1
 6973 0557 55       		.byte	0x55
 6974 0558 2A000000 		.4byte	.LVL131
 6975 055c 30000000 		.4byte	.LFE2
 6976 0560 0400     		.2byte	0x4
 6977 0562 F3       		.byte	0xf3
 6978 0563 01       		.uleb128 0x1
 6979 0564 52       		.byte	0x52
 6980 0565 9F       		.byte	0x9f
 6981 0566 00000000 		.4byte	0
 6982 056a 00000000 		.4byte	0
 6983              	.LLST39:
 6984 056e 0C000000 		.4byte	.LVL129
 6985 0572 2A000000 		.4byte	.LVL132
 6986 0576 0100     		.2byte	0x1
 6987 0578 56       		.byte	0x56
 6988 0579 00000000 		.4byte	0
 6989 057d 00000000 		.4byte	0
 6990              	.LLST40:
 6991 0581 00000000 		.4byte	.LVL134
 6992 0585 0C000000 		.4byte	.LVL136
 6993 0589 0100     		.2byte	0x1
 6994 058b 50       		.byte	0x50
 6995 058c 0C000000 		.4byte	.LVL136
 6996 0590 D8000000 		.4byte	.LFE13
 6997 0594 0400     		.2byte	0x4
 6998 0596 F3       		.byte	0xf3
 6999 0597 01       		.uleb128 0x1
 7000 0598 50       		.byte	0x50
 7001 0599 9F       		.byte	0x9f
 7002 059a 00000000 		.4byte	0
 7003 059e 00000000 		.4byte	0
 7004              	.LLST41:
 7005 05a2 00000000 		.4byte	.LVL134
 7006 05a6 0F000000 		.4byte	.LVL137-1
 7007 05aa 0100     		.2byte	0x1
 7008 05ac 51       		.byte	0x51
 7009 05ad 0F000000 		.4byte	.LVL137-1
 7010 05b1 D8000000 		.4byte	.LFE13
 7011 05b5 0400     		.2byte	0x4
 7012 05b7 F3       		.byte	0xf3
ARM GAS  C:\Users\TERENC~1\AppData\Local\Temp\ccl7zEj9.s 			page 135


 7013 05b8 01       		.uleb128 0x1
 7014 05b9 51       		.byte	0x51
 7015 05ba 9F       		.byte	0x9f
 7016 05bb 00000000 		.4byte	0
 7017 05bf 00000000 		.4byte	0
 7018              	.LLST42:
 7019 05c3 00000000 		.4byte	.LVL134
 7020 05c7 0F000000 		.4byte	.LVL137-1
 7021 05cb 0100     		.2byte	0x1
 7022 05cd 52       		.byte	0x52
 7023 05ce 0F000000 		.4byte	.LVL137-1
 7024 05d2 D8000000 		.4byte	.LFE13
 7025 05d6 0400     		.2byte	0x4
 7026 05d8 F3       		.byte	0xf3
 7027 05d9 01       		.uleb128 0x1
 7028 05da 52       		.byte	0x52
 7029 05db 9F       		.byte	0x9f
 7030 05dc 00000000 		.4byte	0
 7031 05e0 00000000 		.4byte	0
 7032              	.LLST43:
 7033 05e4 0A000000 		.4byte	.LVL135
 7034 05e8 5C000000 		.4byte	.LVL141
 7035 05ec 0200     		.2byte	0x2
 7036 05ee 30       		.byte	0x30
 7037 05ef 9F       		.byte	0x9f
 7038 05f0 5C000000 		.4byte	.LVL141
 7039 05f4 BC000000 		.4byte	.LVL150
 7040 05f8 0100     		.2byte	0x1
 7041 05fa 54       		.byte	0x54
 7042 05fb 00000000 		.4byte	0
 7043 05ff 00000000 		.4byte	0
 7044              	.LLST44:
 7045 0603 12000000 		.4byte	.LVL138
 7046 0607 56000000 		.4byte	.LVL139
 7047 060b 0100     		.2byte	0x1
 7048 060d 50       		.byte	0x50
 7049 060e 56000000 		.4byte	.LVL139
 7050 0612 59000000 		.4byte	.LVL140-1
 7051 0616 0100     		.2byte	0x1
 7052 0618 52       		.byte	0x52
 7053 0619 59000000 		.4byte	.LVL140-1
 7054 061d BC000000 		.4byte	.LVL151
 7055 0621 0100     		.2byte	0x1
 7056 0623 56       		.byte	0x56
 7057 0624 00000000 		.4byte	0
 7058 0628 00000000 		.4byte	0
 7059              	.LLST45:
 7060 062c 84000000 		.4byte	.LVL145
 7061 0630 9A000000 		.4byte	.LVL147
 7062 0634 0100     		.2byte	0x1
 7063 0636 55       		.byte	0x55
 7064 0637 00000000 		.4byte	0
 7065 063b 00000000 		.4byte	0
 7066              	.LLST46:
 7067 063f 04000000 		.4byte	.LVL152
 7068 0643 1C000000 		.4byte	.LVL154
 7069 0647 0200     		.2byte	0x2
ARM GAS  C:\Users\TERENC~1\AppData\Local\Temp\ccl7zEj9.s 			page 136


 7070 0649 30       		.byte	0x30
 7071 064a 9F       		.byte	0x9f
 7072 064b 1C000000 		.4byte	.LVL154
 7073 064f 28000000 		.4byte	.LVL155
 7074 0653 0100     		.2byte	0x1
 7075 0655 50       		.byte	0x50
 7076 0656 00000000 		.4byte	0
 7077 065a 00000000 		.4byte	0
 7078              	.LLST47:
 7079 065e 3C000000 		.4byte	.LVL158
 7080 0662 52000000 		.4byte	.LVL160
 7081 0666 0100     		.2byte	0x1
 7082 0668 55       		.byte	0x55
 7083 0669 00000000 		.4byte	0
 7084 066d 00000000 		.4byte	0
 7085              	.LLST48:
 7086 0671 04000000 		.4byte	.LVL163
 7087 0675 1C000000 		.4byte	.LVL165
 7088 0679 0200     		.2byte	0x2
 7089 067b 30       		.byte	0x30
 7090 067c 9F       		.byte	0x9f
 7091 067d 1C000000 		.4byte	.LVL165
 7092 0681 28000000 		.4byte	.LVL166
 7093 0685 0100     		.2byte	0x1
 7094 0687 50       		.byte	0x50
 7095 0688 00000000 		.4byte	0
 7096 068c 00000000 		.4byte	0
 7097              	.LLST49:
 7098 0690 3C000000 		.4byte	.LVL169
 7099 0694 52000000 		.4byte	.LVL171
 7100 0698 0100     		.2byte	0x1
 7101 069a 55       		.byte	0x55
 7102 069b 00000000 		.4byte	0
 7103 069f 00000000 		.4byte	0
 7104              	.LLST50:
 7105 06a3 00000000 		.4byte	.LVL174
 7106 06a7 08000000 		.4byte	.LVL176
 7107 06ab 0100     		.2byte	0x1
 7108 06ad 50       		.byte	0x50
 7109 06ae 08000000 		.4byte	.LVL176
 7110 06b2 16010000 		.4byte	.LVL202
 7111 06b6 0100     		.2byte	0x1
 7112 06b8 54       		.byte	0x54
 7113 06b9 16010000 		.4byte	.LVL202
 7114 06bd 38010000 		.4byte	.LFE16
 7115 06c1 0400     		.2byte	0x4
 7116 06c3 F3       		.byte	0xf3
 7117 06c4 01       		.uleb128 0x1
 7118 06c5 50       		.byte	0x50
 7119 06c6 9F       		.byte	0x9f
 7120 06c7 00000000 		.4byte	0
 7121 06cb 00000000 		.4byte	0
 7122              	.LLST51:
 7123 06cf 06000000 		.4byte	.LVL175
 7124 06d3 58000000 		.4byte	.LVL181
 7125 06d7 0200     		.2byte	0x2
 7126 06d9 30       		.byte	0x30
ARM GAS  C:\Users\TERENC~1\AppData\Local\Temp\ccl7zEj9.s 			page 137


 7127 06da 9F       		.byte	0x9f
 7128 06db 58000000 		.4byte	.LVL181
 7129 06df B4000000 		.4byte	.LVL190
 7130 06e3 0100     		.2byte	0x1
 7131 06e5 55       		.byte	0x55
 7132 06e6 B6000000 		.4byte	.LVL191
 7133 06ea B8000000 		.4byte	.LVL192
 7134 06ee 0100     		.2byte	0x1
 7135 06f0 55       		.byte	0x55
 7136 06f1 BA000000 		.4byte	.LVL193
 7137 06f5 BC000000 		.4byte	.LVL194
 7138 06f9 0100     		.2byte	0x1
 7139 06fb 55       		.byte	0x55
 7140 06fc CC000000 		.4byte	.LVL195
 7141 0700 D3000000 		.4byte	.LVL196-1
 7142 0704 0100     		.2byte	0x1
 7143 0706 50       		.byte	0x50
 7144 0707 00000000 		.4byte	0
 7145 070b 00000000 		.4byte	0
 7146              	.LLST52:
 7147 070f 06000000 		.4byte	.LVL175
 7148 0713 BC000000 		.4byte	.LVL194
 7149 0717 0200     		.2byte	0x2
 7150 0719 31       		.byte	0x31
 7151 071a 9F       		.byte	0x9f
 7152 071b BC000000 		.4byte	.LVL194
 7153 071f 16010000 		.4byte	.LVL203
 7154 0723 0100     		.2byte	0x1
 7155 0725 55       		.byte	0x55
 7156 0726 00000000 		.4byte	0
 7157 072a 00000000 		.4byte	0
 7158              	.LLST53:
 7159 072e 0E000000 		.4byte	.LVL178
 7160 0732 14000000 		.4byte	.LVL179
 7161 0736 0100     		.2byte	0x1
 7162 0738 50       		.byte	0x50
 7163 0739 14000000 		.4byte	.LVL179
 7164 073d 80000000 		.4byte	.LVL185
 7165 0741 0100     		.2byte	0x1
 7166 0743 56       		.byte	0x56
 7167 0744 B6000000 		.4byte	.LVL191
 7168 0748 BC000000 		.4byte	.LVL194
 7169 074c 0100     		.2byte	0x1
 7170 074e 56       		.byte	0x56
 7171 074f 00000000 		.4byte	0
 7172 0753 00000000 		.4byte	0
 7173              	.LLST54:
 7174 0757 80000000 		.4byte	.LVL185
 7175 075b 96000000 		.4byte	.LVL187
 7176 075f 0100     		.2byte	0x1
 7177 0761 56       		.byte	0x56
 7178 0762 00000000 		.4byte	0
 7179 0766 00000000 		.4byte	0
 7180              	.LLST55:
 7181 076a DC000000 		.4byte	.LVL197
 7182 076e F6000000 		.4byte	.LVL199
 7183 0772 0100     		.2byte	0x1
ARM GAS  C:\Users\TERENC~1\AppData\Local\Temp\ccl7zEj9.s 			page 138


 7184 0774 56       		.byte	0x56
 7185 0775 00000000 		.4byte	0
 7186 0779 00000000 		.4byte	0
 7187              	.LLST56:
 7188 077d 12000000 		.4byte	.LVL204
 7189 0781 1C000000 		.4byte	.LVL206
 7190 0785 0200     		.2byte	0x2
 7191 0787 30       		.byte	0x30
 7192 0788 9F       		.byte	0x9f
 7193 0789 1C000000 		.4byte	.LVL206
 7194 078d 21000000 		.4byte	.LVL207-1
 7195 0791 0100     		.2byte	0x1
 7196 0793 50       		.byte	0x50
 7197 0794 5A000000 		.4byte	.LVL213
 7198 0798 60000000 		.4byte	.LVL214
 7199 079c 0100     		.2byte	0x1
 7200 079e 50       		.byte	0x50
 7201 079f 66000000 		.4byte	.LVL216
 7202 07a3 6B000000 		.4byte	.LVL217-1
 7203 07a7 0100     		.2byte	0x1
 7204 07a9 50       		.byte	0x50
 7205 07aa B8000000 		.4byte	.LVL223
 7206 07ae BB000000 		.4byte	.LVL224-1
 7207 07b2 0100     		.2byte	0x1
 7208 07b4 50       		.byte	0x50
 7209 07b5 00000000 		.4byte	0
 7210 07b9 00000000 		.4byte	0
 7211              	.LLST57:
 7212 07bd B8000000 		.4byte	.LVL223
 7213 07c1 DA000000 		.4byte	.LVL227
 7214 07c5 0300     		.2byte	0x3
 7215 07c7 91       		.byte	0x91
 7216 07c8 58       		.sleb128 -40
 7217 07c9 9F       		.byte	0x9f
 7218 07ca DA000000 		.4byte	.LVL227
 7219 07ce DC000000 		.4byte	.LVL228
 7220 07d2 0100     		.2byte	0x1
 7221 07d4 53       		.byte	0x53
 7222 07d5 DC000000 		.4byte	.LVL228
 7223 07d9 16010000 		.4byte	.LVL235
 7224 07dd 0300     		.2byte	0x3
 7225 07df 91       		.byte	0x91
 7226 07e0 58       		.sleb128 -40
 7227 07e1 9F       		.byte	0x9f
 7228 07e2 16010000 		.4byte	.LVL235
 7229 07e6 25010000 		.4byte	.LVL237-1
 7230 07ea 0100     		.2byte	0x1
 7231 07ec 53       		.byte	0x53
 7232 07ed 25010000 		.4byte	.LVL237-1
 7233 07f1 4E010000 		.4byte	.LVL242
 7234 07f5 0300     		.2byte	0x3
 7235 07f7 91       		.byte	0x91
 7236 07f8 58       		.sleb128 -40
 7237 07f9 9F       		.byte	0x9f
 7238 07fa 4E010000 		.4byte	.LVL242
 7239 07fe 5B010000 		.4byte	.LVL244-1
 7240 0802 0100     		.2byte	0x1
ARM GAS  C:\Users\TERENC~1\AppData\Local\Temp\ccl7zEj9.s 			page 139


 7241 0804 53       		.byte	0x53
 7242 0805 5B010000 		.4byte	.LVL244-1
 7243 0809 84010000 		.4byte	.LVL249
 7244 080d 0300     		.2byte	0x3
 7245 080f 91       		.byte	0x91
 7246 0810 58       		.sleb128 -40
 7247 0811 9F       		.byte	0x9f
 7248 0812 84010000 		.4byte	.LVL249
 7249 0816 8F010000 		.4byte	.LVL251-1
 7250 081a 0100     		.2byte	0x1
 7251 081c 53       		.byte	0x53
 7252 081d 8F010000 		.4byte	.LVL251-1
 7253 0821 B8010000 		.4byte	.LVL256
 7254 0825 0300     		.2byte	0x3
 7255 0827 91       		.byte	0x91
 7256 0828 58       		.sleb128 -40
 7257 0829 9F       		.byte	0x9f
 7258 082a B8010000 		.4byte	.LVL256
 7259 082e C3010000 		.4byte	.LVL258-1
 7260 0832 0100     		.2byte	0x1
 7261 0834 53       		.byte	0x53
 7262 0835 C3010000 		.4byte	.LVL258-1
 7263 0839 EC010000 		.4byte	.LVL263
 7264 083d 0300     		.2byte	0x3
 7265 083f 91       		.byte	0x91
 7266 0840 58       		.sleb128 -40
 7267 0841 9F       		.byte	0x9f
 7268 0842 EC010000 		.4byte	.LVL263
 7269 0846 EE010000 		.4byte	.LVL264
 7270 084a 0100     		.2byte	0x1
 7271 084c 53       		.byte	0x53
 7272 084d EE010000 		.4byte	.LVL264
 7273 0851 28020000 		.4byte	.LVL271
 7274 0855 0300     		.2byte	0x3
 7275 0857 91       		.byte	0x91
 7276 0858 58       		.sleb128 -40
 7277 0859 9F       		.byte	0x9f
 7278 085a 28020000 		.4byte	.LVL271
 7279 085e 33020000 		.4byte	.LVL273-1
 7280 0862 0100     		.2byte	0x1
 7281 0864 53       		.byte	0x53
 7282 0865 33020000 		.4byte	.LVL273-1
 7283 0869 5C020000 		.4byte	.LVL278
 7284 086d 0300     		.2byte	0x3
 7285 086f 91       		.byte	0x91
 7286 0870 58       		.sleb128 -40
 7287 0871 9F       		.byte	0x9f
 7288 0872 5C020000 		.4byte	.LVL278
 7289 0876 69020000 		.4byte	.LVL280-1
 7290 087a 0100     		.2byte	0x1
 7291 087c 53       		.byte	0x53
 7292 087d 69020000 		.4byte	.LVL280-1
 7293 0881 92020000 		.4byte	.LVL285
 7294 0885 0300     		.2byte	0x3
 7295 0887 91       		.byte	0x91
 7296 0888 58       		.sleb128 -40
 7297 0889 9F       		.byte	0x9f
ARM GAS  C:\Users\TERENC~1\AppData\Local\Temp\ccl7zEj9.s 			page 140


 7298 088a 92020000 		.4byte	.LVL285
 7299 088e A1020000 		.4byte	.LVL287-1
 7300 0892 0100     		.2byte	0x1
 7301 0894 53       		.byte	0x53
 7302 0895 A1020000 		.4byte	.LVL287-1
 7303 0899 CA020000 		.4byte	.LVL292
 7304 089d 0300     		.2byte	0x3
 7305 089f 91       		.byte	0x91
 7306 08a0 58       		.sleb128 -40
 7307 08a1 9F       		.byte	0x9f
 7308 08a2 CA020000 		.4byte	.LVL292
 7309 08a6 CC020000 		.4byte	.LVL293
 7310 08aa 0100     		.2byte	0x1
 7311 08ac 53       		.byte	0x53
 7312 08ad CC020000 		.4byte	.LVL293
 7313 08b1 54030000 		.4byte	.LVL306
 7314 08b5 0300     		.2byte	0x3
 7315 08b7 91       		.byte	0x91
 7316 08b8 58       		.sleb128 -40
 7317 08b9 9F       		.byte	0x9f
 7318 08ba 54030000 		.4byte	.LVL306
 7319 08be 56030000 		.4byte	.LVL307
 7320 08c2 0100     		.2byte	0x1
 7321 08c4 53       		.byte	0x53
 7322 08c5 56030000 		.4byte	.LVL307
 7323 08c9 90030000 		.4byte	.LVL314
 7324 08cd 0300     		.2byte	0x3
 7325 08cf 91       		.byte	0x91
 7326 08d0 58       		.sleb128 -40
 7327 08d1 9F       		.byte	0x9f
 7328 08d2 90030000 		.4byte	.LVL314
 7329 08d6 92030000 		.4byte	.LVL315
 7330 08da 0100     		.2byte	0x1
 7331 08dc 53       		.byte	0x53
 7332 08dd 92030000 		.4byte	.LVL315
 7333 08e1 AE030000 		.4byte	.LVL319
 7334 08e5 0300     		.2byte	0x3
 7335 08e7 91       		.byte	0x91
 7336 08e8 58       		.sleb128 -40
 7337 08e9 9F       		.byte	0x9f
 7338 08ea B6030000 		.4byte	.LVL320
 7339 08ee B8030000 		.4byte	.LVL321
 7340 08f2 0300     		.2byte	0x3
 7341 08f4 91       		.byte	0x91
 7342 08f5 58       		.sleb128 -40
 7343 08f6 9F       		.byte	0x9f
 7344 08f7 00000000 		.4byte	0
 7345 08fb 00000000 		.4byte	0
 7346              	.LLST58:
 7347 08ff 2C000000 		.4byte	.LVL208
 7348 0903 46000000 		.4byte	.LVL210
 7349 0907 0100     		.2byte	0x1
 7350 0909 55       		.byte	0x55
 7351 090a 00000000 		.4byte	0
 7352 090e 00000000 		.4byte	0
 7353              	.LLST59:
 7354 0912 76000000 		.4byte	.LVL218
ARM GAS  C:\Users\TERENC~1\AppData\Local\Temp\ccl7zEj9.s 			page 141


 7355 0916 90000000 		.4byte	.LVL220
 7356 091a 0100     		.2byte	0x1
 7357 091c 55       		.byte	0x55
 7358 091d 00000000 		.4byte	0
 7359 0921 00000000 		.4byte	0
 7360              	.LLST60:
 7361 0925 C4000000 		.4byte	.LVL225
 7362 0929 E6000000 		.4byte	.LVL229
 7363 092d 0100     		.2byte	0x1
 7364 092f 55       		.byte	0x55
 7365 0930 00000000 		.4byte	0
 7366 0934 00000000 		.4byte	0
 7367              	.LLST61:
 7368 0938 00010000 		.4byte	.LVL233
 7369 093c 1E010000 		.4byte	.LVL236
 7370 0940 0100     		.2byte	0x1
 7371 0942 55       		.byte	0x55
 7372 0943 00000000 		.4byte	0
 7373 0947 00000000 		.4byte	0
 7374              	.LLST62:
 7375 094b 38010000 		.4byte	.LVL240
 7376 094f 54010000 		.4byte	.LVL243
 7377 0953 0100     		.2byte	0x1
 7378 0955 55       		.byte	0x55
 7379 0956 00000000 		.4byte	0
 7380 095a 00000000 		.4byte	0
 7381              	.LLST63:
 7382 095e 6E010000 		.4byte	.LVL247
 7383 0962 88010000 		.4byte	.LVL250
 7384 0966 0100     		.2byte	0x1
 7385 0968 55       		.byte	0x55
 7386 0969 00000000 		.4byte	0
 7387 096d 00000000 		.4byte	0
 7388              	.LLST64:
 7389 0971 A2010000 		.4byte	.LVL254
 7390 0975 BC010000 		.4byte	.LVL257
 7391 0979 0100     		.2byte	0x1
 7392 097b 55       		.byte	0x55
 7393 097c 00000000 		.4byte	0
 7394 0980 00000000 		.4byte	0
 7395              	.LLST65:
 7396 0984 D6010000 		.4byte	.LVL261
 7397 0988 F8010000 		.4byte	.LVL265
 7398 098c 0100     		.2byte	0x1
 7399 098e 55       		.byte	0x55
 7400 098f 00000000 		.4byte	0
 7401 0993 00000000 		.4byte	0
 7402              	.LLST66:
 7403 0997 12020000 		.4byte	.LVL269
 7404 099b 2C020000 		.4byte	.LVL272
 7405 099f 0100     		.2byte	0x1
 7406 09a1 55       		.byte	0x55
 7407 09a2 00000000 		.4byte	0
 7408 09a6 00000000 		.4byte	0
 7409              	.LLST67:
 7410 09aa 46020000 		.4byte	.LVL276
 7411 09ae 62020000 		.4byte	.LVL279
ARM GAS  C:\Users\TERENC~1\AppData\Local\Temp\ccl7zEj9.s 			page 142


 7412 09b2 0100     		.2byte	0x1
 7413 09b4 55       		.byte	0x55
 7414 09b5 00000000 		.4byte	0
 7415 09b9 00000000 		.4byte	0
 7416              	.LLST68:
 7417 09bd 7C020000 		.4byte	.LVL283
 7418 09c1 9A020000 		.4byte	.LVL286
 7419 09c5 0100     		.2byte	0x1
 7420 09c7 55       		.byte	0x55
 7421 09c8 00000000 		.4byte	0
 7422 09cc 00000000 		.4byte	0
 7423              	.LLST69:
 7424 09d0 B4020000 		.4byte	.LVL290
 7425 09d4 D6020000 		.4byte	.LVL294
 7426 09d8 0100     		.2byte	0x1
 7427 09da 55       		.byte	0x55
 7428 09db 00000000 		.4byte	0
 7429 09df 00000000 		.4byte	0
 7430              	.LLST70:
 7431 09e3 F0020000 		.4byte	.LVL298
 7432 09e7 08030000 		.4byte	.LVL300
 7433 09eb 0100     		.2byte	0x1
 7434 09ed 55       		.byte	0x55
 7435 09ee 00000000 		.4byte	0
 7436 09f2 00000000 		.4byte	0
 7437              	.LLST71:
 7438 09f6 3E030000 		.4byte	.LVL304
 7439 09fa 60030000 		.4byte	.LVL308
 7440 09fe 0100     		.2byte	0x1
 7441 0a00 55       		.byte	0x55
 7442 0a01 00000000 		.4byte	0
 7443 0a05 00000000 		.4byte	0
 7444              	.LLST72:
 7445 0a09 7A030000 		.4byte	.LVL312
 7446 0a0d 9C030000 		.4byte	.LVL316
 7447 0a11 0100     		.2byte	0x1
 7448 0a13 55       		.byte	0x55
 7449 0a14 00000000 		.4byte	0
 7450 0a18 00000000 		.4byte	0
 7451              	.LLST73:
 7452 0a1c 00000000 		.4byte	.LVL323
 7453 0a20 14000000 		.4byte	.LVL325
 7454 0a24 0100     		.2byte	0x1
 7455 0a26 50       		.byte	0x50
 7456 0a27 14000000 		.4byte	.LVL325
 7457 0a2b 68000000 		.4byte	.LVL336
 7458 0a2f 0400     		.2byte	0x4
 7459 0a31 F3       		.byte	0xf3
 7460 0a32 01       		.uleb128 0x1
 7461 0a33 50       		.byte	0x50
 7462 0a34 9F       		.byte	0x9f
 7463 0a35 68000000 		.4byte	.LVL336
 7464 0a39 8C000000 		.4byte	.LVL338
 7465 0a3d 0100     		.2byte	0x1
 7466 0a3f 57       		.byte	0x57
 7467 0a40 00000000 		.4byte	0
 7468 0a44 00000000 		.4byte	0
ARM GAS  C:\Users\TERENC~1\AppData\Local\Temp\ccl7zEj9.s 			page 143


 7469              	.LLST74:
 7470 0a48 00000000 		.4byte	.LVL323
 7471 0a4c 18000000 		.4byte	.LVL326
 7472 0a50 0100     		.2byte	0x1
 7473 0a52 51       		.byte	0x51
 7474 0a53 18000000 		.4byte	.LVL326
 7475 0a57 6C000000 		.4byte	.LVL337
 7476 0a5b 0100     		.2byte	0x1
 7477 0a5d 55       		.byte	0x55
 7478 0a5e 6C000000 		.4byte	.LVL337
 7479 0a62 A8000000 		.4byte	.LFE19
 7480 0a66 0400     		.2byte	0x4
 7481 0a68 F3       		.byte	0xf3
 7482 0a69 01       		.uleb128 0x1
 7483 0a6a 51       		.byte	0x51
 7484 0a6b 9F       		.byte	0x9f
 7485 0a6c 00000000 		.4byte	0
 7486 0a70 00000000 		.4byte	0
 7487              	.LLST75:
 7488 0a74 00000000 		.4byte	.LVL323
 7489 0a78 1B000000 		.4byte	.LVL327-1
 7490 0a7c 0100     		.2byte	0x1
 7491 0a7e 52       		.byte	0x52
 7492 0a7f 1B000000 		.4byte	.LVL327-1
 7493 0a83 A8000000 		.4byte	.LFE19
 7494 0a87 0400     		.2byte	0x4
 7495 0a89 F3       		.byte	0xf3
 7496 0a8a 01       		.uleb128 0x1
 7497 0a8b 52       		.byte	0x52
 7498 0a8c 9F       		.byte	0x9f
 7499 0a8d 00000000 		.4byte	0
 7500 0a91 00000000 		.4byte	0
 7501              	.LLST76:
 7502 0a95 0A000000 		.4byte	.LVL324
 7503 0a99 50000000 		.4byte	.LVL332
 7504 0a9d 0200     		.2byte	0x2
 7505 0a9f 31       		.byte	0x31
 7506 0aa0 9F       		.byte	0x9f
 7507 0aa1 50000000 		.4byte	.LVL332
 7508 0aa5 52000000 		.4byte	.LVL333
 7509 0aa9 0100     		.2byte	0x1
 7510 0aab 50       		.byte	0x50
 7511 0aac 52000000 		.4byte	.LVL333
 7512 0ab0 54000000 		.4byte	.LVL334
 7513 0ab4 0200     		.2byte	0x2
 7514 0ab6 31       		.byte	0x31
 7515 0ab7 9F       		.byte	0x9f
 7516 0ab8 54000000 		.4byte	.LVL334
 7517 0abc A8000000 		.4byte	.LFE19
 7518 0ac0 0100     		.2byte	0x1
 7519 0ac2 50       		.byte	0x50
 7520 0ac3 00000000 		.4byte	0
 7521 0ac7 00000000 		.4byte	0
 7522              	.LLST77:
 7523 0acb 14000000 		.4byte	.LVL325
 7524 0acf 1B000000 		.4byte	.LVL327-1
 7525 0ad3 0100     		.2byte	0x1
ARM GAS  C:\Users\TERENC~1\AppData\Local\Temp\ccl7zEj9.s 			page 144


 7526 0ad5 50       		.byte	0x50
 7527 0ad6 1B000000 		.4byte	.LVL327-1
 7528 0ada 2A000000 		.4byte	.LVL329
 7529 0ade 0500     		.2byte	0x5
 7530 0ae0 74       		.byte	0x74
 7531 0ae1 80C001   		.sleb128 24576
 7532 0ae4 9F       		.byte	0x9f
 7533 0ae5 2A000000 		.4byte	.LVL329
 7534 0ae9 4A000000 		.4byte	.LVL330
 7535 0aed 0B00     		.2byte	0xb
 7536 0aef 77       		.byte	0x77
 7537 0af0 00       		.sleb128 0
 7538 0af1 46       		.byte	0x46
 7539 0af2 24       		.byte	0x24
 7540 0af3 46       		.byte	0x46
 7541 0af4 25       		.byte	0x25
 7542 0af5 23       		.byte	0x23
 7543 0af6 80C001   		.uleb128 0x6000
 7544 0af9 9F       		.byte	0x9f
 7545 0afa 4A000000 		.4byte	.LVL330
 7546 0afe 4C000000 		.4byte	.LVL331
 7547 0b02 0C00     		.2byte	0xc
 7548 0b04 77       		.byte	0x77
 7549 0b05 00       		.sleb128 0
 7550 0b06 46       		.byte	0x46
 7551 0b07 24       		.byte	0x24
 7552 0b08 46       		.byte	0x46
 7553 0b09 25       		.byte	0x25
 7554 0b0a 70       		.byte	0x70
 7555 0b0b 00       		.sleb128 0
 7556 0b0c 37       		.byte	0x37
 7557 0b0d 24       		.byte	0x24
 7558 0b0e 22       		.byte	0x22
 7559 0b0f 9F       		.byte	0x9f
 7560 0b10 4C000000 		.4byte	.LVL331
 7561 0b14 4F000000 		.4byte	.LVL332-1
 7562 0b18 0A00     		.2byte	0xa
 7563 0b1a 77       		.byte	0x77
 7564 0b1b 00       		.sleb128 0
 7565 0b1c 46       		.byte	0x46
 7566 0b1d 24       		.byte	0x24
 7567 0b1e 46       		.byte	0x46
 7568 0b1f 25       		.byte	0x25
 7569 0b20 70       		.byte	0x70
 7570 0b21 00       		.sleb128 0
 7571 0b22 22       		.byte	0x22
 7572 0b23 9F       		.byte	0x9f
 7573 0b24 4F000000 		.4byte	.LVL332-1
 7574 0b28 66000000 		.4byte	.LVL335
 7575 0b2c 0B00     		.2byte	0xb
 7576 0b2e 77       		.byte	0x77
 7577 0b2f 00       		.sleb128 0
 7578 0b30 46       		.byte	0x46
 7579 0b31 24       		.byte	0x24
 7580 0b32 46       		.byte	0x46
 7581 0b33 25       		.byte	0x25
 7582 0b34 23       		.byte	0x23
ARM GAS  C:\Users\TERENC~1\AppData\Local\Temp\ccl7zEj9.s 			page 145


 7583 0b35 80C001   		.uleb128 0x6000
 7584 0b38 9F       		.byte	0x9f
 7585 0b39 00000000 		.4byte	0
 7586 0b3d 00000000 		.4byte	0
 7587              		.section	.debug_aranges,"",%progbits
 7588 0000 A4000000 		.4byte	0xa4
 7589 0004 0200     		.2byte	0x2
 7590 0006 00000000 		.4byte	.Ldebug_info0
 7591 000a 04       		.byte	0x4
 7592 000b 00       		.byte	0
 7593 000c 0000     		.2byte	0
 7594 000e 0000     		.2byte	0
 7595 0010 00000000 		.4byte	.LFB3
 7596 0014 C4000000 		.4byte	.LFE3-.LFB3
 7597 0018 00000000 		.4byte	.LFB4
 7598 001c 0A000000 		.4byte	.LFE4-.LFB4
 7599 0020 00000000 		.4byte	.LFB8
 7600 0024 E0000000 		.4byte	.LFE8-.LFB8
 7601 0028 00000000 		.4byte	.LFB9
 7602 002c 5E000000 		.4byte	.LFE9-.LFB9
 7603 0030 00000000 		.4byte	.LFB11
 7604 0034 3C000000 		.4byte	.LFE11-.LFB11
 7605 0038 00000000 		.4byte	.LFB12
 7606 003c 5E000000 		.4byte	.LFE12-.LFB12
 7607 0040 00000000 		.4byte	.LFB10
 7608 0044 4E000000 		.4byte	.LFE10-.LFB10
 7609 0048 00000000 		.4byte	.LFB5
 7610 004c 16000000 		.4byte	.LFE5-.LFB5
 7611 0050 00000000 		.4byte	.LFB6
 7612 0054 16000000 		.4byte	.LFE6-.LFB6
 7613 0058 00000000 		.4byte	.LFB7
 7614 005c 5C000000 		.4byte	.LFE7-.LFB7
 7615 0060 00000000 		.4byte	.LFB2
 7616 0064 30000000 		.4byte	.LFE2-.LFB2
 7617 0068 00000000 		.4byte	.LFB13
 7618 006c D8000000 		.4byte	.LFE13-.LFB13
 7619 0070 00000000 		.4byte	.LFB14
 7620 0074 98000000 		.4byte	.LFE14-.LFB14
 7621 0078 00000000 		.4byte	.LFB15
 7622 007c 98000000 		.4byte	.LFE15-.LFB15
 7623 0080 00000000 		.4byte	.LFB16
 7624 0084 38010000 		.4byte	.LFE16-.LFB16
 7625 0088 00000000 		.4byte	.LFB17
 7626 008c FC030000 		.4byte	.LFE17-.LFB17
 7627 0090 00000000 		.4byte	.LFB18
 7628 0094 08000000 		.4byte	.LFE18-.LFB18
 7629 0098 00000000 		.4byte	.LFB19
 7630 009c A8000000 		.4byte	.LFE19-.LFB19
 7631 00a0 00000000 		.4byte	0
 7632 00a4 00000000 		.4byte	0
 7633              		.section	.debug_ranges,"",%progbits
 7634              	.Ldebug_ranges0:
 7635 0000 00000000 		.4byte	.LFB3
 7636 0004 C4000000 		.4byte	.LFE3
 7637 0008 00000000 		.4byte	.LFB4
 7638 000c 0A000000 		.4byte	.LFE4
 7639 0010 00000000 		.4byte	.LFB8
ARM GAS  C:\Users\TERENC~1\AppData\Local\Temp\ccl7zEj9.s 			page 146


 7640 0014 E0000000 		.4byte	.LFE8
 7641 0018 00000000 		.4byte	.LFB9
 7642 001c 5E000000 		.4byte	.LFE9
 7643 0020 00000000 		.4byte	.LFB11
 7644 0024 3C000000 		.4byte	.LFE11
 7645 0028 00000000 		.4byte	.LFB12
 7646 002c 5E000000 		.4byte	.LFE12
 7647 0030 00000000 		.4byte	.LFB10
 7648 0034 4E000000 		.4byte	.LFE10
 7649 0038 00000000 		.4byte	.LFB5
 7650 003c 16000000 		.4byte	.LFE5
 7651 0040 00000000 		.4byte	.LFB6
 7652 0044 16000000 		.4byte	.LFE6
 7653 0048 00000000 		.4byte	.LFB7
 7654 004c 5C000000 		.4byte	.LFE7
 7655 0050 00000000 		.4byte	.LFB2
 7656 0054 30000000 		.4byte	.LFE2
 7657 0058 00000000 		.4byte	.LFB13
 7658 005c D8000000 		.4byte	.LFE13
 7659 0060 00000000 		.4byte	.LFB14
 7660 0064 98000000 		.4byte	.LFE14
 7661 0068 00000000 		.4byte	.LFB15
 7662 006c 98000000 		.4byte	.LFE15
 7663 0070 00000000 		.4byte	.LFB16
 7664 0074 38010000 		.4byte	.LFE16
 7665 0078 00000000 		.4byte	.LFB17
 7666 007c FC030000 		.4byte	.LFE17
 7667 0080 00000000 		.4byte	.LFB18
 7668 0084 08000000 		.4byte	.LFE18
 7669 0088 00000000 		.4byte	.LFB19
 7670 008c A8000000 		.4byte	.LFE19
 7671 0090 00000000 		.4byte	0
 7672 0094 00000000 		.4byte	0
 7673              		.section	.debug_line,"",%progbits
 7674              	.Ldebug_line0:
 7675 0000 DE060000 		.section	.debug_str,"MS",%progbits,1
 7675      02007702 
 7675      00000201 
 7675      FB0E0D00 
 7675      01010101 
 7676              	.LASF25:
 7677 0000 6C656E5F 		.ascii	"len_lo\000"
 7677      6C6F00
 7678              	.LASF108:
 7679 0007 43794465 		.ascii	"CyDelay\000"
 7679      6C617900 
 7680              	.LASF40:
 7681 000f 726F6D5F 		.ascii	"rom_type\000"
 7681      74797065 
 7681      00
 7682              	.LASF98:
 7683 0018 63633835 		.ascii	"cc85xx_flash_bytes\000"
 7683      78785F66 
 7683      6C617368 
 7683      5F627974 
 7683      657300
 7684              	.LASF80:
ARM GAS  C:\Users\TERENC~1\AppData\Local\Temp\ccl7zEj9.s 			page 147


 7685 002b 63633835 		.ascii	"cc85xx_boot_reset\000"
 7685      78785F62 
 7685      6F6F745F 
 7685      72657365 
 7685      7400
 7686              	.LASF50:
 7687 003d 63633835 		.ascii	"cc85xx_di_get_chip_info_rsp_s\000"
 7687      78785F64 
 7687      695F6765 
 7687      745F6368 
 7687      69705F69 
 7688              	.LASF15:
 7689 005b 636D645F 		.ascii	"cmd_type\000"
 7689      74797065 
 7689      00
 7690              	.LASF17:
 7691 0064 70617261 		.ascii	"param_len\000"
 7691      6D5F6C65 
 7691      6E00
 7692              	.LASF110:
 7693 006e 5350495F 		.ascii	"SPI_miso_m_Read\000"
 7693      6D69736F 
 7693      5F6D5F52 
 7693      65616400 
 7694              	.LASF47:
 7695 007e 66775F69 		.ascii	"fw_image_size\000"
 7695      6D616765 
 7695      5F73697A 
 7695      6500
 7696              	.LASF38:
 7697 008c 73696C5F 		.ascii	"sil_min_rev\000"
 7697      6D696E5F 
 7697      72657600 
 7698              	.LASF58:
 7699 0098 6265666F 		.ascii	"before\000"
 7699      726500
 7700              	.LASF36:
 7701 009f 63633835 		.ascii	"cc85xx_bl_flash_verify_s\000"
 7701      78785F62 
 7701      6C5F666C 
 7701      6173685F 
 7701      76657269 
 7702              	.LASF115:
 7703 00b8 5350495F 		.ascii	"SPI_SpiUartPutArray\000"
 7703      53706955 
 7703      61727450 
 7703      75744172 
 7703      72617900 
 7704              	.LASF74:
 7705 00cc 63633835 		.ascii	"cc85xx_set_addr\000"
 7705      78785F73 
 7705      65745F61 
 7705      64647200 
 7706              	.LASF11:
 7707 00dc 756E7369 		.ascii	"unsigned int\000"
 7707      676E6564 
 7707      20696E74 
ARM GAS  C:\Users\TERENC~1\AppData\Local\Temp\ccl7zEj9.s 			page 148


 7707      00
 7708              	.LASF93:
 7709 00e9 63633835 		.ascii	"cc85xx_bl_flash_verify\000"
 7709      78785F62 
 7709      6C5F666C 
 7709      6173685F 
 7709      76657269 
 7710              	.LASF114:
 7711 0100 55534255 		.ascii	"USBUART_GetConfiguration\000"
 7711      4152545F 
 7711      47657443 
 7711      6F6E6669 
 7711      67757261 
 7712              	.LASF60:
 7713 0119 63633835 		.ascii	"cc85xx_reset\000"
 7713      78785F72 
 7713      65736574 
 7713      00
 7714              	.LASF67:
 7715 0126 70527844 		.ascii	"pRxData\000"
 7715      61746100 
 7716              	.LASF73:
 7717 012e 70547850 		.ascii	"pTxPkt\000"
 7717      6B7400
 7718              	.LASF127:
 7719 0135 63633835 		.ascii	"cc85xx_init\000"
 7719      78785F69 
 7719      6E697400 
 7720              	.LASF71:
 7721 0141 70617261 		.ascii	"paramLen\000"
 7721      6D4C656E 
 7721      00
 7722              	.LASF30:
 7723 014a 72616D5F 		.ascii	"ram_addr\000"
 7723      61646472 
 7723      00
 7724              	.LASF116:
 7725 0153 5350495F 		.ascii	"SPI_SpiUartGetRxBufferSize\000"
 7725      53706955 
 7725      61727447 
 7725      65745278 
 7725      42756666 
 7726              	.LASF111:
 7727 016e 5350495F 		.ascii	"SPI_SpiUartReadRxData\000"
 7727      53706955 
 7727      61727452 
 7727      65616452 
 7727      78446174 
 7728              	.LASF78:
 7729 0184 63633835 		.ascii	"cc85xx_read\000"
 7729      78785F72 
 7729      65616400 
 7730              	.LASF14:
 7731 0190 75696E74 		.ascii	"uint32_t\000"
 7731      33325F74 
 7731      00
 7732              	.LASF52:
ARM GAS  C:\Users\TERENC~1\AppData\Local\Temp\ccl7zEj9.s 			page 149


 7733 0199 666C6F61 		.ascii	"float\000"
 7733      7400
 7734              	.LASF68:
 7735 019f 72784C65 		.ascii	"rxLen\000"
 7735      6E00
 7736              	.LASF118:
 7737 01a5 6D616C6C 		.ascii	"malloc\000"
 7737      6F6300
 7738              	.LASF109:
 7739 01ac 43794465 		.ascii	"CyDelayUs\000"
 7739      6C617955 
 7739      7300
 7740              	.LASF122:
 7741 01b6 5350495F 		.ascii	"SPI_Start\000"
 7741      53746172 
 7741      7400
 7742              	.LASF10:
 7743 01c0 6C6F6E67 		.ascii	"long long unsigned int\000"
 7743      206C6F6E 
 7743      6720756E 
 7743      7369676E 
 7743      65642069 
 7744              	.LASF79:
 7745 01d7 63633835 		.ascii	"cc85xx_sys_reset\000"
 7745      78785F73 
 7745      79735F72 
 7745      65736574 
 7745      00
 7746              	.LASF4:
 7747 01e8 5F5F7569 		.ascii	"__uint16_t\000"
 7747      6E743136 
 7747      5F7400
 7748              	.LASF83:
 7749 01f3 63633835 		.ascii	"cc85xx_wait_for_status\000"
 7749      78785F77 
 7749      6169745F 
 7749      666F725F 
 7749      73746174 
 7750              	.LASF124:
 7751 020a 474E5520 		.ascii	"GNU C11 5.4.1 20160609 (release) [ARM/embedded-5-br"
 7751      43313120 
 7751      352E342E 
 7751      31203230 
 7751      31363036 
 7752 023d 616E6368 		.ascii	"anch revision 237715] -mcpu=cortex-m0 -mthumb -g -O"
 7752      20726576 
 7752      6973696F 
 7752      6E203233 
 7752      37373135 
 7753 0270 67202D66 		.ascii	"g -ffunction-sections -ffat-lto-objects\000"
 7753      66756E63 
 7753      74696F6E 
 7753      2D736563 
 7753      74696F6E 
 7754              	.LASF126:
 7755 0298 433A5C64 		.ascii	"C:\\dev\\git\\icebreaker\\Icebreaker.cydsn\000"
 7755      65765C67 
ARM GAS  C:\Users\TERENC~1\AppData\Local\Temp\ccl7zEj9.s 			page 150


 7755      69745C69 
 7755      63656272 
 7755      65616B65 
 7756              	.LASF62:
 7757 02bf 63633835 		.ascii	"cc85xx_basic_transaction\000"
 7757      78785F62 
 7757      61736963 
 7757      5F747261 
 7757      6E736163 
 7758              	.LASF49:
 7759 02d8 63686970 		.ascii	"chip_id\000"
 7759      5F696400 
 7760              	.LASF95:
 7761 02e0 63633835 		.ascii	"cc85xx_print_info\000"
 7761      78785F70 
 7761      72696E74 
 7761      5F696E66 
 7761      6F00
 7762              	.LASF72:
 7763 02f2 70446174 		.ascii	"pData\000"
 7763      6100
 7764              	.LASF59:
 7765 02f8 5F426F6F 		.ascii	"_Bool\000"
 7765      6C00
 7766              	.LASF77:
 7767 02fe 64617461 		.ascii	"dataLen\000"
 7767      4C656E00 
 7768              	.LASF119:
 7769 0306 66726565 		.ascii	"free\000"
 7769      00
 7770              	.LASF97:
 7771 030b 70527370 		.ascii	"pRsp\000"
 7771      00
 7772              	.LASF46:
 7773 0310 66775F70 		.ascii	"fw_patch_rev\000"
 7773      61746368 
 7773      5F726576 
 7773      00
 7774              	.LASF35:
 7775 031d 62797465 		.ascii	"byte_count\000"
 7775      5F636F75 
 7775      6E7400
 7776              	.LASF94:
 7777 0328 70437263 		.ascii	"pCrc32\000"
 7777      333200
 7778              	.LASF44:
 7779 032f 66775F6D 		.ascii	"fw_maj_rev\000"
 7779      616A5F72 
 7779      657600
 7780              	.LASF64:
 7781 033a 70547844 		.ascii	"pTxData\000"
 7781      61746100 
 7782              	.LASF54:
 7783 0342 63686172 		.ascii	"char\000"
 7783      00
 7784              	.LASF41:
 7785 0347 726F6D5F 		.ascii	"rom_maj_rev\000"
ARM GAS  C:\Users\TERENC~1\AppData\Local\Temp\ccl7zEj9.s 			page 151


 7785      6D616A5F 
 7785      72657600 
 7786              	.LASF16:
 7787 0353 6F70636F 		.ascii	"opcode\000"
 7787      646500
 7788              	.LASF100:
 7789 035a 746D7243 		.ascii	"tmrCounter_ms\000"
 7789      6F756E74 
 7789      65725F6D 
 7789      7300
 7790              	.LASF12:
 7791 0368 75696E74 		.ascii	"uint8_t\000"
 7791      385F7400 
 7792              	.LASF48:
 7793 0370 63686970 		.ascii	"chip_caps\000"
 7793      5F636170 
 7793      7300
 7794              	.LASF18:
 7795 037a 63633835 		.ascii	"cc85xx_cmd_req_hdr_s\000"
 7795      78785F63 
 7795      6D645F72 
 7795      65715F68 
 7795      64725F73 
 7796              	.LASF33:
 7797 038f 63633835 		.ascii	"cc85xx_bl_flash_page_prog_s\000"
 7797      78785F62 
 7797      6C5F666C 
 7797      6173685F 
 7797      70616765 
 7798              	.LASF9:
 7799 03ab 6C6F6E67 		.ascii	"long long int\000"
 7799      206C6F6E 
 7799      6720696E 
 7799      7400
 7800              	.LASF91:
 7801 03b9 5F5F4655 		.ascii	"__FUNCTION__\000"
 7801      4E435449 
 7801      4F4E5F5F 
 7801      00
 7802              	.LASF66:
 7803 03c6 70537461 		.ascii	"pStatus\000"
 7803      74757300 
 7804              	.LASF107:
 7805 03ce 5350495F 		.ascii	"SPI_mosi_m_Write\000"
 7805      6D6F7369 
 7805      5F6D5F57 
 7805      72697465 
 7805      00
 7806              	.LASF34:
 7807 03df 64617461 		.ascii	"data_addr\000"
 7807      5F616464 
 7807      7200
 7808              	.LASF65:
 7809 03e9 74784C65 		.ascii	"txLen\000"
 7809      6E00
 7810              	.LASF26:
 7811 03ef 63633835 		.ascii	"cc85xx_write_s\000"
ARM GAS  C:\Users\TERENC~1\AppData\Local\Temp\ccl7zEj9.s 			page 152


 7811      78785F77 
 7811      72697465 
 7811      5F7300
 7812              	.LASF63:
 7813 03fe 626F6F74 		.ascii	"boot\000"
 7813      00
 7814              	.LASF120:
 7815 0403 6D656D73 		.ascii	"memset\000"
 7815      657400
 7816              	.LASF69:
 7817 040a 63633835 		.ascii	"cc85xx_cmd_req\000"
 7817      78785F63 
 7817      6D645F72 
 7817      657100
 7818              	.LASF61:
 7819 0419 63633835 		.ascii	"cc85xx_spi_read\000"
 7819      78785F73 
 7819      70695F72 
 7819      65616400 
 7820              	.LASF19:
 7821 0429 70617261 		.ascii	"param\000"
 7821      6D00
 7822              	.LASF87:
 7823 042f 72616D41 		.ascii	"ramAddr\000"
 7823      64647200 
 7824              	.LASF117:
 7825 0437 5350495F 		.ascii	"SPI_SpiUartClearRxBuffer\000"
 7825      53706955 
 7825      61727443 
 7825      6C656172 
 7825      52784275 
 7826              	.LASF43:
 7827 0450 66775F74 		.ascii	"fw_type\000"
 7827      79706500 
 7828              	.LASF56:
 7829 0458 6C6F6E67 		.ascii	"long double\000"
 7829      20646F75 
 7829      626C6500 
 7830              	.LASF123:
 7831 0464 73707269 		.ascii	"sprintf\000"
 7831      6E746600 
 7832              	.LASF13:
 7833 046c 75696E74 		.ascii	"uint16_t\000"
 7833      31365F74 
 7833      00
 7834              	.LASF55:
 7835 0475 72656733 		.ascii	"reg32\000"
 7835      3200
 7836              	.LASF101:
 7837 047b 67627566 		.ascii	"gbuf\000"
 7837      00
 7838              	.LASF22:
 7839 0480 64617461 		.ascii	"data_len\000"
 7839      5F6C656E 
 7839      00
 7840              	.LASF39:
 7841 0489 73696C5F 		.ascii	"sil_maj_rev\000"
ARM GAS  C:\Users\TERENC~1\AppData\Local\Temp\ccl7zEj9.s 			page 153


 7841      6D616A5F 
 7841      72657600 
 7842              	.LASF82:
 7843 0495 74784275 		.ascii	"txBuffer\000"
 7843      66666572 
 7843      00
 7844              	.LASF86:
 7845 049e 63633835 		.ascii	"cc85xx_bl_flash_page_prog\000"
 7845      78785F62 
 7845      6C5F666C 
 7845      6173685F 
 7845      70616765 
 7846              	.LASF2:
 7847 04b8 73686F72 		.ascii	"short int\000"
 7847      7420696E 
 7847      7400
 7848              	.LASF103:
 7849 04c2 5253546E 		.ascii	"RSTn_Write\000"
 7849      5F577269 
 7849      746500
 7850              	.LASF27:
 7851 04cd 61646472 		.ascii	"addr_hi\000"
 7851      5F686900 
 7852              	.LASF6:
 7853 04d5 6C6F6E67 		.ascii	"long int\000"
 7853      20696E74 
 7853      00
 7854              	.LASF37:
 7855 04de 66616D69 		.ascii	"family_id\000"
 7855      6C795F69 
 7855      6400
 7856              	.LASF105:
 7857 04e8 5350495F 		.ascii	"SPI_ss0_m_Write\000"
 7857      7373305F 
 7857      6D5F5772 
 7857      69746500 
 7858              	.LASF23:
 7859 04f8 63633835 		.ascii	"cc85xx_read_s\000"
 7859      78785F72 
 7859      6561645F 
 7859      7300
 7860              	.LASF84:
 7861 0506 65787065 		.ascii	"expectedStatus\000"
 7861      63746564 
 7861      53746174 
 7861      757300
 7862              	.LASF21:
 7863 0515 63633835 		.ascii	"cc85xx_cmd_req_s\000"
 7863      78785F63 
 7863      6D645F72 
 7863      65715F73 
 7863      00
 7864              	.LASF106:
 7865 0526 5350495F 		.ascii	"SPI_mosi_m_SetDriveMode\000"
 7865      6D6F7369 
 7865      5F6D5F53 
 7865      65744472 
ARM GAS  C:\Users\TERENC~1\AppData\Local\Temp\ccl7zEj9.s 			page 154


 7865      6976654D 
 7866              	.LASF51:
 7867 053e 75696E74 		.ascii	"uint32\000"
 7867      333200
 7868              	.LASF32:
 7869 0545 64776F72 		.ascii	"dword_count\000"
 7869      645F636F 
 7869      756E7400 
 7870              	.LASF24:
 7871 0551 6C656E5F 		.ascii	"len_hi\000"
 7871      686900
 7872              	.LASF3:
 7873 0558 5F5F7569 		.ascii	"__uint8_t\000"
 7873      6E74385F 
 7873      7400
 7874              	.LASF113:
 7875 0562 55534255 		.ascii	"USBUART_PutString\000"
 7875      4152545F 
 7875      50757453 
 7875      7472696E 
 7875      6700
 7876              	.LASF57:
 7877 0574 73746172 		.ascii	"start\000"
 7877      7400
 7878              	.LASF88:
 7879 057a 666C6173 		.ascii	"flashAddr\000"
 7879      68416464 
 7879      7200
 7880              	.LASF70:
 7881 0584 636D6454 		.ascii	"cmdType\000"
 7881      79706500 
 7882              	.LASF92:
 7883 058c 63633835 		.ascii	"cc85xx_bl_mass_erase\000"
 7883      78785F62 
 7883      6C5F6D61 
 7883      73735F65 
 7883      72617365 
 7884              	.LASF20:
 7885 05a1 73697A65 		.ascii	"sizetype\000"
 7885      74797065 
 7885      00
 7886              	.LASF8:
 7887 05aa 6C6F6E67 		.ascii	"long unsigned int\000"
 7887      20756E73 
 7887      69676E65 
 7887      6420696E 
 7887      7400
 7888              	.LASF112:
 7889 05bc 55534255 		.ascii	"USBUART_CDCIsReady\000"
 7889      4152545F 
 7889      43444349 
 7889      73526561 
 7889      647900
 7890              	.LASF121:
 7891 05cf 5350495F 		.ascii	"SPI_Stop\000"
 7891      53746F70 
 7891      00
ARM GAS  C:\Users\TERENC~1\AppData\Local\Temp\ccl7zEj9.s 			page 155


 7892              	.LASF45:
 7893 05d8 66775F6D 		.ascii	"fw_min_rev\000"
 7893      696E5F72 
 7893      657600
 7894              	.LASF99:
 7895 05e3 6E496D61 		.ascii	"nImageBytes\000"
 7895      67654279 
 7895      74657300 
 7896              	.LASF1:
 7897 05ef 756E7369 		.ascii	"unsigned char\000"
 7897      676E6564 
 7897      20636861 
 7897      7200
 7898              	.LASF7:
 7899 05fd 5F5F7569 		.ascii	"__uint32_t\000"
 7899      6E743332 
 7899      5F7400
 7900              	.LASF85:
 7901 0608 74696D65 		.ascii	"timeout\000"
 7901      6F757400 
 7902              	.LASF75:
 7903 0610 61646472 		.ascii	"addr\000"
 7903      00
 7904              	.LASF76:
 7905 0615 63633835 		.ascii	"cc85xx_write\000"
 7905      78785F77 
 7905      72697465 
 7905      00
 7906              	.LASF102:
 7907 0622 5253546E 		.ascii	"RSTn_SetDriveMode\000"
 7907      5F536574 
 7907      44726976 
 7907      654D6F64 
 7907      6500
 7908              	.LASF31:
 7909 0634 666C6173 		.ascii	"flash_addr\000"
 7909      685F6164 
 7909      647200
 7910              	.LASF0:
 7911 063f 7369676E 		.ascii	"signed char\000"
 7911      65642063 
 7911      68617200 
 7912              	.LASF5:
 7913 064b 73686F72 		.ascii	"short unsigned int\000"
 7913      7420756E 
 7913      7369676E 
 7913      65642069 
 7913      6E7400
 7914              	.LASF128:
 7915 065e 6D656D63 		.ascii	"memcpy\000"
 7915      707900
 7916              	.LASF29:
 7917 0665 63633835 		.ascii	"cc85xx_set_addr_s\000"
 7917      78785F73 
 7917      65745F61 
 7917      6464725F 
 7917      7300
ARM GAS  C:\Users\TERENC~1\AppData\Local\Temp\ccl7zEj9.s 			page 156


 7918              	.LASF53:
 7919 0677 646F7562 		.ascii	"double\000"
 7919      6C6500
 7920              	.LASF42:
 7921 067e 726F6D5F 		.ascii	"rom_min_rev\000"
 7921      6D696E5F 
 7921      72657600 
 7922              	.LASF28:
 7923 068a 61646472 		.ascii	"addr_lo\000"
 7923      5F6C6F00 
 7924              	.LASF96:
 7925 0692 72737664 		.ascii	"rsvd\000"
 7925      00
 7926              	.LASF89:
 7927 0697 64776F72 		.ascii	"dwordCount\000"
 7927      64436F75 
 7927      6E7400
 7928              	.LASF104:
 7929 06a2 5350495F 		.ascii	"SPI_ss0_m_SetDriveMode\000"
 7929      7373305F 
 7929      6D5F5365 
 7929      74447269 
 7929      76654D6F 
 7930              	.LASF90:
 7931 06b9 63633835 		.ascii	"cc85xx_bl_unlock_spi\000"
 7931      78785F62 
 7931      6C5F756E 
 7931      6C6F636B 
 7931      5F737069 
 7932              	.LASF125:
 7933 06ce 63633835 		.ascii	"cc85xx.c\000"
 7933      78782E63 
 7933      00
 7934              	.LASF81:
 7935 06d7 63633835 		.ascii	"cc85xx_get_status\000"
 7935      78785F67 
 7935      65745F73 
 7935      74617475 
 7935      7300
 7936              		.ident	"GCC: (GNU Tools for ARM Embedded Processors) 5.4.1 20160609 (release) [ARM/embedded-5-bran
