ARM GAS  C:\Users\TERENC~1\AppData\Local\Temp\ccyX5Aoq.s 			page 1


   1              		.syntax unified
   2              		.cpu cortex-m0
   3              		.fpu softvfp
   4              		.eabi_attribute 20, 1
   5              		.eabi_attribute 21, 1
   6              		.eabi_attribute 23, 3
   7              		.eabi_attribute 24, 1
   8              		.eabi_attribute 25, 1
   9              		.eabi_attribute 26, 1
  10              		.eabi_attribute 30, 1
  11              		.eabi_attribute 34, 0
  12              		.eabi_attribute 18, 4
  13              		.thumb
  14              		.syntax unified
  15              		.file	"cc85xx.c"
  16              		.text
  17              	.Ltext0:
  18              		.cfi_sections	.debug_frame
  19              		.section	.text.cc85xx_spi_read,"ax",%progbits
  20              		.align	2
  21              		.code	16
  22              		.thumb_func
  23              		.type	cc85xx_spi_read, %function
  24              	cc85xx_spi_read:
  25              	.LFB4:
  26              		.file 1 "cc85xx.c"
   1:cc85xx.c      **** /* ========================================
   2:cc85xx.c      ****  *
   3:cc85xx.c      ****  * Copyright YOUR COMPANY, THE YEAR
   4:cc85xx.c      ****  * All Rights Reserved
   5:cc85xx.c      ****  * UNPUBLISHED, LICENSED SOFTWARE.
   6:cc85xx.c      ****  *
   7:cc85xx.c      ****  * CONFIDENTIAL AND PROPRIETARY INFORMATION
   8:cc85xx.c      ****  * WHICH IS THE PROPERTY OF your company.
   9:cc85xx.c      ****  *
  10:cc85xx.c      ****  * ========================================
  11:cc85xx.c      **** */
  12:cc85xx.c      **** #include <cc85xx.h>
  13:cc85xx.c      **** #include <SPI.h>
  14:cc85xx.c      **** #include <SPI_SPI_UART.h>
  15:cc85xx.c      **** #include <RSTn.h>
  16:cc85xx.c      **** #include <timers.h>
  17:cc85xx.c      **** #include <Application.h>
  18:cc85xx.c      **** #include <utils.h>
  19:cc85xx.c      **** 
  20:cc85xx.c      **** #define CC85XX_WAIT_FOR_OPERATION_TIMEOUT_MS  (1000)
  21:cc85xx.c      **** #define CC85XX_PAGE_SIZE                      (1024) // 1KB
  22:cc85xx.c      **** 
  23:cc85xx.c      **** static uint32_t nImageBytes;
  24:cc85xx.c      **** 
  25:cc85xx.c      **** 
  26:cc85xx.c      **** static bool cc85xx_wait_for_status(uint16_t expectedStatus, uint32_t timeout, uint16_t *pStatus)
  27:cc85xx.c      **** {
  28:cc85xx.c      ****   uint32_t start = tmrGetCounter_ms();
  29:cc85xx.c      ****   
  30:cc85xx.c      ****   do
  31:cc85xx.c      ****   {
ARM GAS  C:\Users\TERENC~1\AppData\Local\Temp\ccyX5Aoq.s 			page 2


  32:cc85xx.c      ****     *pStatus = cc85xx_get_status();
  33:cc85xx.c      ****   } while ((*pStatus != expectedStatus) && (tmrGetElapsedMs(start) < timeout));
  34:cc85xx.c      ****   
  35:cc85xx.c      ****   return (*pStatus == expectedStatus);
  36:cc85xx.c      **** }
  37:cc85xx.c      **** 
  38:cc85xx.c      **** static bool cc85xx_reset(bool boot)
  39:cc85xx.c      **** {
  40:cc85xx.c      ****   uint32_t start;
  41:cc85xx.c      ****   uint8_t before;
  42:cc85xx.c      ****   bool ret = false;
  43:cc85xx.c      **** 
  44:cc85xx.c      ****   RSTn_SetDriveMode(RSTn_DM_STRONG);
  45:cc85xx.c      ****   RSTn_Write(0);
  46:cc85xx.c      ****   
  47:cc85xx.c      ****   SPI_ss0_m_SetDriveMode(SPI_ss0_m_DM_STRONG);
  48:cc85xx.c      ****   SPI_ss0_m_Write(0);
  49:cc85xx.c      ****   
  50:cc85xx.c      ****   /* Set output pin state after block is disabled */
  51:cc85xx.c      ****   //SPI_mosi_m_Write(SPI_GET_SPI_MOSI_INACTIVE);
  52:cc85xx.c      **** 
  53:cc85xx.c      ****   /* Set GPIO to drive output pin */
  54:cc85xx.c      ****   SPI_SET_HSIOM_SEL(SPI_MOSI_M_HSIOM_REG, SPI_MOSI_M_HSIOM_MASK,
  55:cc85xx.c      ****                                  SPI_MOSI_M_HSIOM_POS, SPI_MOSI_M_HSIOM_SEL_GPIO);
  56:cc85xx.c      **** 
  57:cc85xx.c      ****   SPI_mosi_m_SetDriveMode(SPI_mosi_m_DM_STRONG);
  58:cc85xx.c      **** 
  59:cc85xx.c      ****   if (boot)
  60:cc85xx.c      ****   {
  61:cc85xx.c      ****     SPI_mosi_m_Write(0);
  62:cc85xx.c      ****   }
  63:cc85xx.c      ****   else
  64:cc85xx.c      ****   {
  65:cc85xx.c      ****     SPI_mosi_m_Write(1);
  66:cc85xx.c      ****   }
  67:cc85xx.c      ****   
  68:cc85xx.c      ****   CyDelay(3);
  69:cc85xx.c      ****   
  70:cc85xx.c      ****   RSTn_Write(1);
  71:cc85xx.c      ****   
  72:cc85xx.c      ****   CyDelayUs(6);
  73:cc85xx.c      ****   
  74:cc85xx.c      ****   SPI_ss0_m_Write(1);
  75:cc85xx.c      ****   CyDelayUs(2);
  76:cc85xx.c      ****   SPI_ss0_m_Write(0);
  77:cc85xx.c      ****   
  78:cc85xx.c      ****   /* Set GPIO to drive output pin */
  79:cc85xx.c      ****   //SPI_SET_HSIOM_SEL(SPI_MISO_M_HSIOM_REG, SPI_MISO_M_HSIOM_MASK,
  80:cc85xx.c      ****   //                               SPI_MISO_M_HSIOM_POS, SPI_MISO_M_HSIOM_SEL_GPIO);
  81:cc85xx.c      ****   
  82:cc85xx.c      ****   //SPI_miso_m_SetDriveMode(SPI_miso_m_DM_RES_UPDWN);
  83:cc85xx.c      ****   
  84:cc85xx.c      ****   before = SPI_miso_m_Read();
  85:cc85xx.c      **** 
  86:cc85xx.c      ****   start = tmrGetCounter_ms();
  87:cc85xx.c      ****   while (SPI_miso_m_Read() == 0 && tmrGetElapsedMs(start) < 1000);
  88:cc85xx.c      ****   
ARM GAS  C:\Users\TERENC~1\AppData\Local\Temp\ccyX5Aoq.s 			page 3


  89:cc85xx.c      ****   if (SPI_miso_m_Read() && (before != SPI_miso_m_Read()) && (tmrGetElapsedMs(start) < 1000))
  90:cc85xx.c      ****   {
  91:cc85xx.c      ****     ret = true;
  92:cc85xx.c      ****   }
  93:cc85xx.c      ****   else
  94:cc85xx.c      ****   {
  95:cc85xx.c      ****     ret = false;
  96:cc85xx.c      ****   }
  97:cc85xx.c      ****   
  98:cc85xx.c      ****   /* Set GPIO to back to SPI */
  99:cc85xx.c      ****   SPI_SET_HSIOM_SEL(SPI_MOSI_M_HSIOM_REG, SPI_MOSI_M_HSIOM_MASK,
 100:cc85xx.c      ****                                SPI_MOSI_M_HSIOM_POS, SPI_MOSI_M_HSIOM_SEL_SPI);
 101:cc85xx.c      ****   
 102:cc85xx.c      ****   return ret;
 103:cc85xx.c      **** }
 104:cc85xx.c      **** 
 105:cc85xx.c      **** static uint8_t cc85xx_spi_read(void)
 106:cc85xx.c      **** {
  27              		.loc 1 106 0
  28              		.cfi_startproc
  29              		@ args = 0, pretend = 0, frame = 0
  30              		@ frame_needed = 0, uses_anonymous_args = 0
  31 0000 10B5     		push	{r4, lr}
  32              		.cfi_def_cfa_offset 8
  33              		.cfi_offset 4, -8
  34              		.cfi_offset 14, -4
 107:cc85xx.c      ****   return (uint8_t)SPI_SpiUartReadRxData();
  35              		.loc 1 107 0
  36 0002 FFF7FEFF 		bl	SPI_SpiUartReadRxData
  37              	.LVL0:
  38 0006 C0B2     		uxtb	r0, r0
 108:cc85xx.c      **** }
  39              		.loc 1 108 0
  40              		@ sp needed
  41 0008 10BD     		pop	{r4, pc}
  42              		.cfi_endproc
  43              	.LFE4:
  44              		.size	cc85xx_spi_read, .-cc85xx_spi_read
  45 000a C046     		.section	.text.cc85xx_basic_transaction,"ax",%progbits
  46              		.align	2
  47              		.code	16
  48              		.thumb_func
  49              		.type	cc85xx_basic_transaction, %function
  50              	cc85xx_basic_transaction:
  51              	.LFB5:
 109:cc85xx.c      **** 
 110:cc85xx.c      **** static bool cc85xx_basic_transaction(uint8_t *pTxData, uint32_t txLen, uint16_t *pStatus, uint8_t *
 111:cc85xx.c      **** {
  52              		.loc 1 111 0
  53              		.cfi_startproc
  54              		@ args = 8, pretend = 0, frame = 8
  55              		@ frame_needed = 0, uses_anonymous_args = 0
  56              	.LVL1:
  57 0000 F0B5     		push	{r4, r5, r6, r7, lr}
  58              		.cfi_def_cfa_offset 20
  59              		.cfi_offset 4, -20
  60              		.cfi_offset 5, -16
ARM GAS  C:\Users\TERENC~1\AppData\Local\Temp\ccyX5Aoq.s 			page 4


  61              		.cfi_offset 6, -12
  62              		.cfi_offset 7, -8
  63              		.cfi_offset 14, -4
  64 0002 4746     		mov	r7, r8
  65 0004 80B4     		push	{r7}
  66              		.cfi_def_cfa_offset 24
  67              		.cfi_offset 8, -24
  68 0006 82B0     		sub	sp, sp, #8
  69              		.cfi_def_cfa_offset 32
  70 0008 0190     		str	r0, [sp, #4]
  71 000a 0E00     		movs	r6, r1
  72 000c 1500     		movs	r5, r2
  73 000e 9846     		mov	r8, r3
  74 0010 08AB     		add	r3, sp, #32
  75              	.LVL2:
  76 0012 1F88     		ldrh	r7, [r3]
 112:cc85xx.c      ****   uint32_t start = tmrGetCounter_ms();
  77              		.loc 1 112 0
  78 0014 394B     		ldr	r3, .L19
  79              	.LVL3:
  80 0016 1C68     		ldr	r4, [r3]
  81              	.LVL4:
  82              	.L4:
 113:cc85xx.c      ****   uint32_t i;
 114:cc85xx.c      **** 
 115:cc85xx.c      ****   /* Wait for previous operation to complete */
 116:cc85xx.c      ****   while (SPI_miso_m_Read() == 0 && tmrGetElapsedMs(start) < CC85XX_WAIT_FOR_OPERATION_TIMEOUT_MS);
  83              		.loc 1 116 0 discriminator 2
  84 0018 FFF7FEFF 		bl	SPI_miso_m_Read
  85              	.LVL5:
  86 001c 0028     		cmp	r0, #0
  87 001e 05D1     		bne	.L3
  88              		.loc 1 116 0 is_stmt 0 discriminator 1
  89 0020 364B     		ldr	r3, .L19
  90 0022 1B68     		ldr	r3, [r3]
  91 0024 1B1B     		subs	r3, r3, r4
  92 0026 364A     		ldr	r2, .L19+4
  93 0028 9342     		cmp	r3, r2
  94 002a F5D9     		bls	.L4
  95              	.L3:
 117:cc85xx.c      ****   
 118:cc85xx.c      ****   if (tmrGetElapsedMs(start) >= CC85XX_WAIT_FOR_OPERATION_TIMEOUT_MS)
  96              		.loc 1 118 0 is_stmt 1
  97 002c 334B     		ldr	r3, .L19
  98 002e 1B68     		ldr	r3, [r3]
  99 0030 1C1B     		subs	r4, r3, r4
 100              	.LVL6:
 101 0032 334B     		ldr	r3, .L19+4
 102 0034 9C42     		cmp	r4, r3
 103 0036 1AD9     		bls	.L5
 119:cc85xx.c      ****   {
 120:cc85xx.c      ****     PRINTF("ERROR: Timed out waiting for previous SPI operation to complete\n");
 104              		.loc 1 120 0
 105 0038 FFF7FEFF 		bl	USBUART_GetConfiguration
 106              	.LVL7:
 107 003c 0028     		cmp	r0, #0
 108 003e 58D0     		beq	.L17
ARM GAS  C:\Users\TERENC~1\AppData\Local\Temp\ccyX5Aoq.s 			page 5


 109              	.LBB2:
 110              		.loc 1 120 0 is_stmt 0 discriminator 1
 111 0040 2E4B     		ldr	r3, .L19
 112 0042 1C68     		ldr	r4, [r3]
 113              	.LVL8:
 114              	.L8:
 115              		.loc 1 120 0 discriminator 5
 116 0044 FFF7FEFF 		bl	USBUART_CDCIsReady
 117              	.LVL9:
 118 0048 0028     		cmp	r0, #0
 119 004a 05D1     		bne	.L7
 120              		.loc 1 120 0 discriminator 3
 121 004c 2B4B     		ldr	r3, .L19
 122 004e 1B68     		ldr	r3, [r3]
 123 0050 1B1B     		subs	r3, r3, r4
 124 0052 2B4A     		ldr	r2, .L19+4
 125 0054 9342     		cmp	r3, r2
 126 0056 F5D9     		bls	.L8
 127              	.L7:
 128              		.loc 1 120 0 discriminator 6
 129 0058 2A4C     		ldr	r4, .L19+8
 130              	.LVL10:
 131 005a 4122     		movs	r2, #65
 132 005c 2A49     		ldr	r1, .L19+12
 133 005e 2000     		movs	r0, r4
 134 0060 FFF7FEFF 		bl	memcpy
 135              	.LVL11:
 136 0064 2000     		movs	r0, r4
 137 0066 FFF7FEFF 		bl	USBUART_PutString
 138              	.LVL12:
 139              	.LBE2:
 121:cc85xx.c      ****     return false;
 140              		.loc 1 121 0 is_stmt 1 discriminator 6
 141 006a 0020     		movs	r0, #0
 142 006c 42E0     		b	.L6
 143              	.L5:
 122:cc85xx.c      ****   }
 123:cc85xx.c      ****   
 124:cc85xx.c      ****   /* Start transfer */
 125:cc85xx.c      ****   SPI_SpiUartPutArray(pTxData, txLen);
 144              		.loc 1 125 0
 145 006e 3100     		movs	r1, r6
 146 0070 0198     		ldr	r0, [sp, #4]
 147 0072 FFF7FEFF 		bl	SPI_SpiUartPutArray
 148              	.LVL13:
 126:cc85xx.c      **** 
 127:cc85xx.c      ****   /* Wait for the end of the transfer. The number of transmitted data
 128:cc85xx.c      ****   * elements has to be equal to the number of received data elements.
 129:cc85xx.c      ****   */  
 130:cc85xx.c      ****   start = tmrGetCounter_ms();
 149              		.loc 1 130 0
 150 0076 214B     		ldr	r3, .L19
 151 0078 1C68     		ldr	r4, [r3]
 152              	.LVL14:
 153              	.L10:
 131:cc85xx.c      **** 
 132:cc85xx.c      ****   while(txLen != SPI_SpiUartGetRxBufferSize() && (tmrGetElapsedMs(start) < CC85XX_WAIT_FOR_OPERATIO
ARM GAS  C:\Users\TERENC~1\AppData\Local\Temp\ccyX5Aoq.s 			page 6


 154              		.loc 1 132 0 discriminator 2
 155 007a FFF7FEFF 		bl	SPI_SpiUartGetRxBufferSize
 156              	.LVL15:
 157 007e 8642     		cmp	r6, r0
 158 0080 05D0     		beq	.L9
 159              		.loc 1 132 0 is_stmt 0 discriminator 1
 160 0082 1E4B     		ldr	r3, .L19
 161 0084 1B68     		ldr	r3, [r3]
 162 0086 1B1B     		subs	r3, r3, r4
 163 0088 1D4A     		ldr	r2, .L19+4
 164 008a 9342     		cmp	r3, r2
 165 008c F5D9     		bls	.L10
 166              	.L9:
 133:cc85xx.c      ****   {
 134:cc85xx.c      ****   }
 135:cc85xx.c      ****   
 136:cc85xx.c      ****   if (pStatus)
 167              		.loc 1 136 0 is_stmt 1
 168 008e 002D     		cmp	r5, #0
 169 0090 08D0     		beq	.L11
 137:cc85xx.c      ****   {
 138:cc85xx.c      ****     *pStatus = cc85xx_spi_read() << 8;
 170              		.loc 1 138 0
 171 0092 FFF7FEFF 		bl	cc85xx_spi_read
 172              	.LVL16:
 173 0096 0002     		lsls	r0, r0, #8
 174 0098 2880     		strh	r0, [r5]
 139:cc85xx.c      ****     *pStatus |= cc85xx_spi_read();
 175              		.loc 1 139 0
 176 009a FFF7FEFF 		bl	cc85xx_spi_read
 177              	.LVL17:
 178 009e 2B88     		ldrh	r3, [r5]
 179 00a0 1843     		orrs	r0, r3
 180 00a2 2880     		strh	r0, [r5]
 181              	.L11:
 140:cc85xx.c      ****   }
 141:cc85xx.c      ****   
 142:cc85xx.c      ****   if (pRxLen)
 182              		.loc 1 142 0
 183 00a4 099B     		ldr	r3, [sp, #36]
 184 00a6 002B     		cmp	r3, #0
 185 00a8 11D0     		beq	.L12
 143:cc85xx.c      ****   {
 144:cc85xx.c      ****     *pRxLen = cc85xx_spi_read() << 8;
 186              		.loc 1 144 0
 187 00aa FFF7FEFF 		bl	cc85xx_spi_read
 188              	.LVL18:
 189 00ae 0002     		lsls	r0, r0, #8
 190 00b0 099B     		ldr	r3, [sp, #36]
 191 00b2 1880     		strh	r0, [r3]
 145:cc85xx.c      ****     *pRxLen |= cc85xx_spi_read();
 192              		.loc 1 145 0
 193 00b4 FFF7FEFF 		bl	cc85xx_spi_read
 194              	.LVL19:
 195 00b8 099B     		ldr	r3, [sp, #36]
 196 00ba 1B88     		ldrh	r3, [r3]
 197 00bc 1843     		orrs	r0, r3
ARM GAS  C:\Users\TERENC~1\AppData\Local\Temp\ccyX5Aoq.s 			page 7


 198 00be 83B2     		uxth	r3, r0
 199 00c0 099A     		ldr	r2, [sp, #36]
 200 00c2 1380     		strh	r3, [r2]
 146:cc85xx.c      ****     
 147:cc85xx.c      ****     rxLen = (*pRxLen < rxLen) ? *pRxLen : rxLen;
 201              		.loc 1 147 0
 202 00c4 3A1C     		adds	r2, r7, #0
 203 00c6 9F42     		cmp	r7, r3
 204 00c8 00D9     		bls	.L13
 205 00ca 1A1C     		adds	r2, r3, #0
 206              	.L13:
 207 00cc 97B2     		uxth	r7, r2
 208              	.LVL20:
 209              	.L12:
 148:cc85xx.c      ****   }
 149:cc85xx.c      ****   
 150:cc85xx.c      ****   if (pRxData != NULL)
 210              		.loc 1 150 0
 211 00ce 4346     		mov	r3, r8
 212 00d0 002B     		cmp	r3, #0
 213 00d2 07D1     		bne	.L18
 214              	.LVL21:
 215 00d4 09E0     		b	.L15
 216              	.LVL22:
 217              	.L16:
 151:cc85xx.c      ****   {
 152:cc85xx.c      ****     for (i = 0; i < rxLen; i++)
 153:cc85xx.c      ****     {
 154:cc85xx.c      ****       pRxData[i] = cc85xx_spi_read();
 218              		.loc 1 154 0 discriminator 3
 219 00d6 4346     		mov	r3, r8
 220 00d8 1D19     		adds	r5, r3, r4
 221 00da FFF7FEFF 		bl	cc85xx_spi_read
 222              	.LVL23:
 223 00de 2870     		strb	r0, [r5]
 152:cc85xx.c      ****     {
 224              		.loc 1 152 0 discriminator 3
 225 00e0 0134     		adds	r4, r4, #1
 226              	.LVL24:
 227 00e2 00E0     		b	.L14
 228              	.LVL25:
 229              	.L18:
 230 00e4 0024     		movs	r4, #0
 231              	.LVL26:
 232              	.L14:
 152:cc85xx.c      ****     {
 233              		.loc 1 152 0 is_stmt 0 discriminator 1
 234 00e6 BC42     		cmp	r4, r7
 235 00e8 F5D3     		bcc	.L16
 236              	.LVL27:
 237              	.L15:
 155:cc85xx.c      ****     }
 156:cc85xx.c      ****   }
 157:cc85xx.c      **** 
 158:cc85xx.c      ****   /* Clear dummy bytes from RX buffer */
 159:cc85xx.c      ****   SPI_SpiUartClearRxBuffer();
 238              		.loc 1 159 0 is_stmt 1
ARM GAS  C:\Users\TERENC~1\AppData\Local\Temp\ccyX5Aoq.s 			page 8


 239 00ea FFF7FEFF 		bl	SPI_SpiUartClearRxBuffer
 240              	.LVL28:
 160:cc85xx.c      ****   
 161:cc85xx.c      ****   return true;
 241              		.loc 1 161 0
 242 00ee 0120     		movs	r0, #1
 243 00f0 00E0     		b	.L6
 244              	.LVL29:
 245              	.L17:
 121:cc85xx.c      ****   }
 246              		.loc 1 121 0
 247 00f2 0020     		movs	r0, #0
 248              	.LVL30:
 249              	.L6:
 162:cc85xx.c      **** }
 250              		.loc 1 162 0
 251 00f4 02B0     		add	sp, sp, #8
 252              		@ sp needed
 253              	.LVL31:
 254              	.LVL32:
 255 00f6 04BC     		pop	{r2}
 256 00f8 9046     		mov	r8, r2
 257 00fa F0BD     		pop	{r4, r5, r6, r7, pc}
 258              	.L20:
 259              		.align	2
 260              	.L19:
 261 00fc 00000000 		.word	tmrCounter_ms
 262 0100 E7030000 		.word	999
 263 0104 00000000 		.word	gbuf
 264 0108 00000000 		.word	.LC2
 265              		.cfi_endproc
 266              	.LFE5:
 267              		.size	cc85xx_basic_transaction, .-cc85xx_basic_transaction
 268              		.section	.text.cc85xx_cmd_req,"ax",%progbits
 269              		.align	2
 270              		.code	16
 271              		.thumb_func
 272              		.type	cc85xx_cmd_req, %function
 273              	cc85xx_cmd_req:
 274              	.LFB6:
 163:cc85xx.c      **** 
 164:cc85xx.c      **** static bool cc85xx_cmd_req(uint8_t cmdType, uint8_t paramLen, uint8_t *pData, uint16_t *pStatus)
 165:cc85xx.c      **** {
 275              		.loc 1 165 0
 276              		.cfi_startproc
 277              		@ args = 0, pretend = 0, frame = 8
 278              		@ frame_needed = 0, uses_anonymous_args = 0
 279              	.LVL33:
 280 0000 F0B5     		push	{r4, r5, r6, r7, lr}
 281              		.cfi_def_cfa_offset 20
 282              		.cfi_offset 4, -20
 283              		.cfi_offset 5, -16
 284              		.cfi_offset 6, -12
 285              		.cfi_offset 7, -8
 286              		.cfi_offset 14, -4
 287 0002 85B0     		sub	sp, sp, #20
 288              		.cfi_def_cfa_offset 40
ARM GAS  C:\Users\TERENC~1\AppData\Local\Temp\ccyX5Aoq.s 			page 9


 289 0004 0600     		movs	r6, r0
 290 0006 0D00     		movs	r5, r1
 291 0008 0292     		str	r2, [sp, #8]
 292 000a 0393     		str	r3, [sp, #12]
 293              	.LVL34:
 166:cc85xx.c      ****   bool ret = false;
 167:cc85xx.c      **** 
 168:cc85xx.c      ****   cc85xx_cmd_req_s *pTxPkt = (cc85xx_cmd_req_s *)malloc(sizeof(cc85xx_cmd_req_hdr_s) + paramLen);
 294              		.loc 1 168 0
 295 000c 8C1C     		adds	r4, r1, #2
 296 000e 2000     		movs	r0, r4
 297              	.LVL35:
 298 0010 FFF7FEFF 		bl	malloc
 299              	.LVL36:
 300 0014 0700     		movs	r7, r0
 301              	.LVL37:
 169:cc85xx.c      **** 
 170:cc85xx.c      ****   pTxPkt->hdr.opcode = CC85XX_OP_CMD_REQ;
 302              		.loc 1 170 0
 303 0016 0278     		ldrb	r2, [r0]
 304 0018 4023     		movs	r3, #64
 305 001a 5B42     		rsbs	r3, r3, #0
 306 001c 1A43     		orrs	r2, r3
 171:cc85xx.c      ****   pTxPkt->hdr.cmd_type = cmdType;
 307              		.loc 1 171 0
 308 001e 7F33     		adds	r3, r3, #127
 309 0020 3340     		ands	r3, r6
 310 0022 1900     		movs	r1, r3
 311 0024 D3B2     		uxtb	r3, r2
 312 0026 3F22     		movs	r2, #63
 313 0028 9343     		bics	r3, r2
 314 002a 0B43     		orrs	r3, r1
 315 002c 0370     		strb	r3, [r0]
 172:cc85xx.c      ****   pTxPkt->hdr.param_len = paramLen;
 316              		.loc 1 172 0
 317 002e 4570     		strb	r5, [r0, #1]
 173:cc85xx.c      ****   memcpy(pTxPkt->param, pData, paramLen);
 318              		.loc 1 173 0
 319 0030 0230     		adds	r0, r0, #2
 320              	.LVL38:
 321 0032 2A00     		movs	r2, r5
 322 0034 0299     		ldr	r1, [sp, #8]
 323 0036 FFF7FEFF 		bl	memcpy
 324              	.LVL39:
 174:cc85xx.c      ****   
 175:cc85xx.c      ****   ret = cc85xx_basic_transaction((uint8_t *)pTxPkt, sizeof(cc85xx_cmd_req_hdr_s) + paramLen, pStatu
 325              		.loc 1 175 0
 326 003a 0023     		movs	r3, #0
 327 003c 0193     		str	r3, [sp, #4]
 328 003e 0093     		str	r3, [sp]
 329 0040 039A     		ldr	r2, [sp, #12]
 330 0042 2100     		movs	r1, r4
 331 0044 3800     		movs	r0, r7
 332 0046 FFF7FEFF 		bl	cc85xx_basic_transaction
 333              	.LVL40:
 334 004a 0400     		movs	r4, r0
 335              	.LVL41:
ARM GAS  C:\Users\TERENC~1\AppData\Local\Temp\ccyX5Aoq.s 			page 10


 176:cc85xx.c      ****   
 177:cc85xx.c      ****   free(pTxPkt);
 336              		.loc 1 177 0
 337 004c 3800     		movs	r0, r7
 338 004e FFF7FEFF 		bl	free
 339              	.LVL42:
 178:cc85xx.c      **** 
 179:cc85xx.c      ****   if (!ret)
 340              		.loc 1 179 0
 341 0052 002C     		cmp	r4, #0
 342 0054 01D0     		beq	.L23
 180:cc85xx.c      ****   {
 181:cc85xx.c      ****     return ret;
 182:cc85xx.c      ****   }
 183:cc85xx.c      ****   
 184:cc85xx.c      ****   return true;
 343              		.loc 1 184 0
 344 0056 0120     		movs	r0, #1
 345 0058 00E0     		b	.L22
 346              	.L23:
 181:cc85xx.c      ****   }
 347              		.loc 1 181 0
 348 005a 2000     		movs	r0, r4
 349              	.L22:
 185:cc85xx.c      **** }
 350              		.loc 1 185 0
 351 005c 05B0     		add	sp, sp, #20
 352              		@ sp needed
 353              	.LVL43:
 354              	.LVL44:
 355 005e F0BD     		pop	{r4, r5, r6, r7, pc}
 356              		.cfi_endproc
 357              	.LFE6:
 358              		.size	cc85xx_cmd_req, .-cc85xx_cmd_req
 359              		.section	.text.cc85xx_set_addr,"ax",%progbits
 360              		.align	2
 361              		.code	16
 362              		.thumb_func
 363              		.type	cc85xx_set_addr, %function
 364              	cc85xx_set_addr:
 365              	.LFB9:
 186:cc85xx.c      **** 
 187:cc85xx.c      **** static bool cc85xx_read(uint16_t dataLen, uint16_t *pStatus, uint8_t *pData)
 188:cc85xx.c      **** {
 189:cc85xx.c      ****   bool ret = false;
 190:cc85xx.c      ****   
 191:cc85xx.c      ****   cc85xx_read_s *pTxPkt = (cc85xx_read_s *)malloc(sizeof(cc85xx_read_s) + dataLen);
 192:cc85xx.c      ****   
 193:cc85xx.c      ****   memset((void *)pTxPkt, 0xCC, sizeof(cc85xx_read_s) + dataLen);
 194:cc85xx.c      ****   
 195:cc85xx.c      ****   pTxPkt->opcode = CC85XX_OP_READ;
 196:cc85xx.c      ****   pTxPkt->data_len = dataLen;
 197:cc85xx.c      ****   
 198:cc85xx.c      ****   ret = cc85xx_basic_transaction((uint8_t *)pTxPkt, sizeof(cc85xx_read_s) + dataLen, pStatus, pData
 199:cc85xx.c      **** 
 200:cc85xx.c      ****   free(pTxPkt);
 201:cc85xx.c      **** 
ARM GAS  C:\Users\TERENC~1\AppData\Local\Temp\ccyX5Aoq.s 			page 11


 202:cc85xx.c      ****   if (!ret)
 203:cc85xx.c      ****   {
 204:cc85xx.c      ****     return ret;
 205:cc85xx.c      ****   }
 206:cc85xx.c      ****   
 207:cc85xx.c      ****   return true;
 208:cc85xx.c      **** }
 209:cc85xx.c      **** 
 210:cc85xx.c      **** static bool cc85xx_readbc(uint8_t *pRxData, uint16_t *pRxLen, uint16_t *pStatus)
 211:cc85xx.c      **** {
 212:cc85xx.c      ****   cc85xx_readbc_cmd_s cmd = 
 213:cc85xx.c      ****   {
 214:cc85xx.c      ****     .opcode = CC85XX_OP_READBC
 215:cc85xx.c      ****   };
 216:cc85xx.c      **** 
 217:cc85xx.c      ****   return cc85xx_basic_transaction((uint8_t *)&cmd, sizeof(cc85xx_readbc_cmd_s), pStatus, pRxData, *
 218:cc85xx.c      **** }
 219:cc85xx.c      **** 
 220:cc85xx.c      **** static bool cc85xx_set_addr(uint16_t addr, uint16_t *pStatus)
 221:cc85xx.c      **** {
 366              		.loc 1 221 0
 367              		.cfi_startproc
 368              		@ args = 0, pretend = 0, frame = 0
 369              		@ frame_needed = 0, uses_anonymous_args = 0
 370              	.LVL45:
 371 0000 70B5     		push	{r4, r5, r6, lr}
 372              		.cfi_def_cfa_offset 16
 373              		.cfi_offset 4, -16
 374              		.cfi_offset 5, -12
 375              		.cfi_offset 6, -8
 376              		.cfi_offset 14, -4
 377 0002 82B0     		sub	sp, sp, #8
 378              		.cfi_def_cfa_offset 24
 379 0004 0600     		movs	r6, r0
 380 0006 0D00     		movs	r5, r1
 381              	.LVL46:
 222:cc85xx.c      ****   bool ret = false;
 223:cc85xx.c      ****   
 224:cc85xx.c      ****   cc85xx_set_addr_s *pTxPkt = (cc85xx_set_addr_s *)malloc(sizeof(cc85xx_set_addr_s));
 382              		.loc 1 224 0
 383 0008 0220     		movs	r0, #2
 384              	.LVL47:
 385 000a FFF7FEFF 		bl	malloc
 386              	.LVL48:
 387 000e 0400     		movs	r4, r0
 388              	.LVL49:
 225:cc85xx.c      ****   
 226:cc85xx.c      ****   pTxPkt->opcode = CC85XX_OP_SET_ADDR;
 227:cc85xx.c      ****   pTxPkt->addr_hi = (addr >> 8) & 0xFF;
 389              		.loc 1 227 0
 390 0010 330A     		lsrs	r3, r6, #8
 391 0012 7F22     		movs	r2, #127
 392 0014 1340     		ands	r3, r2
 393 0016 0370     		strb	r3, [r0]
 228:cc85xx.c      ****   pTxPkt->addr_lo = (addr & 0xFF);
 394              		.loc 1 228 0
 395 0018 4670     		strb	r6, [r0, #1]
ARM GAS  C:\Users\TERENC~1\AppData\Local\Temp\ccyX5Aoq.s 			page 12


 229:cc85xx.c      ****   
 230:cc85xx.c      ****   ret = cc85xx_basic_transaction((uint8_t *)pTxPkt, sizeof(cc85xx_set_addr_s), pStatus, NULL, 0, NU
 396              		.loc 1 230 0
 397 001a 0023     		movs	r3, #0
 398 001c 0193     		str	r3, [sp, #4]
 399 001e 0093     		str	r3, [sp]
 400 0020 2A00     		movs	r2, r5
 401 0022 0221     		movs	r1, #2
 402 0024 FFF7FEFF 		bl	cc85xx_basic_transaction
 403              	.LVL50:
 404 0028 0500     		movs	r5, r0
 405              	.LVL51:
 231:cc85xx.c      ****   
 232:cc85xx.c      ****   free(pTxPkt);
 406              		.loc 1 232 0
 407 002a 2000     		movs	r0, r4
 408 002c FFF7FEFF 		bl	free
 409              	.LVL52:
 233:cc85xx.c      ****   
 234:cc85xx.c      ****   if (!ret)
 410              		.loc 1 234 0
 411 0030 002D     		cmp	r5, #0
 412 0032 01D0     		beq	.L26
 235:cc85xx.c      ****   {
 236:cc85xx.c      ****     return ret;
 237:cc85xx.c      ****   }
 238:cc85xx.c      ****   
 239:cc85xx.c      ****   return true;
 413              		.loc 1 239 0
 414 0034 0120     		movs	r0, #1
 415 0036 00E0     		b	.L25
 416              	.L26:
 236:cc85xx.c      ****   }
 417              		.loc 1 236 0
 418 0038 2800     		movs	r0, r5
 419              	.L25:
 240:cc85xx.c      **** }
 420              		.loc 1 240 0
 421 003a 02B0     		add	sp, sp, #8
 422              		@ sp needed
 423              	.LVL53:
 424              	.LVL54:
 425 003c 70BD     		pop	{r4, r5, r6, pc}
 426              		.cfi_endproc
 427              	.LFE9:
 428              		.size	cc85xx_set_addr, .-cc85xx_set_addr
 429 003e C046     		.section	.text.cc85xx_write,"ax",%progbits
 430              		.align	2
 431              		.code	16
 432              		.thumb_func
 433              		.type	cc85xx_write, %function
 434              	cc85xx_write:
 435              	.LFB10:
 241:cc85xx.c      **** 
 242:cc85xx.c      **** static bool cc85xx_write(uint16_t dataLen, uint8_t *pData, uint16_t *pStatus)
 243:cc85xx.c      **** {
 436              		.loc 1 243 0
ARM GAS  C:\Users\TERENC~1\AppData\Local\Temp\ccyX5Aoq.s 			page 13


 437              		.cfi_startproc
 438              		@ args = 0, pretend = 0, frame = 8
 439              		@ frame_needed = 0, uses_anonymous_args = 0
 440              	.LVL55:
 441 0000 F0B5     		push	{r4, r5, r6, r7, lr}
 442              		.cfi_def_cfa_offset 20
 443              		.cfi_offset 4, -20
 444              		.cfi_offset 5, -16
 445              		.cfi_offset 6, -12
 446              		.cfi_offset 7, -8
 447              		.cfi_offset 14, -4
 448 0002 85B0     		sub	sp, sp, #20
 449              		.cfi_def_cfa_offset 40
 450 0004 0500     		movs	r5, r0
 451 0006 0E00     		movs	r6, r1
 452 0008 0392     		str	r2, [sp, #12]
 453              	.LVL56:
 244:cc85xx.c      ****   bool ret = false;
 245:cc85xx.c      ****   
 246:cc85xx.c      ****   cc85xx_write_s *pTxPkt = (cc85xx_write_s *)malloc(sizeof(cc85xx_write_s) + dataLen);
 454              		.loc 1 246 0
 455 000a C41C     		adds	r4, r0, #3
 456 000c 2000     		movs	r0, r4
 457              	.LVL57:
 458 000e FFF7FEFF 		bl	malloc
 459              	.LVL58:
 460 0012 0700     		movs	r7, r0
 461              	.LVL59:
 247:cc85xx.c      ****   
 248:cc85xx.c      ****   pTxPkt->opcode = CC85XX_OP_WRITE;
 462              		.loc 1 248 0
 463 0014 0278     		ldrb	r2, [r0]
 464 0016 0F21     		movs	r1, #15
 465 0018 0A40     		ands	r2, r1
 466 001a 8023     		movs	r3, #128
 467 001c 5B42     		rsbs	r3, r3, #0
 468 001e 1A43     		orrs	r2, r3
 249:cc85xx.c      ****   pTxPkt->len_hi = (dataLen >> 8) & 0xFF;
 469              		.loc 1 249 0
 470 0020 2B0A     		lsrs	r3, r5, #8
 471 0022 1940     		ands	r1, r3
 472 0024 D3B2     		uxtb	r3, r2
 473 0026 0F22     		movs	r2, #15
 474 0028 9343     		bics	r3, r2
 475 002a 0B43     		orrs	r3, r1
 476 002c 0370     		strb	r3, [r0]
 250:cc85xx.c      ****   pTxPkt->len_lo = (dataLen & 0xFF);
 477              		.loc 1 250 0
 478 002e 4570     		strb	r5, [r0, #1]
 251:cc85xx.c      ****   memcpy(pTxPkt->param, pData, dataLen);
 479              		.loc 1 251 0
 480 0030 0230     		adds	r0, r0, #2
 481              	.LVL60:
 482 0032 2A00     		movs	r2, r5
 483 0034 3100     		movs	r1, r6
 484 0036 FFF7FEFF 		bl	memcpy
 485              	.LVL61:
ARM GAS  C:\Users\TERENC~1\AppData\Local\Temp\ccyX5Aoq.s 			page 14


 252:cc85xx.c      ****   
 253:cc85xx.c      ****   ret = cc85xx_basic_transaction((uint8_t *)pTxPkt, sizeof(cc85xx_write_s) + dataLen, pStatus, NULL
 486              		.loc 1 253 0
 487 003a 0023     		movs	r3, #0
 488 003c 0193     		str	r3, [sp, #4]
 489 003e 0093     		str	r3, [sp]
 490 0040 039A     		ldr	r2, [sp, #12]
 491 0042 2100     		movs	r1, r4
 492 0044 3800     		movs	r0, r7
 493 0046 FFF7FEFF 		bl	cc85xx_basic_transaction
 494              	.LVL62:
 495 004a 0400     		movs	r4, r0
 496              	.LVL63:
 254:cc85xx.c      ****   
 255:cc85xx.c      ****   free(pTxPkt);
 497              		.loc 1 255 0
 498 004c 3800     		movs	r0, r7
 499 004e FFF7FEFF 		bl	free
 500              	.LVL64:
 256:cc85xx.c      ****   
 257:cc85xx.c      ****   if (!ret)
 501              		.loc 1 257 0
 502 0052 002C     		cmp	r4, #0
 503 0054 01D0     		beq	.L29
 258:cc85xx.c      ****   {
 259:cc85xx.c      ****     return ret;
 260:cc85xx.c      ****   }
 261:cc85xx.c      ****   
 262:cc85xx.c      ****   return true;
 504              		.loc 1 262 0
 505 0056 0120     		movs	r0, #1
 506 0058 00E0     		b	.L28
 507              	.L29:
 259:cc85xx.c      ****   }
 508              		.loc 1 259 0
 509 005a 2000     		movs	r0, r4
 510              	.L28:
 263:cc85xx.c      **** }
 511              		.loc 1 263 0
 512 005c 05B0     		add	sp, sp, #20
 513              		@ sp needed
 514              	.LVL65:
 515              	.LVL66:
 516              	.LVL67:
 517 005e F0BD     		pop	{r4, r5, r6, r7, pc}
 518              		.cfi_endproc
 519              	.LFE10:
 520              		.size	cc85xx_write, .-cc85xx_write
 521              		.section	.text.cc85xx_read,"ax",%progbits
 522              		.align	2
 523              		.code	16
 524              		.thumb_func
 525              		.type	cc85xx_read, %function
 526              	cc85xx_read:
 527              	.LFB7:
 188:cc85xx.c      ****   bool ret = false;
 528              		.loc 1 188 0
ARM GAS  C:\Users\TERENC~1\AppData\Local\Temp\ccyX5Aoq.s 			page 15


 529              		.cfi_startproc
 530              		@ args = 0, pretend = 0, frame = 8
 531              		@ frame_needed = 0, uses_anonymous_args = 0
 532              	.LVL68:
 533 0000 F0B5     		push	{r4, r5, r6, r7, lr}
 534              		.cfi_def_cfa_offset 20
 535              		.cfi_offset 4, -20
 536              		.cfi_offset 5, -16
 537              		.cfi_offset 6, -12
 538              		.cfi_offset 7, -8
 539              		.cfi_offset 14, -4
 540 0002 85B0     		sub	sp, sp, #20
 541              		.cfi_def_cfa_offset 40
 542 0004 0600     		movs	r6, r0
 543 0006 0391     		str	r1, [sp, #12]
 544 0008 1700     		movs	r7, r2
 545              	.LVL69:
 191:cc85xx.c      ****   
 546              		.loc 1 191 0
 547 000a 851C     		adds	r5, r0, #2
 548 000c 2800     		movs	r0, r5
 549              	.LVL70:
 550 000e FFF7FEFF 		bl	malloc
 551              	.LVL71:
 552 0012 0400     		movs	r4, r0
 553              	.LVL72:
 193:cc85xx.c      ****   
 554              		.loc 1 193 0
 555 0014 2A00     		movs	r2, r5
 556 0016 CC21     		movs	r1, #204
 557 0018 FFF7FEFF 		bl	memset
 558              	.LVL73:
 195:cc85xx.c      ****   pTxPkt->data_len = dataLen;
 559              		.loc 1 195 0
 560 001c 2378     		ldrb	r3, [r4]
 561 001e 0F22     		movs	r2, #15
 562 0020 1340     		ands	r3, r2
 563 0022 7F3A     		subs	r2, r2, #127
 564 0024 1343     		orrs	r3, r2
 565 0026 2370     		strb	r3, [r4]
 196:cc85xx.c      ****   
 566              		.loc 1 196 0
 567 0028 6670     		strb	r6, [r4, #1]
 198:cc85xx.c      **** 
 568              		.loc 1 198 0
 569 002a 0023     		movs	r3, #0
 570 002c 0193     		str	r3, [sp, #4]
 571 002e 0096     		str	r6, [sp]
 572 0030 3B00     		movs	r3, r7
 573 0032 039A     		ldr	r2, [sp, #12]
 574 0034 2900     		movs	r1, r5
 575 0036 2000     		movs	r0, r4
 576 0038 FFF7FEFF 		bl	cc85xx_basic_transaction
 577              	.LVL74:
 578 003c 0500     		movs	r5, r0
 579              	.LVL75:
 200:cc85xx.c      **** 
ARM GAS  C:\Users\TERENC~1\AppData\Local\Temp\ccyX5Aoq.s 			page 16


 580              		.loc 1 200 0
 581 003e 2000     		movs	r0, r4
 582 0040 FFF7FEFF 		bl	free
 583              	.LVL76:
 202:cc85xx.c      ****   {
 584              		.loc 1 202 0
 585 0044 002D     		cmp	r5, #0
 586 0046 01D0     		beq	.L32
 207:cc85xx.c      **** }
 587              		.loc 1 207 0
 588 0048 0120     		movs	r0, #1
 589 004a 00E0     		b	.L31
 590              	.L32:
 204:cc85xx.c      ****   }
 591              		.loc 1 204 0
 592 004c 2800     		movs	r0, r5
 593              	.L31:
 208:cc85xx.c      **** 
 594              		.loc 1 208 0
 595 004e 05B0     		add	sp, sp, #20
 596              		@ sp needed
 597              	.LVL77:
 598              	.LVL78:
 599              	.LVL79:
 600 0050 F0BD     		pop	{r4, r5, r6, r7, pc}
 601              		.cfi_endproc
 602              	.LFE7:
 603              		.size	cc85xx_read, .-cc85xx_read
 604 0052 C046     		.section	.text.cc85xx_reset,"ax",%progbits
 605              		.align	2
 606              		.code	16
 607              		.thumb_func
 608              		.type	cc85xx_reset, %function
 609              	cc85xx_reset:
 610              	.LFB3:
  39:cc85xx.c      ****   uint32_t start;
 611              		.loc 1 39 0
 612              		.cfi_startproc
 613              		@ args = 0, pretend = 0, frame = 0
 614              		@ frame_needed = 0, uses_anonymous_args = 0
 615              	.LVL80:
 616 0000 70B5     		push	{r4, r5, r6, lr}
 617              		.cfi_def_cfa_offset 16
 618              		.cfi_offset 4, -16
 619              		.cfi_offset 5, -12
 620              		.cfi_offset 6, -8
 621              		.cfi_offset 14, -4
 622 0002 0400     		movs	r4, r0
 623              	.LVL81:
  44:cc85xx.c      ****   RSTn_Write(0);
 624              		.loc 1 44 0
 625 0004 0620     		movs	r0, #6
 626              	.LVL82:
 627 0006 FFF7FEFF 		bl	RSTn_SetDriveMode
 628              	.LVL83:
  45:cc85xx.c      ****   
 629              		.loc 1 45 0
ARM GAS  C:\Users\TERENC~1\AppData\Local\Temp\ccyX5Aoq.s 			page 17


 630 000a 0020     		movs	r0, #0
 631 000c FFF7FEFF 		bl	RSTn_Write
 632              	.LVL84:
  47:cc85xx.c      ****   SPI_ss0_m_Write(0);
 633              		.loc 1 47 0
 634 0010 0620     		movs	r0, #6
 635 0012 FFF7FEFF 		bl	SPI_ss0_m_SetDriveMode
 636              	.LVL85:
  48:cc85xx.c      ****   
 637              		.loc 1 48 0
 638 0016 0020     		movs	r0, #0
 639 0018 FFF7FEFF 		bl	SPI_ss0_m_Write
 640              	.LVL86:
  54:cc85xx.c      ****                                  SPI_MOSI_M_HSIOM_POS, SPI_MOSI_M_HSIOM_SEL_GPIO);
 641              		.loc 1 54 0
 642 001c 264A     		ldr	r2, .L42
 643 001e 1368     		ldr	r3, [r2]
 644 0020 0F21     		movs	r1, #15
 645 0022 8B43     		bics	r3, r1
 646 0024 1360     		str	r3, [r2]
  57:cc85xx.c      **** 
 647              		.loc 1 57 0
 648 0026 0620     		movs	r0, #6
 649 0028 FFF7FEFF 		bl	SPI_mosi_m_SetDriveMode
 650              	.LVL87:
  59:cc85xx.c      ****   {
 651              		.loc 1 59 0
 652 002c 002C     		cmp	r4, #0
 653 002e 03D0     		beq	.L34
  61:cc85xx.c      ****   }
 654              		.loc 1 61 0
 655 0030 0020     		movs	r0, #0
 656 0032 FFF7FEFF 		bl	SPI_mosi_m_Write
 657              	.LVL88:
 658 0036 02E0     		b	.L35
 659              	.L34:
  65:cc85xx.c      ****   }
 660              		.loc 1 65 0
 661 0038 0120     		movs	r0, #1
 662 003a FFF7FEFF 		bl	SPI_mosi_m_Write
 663              	.LVL89:
 664              	.L35:
  68:cc85xx.c      ****   
 665              		.loc 1 68 0
 666 003e 0320     		movs	r0, #3
 667 0040 FFF7FEFF 		bl	CyDelay
 668              	.LVL90:
  70:cc85xx.c      ****   
 669              		.loc 1 70 0
 670 0044 0120     		movs	r0, #1
 671 0046 FFF7FEFF 		bl	RSTn_Write
 672              	.LVL91:
  72:cc85xx.c      ****   
 673              		.loc 1 72 0
 674 004a 0620     		movs	r0, #6
 675 004c FFF7FEFF 		bl	CyDelayUs
 676              	.LVL92:
ARM GAS  C:\Users\TERENC~1\AppData\Local\Temp\ccyX5Aoq.s 			page 18


  74:cc85xx.c      ****   CyDelayUs(2);
 677              		.loc 1 74 0
 678 0050 0120     		movs	r0, #1
 679 0052 FFF7FEFF 		bl	SPI_ss0_m_Write
 680              	.LVL93:
  75:cc85xx.c      ****   SPI_ss0_m_Write(0);
 681              		.loc 1 75 0
 682 0056 0220     		movs	r0, #2
 683 0058 FFF7FEFF 		bl	CyDelayUs
 684              	.LVL94:
  76:cc85xx.c      ****   
 685              		.loc 1 76 0
 686 005c 0020     		movs	r0, #0
 687 005e FFF7FEFF 		bl	SPI_ss0_m_Write
 688              	.LVL95:
  84:cc85xx.c      **** 
 689              		.loc 1 84 0
 690 0062 FFF7FEFF 		bl	SPI_miso_m_Read
 691              	.LVL96:
 692 0066 0400     		movs	r4, r0
 693              	.LVL97:
  86:cc85xx.c      ****   while (SPI_miso_m_Read() == 0 && tmrGetElapsedMs(start) < 1000);
 694              		.loc 1 86 0
 695 0068 144B     		ldr	r3, .L42+4
 696 006a 1D68     		ldr	r5, [r3]
 697              	.LVL98:
 698              	.L37:
  87:cc85xx.c      ****   
 699              		.loc 1 87 0 discriminator 2
 700 006c FFF7FEFF 		bl	SPI_miso_m_Read
 701              	.LVL99:
 702 0070 0028     		cmp	r0, #0
 703 0072 05D1     		bne	.L36
  87:cc85xx.c      ****   
 704              		.loc 1 87 0 is_stmt 0 discriminator 1
 705 0074 114B     		ldr	r3, .L42+4
 706 0076 1B68     		ldr	r3, [r3]
 707 0078 5B1B     		subs	r3, r3, r5
 708 007a 114A     		ldr	r2, .L42+8
 709 007c 9342     		cmp	r3, r2
 710 007e F5D9     		bls	.L37
 711              	.L36:
  89:cc85xx.c      ****   {
 712              		.loc 1 89 0 is_stmt 1
 713 0080 FFF7FEFF 		bl	SPI_miso_m_Read
 714              	.LVL100:
 715 0084 0028     		cmp	r0, #0
 716 0086 0BD0     		beq	.L39
  89:cc85xx.c      ****   {
 717              		.loc 1 89 0 is_stmt 0 discriminator 1
 718 0088 FFF7FEFF 		bl	SPI_miso_m_Read
 719              	.LVL101:
 720 008c 8442     		cmp	r4, r0
 721 008e 09D0     		beq	.L40
  89:cc85xx.c      ****   {
 722              		.loc 1 89 0 discriminator 2
 723 0090 0A4B     		ldr	r3, .L42+4
ARM GAS  C:\Users\TERENC~1\AppData\Local\Temp\ccyX5Aoq.s 			page 19


 724 0092 1B68     		ldr	r3, [r3]
 725 0094 5D1B     		subs	r5, r3, r5
 726              	.LVL102:
 727 0096 0A4B     		ldr	r3, .L42+8
 728 0098 9D42     		cmp	r5, r3
 729 009a 05D8     		bhi	.L41
  91:cc85xx.c      ****   }
 730              		.loc 1 91 0 is_stmt 1
 731 009c 0120     		movs	r0, #1
 732 009e 04E0     		b	.L38
 733              	.LVL103:
 734              	.L39:
  95:cc85xx.c      ****   }
 735              		.loc 1 95 0
 736 00a0 0020     		movs	r0, #0
 737 00a2 02E0     		b	.L38
 738              	.L40:
 739 00a4 0020     		movs	r0, #0
 740 00a6 00E0     		b	.L38
 741              	.LVL104:
 742              	.L41:
 743 00a8 0020     		movs	r0, #0
 744              	.L38:
 745              	.LVL105:
  99:cc85xx.c      ****                                SPI_MOSI_M_HSIOM_POS, SPI_MOSI_M_HSIOM_SEL_SPI);
 746              		.loc 1 99 0
 747 00aa 034A     		ldr	r2, .L42
 748 00ac 1168     		ldr	r1, [r2]
 749 00ae 0F23     		movs	r3, #15
 750 00b0 0B43     		orrs	r3, r1
 751 00b2 1360     		str	r3, [r2]
 103:cc85xx.c      **** 
 752              		.loc 1 103 0
 753              		@ sp needed
 754              	.LVL106:
 755 00b4 70BD     		pop	{r4, r5, r6, pc}
 756              	.L43:
 757 00b6 C046     		.align	2
 758              	.L42:
 759 00b8 00020240 		.word	1073873408
 760 00bc 00000000 		.word	tmrCounter_ms
 761 00c0 E7030000 		.word	999
 762              		.cfi_endproc
 763              	.LFE3:
 764              		.size	cc85xx_reset, .-cc85xx_reset
 765              		.section	.text.cc85xx_di_get_chip_info,"ax",%progbits
 766              		.align	2
 767              		.global	cc85xx_di_get_chip_info
 768              		.code	16
 769              		.thumb_func
 770              		.type	cc85xx_di_get_chip_info, %function
 771              	cc85xx_di_get_chip_info:
 772              	.LFB15:
 264:cc85xx.c      **** 
 265:cc85xx.c      **** static bool cc85xx_bl_flash_page_prog(uint16_t ramAddr, uint16_t flashAddr, uint16_t dwordCount)
 266:cc85xx.c      **** {
 267:cc85xx.c      ****   bool ret = false;
ARM GAS  C:\Users\TERENC~1\AppData\Local\Temp\ccyX5Aoq.s 			page 20


 268:cc85xx.c      ****   uint16_t sw;
 269:cc85xx.c      ****   cc85xx_bl_flash_page_prog_s *pTxPkt = (cc85xx_bl_flash_page_prog_s *)malloc(sizeof(cc85xx_bl_flas
 270:cc85xx.c      **** 
 271:cc85xx.c      ****   pTxPkt->ram_addr = BE16(ramAddr);
 272:cc85xx.c      ****   pTxPkt->flash_addr = BE16(flashAddr);
 273:cc85xx.c      ****   pTxPkt->dword_count = BE16(dwordCount);
 274:cc85xx.c      ****   pTxPkt->key = BE32(CC85XX_BL_MASS_ERASE_KEY);
 275:cc85xx.c      **** 
 276:cc85xx.c      ****   ret = cc85xx_cmd_req(CC85XX_CMD_TYPE_BL_FLASH_PAGE_PROG, sizeof(cc85xx_bl_flash_page_prog_s), (ui
 277:cc85xx.c      ****   
 278:cc85xx.c      ****   free(pTxPkt);
 279:cc85xx.c      **** 
 280:cc85xx.c      ****   if (!ret || !cc85xx_wait_for_status(CC85XX_SW_BL_FLASH_PAGE_PROG_SUCCESS, CC85XX_WAIT_FOR_OPERATI
 281:cc85xx.c      ****   {
 282:cc85xx.c      ****     PRINTF("ERROR: %s: ret=%d, status=0x%04X\n", __FUNCTION__, ret, sw);
 283:cc85xx.c      ****     return false;
 284:cc85xx.c      ****   }
 285:cc85xx.c      ****   
 286:cc85xx.c      ****   return true;
 287:cc85xx.c      **** }
 288:cc85xx.c      **** 
 289:cc85xx.c      **** bool cc85xx_bl_unlock_spi(void)
 290:cc85xx.c      **** {
 291:cc85xx.c      ****   bool ret = false;
 292:cc85xx.c      ****   uint32_t key = BE32(CC85XX_BL_UNLOCK_SPI_KEY);
 293:cc85xx.c      ****   uint16_t sw = 0xCCCC;
 294:cc85xx.c      **** 
 295:cc85xx.c      ****   ret = cc85xx_cmd_req(CC85XX_CMD_TYPE_BL_UNLOCK_SPI, sizeof(key), (uint8_t *)&key, &sw);
 296:cc85xx.c      ****   
 297:cc85xx.c      ****   if (!ret || !cc85xx_wait_for_status(CC85XX_SW_BL_UNLOCK_SPI_SUCCESS, CC85XX_WAIT_FOR_OPERATION_TI
 298:cc85xx.c      ****   {
 299:cc85xx.c      ****     PRINTF("ERROR: %s: ret=%d, status=0x%04X\n", __FUNCTION__, ret, sw);
 300:cc85xx.c      ****     return false;
 301:cc85xx.c      ****   }
 302:cc85xx.c      **** 
 303:cc85xx.c      ****   return true;
 304:cc85xx.c      **** }
 305:cc85xx.c      **** 
 306:cc85xx.c      **** bool cc85xx_bl_mass_erase(void)
 307:cc85xx.c      **** {
 308:cc85xx.c      ****   bool ret = false;
 309:cc85xx.c      ****   uint32_t key = BE32(CC85XX_BL_MASS_ERASE_KEY);
 310:cc85xx.c      ****   uint16_t sw = 0xCCCC;
 311:cc85xx.c      **** 
 312:cc85xx.c      ****   ret = cc85xx_cmd_req(CC85XX_CMD_TYPE_BL_MASS_ERASE, sizeof(key), (uint8_t *)&key, &sw);
 313:cc85xx.c      ****   
 314:cc85xx.c      ****   if (!ret || !cc85xx_wait_for_status(CC85XX_SW_BL_MASS_ERASE_SUCCESS, CC85XX_WAIT_FOR_OPERATION_TI
 315:cc85xx.c      ****   {
 316:cc85xx.c      ****     PRINTF("ERROR: %s: ret=%d, status=0x%04X\n", __FUNCTION__, ret, sw);
 317:cc85xx.c      ****     return false;
 318:cc85xx.c      ****   }
 319:cc85xx.c      **** 
 320:cc85xx.c      ****   return true;
 321:cc85xx.c      **** }
 322:cc85xx.c      **** 
 323:cc85xx.c      **** bool cc85xx_bl_flash_verify(uint32_t *pCrc32)
 324:cc85xx.c      **** {
ARM GAS  C:\Users\TERENC~1\AppData\Local\Temp\ccyX5Aoq.s 			page 21


 325:cc85xx.c      ****   bool ret = false;
 326:cc85xx.c      ****   bool rv = true;
 327:cc85xx.c      ****   uint16_t sw;
 328:cc85xx.c      **** 
 329:cc85xx.c      ****   cc85xx_bl_flash_verify_s *pTxPkt = (cc85xx_bl_flash_verify_s *)malloc(sizeof(cc85xx_bl_flash_veri
 330:cc85xx.c      **** 
 331:cc85xx.c      ****   pTxPkt->byte_count = BE32(nImageBytes);
 332:cc85xx.c      ****   pTxPkt->data_addr = BE32(0x8000UL);
 333:cc85xx.c      ****   ret = cc85xx_cmd_req(CC85XX_CMD_TYPE_BL_FLASH_VERIFY, sizeof(cc85xx_bl_flash_verify_s), (uint8_t 
 334:cc85xx.c      **** 
 335:cc85xx.c      ****   free(pTxPkt);
 336:cc85xx.c      **** 
 337:cc85xx.c      ****   if (!ret || !cc85xx_wait_for_status(CC85XX_SW_BL_FLASH_VERIFY_SUCCESS, CC85XX_WAIT_FOR_OPERATION_
 338:cc85xx.c      ****   {
 339:cc85xx.c      ****     PRINTF("ERROR: %s: ret=%d, status=0x%04X\n", __FUNCTION__, ret, sw);
 340:cc85xx.c      ****     rv = false;
 341:cc85xx.c      ****   }
 342:cc85xx.c      ****   
 343:cc85xx.c      ****   if (pCrc32)
 344:cc85xx.c      ****   {
 345:cc85xx.c      ****     ret = cc85xx_read(sizeof(uint32_t), &sw, (uint8_t *)pCrc32);
 346:cc85xx.c      ****     if (ret)
 347:cc85xx.c      ****     {
 348:cc85xx.c      ****       *pCrc32 = BE32(*pCrc32);
 349:cc85xx.c      ****       PRINTF("nImageBytes = %u (0x%08x)\nCRC_VAL = 0x%08X\nsw = 0x%04X\n", nImageBytes, nImageBytes
 350:cc85xx.c      ****     }
 351:cc85xx.c      ****   }
 352:cc85xx.c      ****   
 353:cc85xx.c      ****   return rv;
 354:cc85xx.c      **** }
 355:cc85xx.c      **** 
 356:cc85xx.c      **** bool cc85xx_di_get_chip_info(cc85xx_di_get_chip_info_rsp_s *pInfo)
 357:cc85xx.c      **** {
 773              		.loc 1 357 0
 774              		.cfi_startproc
 775              		@ args = 0, pretend = 0, frame = 8
 776              		@ frame_needed = 0, uses_anonymous_args = 0
 777              	.LVL107:
 778 0000 30B5     		push	{r4, r5, lr}
 779              		.cfi_def_cfa_offset 12
 780              		.cfi_offset 4, -12
 781              		.cfi_offset 5, -8
 782              		.cfi_offset 14, -4
 783 0002 83B0     		sub	sp, sp, #12
 784              		.cfi_def_cfa_offset 24
 785 0004 0500     		movs	r5, r0
 358:cc85xx.c      ****   const uint16_t rsvd = 0x00B0;
 786              		.loc 1 358 0
 787 0006 6B46     		mov	r3, sp
 788 0008 9A1D     		adds	r2, r3, #6
 789 000a B023     		movs	r3, #176
 790 000c 1380     		strh	r3, [r2]
 359:cc85xx.c      ****   uint16_t sw = 0;
 791              		.loc 1 359 0
 792 000e 01AB     		add	r3, sp, #4
 793 0010 0021     		movs	r1, #0
 794 0012 1980     		strh	r1, [r3]
ARM GAS  C:\Users\TERENC~1\AppData\Local\Temp\ccyX5Aoq.s 			page 22


 795              	.LVL108:
 360:cc85xx.c      ****   bool ret = false;
 361:cc85xx.c      ****   
 362:cc85xx.c      ****   ret = cc85xx_cmd_req(CC85XX_CMD_TYPE_DI_GET_CHIP_INFO, sizeof(rsvd), (uint8_t *)&rsvd, &sw);
 796              		.loc 1 362 0
 797 0014 0231     		adds	r1, r1, #2
 798 0016 1F20     		movs	r0, #31
 799              	.LVL109:
 800 0018 FFF7FEFF 		bl	cc85xx_cmd_req
 801              	.LVL110:
 802 001c 041E     		subs	r4, r0, #0
 803              	.LVL111:
 363:cc85xx.c      ****   if (!ret)
 804              		.loc 1 363 0
 805 001e 1CD1     		bne	.L45
 364:cc85xx.c      ****   {
 365:cc85xx.c      ****     PRINTF("ERROR: CMD_REQ 0x%02X failed: sw=0x%04X\n", CC85XX_CMD_TYPE_DI_GET_CHIP_INFO, sw);
 806              		.loc 1 365 0
 807 0020 FFF7FEFF 		bl	USBUART_GetConfiguration
 808              	.LVL112:
 809 0024 0028     		cmp	r0, #0
 810 0026 3BD0     		beq	.L51
 811              	.LBB3:
 812              		.loc 1 365 0 is_stmt 0 discriminator 1
 813 0028 204B     		ldr	r3, .L54
 814 002a 1D68     		ldr	r5, [r3]
 815              	.LVL113:
 816              	.L48:
 817              		.loc 1 365 0 discriminator 5
 818 002c FFF7FEFF 		bl	USBUART_CDCIsReady
 819              	.LVL114:
 820 0030 0028     		cmp	r0, #0
 821 0032 05D1     		bne	.L47
 822              		.loc 1 365 0 discriminator 3
 823 0034 1D4B     		ldr	r3, .L54
 824 0036 1B68     		ldr	r3, [r3]
 825 0038 5B1B     		subs	r3, r3, r5
 826 003a 1D4A     		ldr	r2, .L54+4
 827 003c 9342     		cmp	r3, r2
 828 003e F5D9     		bls	.L48
 829              	.L47:
 830              		.loc 1 365 0 discriminator 6
 831 0040 01AB     		add	r3, sp, #4
 832 0042 1B88     		ldrh	r3, [r3]
 833 0044 1B4D     		ldr	r5, .L54+8
 834              	.LVL115:
 835 0046 1F22     		movs	r2, #31
 836 0048 1B49     		ldr	r1, .L54+12
 837 004a 2800     		movs	r0, r5
 838 004c FFF7FEFF 		bl	sprintf
 839              	.LVL116:
 840 0050 2800     		movs	r0, r5
 841 0052 FFF7FEFF 		bl	USBUART_PutString
 842              	.LVL117:
 843              	.LBE3:
 366:cc85xx.c      ****     return ret;
 844              		.loc 1 366 0 is_stmt 1 discriminator 6
ARM GAS  C:\Users\TERENC~1\AppData\Local\Temp\ccyX5Aoq.s 			page 23


 845 0056 2000     		movs	r0, r4
 846 0058 26E0     		b	.L46
 847              	.LVL118:
 848              	.L45:
 367:cc85xx.c      ****   }
 368:cc85xx.c      **** 
 369:cc85xx.c      ****   ret = cc85xx_read(sizeof(cc85xx_di_get_chip_info_rsp_s), &sw, (uint8_t *)pInfo);
 849              		.loc 1 369 0
 850 005a 2A00     		movs	r2, r5
 851 005c 01A9     		add	r1, sp, #4
 852 005e 1820     		movs	r0, #24
 853              	.LVL119:
 854 0060 FFF7FEFF 		bl	cc85xx_read
 855              	.LVL120:
 856 0064 041E     		subs	r4, r0, #0
 857              	.LVL121:
 370:cc85xx.c      ****   if (!ret)
 858              		.loc 1 370 0
 859 0066 1DD1     		bne	.L52
 371:cc85xx.c      ****   {
 372:cc85xx.c      ****     PRINTF("ERROR: READ failed: sw=0x%04X\n", sw);
 860              		.loc 1 372 0
 861 0068 FFF7FEFF 		bl	USBUART_GetConfiguration
 862              	.LVL122:
 863 006c 0028     		cmp	r0, #0
 864 006e 1AD0     		beq	.L53
 865              	.LBB4:
 866              		.loc 1 372 0 is_stmt 0 discriminator 1
 867 0070 0E4B     		ldr	r3, .L54
 868 0072 1D68     		ldr	r5, [r3]
 869              	.LVL123:
 870              	.L50:
 871              		.loc 1 372 0 discriminator 5
 872 0074 FFF7FEFF 		bl	USBUART_CDCIsReady
 873              	.LVL124:
 874 0078 0028     		cmp	r0, #0
 875 007a 05D1     		bne	.L49
 876              		.loc 1 372 0 discriminator 3
 877 007c 0B4B     		ldr	r3, .L54
 878 007e 1B68     		ldr	r3, [r3]
 879 0080 5B1B     		subs	r3, r3, r5
 880 0082 0B4A     		ldr	r2, .L54+4
 881 0084 9342     		cmp	r3, r2
 882 0086 F5D9     		bls	.L50
 883              	.L49:
 884              		.loc 1 372 0 discriminator 6
 885 0088 01AB     		add	r3, sp, #4
 886 008a 1A88     		ldrh	r2, [r3]
 887 008c 094D     		ldr	r5, .L54+8
 888              	.LVL125:
 889 008e 0B49     		ldr	r1, .L54+16
 890 0090 2800     		movs	r0, r5
 891 0092 FFF7FEFF 		bl	sprintf
 892              	.LVL126:
 893 0096 2800     		movs	r0, r5
 894 0098 FFF7FEFF 		bl	USBUART_PutString
 895              	.LVL127:
ARM GAS  C:\Users\TERENC~1\AppData\Local\Temp\ccyX5Aoq.s 			page 24


 896              	.LBE4:
 373:cc85xx.c      ****     return ret;
 897              		.loc 1 373 0 is_stmt 1 discriminator 6
 898 009c 2000     		movs	r0, r4
 899 009e 03E0     		b	.L46
 900              	.LVL128:
 901              	.L51:
 366:cc85xx.c      ****   }
 902              		.loc 1 366 0
 903 00a0 2000     		movs	r0, r4
 904 00a2 01E0     		b	.L46
 905              	.LVL129:
 906              	.L52:
 907 00a4 00E0     		b	.L46
 908              	.LVL130:
 909              	.L53:
 910              		.loc 1 373 0
 911 00a6 2000     		movs	r0, r4
 912              	.LVL131:
 913              	.L46:
 374:cc85xx.c      ****   }
 375:cc85xx.c      ****   
 376:cc85xx.c      ****   return ret;
 377:cc85xx.c      **** }
 914              		.loc 1 377 0
 915 00a8 03B0     		add	sp, sp, #12
 916              		@ sp needed
 917 00aa 30BD     		pop	{r4, r5, pc}
 918              	.L55:
 919              		.align	2
 920              	.L54:
 921 00ac 00000000 		.word	tmrCounter_ms
 922 00b0 E7030000 		.word	999
 923 00b4 00000000 		.word	gbuf
 924 00b8 44000000 		.word	.LC6
 925 00bc 70000000 		.word	.LC9
 926              		.cfi_endproc
 927              	.LFE15:
 928              		.size	cc85xx_di_get_chip_info, .-cc85xx_di_get_chip_info
 929              		.section	.text.cc85xx_di_get_device_info,"ax",%progbits
 930              		.align	2
 931              		.global	cc85xx_di_get_device_info
 932              		.code	16
 933              		.thumb_func
 934              		.type	cc85xx_di_get_device_info, %function
 935              	cc85xx_di_get_device_info:
 936              	.LFB16:
 378:cc85xx.c      **** 
 379:cc85xx.c      **** bool cc85xx_di_get_device_info(cc85xx_di_get_device_info_rsp_s *pInfo)
 380:cc85xx.c      **** {
 937              		.loc 1 380 0
 938              		.cfi_startproc
 939              		@ args = 0, pretend = 0, frame = 8
 940              		@ frame_needed = 0, uses_anonymous_args = 0
 941              	.LVL132:
 942 0000 30B5     		push	{r4, r5, lr}
 943              		.cfi_def_cfa_offset 12
ARM GAS  C:\Users\TERENC~1\AppData\Local\Temp\ccyX5Aoq.s 			page 25


 944              		.cfi_offset 4, -12
 945              		.cfi_offset 5, -8
 946              		.cfi_offset 14, -4
 947 0002 83B0     		sub	sp, sp, #12
 948              		.cfi_def_cfa_offset 24
 949 0004 0500     		movs	r5, r0
 381:cc85xx.c      ****   uint16_t sw = 0;
 950              		.loc 1 381 0
 951 0006 6B46     		mov	r3, sp
 952 0008 0633     		adds	r3, r3, #6
 953 000a 0022     		movs	r2, #0
 954 000c 1A80     		strh	r2, [r3]
 382:cc85xx.c      ****   bool ret = cc85xx_cmd_req(CC85XX_CMD_TYPE_DI_GET_DEVICE_INFO, 0, NULL, &sw);
 955              		.loc 1 382 0
 956 000e 0021     		movs	r1, #0
 957 0010 1E20     		movs	r0, #30
 958              	.LVL133:
 959 0012 FFF7FEFF 		bl	cc85xx_cmd_req
 960              	.LVL134:
 961 0016 041E     		subs	r4, r0, #0
 962              	.LVL135:
 383:cc85xx.c      ****   if (!ret)
 963              		.loc 1 383 0
 964 0018 1DD1     		bne	.L57
 384:cc85xx.c      ****   {
 385:cc85xx.c      ****     PRINTF("ERROR: CMD_REQ 0x%02X failed: sw=0x%04X\n", CC85XX_CMD_TYPE_DI_GET_CHIP_INFO, sw);
 965              		.loc 1 385 0
 966 001a FFF7FEFF 		bl	USBUART_GetConfiguration
 967              	.LVL136:
 968 001e 0028     		cmp	r0, #0
 969 0020 3DD0     		beq	.L63
 970              	.LBB5:
 971              		.loc 1 385 0 is_stmt 0 discriminator 1
 972 0022 224B     		ldr	r3, .L66
 973 0024 1D68     		ldr	r5, [r3]
 974              	.LVL137:
 975              	.L60:
 976              		.loc 1 385 0 discriminator 5
 977 0026 FFF7FEFF 		bl	USBUART_CDCIsReady
 978              	.LVL138:
 979 002a 0028     		cmp	r0, #0
 980 002c 05D1     		bne	.L59
 981              		.loc 1 385 0 discriminator 3
 982 002e 1F4B     		ldr	r3, .L66
 983 0030 1B68     		ldr	r3, [r3]
 984 0032 5B1B     		subs	r3, r3, r5
 985 0034 1E4A     		ldr	r2, .L66+4
 986 0036 9342     		cmp	r3, r2
 987 0038 F5D9     		bls	.L60
 988              	.L59:
 989              		.loc 1 385 0 discriminator 6
 990 003a 6B46     		mov	r3, sp
 991 003c 0633     		adds	r3, r3, #6
 992 003e 1B88     		ldrh	r3, [r3]
 993 0040 1C4D     		ldr	r5, .L66+8
 994              	.LVL139:
 995 0042 1F22     		movs	r2, #31
ARM GAS  C:\Users\TERENC~1\AppData\Local\Temp\ccyX5Aoq.s 			page 26


 996 0044 1C49     		ldr	r1, .L66+12
 997 0046 2800     		movs	r0, r5
 998 0048 FFF7FEFF 		bl	sprintf
 999              	.LVL140:
 1000 004c 2800     		movs	r0, r5
 1001 004e FFF7FEFF 		bl	USBUART_PutString
 1002              	.LVL141:
 1003              	.LBE5:
 386:cc85xx.c      ****     return ret;
 1004              		.loc 1 386 0 is_stmt 1 discriminator 6
 1005 0052 2000     		movs	r0, r4
 1006 0054 27E0     		b	.L58
 1007              	.LVL142:
 1008              	.L57:
 387:cc85xx.c      ****   }
 388:cc85xx.c      ****   
 389:cc85xx.c      ****   ret = cc85xx_read(sizeof(cc85xx_di_get_device_info_rsp_s), &sw, (uint8_t *)pInfo);
 1009              		.loc 1 389 0
 1010 0056 2A00     		movs	r2, r5
 1011 0058 6B46     		mov	r3, sp
 1012 005a 991D     		adds	r1, r3, #6
 1013 005c 0C20     		movs	r0, #12
 1014              	.LVL143:
 1015 005e FFF7FEFF 		bl	cc85xx_read
 1016              	.LVL144:
 1017 0062 041E     		subs	r4, r0, #0
 1018              	.LVL145:
 390:cc85xx.c      ****   if (!ret)
 1019              		.loc 1 390 0
 1020 0064 1DD1     		bne	.L64
 391:cc85xx.c      ****   {
 392:cc85xx.c      ****     PRINTF("ERROR: READ failed: sw=0x%04X\n", sw);
 1021              		.loc 1 392 0
 1022 0066 FFF7FEFF 		bl	USBUART_GetConfiguration
 1023              	.LVL146:
 1024 006a 0028     		cmp	r0, #0
 1025 006c 1AD0     		beq	.L65
 1026              	.LBB6:
 1027              		.loc 1 392 0 is_stmt 0 discriminator 1
 1028 006e 0F4B     		ldr	r3, .L66
 1029 0070 1D68     		ldr	r5, [r3]
 1030              	.LVL147:
 1031              	.L62:
 1032              		.loc 1 392 0 discriminator 5
 1033 0072 FFF7FEFF 		bl	USBUART_CDCIsReady
 1034              	.LVL148:
 1035 0076 0028     		cmp	r0, #0
 1036 0078 05D1     		bne	.L61
 1037              		.loc 1 392 0 discriminator 3
 1038 007a 0C4B     		ldr	r3, .L66
 1039 007c 1B68     		ldr	r3, [r3]
 1040 007e 5B1B     		subs	r3, r3, r5
 1041 0080 0B4A     		ldr	r2, .L66+4
 1042 0082 9342     		cmp	r3, r2
 1043 0084 F5D9     		bls	.L62
 1044              	.L61:
 1045              		.loc 1 392 0 discriminator 6
ARM GAS  C:\Users\TERENC~1\AppData\Local\Temp\ccyX5Aoq.s 			page 27


 1046 0086 6B46     		mov	r3, sp
 1047 0088 DA88     		ldrh	r2, [r3, #6]
 1048 008a 0A4D     		ldr	r5, .L66+8
 1049              	.LVL149:
 1050 008c 0B49     		ldr	r1, .L66+16
 1051 008e 2800     		movs	r0, r5
 1052 0090 FFF7FEFF 		bl	sprintf
 1053              	.LVL150:
 1054 0094 2800     		movs	r0, r5
 1055 0096 FFF7FEFF 		bl	USBUART_PutString
 1056              	.LVL151:
 1057              	.LBE6:
 393:cc85xx.c      ****     return ret;
 1058              		.loc 1 393 0 is_stmt 1 discriminator 6
 1059 009a 2000     		movs	r0, r4
 1060 009c 03E0     		b	.L58
 1061              	.LVL152:
 1062              	.L63:
 386:cc85xx.c      ****   }
 1063              		.loc 1 386 0
 1064 009e 2000     		movs	r0, r4
 1065 00a0 01E0     		b	.L58
 1066              	.LVL153:
 1067              	.L64:
 1068 00a2 00E0     		b	.L58
 1069              	.LVL154:
 1070              	.L65:
 1071              		.loc 1 393 0
 1072 00a4 2000     		movs	r0, r4
 1073              	.LVL155:
 1074              	.L58:
 394:cc85xx.c      ****   }
 395:cc85xx.c      ****   
 396:cc85xx.c      ****   return ret;
 397:cc85xx.c      **** }
 1075              		.loc 1 397 0
 1076 00a6 03B0     		add	sp, sp, #12
 1077              		@ sp needed
 1078 00a8 30BD     		pop	{r4, r5, pc}
 1079              	.L67:
 1080 00aa C046     		.align	2
 1081              	.L66:
 1082 00ac 00000000 		.word	tmrCounter_ms
 1083 00b0 E7030000 		.word	999
 1084 00b4 00000000 		.word	gbuf
 1085 00b8 44000000 		.word	.LC6
 1086 00bc 70000000 		.word	.LC9
 1087              		.cfi_endproc
 1088              	.LFE16:
 1089              		.size	cc85xx_di_get_device_info, .-cc85xx_di_get_device_info
 1090              		.section	.text.cc85xx_print_info,"ax",%progbits
 1091              		.align	2
 1092              		.global	cc85xx_print_info
 1093              		.code	16
 1094              		.thumb_func
 1095              		.type	cc85xx_print_info, %function
 1096              	cc85xx_print_info:
ARM GAS  C:\Users\TERENC~1\AppData\Local\Temp\ccyX5Aoq.s 			page 28


 1097              	.LFB17:
 398:cc85xx.c      **** 
 399:cc85xx.c      **** bool cc85xx_print_info(void)
 400:cc85xx.c      **** {
 1098              		.loc 1 400 0
 1099              		.cfi_startproc
 1100              		@ args = 0, pretend = 0, frame = 24
 1101              		@ frame_needed = 0, uses_anonymous_args = 0
 1102 0000 30B5     		push	{r4, r5, lr}
 1103              		.cfi_def_cfa_offset 12
 1104              		.cfi_offset 4, -12
 1105              		.cfi_offset 5, -8
 1106              		.cfi_offset 14, -4
 1107 0002 87B0     		sub	sp, sp, #28
 1108              		.cfi_def_cfa_offset 40
 1109              	.LVL156:
 401:cc85xx.c      ****   uint8_t rsp[sizeof(cc85xx_di_get_chip_info_rsp_s)];
 402:cc85xx.c      ****   cc85xx_di_get_chip_info_rsp_s *pRsp = (cc85xx_di_get_chip_info_rsp_s *)rsp;
 403:cc85xx.c      ****   cc85xx_di_get_device_info_rsp_s *pInfo = (cc85xx_di_get_device_info_rsp_s *)rsp;
 404:cc85xx.c      ****   bool ret = cc85xx_di_get_chip_info(pRsp);
 1110              		.loc 1 404 0
 1111 0004 6846     		mov	r0, sp
 1112 0006 FFF7FEFF 		bl	cc85xx_di_get_chip_info
 1113              	.LVL157:
 1114 000a 041E     		subs	r4, r0, #0
 1115              	.LVL158:
 405:cc85xx.c      ****   if (!ret)
 1116              		.loc 1 405 0
 1117 000c 24D1     		bne	.L69
 406:cc85xx.c      ****   {
 407:cc85xx.c      ****     PRINTF("ERROR: Failed to fetch chip info\n");
 1118              		.loc 1 407 0
 1119 000e FFF7FEFF 		bl	USBUART_GetConfiguration
 1120              	.LVL159:
 1121 0012 0028     		cmp	r0, #0
 1122 0014 00D1     		bne	.LCB1107
 1123 0016 52E2     		b	.L123	@long jump
 1124              	.LCB1107:
 1125              	.LBB7:
 1126              		.loc 1 407 0 is_stmt 0 discriminator 1
 1127 0018 0B4B     		ldr	r3, .L126
 1128 001a 1D68     		ldr	r5, [r3]
 1129              	.LVL160:
 1130              	.L72:
 1131              		.loc 1 407 0 discriminator 5
 1132 001c FFF7FEFF 		bl	USBUART_CDCIsReady
 1133              	.LVL161:
 1134 0020 0028     		cmp	r0, #0
 1135 0022 05D1     		bne	.L71
 1136              		.loc 1 407 0 discriminator 3
 1137 0024 084B     		ldr	r3, .L126
 1138 0026 1B68     		ldr	r3, [r3]
 1139 0028 5B1B     		subs	r3, r3, r5
 1140 002a 084A     		ldr	r2, .L126+4
 1141 002c 9342     		cmp	r3, r2
 1142 002e F5D9     		bls	.L72
 1143              	.L71:
ARM GAS  C:\Users\TERENC~1\AppData\Local\Temp\ccyX5Aoq.s 			page 29


 1144              		.loc 1 407 0 discriminator 6
 1145 0030 074D     		ldr	r5, .L126+8
 1146              	.LVL162:
 1147 0032 2222     		movs	r2, #34
 1148 0034 0749     		ldr	r1, .L126+12
 1149 0036 2800     		movs	r0, r5
 1150 0038 FFF7FEFF 		bl	memcpy
 1151              	.LVL163:
 1152 003c 2800     		movs	r0, r5
 1153 003e FFF7FEFF 		bl	USBUART_PutString
 1154              	.LVL164:
 1155              	.LBE7:
 408:cc85xx.c      ****     return ret;
 1156              		.loc 1 408 0 is_stmt 1 discriminator 6
 1157 0042 2000     		movs	r0, r4
 1158 0044 40E2     		b	.L70
 1159              	.L127:
 1160 0046 C046     		.align	2
 1161              	.L126:
 1162 0048 00000000 		.word	tmrCounter_ms
 1163 004c E7030000 		.word	999
 1164 0050 00000000 		.word	gbuf
 1165 0054 90000000 		.word	.LC17
 1166              	.LVL165:
 1167              	.L69:
 409:cc85xx.c      ****   }
 410:cc85xx.c      **** 
 411:cc85xx.c      **** #if 0
 412:cc85xx.c      ****   uint32_t i;
 413:cc85xx.c      ****   for (i = 0; i < 24; i++)
 414:cc85xx.c      ****   {
 415:cc85xx.c      ****     PRINTF("0x%02X: %02X\n", i, rsp[i]);
 416:cc85xx.c      ****   }
 417:cc85xx.c      **** #endif
 418:cc85xx.c      ****   
 419:cc85xx.c      ****   PRINTF("\tfamily_id: 0x%04X\n", BE16(pRsp->family_id));
 1168              		.loc 1 419 0
 1169 0058 FFF7FEFF 		bl	USBUART_GetConfiguration
 1170              	.LVL166:
 1171 005c 0028     		cmp	r0, #0
 1172 005e 19D0     		beq	.L73
 1173              	.LBB8:
 1174              		.loc 1 419 0 is_stmt 0 discriminator 1
 1175 0060 CA4B     		ldr	r3, .L128
 1176 0062 1C68     		ldr	r4, [r3]
 1177              	.LVL167:
 1178              	.L75:
 1179              		.loc 1 419 0 discriminator 5
 1180 0064 FFF7FEFF 		bl	USBUART_CDCIsReady
 1181              	.LVL168:
 1182 0068 0028     		cmp	r0, #0
 1183 006a 05D1     		bne	.L74
 1184              		.loc 1 419 0 discriminator 3
 1185 006c C74B     		ldr	r3, .L128
 1186 006e 1B68     		ldr	r3, [r3]
 1187 0070 1B1B     		subs	r3, r3, r4
 1188 0072 C74A     		ldr	r2, .L128+4
ARM GAS  C:\Users\TERENC~1\AppData\Local\Temp\ccyX5Aoq.s 			page 30


 1189 0074 9342     		cmp	r3, r2
 1190 0076 F5D9     		bls	.L75
 1191              	.L74:
 1192              		.loc 1 419 0 discriminator 6
 1193 0078 6B46     		mov	r3, sp
 1194 007a 1B88     		ldrh	r3, [r3]
 1195 007c 1A0A     		lsrs	r2, r3, #8
 1196 007e 1B06     		lsls	r3, r3, #24
 1197 0080 1B0C     		lsrs	r3, r3, #16
 1198 0082 1A43     		orrs	r2, r3
 1199 0084 C34C     		ldr	r4, .L128+8
 1200              	.LVL169:
 1201 0086 C449     		ldr	r1, .L128+12
 1202 0088 2000     		movs	r0, r4
 1203 008a FFF7FEFF 		bl	sprintf
 1204              	.LVL170:
 1205 008e 2000     		movs	r0, r4
 1206 0090 FFF7FEFF 		bl	USBUART_PutString
 1207              	.LVL171:
 1208              	.L73:
 1209              	.LBE8:
 420:cc85xx.c      ****   
 421:cc85xx.c      ****   PRINTF("\tsil_min_rev: %d\n", pRsp->sil_min_rev);
 1210              		.loc 1 421 0 is_stmt 1
 1211 0094 FFF7FEFF 		bl	USBUART_GetConfiguration
 1212              	.LVL172:
 1213 0098 0028     		cmp	r0, #0
 1214 009a 17D0     		beq	.L76
 1215              	.LBB9:
 1216              		.loc 1 421 0 is_stmt 0 discriminator 1
 1217 009c BB4B     		ldr	r3, .L128
 1218 009e 1C68     		ldr	r4, [r3]
 1219              	.LVL173:
 1220              	.L78:
 1221              		.loc 1 421 0 discriminator 5
 1222 00a0 FFF7FEFF 		bl	USBUART_CDCIsReady
 1223              	.LVL174:
 1224 00a4 0028     		cmp	r0, #0
 1225 00a6 05D1     		bne	.L77
 1226              		.loc 1 421 0 discriminator 3
 1227 00a8 B84B     		ldr	r3, .L128
 1228 00aa 1B68     		ldr	r3, [r3]
 1229 00ac 1B1B     		subs	r3, r3, r4
 1230 00ae B84A     		ldr	r2, .L128+4
 1231 00b0 9342     		cmp	r3, r2
 1232 00b2 F5D9     		bls	.L78
 1233              	.L77:
 1234              		.loc 1 421 0 discriminator 6
 1235 00b4 6B46     		mov	r3, sp
 1236 00b6 9A78     		ldrb	r2, [r3, #2]
 1237 00b8 1207     		lsls	r2, r2, #28
 1238 00ba 120F     		lsrs	r2, r2, #28
 1239 00bc B54C     		ldr	r4, .L128+8
 1240              	.LVL175:
 1241 00be B749     		ldr	r1, .L128+16
 1242 00c0 2000     		movs	r0, r4
 1243 00c2 FFF7FEFF 		bl	sprintf
ARM GAS  C:\Users\TERENC~1\AppData\Local\Temp\ccyX5Aoq.s 			page 31


 1244              	.LVL176:
 1245 00c6 2000     		movs	r0, r4
 1246 00c8 FFF7FEFF 		bl	USBUART_PutString
 1247              	.LVL177:
 1248              	.L76:
 1249              	.LBE9:
 422:cc85xx.c      ****   PRINTF("\tsil_maj_rev: %d\n", pRsp->sil_maj_rev);
 1250              		.loc 1 422 0 is_stmt 1
 1251 00cc FFF7FEFF 		bl	USBUART_GetConfiguration
 1252              	.LVL178:
 1253 00d0 0028     		cmp	r0, #0
 1254 00d2 16D0     		beq	.L79
 1255              	.LBB10:
 1256              		.loc 1 422 0 is_stmt 0 discriminator 1
 1257 00d4 AD4B     		ldr	r3, .L128
 1258 00d6 1C68     		ldr	r4, [r3]
 1259              	.LVL179:
 1260              	.L81:
 1261              		.loc 1 422 0 discriminator 5
 1262 00d8 FFF7FEFF 		bl	USBUART_CDCIsReady
 1263              	.LVL180:
 1264 00dc 0028     		cmp	r0, #0
 1265 00de 05D1     		bne	.L80
 1266              		.loc 1 422 0 discriminator 3
 1267 00e0 AA4B     		ldr	r3, .L128
 1268 00e2 1B68     		ldr	r3, [r3]
 1269 00e4 1B1B     		subs	r3, r3, r4
 1270 00e6 AA4A     		ldr	r2, .L128+4
 1271 00e8 9342     		cmp	r3, r2
 1272 00ea F5D9     		bls	.L81
 1273              	.L80:
 1274              		.loc 1 422 0 discriminator 6
 1275 00ec 6B46     		mov	r3, sp
 1276 00ee 9A78     		ldrb	r2, [r3, #2]
 1277 00f0 1209     		lsrs	r2, r2, #4
 1278 00f2 A84C     		ldr	r4, .L128+8
 1279              	.LVL181:
 1280 00f4 AA49     		ldr	r1, .L128+20
 1281 00f6 2000     		movs	r0, r4
 1282 00f8 FFF7FEFF 		bl	sprintf
 1283              	.LVL182:
 1284 00fc 2000     		movs	r0, r4
 1285 00fe FFF7FEFF 		bl	USBUART_PutString
 1286              	.LVL183:
 1287              	.L79:
 1288              	.LBE10:
 423:cc85xx.c      ****   
 424:cc85xx.c      ****   PRINTF("\trom_min_rev: %d\n", pRsp->rom_min_rev);
 1289              		.loc 1 424 0 is_stmt 1
 1290 0102 FFF7FEFF 		bl	USBUART_GetConfiguration
 1291              	.LVL184:
 1292 0106 0028     		cmp	r0, #0
 1293 0108 15D0     		beq	.L82
 1294              	.LBB11:
 1295              		.loc 1 424 0 is_stmt 0 discriminator 1
 1296 010a A04B     		ldr	r3, .L128
 1297 010c 1C68     		ldr	r4, [r3]
ARM GAS  C:\Users\TERENC~1\AppData\Local\Temp\ccyX5Aoq.s 			page 32


 1298              	.LVL185:
 1299              	.L84:
 1300              		.loc 1 424 0 discriminator 5
 1301 010e FFF7FEFF 		bl	USBUART_CDCIsReady
 1302              	.LVL186:
 1303 0112 0028     		cmp	r0, #0
 1304 0114 05D1     		bne	.L83
 1305              		.loc 1 424 0 discriminator 3
 1306 0116 9D4B     		ldr	r3, .L128
 1307 0118 1B68     		ldr	r3, [r3]
 1308 011a 1B1B     		subs	r3, r3, r4
 1309 011c 9C4A     		ldr	r2, .L128+4
 1310 011e 9342     		cmp	r3, r2
 1311 0120 F5D9     		bls	.L84
 1312              	.L83:
 1313              		.loc 1 424 0 discriminator 6
 1314 0122 6B46     		mov	r3, sp
 1315 0124 DA79     		ldrb	r2, [r3, #7]
 1316 0126 9B4C     		ldr	r4, .L128+8
 1317              	.LVL187:
 1318 0128 9E49     		ldr	r1, .L128+24
 1319 012a 2000     		movs	r0, r4
 1320 012c FFF7FEFF 		bl	sprintf
 1321              	.LVL188:
 1322 0130 2000     		movs	r0, r4
 1323 0132 FFF7FEFF 		bl	USBUART_PutString
 1324              	.LVL189:
 1325              	.L82:
 1326              	.LBE11:
 425:cc85xx.c      ****   PRINTF("\trom_maj_rev: %d\n", pRsp->rom_maj_rev);
 1327              		.loc 1 425 0 is_stmt 1
 1328 0136 FFF7FEFF 		bl	USBUART_GetConfiguration
 1329              	.LVL190:
 1330 013a 0028     		cmp	r0, #0
 1331 013c 15D0     		beq	.L85
 1332              	.LBB12:
 1333              		.loc 1 425 0 is_stmt 0 discriminator 1
 1334 013e 934B     		ldr	r3, .L128
 1335 0140 1C68     		ldr	r4, [r3]
 1336              	.LVL191:
 1337              	.L87:
 1338              		.loc 1 425 0 discriminator 5
 1339 0142 FFF7FEFF 		bl	USBUART_CDCIsReady
 1340              	.LVL192:
 1341 0146 0028     		cmp	r0, #0
 1342 0148 05D1     		bne	.L86
 1343              		.loc 1 425 0 discriminator 3
 1344 014a 904B     		ldr	r3, .L128
 1345 014c 1B68     		ldr	r3, [r3]
 1346 014e 1B1B     		subs	r3, r3, r4
 1347 0150 8F4A     		ldr	r2, .L128+4
 1348 0152 9342     		cmp	r3, r2
 1349 0154 F5D9     		bls	.L87
 1350              	.L86:
 1351              		.loc 1 425 0 discriminator 6
 1352 0156 6B46     		mov	r3, sp
 1353 0158 9A79     		ldrb	r2, [r3, #6]
ARM GAS  C:\Users\TERENC~1\AppData\Local\Temp\ccyX5Aoq.s 			page 33


 1354 015a 8E4C     		ldr	r4, .L128+8
 1355              	.LVL193:
 1356 015c 9249     		ldr	r1, .L128+28
 1357 015e 2000     		movs	r0, r4
 1358 0160 FFF7FEFF 		bl	sprintf
 1359              	.LVL194:
 1360 0164 2000     		movs	r0, r4
 1361 0166 FFF7FEFF 		bl	USBUART_PutString
 1362              	.LVL195:
 1363              	.L85:
 1364              	.LBE12:
 426:cc85xx.c      ****   PRINTF("\trom_type: 0x%04X\n", BE16(pRsp->rom_type));
 1365              		.loc 1 426 0 is_stmt 1
 1366 016a FFF7FEFF 		bl	USBUART_GetConfiguration
 1367              	.LVL196:
 1368 016e 0028     		cmp	r0, #0
 1369 0170 19D0     		beq	.L88
 1370              	.LBB13:
 1371              		.loc 1 426 0 is_stmt 0 discriminator 1
 1372 0172 864B     		ldr	r3, .L128
 1373 0174 1C68     		ldr	r4, [r3]
 1374              	.LVL197:
 1375              	.L90:
 1376              		.loc 1 426 0 discriminator 5
 1377 0176 FFF7FEFF 		bl	USBUART_CDCIsReady
 1378              	.LVL198:
 1379 017a 0028     		cmp	r0, #0
 1380 017c 05D1     		bne	.L89
 1381              		.loc 1 426 0 discriminator 3
 1382 017e 834B     		ldr	r3, .L128
 1383 0180 1B68     		ldr	r3, [r3]
 1384 0182 1B1B     		subs	r3, r3, r4
 1385 0184 824A     		ldr	r2, .L128+4
 1386 0186 9342     		cmp	r3, r2
 1387 0188 F5D9     		bls	.L90
 1388              	.L89:
 1389              		.loc 1 426 0 discriminator 6
 1390 018a 6B46     		mov	r3, sp
 1391 018c 9B88     		ldrh	r3, [r3, #4]
 1392 018e 1A0A     		lsrs	r2, r3, #8
 1393 0190 1B06     		lsls	r3, r3, #24
 1394 0192 1B0C     		lsrs	r3, r3, #16
 1395 0194 1A43     		orrs	r2, r3
 1396 0196 7F4C     		ldr	r4, .L128+8
 1397              	.LVL199:
 1398 0198 8449     		ldr	r1, .L128+32
 1399 019a 2000     		movs	r0, r4
 1400 019c FFF7FEFF 		bl	sprintf
 1401              	.LVL200:
 1402 01a0 2000     		movs	r0, r4
 1403 01a2 FFF7FEFF 		bl	USBUART_PutString
 1404              	.LVL201:
 1405              	.L88:
 1406              	.LBE13:
 427:cc85xx.c      ****   
 428:cc85xx.c      ****   PRINTF("\tfw_patch_rev: %d\n", pRsp->fw_patch_rev);
 1407              		.loc 1 428 0 is_stmt 1
ARM GAS  C:\Users\TERENC~1\AppData\Local\Temp\ccyX5Aoq.s 			page 34


 1408 01a6 FFF7FEFF 		bl	USBUART_GetConfiguration
 1409              	.LVL202:
 1410 01aa 0028     		cmp	r0, #0
 1411 01ac 15D0     		beq	.L91
 1412              	.LBB14:
 1413              		.loc 1 428 0 is_stmt 0 discriminator 1
 1414 01ae 774B     		ldr	r3, .L128
 1415 01b0 1C68     		ldr	r4, [r3]
 1416              	.LVL203:
 1417              	.L93:
 1418              		.loc 1 428 0 discriminator 5
 1419 01b2 FFF7FEFF 		bl	USBUART_CDCIsReady
 1420              	.LVL204:
 1421 01b6 0028     		cmp	r0, #0
 1422 01b8 05D1     		bne	.L92
 1423              		.loc 1 428 0 discriminator 3
 1424 01ba 744B     		ldr	r3, .L128
 1425 01bc 1B68     		ldr	r3, [r3]
 1426 01be 1B1B     		subs	r3, r3, r4
 1427 01c0 734A     		ldr	r2, .L128+4
 1428 01c2 9342     		cmp	r3, r2
 1429 01c4 F5D9     		bls	.L93
 1430              	.L92:
 1431              		.loc 1 428 0 discriminator 6
 1432 01c6 6B46     		mov	r3, sp
 1433 01c8 DA7A     		ldrb	r2, [r3, #11]
 1434 01ca 724C     		ldr	r4, .L128+8
 1435              	.LVL205:
 1436 01cc 7849     		ldr	r1, .L128+36
 1437 01ce 2000     		movs	r0, r4
 1438 01d0 FFF7FEFF 		bl	sprintf
 1439              	.LVL206:
 1440 01d4 2000     		movs	r0, r4
 1441 01d6 FFF7FEFF 		bl	USBUART_PutString
 1442              	.LVL207:
 1443              	.L91:
 1444              	.LBE14:
 429:cc85xx.c      ****   PRINTF("\tfw_min_rev: %d\n", pRsp->fw_min_rev);
 1445              		.loc 1 429 0 is_stmt 1
 1446 01da FFF7FEFF 		bl	USBUART_GetConfiguration
 1447              	.LVL208:
 1448 01de 0028     		cmp	r0, #0
 1449 01e0 17D0     		beq	.L94
 1450              	.LBB15:
 1451              		.loc 1 429 0 is_stmt 0 discriminator 1
 1452 01e2 6A4B     		ldr	r3, .L128
 1453 01e4 1C68     		ldr	r4, [r3]
 1454              	.LVL209:
 1455              	.L96:
 1456              		.loc 1 429 0 discriminator 5
 1457 01e6 FFF7FEFF 		bl	USBUART_CDCIsReady
 1458              	.LVL210:
 1459 01ea 0028     		cmp	r0, #0
 1460 01ec 05D1     		bne	.L95
 1461              		.loc 1 429 0 discriminator 3
 1462 01ee 674B     		ldr	r3, .L128
 1463 01f0 1B68     		ldr	r3, [r3]
ARM GAS  C:\Users\TERENC~1\AppData\Local\Temp\ccyX5Aoq.s 			page 35


 1464 01f2 1B1B     		subs	r3, r3, r4
 1465 01f4 664A     		ldr	r2, .L128+4
 1466 01f6 9342     		cmp	r3, r2
 1467 01f8 F5D9     		bls	.L96
 1468              	.L95:
 1469              		.loc 1 429 0 discriminator 6
 1470 01fa 6B46     		mov	r3, sp
 1471 01fc 9A7A     		ldrb	r2, [r3, #10]
 1472 01fe 1207     		lsls	r2, r2, #28
 1473 0200 120F     		lsrs	r2, r2, #28
 1474 0202 644C     		ldr	r4, .L128+8
 1475              	.LVL211:
 1476 0204 6B49     		ldr	r1, .L128+40
 1477 0206 2000     		movs	r0, r4
 1478 0208 FFF7FEFF 		bl	sprintf
 1479              	.LVL212:
 1480 020c 2000     		movs	r0, r4
 1481 020e FFF7FEFF 		bl	USBUART_PutString
 1482              	.LVL213:
 1483              	.L94:
 1484              	.LBE15:
 430:cc85xx.c      ****   PRINTF("\tfw_maj_rev: %d\n", pRsp->fw_maj_rev);
 1485              		.loc 1 430 0 is_stmt 1
 1486 0212 FFF7FEFF 		bl	USBUART_GetConfiguration
 1487              	.LVL214:
 1488 0216 0028     		cmp	r0, #0
 1489 0218 16D0     		beq	.L97
 1490              	.LBB16:
 1491              		.loc 1 430 0 is_stmt 0 discriminator 1
 1492 021a 5C4B     		ldr	r3, .L128
 1493 021c 1C68     		ldr	r4, [r3]
 1494              	.LVL215:
 1495              	.L99:
 1496              		.loc 1 430 0 discriminator 5
 1497 021e FFF7FEFF 		bl	USBUART_CDCIsReady
 1498              	.LVL216:
 1499 0222 0028     		cmp	r0, #0
 1500 0224 05D1     		bne	.L98
 1501              		.loc 1 430 0 discriminator 3
 1502 0226 594B     		ldr	r3, .L128
 1503 0228 1B68     		ldr	r3, [r3]
 1504 022a 1B1B     		subs	r3, r3, r4
 1505 022c 584A     		ldr	r2, .L128+4
 1506 022e 9342     		cmp	r3, r2
 1507 0230 F5D9     		bls	.L99
 1508              	.L98:
 1509              		.loc 1 430 0 discriminator 6
 1510 0232 6B46     		mov	r3, sp
 1511 0234 9A7A     		ldrb	r2, [r3, #10]
 1512 0236 1209     		lsrs	r2, r2, #4
 1513 0238 564C     		ldr	r4, .L128+8
 1514              	.LVL217:
 1515 023a 5F49     		ldr	r1, .L128+44
 1516 023c 2000     		movs	r0, r4
 1517 023e FFF7FEFF 		bl	sprintf
 1518              	.LVL218:
 1519 0242 2000     		movs	r0, r4
ARM GAS  C:\Users\TERENC~1\AppData\Local\Temp\ccyX5Aoq.s 			page 36


 1520 0244 FFF7FEFF 		bl	USBUART_PutString
 1521              	.LVL219:
 1522              	.L97:
 1523              	.LBE16:
 431:cc85xx.c      ****   PRINTF("\tfw_type: 0x%04X\n", BE16(pRsp->fw_type));
 1524              		.loc 1 431 0 is_stmt 1
 1525 0248 FFF7FEFF 		bl	USBUART_GetConfiguration
 1526              	.LVL220:
 1527 024c 0028     		cmp	r0, #0
 1528 024e 19D0     		beq	.L100
 1529              	.LBB17:
 1530              		.loc 1 431 0 is_stmt 0 discriminator 1
 1531 0250 4E4B     		ldr	r3, .L128
 1532 0252 1C68     		ldr	r4, [r3]
 1533              	.LVL221:
 1534              	.L102:
 1535              		.loc 1 431 0 discriminator 5
 1536 0254 FFF7FEFF 		bl	USBUART_CDCIsReady
 1537              	.LVL222:
 1538 0258 0028     		cmp	r0, #0
 1539 025a 05D1     		bne	.L101
 1540              		.loc 1 431 0 discriminator 3
 1541 025c 4B4B     		ldr	r3, .L128
 1542 025e 1B68     		ldr	r3, [r3]
 1543 0260 1B1B     		subs	r3, r3, r4
 1544 0262 4B4A     		ldr	r2, .L128+4
 1545 0264 9342     		cmp	r3, r2
 1546 0266 F5D9     		bls	.L102
 1547              	.L101:
 1548              		.loc 1 431 0 discriminator 6
 1549 0268 6B46     		mov	r3, sp
 1550 026a 1B89     		ldrh	r3, [r3, #8]
 1551 026c 1A0A     		lsrs	r2, r3, #8
 1552 026e 1B06     		lsls	r3, r3, #24
 1553 0270 1B0C     		lsrs	r3, r3, #16
 1554 0272 1A43     		orrs	r2, r3
 1555 0274 474C     		ldr	r4, .L128+8
 1556              	.LVL223:
 1557 0276 5149     		ldr	r1, .L128+48
 1558 0278 2000     		movs	r0, r4
 1559 027a FFF7FEFF 		bl	sprintf
 1560              	.LVL224:
 1561 027e 2000     		movs	r0, r4
 1562 0280 FFF7FEFF 		bl	USBUART_PutString
 1563              	.LVL225:
 1564              	.L100:
 1565              	.LBE17:
 432:cc85xx.c      ****   
 433:cc85xx.c      ****   PRINTF("\tfw_image_size: %d\n", BE32(pRsp->fw_image_size));
 1566              		.loc 1 433 0 is_stmt 1
 1567 0284 FFF7FEFF 		bl	USBUART_GetConfiguration
 1568              	.LVL226:
 1569 0288 0028     		cmp	r0, #0
 1570 028a 21D0     		beq	.L103
 1571              	.LBB18:
 1572              		.loc 1 433 0 is_stmt 0 discriminator 1
 1573 028c 3F4B     		ldr	r3, .L128
ARM GAS  C:\Users\TERENC~1\AppData\Local\Temp\ccyX5Aoq.s 			page 37


 1574 028e 1C68     		ldr	r4, [r3]
 1575              	.LVL227:
 1576              	.L105:
 1577              		.loc 1 433 0 discriminator 5
 1578 0290 FFF7FEFF 		bl	USBUART_CDCIsReady
 1579              	.LVL228:
 1580 0294 0028     		cmp	r0, #0
 1581 0296 05D1     		bne	.L104
 1582              		.loc 1 433 0 discriminator 3
 1583 0298 3C4B     		ldr	r3, .L128
 1584 029a 1B68     		ldr	r3, [r3]
 1585 029c 1B1B     		subs	r3, r3, r4
 1586 029e 3C4A     		ldr	r2, .L128+4
 1587 02a0 9342     		cmp	r3, r2
 1588 02a2 F5D9     		bls	.L105
 1589              	.L104:
 1590              		.loc 1 433 0 discriminator 6
 1591 02a4 049B     		ldr	r3, [sp, #16]
 1592 02a6 180E     		lsrs	r0, r3, #24
 1593 02a8 1A0A     		lsrs	r2, r3, #8
 1594 02aa FF21     		movs	r1, #255
 1595 02ac 0902     		lsls	r1, r1, #8
 1596 02ae 0A40     		ands	r2, r1
 1597 02b0 0243     		orrs	r2, r0
 1598 02b2 1802     		lsls	r0, r3, #8
 1599 02b4 FF21     		movs	r1, #255
 1600 02b6 0904     		lsls	r1, r1, #16
 1601 02b8 0140     		ands	r1, r0
 1602 02ba 0A43     		orrs	r2, r1
 1603 02bc 1B06     		lsls	r3, r3, #24
 1604 02be 1A43     		orrs	r2, r3
 1605 02c0 344C     		ldr	r4, .L128+8
 1606              	.LVL229:
 1607 02c2 3F49     		ldr	r1, .L128+52
 1608 02c4 2000     		movs	r0, r4
 1609 02c6 FFF7FEFF 		bl	sprintf
 1610              	.LVL230:
 1611 02ca 2000     		movs	r0, r4
 1612 02cc FFF7FEFF 		bl	USBUART_PutString
 1613              	.LVL231:
 1614              	.L103:
 1615              	.LBE18:
 434:cc85xx.c      ****   
 435:cc85xx.c      ****   PRINTF("\tchip_id: 0x%04X\n", BE16(pRsp->chip_id));
 1616              		.loc 1 435 0 is_stmt 1
 1617 02d0 FFF7FEFF 		bl	USBUART_GetConfiguration
 1618              	.LVL232:
 1619 02d4 0028     		cmp	r0, #0
 1620 02d6 19D0     		beq	.L106
 1621              	.LBB19:
 1622              		.loc 1 435 0 is_stmt 0 discriminator 1
 1623 02d8 2C4B     		ldr	r3, .L128
 1624 02da 1C68     		ldr	r4, [r3]
 1625              	.LVL233:
 1626              	.L108:
 1627              		.loc 1 435 0 discriminator 5
 1628 02dc FFF7FEFF 		bl	USBUART_CDCIsReady
ARM GAS  C:\Users\TERENC~1\AppData\Local\Temp\ccyX5Aoq.s 			page 38


 1629              	.LVL234:
 1630 02e0 0028     		cmp	r0, #0
 1631 02e2 05D1     		bne	.L107
 1632              		.loc 1 435 0 discriminator 3
 1633 02e4 294B     		ldr	r3, .L128
 1634 02e6 1B68     		ldr	r3, [r3]
 1635 02e8 1B1B     		subs	r3, r3, r4
 1636 02ea 294A     		ldr	r2, .L128+4
 1637 02ec 9342     		cmp	r3, r2
 1638 02ee F5D9     		bls	.L108
 1639              	.L107:
 1640              		.loc 1 435 0 discriminator 6
 1641 02f0 6B46     		mov	r3, sp
 1642 02f2 DB8A     		ldrh	r3, [r3, #22]
 1643 02f4 1A0A     		lsrs	r2, r3, #8
 1644 02f6 1B06     		lsls	r3, r3, #24
 1645 02f8 1B0C     		lsrs	r3, r3, #16
 1646 02fa 1A43     		orrs	r2, r3
 1647 02fc 254C     		ldr	r4, .L128+8
 1648              	.LVL235:
 1649 02fe 3149     		ldr	r1, .L128+56
 1650 0300 2000     		movs	r0, r4
 1651 0302 FFF7FEFF 		bl	sprintf
 1652              	.LVL236:
 1653 0306 2000     		movs	r0, r4
 1654 0308 FFF7FEFF 		bl	USBUART_PutString
 1655              	.LVL237:
 1656              	.L106:
 1657              	.LBE19:
 436:cc85xx.c      ****   PRINTF("\tchip_caps: 0x%04X\n", BE16(pRsp->chip_caps));
 1658              		.loc 1 436 0 is_stmt 1
 1659 030c FFF7FEFF 		bl	USBUART_GetConfiguration
 1660              	.LVL238:
 1661 0310 0028     		cmp	r0, #0
 1662 0312 19D0     		beq	.L109
 1663              	.LBB20:
 1664              		.loc 1 436 0 is_stmt 0 discriminator 1
 1665 0314 1D4B     		ldr	r3, .L128
 1666 0316 1C68     		ldr	r4, [r3]
 1667              	.LVL239:
 1668              	.L111:
 1669              		.loc 1 436 0 discriminator 5
 1670 0318 FFF7FEFF 		bl	USBUART_CDCIsReady
 1671              	.LVL240:
 1672 031c 0028     		cmp	r0, #0
 1673 031e 05D1     		bne	.L110
 1674              		.loc 1 436 0 discriminator 3
 1675 0320 1A4B     		ldr	r3, .L128
 1676 0322 1B68     		ldr	r3, [r3]
 1677 0324 1B1B     		subs	r3, r3, r4
 1678 0326 1A4A     		ldr	r2, .L128+4
 1679 0328 9342     		cmp	r3, r2
 1680 032a F5D9     		bls	.L111
 1681              	.L110:
 1682              		.loc 1 436 0 discriminator 6
 1683 032c 6B46     		mov	r3, sp
 1684 032e 9B8A     		ldrh	r3, [r3, #20]
ARM GAS  C:\Users\TERENC~1\AppData\Local\Temp\ccyX5Aoq.s 			page 39


 1685 0330 1A0A     		lsrs	r2, r3, #8
 1686 0332 1B06     		lsls	r3, r3, #24
 1687 0334 1B0C     		lsrs	r3, r3, #16
 1688 0336 1A43     		orrs	r2, r3
 1689 0338 164C     		ldr	r4, .L128+8
 1690              	.LVL241:
 1691 033a 2349     		ldr	r1, .L128+60
 1692 033c 2000     		movs	r0, r4
 1693 033e FFF7FEFF 		bl	sprintf
 1694              	.LVL242:
 1695 0342 2000     		movs	r0, r4
 1696 0344 FFF7FEFF 		bl	USBUART_PutString
 1697              	.LVL243:
 1698              	.L109:
 1699              	.LBE20:
 437:cc85xx.c      ****   
 438:cc85xx.c      ****   ret = cc85xx_di_get_device_info(pInfo);
 1700              		.loc 1 438 0 is_stmt 1
 1701 0348 6846     		mov	r0, sp
 1702 034a FFF7FEFF 		bl	cc85xx_di_get_device_info
 1703              	.LVL244:
 1704 034e 041E     		subs	r4, r0, #0
 1705              	.LVL245:
 439:cc85xx.c      ****   if (!ret)
 1706              		.loc 1 439 0
 1707 0350 3ED1     		bne	.L112
 440:cc85xx.c      ****   {
 441:cc85xx.c      ****     PRINTF("ERROR: Failed to get device info\n");
 1708              		.loc 1 441 0
 1709 0352 FFF7FEFF 		bl	USBUART_GetConfiguration
 1710              	.LVL246:
 1711 0356 0028     		cmp	r0, #0
 1712 0358 00D1     		bne	.LCB1709
 1713 035a B2E0     		b	.L124	@long jump
 1714              	.LCB1709:
 1715              	.LBB21:
 1716              		.loc 1 441 0 is_stmt 0 discriminator 1
 1717 035c 0B4B     		ldr	r3, .L128
 1718 035e 1D68     		ldr	r5, [r3]
 1719              	.LVL247:
 1720              	.L114:
 1721              		.loc 1 441 0 discriminator 5
 1722 0360 FFF7FEFF 		bl	USBUART_CDCIsReady
 1723              	.LVL248:
 1724 0364 0028     		cmp	r0, #0
 1725 0366 05D1     		bne	.L113
 1726              		.loc 1 441 0 discriminator 3
 1727 0368 084B     		ldr	r3, .L128
 1728 036a 1B68     		ldr	r3, [r3]
 1729 036c 5B1B     		subs	r3, r3, r5
 1730 036e 084A     		ldr	r2, .L128+4
 1731 0370 9342     		cmp	r3, r2
 1732 0372 F5D9     		bls	.L114
 1733              	.L113:
 1734              		.loc 1 441 0 discriminator 6
 1735 0374 074D     		ldr	r5, .L128+8
 1736              	.LVL249:
ARM GAS  C:\Users\TERENC~1\AppData\Local\Temp\ccyX5Aoq.s 			page 40


 1737 0376 2222     		movs	r2, #34
 1738 0378 1449     		ldr	r1, .L128+64
 1739 037a 2800     		movs	r0, r5
 1740 037c FFF7FEFF 		bl	memcpy
 1741              	.LVL250:
 1742 0380 2800     		movs	r0, r5
 1743 0382 FFF7FEFF 		bl	USBUART_PutString
 1744              	.LVL251:
 1745              	.LBE21:
 442:cc85xx.c      ****     return ret;
 1746              		.loc 1 442 0 is_stmt 1 discriminator 6
 1747 0386 2000     		movs	r0, r4
 1748 0388 9EE0     		b	.L70
 1749              	.L129:
 1750 038a C046     		.align	2
 1751              	.L128:
 1752 038c 00000000 		.word	tmrCounter_ms
 1753 0390 E7030000 		.word	999
 1754 0394 00000000 		.word	gbuf
 1755 0398 B4000000 		.word	.LC19
 1756 039c C8000000 		.word	.LC21
 1757 03a0 DC000000 		.word	.LC23
 1758 03a4 F0000000 		.word	.LC25
 1759 03a8 04010000 		.word	.LC27
 1760 03ac 18010000 		.word	.LC29
 1761 03b0 2C010000 		.word	.LC31
 1762 03b4 40010000 		.word	.LC33
 1763 03b8 54010000 		.word	.LC35
 1764 03bc 68010000 		.word	.LC37
 1765 03c0 7C010000 		.word	.LC39
 1766 03c4 90010000 		.word	.LC41
 1767 03c8 A4010000 		.word	.LC43
 1768 03cc B8010000 		.word	.LC45
 1769              	.LVL252:
 1770              	.L112:
 443:cc85xx.c      ****   }
 444:cc85xx.c      ****   
 445:cc85xx.c      ****   PRINTF("\tdevice_id: 0x%08X\n", BE32(pInfo->device_id));
 1771              		.loc 1 445 0
 1772 03d0 FFF7FEFF 		bl	USBUART_GetConfiguration
 1773              	.LVL253:
 1774 03d4 0028     		cmp	r0, #0
 1775 03d6 22D0     		beq	.L115
 1776              	.LBB22:
 1777              		.loc 1 445 0 is_stmt 0 discriminator 1
 1778 03d8 3C4B     		ldr	r3, .L130
 1779 03da 1D68     		ldr	r5, [r3]
 1780              	.LVL254:
 1781              	.L117:
 1782              		.loc 1 445 0 discriminator 5
 1783 03dc FFF7FEFF 		bl	USBUART_CDCIsReady
 1784              	.LVL255:
 1785 03e0 0028     		cmp	r0, #0
 1786 03e2 05D1     		bne	.L116
 1787              		.loc 1 445 0 discriminator 3
 1788 03e4 394B     		ldr	r3, .L130
 1789 03e6 1B68     		ldr	r3, [r3]
ARM GAS  C:\Users\TERENC~1\AppData\Local\Temp\ccyX5Aoq.s 			page 41


 1790 03e8 5B1B     		subs	r3, r3, r5
 1791 03ea 394A     		ldr	r2, .L130+4
 1792 03ec 9342     		cmp	r3, r2
 1793 03ee F5D9     		bls	.L117
 1794              	.L116:
 1795              		.loc 1 445 0 discriminator 6
 1796 03f0 009B     		ldr	r3, [sp]
 1797 03f2 1D0E     		lsrs	r5, r3, #24
 1798              	.LVL256:
 1799 03f4 1A0A     		lsrs	r2, r3, #8
 1800 03f6 FF21     		movs	r1, #255
 1801 03f8 0902     		lsls	r1, r1, #8
 1802 03fa 0A40     		ands	r2, r1
 1803 03fc 2800     		movs	r0, r5
 1804 03fe 1043     		orrs	r0, r2
 1805 0400 1A02     		lsls	r2, r3, #8
 1806 0402 FF21     		movs	r1, #255
 1807 0404 0904     		lsls	r1, r1, #16
 1808 0406 0A40     		ands	r2, r1
 1809 0408 0243     		orrs	r2, r0
 1810 040a 1B06     		lsls	r3, r3, #24
 1811 040c 1A43     		orrs	r2, r3
 1812 040e 314D     		ldr	r5, .L130+8
 1813 0410 3149     		ldr	r1, .L130+12
 1814 0412 2800     		movs	r0, r5
 1815 0414 FFF7FEFF 		bl	sprintf
 1816              	.LVL257:
 1817 0418 2800     		movs	r0, r5
 1818 041a FFF7FEFF 		bl	USBUART_PutString
 1819              	.LVL258:
 1820              	.L115:
 1821              	.LBE22:
 446:cc85xx.c      ****   PRINTF("\tmanf_id: 0x%08X\n", BE32(pInfo->manf_id));
 1822              		.loc 1 446 0 is_stmt 1
 1823 041e FFF7FEFF 		bl	USBUART_GetConfiguration
 1824              	.LVL259:
 1825 0422 0028     		cmp	r0, #0
 1826 0424 22D0     		beq	.L118
 1827              	.LBB23:
 1828              		.loc 1 446 0 is_stmt 0 discriminator 1
 1829 0426 294B     		ldr	r3, .L130
 1830 0428 1D68     		ldr	r5, [r3]
 1831              	.LVL260:
 1832              	.L120:
 1833              		.loc 1 446 0 discriminator 5
 1834 042a FFF7FEFF 		bl	USBUART_CDCIsReady
 1835              	.LVL261:
 1836 042e 0028     		cmp	r0, #0
 1837 0430 05D1     		bne	.L119
 1838              		.loc 1 446 0 discriminator 3
 1839 0432 264B     		ldr	r3, .L130
 1840 0434 1B68     		ldr	r3, [r3]
 1841 0436 5B1B     		subs	r3, r3, r5
 1842 0438 254A     		ldr	r2, .L130+4
 1843 043a 9342     		cmp	r3, r2
 1844 043c F5D9     		bls	.L120
 1845              	.L119:
ARM GAS  C:\Users\TERENC~1\AppData\Local\Temp\ccyX5Aoq.s 			page 42


 1846              		.loc 1 446 0 discriminator 6
 1847 043e 019B     		ldr	r3, [sp, #4]
 1848 0440 1D0E     		lsrs	r5, r3, #24
 1849              	.LVL262:
 1850 0442 1A0A     		lsrs	r2, r3, #8
 1851 0444 FF21     		movs	r1, #255
 1852 0446 0902     		lsls	r1, r1, #8
 1853 0448 0A40     		ands	r2, r1
 1854 044a 2800     		movs	r0, r5
 1855 044c 1043     		orrs	r0, r2
 1856 044e 1A02     		lsls	r2, r3, #8
 1857 0450 FF21     		movs	r1, #255
 1858 0452 0904     		lsls	r1, r1, #16
 1859 0454 0A40     		ands	r2, r1
 1860 0456 0243     		orrs	r2, r0
 1861 0458 1B06     		lsls	r3, r3, #24
 1862 045a 1A43     		orrs	r2, r3
 1863 045c 1D4D     		ldr	r5, .L130+8
 1864 045e 1F49     		ldr	r1, .L130+16
 1865 0460 2800     		movs	r0, r5
 1866 0462 FFF7FEFF 		bl	sprintf
 1867              	.LVL263:
 1868 0466 2800     		movs	r0, r5
 1869 0468 FFF7FEFF 		bl	USBUART_PutString
 1870              	.LVL264:
 1871              	.L118:
 1872              	.LBE23:
 447:cc85xx.c      ****   PRINTF("\tprod_id: 0x%08X\n", BE32(pInfo->prod_id));
 1873              		.loc 1 447 0 is_stmt 1
 1874 046c FFF7FEFF 		bl	USBUART_GetConfiguration
 1875              	.LVL265:
 1876 0470 0028     		cmp	r0, #0
 1877 0472 28D0     		beq	.L125
 1878              	.LBB24:
 1879              		.loc 1 447 0 is_stmt 0 discriminator 1
 1880 0474 154B     		ldr	r3, .L130
 1881 0476 1D68     		ldr	r5, [r3]
 1882              	.LVL266:
 1883              	.L122:
 1884              		.loc 1 447 0 discriminator 5
 1885 0478 FFF7FEFF 		bl	USBUART_CDCIsReady
 1886              	.LVL267:
 1887 047c 0028     		cmp	r0, #0
 1888 047e 05D1     		bne	.L121
 1889              		.loc 1 447 0 discriminator 3
 1890 0480 124B     		ldr	r3, .L130
 1891 0482 1B68     		ldr	r3, [r3]
 1892 0484 5B1B     		subs	r3, r3, r5
 1893 0486 124A     		ldr	r2, .L130+4
 1894 0488 9342     		cmp	r3, r2
 1895 048a F5D9     		bls	.L122
 1896              	.L121:
 1897              		.loc 1 447 0 discriminator 6
 1898 048c 029B     		ldr	r3, [sp, #8]
 1899 048e 1D0E     		lsrs	r5, r3, #24
 1900              	.LVL268:
 1901 0490 1A0A     		lsrs	r2, r3, #8
ARM GAS  C:\Users\TERENC~1\AppData\Local\Temp\ccyX5Aoq.s 			page 43


 1902 0492 FF21     		movs	r1, #255
 1903 0494 0902     		lsls	r1, r1, #8
 1904 0496 0A40     		ands	r2, r1
 1905 0498 2800     		movs	r0, r5
 1906 049a 1043     		orrs	r0, r2
 1907 049c 1A02     		lsls	r2, r3, #8
 1908 049e FF21     		movs	r1, #255
 1909 04a0 0904     		lsls	r1, r1, #16
 1910 04a2 0A40     		ands	r2, r1
 1911 04a4 0243     		orrs	r2, r0
 1912 04a6 1B06     		lsls	r3, r3, #24
 1913 04a8 1A43     		orrs	r2, r3
 1914 04aa 0A4D     		ldr	r5, .L130+8
 1915 04ac 0C49     		ldr	r1, .L130+20
 1916 04ae 2800     		movs	r0, r5
 1917 04b0 FFF7FEFF 		bl	sprintf
 1918              	.LVL269:
 1919 04b4 2800     		movs	r0, r5
 1920 04b6 FFF7FEFF 		bl	USBUART_PutString
 1921              	.LVL270:
 1922              	.LBE24:
 448:cc85xx.c      **** 
 449:cc85xx.c      ****   return ret;
 1923              		.loc 1 449 0 is_stmt 1 discriminator 6
 1924 04ba 2000     		movs	r0, r4
 1925 04bc 04E0     		b	.L70
 1926              	.L123:
 408:cc85xx.c      ****   }
 1927              		.loc 1 408 0
 1928 04be 2000     		movs	r0, r4
 1929 04c0 02E0     		b	.L70
 1930              	.L124:
 442:cc85xx.c      ****   }
 1931              		.loc 1 442 0
 1932 04c2 2000     		movs	r0, r4
 1933 04c4 00E0     		b	.L70
 1934              	.L125:
 1935              		.loc 1 449 0
 1936 04c6 2000     		movs	r0, r4
 1937              	.L70:
 450:cc85xx.c      **** }
 1938              		.loc 1 450 0
 1939 04c8 07B0     		add	sp, sp, #28
 1940              	.LVL271:
 1941              		@ sp needed
 1942 04ca 30BD     		pop	{r4, r5, pc}
 1943              	.L131:
 1944              		.align	2
 1945              	.L130:
 1946 04cc 00000000 		.word	tmrCounter_ms
 1947 04d0 E7030000 		.word	999
 1948 04d4 00000000 		.word	gbuf
 1949 04d8 DC010000 		.word	.LC47
 1950 04dc F0010000 		.word	.LC49
 1951 04e0 04020000 		.word	.LC51
 1952              		.cfi_endproc
 1953              	.LFE17:
ARM GAS  C:\Users\TERENC~1\AppData\Local\Temp\ccyX5Aoq.s 			page 44


 1954              		.size	cc85xx_print_info, .-cc85xx_print_info
 1955              		.section	.text.cc85xx_sys_reset,"ax",%progbits
 1956              		.align	2
 1957              		.global	cc85xx_sys_reset
 1958              		.code	16
 1959              		.thumb_func
 1960              		.type	cc85xx_sys_reset, %function
 1961              	cc85xx_sys_reset:
 1962              	.LFB18:
 451:cc85xx.c      **** 
 452:cc85xx.c      **** 
 453:cc85xx.c      **** bool cc85xx_sys_reset(void)
 454:cc85xx.c      **** {
 1963              		.loc 1 454 0
 1964              		.cfi_startproc
 1965              		@ args = 0, pretend = 0, frame = 0
 1966              		@ frame_needed = 0, uses_anonymous_args = 0
 1967 0000 10B5     		push	{r4, lr}
 1968              		.cfi_def_cfa_offset 8
 1969              		.cfi_offset 4, -8
 1970              		.cfi_offset 14, -4
 455:cc85xx.c      ****   bool ret;
 456:cc85xx.c      **** 
 457:cc85xx.c      ****   SPI_Stop();
 1971              		.loc 1 457 0
 1972 0002 FFF7FEFF 		bl	SPI_Stop
 1973              	.LVL272:
 458:cc85xx.c      ****   ret = cc85xx_reset(false);
 1974              		.loc 1 458 0
 1975 0006 0020     		movs	r0, #0
 1976 0008 FFF7FEFF 		bl	cc85xx_reset
 1977              	.LVL273:
 1978 000c 0400     		movs	r4, r0
 1979              	.LVL274:
 459:cc85xx.c      ****   SPI_Start();
 1980              		.loc 1 459 0
 1981 000e FFF7FEFF 		bl	SPI_Start
 1982              	.LVL275:
 460:cc85xx.c      **** 
 461:cc85xx.c      ****   return ret;
 462:cc85xx.c      **** }
 1983              		.loc 1 462 0
 1984 0012 2000     		movs	r0, r4
 1985              		@ sp needed
 1986              	.LVL276:
 1987 0014 10BD     		pop	{r4, pc}
 1988              		.cfi_endproc
 1989              	.LFE18:
 1990              		.size	cc85xx_sys_reset, .-cc85xx_sys_reset
 1991 0016 C046     		.section	.text.cc85xx_boot_reset,"ax",%progbits
 1992              		.align	2
 1993              		.global	cc85xx_boot_reset
 1994              		.code	16
 1995              		.thumb_func
 1996              		.type	cc85xx_boot_reset, %function
 1997              	cc85xx_boot_reset:
 1998              	.LFB19:
ARM GAS  C:\Users\TERENC~1\AppData\Local\Temp\ccyX5Aoq.s 			page 45


 463:cc85xx.c      **** 
 464:cc85xx.c      **** bool cc85xx_boot_reset(void)
 465:cc85xx.c      **** {
 1999              		.loc 1 465 0
 2000              		.cfi_startproc
 2001              		@ args = 0, pretend = 0, frame = 0
 2002              		@ frame_needed = 0, uses_anonymous_args = 0
 2003 0000 10B5     		push	{r4, lr}
 2004              		.cfi_def_cfa_offset 8
 2005              		.cfi_offset 4, -8
 2006              		.cfi_offset 14, -4
 466:cc85xx.c      ****   bool ret;
 467:cc85xx.c      ****   
 468:cc85xx.c      ****   SPI_Stop();
 2007              		.loc 1 468 0
 2008 0002 FFF7FEFF 		bl	SPI_Stop
 2009              	.LVL277:
 469:cc85xx.c      ****   ret = cc85xx_reset(true);
 2010              		.loc 1 469 0
 2011 0006 0120     		movs	r0, #1
 2012 0008 FFF7FEFF 		bl	cc85xx_reset
 2013              	.LVL278:
 2014 000c 0400     		movs	r4, r0
 2015              	.LVL279:
 470:cc85xx.c      ****   SPI_Start();
 2016              		.loc 1 470 0
 2017 000e FFF7FEFF 		bl	SPI_Start
 2018              	.LVL280:
 471:cc85xx.c      ****   
 472:cc85xx.c      ****   return ret;
 473:cc85xx.c      **** }
 2019              		.loc 1 473 0
 2020 0012 2000     		movs	r0, r4
 2021              		@ sp needed
 2022              	.LVL281:
 2023 0014 10BD     		pop	{r4, pc}
 2024              		.cfi_endproc
 2025              	.LFE19:
 2026              		.size	cc85xx_boot_reset, .-cc85xx_boot_reset
 2027 0016 C046     		.section	.text.cc85xx_get_status,"ax",%progbits
 2028              		.align	2
 2029              		.global	cc85xx_get_status
 2030              		.code	16
 2031              		.thumb_func
 2032              		.type	cc85xx_get_status, %function
 2033              	cc85xx_get_status:
 2034              	.LFB20:
 474:cc85xx.c      **** 
 475:cc85xx.c      **** uint16_t cc85xx_get_status(void)
 476:cc85xx.c      **** {
 2035              		.loc 1 476 0
 2036              		.cfi_startproc
 2037              		@ args = 0, pretend = 0, frame = 8
 2038              		@ frame_needed = 0, uses_anonymous_args = 0
 2039 0000 10B5     		push	{r4, lr}
 2040              		.cfi_def_cfa_offset 8
 2041              		.cfi_offset 4, -8
ARM GAS  C:\Users\TERENC~1\AppData\Local\Temp\ccyX5Aoq.s 			page 46


 2042              		.cfi_offset 14, -4
 2043 0002 84B0     		sub	sp, sp, #16
 2044              		.cfi_def_cfa_offset 24
 477:cc85xx.c      ****   uint16_t sw = 0;
 2045              		.loc 1 477 0
 2046 0004 0E24     		movs	r4, #14
 2047 0006 6C44     		add	r4, r4, sp
 2048 0008 0023     		movs	r3, #0
 2049 000a 2380     		strh	r3, [r4]
 478:cc85xx.c      ****   uint8_t txBuffer[] = { 0x80, 0x00 };
 2050              		.loc 1 478 0
 2051 000c 03A8     		add	r0, sp, #12
 2052 000e 8022     		movs	r2, #128
 2053 0010 0270     		strb	r2, [r0]
 2054 0012 0022     		movs	r2, #0
 2055 0014 4270     		strb	r2, [r0, #1]
 479:cc85xx.c      **** 
 480:cc85xx.c      ****   (void)cc85xx_basic_transaction(txBuffer, sizeof(txBuffer), &sw, NULL, 0, NULL);
 2056              		.loc 1 480 0
 2057 0016 0193     		str	r3, [sp, #4]
 2058 0018 0093     		str	r3, [sp]
 2059 001a 2200     		movs	r2, r4
 2060 001c 0221     		movs	r1, #2
 2061 001e FFF7FEFF 		bl	cc85xx_basic_transaction
 2062              	.LVL282:
 481:cc85xx.c      ****   
 482:cc85xx.c      ****   return sw;
 2063              		.loc 1 482 0
 2064 0022 2088     		ldrh	r0, [r4]
 483:cc85xx.c      **** }
 2065              		.loc 1 483 0
 2066 0024 04B0     		add	sp, sp, #16
 2067              		@ sp needed
 2068 0026 10BD     		pop	{r4, pc}
 2069              		.cfi_endproc
 2070              	.LFE20:
 2071              		.size	cc85xx_get_status, .-cc85xx_get_status
 2072              		.section	.text.cc85xx_wait_for_status,"ax",%progbits
 2073              		.align	2
 2074              		.code	16
 2075              		.thumb_func
 2076              		.type	cc85xx_wait_for_status, %function
 2077              	cc85xx_wait_for_status:
 2078              	.LFB2:
  27:cc85xx.c      ****   uint32_t start = tmrGetCounter_ms();
 2079              		.loc 1 27 0
 2080              		.cfi_startproc
 2081              		@ args = 0, pretend = 0, frame = 0
 2082              		@ frame_needed = 0, uses_anonymous_args = 0
 2083              	.LVL283:
 2084 0000 F8B5     		push	{r3, r4, r5, r6, r7, lr}
 2085              		.cfi_def_cfa_offset 24
 2086              		.cfi_offset 3, -24
 2087              		.cfi_offset 4, -20
 2088              		.cfi_offset 5, -16
 2089              		.cfi_offset 6, -12
 2090              		.cfi_offset 7, -8
ARM GAS  C:\Users\TERENC~1\AppData\Local\Temp\ccyX5Aoq.s 			page 47


 2091              		.cfi_offset 14, -4
 2092 0002 0400     		movs	r4, r0
 2093 0004 0F00     		movs	r7, r1
 2094 0006 1500     		movs	r5, r2
  28:cc85xx.c      ****   
 2095              		.loc 1 28 0
 2096 0008 084B     		ldr	r3, .L138
 2097 000a 1E68     		ldr	r6, [r3]
 2098              	.LVL284:
 2099              	.L137:
  32:cc85xx.c      ****   } while ((*pStatus != expectedStatus) && (tmrGetElapsedMs(start) < timeout));
 2100              		.loc 1 32 0 discriminator 2
 2101 000c FFF7FEFF 		bl	cc85xx_get_status
 2102              	.LVL285:
 2103 0010 0200     		movs	r2, r0
 2104 0012 2880     		strh	r0, [r5]
  33:cc85xx.c      ****   
 2105              		.loc 1 33 0 discriminator 2
 2106 0014 A042     		cmp	r0, r4
 2107 0016 04D0     		beq	.L136
  33:cc85xx.c      ****   
 2108              		.loc 1 33 0 is_stmt 0 discriminator 1
 2109 0018 044B     		ldr	r3, .L138
 2110 001a 1B68     		ldr	r3, [r3]
 2111 001c 9B1B     		subs	r3, r3, r6
 2112 001e BB42     		cmp	r3, r7
 2113 0020 F4D3     		bcc	.L137
 2114              	.L136:
  35:cc85xx.c      **** }
 2115              		.loc 1 35 0 is_stmt 1
 2116 0022 101B     		subs	r0, r2, r4
 2117 0024 4242     		rsbs	r2, r0, #0
 2118 0026 5041     		adcs	r0, r0, r2
 2119 0028 C0B2     		uxtb	r0, r0
  36:cc85xx.c      **** 
 2120              		.loc 1 36 0
 2121              		@ sp needed
 2122              	.LVL286:
 2123              	.LVL287:
 2124              	.LVL288:
 2125 002a F8BD     		pop	{r3, r4, r5, r6, r7, pc}
 2126              	.L139:
 2127              		.align	2
 2128              	.L138:
 2129 002c 00000000 		.word	tmrCounter_ms
 2130              		.cfi_endproc
 2131              	.LFE2:
 2132              		.size	cc85xx_wait_for_status, .-cc85xx_wait_for_status
 2133              		.section	.text.cc85xx_bl_unlock_spi,"ax",%progbits
 2134              		.align	2
 2135              		.global	cc85xx_bl_unlock_spi
 2136              		.code	16
 2137              		.thumb_func
 2138              		.type	cc85xx_bl_unlock_spi, %function
 2139              	cc85xx_bl_unlock_spi:
 2140              	.LFB12:
 290:cc85xx.c      ****   bool ret = false;
ARM GAS  C:\Users\TERENC~1\AppData\Local\Temp\ccyX5Aoq.s 			page 48


 2141              		.loc 1 290 0
 2142              		.cfi_startproc
 2143              		@ args = 0, pretend = 0, frame = 8
 2144              		@ frame_needed = 0, uses_anonymous_args = 0
 2145 0000 30B5     		push	{r4, r5, lr}
 2146              		.cfi_def_cfa_offset 12
 2147              		.cfi_offset 4, -12
 2148              		.cfi_offset 5, -8
 2149              		.cfi_offset 14, -4
 2150 0002 85B0     		sub	sp, sp, #20
 2151              		.cfi_def_cfa_offset 32
 2152              	.LVL289:
 292:cc85xx.c      ****   uint16_t sw = 0xCCCC;
 2153              		.loc 1 292 0
 2154 0004 1C4B     		ldr	r3, .L146
 2155 0006 0393     		str	r3, [sp, #12]
 293:cc85xx.c      **** 
 2156              		.loc 1 293 0
 2157 0008 0A23     		movs	r3, #10
 2158 000a 6B44     		add	r3, r3, sp
 2159 000c 1B4A     		ldr	r2, .L146+4
 2160 000e 1A80     		strh	r2, [r3]
 295:cc85xx.c      ****   
 2161              		.loc 1 295 0
 2162 0010 03AA     		add	r2, sp, #12
 2163 0012 0421     		movs	r1, #4
 2164 0014 0020     		movs	r0, #0
 2165 0016 FFF7FEFF 		bl	cc85xx_cmd_req
 2166              	.LVL290:
 2167 001a 041E     		subs	r4, r0, #0
 2168              	.LVL291:
 297:cc85xx.c      ****   {
 2169              		.loc 1 297 0
 2170 001c 08D0     		beq	.L141
 297:cc85xx.c      ****   {
 2171              		.loc 1 297 0 is_stmt 0 discriminator 1
 2172 001e 0A22     		movs	r2, #10
 2173 0020 6A44     		add	r2, r2, sp
 2174 0022 FA21     		movs	r1, #250
 2175 0024 8900     		lsls	r1, r1, #2
 2176 0026 1648     		ldr	r0, .L146+8
 2177              	.LVL292:
 2178 0028 FFF7FEFF 		bl	cc85xx_wait_for_status
 2179              	.LVL293:
 2180 002c 0028     		cmp	r0, #0
 2181 002e 20D1     		bne	.L142
 2182              	.L141:
 299:cc85xx.c      ****     return false;
 2183              		.loc 1 299 0 is_stmt 1
 2184 0030 FFF7FEFF 		bl	USBUART_GetConfiguration
 2185              	.LVL294:
 2186 0034 0028     		cmp	r0, #0
 2187 0036 1BD0     		beq	.L145
 2188              	.LBB25:
 299:cc85xx.c      ****     return false;
 2189              		.loc 1 299 0 is_stmt 0 discriminator 1
 2190 0038 124B     		ldr	r3, .L146+12
ARM GAS  C:\Users\TERENC~1\AppData\Local\Temp\ccyX5Aoq.s 			page 49


 2191 003a 1D68     		ldr	r5, [r3]
 2192              	.LVL295:
 2193              	.L144:
 299:cc85xx.c      ****     return false;
 2194              		.loc 1 299 0 discriminator 5
 2195 003c FFF7FEFF 		bl	USBUART_CDCIsReady
 2196              	.LVL296:
 2197 0040 0028     		cmp	r0, #0
 2198 0042 05D1     		bne	.L143
 299:cc85xx.c      ****     return false;
 2199              		.loc 1 299 0 discriminator 3
 2200 0044 0F4B     		ldr	r3, .L146+12
 2201 0046 1B68     		ldr	r3, [r3]
 2202 0048 5B1B     		subs	r3, r3, r5
 2203 004a 0F4A     		ldr	r2, .L146+16
 2204 004c 9342     		cmp	r3, r2
 2205 004e F5D9     		bls	.L144
 2206              	.L143:
 299:cc85xx.c      ****     return false;
 2207              		.loc 1 299 0 discriminator 6
 2208 0050 0E4D     		ldr	r5, .L146+20
 2209              	.LVL297:
 2210 0052 0A23     		movs	r3, #10
 2211 0054 6B44     		add	r3, r3, sp
 2212 0056 1B88     		ldrh	r3, [r3]
 2213 0058 0093     		str	r3, [sp]
 2214 005a 2300     		movs	r3, r4
 2215 005c 0C4A     		ldr	r2, .L146+24
 2216 005e 0D49     		ldr	r1, .L146+28
 2217 0060 2800     		movs	r0, r5
 2218 0062 FFF7FEFF 		bl	sprintf
 2219              	.LVL298:
 2220 0066 2800     		movs	r0, r5
 2221 0068 FFF7FEFF 		bl	USBUART_PutString
 2222              	.LVL299:
 2223              	.LBE25:
 300:cc85xx.c      ****   }
 2224              		.loc 1 300 0 is_stmt 1 discriminator 6
 2225 006c 0020     		movs	r0, #0
 2226 006e 00E0     		b	.L142
 2227              	.L145:
 300:cc85xx.c      ****   }
 2228              		.loc 1 300 0 is_stmt 0
 2229 0070 0020     		movs	r0, #0
 2230              	.L142:
 304:cc85xx.c      **** 
 2231              		.loc 1 304 0 is_stmt 1
 2232 0072 05B0     		add	sp, sp, #20
 2233              		@ sp needed
 2234 0074 30BD     		pop	{r4, r5, pc}
 2235              	.L147:
 2236 0076 C046     		.align	2
 2237              	.L146:
 2238 0078 2505B007 		.word	128976165
 2239 007c CCCCFFFF 		.word	-13108
 2240 0080 20800000 		.word	32800
 2241 0084 00000000 		.word	tmrCounter_ms
ARM GAS  C:\Users\TERENC~1\AppData\Local\Temp\ccyX5Aoq.s 			page 50


 2242 0088 E7030000 		.word	999
 2243 008c 00000000 		.word	gbuf
 2244 0090 00000000 		.word	.LANCHOR0
 2245 0094 18020000 		.word	.LC56
 2246              		.cfi_endproc
 2247              	.LFE12:
 2248              		.size	cc85xx_bl_unlock_spi, .-cc85xx_bl_unlock_spi
 2249              		.section	.text.cc85xx_bl_mass_erase,"ax",%progbits
 2250              		.align	2
 2251              		.global	cc85xx_bl_mass_erase
 2252              		.code	16
 2253              		.thumb_func
 2254              		.type	cc85xx_bl_mass_erase, %function
 2255              	cc85xx_bl_mass_erase:
 2256              	.LFB13:
 307:cc85xx.c      ****   bool ret = false;
 2257              		.loc 1 307 0
 2258              		.cfi_startproc
 2259              		@ args = 0, pretend = 0, frame = 8
 2260              		@ frame_needed = 0, uses_anonymous_args = 0
 2261 0000 30B5     		push	{r4, r5, lr}
 2262              		.cfi_def_cfa_offset 12
 2263              		.cfi_offset 4, -12
 2264              		.cfi_offset 5, -8
 2265              		.cfi_offset 14, -4
 2266 0002 85B0     		sub	sp, sp, #20
 2267              		.cfi_def_cfa_offset 32
 2268              	.LVL300:
 309:cc85xx.c      ****   uint16_t sw = 0xCCCC;
 2269              		.loc 1 309 0
 2270 0004 1C4B     		ldr	r3, .L154
 2271 0006 0393     		str	r3, [sp, #12]
 310:cc85xx.c      **** 
 2272              		.loc 1 310 0
 2273 0008 0A23     		movs	r3, #10
 2274 000a 6B44     		add	r3, r3, sp
 2275 000c 1B4A     		ldr	r2, .L154+4
 2276 000e 1A80     		strh	r2, [r3]
 312:cc85xx.c      ****   
 2277              		.loc 1 312 0
 2278 0010 03AA     		add	r2, sp, #12
 2279 0012 0421     		movs	r1, #4
 2280 0014 0320     		movs	r0, #3
 2281 0016 FFF7FEFF 		bl	cc85xx_cmd_req
 2282              	.LVL301:
 2283 001a 041E     		subs	r4, r0, #0
 2284              	.LVL302:
 314:cc85xx.c      ****   {
 2285              		.loc 1 314 0
 2286 001c 08D0     		beq	.L149
 314:cc85xx.c      ****   {
 2287              		.loc 1 314 0 is_stmt 0 discriminator 1
 2288 001e 0A22     		movs	r2, #10
 2289 0020 6A44     		add	r2, r2, sp
 2290 0022 FA21     		movs	r1, #250
 2291 0024 8900     		lsls	r1, r1, #2
 2292 0026 1648     		ldr	r0, .L154+8
ARM GAS  C:\Users\TERENC~1\AppData\Local\Temp\ccyX5Aoq.s 			page 51


 2293              	.LVL303:
 2294 0028 FFF7FEFF 		bl	cc85xx_wait_for_status
 2295              	.LVL304:
 2296 002c 0028     		cmp	r0, #0
 2297 002e 21D1     		bne	.L150
 2298              	.L149:
 316:cc85xx.c      ****     return false;
 2299              		.loc 1 316 0 is_stmt 1
 2300 0030 FFF7FEFF 		bl	USBUART_GetConfiguration
 2301              	.LVL305:
 2302 0034 0028     		cmp	r0, #0
 2303 0036 1CD0     		beq	.L153
 2304              	.LBB26:
 316:cc85xx.c      ****     return false;
 2305              		.loc 1 316 0 is_stmt 0 discriminator 1
 2306 0038 124B     		ldr	r3, .L154+12
 2307 003a 1D68     		ldr	r5, [r3]
 2308              	.LVL306:
 2309              	.L152:
 316:cc85xx.c      ****     return false;
 2310              		.loc 1 316 0 discriminator 5
 2311 003c FFF7FEFF 		bl	USBUART_CDCIsReady
 2312              	.LVL307:
 2313 0040 0028     		cmp	r0, #0
 2314 0042 05D1     		bne	.L151
 316:cc85xx.c      ****     return false;
 2315              		.loc 1 316 0 discriminator 3
 2316 0044 0F4B     		ldr	r3, .L154+12
 2317 0046 1B68     		ldr	r3, [r3]
 2318 0048 5B1B     		subs	r3, r3, r5
 2319 004a 0F4A     		ldr	r2, .L154+16
 2320 004c 9342     		cmp	r3, r2
 2321 004e F5D9     		bls	.L152
 2322              	.L151:
 316:cc85xx.c      ****     return false;
 2323              		.loc 1 316 0 discriminator 6
 2324 0050 0E4D     		ldr	r5, .L154+20
 2325              	.LVL308:
 2326 0052 0A23     		movs	r3, #10
 2327 0054 6B44     		add	r3, r3, sp
 2328 0056 1B88     		ldrh	r3, [r3]
 2329 0058 0093     		str	r3, [sp]
 2330 005a 2300     		movs	r3, r4
 2331 005c 0C4A     		ldr	r2, .L154+24
 2332 005e 1832     		adds	r2, r2, #24
 2333 0060 0C49     		ldr	r1, .L154+28
 2334 0062 2800     		movs	r0, r5
 2335 0064 FFF7FEFF 		bl	sprintf
 2336              	.LVL309:
 2337 0068 2800     		movs	r0, r5
 2338 006a FFF7FEFF 		bl	USBUART_PutString
 2339              	.LVL310:
 2340              	.LBE26:
 317:cc85xx.c      ****   }
 2341              		.loc 1 317 0 is_stmt 1 discriminator 6
 2342 006e 0020     		movs	r0, #0
 2343 0070 00E0     		b	.L150
ARM GAS  C:\Users\TERENC~1\AppData\Local\Temp\ccyX5Aoq.s 			page 52


 2344              	.L153:
 317:cc85xx.c      ****   }
 2345              		.loc 1 317 0 is_stmt 0
 2346 0072 0020     		movs	r0, #0
 2347              	.L150:
 321:cc85xx.c      **** 
 2348              		.loc 1 321 0 is_stmt 1
 2349 0074 05B0     		add	sp, sp, #20
 2350              		@ sp needed
 2351 0076 30BD     		pop	{r4, r5, pc}
 2352              	.L155:
 2353              		.align	2
 2354              	.L154:
 2355 0078 25051337 		.word	923993381
 2356 007c CCCCFFFF 		.word	-13108
 2357 0080 03800000 		.word	32771
 2358 0084 00000000 		.word	tmrCounter_ms
 2359 0088 E7030000 		.word	999
 2360 008c 00000000 		.word	gbuf
 2361 0090 00000000 		.word	.LANCHOR0
 2362 0094 18020000 		.word	.LC56
 2363              		.cfi_endproc
 2364              	.LFE13:
 2365              		.size	cc85xx_bl_mass_erase, .-cc85xx_bl_mass_erase
 2366              		.section	.text.cc85xx_bl_flash_verify,"ax",%progbits
 2367              		.align	2
 2368              		.global	cc85xx_bl_flash_verify
 2369              		.code	16
 2370              		.thumb_func
 2371              		.type	cc85xx_bl_flash_verify, %function
 2372              	cc85xx_bl_flash_verify:
 2373              	.LFB14:
 324:cc85xx.c      ****   bool ret = false;
 2374              		.loc 1 324 0
 2375              		.cfi_startproc
 2376              		@ args = 0, pretend = 0, frame = 8
 2377              		@ frame_needed = 0, uses_anonymous_args = 0
 2378              	.LVL311:
 2379 0000 F0B5     		push	{r4, r5, r6, r7, lr}
 2380              		.cfi_def_cfa_offset 20
 2381              		.cfi_offset 4, -20
 2382              		.cfi_offset 5, -16
 2383              		.cfi_offset 6, -12
 2384              		.cfi_offset 7, -8
 2385              		.cfi_offset 14, -4
 2386 0002 85B0     		sub	sp, sp, #20
 2387              		.cfi_def_cfa_offset 40
 2388 0004 0400     		movs	r4, r0
 2389              	.LVL312:
 329:cc85xx.c      **** 
 2390              		.loc 1 329 0
 2391 0006 0820     		movs	r0, #8
 2392              	.LVL313:
 2393 0008 FFF7FEFF 		bl	malloc
 2394              	.LVL314:
 2395 000c 0600     		movs	r6, r0
 2396              	.LVL315:
ARM GAS  C:\Users\TERENC~1\AppData\Local\Temp\ccyX5Aoq.s 			page 53


 331:cc85xx.c      ****   pTxPkt->data_addr = BE32(0x8000UL);
 2397              		.loc 1 331 0
 2398 000e 4A4B     		ldr	r3, .L166
 2399 0010 1A68     		ldr	r2, [r3]
 2400 0012 100E     		lsrs	r0, r2, #24
 2401              	.LVL316:
 2402 0014 130A     		lsrs	r3, r2, #8
 2403 0016 FF21     		movs	r1, #255
 2404 0018 0902     		lsls	r1, r1, #8
 2405 001a 0B40     		ands	r3, r1
 2406 001c 0343     		orrs	r3, r0
 2407 001e 1002     		lsls	r0, r2, #8
 2408 0020 FF21     		movs	r1, #255
 2409 0022 0904     		lsls	r1, r1, #16
 2410 0024 0140     		ands	r1, r0
 2411 0026 0B43     		orrs	r3, r1
 2412 0028 1206     		lsls	r2, r2, #24
 2413 002a 1343     		orrs	r3, r2
 2414 002c 3371     		strb	r3, [r6, #4]
 2415 002e 1A0A     		lsrs	r2, r3, #8
 2416 0030 7271     		strb	r2, [r6, #5]
 2417 0032 1A0C     		lsrs	r2, r3, #16
 2418 0034 B271     		strb	r2, [r6, #6]
 2419 0036 1B0E     		lsrs	r3, r3, #24
 2420 0038 F371     		strb	r3, [r6, #7]
 332:cc85xx.c      ****   ret = cc85xx_cmd_req(CC85XX_CMD_TYPE_BL_FLASH_VERIFY, sizeof(cc85xx_bl_flash_verify_s), (uint8_t 
 2421              		.loc 1 332 0
 2422 003a 0023     		movs	r3, #0
 2423 003c 3370     		strb	r3, [r6]
 2424 003e 7370     		strb	r3, [r6, #1]
 2425 0040 803B     		subs	r3, r3, #128
 2426 0042 B370     		strb	r3, [r6, #2]
 2427 0044 0023     		movs	r3, #0
 2428 0046 F370     		strb	r3, [r6, #3]
 333:cc85xx.c      **** 
 2429              		.loc 1 333 0
 2430 0048 0E33     		adds	r3, r3, #14
 2431 004a 6B44     		add	r3, r3, sp
 2432 004c 3200     		movs	r2, r6
 2433 004e 0821     		movs	r1, #8
 2434 0050 0F20     		movs	r0, #15
 2435 0052 FFF7FEFF 		bl	cc85xx_cmd_req
 2436              	.LVL317:
 2437 0056 0500     		movs	r5, r0
 2438              	.LVL318:
 335:cc85xx.c      **** 
 2439              		.loc 1 335 0
 2440 0058 3000     		movs	r0, r6
 2441 005a FFF7FEFF 		bl	free
 2442              	.LVL319:
 337:cc85xx.c      ****   {
 2443              		.loc 1 337 0
 2444 005e 002D     		cmp	r5, #0
 2445 0060 08D0     		beq	.L157
 337:cc85xx.c      ****   {
 2446              		.loc 1 337 0 is_stmt 0 discriminator 1
 2447 0062 0E22     		movs	r2, #14
ARM GAS  C:\Users\TERENC~1\AppData\Local\Temp\ccyX5Aoq.s 			page 54


 2448 0064 6A44     		add	r2, r2, sp
 2449 0066 FA21     		movs	r1, #250
 2450 0068 8900     		lsls	r1, r1, #2
 2451 006a 3448     		ldr	r0, .L166+4
 2452 006c FFF7FEFF 		bl	cc85xx_wait_for_status
 2453              	.LVL320:
 2454 0070 0028     		cmp	r0, #0
 2455 0072 20D1     		bne	.L164
 2456              	.L157:
 339:cc85xx.c      ****     rv = false;
 2457              		.loc 1 339 0 is_stmt 1
 2458 0074 FFF7FEFF 		bl	USBUART_GetConfiguration
 2459              	.LVL321:
 2460 0078 0028     		cmp	r0, #0
 2461 007a 1ED0     		beq	.L165
 2462              	.LBB27:
 339:cc85xx.c      ****     rv = false;
 2463              		.loc 1 339 0 is_stmt 0 discriminator 1
 2464 007c 304B     		ldr	r3, .L166+8
 2465 007e 1E68     		ldr	r6, [r3]
 2466              	.LVL322:
 2467              	.L160:
 339:cc85xx.c      ****     rv = false;
 2468              		.loc 1 339 0 discriminator 5
 2469 0080 FFF7FEFF 		bl	USBUART_CDCIsReady
 2470              	.LVL323:
 2471 0084 0028     		cmp	r0, #0
 2472 0086 05D1     		bne	.L159
 339:cc85xx.c      ****     rv = false;
 2473              		.loc 1 339 0 discriminator 3
 2474 0088 2D4B     		ldr	r3, .L166+8
 2475 008a 1B68     		ldr	r3, [r3]
 2476 008c 9B1B     		subs	r3, r3, r6
 2477 008e 2D4A     		ldr	r2, .L166+12
 2478 0090 9342     		cmp	r3, r2
 2479 0092 F5D9     		bls	.L160
 2480              	.L159:
 339:cc85xx.c      ****     rv = false;
 2481              		.loc 1 339 0 discriminator 6
 2482 0094 2C4E     		ldr	r6, .L166+16
 2483              	.LVL324:
 2484 0096 0E23     		movs	r3, #14
 2485 0098 6B44     		add	r3, r3, sp
 2486 009a 1B88     		ldrh	r3, [r3]
 2487 009c 0093     		str	r3, [sp]
 2488 009e 2B00     		movs	r3, r5
 2489 00a0 2A4A     		ldr	r2, .L166+20
 2490 00a2 3032     		adds	r2, r2, #48
 2491 00a4 2A49     		ldr	r1, .L166+24
 2492 00a6 3000     		movs	r0, r6
 2493 00a8 FFF7FEFF 		bl	sprintf
 2494              	.LVL325:
 2495 00ac 3000     		movs	r0, r6
 2496 00ae FFF7FEFF 		bl	USBUART_PutString
 2497              	.LVL326:
 2498              	.LBE27:
 340:cc85xx.c      ****   }
ARM GAS  C:\Users\TERENC~1\AppData\Local\Temp\ccyX5Aoq.s 			page 55


 2499              		.loc 1 340 0 is_stmt 1 discriminator 6
 2500 00b2 0025     		movs	r5, #0
 2501              	.LVL327:
 2502 00b4 02E0     		b	.L158
 2503              	.LVL328:
 2504              	.L164:
 326:cc85xx.c      ****   uint16_t sw;
 2505              		.loc 1 326 0
 2506 00b6 0125     		movs	r5, #1
 2507              	.LVL329:
 2508 00b8 00E0     		b	.L158
 2509              	.LVL330:
 2510              	.L165:
 340:cc85xx.c      ****   }
 2511              		.loc 1 340 0
 2512 00ba 0025     		movs	r5, #0
 2513              	.LVL331:
 2514              	.L158:
 343:cc85xx.c      ****   {
 2515              		.loc 1 343 0
 2516 00bc 002C     		cmp	r4, #0
 2517 00be 38D0     		beq	.L161
 345:cc85xx.c      ****     if (ret)
 2518              		.loc 1 345 0
 2519 00c0 2200     		movs	r2, r4
 2520 00c2 0E21     		movs	r1, #14
 2521 00c4 6944     		add	r1, r1, sp
 2522 00c6 0420     		movs	r0, #4
 2523 00c8 FFF7FEFF 		bl	cc85xx_read
 2524              	.LVL332:
 346:cc85xx.c      ****     {
 2525              		.loc 1 346 0
 2526 00cc 0028     		cmp	r0, #0
 2527 00ce 30D0     		beq	.L161
 348:cc85xx.c      ****       PRINTF("nImageBytes = %u (0x%08x)\nCRC_VAL = 0x%08X\nsw = 0x%04X\n", nImageBytes, nImageBytes
 2528              		.loc 1 348 0
 2529 00d0 2368     		ldr	r3, [r4]
 2530 00d2 1E0E     		lsrs	r6, r3, #24
 2531 00d4 1A0A     		lsrs	r2, r3, #8
 2532 00d6 FF21     		movs	r1, #255
 2533 00d8 0902     		lsls	r1, r1, #8
 2534 00da 0A40     		ands	r2, r1
 2535 00dc 3000     		movs	r0, r6
 2536              	.LVL333:
 2537 00de 1043     		orrs	r0, r2
 2538 00e0 1A02     		lsls	r2, r3, #8
 2539 00e2 FF21     		movs	r1, #255
 2540 00e4 0904     		lsls	r1, r1, #16
 2541 00e6 0A40     		ands	r2, r1
 2542 00e8 0243     		orrs	r2, r0
 2543 00ea 1B06     		lsls	r3, r3, #24
 2544 00ec 1343     		orrs	r3, r2
 2545 00ee 2360     		str	r3, [r4]
 349:cc85xx.c      ****     }
 2546              		.loc 1 349 0
 2547 00f0 FFF7FEFF 		bl	USBUART_GetConfiguration
 2548              	.LVL334:
ARM GAS  C:\Users\TERENC~1\AppData\Local\Temp\ccyX5Aoq.s 			page 56


 2549 00f4 0028     		cmp	r0, #0
 2550 00f6 1CD0     		beq	.L161
 2551              	.LBB28:
 349:cc85xx.c      ****     }
 2552              		.loc 1 349 0 is_stmt 0 discriminator 1
 2553 00f8 114B     		ldr	r3, .L166+8
 2554 00fa 1E68     		ldr	r6, [r3]
 2555              	.LVL335:
 2556              	.L163:
 349:cc85xx.c      ****     }
 2557              		.loc 1 349 0 discriminator 5
 2558 00fc FFF7FEFF 		bl	USBUART_CDCIsReady
 2559              	.LVL336:
 2560 0100 0028     		cmp	r0, #0
 2561 0102 05D1     		bne	.L162
 349:cc85xx.c      ****     }
 2562              		.loc 1 349 0 discriminator 3
 2563 0104 0E4B     		ldr	r3, .L166+8
 2564 0106 1B68     		ldr	r3, [r3]
 2565 0108 9B1B     		subs	r3, r3, r6
 2566 010a 0E4A     		ldr	r2, .L166+12
 2567 010c 9342     		cmp	r3, r2
 2568 010e F5D9     		bls	.L163
 2569              	.L162:
 349:cc85xx.c      ****     }
 2570              		.loc 1 349 0 discriminator 6
 2571 0110 094B     		ldr	r3, .L166
 2572 0112 1A68     		ldr	r2, [r3]
 2573 0114 0C4E     		ldr	r6, .L166+16
 2574              	.LVL337:
 2575 0116 0E23     		movs	r3, #14
 2576 0118 6B44     		add	r3, r3, sp
 2577 011a 1B88     		ldrh	r3, [r3]
 2578 011c 0193     		str	r3, [sp, #4]
 2579 011e 2368     		ldr	r3, [r4]
 2580 0120 0093     		str	r3, [sp]
 2581 0122 1300     		movs	r3, r2
 2582 0124 0B49     		ldr	r1, .L166+28
 2583 0126 3000     		movs	r0, r6
 2584 0128 FFF7FEFF 		bl	sprintf
 2585              	.LVL338:
 2586 012c 3000     		movs	r0, r6
 2587 012e FFF7FEFF 		bl	USBUART_PutString
 2588              	.LVL339:
 2589              	.L161:
 2590              	.LBE28:
 354:cc85xx.c      **** 
 2591              		.loc 1 354 0 is_stmt 1
 2592 0132 2800     		movs	r0, r5
 2593 0134 05B0     		add	sp, sp, #20
 2594              		@ sp needed
 2595              	.LVL340:
 2596              	.LVL341:
 2597 0136 F0BD     		pop	{r4, r5, r6, r7, pc}
 2598              	.L167:
 2599              		.align	2
 2600              	.L166:
ARM GAS  C:\Users\TERENC~1\AppData\Local\Temp\ccyX5Aoq.s 			page 57


 2601 0138 00000000 		.word	.LANCHOR1
 2602 013c 0E800000 		.word	32782
 2603 0140 00000000 		.word	tmrCounter_ms
 2604 0144 E7030000 		.word	999
 2605 0148 00000000 		.word	gbuf
 2606 014c 00000000 		.word	.LANCHOR0
 2607 0150 18020000 		.word	.LC56
 2608 0154 3C020000 		.word	.LC68
 2609              		.cfi_endproc
 2610              	.LFE14:
 2611              		.size	cc85xx_bl_flash_verify, .-cc85xx_bl_flash_verify
 2612              		.section	.text.cc85xx_bl_flash_page_prog,"ax",%progbits
 2613              		.align	2
 2614              		.code	16
 2615              		.thumb_func
 2616              		.type	cc85xx_bl_flash_page_prog, %function
 2617              	cc85xx_bl_flash_page_prog:
 2618              	.LFB11:
 266:cc85xx.c      ****   bool ret = false;
 2619              		.loc 1 266 0
 2620              		.cfi_startproc
 2621              		@ args = 0, pretend = 0, frame = 8
 2622              		@ frame_needed = 0, uses_anonymous_args = 0
 2623              	.LVL342:
 2624 0000 F0B5     		push	{r4, r5, r6, r7, lr}
 2625              		.cfi_def_cfa_offset 20
 2626              		.cfi_offset 4, -20
 2627              		.cfi_offset 5, -16
 2628              		.cfi_offset 6, -12
 2629              		.cfi_offset 7, -8
 2630              		.cfi_offset 14, -4
 2631 0002 85B0     		sub	sp, sp, #20
 2632              		.cfi_def_cfa_offset 40
 2633 0004 0700     		movs	r7, r0
 2634 0006 0D00     		movs	r5, r1
 2635 0008 1400     		movs	r4, r2
 2636              	.LVL343:
 269:cc85xx.c      **** 
 2637              		.loc 1 269 0
 2638 000a 0A20     		movs	r0, #10
 2639              	.LVL344:
 2640 000c FFF7FEFF 		bl	malloc
 2641              	.LVL345:
 2642 0010 0600     		movs	r6, r0
 2643              	.LVL346:
 271:cc85xx.c      ****   pTxPkt->flash_addr = BE16(flashAddr);
 2644              		.loc 1 271 0
 2645 0012 3B0A     		lsrs	r3, r7, #8
 2646 0014 3F02     		lsls	r7, r7, #8
 2647 0016 1F43     		orrs	r7, r3
 2648 0018 BFB2     		uxth	r7, r7
 2649 001a 0770     		strb	r7, [r0]
 2650 001c 3F0A     		lsrs	r7, r7, #8
 2651 001e 4770     		strb	r7, [r0, #1]
 272:cc85xx.c      ****   pTxPkt->dword_count = BE16(dwordCount);
 2652              		.loc 1 272 0
 2653 0020 2B0A     		lsrs	r3, r5, #8
ARM GAS  C:\Users\TERENC~1\AppData\Local\Temp\ccyX5Aoq.s 			page 58


 2654 0022 2D02     		lsls	r5, r5, #8
 2655 0024 1D43     		orrs	r5, r3
 2656 0026 ADB2     		uxth	r5, r5
 2657 0028 8570     		strb	r5, [r0, #2]
 2658 002a 2D0A     		lsrs	r5, r5, #8
 2659 002c C570     		strb	r5, [r0, #3]
 273:cc85xx.c      ****   pTxPkt->key = BE32(CC85XX_BL_MASS_ERASE_KEY);
 2660              		.loc 1 273 0
 2661 002e 230A     		lsrs	r3, r4, #8
 2662 0030 2402     		lsls	r4, r4, #8
 2663 0032 1C43     		orrs	r4, r3
 2664 0034 A4B2     		uxth	r4, r4
 2665 0036 0471     		strb	r4, [r0, #4]
 2666 0038 240A     		lsrs	r4, r4, #8
 2667 003a 4471     		strb	r4, [r0, #5]
 274:cc85xx.c      **** 
 2668              		.loc 1 274 0
 2669 003c 2522     		movs	r2, #37
 2670 003e 8271     		strb	r2, [r0, #6]
 2671 0040 203A     		subs	r2, r2, #32
 2672 0042 C271     		strb	r2, [r0, #7]
 2673 0044 0E32     		adds	r2, r2, #14
 2674 0046 0272     		strb	r2, [r0, #8]
 2675 0048 2432     		adds	r2, r2, #36
 2676 004a 4272     		strb	r2, [r0, #9]
 276:cc85xx.c      ****   
 2677              		.loc 1 276 0
 2678 004c 0E23     		movs	r3, #14
 2679 004e 6B44     		add	r3, r3, sp
 2680 0050 0200     		movs	r2, r0
 2681 0052 0A21     		movs	r1, #10
 2682 0054 0720     		movs	r0, #7
 2683              	.LVL347:
 2684 0056 FFF7FEFF 		bl	cc85xx_cmd_req
 2685              	.LVL348:
 2686 005a 0400     		movs	r4, r0
 2687              	.LVL349:
 278:cc85xx.c      **** 
 2688              		.loc 1 278 0
 2689 005c 3000     		movs	r0, r6
 2690 005e FFF7FEFF 		bl	free
 2691              	.LVL350:
 280:cc85xx.c      ****   {
 2692              		.loc 1 280 0
 2693 0062 002C     		cmp	r4, #0
 2694 0064 08D0     		beq	.L169
 280:cc85xx.c      ****   {
 2695              		.loc 1 280 0 is_stmt 0 discriminator 1
 2696 0066 0E22     		movs	r2, #14
 2697 0068 6A44     		add	r2, r2, sp
 2698 006a FA21     		movs	r1, #250
 2699 006c 8900     		lsls	r1, r1, #2
 2700 006e 1448     		ldr	r0, .L174
 2701 0070 FFF7FEFF 		bl	cc85xx_wait_for_status
 2702              	.LVL351:
 2703 0074 0028     		cmp	r0, #0
 2704 0076 21D1     		bne	.L170
ARM GAS  C:\Users\TERENC~1\AppData\Local\Temp\ccyX5Aoq.s 			page 59


 2705              	.L169:
 282:cc85xx.c      ****     return false;
 2706              		.loc 1 282 0 is_stmt 1
 2707 0078 FFF7FEFF 		bl	USBUART_GetConfiguration
 2708              	.LVL352:
 2709 007c 0028     		cmp	r0, #0
 2710 007e 1CD0     		beq	.L173
 2711              	.LBB29:
 282:cc85xx.c      ****     return false;
 2712              		.loc 1 282 0 is_stmt 0 discriminator 1
 2713 0080 104B     		ldr	r3, .L174+4
 2714 0082 1D68     		ldr	r5, [r3]
 2715              	.LVL353:
 2716              	.L172:
 282:cc85xx.c      ****     return false;
 2717              		.loc 1 282 0 discriminator 5
 2718 0084 FFF7FEFF 		bl	USBUART_CDCIsReady
 2719              	.LVL354:
 2720 0088 0028     		cmp	r0, #0
 2721 008a 05D1     		bne	.L171
 282:cc85xx.c      ****     return false;
 2722              		.loc 1 282 0 discriminator 3
 2723 008c 0D4B     		ldr	r3, .L174+4
 2724 008e 1B68     		ldr	r3, [r3]
 2725 0090 5B1B     		subs	r3, r3, r5
 2726 0092 0D4A     		ldr	r2, .L174+8
 2727 0094 9342     		cmp	r3, r2
 2728 0096 F5D9     		bls	.L172
 2729              	.L171:
 282:cc85xx.c      ****     return false;
 2730              		.loc 1 282 0 discriminator 6
 2731 0098 0C4D     		ldr	r5, .L174+12
 2732              	.LVL355:
 2733 009a 0E23     		movs	r3, #14
 2734 009c 6B44     		add	r3, r3, sp
 2735 009e 1B88     		ldrh	r3, [r3]
 2736 00a0 0093     		str	r3, [sp]
 2737 00a2 2300     		movs	r3, r4
 2738 00a4 0A4A     		ldr	r2, .L174+16
 2739 00a6 4832     		adds	r2, r2, #72
 2740 00a8 0A49     		ldr	r1, .L174+20
 2741 00aa 2800     		movs	r0, r5
 2742 00ac FFF7FEFF 		bl	sprintf
 2743              	.LVL356:
 2744 00b0 2800     		movs	r0, r5
 2745 00b2 FFF7FEFF 		bl	USBUART_PutString
 2746              	.LVL357:
 2747              	.LBE29:
 283:cc85xx.c      ****   }
 2748              		.loc 1 283 0 is_stmt 1 discriminator 6
 2749 00b6 0020     		movs	r0, #0
 2750 00b8 00E0     		b	.L170
 2751              	.L173:
 283:cc85xx.c      ****   }
 2752              		.loc 1 283 0 is_stmt 0
 2753 00ba 0020     		movs	r0, #0
 2754              	.L170:
ARM GAS  C:\Users\TERENC~1\AppData\Local\Temp\ccyX5Aoq.s 			page 60


 287:cc85xx.c      **** 
 2755              		.loc 1 287 0 is_stmt 1
 2756 00bc 05B0     		add	sp, sp, #20
 2757              		@ sp needed
 2758              	.LVL358:
 2759              	.LVL359:
 2760 00be F0BD     		pop	{r4, r5, r6, r7, pc}
 2761              	.L175:
 2762              		.align	2
 2763              	.L174:
 2764 00c0 0B800000 		.word	32779
 2765 00c4 00000000 		.word	tmrCounter_ms
 2766 00c8 E7030000 		.word	999
 2767 00cc 00000000 		.word	gbuf
 2768 00d0 00000000 		.word	.LANCHOR0
 2769 00d4 18020000 		.word	.LC56
 2770              		.cfi_endproc
 2771              	.LFE11:
 2772              		.size	cc85xx_bl_flash_page_prog, .-cc85xx_bl_flash_page_prog
 2773              		.section	.text.cc85xx_init,"ax",%progbits
 2774              		.align	2
 2775              		.global	cc85xx_init
 2776              		.code	16
 2777              		.thumb_func
 2778              		.type	cc85xx_init, %function
 2779              	cc85xx_init:
 2780              	.LFB21:
 484:cc85xx.c      **** 
 485:cc85xx.c      **** void cc85xx_init(void)
 486:cc85xx.c      **** {
 2781              		.loc 1 486 0
 2782              		.cfi_startproc
 2783              		@ args = 0, pretend = 0, frame = 0
 2784              		@ frame_needed = 0, uses_anonymous_args = 0
 2785 0000 10B5     		push	{r4, lr}
 2786              		.cfi_def_cfa_offset 8
 2787              		.cfi_offset 4, -8
 2788              		.cfi_offset 14, -4
 487:cc85xx.c      ****   SPI_Start();
 2789              		.loc 1 487 0
 2790 0002 FFF7FEFF 		bl	SPI_Start
 2791              	.LVL360:
 488:cc85xx.c      **** }
 2792              		.loc 1 488 0
 2793              		@ sp needed
 2794 0006 10BD     		pop	{r4, pc}
 2795              		.cfi_endproc
 2796              	.LFE21:
 2797              		.size	cc85xx_init, .-cc85xx_init
 2798              		.section	.text.cc85xx_flash_bytes,"ax",%progbits
 2799              		.align	2
 2800              		.global	cc85xx_flash_bytes
 2801              		.code	16
 2802              		.thumb_func
 2803              		.type	cc85xx_flash_bytes, %function
 2804              	cc85xx_flash_bytes:
 2805              	.LFB22:
ARM GAS  C:\Users\TERENC~1\AppData\Local\Temp\ccyX5Aoq.s 			page 61


 489:cc85xx.c      **** 
 490:cc85xx.c      **** bool cc85xx_flash_bytes(uint16_t addr, uint8_t *pData, uint16_t dataLen)
 491:cc85xx.c      **** {
 2806              		.loc 1 491 0
 2807              		.cfi_startproc
 2808              		@ args = 0, pretend = 0, frame = 8
 2809              		@ frame_needed = 0, uses_anonymous_args = 0
 2810              	.LVL361:
 2811 0000 F0B5     		push	{r4, r5, r6, r7, lr}
 2812              		.cfi_def_cfa_offset 20
 2813              		.cfi_offset 4, -20
 2814              		.cfi_offset 5, -16
 2815              		.cfi_offset 6, -12
 2816              		.cfi_offset 7, -8
 2817              		.cfi_offset 14, -4
 2818 0002 83B0     		sub	sp, sp, #12
 2819              		.cfi_def_cfa_offset 32
 2820 0004 0700     		movs	r7, r0
 2821 0006 0D00     		movs	r5, r1
 2822 0008 1600     		movs	r6, r2
 2823              	.LVL362:
 492:cc85xx.c      ****   bool ret = true;
 493:cc85xx.c      ****   uint16_t sw;
 494:cc85xx.c      ****   uint16_t ram_addr = 0x6000 + (addr % CC85XX_PAGE_SIZE);
 2824              		.loc 1 494 0
 2825 000a 8405     		lsls	r4, r0, #22
 2826 000c A40D     		lsrs	r4, r4, #22
 2827 000e C023     		movs	r3, #192
 2828 0010 DB01     		lsls	r3, r3, #7
 2829 0012 E018     		adds	r0, r4, r3
 2830              	.LVL363:
 495:cc85xx.c      ****   
 496:cc85xx.c      ****   // SET_ADDR
 497:cc85xx.c      ****   cc85xx_set_addr(ram_addr, &sw);
 2831              		.loc 1 497 0
 2832 0014 6B46     		mov	r3, sp
 2833 0016 991D     		adds	r1, r3, #6
 2834              	.LVL364:
 2835 0018 FFF7FEFF 		bl	cc85xx_set_addr
 2836              	.LVL365:
 498:cc85xx.c      ****   
 499:cc85xx.c      ****   // WRITE
 500:cc85xx.c      ****   cc85xx_write(dataLen, pData, &sw);
 2837              		.loc 1 500 0
 2838 001c 6B46     		mov	r3, sp
 2839 001e 9A1D     		adds	r2, r3, #6
 2840 0020 2900     		movs	r1, r5
 2841 0022 3000     		movs	r0, r6
 2842 0024 FFF7FEFF 		bl	cc85xx_write
 2843              	.LVL366:
 501:cc85xx.c      ****   
 502:cc85xx.c      ****   if ((dataLen + (addr % CC85XX_PAGE_SIZE)) >= CC85XX_PAGE_SIZE)
 2844              		.loc 1 502 0
 2845 0028 3419     		adds	r4, r6, r4
 2846              	.LVL367:
 2847 002a 194B     		ldr	r3, .L181
 2848 002c 9C42     		cmp	r4, r3
ARM GAS  C:\Users\TERENC~1\AppData\Local\Temp\ccyX5Aoq.s 			page 62


 2849 002e 10DD     		ble	.L180
 503:cc85xx.c      ****   {
 504:cc85xx.c      ****     // Program the page
 505:cc85xx.c      ****     ret = cc85xx_bl_flash_page_prog(0x6000, 0x8000 + ((addr - 0x8000) / CC85XX_PAGE_SIZE) * CC85XX_
 2850              		.loc 1 505 0
 2851 0030 184B     		ldr	r3, .L181+4
 2852 0032 FB18     		adds	r3, r7, r3
 2853 0034 D917     		asrs	r1, r3, #31
 2854 0036 8905     		lsls	r1, r1, #22
 2855 0038 890D     		lsrs	r1, r1, #22
 2856 003a C918     		adds	r1, r1, r3
 2857 003c 8912     		asrs	r1, r1, #10
 2858 003e 2031     		adds	r1, r1, #32
 2859 0040 8902     		lsls	r1, r1, #10
 2860 0042 89B2     		uxth	r1, r1
 2861 0044 8022     		movs	r2, #128
 2862 0046 5200     		lsls	r2, r2, #1
 2863 0048 C020     		movs	r0, #192
 2864              	.LVL368:
 2865 004a C001     		lsls	r0, r0, #7
 2866              	.LVL369:
 2867 004c FFF7FEFF 		bl	cc85xx_bl_flash_page_prog
 2868              	.LVL370:
 2869 0050 00E0     		b	.L178
 2870              	.LVL371:
 2871              	.L180:
 492:cc85xx.c      ****   uint16_t sw;
 2872              		.loc 1 492 0
 2873 0052 0120     		movs	r0, #1
 2874              	.LVL372:
 2875              	.L178:
 506:cc85xx.c      ****   }
 507:cc85xx.c      ****   
 508:cc85xx.c      ****   if (addr <= 0x801C && (addr + dataLen) >= 0x801C)
 2876              		.loc 1 508 0
 2877 0054 104B     		ldr	r3, .L181+8
 2878 0056 9F42     		cmp	r7, r3
 2879 0058 18D8     		bhi	.L179
 2880              		.loc 1 508 0 is_stmt 0 discriminator 1
 2881 005a BE19     		adds	r6, r7, r6
 2882 005c 0F4B     		ldr	r3, .L181+12
 2883 005e 9E42     		cmp	r6, r3
 2884 0060 14DD     		ble	.L179
 509:cc85xx.c      ****   {
 510:cc85xx.c      ****     addr = 0x801C - addr;
 2885              		.loc 1 510 0 is_stmt 1
 2886 0062 0F4B     		ldr	r3, .L181+16
 2887 0064 DF1B     		subs	r7, r3, r7
 2888              	.LVL373:
 2889 0066 BFB2     		uxth	r7, r7
 2890              	.LVL374:
 511:cc85xx.c      ****     nImageBytes = BE32(*((uint32_t *)&pData[addr]));
 2891              		.loc 1 511 0
 2892 0068 EB59     		ldr	r3, [r5, r7]
 2893 006a 1D0E     		lsrs	r5, r3, #24
 2894              	.LVL375:
 2895 006c 1A0A     		lsrs	r2, r3, #8
ARM GAS  C:\Users\TERENC~1\AppData\Local\Temp\ccyX5Aoq.s 			page 63


 2896 006e FF21     		movs	r1, #255
 2897 0070 0902     		lsls	r1, r1, #8
 2898 0072 0A40     		ands	r2, r1
 2899 0074 2C00     		movs	r4, r5
 2900 0076 1443     		orrs	r4, r2
 2901 0078 1A02     		lsls	r2, r3, #8
 2902 007a FF21     		movs	r1, #255
 2903 007c 0904     		lsls	r1, r1, #16
 2904 007e 1140     		ands	r1, r2
 2905 0080 2200     		movs	r2, r4
 2906 0082 0A43     		orrs	r2, r1
 2907 0084 1B06     		lsls	r3, r3, #24
 2908 0086 1343     		orrs	r3, r2
 2909 0088 064A     		ldr	r2, .L181+20
 2910 008a 1360     		str	r3, [r2]
 2911              	.LVL376:
 2912              	.L179:
 512:cc85xx.c      ****   }
 513:cc85xx.c      **** 
 514:cc85xx.c      ****   return ret;
 515:cc85xx.c      **** }
 2913              		.loc 1 515 0
 2914 008c 03B0     		add	sp, sp, #12
 2915              		@ sp needed
 2916 008e F0BD     		pop	{r4, r5, r6, r7, pc}
 2917              	.L182:
 2918              		.align	2
 2919              	.L181:
 2920 0090 FF030000 		.word	1023
 2921 0094 0080FFFF 		.word	-32768
 2922 0098 1C800000 		.word	32796
 2923 009c 1B800000 		.word	32795
 2924 00a0 1C80FFFF 		.word	-32740
 2925 00a4 00000000 		.word	.LANCHOR1
 2926              		.cfi_endproc
 2927              	.LFE22:
 2928              		.size	cc85xx_flash_bytes, .-cc85xx_flash_bytes
 2929              		.section	.text.cc85xx_ehc_evt_mask,"ax",%progbits
 2930              		.align	2
 2931              		.global	cc85xx_ehc_evt_mask
 2932              		.code	16
 2933              		.thumb_func
 2934              		.type	cc85xx_ehc_evt_mask, %function
 2935              	cc85xx_ehc_evt_mask:
 2936              	.LFB23:
 516:cc85xx.c      **** 
 517:cc85xx.c      **** bool cc85xx_ehc_evt_mask(cc85xx_ehc_evt_mask_cmd_s *pCmd)
 518:cc85xx.c      **** {
 2937              		.loc 1 518 0
 2938              		.cfi_startproc
 2939              		@ args = 0, pretend = 0, frame = 0
 2940              		@ frame_needed = 0, uses_anonymous_args = 0
 2941              	.LVL377:
 2942 0000 10B5     		push	{r4, lr}
 2943              		.cfi_def_cfa_offset 8
 2944              		.cfi_offset 4, -8
 2945              		.cfi_offset 14, -4
ARM GAS  C:\Users\TERENC~1\AppData\Local\Temp\ccyX5Aoq.s 			page 64


 2946 0002 0200     		movs	r2, r0
 519:cc85xx.c      ****   return cc85xx_cmd_req(CC85XX_CMD_TYPE_EHC_EVT_MASK, sizeof(cc85xx_ehc_evt_mask_cmd_s), (uint8_t *
 2947              		.loc 1 519 0
 2948 0004 0023     		movs	r3, #0
 2949 0006 0221     		movs	r1, #2
 2950 0008 1A20     		movs	r0, #26
 2951              	.LVL378:
 2952 000a FFF7FEFF 		bl	cc85xx_cmd_req
 2953              	.LVL379:
 520:cc85xx.c      **** }
 2954              		.loc 1 520 0
 2955              		@ sp needed
 2956 000e 10BD     		pop	{r4, pc}
 2957              		.cfi_endproc
 2958              	.LFE23:
 2959              		.size	cc85xx_ehc_evt_mask, .-cc85xx_ehc_evt_mask
 2960              		.section	.text.cc85xx_ehc_evt_clr,"ax",%progbits
 2961              		.align	2
 2962              		.global	cc85xx_ehc_evt_clr
 2963              		.code	16
 2964              		.thumb_func
 2965              		.type	cc85xx_ehc_evt_clr, %function
 2966              	cc85xx_ehc_evt_clr:
 2967              	.LFB24:
 521:cc85xx.c      **** 
 522:cc85xx.c      **** bool cc85xx_ehc_evt_clr(cc85xx_ehc_evt_clr_cmd_s *pCmd)
 523:cc85xx.c      **** {
 2968              		.loc 1 523 0
 2969              		.cfi_startproc
 2970              		@ args = 0, pretend = 0, frame = 0
 2971              		@ frame_needed = 0, uses_anonymous_args = 0
 2972              	.LVL380:
 2973 0000 10B5     		push	{r4, lr}
 2974              		.cfi_def_cfa_offset 8
 2975              		.cfi_offset 4, -8
 2976              		.cfi_offset 14, -4
 2977 0002 0200     		movs	r2, r0
 524:cc85xx.c      ****   return cc85xx_cmd_req(CC85XX_CMD_TYPE_EHC_EVT_CLR, sizeof(cc85xx_ehc_evt_clr_cmd_s), (uint8_t *)p
 2978              		.loc 1 524 0
 2979 0004 0023     		movs	r3, #0
 2980 0006 0121     		movs	r1, #1
 2981 0008 1920     		movs	r0, #25
 2982              	.LVL381:
 2983 000a FFF7FEFF 		bl	cc85xx_cmd_req
 2984              	.LVL382:
 525:cc85xx.c      **** }
 2985              		.loc 1 525 0
 2986              		@ sp needed
 2987 000e 10BD     		pop	{r4, pc}
 2988              		.cfi_endproc
 2989              	.LFE24:
 2990              		.size	cc85xx_ehc_evt_clr, .-cc85xx_ehc_evt_clr
 2991              		.section	.rodata
 2992              		.align	2
 2993              		.set	.LANCHOR0,. + 0
 2994              		.type	__FUNCTION__.7012, %object
 2995              		.size	__FUNCTION__.7012, 21
ARM GAS  C:\Users\TERENC~1\AppData\Local\Temp\ccyX5Aoq.s 			page 65


 2996              	__FUNCTION__.7012:
 2997 0000 63633835 		.ascii	"cc85xx_bl_unlock_spi\000"
 2997      78785F62 
 2997      6C5F756E 
 2997      6C6F636B 
 2997      5F737069 
 2998 0015 000000   		.space	3
 2999              		.type	__FUNCTION__.7023, %object
 3000              		.size	__FUNCTION__.7023, 21
 3001              	__FUNCTION__.7023:
 3002 0018 63633835 		.ascii	"cc85xx_bl_mass_erase\000"
 3002      78785F62 
 3002      6C5F6D61 
 3002      73735F65 
 3002      72617365 
 3003 002d 000000   		.space	3
 3004              		.type	__FUNCTION__.7035, %object
 3005              		.size	__FUNCTION__.7035, 23
 3006              	__FUNCTION__.7035:
 3007 0030 63633835 		.ascii	"cc85xx_bl_flash_verify\000"
 3007      78785F62 
 3007      6C5F666C 
 3007      6173685F 
 3007      76657269 
 3008 0047 00       		.space	1
 3009              		.type	__FUNCTION__.7001, %object
 3010              		.size	__FUNCTION__.7001, 26
 3011              	__FUNCTION__.7001:
 3012 0048 63633835 		.ascii	"cc85xx_bl_flash_page_prog\000"
 3012      78785F62 
 3012      6C5F666C 
 3012      6173685F 
 3012      70616765 
 3013              		.section	.rodata.str1.4,"aMS",%progbits,1
 3014              		.align	2
 3015              	.LC2:
 3016 0000 4552524F 		.ascii	"ERROR: Timed out waiting for previous SPI operation"
 3016      523A2054 
 3016      696D6564 
 3016      206F7574 
 3016      20776169 
 3017 0033 20746F20 		.ascii	" to complete\012\000"
 3017      636F6D70 
 3017      6C657465 
 3017      0A00
 3018 0041 000000   		.space	3
 3019              	.LC6:
 3020 0044 4552524F 		.ascii	"ERROR: CMD_REQ 0x%02X failed: sw=0x%04X\012\000"
 3020      523A2043 
 3020      4D445F52 
 3020      45512030 
 3020      78253032 
 3021 006d 000000   		.space	3
 3022              	.LC9:
 3023 0070 4552524F 		.ascii	"ERROR: READ failed: sw=0x%04X\012\000"
 3023      523A2052 
 3023      45414420 
ARM GAS  C:\Users\TERENC~1\AppData\Local\Temp\ccyX5Aoq.s 			page 66


 3023      6661696C 
 3023      65643A20 
 3024 008f 00       		.space	1
 3025              	.LC17:
 3026 0090 4552524F 		.ascii	"ERROR: Failed to fetch chip info\012\000"
 3026      523A2046 
 3026      61696C65 
 3026      6420746F 
 3026      20666574 
 3027 00b2 0000     		.space	2
 3028              	.LC19:
 3029 00b4 0966616D 		.ascii	"\011family_id: 0x%04X\012\000"
 3029      696C795F 
 3029      69643A20 
 3029      30782530 
 3029      34580A00 
 3030              	.LC21:
 3031 00c8 0973696C 		.ascii	"\011sil_min_rev: %d\012\000"
 3031      5F6D696E 
 3031      5F726576 
 3031      3A202564 
 3031      0A00
 3032 00da 0000     		.space	2
 3033              	.LC23:
 3034 00dc 0973696C 		.ascii	"\011sil_maj_rev: %d\012\000"
 3034      5F6D616A 
 3034      5F726576 
 3034      3A202564 
 3034      0A00
 3035 00ee 0000     		.space	2
 3036              	.LC25:
 3037 00f0 09726F6D 		.ascii	"\011rom_min_rev: %d\012\000"
 3037      5F6D696E 
 3037      5F726576 
 3037      3A202564 
 3037      0A00
 3038 0102 0000     		.space	2
 3039              	.LC27:
 3040 0104 09726F6D 		.ascii	"\011rom_maj_rev: %d\012\000"
 3040      5F6D616A 
 3040      5F726576 
 3040      3A202564 
 3040      0A00
 3041 0116 0000     		.space	2
 3042              	.LC29:
 3043 0118 09726F6D 		.ascii	"\011rom_type: 0x%04X\012\000"
 3043      5F747970 
 3043      653A2030 
 3043      78253034 
 3043      580A00
 3044 012b 00       		.space	1
 3045              	.LC31:
 3046 012c 0966775F 		.ascii	"\011fw_patch_rev: %d\012\000"
 3046      70617463 
 3046      685F7265 
 3046      763A2025 
 3046      640A00
ARM GAS  C:\Users\TERENC~1\AppData\Local\Temp\ccyX5Aoq.s 			page 67


 3047 013f 00       		.space	1
 3048              	.LC33:
 3049 0140 0966775F 		.ascii	"\011fw_min_rev: %d\012\000"
 3049      6D696E5F 
 3049      7265763A 
 3049      2025640A 
 3049      00
 3050 0151 000000   		.space	3
 3051              	.LC35:
 3052 0154 0966775F 		.ascii	"\011fw_maj_rev: %d\012\000"
 3052      6D616A5F 
 3052      7265763A 
 3052      2025640A 
 3052      00
 3053 0165 000000   		.space	3
 3054              	.LC37:
 3055 0168 0966775F 		.ascii	"\011fw_type: 0x%04X\012\000"
 3055      74797065 
 3055      3A203078 
 3055      25303458 
 3055      0A00
 3056 017a 0000     		.space	2
 3057              	.LC39:
 3058 017c 0966775F 		.ascii	"\011fw_image_size: %d\012\000"
 3058      696D6167 
 3058      655F7369 
 3058      7A653A20 
 3058      25640A00 
 3059              	.LC41:
 3060 0190 09636869 		.ascii	"\011chip_id: 0x%04X\012\000"
 3060      705F6964 
 3060      3A203078 
 3060      25303458 
 3060      0A00
 3061 01a2 0000     		.space	2
 3062              	.LC43:
 3063 01a4 09636869 		.ascii	"\011chip_caps: 0x%04X\012\000"
 3063      705F6361 
 3063      70733A20 
 3063      30782530 
 3063      34580A00 
 3064              	.LC45:
 3065 01b8 4552524F 		.ascii	"ERROR: Failed to get device info\012\000"
 3065      523A2046 
 3065      61696C65 
 3065      6420746F 
 3065      20676574 
 3066 01da 0000     		.space	2
 3067              	.LC47:
 3068 01dc 09646576 		.ascii	"\011device_id: 0x%08X\012\000"
 3068      6963655F 
 3068      69643A20 
 3068      30782530 
 3068      38580A00 
 3069              	.LC49:
 3070 01f0 096D616E 		.ascii	"\011manf_id: 0x%08X\012\000"
 3070      665F6964 
ARM GAS  C:\Users\TERENC~1\AppData\Local\Temp\ccyX5Aoq.s 			page 68


 3070      3A203078 
 3070      25303858 
 3070      0A00
 3071 0202 0000     		.space	2
 3072              	.LC51:
 3073 0204 0970726F 		.ascii	"\011prod_id: 0x%08X\012\000"
 3073      645F6964 
 3073      3A203078 
 3073      25303858 
 3073      0A00
 3074 0216 0000     		.space	2
 3075              	.LC56:
 3076 0218 4552524F 		.ascii	"ERROR: %s: ret=%d, status=0x%04X\012\000"
 3076      523A2025 
 3076      733A2072 
 3076      65743D25 
 3076      642C2073 
 3077 023a 0000     		.space	2
 3078              	.LC68:
 3079 023c 6E496D61 		.ascii	"nImageBytes = %u (0x%08x)\012CRC_VAL = 0x%08X\012sw"
 3079      67654279 
 3079      74657320 
 3079      3D202575 
 3079      20283078 
 3080 0269 203D2030 		.ascii	" = 0x%04X\012\000"
 3080      78253034 
 3080      580A00
 3081              		.bss
 3082              		.align	2
 3083              		.set	.LANCHOR1,. + 0
 3084              		.type	nImageBytes, %object
 3085              		.size	nImageBytes, 4
 3086              	nImageBytes:
 3087 0000 00000000 		.space	4
 3088              		.text
 3089              	.Letext0:
 3090              		.file 2 "c:\\program files (x86)\\cypress\\psoc creator\\4.2\\psoc creator\\import\\gnu\\arm\\5.4.
 3091              		.file 3 "c:\\program files (x86)\\cypress\\psoc creator\\4.2\\psoc creator\\import\\gnu\\arm\\5.4.
 3092              		.file 4 "./cc85xx.h"
 3093              		.file 5 "Generated_Source\\PSoC4/cytypes.h"
 3094              		.file 6 "./timers.h"
 3095              		.file 7 "./Application.h"
 3096              		.file 8 "Generated_Source\\PSoC4/SPI_SPI_UART.h"
 3097              		.file 9 "Generated_Source\\PSoC4/USBUART_cdc.h"
 3098              		.file 10 "Generated_Source\\PSoC4/SPI_miso_m.h"
 3099              		.file 11 "Generated_Source\\PSoC4/USBUART.h"
 3100              		.file 12 "c:\\program files (x86)\\cypress\\psoc creator\\4.2\\psoc creator\\import\\gnu\\arm\\5.4
 3101              		.file 13 "c:\\program files (x86)\\cypress\\psoc creator\\4.2\\psoc creator\\import\\gnu\\arm\\5.4
 3102              		.file 14 "Generated_Source\\PSoC4/RSTn.h"
 3103              		.file 15 "Generated_Source\\PSoC4/SPI_ss0_m.h"
 3104              		.file 16 "Generated_Source\\PSoC4/SPI_mosi_m.h"
 3105              		.file 17 "Generated_Source\\PSoC4/CyLib.h"
 3106              		.file 18 "c:\\program files (x86)\\cypress\\psoc creator\\4.2\\psoc creator\\import\\gnu\\arm\\5.4
 3107              		.file 19 "Generated_Source\\PSoC4/SPI.h"
 3108              		.section	.debug_info,"",%progbits
 3109              	.Ldebug_info0:
 3110 0000 9F1E0000 		.4byte	0x1e9f
ARM GAS  C:\Users\TERENC~1\AppData\Local\Temp\ccyX5Aoq.s 			page 69


 3111 0004 0400     		.2byte	0x4
 3112 0006 00000000 		.4byte	.Ldebug_abbrev0
 3113 000a 04       		.byte	0x4
 3114 000b 01       		.uleb128 0x1
 3115 000c 6E020000 		.4byte	.LASF147
 3116 0010 0C       		.byte	0xc
 3117 0011 11080000 		.4byte	.LASF148
 3118 0015 FC020000 		.4byte	.LASF149
 3119 0019 00000000 		.4byte	.Ldebug_ranges0+0
 3120 001d 00000000 		.4byte	0
 3121 0021 00000000 		.4byte	.Ldebug_line0
 3122 0025 02       		.uleb128 0x2
 3123 0026 01       		.byte	0x1
 3124 0027 06       		.byte	0x6
 3125 0028 78070000 		.4byte	.LASF0
 3126 002c 03       		.uleb128 0x3
 3127 002d 6A060000 		.4byte	.LASF3
 3128 0031 02       		.byte	0x2
 3129 0032 1D       		.byte	0x1d
 3130 0033 37000000 		.4byte	0x37
 3131 0037 02       		.uleb128 0x2
 3132 0038 01       		.byte	0x1
 3133 0039 08       		.byte	0x8
 3134 003a 19070000 		.4byte	.LASF1
 3135 003e 02       		.uleb128 0x2
 3136 003f 02       		.byte	0x2
 3137 0040 05       		.byte	0x5
 3138 0041 B8050000 		.4byte	.LASF2
 3139 0045 03       		.uleb128 0x3
 3140 0046 32020000 		.4byte	.LASF4
 3141 004a 02       		.byte	0x2
 3142 004b 2B       		.byte	0x2b
 3143 004c 50000000 		.4byte	0x50
 3144 0050 02       		.uleb128 0x2
 3145 0051 02       		.byte	0x2
 3146 0052 07       		.byte	0x7
 3147 0053 84070000 		.4byte	.LASF5
 3148 0057 02       		.uleb128 0x2
 3149 0058 04       		.byte	0x4
 3150 0059 05       		.byte	0x5
 3151 005a D5050000 		.4byte	.LASF6
 3152 005e 03       		.uleb128 0x3
 3153 005f 27070000 		.4byte	.LASF7
 3154 0063 02       		.byte	0x2
 3155 0064 41       		.byte	0x41
 3156 0065 69000000 		.4byte	0x69
 3157 0069 02       		.uleb128 0x2
 3158 006a 04       		.byte	0x4
 3159 006b 07       		.byte	0x7
 3160 006c D4060000 		.4byte	.LASF8
 3161 0070 02       		.uleb128 0x2
 3162 0071 08       		.byte	0x8
 3163 0072 05       		.byte	0x5
 3164 0073 5A040000 		.4byte	.LASF9
 3165 0077 02       		.uleb128 0x2
 3166 0078 08       		.byte	0x8
 3167 0079 07       		.byte	0x7
ARM GAS  C:\Users\TERENC~1\AppData\Local\Temp\ccyX5Aoq.s 			page 70


 3168 007a 0A020000 		.4byte	.LASF10
 3169 007e 04       		.uleb128 0x4
 3170 007f 04       		.byte	0x4
 3171 0080 05       		.byte	0x5
 3172 0081 696E7400 		.ascii	"int\000"
 3173 0085 02       		.uleb128 0x2
 3174 0086 04       		.byte	0x4
 3175 0087 07       		.byte	0x7
 3176 0088 E9000000 		.4byte	.LASF11
 3177 008c 03       		.uleb128 0x3
 3178 008d 11040000 		.4byte	.LASF12
 3179 0091 03       		.byte	0x3
 3180 0092 18       		.byte	0x18
 3181 0093 2C000000 		.4byte	0x2c
 3182 0097 03       		.uleb128 0x3
 3183 0098 6C050000 		.4byte	.LASF13
 3184 009c 03       		.byte	0x3
 3185 009d 24       		.byte	0x24
 3186 009e 45000000 		.4byte	0x45
 3187 00a2 03       		.uleb128 0x3
 3188 00a3 D3010000 		.4byte	.LASF14
 3189 00a7 03       		.byte	0x3
 3190 00a8 30       		.byte	0x30
 3191 00a9 5E000000 		.4byte	0x5e
 3192 00ad 05       		.uleb128 0x5
 3193 00ae 01       		.byte	0x1
 3194 00af 04       		.byte	0x4
 3195 00b0 2F       		.byte	0x2f
 3196 00b1 2E010000 		.4byte	0x12e
 3197 00b5 06       		.uleb128 0x6
 3198 00b6 A1030000 		.4byte	.LASF15
 3199 00ba 04       		.byte	0x4
 3200 00bb 31       		.byte	0x31
 3201 00bc 85000000 		.4byte	0x85
 3202 00c0 04       		.byte	0x4
 3203 00c1 01       		.byte	0x1
 3204 00c2 1F       		.byte	0x1f
 3205 00c3 00       		.byte	0
 3206 00c4 06       		.uleb128 0x6
 3207 00c5 FA040000 		.4byte	.LASF16
 3208 00c9 04       		.byte	0x4
 3209 00ca 32       		.byte	0x32
 3210 00cb 85000000 		.4byte	0x85
 3211 00cf 04       		.byte	0x4
 3212 00d0 01       		.byte	0x1
 3213 00d1 1E       		.byte	0x1e
 3214 00d2 00       		.byte	0
 3215 00d3 06       		.uleb128 0x6
 3216 00d4 EF010000 		.4byte	.LASF17
 3217 00d8 04       		.byte	0x4
 3218 00d9 33       		.byte	0x33
 3219 00da 85000000 		.4byte	0x85
 3220 00de 04       		.byte	0x4
 3221 00df 01       		.byte	0x1
 3222 00e0 1D       		.byte	0x1d
 3223 00e1 00       		.byte	0
 3224 00e2 06       		.uleb128 0x6
ARM GAS  C:\Users\TERENC~1\AppData\Local\Temp\ccyX5Aoq.s 			page 71


 3225 00e3 41070000 		.4byte	.LASF18
 3226 00e7 04       		.byte	0x4
 3227 00e8 34       		.byte	0x34
 3228 00e9 85000000 		.4byte	0x85
 3229 00ed 04       		.byte	0x4
 3230 00ee 01       		.byte	0x1
 3231 00ef 1C       		.byte	0x1c
 3232 00f0 00       		.byte	0
 3233 00f1 06       		.uleb128 0x6
 3234 00f2 CB070000 		.4byte	.LASF19
 3235 00f6 04       		.byte	0x4
 3236 00f7 35       		.byte	0x35
 3237 00f8 85000000 		.4byte	0x85
 3238 00fc 04       		.byte	0x4
 3239 00fd 01       		.byte	0x1
 3240 00fe 1B       		.byte	0x1b
 3241 00ff 00       		.byte	0
 3242 0100 06       		.uleb128 0x6
 3243 0101 F6000000 		.4byte	.LASF20
 3244 0105 04       		.byte	0x4
 3245 0106 36       		.byte	0x36
 3246 0107 85000000 		.4byte	0x85
 3247 010b 04       		.byte	0x4
 3248 010c 01       		.byte	0x1
 3249 010d 1A       		.byte	0x1a
 3250 010e 00       		.byte	0
 3251 010f 06       		.uleb128 0x6
 3252 0110 87030000 		.4byte	.LASF21
 3253 0114 04       		.byte	0x4
 3254 0115 37       		.byte	0x37
 3255 0116 85000000 		.4byte	0x85
 3256 011a 04       		.byte	0x4
 3257 011b 01       		.byte	0x1
 3258 011c 19       		.byte	0x19
 3259 011d 00       		.byte	0
 3260 011e 06       		.uleb128 0x6
 3261 011f 43050000 		.4byte	.LASF22
 3262 0123 04       		.byte	0x4
 3263 0124 38       		.byte	0x38
 3264 0125 85000000 		.4byte	0x85
 3265 0129 04       		.byte	0x4
 3266 012a 01       		.byte	0x1
 3267 012b 18       		.byte	0x18
 3268 012c 00       		.byte	0
 3269 012d 00       		.byte	0
 3270 012e 03       		.uleb128 0x3
 3271 012f E8050000 		.4byte	.LASF23
 3272 0133 04       		.byte	0x4
 3273 0134 39       		.byte	0x39
 3274 0135 AD000000 		.4byte	0xad
 3275 0139 05       		.uleb128 0x5
 3276 013a 02       		.byte	0x2
 3277 013b 04       		.byte	0x4
 3278 013c 3E       		.byte	0x3e
 3279 013d 6F010000 		.4byte	0x16f
 3280 0141 06       		.uleb128 0x6
 3281 0142 68000000 		.4byte	.LASF24
ARM GAS  C:\Users\TERENC~1\AppData\Local\Temp\ccyX5Aoq.s 			page 72


 3282 0146 04       		.byte	0x4
 3283 0147 40       		.byte	0x40
 3284 0148 85000000 		.4byte	0x85
 3285 014c 04       		.byte	0x4
 3286 014d 06       		.byte	0x6
 3287 014e 1A       		.byte	0x1a
 3288 014f 00       		.byte	0
 3289 0150 06       		.uleb128 0x6
 3290 0151 FC030000 		.4byte	.LASF25
 3291 0155 04       		.byte	0x4
 3292 0156 41       		.byte	0x41
 3293 0157 85000000 		.4byte	0x85
 3294 015b 04       		.byte	0x4
 3295 015c 02       		.byte	0x2
 3296 015d 18       		.byte	0x18
 3297 015e 00       		.byte	0
 3298 015f 06       		.uleb128 0x6
 3299 0160 71000000 		.4byte	.LASF26
 3300 0164 04       		.byte	0x4
 3301 0165 43       		.byte	0x43
 3302 0166 85000000 		.4byte	0x85
 3303 016a 04       		.byte	0x4
 3304 016b 08       		.byte	0x8
 3305 016c 10       		.byte	0x10
 3306 016d 00       		.byte	0
 3307 016e 00       		.byte	0
 3308 016f 03       		.uleb128 0x3
 3309 0170 23040000 		.4byte	.LASF27
 3310 0174 04       		.byte	0x4
 3311 0175 44       		.byte	0x44
 3312 0176 39010000 		.4byte	0x139
 3313 017a 05       		.uleb128 0x5
 3314 017b 03       		.byte	0x3
 3315 017c 04       		.byte	0x4
 3316 017d 46       		.byte	0x46
 3317 017e 9B010000 		.4byte	0x19b
 3318 0182 07       		.uleb128 0x7
 3319 0183 68647200 		.ascii	"hdr\000"
 3320 0187 04       		.byte	0x4
 3321 0188 48       		.byte	0x48
 3322 0189 6F010000 		.4byte	0x16f
 3323 018d 00       		.byte	0
 3324 018e 08       		.uleb128 0x8
 3325 018f EC040000 		.4byte	.LASF28
 3326 0193 04       		.byte	0x4
 3327 0194 49       		.byte	0x49
 3328 0195 9B010000 		.4byte	0x19b
 3329 0199 02       		.byte	0x2
 3330 019a 00       		.byte	0
 3331 019b 09       		.uleb128 0x9
 3332 019c 8C000000 		.4byte	0x8c
 3333 01a0 AB010000 		.4byte	0x1ab
 3334 01a4 0A       		.uleb128 0xa
 3335 01a5 AB010000 		.4byte	0x1ab
 3336 01a9 00       		.byte	0
 3337 01aa 00       		.byte	0
 3338 01ab 02       		.uleb128 0x2
ARM GAS  C:\Users\TERENC~1\AppData\Local\Temp\ccyX5Aoq.s 			page 73


 3339 01ac 04       		.byte	0x4
 3340 01ad 07       		.byte	0x7
 3341 01ae CB060000 		.4byte	.LASF29
 3342 01b2 03       		.uleb128 0x3
 3343 01b3 27060000 		.4byte	.LASF30
 3344 01b7 04       		.byte	0x4
 3345 01b8 4A       		.byte	0x4a
 3346 01b9 7A010000 		.4byte	0x17a
 3347 01bd 05       		.uleb128 0x5
 3348 01be 02       		.byte	0x2
 3349 01bf 04       		.byte	0x4
 3350 01c0 4C       		.byte	0x4c
 3351 01c1 E4010000 		.4byte	0x1e4
 3352 01c5 06       		.uleb128 0x6
 3353 01c6 FC030000 		.4byte	.LASF25
 3354 01ca 04       		.byte	0x4
 3355 01cb 4F       		.byte	0x4f
 3356 01cc 85000000 		.4byte	0x85
 3357 01d0 04       		.byte	0x4
 3358 01d1 04       		.byte	0x4
 3359 01d2 18       		.byte	0x18
 3360 01d3 00       		.byte	0
 3361 01d4 06       		.uleb128 0x6
 3362 01d5 80050000 		.4byte	.LASF31
 3363 01d9 04       		.byte	0x4
 3364 01da 51       		.byte	0x51
 3365 01db 85000000 		.4byte	0x85
 3366 01df 04       		.byte	0x4
 3367 01e0 08       		.byte	0x8
 3368 01e1 10       		.byte	0x10
 3369 01e2 00       		.byte	0
 3370 01e3 00       		.byte	0
 3371 01e4 03       		.uleb128 0x3
 3372 01e5 0A060000 		.4byte	.LASF32
 3373 01e9 04       		.byte	0x4
 3374 01ea 52       		.byte	0x52
 3375 01eb BD010000 		.4byte	0x1bd
 3376 01ef 05       		.uleb128 0x5
 3377 01f0 03       		.byte	0x3
 3378 01f1 04       		.byte	0x4
 3379 01f2 62       		.byte	0x62
 3380 01f3 31020000 		.4byte	0x231
 3381 01f7 06       		.uleb128 0x6
 3382 01f8 63060000 		.4byte	.LASF33
 3383 01fc 04       		.byte	0x4
 3384 01fd 64       		.byte	0x64
 3385 01fe 85000000 		.4byte	0x85
 3386 0202 04       		.byte	0x4
 3387 0203 04       		.byte	0x4
 3388 0204 1C       		.byte	0x1c
 3389 0205 00       		.byte	0
 3390 0206 06       		.uleb128 0x6
 3391 0207 FC030000 		.4byte	.LASF25
 3392 020b 04       		.byte	0x4
 3393 020c 65       		.byte	0x65
 3394 020d 85000000 		.4byte	0x85
 3395 0211 04       		.byte	0x4
ARM GAS  C:\Users\TERENC~1\AppData\Local\Temp\ccyX5Aoq.s 			page 74


 3396 0212 04       		.byte	0x4
 3397 0213 18       		.byte	0x18
 3398 0214 00       		.byte	0
 3399 0215 06       		.uleb128 0x6
 3400 0216 00000000 		.4byte	.LASF34
 3401 021a 04       		.byte	0x4
 3402 021b 67       		.byte	0x67
 3403 021c 85000000 		.4byte	0x85
 3404 0220 04       		.byte	0x4
 3405 0221 08       		.byte	0x8
 3406 0222 10       		.byte	0x10
 3407 0223 00       		.byte	0
 3408 0224 08       		.uleb128 0x8
 3409 0225 EC040000 		.4byte	.LASF28
 3410 0229 04       		.byte	0x4
 3411 022a 69       		.byte	0x69
 3412 022b 9B010000 		.4byte	0x19b
 3413 022f 02       		.byte	0x2
 3414 0230 00       		.byte	0
 3415 0231 03       		.uleb128 0x3
 3416 0232 B2040000 		.4byte	.LASF35
 3417 0236 04       		.byte	0x4
 3418 0237 6A       		.byte	0x6a
 3419 0238 EF010000 		.4byte	0x1ef
 3420 023c 05       		.uleb128 0x5
 3421 023d 02       		.byte	0x2
 3422 023e 04       		.byte	0x4
 3423 023f 6C       		.byte	0x6c
 3424 0240 72020000 		.4byte	0x272
 3425 0244 06       		.uleb128 0x6
 3426 0245 CD050000 		.4byte	.LASF36
 3427 0249 04       		.byte	0x4
 3428 024a 6E       		.byte	0x6e
 3429 024b 85000000 		.4byte	0x85
 3430 024f 04       		.byte	0x4
 3431 0250 07       		.byte	0x7
 3432 0251 19       		.byte	0x19
 3433 0252 00       		.byte	0
 3434 0253 06       		.uleb128 0x6
 3435 0254 FC030000 		.4byte	.LASF25
 3436 0258 04       		.byte	0x4
 3437 0259 6F       		.byte	0x6f
 3438 025a 85000000 		.4byte	0x85
 3439 025e 04       		.byte	0x4
 3440 025f 01       		.byte	0x1
 3441 0260 18       		.byte	0x18
 3442 0261 00       		.byte	0
 3443 0262 06       		.uleb128 0x6
 3444 0263 C3070000 		.4byte	.LASF37
 3445 0267 04       		.byte	0x4
 3446 0268 71       		.byte	0x71
 3447 0269 85000000 		.4byte	0x85
 3448 026d 04       		.byte	0x4
 3449 026e 08       		.byte	0x8
 3450 026f 10       		.byte	0x10
 3451 0270 00       		.byte	0
 3452 0271 00       		.byte	0
ARM GAS  C:\Users\TERENC~1\AppData\Local\Temp\ccyX5Aoq.s 			page 75


 3453 0272 03       		.uleb128 0x3
 3454 0273 9E070000 		.4byte	.LASF38
 3455 0277 04       		.byte	0x4
 3456 0278 72       		.byte	0x72
 3457 0279 3C020000 		.4byte	0x23c
 3458 027d 05       		.uleb128 0x5
 3459 027e 0A       		.byte	0xa
 3460 027f 04       		.byte	0x4
 3461 0280 81       		.byte	0x81
 3462 0281 B6020000 		.4byte	0x2b6
 3463 0285 08       		.uleb128 0x8
 3464 0286 61010000 		.4byte	.LASF39
 3465 028a 04       		.byte	0x4
 3466 028b 83       		.byte	0x83
 3467 028c 97000000 		.4byte	0x97
 3468 0290 00       		.byte	0
 3469 0291 08       		.uleb128 0x8
 3470 0292 6D070000 		.4byte	.LASF40
 3471 0296 04       		.byte	0x4
 3472 0297 84       		.byte	0x84
 3473 0298 97000000 		.4byte	0x97
 3474 029c 02       		.byte	0x2
 3475 029d 08       		.uleb128 0x8
 3476 029e 57060000 		.4byte	.LASF41
 3477 02a2 04       		.byte	0x4
 3478 02a3 85       		.byte	0x85
 3479 02a4 97000000 		.4byte	0x97
 3480 02a8 04       		.byte	0x4
 3481 02a9 07       		.uleb128 0x7
 3482 02aa 6B657900 		.ascii	"key\000"
 3483 02ae 04       		.byte	0x4
 3484 02af 86       		.byte	0x86
 3485 02b0 A2000000 		.4byte	0xa2
 3486 02b4 06       		.byte	0x6
 3487 02b5 00       		.byte	0
 3488 02b6 03       		.uleb128 0x3
 3489 02b7 3E040000 		.4byte	.LASF42
 3490 02bb 04       		.byte	0x4
 3491 02bc 87       		.byte	0x87
 3492 02bd 7D020000 		.4byte	0x27d
 3493 02c1 05       		.uleb128 0x5
 3494 02c2 08       		.byte	0x8
 3495 02c3 04       		.byte	0x4
 3496 02c4 89       		.byte	0x89
 3497 02c5 E2020000 		.4byte	0x2e2
 3498 02c9 08       		.uleb128 0x8
 3499 02ca A2040000 		.4byte	.LASF43
 3500 02ce 04       		.byte	0x4
 3501 02cf 8B       		.byte	0x8b
 3502 02d0 A2000000 		.4byte	0xa2
 3503 02d4 00       		.byte	0
 3504 02d5 08       		.uleb128 0x8
 3505 02d6 A8030000 		.4byte	.LASF44
 3506 02da 04       		.byte	0x4
 3507 02db 8C       		.byte	0x8c
 3508 02dc A2000000 		.4byte	0xa2
 3509 02e0 04       		.byte	0x4
ARM GAS  C:\Users\TERENC~1\AppData\Local\Temp\ccyX5Aoq.s 			page 76


 3510 02e1 00       		.byte	0
 3511 02e2 03       		.uleb128 0x3
 3512 02e3 AC000000 		.4byte	.LASF45
 3513 02e7 04       		.byte	0x4
 3514 02e8 8D       		.byte	0x8d
 3515 02e9 C1020000 		.4byte	0x2c1
 3516 02ed 05       		.uleb128 0x5
 3517 02ee 18       		.byte	0x18
 3518 02ef 04       		.byte	0x4
 3519 02f0 92       		.byte	0x92
 3520 02f1 B9030000 		.4byte	0x3b9
 3521 02f5 06       		.uleb128 0x6
 3522 02f6 DE050000 		.4byte	.LASF46
 3523 02fa 04       		.byte	0x4
 3524 02fb 94       		.byte	0x94
 3525 02fc 85000000 		.4byte	0x85
 3526 0300 04       		.byte	0x4
 3527 0301 10       		.byte	0x10
 3528 0302 10       		.byte	0x10
 3529 0303 00       		.byte	0
 3530 0304 06       		.uleb128 0x6
 3531 0305 99000000 		.4byte	.LASF47
 3532 0309 04       		.byte	0x4
 3533 030a 96       		.byte	0x96
 3534 030b 85000000 		.4byte	0x85
 3535 030f 04       		.byte	0x4
 3536 0310 04       		.byte	0x4
 3537 0311 0C       		.byte	0xc
 3538 0312 00       		.byte	0
 3539 0313 06       		.uleb128 0x6
 3540 0314 89050000 		.4byte	.LASF48
 3541 0318 04       		.byte	0x4
 3542 0319 97       		.byte	0x97
 3543 031a 85000000 		.4byte	0x85
 3544 031e 04       		.byte	0x4
 3545 031f 04       		.byte	0x4
 3546 0320 08       		.byte	0x8
 3547 0321 00       		.byte	0
 3548 0322 06       		.uleb128 0x6
 3549 0323 0F000000 		.4byte	.LASF49
 3550 0327 04       		.byte	0x4
 3551 0328 9B       		.byte	0x9b
 3552 0329 85000000 		.4byte	0x85
 3553 032d 04       		.byte	0x4
 3554 032e 10       		.byte	0x10
 3555 032f 10       		.byte	0x10
 3556 0330 04       		.byte	0x4
 3557 0331 06       		.uleb128 0x6
 3558 0332 F0030000 		.4byte	.LASF50
 3559 0336 04       		.byte	0x4
 3560 0337 9C       		.byte	0x9c
 3561 0338 85000000 		.4byte	0x85
 3562 033c 04       		.byte	0x4
 3563 033d 08       		.byte	0x8
 3564 033e 08       		.byte	0x8
 3565 033f 04       		.byte	0x4
 3566 0340 06       		.uleb128 0x6
ARM GAS  C:\Users\TERENC~1\AppData\Local\Temp\ccyX5Aoq.s 			page 77


 3567 0341 B7070000 		.4byte	.LASF51
 3568 0345 04       		.byte	0x4
 3569 0346 9D       		.byte	0x9d
 3570 0347 85000000 		.4byte	0x85
 3571 034b 04       		.byte	0x4
 3572 034c 08       		.byte	0x8
 3573 034d 00       		.byte	0
 3574 034e 04       		.byte	0x4
 3575 034f 06       		.uleb128 0x6
 3576 0350 50050000 		.4byte	.LASF52
 3577 0354 04       		.byte	0x4
 3578 0355 9F       		.byte	0x9f
 3579 0356 85000000 		.4byte	0x85
 3580 035a 04       		.byte	0x4
 3581 035b 10       		.byte	0x10
 3582 035c 10       		.byte	0x10
 3583 035d 08       		.byte	0x8
 3584 035e 06       		.uleb128 0x6
 3585 035f 02070000 		.4byte	.LASF53
 3586 0363 04       		.byte	0x4
 3587 0364 A0       		.byte	0xa0
 3588 0365 85000000 		.4byte	0x85
 3589 0369 04       		.byte	0x4
 3590 036a 04       		.byte	0x4
 3591 036b 0C       		.byte	0xc
 3592 036c 08       		.byte	0x8
 3593 036d 06       		.uleb128 0x6
 3594 036e BA030000 		.4byte	.LASF54
 3595 0372 04       		.byte	0x4
 3596 0373 A1       		.byte	0xa1
 3597 0374 85000000 		.4byte	0x85
 3598 0378 04       		.byte	0x4
 3599 0379 04       		.byte	0x4
 3600 037a 08       		.byte	0x8
 3601 037b 08       		.byte	0x8
 3602 037c 06       		.uleb128 0x6
 3603 037d 94030000 		.4byte	.LASF55
 3604 0381 04       		.byte	0x4
 3605 0382 A2       		.byte	0xa2
 3606 0383 85000000 		.4byte	0x85
 3607 0387 04       		.byte	0x4
 3608 0388 08       		.byte	0x8
 3609 0389 00       		.byte	0
 3610 038a 08       		.byte	0x8
 3611 038b 06       		.uleb128 0x6
 3612 038c 8B000000 		.4byte	.LASF56
 3613 0390 04       		.byte	0x4
 3614 0391 A6       		.byte	0xa6
 3615 0392 85000000 		.4byte	0x85
 3616 0396 04       		.byte	0x4
 3617 0397 20       		.byte	0x20
 3618 0398 00       		.byte	0
 3619 0399 10       		.byte	0x10
 3620 039a 06       		.uleb128 0x6
 3621 039b 19040000 		.4byte	.LASF57
 3622 039f 04       		.byte	0x4
 3623 03a0 A8       		.byte	0xa8
ARM GAS  C:\Users\TERENC~1\AppData\Local\Temp\ccyX5Aoq.s 			page 78


 3624 03a1 85000000 		.4byte	0x85
 3625 03a5 04       		.byte	0x4
 3626 03a6 10       		.byte	0x10
 3627 03a7 10       		.byte	0x10
 3628 03a8 14       		.byte	0x14
 3629 03a9 06       		.uleb128 0x6
 3630 03aa 3C030000 		.4byte	.LASF58
 3631 03ae 04       		.byte	0x4
 3632 03af A9       		.byte	0xa9
 3633 03b0 85000000 		.4byte	0x85
 3634 03b4 04       		.byte	0x4
 3635 03b5 10       		.byte	0x10
 3636 03b6 00       		.byte	0
 3637 03b7 14       		.byte	0x14
 3638 03b8 00       		.byte	0
 3639 03b9 03       		.uleb128 0x3
 3640 03ba 4A000000 		.4byte	.LASF59
 3641 03be 04       		.byte	0x4
 3642 03bf AA       		.byte	0xaa
 3643 03c0 ED020000 		.4byte	0x2ed
 3644 03c4 05       		.uleb128 0x5
 3645 03c5 0C       		.byte	0xc
 3646 03c6 04       		.byte	0x4
 3647 03c7 AC       		.byte	0xac
 3648 03c8 F1030000 		.4byte	0x3f1
 3649 03cc 08       		.uleb128 0x8
 3650 03cd A7010000 		.4byte	.LASF60
 3651 03d1 04       		.byte	0x4
 3652 03d2 AE       		.byte	0xae
 3653 03d3 A2000000 		.4byte	0xa2
 3654 03d7 00       		.byte	0
 3655 03d8 08       		.uleb128 0x8
 3656 03d9 9F010000 		.4byte	.LASF61
 3657 03dd 04       		.byte	0x4
 3658 03de AF       		.byte	0xaf
 3659 03df A2000000 		.4byte	0xa2
 3660 03e3 04       		.byte	0x4
 3661 03e4 08       		.uleb128 0x8
 3662 03e5 22050000 		.4byte	.LASF62
 3663 03e9 04       		.byte	0x4
 3664 03ea B0       		.byte	0xb0
 3665 03eb A2000000 		.4byte	0xa2
 3666 03ef 08       		.byte	0x8
 3667 03f0 00       		.byte	0
 3668 03f1 03       		.uleb128 0x3
 3669 03f2 02050000 		.4byte	.LASF63
 3670 03f6 04       		.byte	0x4
 3671 03f7 B1       		.byte	0xb1
 3672 03f8 C4030000 		.4byte	0x3c4
 3673 03fc 05       		.uleb128 0x5
 3674 03fd 02       		.byte	0x2
 3675 03fe 04       		.byte	0x4
 3676 03ff B6       		.byte	0xb6
 3677 0400 2F040000 		.4byte	0x42f
 3678 0404 06       		.uleb128 0x6
 3679 0405 18000000 		.4byte	.LASF64
 3680 0409 04       		.byte	0x4
ARM GAS  C:\Users\TERENC~1\AppData\Local\Temp\ccyX5Aoq.s 			page 79


 3681 040a B8       		.byte	0xb8
 3682 040b 85000000 		.4byte	0x85
 3683 040f 04       		.byte	0x4
 3684 0410 01       		.byte	0x1
 3685 0411 1F       		.byte	0x1f
 3686 0412 00       		.byte	0
 3687 0413 06       		.uleb128 0x6
 3688 0414 D5070000 		.4byte	.LASF65
 3689 0418 04       		.byte	0x4
 3690 0419 B9       		.byte	0xb9
 3691 041a 85000000 		.4byte	0x85
 3692 041e 04       		.byte	0x4
 3693 041f 07       		.byte	0x7
 3694 0420 18       		.byte	0x18
 3695 0421 00       		.byte	0
 3696 0422 07       		.uleb128 0x7
 3697 0423 65767400 		.ascii	"evt\000"
 3698 0427 04       		.byte	0x4
 3699 0428 BB       		.byte	0xbb
 3700 0429 2E010000 		.4byte	0x12e
 3701 042d 01       		.byte	0x1
 3702 042e 00       		.byte	0
 3703 042f 03       		.uleb128 0x3
 3704 0430 6A010000 		.4byte	.LASF66
 3705 0434 04       		.byte	0x4
 3706 0435 BC       		.byte	0xbc
 3707 0436 FC030000 		.4byte	0x3fc
 3708 043a 05       		.uleb128 0x5
 3709 043b 01       		.byte	0x1
 3710 043c 04       		.byte	0x4
 3711 043d BE       		.byte	0xbe
 3712 043e 4F040000 		.4byte	0x44f
 3713 0442 07       		.uleb128 0x7
 3714 0443 65767400 		.ascii	"evt\000"
 3715 0447 04       		.byte	0x4
 3716 0448 C0       		.byte	0xc0
 3717 0449 2E010000 		.4byte	0x12e
 3718 044d 00       		.byte	0
 3719 044e 00       		.byte	0
 3720 044f 03       		.uleb128 0x3
 3721 0450 D2030000 		.4byte	.LASF67
 3722 0454 04       		.byte	0x4
 3723 0455 C1       		.byte	0xc1
 3724 0456 3A040000 		.4byte	0x43a
 3725 045a 0B       		.uleb128 0xb
 3726 045b 50060000 		.4byte	.LASF68
 3727 045f 05       		.byte	0x5
 3728 0460 E601     		.2byte	0x1e6
 3729 0462 69000000 		.4byte	0x69
 3730 0466 02       		.uleb128 0x2
 3731 0467 04       		.byte	0x4
 3732 0468 04       		.byte	0x4
 3733 0469 DC010000 		.4byte	.LASF69
 3734 046d 02       		.uleb128 0x2
 3735 046e 08       		.byte	0x8
 3736 046f 04       		.byte	0x4
 3737 0470 B0070000 		.4byte	.LASF70
ARM GAS  C:\Users\TERENC~1\AppData\Local\Temp\ccyX5Aoq.s 			page 80


 3738 0474 02       		.uleb128 0x2
 3739 0475 01       		.byte	0x1
 3740 0476 08       		.byte	0x8
 3741 0477 CD030000 		.4byte	.LASF71
 3742 047b 0B       		.uleb128 0xb
 3743 047c 75050000 		.4byte	.LASF72
 3744 0480 05       		.byte	0x5
 3745 0481 9002     		.2byte	0x290
 3746 0483 87040000 		.4byte	0x487
 3747 0487 0C       		.uleb128 0xc
 3748 0488 5A040000 		.4byte	0x45a
 3749 048c 02       		.uleb128 0x2
 3750 048d 08       		.byte	0x8
 3751 048e 04       		.byte	0x4
 3752 048f 58050000 		.4byte	.LASF73
 3753 0493 0D       		.uleb128 0xd
 3754 0494 74040000 		.4byte	0x474
 3755 0498 0E       		.uleb128 0xe
 3756 0499 DC040000 		.4byte	.LASF74
 3757 049d 01       		.byte	0x1
 3758 049e 69       		.byte	0x69
 3759 049f 8C000000 		.4byte	0x8c
 3760 04a3 00000000 		.4byte	.LFB4
 3761 04a7 0A000000 		.4byte	.LFE4-.LFB4
 3762 04ab 01       		.uleb128 0x1
 3763 04ac 9C       		.byte	0x9c
 3764 04ad BB040000 		.4byte	0x4bb
 3765 04b1 0F       		.uleb128 0xf
 3766 04b2 06000000 		.4byte	.LVL0
 3767 04b6 A21D0000 		.4byte	0x1da2
 3768 04ba 00       		.byte	0
 3769 04bb 0E       		.uleb128 0xe
 3770 04bc 23030000 		.4byte	.LASF75
 3771 04c0 01       		.byte	0x1
 3772 04c1 6E       		.byte	0x6e
 3773 04c2 0F060000 		.4byte	0x60f
 3774 04c6 00000000 		.4byte	.LFB5
 3775 04ca 0C010000 		.4byte	.LFE5-.LFB5
 3776 04ce 01       		.uleb128 0x1
 3777 04cf 9C       		.byte	0x9c
 3778 04d0 0F060000 		.4byte	0x60f
 3779 04d4 10       		.uleb128 0x10
 3780 04d5 C5030000 		.4byte	.LASF76
 3781 04d9 01       		.byte	0x1
 3782 04da 6E       		.byte	0x6e
 3783 04db 16060000 		.4byte	0x616
 3784 04df 00000000 		.4byte	.LLST0
 3785 04e3 10       		.uleb128 0x10
 3786 04e4 AC040000 		.4byte	.LASF77
 3787 04e8 01       		.byte	0x1
 3788 04e9 6E       		.byte	0x6e
 3789 04ea A2000000 		.4byte	0xa2
 3790 04ee 1F000000 		.4byte	.LLST1
 3791 04f2 10       		.uleb128 0x10
 3792 04f3 89040000 		.4byte	.LASF78
 3793 04f7 01       		.byte	0x1
 3794 04f8 6E       		.byte	0x6e
ARM GAS  C:\Users\TERENC~1\AppData\Local\Temp\ccyX5Aoq.s 			page 81


 3795 04f9 1C060000 		.4byte	0x61c
 3796 04fd 4B000000 		.4byte	.LLST2
 3797 0501 10       		.uleb128 0x10
 3798 0502 3D010000 		.4byte	.LASF79
 3799 0506 01       		.byte	0x1
 3800 0507 6E       		.byte	0x6e
 3801 0508 16060000 		.4byte	0x616
 3802 050c A9000000 		.4byte	.LLST3
 3803 0510 10       		.uleb128 0x10
 3804 0511 E2010000 		.4byte	.LASF80
 3805 0515 01       		.byte	0x1
 3806 0516 6E       		.byte	0x6e
 3807 0517 97000000 		.4byte	0x97
 3808 051b 01010000 		.4byte	.LLST4
 3809 051f 10       		.uleb128 0x10
 3810 0520 3A070000 		.4byte	.LASF81
 3811 0524 01       		.byte	0x1
 3812 0525 6E       		.byte	0x6e
 3813 0526 1C060000 		.4byte	0x61c
 3814 052a 44010000 		.4byte	.LLST5
 3815 052e 11       		.uleb128 0x11
 3816 052f 86060000 		.4byte	.LASF82
 3817 0533 01       		.byte	0x1
 3818 0534 70       		.byte	0x70
 3819 0535 A2000000 		.4byte	0xa2
 3820 0539 70010000 		.4byte	.LLST6
 3821 053d 12       		.uleb128 0x12
 3822 053e 6900     		.ascii	"i\000"
 3823 0540 01       		.byte	0x1
 3824 0541 71       		.byte	0x71
 3825 0542 A2000000 		.4byte	0xa2
 3826 0546 99010000 		.4byte	.LLST7
 3827 054a 13       		.uleb128 0x13
 3828 054b 40000000 		.4byte	.LBB2
 3829 054f 2A000000 		.4byte	.LBE2-.LBB2
 3830 0553 A2050000 		.4byte	0x5a2
 3831 0557 12       		.uleb128 0x12
 3832 0558 733100   		.ascii	"s1\000"
 3833 055b 01       		.byte	0x1
 3834 055c 78       		.byte	0x78
 3835 055d A2000000 		.4byte	0xa2
 3836 0561 B7010000 		.4byte	.LLST8
 3837 0565 0F       		.uleb128 0xf
 3838 0566 48000000 		.4byte	.LVL9
 3839 056a AE1D0000 		.4byte	0x1dae
 3840 056e 14       		.uleb128 0x14
 3841 056f 64000000 		.4byte	.LVL11
 3842 0573 B91D0000 		.4byte	0x1db9
 3843 0577 91050000 		.4byte	0x591
 3844 057b 15       		.uleb128 0x15
 3845 057c 01       		.uleb128 0x1
 3846 057d 50       		.byte	0x50
 3847 057e 02       		.uleb128 0x2
 3848 057f 74       		.byte	0x74
 3849 0580 00       		.sleb128 0
 3850 0581 15       		.uleb128 0x15
 3851 0582 01       		.uleb128 0x1
ARM GAS  C:\Users\TERENC~1\AppData\Local\Temp\ccyX5Aoq.s 			page 82


 3852 0583 51       		.byte	0x51
 3853 0584 05       		.uleb128 0x5
 3854 0585 03       		.byte	0x3
 3855 0586 00000000 		.4byte	.LC2
 3856 058a 15       		.uleb128 0x15
 3857 058b 01       		.uleb128 0x1
 3858 058c 52       		.byte	0x52
 3859 058d 02       		.uleb128 0x2
 3860 058e 08       		.byte	0x8
 3861 058f 41       		.byte	0x41
 3862 0590 00       		.byte	0
 3863 0591 16       		.uleb128 0x16
 3864 0592 6A000000 		.4byte	.LVL12
 3865 0596 C21D0000 		.4byte	0x1dc2
 3866 059a 15       		.uleb128 0x15
 3867 059b 01       		.uleb128 0x1
 3868 059c 50       		.byte	0x50
 3869 059d 02       		.uleb128 0x2
 3870 059e 74       		.byte	0x74
 3871 059f 00       		.sleb128 0
 3872 05a0 00       		.byte	0
 3873 05a1 00       		.byte	0
 3874 05a2 0F       		.uleb128 0xf
 3875 05a3 1C000000 		.4byte	.LVL5
 3876 05a7 CD1D0000 		.4byte	0x1dcd
 3877 05ab 0F       		.uleb128 0xf
 3878 05ac 3C000000 		.4byte	.LVL7
 3879 05b0 D81D0000 		.4byte	0x1dd8
 3880 05b4 14       		.uleb128 0x14
 3881 05b5 76000000 		.4byte	.LVL13
 3882 05b9 E41D0000 		.4byte	0x1de4
 3883 05bd CF050000 		.4byte	0x5cf
 3884 05c1 15       		.uleb128 0x15
 3885 05c2 01       		.uleb128 0x1
 3886 05c3 50       		.byte	0x50
 3887 05c4 03       		.uleb128 0x3
 3888 05c5 91       		.byte	0x91
 3889 05c6 64       		.sleb128 -28
 3890 05c7 06       		.byte	0x6
 3891 05c8 15       		.uleb128 0x15
 3892 05c9 01       		.uleb128 0x1
 3893 05ca 51       		.byte	0x51
 3894 05cb 02       		.uleb128 0x2
 3895 05cc 76       		.byte	0x76
 3896 05cd 00       		.sleb128 0
 3897 05ce 00       		.byte	0
 3898 05cf 0F       		.uleb128 0xf
 3899 05d0 7E000000 		.4byte	.LVL15
 3900 05d4 F01D0000 		.4byte	0x1df0
 3901 05d8 0F       		.uleb128 0xf
 3902 05d9 96000000 		.4byte	.LVL16
 3903 05dd 98040000 		.4byte	0x498
 3904 05e1 0F       		.uleb128 0xf
 3905 05e2 9E000000 		.4byte	.LVL17
 3906 05e6 98040000 		.4byte	0x498
 3907 05ea 0F       		.uleb128 0xf
 3908 05eb AE000000 		.4byte	.LVL18
ARM GAS  C:\Users\TERENC~1\AppData\Local\Temp\ccyX5Aoq.s 			page 83


 3909 05ef 98040000 		.4byte	0x498
 3910 05f3 0F       		.uleb128 0xf
 3911 05f4 B8000000 		.4byte	.LVL19
 3912 05f8 98040000 		.4byte	0x498
 3913 05fc 0F       		.uleb128 0xf
 3914 05fd DE000000 		.4byte	.LVL23
 3915 0601 98040000 		.4byte	0x498
 3916 0605 0F       		.uleb128 0xf
 3917 0606 EE000000 		.4byte	.LVL28
 3918 060a FC1D0000 		.4byte	0x1dfc
 3919 060e 00       		.byte	0
 3920 060f 02       		.uleb128 0x2
 3921 0610 01       		.byte	0x1
 3922 0611 02       		.byte	0x2
 3923 0612 6F030000 		.4byte	.LASF83
 3924 0616 17       		.uleb128 0x17
 3925 0617 04       		.byte	0x4
 3926 0618 8C000000 		.4byte	0x8c
 3927 061c 17       		.uleb128 0x17
 3928 061d 04       		.byte	0x4
 3929 061e 97000000 		.4byte	0x97
 3930 0622 0E       		.uleb128 0xe
 3931 0623 CD040000 		.4byte	.LASF84
 3932 0627 01       		.byte	0x1
 3933 0628 A4       		.byte	0xa4
 3934 0629 0F060000 		.4byte	0x60f
 3935 062d 00000000 		.4byte	.LFB6
 3936 0631 60000000 		.4byte	.LFE6-.LFB6
 3937 0635 01       		.uleb128 0x1
 3938 0636 9C       		.byte	0x9c
 3939 0637 0D070000 		.4byte	0x70d
 3940 063b 10       		.uleb128 0x10
 3941 063c 96060000 		.4byte	.LASF85
 3942 0640 01       		.byte	0x1
 3943 0641 A4       		.byte	0xa4
 3944 0642 8C000000 		.4byte	0x8c
 3945 0646 CA010000 		.4byte	.LLST9
 3946 064a 10       		.uleb128 0x10
 3947 064b 58010000 		.4byte	.LASF86
 3948 064f 01       		.byte	0x1
 3949 0650 A4       		.byte	0xa4
 3950 0651 8C000000 		.4byte	0x8c
 3951 0655 EB010000 		.4byte	.LLST10
 3952 0659 10       		.uleb128 0x10
 3953 065a 56030000 		.4byte	.LASF87
 3954 065e 01       		.byte	0x1
 3955 065f A4       		.byte	0xa4
 3956 0660 16060000 		.4byte	0x616
 3957 0664 0C020000 		.4byte	.LLST11
 3958 0668 10       		.uleb128 0x10
 3959 0669 89040000 		.4byte	.LASF78
 3960 066d 01       		.byte	0x1
 3961 066e A4       		.byte	0xa4
 3962 066f 1C060000 		.4byte	0x61c
 3963 0673 2B020000 		.4byte	.LLST12
 3964 0677 12       		.uleb128 0x12
 3965 0678 72657400 		.ascii	"ret\000"
ARM GAS  C:\Users\TERENC~1\AppData\Local\Temp\ccyX5Aoq.s 			page 84


 3966 067c 01       		.byte	0x1
 3967 067d A6       		.byte	0xa6
 3968 067e 0F060000 		.4byte	0x60f
 3969 0682 4A020000 		.4byte	.LLST13
 3970 0686 11       		.uleb128 0x11
 3971 0687 45010000 		.4byte	.LASF88
 3972 068b 01       		.byte	0x1
 3973 068c A8       		.byte	0xa8
 3974 068d 0D070000 		.4byte	0x70d
 3975 0691 69020000 		.4byte	.LLST14
 3976 0695 14       		.uleb128 0x14
 3977 0696 14000000 		.4byte	.LVL36
 3978 069a 081E0000 		.4byte	0x1e08
 3979 069e A9060000 		.4byte	0x6a9
 3980 06a2 15       		.uleb128 0x15
 3981 06a3 01       		.uleb128 0x1
 3982 06a4 50       		.byte	0x50
 3983 06a5 02       		.uleb128 0x2
 3984 06a6 74       		.byte	0x74
 3985 06a7 00       		.sleb128 0
 3986 06a8 00       		.byte	0
 3987 06a9 14       		.uleb128 0x14
 3988 06aa 3A000000 		.4byte	.LVL39
 3989 06ae B91D0000 		.4byte	0x1db9
 3990 06b2 CA060000 		.4byte	0x6ca
 3991 06b6 15       		.uleb128 0x15
 3992 06b7 01       		.uleb128 0x1
 3993 06b8 50       		.byte	0x50
 3994 06b9 02       		.uleb128 0x2
 3995 06ba 77       		.byte	0x77
 3996 06bb 02       		.sleb128 2
 3997 06bc 15       		.uleb128 0x15
 3998 06bd 01       		.uleb128 0x1
 3999 06be 51       		.byte	0x51
 4000 06bf 03       		.uleb128 0x3
 4001 06c0 91       		.byte	0x91
 4002 06c1 60       		.sleb128 -32
 4003 06c2 06       		.byte	0x6
 4004 06c3 15       		.uleb128 0x15
 4005 06c4 01       		.uleb128 0x1
 4006 06c5 52       		.byte	0x52
 4007 06c6 02       		.uleb128 0x2
 4008 06c7 75       		.byte	0x75
 4009 06c8 00       		.sleb128 0
 4010 06c9 00       		.byte	0
 4011 06ca 14       		.uleb128 0x14
 4012 06cb 4A000000 		.4byte	.LVL40
 4013 06cf BB040000 		.4byte	0x4bb
 4014 06d3 FC060000 		.4byte	0x6fc
 4015 06d7 15       		.uleb128 0x15
 4016 06d8 01       		.uleb128 0x1
 4017 06d9 50       		.byte	0x50
 4018 06da 02       		.uleb128 0x2
 4019 06db 77       		.byte	0x77
 4020 06dc 00       		.sleb128 0
 4021 06dd 15       		.uleb128 0x15
 4022 06de 01       		.uleb128 0x1
ARM GAS  C:\Users\TERENC~1\AppData\Local\Temp\ccyX5Aoq.s 			page 85


 4023 06df 51       		.byte	0x51
 4024 06e0 02       		.uleb128 0x2
 4025 06e1 74       		.byte	0x74
 4026 06e2 00       		.sleb128 0
 4027 06e3 15       		.uleb128 0x15
 4028 06e4 01       		.uleb128 0x1
 4029 06e5 52       		.byte	0x52
 4030 06e6 03       		.uleb128 0x3
 4031 06e7 91       		.byte	0x91
 4032 06e8 64       		.sleb128 -28
 4033 06e9 06       		.byte	0x6
 4034 06ea 15       		.uleb128 0x15
 4035 06eb 01       		.uleb128 0x1
 4036 06ec 53       		.byte	0x53
 4037 06ed 01       		.uleb128 0x1
 4038 06ee 30       		.byte	0x30
 4039 06ef 15       		.uleb128 0x15
 4040 06f0 02       		.uleb128 0x2
 4041 06f1 7D       		.byte	0x7d
 4042 06f2 00       		.sleb128 0
 4043 06f3 01       		.uleb128 0x1
 4044 06f4 30       		.byte	0x30
 4045 06f5 15       		.uleb128 0x15
 4046 06f6 02       		.uleb128 0x2
 4047 06f7 7D       		.byte	0x7d
 4048 06f8 04       		.sleb128 4
 4049 06f9 01       		.uleb128 0x1
 4050 06fa 30       		.byte	0x30
 4051 06fb 00       		.byte	0
 4052 06fc 16       		.uleb128 0x16
 4053 06fd 52000000 		.4byte	.LVL42
 4054 0701 131E0000 		.4byte	0x1e13
 4055 0705 15       		.uleb128 0x15
 4056 0706 01       		.uleb128 0x1
 4057 0707 50       		.byte	0x50
 4058 0708 02       		.uleb128 0x2
 4059 0709 77       		.byte	0x77
 4060 070a 00       		.sleb128 0
 4061 070b 00       		.byte	0
 4062 070c 00       		.byte	0
 4063 070d 17       		.uleb128 0x17
 4064 070e 04       		.byte	0x4
 4065 070f B2010000 		.4byte	0x1b2
 4066 0713 0E       		.uleb128 0xe
 4067 0714 D9000000 		.4byte	.LASF89
 4068 0718 01       		.byte	0x1
 4069 0719 DC       		.byte	0xdc
 4070 071a 0F060000 		.4byte	0x60f
 4071 071e 00000000 		.4byte	.LFB9
 4072 0722 3E000000 		.4byte	.LFE9-.LFB9
 4073 0726 01       		.uleb128 0x1
 4074 0727 9C       		.byte	0x9c
 4075 0728 BC070000 		.4byte	0x7bc
 4076 072c 10       		.uleb128 0x10
 4077 072d 49070000 		.4byte	.LASF90
 4078 0731 01       		.byte	0x1
 4079 0732 DC       		.byte	0xdc
ARM GAS  C:\Users\TERENC~1\AppData\Local\Temp\ccyX5Aoq.s 			page 86


 4080 0733 97000000 		.4byte	0x97
 4081 0737 87020000 		.4byte	.LLST15
 4082 073b 10       		.uleb128 0x10
 4083 073c 89040000 		.4byte	.LASF78
 4084 0740 01       		.byte	0x1
 4085 0741 DC       		.byte	0xdc
 4086 0742 1C060000 		.4byte	0x61c
 4087 0746 A8020000 		.4byte	.LLST16
 4088 074a 12       		.uleb128 0x12
 4089 074b 72657400 		.ascii	"ret\000"
 4090 074f 01       		.byte	0x1
 4091 0750 DE       		.byte	0xde
 4092 0751 0F060000 		.4byte	0x60f
 4093 0755 D4020000 		.4byte	.LLST17
 4094 0759 11       		.uleb128 0x11
 4095 075a 45010000 		.4byte	.LASF88
 4096 075e 01       		.byte	0x1
 4097 075f E0       		.byte	0xe0
 4098 0760 BC070000 		.4byte	0x7bc
 4099 0764 F3020000 		.4byte	.LLST18
 4100 0768 14       		.uleb128 0x14
 4101 0769 0E000000 		.4byte	.LVL48
 4102 076d 081E0000 		.4byte	0x1e08
 4103 0771 7B070000 		.4byte	0x77b
 4104 0775 15       		.uleb128 0x15
 4105 0776 01       		.uleb128 0x1
 4106 0777 50       		.byte	0x50
 4107 0778 01       		.uleb128 0x1
 4108 0779 32       		.byte	0x32
 4109 077a 00       		.byte	0
 4110 077b 14       		.uleb128 0x14
 4111 077c 28000000 		.4byte	.LVL50
 4112 0780 BB040000 		.4byte	0x4bb
 4113 0784 AB070000 		.4byte	0x7ab
 4114 0788 15       		.uleb128 0x15
 4115 0789 01       		.uleb128 0x1
 4116 078a 50       		.byte	0x50
 4117 078b 02       		.uleb128 0x2
 4118 078c 74       		.byte	0x74
 4119 078d 00       		.sleb128 0
 4120 078e 15       		.uleb128 0x15
 4121 078f 01       		.uleb128 0x1
 4122 0790 51       		.byte	0x51
 4123 0791 01       		.uleb128 0x1
 4124 0792 32       		.byte	0x32
 4125 0793 15       		.uleb128 0x15
 4126 0794 01       		.uleb128 0x1
 4127 0795 52       		.byte	0x52
 4128 0796 02       		.uleb128 0x2
 4129 0797 75       		.byte	0x75
 4130 0798 00       		.sleb128 0
 4131 0799 15       		.uleb128 0x15
 4132 079a 01       		.uleb128 0x1
 4133 079b 53       		.byte	0x53
 4134 079c 01       		.uleb128 0x1
 4135 079d 30       		.byte	0x30
 4136 079e 15       		.uleb128 0x15
ARM GAS  C:\Users\TERENC~1\AppData\Local\Temp\ccyX5Aoq.s 			page 87


 4137 079f 02       		.uleb128 0x2
 4138 07a0 7D       		.byte	0x7d
 4139 07a1 00       		.sleb128 0
 4140 07a2 01       		.uleb128 0x1
 4141 07a3 30       		.byte	0x30
 4142 07a4 15       		.uleb128 0x15
 4143 07a5 02       		.uleb128 0x2
 4144 07a6 7D       		.byte	0x7d
 4145 07a7 04       		.sleb128 4
 4146 07a8 01       		.uleb128 0x1
 4147 07a9 30       		.byte	0x30
 4148 07aa 00       		.byte	0
 4149 07ab 16       		.uleb128 0x16
 4150 07ac 30000000 		.4byte	.LVL52
 4151 07b0 131E0000 		.4byte	0x1e13
 4152 07b4 15       		.uleb128 0x15
 4153 07b5 01       		.uleb128 0x1
 4154 07b6 50       		.byte	0x50
 4155 07b7 02       		.uleb128 0x2
 4156 07b8 74       		.byte	0x74
 4157 07b9 00       		.sleb128 0
 4158 07ba 00       		.byte	0
 4159 07bb 00       		.byte	0
 4160 07bc 17       		.uleb128 0x17
 4161 07bd 04       		.byte	0x4
 4162 07be 72020000 		.4byte	0x272
 4163 07c2 0E       		.uleb128 0xe
 4164 07c3 4E070000 		.4byte	.LASF91
 4165 07c7 01       		.byte	0x1
 4166 07c8 F2       		.byte	0xf2
 4167 07c9 0F060000 		.4byte	0x60f
 4168 07cd 00000000 		.4byte	.LFB10
 4169 07d1 60000000 		.4byte	.LFE10-.LFB10
 4170 07d5 01       		.uleb128 0x1
 4171 07d6 9C       		.byte	0x9c
 4172 07d7 9D080000 		.4byte	0x89d
 4173 07db 10       		.uleb128 0x10
 4174 07dc 75030000 		.4byte	.LASF92
 4175 07e0 01       		.byte	0x1
 4176 07e1 F2       		.byte	0xf2
 4177 07e2 97000000 		.4byte	0x97
 4178 07e6 11030000 		.4byte	.LLST19
 4179 07ea 10       		.uleb128 0x10
 4180 07eb 56030000 		.4byte	.LASF87
 4181 07ef 01       		.byte	0x1
 4182 07f0 F2       		.byte	0xf2
 4183 07f1 16060000 		.4byte	0x616
 4184 07f5 32030000 		.4byte	.LLST20
 4185 07f9 10       		.uleb128 0x10
 4186 07fa 89040000 		.4byte	.LASF78
 4187 07fe 01       		.byte	0x1
 4188 07ff F2       		.byte	0xf2
 4189 0800 1C060000 		.4byte	0x61c
 4190 0804 5E030000 		.4byte	.LLST21
 4191 0808 12       		.uleb128 0x12
 4192 0809 72657400 		.ascii	"ret\000"
 4193 080d 01       		.byte	0x1
ARM GAS  C:\Users\TERENC~1\AppData\Local\Temp\ccyX5Aoq.s 			page 88


 4194 080e F4       		.byte	0xf4
 4195 080f 0F060000 		.4byte	0x60f
 4196 0813 7D030000 		.4byte	.LLST22
 4197 0817 11       		.uleb128 0x11
 4198 0818 45010000 		.4byte	.LASF88
 4199 081c 01       		.byte	0x1
 4200 081d F6       		.byte	0xf6
 4201 081e 9D080000 		.4byte	0x89d
 4202 0822 9C030000 		.4byte	.LLST23
 4203 0826 14       		.uleb128 0x14
 4204 0827 12000000 		.4byte	.LVL58
 4205 082b 081E0000 		.4byte	0x1e08
 4206 082f 3A080000 		.4byte	0x83a
 4207 0833 15       		.uleb128 0x15
 4208 0834 01       		.uleb128 0x1
 4209 0835 50       		.byte	0x50
 4210 0836 02       		.uleb128 0x2
 4211 0837 74       		.byte	0x74
 4212 0838 00       		.sleb128 0
 4213 0839 00       		.byte	0
 4214 083a 14       		.uleb128 0x14
 4215 083b 3A000000 		.4byte	.LVL61
 4216 083f B91D0000 		.4byte	0x1db9
 4217 0843 5A080000 		.4byte	0x85a
 4218 0847 15       		.uleb128 0x15
 4219 0848 01       		.uleb128 0x1
 4220 0849 50       		.byte	0x50
 4221 084a 02       		.uleb128 0x2
 4222 084b 77       		.byte	0x77
 4223 084c 02       		.sleb128 2
 4224 084d 15       		.uleb128 0x15
 4225 084e 01       		.uleb128 0x1
 4226 084f 51       		.byte	0x51
 4227 0850 02       		.uleb128 0x2
 4228 0851 76       		.byte	0x76
 4229 0852 00       		.sleb128 0
 4230 0853 15       		.uleb128 0x15
 4231 0854 01       		.uleb128 0x1
 4232 0855 52       		.byte	0x52
 4233 0856 02       		.uleb128 0x2
 4234 0857 75       		.byte	0x75
 4235 0858 00       		.sleb128 0
 4236 0859 00       		.byte	0
 4237 085a 14       		.uleb128 0x14
 4238 085b 4A000000 		.4byte	.LVL62
 4239 085f BB040000 		.4byte	0x4bb
 4240 0863 8C080000 		.4byte	0x88c
 4241 0867 15       		.uleb128 0x15
 4242 0868 01       		.uleb128 0x1
 4243 0869 50       		.byte	0x50
 4244 086a 02       		.uleb128 0x2
 4245 086b 77       		.byte	0x77
 4246 086c 00       		.sleb128 0
 4247 086d 15       		.uleb128 0x15
 4248 086e 01       		.uleb128 0x1
 4249 086f 51       		.byte	0x51
 4250 0870 02       		.uleb128 0x2
ARM GAS  C:\Users\TERENC~1\AppData\Local\Temp\ccyX5Aoq.s 			page 89


 4251 0871 74       		.byte	0x74
 4252 0872 00       		.sleb128 0
 4253 0873 15       		.uleb128 0x15
 4254 0874 01       		.uleb128 0x1
 4255 0875 52       		.byte	0x52
 4256 0876 03       		.uleb128 0x3
 4257 0877 91       		.byte	0x91
 4258 0878 64       		.sleb128 -28
 4259 0879 06       		.byte	0x6
 4260 087a 15       		.uleb128 0x15
 4261 087b 01       		.uleb128 0x1
 4262 087c 53       		.byte	0x53
 4263 087d 01       		.uleb128 0x1
 4264 087e 30       		.byte	0x30
 4265 087f 15       		.uleb128 0x15
 4266 0880 02       		.uleb128 0x2
 4267 0881 7D       		.byte	0x7d
 4268 0882 00       		.sleb128 0
 4269 0883 01       		.uleb128 0x1
 4270 0884 30       		.byte	0x30
 4271 0885 15       		.uleb128 0x15
 4272 0886 02       		.uleb128 0x2
 4273 0887 7D       		.byte	0x7d
 4274 0888 04       		.sleb128 4
 4275 0889 01       		.uleb128 0x1
 4276 088a 30       		.byte	0x30
 4277 088b 00       		.byte	0
 4278 088c 16       		.uleb128 0x16
 4279 088d 52000000 		.4byte	.LVL64
 4280 0891 131E0000 		.4byte	0x1e13
 4281 0895 15       		.uleb128 0x15
 4282 0896 01       		.uleb128 0x1
 4283 0897 50       		.byte	0x50
 4284 0898 02       		.uleb128 0x2
 4285 0899 77       		.byte	0x77
 4286 089a 00       		.sleb128 0
 4287 089b 00       		.byte	0
 4288 089c 00       		.byte	0
 4289 089d 17       		.uleb128 0x17
 4290 089e 04       		.byte	0x4
 4291 089f 31020000 		.4byte	0x231
 4292 08a3 0E       		.uleb128 0xe
 4293 08a4 C7010000 		.4byte	.LASF93
 4294 08a8 01       		.byte	0x1
 4295 08a9 BB       		.byte	0xbb
 4296 08aa 0F060000 		.4byte	0x60f
 4297 08ae 00000000 		.4byte	.LFB7
 4298 08b2 52000000 		.4byte	.LFE7-.LFB7
 4299 08b6 01       		.uleb128 0x1
 4300 08b7 9C       		.byte	0x9c
 4301 08b8 80090000 		.4byte	0x980
 4302 08bc 10       		.uleb128 0x10
 4303 08bd 75030000 		.4byte	.LASF92
 4304 08c1 01       		.byte	0x1
 4305 08c2 BB       		.byte	0xbb
 4306 08c3 97000000 		.4byte	0x97
 4307 08c7 BA030000 		.4byte	.LLST24
ARM GAS  C:\Users\TERENC~1\AppData\Local\Temp\ccyX5Aoq.s 			page 90


 4308 08cb 10       		.uleb128 0x10
 4309 08cc 89040000 		.4byte	.LASF78
 4310 08d0 01       		.byte	0x1
 4311 08d1 BB       		.byte	0xbb
 4312 08d2 1C060000 		.4byte	0x61c
 4313 08d6 DB030000 		.4byte	.LLST25
 4314 08da 10       		.uleb128 0x10
 4315 08db 56030000 		.4byte	.LASF87
 4316 08df 01       		.byte	0x1
 4317 08e0 BB       		.byte	0xbb
 4318 08e1 16060000 		.4byte	0x616
 4319 08e5 FA030000 		.4byte	.LLST26
 4320 08e9 12       		.uleb128 0x12
 4321 08ea 72657400 		.ascii	"ret\000"
 4322 08ee 01       		.byte	0x1
 4323 08ef BD       		.byte	0xbd
 4324 08f0 0F060000 		.4byte	0x60f
 4325 08f4 26040000 		.4byte	.LLST27
 4326 08f8 11       		.uleb128 0x11
 4327 08f9 45010000 		.4byte	.LASF88
 4328 08fd 01       		.byte	0x1
 4329 08fe BF       		.byte	0xbf
 4330 08ff 80090000 		.4byte	0x980
 4331 0903 45040000 		.4byte	.LLST28
 4332 0907 14       		.uleb128 0x14
 4333 0908 12000000 		.4byte	.LVL71
 4334 090c 081E0000 		.4byte	0x1e08
 4335 0910 1B090000 		.4byte	0x91b
 4336 0914 15       		.uleb128 0x15
 4337 0915 01       		.uleb128 0x1
 4338 0916 50       		.byte	0x50
 4339 0917 02       		.uleb128 0x2
 4340 0918 75       		.byte	0x75
 4341 0919 00       		.sleb128 0
 4342 091a 00       		.byte	0
 4343 091b 14       		.uleb128 0x14
 4344 091c 1C000000 		.4byte	.LVL73
 4345 0920 1E1E0000 		.4byte	0x1e1e
 4346 0924 3B090000 		.4byte	0x93b
 4347 0928 15       		.uleb128 0x15
 4348 0929 01       		.uleb128 0x1
 4349 092a 50       		.byte	0x50
 4350 092b 02       		.uleb128 0x2
 4351 092c 74       		.byte	0x74
 4352 092d 00       		.sleb128 0
 4353 092e 15       		.uleb128 0x15
 4354 092f 01       		.uleb128 0x1
 4355 0930 51       		.byte	0x51
 4356 0931 02       		.uleb128 0x2
 4357 0932 08       		.byte	0x8
 4358 0933 CC       		.byte	0xcc
 4359 0934 15       		.uleb128 0x15
 4360 0935 01       		.uleb128 0x1
 4361 0936 52       		.byte	0x52
 4362 0937 02       		.uleb128 0x2
 4363 0938 75       		.byte	0x75
 4364 0939 00       		.sleb128 0
ARM GAS  C:\Users\TERENC~1\AppData\Local\Temp\ccyX5Aoq.s 			page 91


 4365 093a 00       		.byte	0
 4366 093b 14       		.uleb128 0x14
 4367 093c 3C000000 		.4byte	.LVL74
 4368 0940 BB040000 		.4byte	0x4bb
 4369 0944 6F090000 		.4byte	0x96f
 4370 0948 15       		.uleb128 0x15
 4371 0949 01       		.uleb128 0x1
 4372 094a 50       		.byte	0x50
 4373 094b 02       		.uleb128 0x2
 4374 094c 74       		.byte	0x74
 4375 094d 00       		.sleb128 0
 4376 094e 15       		.uleb128 0x15
 4377 094f 01       		.uleb128 0x1
 4378 0950 51       		.byte	0x51
 4379 0951 02       		.uleb128 0x2
 4380 0952 75       		.byte	0x75
 4381 0953 00       		.sleb128 0
 4382 0954 15       		.uleb128 0x15
 4383 0955 01       		.uleb128 0x1
 4384 0956 52       		.byte	0x52
 4385 0957 03       		.uleb128 0x3
 4386 0958 91       		.byte	0x91
 4387 0959 64       		.sleb128 -28
 4388 095a 06       		.byte	0x6
 4389 095b 15       		.uleb128 0x15
 4390 095c 01       		.uleb128 0x1
 4391 095d 53       		.byte	0x53
 4392 095e 02       		.uleb128 0x2
 4393 095f 77       		.byte	0x77
 4394 0960 00       		.sleb128 0
 4395 0961 15       		.uleb128 0x15
 4396 0962 02       		.uleb128 0x2
 4397 0963 7D       		.byte	0x7d
 4398 0964 00       		.sleb128 0
 4399 0965 02       		.uleb128 0x2
 4400 0966 76       		.byte	0x76
 4401 0967 00       		.sleb128 0
 4402 0968 15       		.uleb128 0x15
 4403 0969 02       		.uleb128 0x2
 4404 096a 7D       		.byte	0x7d
 4405 096b 04       		.sleb128 4
 4406 096c 01       		.uleb128 0x1
 4407 096d 30       		.byte	0x30
 4408 096e 00       		.byte	0
 4409 096f 16       		.uleb128 0x16
 4410 0970 44000000 		.4byte	.LVL76
 4411 0974 131E0000 		.4byte	0x1e13
 4412 0978 15       		.uleb128 0x15
 4413 0979 01       		.uleb128 0x1
 4414 097a 50       		.byte	0x50
 4415 097b 02       		.uleb128 0x2
 4416 097c 74       		.byte	0x74
 4417 097d 00       		.sleb128 0
 4418 097e 00       		.byte	0
 4419 097f 00       		.byte	0
 4420 0980 17       		.uleb128 0x17
 4421 0981 04       		.byte	0x4
ARM GAS  C:\Users\TERENC~1\AppData\Local\Temp\ccyX5Aoq.s 			page 92


 4422 0982 E4010000 		.4byte	0x1e4
 4423 0986 0E       		.uleb128 0xe
 4424 0987 30010000 		.4byte	.LASF94
 4425 098b 01       		.byte	0x1
 4426 098c 26       		.byte	0x26
 4427 098d 0F060000 		.4byte	0x60f
 4428 0991 00000000 		.4byte	.LFB3
 4429 0995 C4000000 		.4byte	.LFE3-.LFB3
 4430 0999 01       		.uleb128 0x1
 4431 099a 9C       		.byte	0x9c
 4432 099b F70A0000 		.4byte	0xaf7
 4433 099f 10       		.uleb128 0x10
 4434 09a0 C1040000 		.4byte	.LASF95
 4435 09a4 01       		.byte	0x1
 4436 09a5 26       		.byte	0x26
 4437 09a6 0F060000 		.4byte	0x60f
 4438 09aa 63040000 		.4byte	.LLST29
 4439 09ae 11       		.uleb128 0x11
 4440 09af 86060000 		.4byte	.LASF82
 4441 09b3 01       		.byte	0x1
 4442 09b4 28       		.byte	0x28
 4443 09b5 A2000000 		.4byte	0xa2
 4444 09b9 84040000 		.4byte	.LLST30
 4445 09bd 11       		.uleb128 0x11
 4446 09be A5000000 		.4byte	.LASF96
 4447 09c2 01       		.byte	0x1
 4448 09c3 29       		.byte	0x29
 4449 09c4 8C000000 		.4byte	0x8c
 4450 09c8 A2040000 		.4byte	.LLST31
 4451 09cc 12       		.uleb128 0x12
 4452 09cd 72657400 		.ascii	"ret\000"
 4453 09d1 01       		.byte	0x1
 4454 09d2 2A       		.byte	0x2a
 4455 09d3 0F060000 		.4byte	0x60f
 4456 09d7 C0040000 		.4byte	.LLST32
 4457 09db 14       		.uleb128 0x14
 4458 09dc 0A000000 		.4byte	.LVL83
 4459 09e0 291E0000 		.4byte	0x1e29
 4460 09e4 EE090000 		.4byte	0x9ee
 4461 09e8 15       		.uleb128 0x15
 4462 09e9 01       		.uleb128 0x1
 4463 09ea 50       		.byte	0x50
 4464 09eb 01       		.uleb128 0x1
 4465 09ec 36       		.byte	0x36
 4466 09ed 00       		.byte	0
 4467 09ee 14       		.uleb128 0x14
 4468 09ef 10000000 		.4byte	.LVL84
 4469 09f3 341E0000 		.4byte	0x1e34
 4470 09f7 010A0000 		.4byte	0xa01
 4471 09fb 15       		.uleb128 0x15
 4472 09fc 01       		.uleb128 0x1
 4473 09fd 50       		.byte	0x50
 4474 09fe 01       		.uleb128 0x1
 4475 09ff 30       		.byte	0x30
 4476 0a00 00       		.byte	0
 4477 0a01 14       		.uleb128 0x14
 4478 0a02 16000000 		.4byte	.LVL85
ARM GAS  C:\Users\TERENC~1\AppData\Local\Temp\ccyX5Aoq.s 			page 93


 4479 0a06 3F1E0000 		.4byte	0x1e3f
 4480 0a0a 140A0000 		.4byte	0xa14
 4481 0a0e 15       		.uleb128 0x15
 4482 0a0f 01       		.uleb128 0x1
 4483 0a10 50       		.byte	0x50
 4484 0a11 01       		.uleb128 0x1
 4485 0a12 36       		.byte	0x36
 4486 0a13 00       		.byte	0
 4487 0a14 14       		.uleb128 0x14
 4488 0a15 1C000000 		.4byte	.LVL86
 4489 0a19 4A1E0000 		.4byte	0x1e4a
 4490 0a1d 270A0000 		.4byte	0xa27
 4491 0a21 15       		.uleb128 0x15
 4492 0a22 01       		.uleb128 0x1
 4493 0a23 50       		.byte	0x50
 4494 0a24 01       		.uleb128 0x1
 4495 0a25 30       		.byte	0x30
 4496 0a26 00       		.byte	0
 4497 0a27 14       		.uleb128 0x14
 4498 0a28 2C000000 		.4byte	.LVL87
 4499 0a2c 551E0000 		.4byte	0x1e55
 4500 0a30 3A0A0000 		.4byte	0xa3a
 4501 0a34 15       		.uleb128 0x15
 4502 0a35 01       		.uleb128 0x1
 4503 0a36 50       		.byte	0x50
 4504 0a37 01       		.uleb128 0x1
 4505 0a38 36       		.byte	0x36
 4506 0a39 00       		.byte	0
 4507 0a3a 14       		.uleb128 0x14
 4508 0a3b 36000000 		.4byte	.LVL88
 4509 0a3f 601E0000 		.4byte	0x1e60
 4510 0a43 4D0A0000 		.4byte	0xa4d
 4511 0a47 15       		.uleb128 0x15
 4512 0a48 01       		.uleb128 0x1
 4513 0a49 50       		.byte	0x50
 4514 0a4a 01       		.uleb128 0x1
 4515 0a4b 30       		.byte	0x30
 4516 0a4c 00       		.byte	0
 4517 0a4d 14       		.uleb128 0x14
 4518 0a4e 3E000000 		.4byte	.LVL89
 4519 0a52 601E0000 		.4byte	0x1e60
 4520 0a56 600A0000 		.4byte	0xa60
 4521 0a5a 15       		.uleb128 0x15
 4522 0a5b 01       		.uleb128 0x1
 4523 0a5c 50       		.byte	0x50
 4524 0a5d 01       		.uleb128 0x1
 4525 0a5e 31       		.byte	0x31
 4526 0a5f 00       		.byte	0
 4527 0a60 14       		.uleb128 0x14
 4528 0a61 44000000 		.4byte	.LVL90
 4529 0a65 6B1E0000 		.4byte	0x1e6b
 4530 0a69 730A0000 		.4byte	0xa73
 4531 0a6d 15       		.uleb128 0x15
 4532 0a6e 01       		.uleb128 0x1
 4533 0a6f 50       		.byte	0x50
 4534 0a70 01       		.uleb128 0x1
 4535 0a71 33       		.byte	0x33
ARM GAS  C:\Users\TERENC~1\AppData\Local\Temp\ccyX5Aoq.s 			page 94


 4536 0a72 00       		.byte	0
 4537 0a73 14       		.uleb128 0x14
 4538 0a74 4A000000 		.4byte	.LVL91
 4539 0a78 341E0000 		.4byte	0x1e34
 4540 0a7c 860A0000 		.4byte	0xa86
 4541 0a80 15       		.uleb128 0x15
 4542 0a81 01       		.uleb128 0x1
 4543 0a82 50       		.byte	0x50
 4544 0a83 01       		.uleb128 0x1
 4545 0a84 31       		.byte	0x31
 4546 0a85 00       		.byte	0
 4547 0a86 14       		.uleb128 0x14
 4548 0a87 50000000 		.4byte	.LVL92
 4549 0a8b 761E0000 		.4byte	0x1e76
 4550 0a8f 990A0000 		.4byte	0xa99
 4551 0a93 15       		.uleb128 0x15
 4552 0a94 01       		.uleb128 0x1
 4553 0a95 50       		.byte	0x50
 4554 0a96 01       		.uleb128 0x1
 4555 0a97 36       		.byte	0x36
 4556 0a98 00       		.byte	0
 4557 0a99 14       		.uleb128 0x14
 4558 0a9a 56000000 		.4byte	.LVL93
 4559 0a9e 4A1E0000 		.4byte	0x1e4a
 4560 0aa2 AC0A0000 		.4byte	0xaac
 4561 0aa6 15       		.uleb128 0x15
 4562 0aa7 01       		.uleb128 0x1
 4563 0aa8 50       		.byte	0x50
 4564 0aa9 01       		.uleb128 0x1
 4565 0aaa 31       		.byte	0x31
 4566 0aab 00       		.byte	0
 4567 0aac 14       		.uleb128 0x14
 4568 0aad 5C000000 		.4byte	.LVL94
 4569 0ab1 761E0000 		.4byte	0x1e76
 4570 0ab5 BF0A0000 		.4byte	0xabf
 4571 0ab9 15       		.uleb128 0x15
 4572 0aba 01       		.uleb128 0x1
 4573 0abb 50       		.byte	0x50
 4574 0abc 01       		.uleb128 0x1
 4575 0abd 32       		.byte	0x32
 4576 0abe 00       		.byte	0
 4577 0abf 14       		.uleb128 0x14
 4578 0ac0 62000000 		.4byte	.LVL95
 4579 0ac4 4A1E0000 		.4byte	0x1e4a
 4580 0ac8 D20A0000 		.4byte	0xad2
 4581 0acc 15       		.uleb128 0x15
 4582 0acd 01       		.uleb128 0x1
 4583 0ace 50       		.byte	0x50
 4584 0acf 01       		.uleb128 0x1
 4585 0ad0 30       		.byte	0x30
 4586 0ad1 00       		.byte	0
 4587 0ad2 0F       		.uleb128 0xf
 4588 0ad3 66000000 		.4byte	.LVL96
 4589 0ad7 CD1D0000 		.4byte	0x1dcd
 4590 0adb 0F       		.uleb128 0xf
 4591 0adc 70000000 		.4byte	.LVL99
 4592 0ae0 CD1D0000 		.4byte	0x1dcd
ARM GAS  C:\Users\TERENC~1\AppData\Local\Temp\ccyX5Aoq.s 			page 95


 4593 0ae4 0F       		.uleb128 0xf
 4594 0ae5 84000000 		.4byte	.LVL100
 4595 0ae9 CD1D0000 		.4byte	0x1dcd
 4596 0aed 0F       		.uleb128 0xf
 4597 0aee 8C000000 		.4byte	.LVL101
 4598 0af2 CD1D0000 		.4byte	0x1dcd
 4599 0af6 00       		.byte	0
 4600 0af7 18       		.uleb128 0x18
 4601 0af8 9E060000 		.4byte	.LASF98
 4602 0afc 01       		.byte	0x1
 4603 0afd 6401     		.2byte	0x164
 4604 0aff 0F060000 		.4byte	0x60f
 4605 0b03 00000000 		.4byte	.LFB15
 4606 0b07 C0000000 		.4byte	.LFE15-.LFB15
 4607 0b0b 01       		.uleb128 0x1
 4608 0b0c 9C       		.byte	0x9c
 4609 0b0d 4F0C0000 		.4byte	0xc4f
 4610 0b11 19       		.uleb128 0x19
 4611 0b12 38040000 		.4byte	.LASF97
 4612 0b16 01       		.byte	0x1
 4613 0b17 6401     		.2byte	0x164
 4614 0b19 4F0C0000 		.4byte	0xc4f
 4615 0b1d DF040000 		.4byte	.LLST33
 4616 0b21 1A       		.uleb128 0x1a
 4617 0b22 D5070000 		.4byte	.LASF65
 4618 0b26 01       		.byte	0x1
 4619 0b27 6601     		.2byte	0x166
 4620 0b29 550C0000 		.4byte	0xc55
 4621 0b2d 02       		.uleb128 0x2
 4622 0b2e 91       		.byte	0x91
 4623 0b2f 6E       		.sleb128 -18
 4624 0b30 1B       		.uleb128 0x1b
 4625 0b31 737700   		.ascii	"sw\000"
 4626 0b34 01       		.byte	0x1
 4627 0b35 6701     		.2byte	0x167
 4628 0b37 97000000 		.4byte	0x97
 4629 0b3b 02       		.uleb128 0x2
 4630 0b3c 91       		.byte	0x91
 4631 0b3d 6C       		.sleb128 -20
 4632 0b3e 1C       		.uleb128 0x1c
 4633 0b3f 72657400 		.ascii	"ret\000"
 4634 0b43 01       		.byte	0x1
 4635 0b44 6801     		.2byte	0x168
 4636 0b46 0F060000 		.4byte	0x60f
 4637 0b4a 3D050000 		.4byte	.LLST34
 4638 0b4e 13       		.uleb128 0x13
 4639 0b4f 28000000 		.4byte	.LBB3
 4640 0b53 2E000000 		.4byte	.LBE3-.LBB3
 4641 0b57 A60B0000 		.4byte	0xba6
 4642 0b5b 1C       		.uleb128 0x1c
 4643 0b5c 733100   		.ascii	"s1\000"
 4644 0b5f 01       		.byte	0x1
 4645 0b60 6D01     		.2byte	0x16d
 4646 0b62 A2000000 		.4byte	0xa2
 4647 0b66 7D050000 		.4byte	.LLST35
 4648 0b6a 0F       		.uleb128 0xf
 4649 0b6b 30000000 		.4byte	.LVL114
ARM GAS  C:\Users\TERENC~1\AppData\Local\Temp\ccyX5Aoq.s 			page 96


 4650 0b6f AE1D0000 		.4byte	0x1dae
 4651 0b73 14       		.uleb128 0x14
 4652 0b74 50000000 		.4byte	.LVL116
 4653 0b78 811E0000 		.4byte	0x1e81
 4654 0b7c 950B0000 		.4byte	0xb95
 4655 0b80 15       		.uleb128 0x15
 4656 0b81 01       		.uleb128 0x1
 4657 0b82 50       		.byte	0x50
 4658 0b83 02       		.uleb128 0x2
 4659 0b84 75       		.byte	0x75
 4660 0b85 00       		.sleb128 0
 4661 0b86 15       		.uleb128 0x15
 4662 0b87 01       		.uleb128 0x1
 4663 0b88 51       		.byte	0x51
 4664 0b89 05       		.uleb128 0x5
 4665 0b8a 03       		.byte	0x3
 4666 0b8b 44000000 		.4byte	.LC6
 4667 0b8f 15       		.uleb128 0x15
 4668 0b90 01       		.uleb128 0x1
 4669 0b91 52       		.byte	0x52
 4670 0b92 01       		.uleb128 0x1
 4671 0b93 4F       		.byte	0x4f
 4672 0b94 00       		.byte	0
 4673 0b95 16       		.uleb128 0x16
 4674 0b96 56000000 		.4byte	.LVL117
 4675 0b9a C21D0000 		.4byte	0x1dc2
 4676 0b9e 15       		.uleb128 0x15
 4677 0b9f 01       		.uleb128 0x1
 4678 0ba0 50       		.byte	0x50
 4679 0ba1 02       		.uleb128 0x2
 4680 0ba2 75       		.byte	0x75
 4681 0ba3 00       		.sleb128 0
 4682 0ba4 00       		.byte	0
 4683 0ba5 00       		.byte	0
 4684 0ba6 13       		.uleb128 0x13
 4685 0ba7 70000000 		.4byte	.LBB4
 4686 0bab 2C000000 		.4byte	.LBE4-.LBB4
 4687 0baf F90B0000 		.4byte	0xbf9
 4688 0bb3 1C       		.uleb128 0x1c
 4689 0bb4 733100   		.ascii	"s1\000"
 4690 0bb7 01       		.byte	0x1
 4691 0bb8 7401     		.2byte	0x174
 4692 0bba A2000000 		.4byte	0xa2
 4693 0bbe 90050000 		.4byte	.LLST36
 4694 0bc2 0F       		.uleb128 0xf
 4695 0bc3 78000000 		.4byte	.LVL124
 4696 0bc7 AE1D0000 		.4byte	0x1dae
 4697 0bcb 14       		.uleb128 0x14
 4698 0bcc 96000000 		.4byte	.LVL126
 4699 0bd0 811E0000 		.4byte	0x1e81
 4700 0bd4 E80B0000 		.4byte	0xbe8
 4701 0bd8 15       		.uleb128 0x15
 4702 0bd9 01       		.uleb128 0x1
 4703 0bda 50       		.byte	0x50
 4704 0bdb 02       		.uleb128 0x2
 4705 0bdc 75       		.byte	0x75
 4706 0bdd 00       		.sleb128 0
ARM GAS  C:\Users\TERENC~1\AppData\Local\Temp\ccyX5Aoq.s 			page 97


 4707 0bde 15       		.uleb128 0x15
 4708 0bdf 01       		.uleb128 0x1
 4709 0be0 51       		.byte	0x51
 4710 0be1 05       		.uleb128 0x5
 4711 0be2 03       		.byte	0x3
 4712 0be3 70000000 		.4byte	.LC9
 4713 0be7 00       		.byte	0
 4714 0be8 16       		.uleb128 0x16
 4715 0be9 9C000000 		.4byte	.LVL127
 4716 0bed C21D0000 		.4byte	0x1dc2
 4717 0bf1 15       		.uleb128 0x15
 4718 0bf2 01       		.uleb128 0x1
 4719 0bf3 50       		.byte	0x50
 4720 0bf4 02       		.uleb128 0x2
 4721 0bf5 75       		.byte	0x75
 4722 0bf6 00       		.sleb128 0
 4723 0bf7 00       		.byte	0
 4724 0bf8 00       		.byte	0
 4725 0bf9 14       		.uleb128 0x14
 4726 0bfa 1C000000 		.4byte	.LVL110
 4727 0bfe 22060000 		.4byte	0x622
 4728 0c02 1D0C0000 		.4byte	0xc1d
 4729 0c06 15       		.uleb128 0x15
 4730 0c07 01       		.uleb128 0x1
 4731 0c08 50       		.byte	0x50
 4732 0c09 01       		.uleb128 0x1
 4733 0c0a 4F       		.byte	0x4f
 4734 0c0b 15       		.uleb128 0x15
 4735 0c0c 01       		.uleb128 0x1
 4736 0c0d 51       		.byte	0x51
 4737 0c0e 01       		.uleb128 0x1
 4738 0c0f 32       		.byte	0x32
 4739 0c10 15       		.uleb128 0x15
 4740 0c11 01       		.uleb128 0x1
 4741 0c12 52       		.byte	0x52
 4742 0c13 02       		.uleb128 0x2
 4743 0c14 7D       		.byte	0x7d
 4744 0c15 06       		.sleb128 6
 4745 0c16 15       		.uleb128 0x15
 4746 0c17 01       		.uleb128 0x1
 4747 0c18 53       		.byte	0x53
 4748 0c19 02       		.uleb128 0x2
 4749 0c1a 91       		.byte	0x91
 4750 0c1b 6C       		.sleb128 -20
 4751 0c1c 00       		.byte	0
 4752 0c1d 0F       		.uleb128 0xf
 4753 0c1e 24000000 		.4byte	.LVL112
 4754 0c22 D81D0000 		.4byte	0x1dd8
 4755 0c26 14       		.uleb128 0x14
 4756 0c27 64000000 		.4byte	.LVL120
 4757 0c2b A3080000 		.4byte	0x8a3
 4758 0c2f 450C0000 		.4byte	0xc45
 4759 0c33 15       		.uleb128 0x15
 4760 0c34 01       		.uleb128 0x1
 4761 0c35 50       		.byte	0x50
 4762 0c36 01       		.uleb128 0x1
 4763 0c37 48       		.byte	0x48
ARM GAS  C:\Users\TERENC~1\AppData\Local\Temp\ccyX5Aoq.s 			page 98


 4764 0c38 15       		.uleb128 0x15
 4765 0c39 01       		.uleb128 0x1
 4766 0c3a 51       		.byte	0x51
 4767 0c3b 02       		.uleb128 0x2
 4768 0c3c 91       		.byte	0x91
 4769 0c3d 6C       		.sleb128 -20
 4770 0c3e 15       		.uleb128 0x15
 4771 0c3f 01       		.uleb128 0x1
 4772 0c40 52       		.byte	0x52
 4773 0c41 02       		.uleb128 0x2
 4774 0c42 75       		.byte	0x75
 4775 0c43 00       		.sleb128 0
 4776 0c44 00       		.byte	0
 4777 0c45 0F       		.uleb128 0xf
 4778 0c46 6C000000 		.4byte	.LVL122
 4779 0c4a D81D0000 		.4byte	0x1dd8
 4780 0c4e 00       		.byte	0
 4781 0c4f 17       		.uleb128 0x17
 4782 0c50 04       		.byte	0x4
 4783 0c51 B9030000 		.4byte	0x3b9
 4784 0c55 0D       		.uleb128 0xd
 4785 0c56 97000000 		.4byte	0x97
 4786 0c5a 18       		.uleb128 0x18
 4787 0c5b 54020000 		.4byte	.LASF99
 4788 0c5f 01       		.byte	0x1
 4789 0c60 7B01     		.2byte	0x17b
 4790 0c62 0F060000 		.4byte	0x60f
 4791 0c66 00000000 		.4byte	.LFB16
 4792 0c6a C0000000 		.4byte	.LFE16-.LFB16
 4793 0c6e 01       		.uleb128 0x1
 4794 0c6f 9C       		.byte	0x9c
 4795 0c70 A20D0000 		.4byte	0xda2
 4796 0c74 19       		.uleb128 0x19
 4797 0c75 38040000 		.4byte	.LASF97
 4798 0c79 01       		.byte	0x1
 4799 0c7a 7B01     		.2byte	0x17b
 4800 0c7c A20D0000 		.4byte	0xda2
 4801 0c80 A3050000 		.4byte	.LLST37
 4802 0c84 1B       		.uleb128 0x1b
 4803 0c85 737700   		.ascii	"sw\000"
 4804 0c88 01       		.byte	0x1
 4805 0c89 7D01     		.2byte	0x17d
 4806 0c8b 97000000 		.4byte	0x97
 4807 0c8f 02       		.uleb128 0x2
 4808 0c90 91       		.byte	0x91
 4809 0c91 6E       		.sleb128 -18
 4810 0c92 1C       		.uleb128 0x1c
 4811 0c93 72657400 		.ascii	"ret\000"
 4812 0c97 01       		.byte	0x1
 4813 0c98 7E01     		.2byte	0x17e
 4814 0c9a 0F060000 		.4byte	0x60f
 4815 0c9e 01060000 		.4byte	.LLST38
 4816 0ca2 13       		.uleb128 0x13
 4817 0ca3 22000000 		.4byte	.LBB5
 4818 0ca7 30000000 		.4byte	.LBE5-.LBB5
 4819 0cab FA0C0000 		.4byte	0xcfa
 4820 0caf 1C       		.uleb128 0x1c
ARM GAS  C:\Users\TERENC~1\AppData\Local\Temp\ccyX5Aoq.s 			page 99


 4821 0cb0 733100   		.ascii	"s1\000"
 4822 0cb3 01       		.byte	0x1
 4823 0cb4 8101     		.2byte	0x181
 4824 0cb6 A2000000 		.4byte	0xa2
 4825 0cba 35060000 		.4byte	.LLST39
 4826 0cbe 0F       		.uleb128 0xf
 4827 0cbf 2A000000 		.4byte	.LVL138
 4828 0cc3 AE1D0000 		.4byte	0x1dae
 4829 0cc7 14       		.uleb128 0x14
 4830 0cc8 4C000000 		.4byte	.LVL140
 4831 0ccc 811E0000 		.4byte	0x1e81
 4832 0cd0 E90C0000 		.4byte	0xce9
 4833 0cd4 15       		.uleb128 0x15
 4834 0cd5 01       		.uleb128 0x1
 4835 0cd6 50       		.byte	0x50
 4836 0cd7 02       		.uleb128 0x2
 4837 0cd8 75       		.byte	0x75
 4838 0cd9 00       		.sleb128 0
 4839 0cda 15       		.uleb128 0x15
 4840 0cdb 01       		.uleb128 0x1
 4841 0cdc 51       		.byte	0x51
 4842 0cdd 05       		.uleb128 0x5
 4843 0cde 03       		.byte	0x3
 4844 0cdf 44000000 		.4byte	.LC6
 4845 0ce3 15       		.uleb128 0x15
 4846 0ce4 01       		.uleb128 0x1
 4847 0ce5 52       		.byte	0x52
 4848 0ce6 01       		.uleb128 0x1
 4849 0ce7 4F       		.byte	0x4f
 4850 0ce8 00       		.byte	0
 4851 0ce9 16       		.uleb128 0x16
 4852 0cea 52000000 		.4byte	.LVL141
 4853 0cee C21D0000 		.4byte	0x1dc2
 4854 0cf2 15       		.uleb128 0x15
 4855 0cf3 01       		.uleb128 0x1
 4856 0cf4 50       		.byte	0x50
 4857 0cf5 02       		.uleb128 0x2
 4858 0cf6 75       		.byte	0x75
 4859 0cf7 00       		.sleb128 0
 4860 0cf8 00       		.byte	0
 4861 0cf9 00       		.byte	0
 4862 0cfa 13       		.uleb128 0x13
 4863 0cfb 6E000000 		.4byte	.LBB6
 4864 0cff 2C000000 		.4byte	.LBE6-.LBB6
 4865 0d03 4D0D0000 		.4byte	0xd4d
 4866 0d07 1C       		.uleb128 0x1c
 4867 0d08 733100   		.ascii	"s1\000"
 4868 0d0b 01       		.byte	0x1
 4869 0d0c 8801     		.2byte	0x188
 4870 0d0e A2000000 		.4byte	0xa2
 4871 0d12 48060000 		.4byte	.LLST40
 4872 0d16 0F       		.uleb128 0xf
 4873 0d17 76000000 		.4byte	.LVL148
 4874 0d1b AE1D0000 		.4byte	0x1dae
 4875 0d1f 14       		.uleb128 0x14
 4876 0d20 94000000 		.4byte	.LVL150
 4877 0d24 811E0000 		.4byte	0x1e81
ARM GAS  C:\Users\TERENC~1\AppData\Local\Temp\ccyX5Aoq.s 			page 100


 4878 0d28 3C0D0000 		.4byte	0xd3c
 4879 0d2c 15       		.uleb128 0x15
 4880 0d2d 01       		.uleb128 0x1
 4881 0d2e 50       		.byte	0x50
 4882 0d2f 02       		.uleb128 0x2
 4883 0d30 75       		.byte	0x75
 4884 0d31 00       		.sleb128 0
 4885 0d32 15       		.uleb128 0x15
 4886 0d33 01       		.uleb128 0x1
 4887 0d34 51       		.byte	0x51
 4888 0d35 05       		.uleb128 0x5
 4889 0d36 03       		.byte	0x3
 4890 0d37 70000000 		.4byte	.LC9
 4891 0d3b 00       		.byte	0
 4892 0d3c 16       		.uleb128 0x16
 4893 0d3d 9A000000 		.4byte	.LVL151
 4894 0d41 C21D0000 		.4byte	0x1dc2
 4895 0d45 15       		.uleb128 0x15
 4896 0d46 01       		.uleb128 0x1
 4897 0d47 50       		.byte	0x50
 4898 0d48 02       		.uleb128 0x2
 4899 0d49 75       		.byte	0x75
 4900 0d4a 00       		.sleb128 0
 4901 0d4b 00       		.byte	0
 4902 0d4c 00       		.byte	0
 4903 0d4d 14       		.uleb128 0x14
 4904 0d4e 16000000 		.4byte	.LVL134
 4905 0d52 22060000 		.4byte	0x622
 4906 0d56 700D0000 		.4byte	0xd70
 4907 0d5a 15       		.uleb128 0x15
 4908 0d5b 01       		.uleb128 0x1
 4909 0d5c 50       		.byte	0x50
 4910 0d5d 01       		.uleb128 0x1
 4911 0d5e 4E       		.byte	0x4e
 4912 0d5f 15       		.uleb128 0x15
 4913 0d60 01       		.uleb128 0x1
 4914 0d61 51       		.byte	0x51
 4915 0d62 01       		.uleb128 0x1
 4916 0d63 30       		.byte	0x30
 4917 0d64 15       		.uleb128 0x15
 4918 0d65 01       		.uleb128 0x1
 4919 0d66 52       		.byte	0x52
 4920 0d67 01       		.uleb128 0x1
 4921 0d68 30       		.byte	0x30
 4922 0d69 15       		.uleb128 0x15
 4923 0d6a 01       		.uleb128 0x1
 4924 0d6b 53       		.byte	0x53
 4925 0d6c 02       		.uleb128 0x2
 4926 0d6d 7D       		.byte	0x7d
 4927 0d6e 06       		.sleb128 6
 4928 0d6f 00       		.byte	0
 4929 0d70 0F       		.uleb128 0xf
 4930 0d71 1E000000 		.4byte	.LVL136
 4931 0d75 D81D0000 		.4byte	0x1dd8
 4932 0d79 14       		.uleb128 0x14
 4933 0d7a 62000000 		.4byte	.LVL144
 4934 0d7e A3080000 		.4byte	0x8a3
ARM GAS  C:\Users\TERENC~1\AppData\Local\Temp\ccyX5Aoq.s 			page 101


 4935 0d82 980D0000 		.4byte	0xd98
 4936 0d86 15       		.uleb128 0x15
 4937 0d87 01       		.uleb128 0x1
 4938 0d88 50       		.byte	0x50
 4939 0d89 01       		.uleb128 0x1
 4940 0d8a 3C       		.byte	0x3c
 4941 0d8b 15       		.uleb128 0x15
 4942 0d8c 01       		.uleb128 0x1
 4943 0d8d 51       		.byte	0x51
 4944 0d8e 02       		.uleb128 0x2
 4945 0d8f 7D       		.byte	0x7d
 4946 0d90 06       		.sleb128 6
 4947 0d91 15       		.uleb128 0x15
 4948 0d92 01       		.uleb128 0x1
 4949 0d93 52       		.byte	0x52
 4950 0d94 02       		.uleb128 0x2
 4951 0d95 75       		.byte	0x75
 4952 0d96 00       		.sleb128 0
 4953 0d97 00       		.byte	0
 4954 0d98 0F       		.uleb128 0xf
 4955 0d99 6A000000 		.4byte	.LVL146
 4956 0d9d D81D0000 		.4byte	0x1dd8
 4957 0da1 00       		.byte	0
 4958 0da2 17       		.uleb128 0x17
 4959 0da3 04       		.byte	0x4
 4960 0da4 F1030000 		.4byte	0x3f1
 4961 0da8 18       		.uleb128 0x18
 4962 0da9 44030000 		.4byte	.LASF100
 4963 0dad 01       		.byte	0x1
 4964 0dae 8F01     		.2byte	0x18f
 4965 0db0 0F060000 		.4byte	0x60f
 4966 0db4 00000000 		.4byte	.LFB17
 4967 0db8 E4040000 		.4byte	.LFE17-.LFB17
 4968 0dbc 01       		.uleb128 0x1
 4969 0dbd 9C       		.byte	0x9c
 4970 0dbe AE140000 		.4byte	0x14ae
 4971 0dc2 1B       		.uleb128 0x1b
 4972 0dc3 72737000 		.ascii	"rsp\000"
 4973 0dc7 01       		.byte	0x1
 4974 0dc8 9101     		.2byte	0x191
 4975 0dca AE140000 		.4byte	0x14ae
 4976 0dce 02       		.uleb128 0x2
 4977 0dcf 91       		.byte	0x91
 4978 0dd0 58       		.sleb128 -40
 4979 0dd1 1D       		.uleb128 0x1d
 4980 0dd2 82030000 		.4byte	.LASF101
 4981 0dd6 01       		.byte	0x1
 4982 0dd7 9201     		.2byte	0x192
 4983 0dd9 4F0C0000 		.4byte	0xc4f
 4984 0ddd 5B060000 		.4byte	.LLST41
 4985 0de1 1D       		.uleb128 0x1d
 4986 0de2 38040000 		.4byte	.LASF97
 4987 0de6 01       		.byte	0x1
 4988 0de7 9301     		.2byte	0x193
 4989 0de9 A20D0000 		.4byte	0xda2
 4990 0ded 5B060000 		.4byte	.LLST41
 4991 0df1 1C       		.uleb128 0x1c
ARM GAS  C:\Users\TERENC~1\AppData\Local\Temp\ccyX5Aoq.s 			page 102


 4992 0df2 72657400 		.ascii	"ret\000"
 4993 0df6 01       		.byte	0x1
 4994 0df7 9401     		.2byte	0x194
 4995 0df9 0F060000 		.4byte	0x60f
 4996 0dfd 7B060000 		.4byte	.LLST43
 4997 0e01 13       		.uleb128 0x13
 4998 0e02 18000000 		.4byte	.LBB7
 4999 0e06 2A000000 		.4byte	.LBE7-.LBB7
 5000 0e0a 5A0E0000 		.4byte	0xe5a
 5001 0e0e 1C       		.uleb128 0x1c
 5002 0e0f 733100   		.ascii	"s1\000"
 5003 0e12 01       		.byte	0x1
 5004 0e13 9701     		.2byte	0x197
 5005 0e15 A2000000 		.4byte	0xa2
 5006 0e19 AF060000 		.4byte	.LLST44
 5007 0e1d 0F       		.uleb128 0xf
 5008 0e1e 20000000 		.4byte	.LVL161
 5009 0e22 AE1D0000 		.4byte	0x1dae
 5010 0e26 14       		.uleb128 0x14
 5011 0e27 3C000000 		.4byte	.LVL163
 5012 0e2b B91D0000 		.4byte	0x1db9
 5013 0e2f 490E0000 		.4byte	0xe49
 5014 0e33 15       		.uleb128 0x15
 5015 0e34 01       		.uleb128 0x1
 5016 0e35 50       		.byte	0x50
 5017 0e36 02       		.uleb128 0x2
 5018 0e37 75       		.byte	0x75
 5019 0e38 00       		.sleb128 0
 5020 0e39 15       		.uleb128 0x15
 5021 0e3a 01       		.uleb128 0x1
 5022 0e3b 51       		.byte	0x51
 5023 0e3c 05       		.uleb128 0x5
 5024 0e3d 03       		.byte	0x3
 5025 0e3e 90000000 		.4byte	.LC17
 5026 0e42 15       		.uleb128 0x15
 5027 0e43 01       		.uleb128 0x1
 5028 0e44 52       		.byte	0x52
 5029 0e45 02       		.uleb128 0x2
 5030 0e46 08       		.byte	0x8
 5031 0e47 22       		.byte	0x22
 5032 0e48 00       		.byte	0
 5033 0e49 16       		.uleb128 0x16
 5034 0e4a 42000000 		.4byte	.LVL164
 5035 0e4e C21D0000 		.4byte	0x1dc2
 5036 0e52 15       		.uleb128 0x15
 5037 0e53 01       		.uleb128 0x1
 5038 0e54 50       		.byte	0x50
 5039 0e55 02       		.uleb128 0x2
 5040 0e56 75       		.byte	0x75
 5041 0e57 00       		.sleb128 0
 5042 0e58 00       		.byte	0
 5043 0e59 00       		.byte	0
 5044 0e5a 13       		.uleb128 0x13
 5045 0e5b 60000000 		.4byte	.LBB8
 5046 0e5f 34000000 		.4byte	.LBE8-.LBB8
 5047 0e63 AD0E0000 		.4byte	0xead
 5048 0e67 1C       		.uleb128 0x1c
ARM GAS  C:\Users\TERENC~1\AppData\Local\Temp\ccyX5Aoq.s 			page 103


 5049 0e68 733100   		.ascii	"s1\000"
 5050 0e6b 01       		.byte	0x1
 5051 0e6c A301     		.2byte	0x1a3
 5052 0e6e A2000000 		.4byte	0xa2
 5053 0e72 C2060000 		.4byte	.LLST45
 5054 0e76 0F       		.uleb128 0xf
 5055 0e77 68000000 		.4byte	.LVL168
 5056 0e7b AE1D0000 		.4byte	0x1dae
 5057 0e7f 14       		.uleb128 0x14
 5058 0e80 8E000000 		.4byte	.LVL170
 5059 0e84 811E0000 		.4byte	0x1e81
 5060 0e88 9C0E0000 		.4byte	0xe9c
 5061 0e8c 15       		.uleb128 0x15
 5062 0e8d 01       		.uleb128 0x1
 5063 0e8e 50       		.byte	0x50
 5064 0e8f 02       		.uleb128 0x2
 5065 0e90 74       		.byte	0x74
 5066 0e91 00       		.sleb128 0
 5067 0e92 15       		.uleb128 0x15
 5068 0e93 01       		.uleb128 0x1
 5069 0e94 51       		.byte	0x51
 5070 0e95 05       		.uleb128 0x5
 5071 0e96 03       		.byte	0x3
 5072 0e97 B4000000 		.4byte	.LC19
 5073 0e9b 00       		.byte	0
 5074 0e9c 16       		.uleb128 0x16
 5075 0e9d 94000000 		.4byte	.LVL171
 5076 0ea1 C21D0000 		.4byte	0x1dc2
 5077 0ea5 15       		.uleb128 0x15
 5078 0ea6 01       		.uleb128 0x1
 5079 0ea7 50       		.byte	0x50
 5080 0ea8 02       		.uleb128 0x2
 5081 0ea9 74       		.byte	0x74
 5082 0eaa 00       		.sleb128 0
 5083 0eab 00       		.byte	0
 5084 0eac 00       		.byte	0
 5085 0ead 13       		.uleb128 0x13
 5086 0eae 9C000000 		.4byte	.LBB9
 5087 0eb2 30000000 		.4byte	.LBE9-.LBB9
 5088 0eb6 000F0000 		.4byte	0xf00
 5089 0eba 1C       		.uleb128 0x1c
 5090 0ebb 733100   		.ascii	"s1\000"
 5091 0ebe 01       		.byte	0x1
 5092 0ebf A501     		.2byte	0x1a5
 5093 0ec1 A2000000 		.4byte	0xa2
 5094 0ec5 D5060000 		.4byte	.LLST46
 5095 0ec9 0F       		.uleb128 0xf
 5096 0eca A4000000 		.4byte	.LVL174
 5097 0ece AE1D0000 		.4byte	0x1dae
 5098 0ed2 14       		.uleb128 0x14
 5099 0ed3 C6000000 		.4byte	.LVL176
 5100 0ed7 811E0000 		.4byte	0x1e81
 5101 0edb EF0E0000 		.4byte	0xeef
 5102 0edf 15       		.uleb128 0x15
 5103 0ee0 01       		.uleb128 0x1
 5104 0ee1 50       		.byte	0x50
 5105 0ee2 02       		.uleb128 0x2
ARM GAS  C:\Users\TERENC~1\AppData\Local\Temp\ccyX5Aoq.s 			page 104


 5106 0ee3 74       		.byte	0x74
 5107 0ee4 00       		.sleb128 0
 5108 0ee5 15       		.uleb128 0x15
 5109 0ee6 01       		.uleb128 0x1
 5110 0ee7 51       		.byte	0x51
 5111 0ee8 05       		.uleb128 0x5
 5112 0ee9 03       		.byte	0x3
 5113 0eea C8000000 		.4byte	.LC21
 5114 0eee 00       		.byte	0
 5115 0eef 16       		.uleb128 0x16
 5116 0ef0 CC000000 		.4byte	.LVL177
 5117 0ef4 C21D0000 		.4byte	0x1dc2
 5118 0ef8 15       		.uleb128 0x15
 5119 0ef9 01       		.uleb128 0x1
 5120 0efa 50       		.byte	0x50
 5121 0efb 02       		.uleb128 0x2
 5122 0efc 74       		.byte	0x74
 5123 0efd 00       		.sleb128 0
 5124 0efe 00       		.byte	0
 5125 0eff 00       		.byte	0
 5126 0f00 13       		.uleb128 0x13
 5127 0f01 D4000000 		.4byte	.LBB10
 5128 0f05 2E000000 		.4byte	.LBE10-.LBB10
 5129 0f09 530F0000 		.4byte	0xf53
 5130 0f0d 1C       		.uleb128 0x1c
 5131 0f0e 733100   		.ascii	"s1\000"
 5132 0f11 01       		.byte	0x1
 5133 0f12 A601     		.2byte	0x1a6
 5134 0f14 A2000000 		.4byte	0xa2
 5135 0f18 E8060000 		.4byte	.LLST47
 5136 0f1c 0F       		.uleb128 0xf
 5137 0f1d DC000000 		.4byte	.LVL180
 5138 0f21 AE1D0000 		.4byte	0x1dae
 5139 0f25 14       		.uleb128 0x14
 5140 0f26 FC000000 		.4byte	.LVL182
 5141 0f2a 811E0000 		.4byte	0x1e81
 5142 0f2e 420F0000 		.4byte	0xf42
 5143 0f32 15       		.uleb128 0x15
 5144 0f33 01       		.uleb128 0x1
 5145 0f34 50       		.byte	0x50
 5146 0f35 02       		.uleb128 0x2
 5147 0f36 74       		.byte	0x74
 5148 0f37 00       		.sleb128 0
 5149 0f38 15       		.uleb128 0x15
 5150 0f39 01       		.uleb128 0x1
 5151 0f3a 51       		.byte	0x51
 5152 0f3b 05       		.uleb128 0x5
 5153 0f3c 03       		.byte	0x3
 5154 0f3d DC000000 		.4byte	.LC23
 5155 0f41 00       		.byte	0
 5156 0f42 16       		.uleb128 0x16
 5157 0f43 02010000 		.4byte	.LVL183
 5158 0f47 C21D0000 		.4byte	0x1dc2
 5159 0f4b 15       		.uleb128 0x15
 5160 0f4c 01       		.uleb128 0x1
 5161 0f4d 50       		.byte	0x50
 5162 0f4e 02       		.uleb128 0x2
ARM GAS  C:\Users\TERENC~1\AppData\Local\Temp\ccyX5Aoq.s 			page 105


 5163 0f4f 74       		.byte	0x74
 5164 0f50 00       		.sleb128 0
 5165 0f51 00       		.byte	0
 5166 0f52 00       		.byte	0
 5167 0f53 13       		.uleb128 0x13
 5168 0f54 0A010000 		.4byte	.LBB11
 5169 0f58 2C000000 		.4byte	.LBE11-.LBB11
 5170 0f5c A60F0000 		.4byte	0xfa6
 5171 0f60 1C       		.uleb128 0x1c
 5172 0f61 733100   		.ascii	"s1\000"
 5173 0f64 01       		.byte	0x1
 5174 0f65 A801     		.2byte	0x1a8
 5175 0f67 A2000000 		.4byte	0xa2
 5176 0f6b FB060000 		.4byte	.LLST48
 5177 0f6f 0F       		.uleb128 0xf
 5178 0f70 12010000 		.4byte	.LVL186
 5179 0f74 AE1D0000 		.4byte	0x1dae
 5180 0f78 14       		.uleb128 0x14
 5181 0f79 30010000 		.4byte	.LVL188
 5182 0f7d 811E0000 		.4byte	0x1e81
 5183 0f81 950F0000 		.4byte	0xf95
 5184 0f85 15       		.uleb128 0x15
 5185 0f86 01       		.uleb128 0x1
 5186 0f87 50       		.byte	0x50
 5187 0f88 02       		.uleb128 0x2
 5188 0f89 74       		.byte	0x74
 5189 0f8a 00       		.sleb128 0
 5190 0f8b 15       		.uleb128 0x15
 5191 0f8c 01       		.uleb128 0x1
 5192 0f8d 51       		.byte	0x51
 5193 0f8e 05       		.uleb128 0x5
 5194 0f8f 03       		.byte	0x3
 5195 0f90 F0000000 		.4byte	.LC25
 5196 0f94 00       		.byte	0
 5197 0f95 16       		.uleb128 0x16
 5198 0f96 36010000 		.4byte	.LVL189
 5199 0f9a C21D0000 		.4byte	0x1dc2
 5200 0f9e 15       		.uleb128 0x15
 5201 0f9f 01       		.uleb128 0x1
 5202 0fa0 50       		.byte	0x50
 5203 0fa1 02       		.uleb128 0x2
 5204 0fa2 74       		.byte	0x74
 5205 0fa3 00       		.sleb128 0
 5206 0fa4 00       		.byte	0
 5207 0fa5 00       		.byte	0
 5208 0fa6 13       		.uleb128 0x13
 5209 0fa7 3E010000 		.4byte	.LBB12
 5210 0fab 2C000000 		.4byte	.LBE12-.LBB12
 5211 0faf F90F0000 		.4byte	0xff9
 5212 0fb3 1C       		.uleb128 0x1c
 5213 0fb4 733100   		.ascii	"s1\000"
 5214 0fb7 01       		.byte	0x1
 5215 0fb8 A901     		.2byte	0x1a9
 5216 0fba A2000000 		.4byte	0xa2
 5217 0fbe 0E070000 		.4byte	.LLST49
 5218 0fc2 0F       		.uleb128 0xf
 5219 0fc3 46010000 		.4byte	.LVL192
ARM GAS  C:\Users\TERENC~1\AppData\Local\Temp\ccyX5Aoq.s 			page 106


 5220 0fc7 AE1D0000 		.4byte	0x1dae
 5221 0fcb 14       		.uleb128 0x14
 5222 0fcc 64010000 		.4byte	.LVL194
 5223 0fd0 811E0000 		.4byte	0x1e81
 5224 0fd4 E80F0000 		.4byte	0xfe8
 5225 0fd8 15       		.uleb128 0x15
 5226 0fd9 01       		.uleb128 0x1
 5227 0fda 50       		.byte	0x50
 5228 0fdb 02       		.uleb128 0x2
 5229 0fdc 74       		.byte	0x74
 5230 0fdd 00       		.sleb128 0
 5231 0fde 15       		.uleb128 0x15
 5232 0fdf 01       		.uleb128 0x1
 5233 0fe0 51       		.byte	0x51
 5234 0fe1 05       		.uleb128 0x5
 5235 0fe2 03       		.byte	0x3
 5236 0fe3 04010000 		.4byte	.LC27
 5237 0fe7 00       		.byte	0
 5238 0fe8 16       		.uleb128 0x16
 5239 0fe9 6A010000 		.4byte	.LVL195
 5240 0fed C21D0000 		.4byte	0x1dc2
 5241 0ff1 15       		.uleb128 0x15
 5242 0ff2 01       		.uleb128 0x1
 5243 0ff3 50       		.byte	0x50
 5244 0ff4 02       		.uleb128 0x2
 5245 0ff5 74       		.byte	0x74
 5246 0ff6 00       		.sleb128 0
 5247 0ff7 00       		.byte	0
 5248 0ff8 00       		.byte	0
 5249 0ff9 13       		.uleb128 0x13
 5250 0ffa 72010000 		.4byte	.LBB13
 5251 0ffe 34000000 		.4byte	.LBE13-.LBB13
 5252 1002 4C100000 		.4byte	0x104c
 5253 1006 1C       		.uleb128 0x1c
 5254 1007 733100   		.ascii	"s1\000"
 5255 100a 01       		.byte	0x1
 5256 100b AA01     		.2byte	0x1aa
 5257 100d A2000000 		.4byte	0xa2
 5258 1011 21070000 		.4byte	.LLST50
 5259 1015 0F       		.uleb128 0xf
 5260 1016 7A010000 		.4byte	.LVL198
 5261 101a AE1D0000 		.4byte	0x1dae
 5262 101e 14       		.uleb128 0x14
 5263 101f A0010000 		.4byte	.LVL200
 5264 1023 811E0000 		.4byte	0x1e81
 5265 1027 3B100000 		.4byte	0x103b
 5266 102b 15       		.uleb128 0x15
 5267 102c 01       		.uleb128 0x1
 5268 102d 50       		.byte	0x50
 5269 102e 02       		.uleb128 0x2
 5270 102f 74       		.byte	0x74
 5271 1030 00       		.sleb128 0
 5272 1031 15       		.uleb128 0x15
 5273 1032 01       		.uleb128 0x1
 5274 1033 51       		.byte	0x51
 5275 1034 05       		.uleb128 0x5
 5276 1035 03       		.byte	0x3
ARM GAS  C:\Users\TERENC~1\AppData\Local\Temp\ccyX5Aoq.s 			page 107


 5277 1036 18010000 		.4byte	.LC29
 5278 103a 00       		.byte	0
 5279 103b 16       		.uleb128 0x16
 5280 103c A6010000 		.4byte	.LVL201
 5281 1040 C21D0000 		.4byte	0x1dc2
 5282 1044 15       		.uleb128 0x15
 5283 1045 01       		.uleb128 0x1
 5284 1046 50       		.byte	0x50
 5285 1047 02       		.uleb128 0x2
 5286 1048 74       		.byte	0x74
 5287 1049 00       		.sleb128 0
 5288 104a 00       		.byte	0
 5289 104b 00       		.byte	0
 5290 104c 13       		.uleb128 0x13
 5291 104d AE010000 		.4byte	.LBB14
 5292 1051 2C000000 		.4byte	.LBE14-.LBB14
 5293 1055 9F100000 		.4byte	0x109f
 5294 1059 1C       		.uleb128 0x1c
 5295 105a 733100   		.ascii	"s1\000"
 5296 105d 01       		.byte	0x1
 5297 105e AC01     		.2byte	0x1ac
 5298 1060 A2000000 		.4byte	0xa2
 5299 1064 34070000 		.4byte	.LLST51
 5300 1068 0F       		.uleb128 0xf
 5301 1069 B6010000 		.4byte	.LVL204
 5302 106d AE1D0000 		.4byte	0x1dae
 5303 1071 14       		.uleb128 0x14
 5304 1072 D4010000 		.4byte	.LVL206
 5305 1076 811E0000 		.4byte	0x1e81
 5306 107a 8E100000 		.4byte	0x108e
 5307 107e 15       		.uleb128 0x15
 5308 107f 01       		.uleb128 0x1
 5309 1080 50       		.byte	0x50
 5310 1081 02       		.uleb128 0x2
 5311 1082 74       		.byte	0x74
 5312 1083 00       		.sleb128 0
 5313 1084 15       		.uleb128 0x15
 5314 1085 01       		.uleb128 0x1
 5315 1086 51       		.byte	0x51
 5316 1087 05       		.uleb128 0x5
 5317 1088 03       		.byte	0x3
 5318 1089 2C010000 		.4byte	.LC31
 5319 108d 00       		.byte	0
 5320 108e 16       		.uleb128 0x16
 5321 108f DA010000 		.4byte	.LVL207
 5322 1093 C21D0000 		.4byte	0x1dc2
 5323 1097 15       		.uleb128 0x15
 5324 1098 01       		.uleb128 0x1
 5325 1099 50       		.byte	0x50
 5326 109a 02       		.uleb128 0x2
 5327 109b 74       		.byte	0x74
 5328 109c 00       		.sleb128 0
 5329 109d 00       		.byte	0
 5330 109e 00       		.byte	0
 5331 109f 13       		.uleb128 0x13
 5332 10a0 E2010000 		.4byte	.LBB15
 5333 10a4 30000000 		.4byte	.LBE15-.LBB15
ARM GAS  C:\Users\TERENC~1\AppData\Local\Temp\ccyX5Aoq.s 			page 108


 5334 10a8 F2100000 		.4byte	0x10f2
 5335 10ac 1C       		.uleb128 0x1c
 5336 10ad 733100   		.ascii	"s1\000"
 5337 10b0 01       		.byte	0x1
 5338 10b1 AD01     		.2byte	0x1ad
 5339 10b3 A2000000 		.4byte	0xa2
 5340 10b7 47070000 		.4byte	.LLST52
 5341 10bb 0F       		.uleb128 0xf
 5342 10bc EA010000 		.4byte	.LVL210
 5343 10c0 AE1D0000 		.4byte	0x1dae
 5344 10c4 14       		.uleb128 0x14
 5345 10c5 0C020000 		.4byte	.LVL212
 5346 10c9 811E0000 		.4byte	0x1e81
 5347 10cd E1100000 		.4byte	0x10e1
 5348 10d1 15       		.uleb128 0x15
 5349 10d2 01       		.uleb128 0x1
 5350 10d3 50       		.byte	0x50
 5351 10d4 02       		.uleb128 0x2
 5352 10d5 74       		.byte	0x74
 5353 10d6 00       		.sleb128 0
 5354 10d7 15       		.uleb128 0x15
 5355 10d8 01       		.uleb128 0x1
 5356 10d9 51       		.byte	0x51
 5357 10da 05       		.uleb128 0x5
 5358 10db 03       		.byte	0x3
 5359 10dc 40010000 		.4byte	.LC33
 5360 10e0 00       		.byte	0
 5361 10e1 16       		.uleb128 0x16
 5362 10e2 12020000 		.4byte	.LVL213
 5363 10e6 C21D0000 		.4byte	0x1dc2
 5364 10ea 15       		.uleb128 0x15
 5365 10eb 01       		.uleb128 0x1
 5366 10ec 50       		.byte	0x50
 5367 10ed 02       		.uleb128 0x2
 5368 10ee 74       		.byte	0x74
 5369 10ef 00       		.sleb128 0
 5370 10f0 00       		.byte	0
 5371 10f1 00       		.byte	0
 5372 10f2 13       		.uleb128 0x13
 5373 10f3 1A020000 		.4byte	.LBB16
 5374 10f7 2E000000 		.4byte	.LBE16-.LBB16
 5375 10fb 45110000 		.4byte	0x1145
 5376 10ff 1C       		.uleb128 0x1c
 5377 1100 733100   		.ascii	"s1\000"
 5378 1103 01       		.byte	0x1
 5379 1104 AE01     		.2byte	0x1ae
 5380 1106 A2000000 		.4byte	0xa2
 5381 110a 5A070000 		.4byte	.LLST53
 5382 110e 0F       		.uleb128 0xf
 5383 110f 22020000 		.4byte	.LVL216
 5384 1113 AE1D0000 		.4byte	0x1dae
 5385 1117 14       		.uleb128 0x14
 5386 1118 42020000 		.4byte	.LVL218
 5387 111c 811E0000 		.4byte	0x1e81
 5388 1120 34110000 		.4byte	0x1134
 5389 1124 15       		.uleb128 0x15
 5390 1125 01       		.uleb128 0x1
ARM GAS  C:\Users\TERENC~1\AppData\Local\Temp\ccyX5Aoq.s 			page 109


 5391 1126 50       		.byte	0x50
 5392 1127 02       		.uleb128 0x2
 5393 1128 74       		.byte	0x74
 5394 1129 00       		.sleb128 0
 5395 112a 15       		.uleb128 0x15
 5396 112b 01       		.uleb128 0x1
 5397 112c 51       		.byte	0x51
 5398 112d 05       		.uleb128 0x5
 5399 112e 03       		.byte	0x3
 5400 112f 54010000 		.4byte	.LC35
 5401 1133 00       		.byte	0
 5402 1134 16       		.uleb128 0x16
 5403 1135 48020000 		.4byte	.LVL219
 5404 1139 C21D0000 		.4byte	0x1dc2
 5405 113d 15       		.uleb128 0x15
 5406 113e 01       		.uleb128 0x1
 5407 113f 50       		.byte	0x50
 5408 1140 02       		.uleb128 0x2
 5409 1141 74       		.byte	0x74
 5410 1142 00       		.sleb128 0
 5411 1143 00       		.byte	0
 5412 1144 00       		.byte	0
 5413 1145 13       		.uleb128 0x13
 5414 1146 50020000 		.4byte	.LBB17
 5415 114a 34000000 		.4byte	.LBE17-.LBB17
 5416 114e 98110000 		.4byte	0x1198
 5417 1152 1C       		.uleb128 0x1c
 5418 1153 733100   		.ascii	"s1\000"
 5419 1156 01       		.byte	0x1
 5420 1157 AF01     		.2byte	0x1af
 5421 1159 A2000000 		.4byte	0xa2
 5422 115d 6D070000 		.4byte	.LLST54
 5423 1161 0F       		.uleb128 0xf
 5424 1162 58020000 		.4byte	.LVL222
 5425 1166 AE1D0000 		.4byte	0x1dae
 5426 116a 14       		.uleb128 0x14
 5427 116b 7E020000 		.4byte	.LVL224
 5428 116f 811E0000 		.4byte	0x1e81
 5429 1173 87110000 		.4byte	0x1187
 5430 1177 15       		.uleb128 0x15
 5431 1178 01       		.uleb128 0x1
 5432 1179 50       		.byte	0x50
 5433 117a 02       		.uleb128 0x2
 5434 117b 74       		.byte	0x74
 5435 117c 00       		.sleb128 0
 5436 117d 15       		.uleb128 0x15
 5437 117e 01       		.uleb128 0x1
 5438 117f 51       		.byte	0x51
 5439 1180 05       		.uleb128 0x5
 5440 1181 03       		.byte	0x3
 5441 1182 68010000 		.4byte	.LC37
 5442 1186 00       		.byte	0
 5443 1187 16       		.uleb128 0x16
 5444 1188 84020000 		.4byte	.LVL225
 5445 118c C21D0000 		.4byte	0x1dc2
 5446 1190 15       		.uleb128 0x15
 5447 1191 01       		.uleb128 0x1
ARM GAS  C:\Users\TERENC~1\AppData\Local\Temp\ccyX5Aoq.s 			page 110


 5448 1192 50       		.byte	0x50
 5449 1193 02       		.uleb128 0x2
 5450 1194 74       		.byte	0x74
 5451 1195 00       		.sleb128 0
 5452 1196 00       		.byte	0
 5453 1197 00       		.byte	0
 5454 1198 13       		.uleb128 0x13
 5455 1199 8C020000 		.4byte	.LBB18
 5456 119d 44000000 		.4byte	.LBE18-.LBB18
 5457 11a1 EB110000 		.4byte	0x11eb
 5458 11a5 1C       		.uleb128 0x1c
 5459 11a6 733100   		.ascii	"s1\000"
 5460 11a9 01       		.byte	0x1
 5461 11aa B101     		.2byte	0x1b1
 5462 11ac A2000000 		.4byte	0xa2
 5463 11b0 80070000 		.4byte	.LLST55
 5464 11b4 0F       		.uleb128 0xf
 5465 11b5 94020000 		.4byte	.LVL228
 5466 11b9 AE1D0000 		.4byte	0x1dae
 5467 11bd 14       		.uleb128 0x14
 5468 11be CA020000 		.4byte	.LVL230
 5469 11c2 811E0000 		.4byte	0x1e81
 5470 11c6 DA110000 		.4byte	0x11da
 5471 11ca 15       		.uleb128 0x15
 5472 11cb 01       		.uleb128 0x1
 5473 11cc 50       		.byte	0x50
 5474 11cd 02       		.uleb128 0x2
 5475 11ce 74       		.byte	0x74
 5476 11cf 00       		.sleb128 0
 5477 11d0 15       		.uleb128 0x15
 5478 11d1 01       		.uleb128 0x1
 5479 11d2 51       		.byte	0x51
 5480 11d3 05       		.uleb128 0x5
 5481 11d4 03       		.byte	0x3
 5482 11d5 7C010000 		.4byte	.LC39
 5483 11d9 00       		.byte	0
 5484 11da 16       		.uleb128 0x16
 5485 11db D0020000 		.4byte	.LVL231
 5486 11df C21D0000 		.4byte	0x1dc2
 5487 11e3 15       		.uleb128 0x15
 5488 11e4 01       		.uleb128 0x1
 5489 11e5 50       		.byte	0x50
 5490 11e6 02       		.uleb128 0x2
 5491 11e7 74       		.byte	0x74
 5492 11e8 00       		.sleb128 0
 5493 11e9 00       		.byte	0
 5494 11ea 00       		.byte	0
 5495 11eb 13       		.uleb128 0x13
 5496 11ec D8020000 		.4byte	.LBB19
 5497 11f0 34000000 		.4byte	.LBE19-.LBB19
 5498 11f4 3E120000 		.4byte	0x123e
 5499 11f8 1C       		.uleb128 0x1c
 5500 11f9 733100   		.ascii	"s1\000"
 5501 11fc 01       		.byte	0x1
 5502 11fd B301     		.2byte	0x1b3
 5503 11ff A2000000 		.4byte	0xa2
 5504 1203 93070000 		.4byte	.LLST56
ARM GAS  C:\Users\TERENC~1\AppData\Local\Temp\ccyX5Aoq.s 			page 111


 5505 1207 0F       		.uleb128 0xf
 5506 1208 E0020000 		.4byte	.LVL234
 5507 120c AE1D0000 		.4byte	0x1dae
 5508 1210 14       		.uleb128 0x14
 5509 1211 06030000 		.4byte	.LVL236
 5510 1215 811E0000 		.4byte	0x1e81
 5511 1219 2D120000 		.4byte	0x122d
 5512 121d 15       		.uleb128 0x15
 5513 121e 01       		.uleb128 0x1
 5514 121f 50       		.byte	0x50
 5515 1220 02       		.uleb128 0x2
 5516 1221 74       		.byte	0x74
 5517 1222 00       		.sleb128 0
 5518 1223 15       		.uleb128 0x15
 5519 1224 01       		.uleb128 0x1
 5520 1225 51       		.byte	0x51
 5521 1226 05       		.uleb128 0x5
 5522 1227 03       		.byte	0x3
 5523 1228 90010000 		.4byte	.LC41
 5524 122c 00       		.byte	0
 5525 122d 16       		.uleb128 0x16
 5526 122e 0C030000 		.4byte	.LVL237
 5527 1232 C21D0000 		.4byte	0x1dc2
 5528 1236 15       		.uleb128 0x15
 5529 1237 01       		.uleb128 0x1
 5530 1238 50       		.byte	0x50
 5531 1239 02       		.uleb128 0x2
 5532 123a 74       		.byte	0x74
 5533 123b 00       		.sleb128 0
 5534 123c 00       		.byte	0
 5535 123d 00       		.byte	0
 5536 123e 13       		.uleb128 0x13
 5537 123f 14030000 		.4byte	.LBB20
 5538 1243 34000000 		.4byte	.LBE20-.LBB20
 5539 1247 91120000 		.4byte	0x1291
 5540 124b 1C       		.uleb128 0x1c
 5541 124c 733100   		.ascii	"s1\000"
 5542 124f 01       		.byte	0x1
 5543 1250 B401     		.2byte	0x1b4
 5544 1252 A2000000 		.4byte	0xa2
 5545 1256 A6070000 		.4byte	.LLST57
 5546 125a 0F       		.uleb128 0xf
 5547 125b 1C030000 		.4byte	.LVL240
 5548 125f AE1D0000 		.4byte	0x1dae
 5549 1263 14       		.uleb128 0x14
 5550 1264 42030000 		.4byte	.LVL242
 5551 1268 811E0000 		.4byte	0x1e81
 5552 126c 80120000 		.4byte	0x1280
 5553 1270 15       		.uleb128 0x15
 5554 1271 01       		.uleb128 0x1
 5555 1272 50       		.byte	0x50
 5556 1273 02       		.uleb128 0x2
 5557 1274 74       		.byte	0x74
 5558 1275 00       		.sleb128 0
 5559 1276 15       		.uleb128 0x15
 5560 1277 01       		.uleb128 0x1
 5561 1278 51       		.byte	0x51
ARM GAS  C:\Users\TERENC~1\AppData\Local\Temp\ccyX5Aoq.s 			page 112


 5562 1279 05       		.uleb128 0x5
 5563 127a 03       		.byte	0x3
 5564 127b A4010000 		.4byte	.LC43
 5565 127f 00       		.byte	0
 5566 1280 16       		.uleb128 0x16
 5567 1281 48030000 		.4byte	.LVL243
 5568 1285 C21D0000 		.4byte	0x1dc2
 5569 1289 15       		.uleb128 0x15
 5570 128a 01       		.uleb128 0x1
 5571 128b 50       		.byte	0x50
 5572 128c 02       		.uleb128 0x2
 5573 128d 74       		.byte	0x74
 5574 128e 00       		.sleb128 0
 5575 128f 00       		.byte	0
 5576 1290 00       		.byte	0
 5577 1291 13       		.uleb128 0x13
 5578 1292 5C030000 		.4byte	.LBB21
 5579 1296 2A000000 		.4byte	.LBE21-.LBB21
 5580 129a EA120000 		.4byte	0x12ea
 5581 129e 1C       		.uleb128 0x1c
 5582 129f 733100   		.ascii	"s1\000"
 5583 12a2 01       		.byte	0x1
 5584 12a3 B901     		.2byte	0x1b9
 5585 12a5 A2000000 		.4byte	0xa2
 5586 12a9 B9070000 		.4byte	.LLST58
 5587 12ad 0F       		.uleb128 0xf
 5588 12ae 64030000 		.4byte	.LVL248
 5589 12b2 AE1D0000 		.4byte	0x1dae
 5590 12b6 14       		.uleb128 0x14
 5591 12b7 80030000 		.4byte	.LVL250
 5592 12bb B91D0000 		.4byte	0x1db9
 5593 12bf D9120000 		.4byte	0x12d9
 5594 12c3 15       		.uleb128 0x15
 5595 12c4 01       		.uleb128 0x1
 5596 12c5 50       		.byte	0x50
 5597 12c6 02       		.uleb128 0x2
 5598 12c7 75       		.byte	0x75
 5599 12c8 00       		.sleb128 0
 5600 12c9 15       		.uleb128 0x15
 5601 12ca 01       		.uleb128 0x1
 5602 12cb 51       		.byte	0x51
 5603 12cc 05       		.uleb128 0x5
 5604 12cd 03       		.byte	0x3
 5605 12ce B8010000 		.4byte	.LC45
 5606 12d2 15       		.uleb128 0x15
 5607 12d3 01       		.uleb128 0x1
 5608 12d4 52       		.byte	0x52
 5609 12d5 02       		.uleb128 0x2
 5610 12d6 08       		.byte	0x8
 5611 12d7 22       		.byte	0x22
 5612 12d8 00       		.byte	0
 5613 12d9 16       		.uleb128 0x16
 5614 12da 86030000 		.4byte	.LVL251
 5615 12de C21D0000 		.4byte	0x1dc2
 5616 12e2 15       		.uleb128 0x15
 5617 12e3 01       		.uleb128 0x1
 5618 12e4 50       		.byte	0x50
ARM GAS  C:\Users\TERENC~1\AppData\Local\Temp\ccyX5Aoq.s 			page 113


 5619 12e5 02       		.uleb128 0x2
 5620 12e6 75       		.byte	0x75
 5621 12e7 00       		.sleb128 0
 5622 12e8 00       		.byte	0
 5623 12e9 00       		.byte	0
 5624 12ea 13       		.uleb128 0x13
 5625 12eb D8030000 		.4byte	.LBB22
 5626 12ef 46000000 		.4byte	.LBE22-.LBB22
 5627 12f3 3D130000 		.4byte	0x133d
 5628 12f7 1C       		.uleb128 0x1c
 5629 12f8 733100   		.ascii	"s1\000"
 5630 12fb 01       		.byte	0x1
 5631 12fc BD01     		.2byte	0x1bd
 5632 12fe A2000000 		.4byte	0xa2
 5633 1302 CC070000 		.4byte	.LLST59
 5634 1306 0F       		.uleb128 0xf
 5635 1307 E0030000 		.4byte	.LVL255
 5636 130b AE1D0000 		.4byte	0x1dae
 5637 130f 14       		.uleb128 0x14
 5638 1310 18040000 		.4byte	.LVL257
 5639 1314 811E0000 		.4byte	0x1e81
 5640 1318 2C130000 		.4byte	0x132c
 5641 131c 15       		.uleb128 0x15
 5642 131d 01       		.uleb128 0x1
 5643 131e 50       		.byte	0x50
 5644 131f 02       		.uleb128 0x2
 5645 1320 75       		.byte	0x75
 5646 1321 00       		.sleb128 0
 5647 1322 15       		.uleb128 0x15
 5648 1323 01       		.uleb128 0x1
 5649 1324 51       		.byte	0x51
 5650 1325 05       		.uleb128 0x5
 5651 1326 03       		.byte	0x3
 5652 1327 DC010000 		.4byte	.LC47
 5653 132b 00       		.byte	0
 5654 132c 16       		.uleb128 0x16
 5655 132d 1E040000 		.4byte	.LVL258
 5656 1331 C21D0000 		.4byte	0x1dc2
 5657 1335 15       		.uleb128 0x15
 5658 1336 01       		.uleb128 0x1
 5659 1337 50       		.byte	0x50
 5660 1338 02       		.uleb128 0x2
 5661 1339 75       		.byte	0x75
 5662 133a 00       		.sleb128 0
 5663 133b 00       		.byte	0
 5664 133c 00       		.byte	0
 5665 133d 13       		.uleb128 0x13
 5666 133e 26040000 		.4byte	.LBB23
 5667 1342 46000000 		.4byte	.LBE23-.LBB23
 5668 1346 90130000 		.4byte	0x1390
 5669 134a 1C       		.uleb128 0x1c
 5670 134b 733100   		.ascii	"s1\000"
 5671 134e 01       		.byte	0x1
 5672 134f BE01     		.2byte	0x1be
 5673 1351 A2000000 		.4byte	0xa2
 5674 1355 DF070000 		.4byte	.LLST60
 5675 1359 0F       		.uleb128 0xf
ARM GAS  C:\Users\TERENC~1\AppData\Local\Temp\ccyX5Aoq.s 			page 114


 5676 135a 2E040000 		.4byte	.LVL261
 5677 135e AE1D0000 		.4byte	0x1dae
 5678 1362 14       		.uleb128 0x14
 5679 1363 66040000 		.4byte	.LVL263
 5680 1367 811E0000 		.4byte	0x1e81
 5681 136b 7F130000 		.4byte	0x137f
 5682 136f 15       		.uleb128 0x15
 5683 1370 01       		.uleb128 0x1
 5684 1371 50       		.byte	0x50
 5685 1372 02       		.uleb128 0x2
 5686 1373 75       		.byte	0x75
 5687 1374 00       		.sleb128 0
 5688 1375 15       		.uleb128 0x15
 5689 1376 01       		.uleb128 0x1
 5690 1377 51       		.byte	0x51
 5691 1378 05       		.uleb128 0x5
 5692 1379 03       		.byte	0x3
 5693 137a F0010000 		.4byte	.LC49
 5694 137e 00       		.byte	0
 5695 137f 16       		.uleb128 0x16
 5696 1380 6C040000 		.4byte	.LVL264
 5697 1384 C21D0000 		.4byte	0x1dc2
 5698 1388 15       		.uleb128 0x15
 5699 1389 01       		.uleb128 0x1
 5700 138a 50       		.byte	0x50
 5701 138b 02       		.uleb128 0x2
 5702 138c 75       		.byte	0x75
 5703 138d 00       		.sleb128 0
 5704 138e 00       		.byte	0
 5705 138f 00       		.byte	0
 5706 1390 13       		.uleb128 0x13
 5707 1391 74040000 		.4byte	.LBB24
 5708 1395 46000000 		.4byte	.LBE24-.LBB24
 5709 1399 E3130000 		.4byte	0x13e3
 5710 139d 1C       		.uleb128 0x1c
 5711 139e 733100   		.ascii	"s1\000"
 5712 13a1 01       		.byte	0x1
 5713 13a2 BF01     		.2byte	0x1bf
 5714 13a4 A2000000 		.4byte	0xa2
 5715 13a8 F2070000 		.4byte	.LLST61
 5716 13ac 0F       		.uleb128 0xf
 5717 13ad 7C040000 		.4byte	.LVL267
 5718 13b1 AE1D0000 		.4byte	0x1dae
 5719 13b5 14       		.uleb128 0x14
 5720 13b6 B4040000 		.4byte	.LVL269
 5721 13ba 811E0000 		.4byte	0x1e81
 5722 13be D2130000 		.4byte	0x13d2
 5723 13c2 15       		.uleb128 0x15
 5724 13c3 01       		.uleb128 0x1
 5725 13c4 50       		.byte	0x50
 5726 13c5 02       		.uleb128 0x2
 5727 13c6 75       		.byte	0x75
 5728 13c7 00       		.sleb128 0
 5729 13c8 15       		.uleb128 0x15
 5730 13c9 01       		.uleb128 0x1
 5731 13ca 51       		.byte	0x51
 5732 13cb 05       		.uleb128 0x5
ARM GAS  C:\Users\TERENC~1\AppData\Local\Temp\ccyX5Aoq.s 			page 115


 5733 13cc 03       		.byte	0x3
 5734 13cd 04020000 		.4byte	.LC51
 5735 13d1 00       		.byte	0
 5736 13d2 16       		.uleb128 0x16
 5737 13d3 BA040000 		.4byte	.LVL270
 5738 13d7 C21D0000 		.4byte	0x1dc2
 5739 13db 15       		.uleb128 0x15
 5740 13dc 01       		.uleb128 0x1
 5741 13dd 50       		.byte	0x50
 5742 13de 02       		.uleb128 0x2
 5743 13df 75       		.byte	0x75
 5744 13e0 00       		.sleb128 0
 5745 13e1 00       		.byte	0
 5746 13e2 00       		.byte	0
 5747 13e3 14       		.uleb128 0x14
 5748 13e4 0A000000 		.4byte	.LVL157
 5749 13e8 F70A0000 		.4byte	0xaf7
 5750 13ec F7130000 		.4byte	0x13f7
 5751 13f0 15       		.uleb128 0x15
 5752 13f1 01       		.uleb128 0x1
 5753 13f2 50       		.byte	0x50
 5754 13f3 02       		.uleb128 0x2
 5755 13f4 7D       		.byte	0x7d
 5756 13f5 00       		.sleb128 0
 5757 13f6 00       		.byte	0
 5758 13f7 0F       		.uleb128 0xf
 5759 13f8 12000000 		.4byte	.LVL159
 5760 13fc D81D0000 		.4byte	0x1dd8
 5761 1400 0F       		.uleb128 0xf
 5762 1401 5C000000 		.4byte	.LVL166
 5763 1405 D81D0000 		.4byte	0x1dd8
 5764 1409 0F       		.uleb128 0xf
 5765 140a 98000000 		.4byte	.LVL172
 5766 140e D81D0000 		.4byte	0x1dd8
 5767 1412 0F       		.uleb128 0xf
 5768 1413 D0000000 		.4byte	.LVL178
 5769 1417 D81D0000 		.4byte	0x1dd8
 5770 141b 0F       		.uleb128 0xf
 5771 141c 06010000 		.4byte	.LVL184
 5772 1420 D81D0000 		.4byte	0x1dd8
 5773 1424 0F       		.uleb128 0xf
 5774 1425 3A010000 		.4byte	.LVL190
 5775 1429 D81D0000 		.4byte	0x1dd8
 5776 142d 0F       		.uleb128 0xf
 5777 142e 6E010000 		.4byte	.LVL196
 5778 1432 D81D0000 		.4byte	0x1dd8
 5779 1436 0F       		.uleb128 0xf
 5780 1437 AA010000 		.4byte	.LVL202
 5781 143b D81D0000 		.4byte	0x1dd8
 5782 143f 0F       		.uleb128 0xf
 5783 1440 DE010000 		.4byte	.LVL208
 5784 1444 D81D0000 		.4byte	0x1dd8
 5785 1448 0F       		.uleb128 0xf
 5786 1449 16020000 		.4byte	.LVL214
 5787 144d D81D0000 		.4byte	0x1dd8
 5788 1451 0F       		.uleb128 0xf
 5789 1452 4C020000 		.4byte	.LVL220
ARM GAS  C:\Users\TERENC~1\AppData\Local\Temp\ccyX5Aoq.s 			page 116


 5790 1456 D81D0000 		.4byte	0x1dd8
 5791 145a 0F       		.uleb128 0xf
 5792 145b 88020000 		.4byte	.LVL226
 5793 145f D81D0000 		.4byte	0x1dd8
 5794 1463 0F       		.uleb128 0xf
 5795 1464 D4020000 		.4byte	.LVL232
 5796 1468 D81D0000 		.4byte	0x1dd8
 5797 146c 0F       		.uleb128 0xf
 5798 146d 10030000 		.4byte	.LVL238
 5799 1471 D81D0000 		.4byte	0x1dd8
 5800 1475 14       		.uleb128 0x14
 5801 1476 4E030000 		.4byte	.LVL244
 5802 147a 5A0C0000 		.4byte	0xc5a
 5803 147e 89140000 		.4byte	0x1489
 5804 1482 15       		.uleb128 0x15
 5805 1483 01       		.uleb128 0x1
 5806 1484 50       		.byte	0x50
 5807 1485 02       		.uleb128 0x2
 5808 1486 7D       		.byte	0x7d
 5809 1487 00       		.sleb128 0
 5810 1488 00       		.byte	0
 5811 1489 0F       		.uleb128 0xf
 5812 148a 56030000 		.4byte	.LVL246
 5813 148e D81D0000 		.4byte	0x1dd8
 5814 1492 0F       		.uleb128 0xf
 5815 1493 D4030000 		.4byte	.LVL253
 5816 1497 D81D0000 		.4byte	0x1dd8
 5817 149b 0F       		.uleb128 0xf
 5818 149c 22040000 		.4byte	.LVL259
 5819 14a0 D81D0000 		.4byte	0x1dd8
 5820 14a4 0F       		.uleb128 0xf
 5821 14a5 70040000 		.4byte	.LVL265
 5822 14a9 D81D0000 		.4byte	0x1dd8
 5823 14ad 00       		.byte	0
 5824 14ae 09       		.uleb128 0x9
 5825 14af 8C000000 		.4byte	0x8c
 5826 14b3 BE140000 		.4byte	0x14be
 5827 14b7 0A       		.uleb128 0xa
 5828 14b8 AB010000 		.4byte	0x1ab
 5829 14bc 17       		.byte	0x17
 5830 14bd 00       		.byte	0
 5831 14be 18       		.uleb128 0x18
 5832 14bf 21020000 		.4byte	.LASF102
 5833 14c3 01       		.byte	0x1
 5834 14c4 C501     		.2byte	0x1c5
 5835 14c6 0F060000 		.4byte	0x60f
 5836 14ca 00000000 		.4byte	.LFB18
 5837 14ce 16000000 		.4byte	.LFE18-.LFB18
 5838 14d2 01       		.uleb128 0x1
 5839 14d3 9C       		.byte	0x9c
 5840 14d4 0E150000 		.4byte	0x150e
 5841 14d8 1C       		.uleb128 0x1c
 5842 14d9 72657400 		.ascii	"ret\000"
 5843 14dd 01       		.byte	0x1
 5844 14de C701     		.2byte	0x1c7
 5845 14e0 0F060000 		.4byte	0x60f
 5846 14e4 05080000 		.4byte	.LLST62
ARM GAS  C:\Users\TERENC~1\AppData\Local\Temp\ccyX5Aoq.s 			page 117


 5847 14e8 0F       		.uleb128 0xf
 5848 14e9 06000000 		.4byte	.LVL272
 5849 14ed 8C1E0000 		.4byte	0x1e8c
 5850 14f1 14       		.uleb128 0x14
 5851 14f2 0C000000 		.4byte	.LVL273
 5852 14f6 86090000 		.4byte	0x986
 5853 14fa 04150000 		.4byte	0x1504
 5854 14fe 15       		.uleb128 0x15
 5855 14ff 01       		.uleb128 0x1
 5856 1500 50       		.byte	0x50
 5857 1501 01       		.uleb128 0x1
 5858 1502 30       		.byte	0x30
 5859 1503 00       		.byte	0
 5860 1504 0F       		.uleb128 0xf
 5861 1505 12000000 		.4byte	.LVL275
 5862 1509 971E0000 		.4byte	0x1e97
 5863 150d 00       		.byte	0
 5864 150e 18       		.uleb128 0x18
 5865 150f 38000000 		.4byte	.LASF103
 5866 1513 01       		.byte	0x1
 5867 1514 D001     		.2byte	0x1d0
 5868 1516 0F060000 		.4byte	0x60f
 5869 151a 00000000 		.4byte	.LFB19
 5870 151e 16000000 		.4byte	.LFE19-.LFB19
 5871 1522 01       		.uleb128 0x1
 5872 1523 9C       		.byte	0x9c
 5873 1524 5E150000 		.4byte	0x155e
 5874 1528 1C       		.uleb128 0x1c
 5875 1529 72657400 		.ascii	"ret\000"
 5876 152d 01       		.byte	0x1
 5877 152e D201     		.2byte	0x1d2
 5878 1530 0F060000 		.4byte	0x60f
 5879 1534 18080000 		.4byte	.LLST63
 5880 1538 0F       		.uleb128 0xf
 5881 1539 06000000 		.4byte	.LVL277
 5882 153d 8C1E0000 		.4byte	0x1e8c
 5883 1541 14       		.uleb128 0x14
 5884 1542 0C000000 		.4byte	.LVL278
 5885 1546 86090000 		.4byte	0x986
 5886 154a 54150000 		.4byte	0x1554
 5887 154e 15       		.uleb128 0x15
 5888 154f 01       		.uleb128 0x1
 5889 1550 50       		.byte	0x50
 5890 1551 01       		.uleb128 0x1
 5891 1552 31       		.byte	0x31
 5892 1553 00       		.byte	0
 5893 1554 0F       		.uleb128 0xf
 5894 1555 12000000 		.4byte	.LVL280
 5895 1559 971E0000 		.4byte	0x1e97
 5896 155d 00       		.byte	0
 5897 155e 18       		.uleb128 0x18
 5898 155f 1A080000 		.4byte	.LASF104
 5899 1563 01       		.byte	0x1
 5900 1564 DB01     		.2byte	0x1db
 5901 1566 97000000 		.4byte	0x97
 5902 156a 00000000 		.4byte	.LFB20
 5903 156e 28000000 		.4byte	.LFE20-.LFB20
ARM GAS  C:\Users\TERENC~1\AppData\Local\Temp\ccyX5Aoq.s 			page 118


 5904 1572 01       		.uleb128 0x1
 5905 1573 9C       		.byte	0x9c
 5906 1574 C2150000 		.4byte	0x15c2
 5907 1578 1B       		.uleb128 0x1b
 5908 1579 737700   		.ascii	"sw\000"
 5909 157c 01       		.byte	0x1
 5910 157d DD01     		.2byte	0x1dd
 5911 157f 97000000 		.4byte	0x97
 5912 1583 02       		.uleb128 0x2
 5913 1584 91       		.byte	0x91
 5914 1585 76       		.sleb128 -10
 5915 1586 1A       		.uleb128 0x1a
 5916 1587 95050000 		.4byte	.LASF105
 5917 158b 01       		.byte	0x1
 5918 158c DE01     		.2byte	0x1de
 5919 158e C2150000 		.4byte	0x15c2
 5920 1592 02       		.uleb128 0x2
 5921 1593 91       		.byte	0x91
 5922 1594 74       		.sleb128 -12
 5923 1595 16       		.uleb128 0x16
 5924 1596 22000000 		.4byte	.LVL282
 5925 159a BB040000 		.4byte	0x4bb
 5926 159e 15       		.uleb128 0x15
 5927 159f 01       		.uleb128 0x1
 5928 15a0 50       		.byte	0x50
 5929 15a1 02       		.uleb128 0x2
 5930 15a2 91       		.byte	0x91
 5931 15a3 74       		.sleb128 -12
 5932 15a4 15       		.uleb128 0x15
 5933 15a5 01       		.uleb128 0x1
 5934 15a6 51       		.byte	0x51
 5935 15a7 01       		.uleb128 0x1
 5936 15a8 32       		.byte	0x32
 5937 15a9 15       		.uleb128 0x15
 5938 15aa 01       		.uleb128 0x1
 5939 15ab 52       		.byte	0x52
 5940 15ac 02       		.uleb128 0x2
 5941 15ad 74       		.byte	0x74
 5942 15ae 00       		.sleb128 0
 5943 15af 15       		.uleb128 0x15
 5944 15b0 01       		.uleb128 0x1
 5945 15b1 53       		.byte	0x53
 5946 15b2 01       		.uleb128 0x1
 5947 15b3 30       		.byte	0x30
 5948 15b4 15       		.uleb128 0x15
 5949 15b5 02       		.uleb128 0x2
 5950 15b6 7D       		.byte	0x7d
 5951 15b7 00       		.sleb128 0
 5952 15b8 01       		.uleb128 0x1
 5953 15b9 30       		.byte	0x30
 5954 15ba 15       		.uleb128 0x15
 5955 15bb 02       		.uleb128 0x2
 5956 15bc 7D       		.byte	0x7d
 5957 15bd 04       		.sleb128 4
 5958 15be 01       		.uleb128 0x1
 5959 15bf 30       		.byte	0x30
 5960 15c0 00       		.byte	0
ARM GAS  C:\Users\TERENC~1\AppData\Local\Temp\ccyX5Aoq.s 			page 119


 5961 15c1 00       		.byte	0
 5962 15c2 09       		.uleb128 0x9
 5963 15c3 8C000000 		.4byte	0x8c
 5964 15c7 D2150000 		.4byte	0x15d2
 5965 15cb 0A       		.uleb128 0xa
 5966 15cc AB010000 		.4byte	0x1ab
 5967 15d0 01       		.byte	0x1
 5968 15d1 00       		.byte	0
 5969 15d2 0E       		.uleb128 0xe
 5970 15d3 3D020000 		.4byte	.LASF106
 5971 15d7 01       		.byte	0x1
 5972 15d8 1A       		.byte	0x1a
 5973 15d9 0F060000 		.4byte	0x60f
 5974 15dd 00000000 		.4byte	.LFB2
 5975 15e1 30000000 		.4byte	.LFE2-.LFB2
 5976 15e5 01       		.uleb128 0x1
 5977 15e6 9C       		.byte	0x9c
 5978 15e7 31160000 		.4byte	0x1631
 5979 15eb 10       		.uleb128 0x10
 5980 15ec 18060000 		.4byte	.LASF107
 5981 15f0 01       		.byte	0x1
 5982 15f1 1A       		.byte	0x1a
 5983 15f2 97000000 		.4byte	0x97
 5984 15f6 2B080000 		.4byte	.LLST64
 5985 15fa 10       		.uleb128 0x10
 5986 15fb 32070000 		.4byte	.LASF108
 5987 15ff 01       		.byte	0x1
 5988 1600 1A       		.byte	0x1a
 5989 1601 A2000000 		.4byte	0xa2
 5990 1605 4C080000 		.4byte	.LLST65
 5991 1609 10       		.uleb128 0x10
 5992 160a 89040000 		.4byte	.LASF78
 5993 160e 01       		.byte	0x1
 5994 160f 1A       		.byte	0x1a
 5995 1610 1C060000 		.4byte	0x61c
 5996 1614 78080000 		.4byte	.LLST66
 5997 1618 11       		.uleb128 0x11
 5998 1619 86060000 		.4byte	.LASF82
 5999 161d 01       		.byte	0x1
 6000 161e 1C       		.byte	0x1c
 6001 161f A2000000 		.4byte	0xa2
 6002 1623 A4080000 		.4byte	.LLST67
 6003 1627 0F       		.uleb128 0xf
 6004 1628 10000000 		.4byte	.LVL285
 6005 162c 5E150000 		.4byte	0x155e
 6006 1630 00       		.byte	0
 6007 1631 18       		.uleb128 0x18
 6008 1632 FC070000 		.4byte	.LASF109
 6009 1636 01       		.byte	0x1
 6010 1637 2101     		.2byte	0x121
 6011 1639 0F060000 		.4byte	0x60f
 6012 163d 00000000 		.4byte	.LFB12
 6013 1641 98000000 		.4byte	.LFE12-.LFB12
 6014 1645 01       		.uleb128 0x1
 6015 1646 9C       		.byte	0x9c
 6016 1647 39170000 		.4byte	0x1739
 6017 164b 1C       		.uleb128 0x1c
ARM GAS  C:\Users\TERENC~1\AppData\Local\Temp\ccyX5Aoq.s 			page 120


 6018 164c 72657400 		.ascii	"ret\000"
 6019 1650 01       		.byte	0x1
 6020 1651 2301     		.2byte	0x123
 6021 1653 0F060000 		.4byte	0x60f
 6022 1657 B7080000 		.4byte	.LLST68
 6023 165b 1B       		.uleb128 0x1b
 6024 165c 6B657900 		.ascii	"key\000"
 6025 1660 01       		.byte	0x1
 6026 1661 2401     		.2byte	0x124
 6027 1663 A2000000 		.4byte	0xa2
 6028 1667 02       		.uleb128 0x2
 6029 1668 91       		.byte	0x91
 6030 1669 6C       		.sleb128 -20
 6031 166a 1B       		.uleb128 0x1b
 6032 166b 737700   		.ascii	"sw\000"
 6033 166e 01       		.byte	0x1
 6034 166f 2501     		.2byte	0x125
 6035 1671 97000000 		.4byte	0x97
 6036 1675 02       		.uleb128 0x2
 6037 1676 91       		.byte	0x91
 6038 1677 6A       		.sleb128 -22
 6039 1678 1E       		.uleb128 0x1e
 6040 1679 7C040000 		.4byte	.LASF111
 6041 167d 49170000 		.4byte	0x1749
 6042 1681 05       		.uleb128 0x5
 6043 1682 03       		.byte	0x3
 6044 1683 00000000 		.4byte	__FUNCTION__.7012
 6045 1687 13       		.uleb128 0x13
 6046 1688 38000000 		.4byte	.LBB25
 6047 168c 34000000 		.4byte	.LBE25-.LBB25
 6048 1690 E9160000 		.4byte	0x16e9
 6049 1694 1C       		.uleb128 0x1c
 6050 1695 733100   		.ascii	"s1\000"
 6051 1698 01       		.byte	0x1
 6052 1699 2B01     		.2byte	0x12b
 6053 169b A2000000 		.4byte	0xa2
 6054 169f D6080000 		.4byte	.LLST69
 6055 16a3 0F       		.uleb128 0xf
 6056 16a4 40000000 		.4byte	.LVL296
 6057 16a8 AE1D0000 		.4byte	0x1dae
 6058 16ac 14       		.uleb128 0x14
 6059 16ad 66000000 		.4byte	.LVL298
 6060 16b1 811E0000 		.4byte	0x1e81
 6061 16b5 D8160000 		.4byte	0x16d8
 6062 16b9 15       		.uleb128 0x15
 6063 16ba 01       		.uleb128 0x1
 6064 16bb 50       		.byte	0x50
 6065 16bc 02       		.uleb128 0x2
 6066 16bd 75       		.byte	0x75
 6067 16be 00       		.sleb128 0
 6068 16bf 15       		.uleb128 0x15
 6069 16c0 01       		.uleb128 0x1
 6070 16c1 51       		.byte	0x51
 6071 16c2 05       		.uleb128 0x5
 6072 16c3 03       		.byte	0x3
 6073 16c4 18020000 		.4byte	.LC56
 6074 16c8 15       		.uleb128 0x15
ARM GAS  C:\Users\TERENC~1\AppData\Local\Temp\ccyX5Aoq.s 			page 121


 6075 16c9 01       		.uleb128 0x1
 6076 16ca 52       		.byte	0x52
 6077 16cb 05       		.uleb128 0x5
 6078 16cc 03       		.byte	0x3
 6079 16cd 00000000 		.4byte	.LANCHOR0
 6080 16d1 15       		.uleb128 0x15
 6081 16d2 01       		.uleb128 0x1
 6082 16d3 53       		.byte	0x53
 6083 16d4 02       		.uleb128 0x2
 6084 16d5 74       		.byte	0x74
 6085 16d6 00       		.sleb128 0
 6086 16d7 00       		.byte	0
 6087 16d8 16       		.uleb128 0x16
 6088 16d9 6C000000 		.4byte	.LVL299
 6089 16dd C21D0000 		.4byte	0x1dc2
 6090 16e1 15       		.uleb128 0x15
 6091 16e2 01       		.uleb128 0x1
 6092 16e3 50       		.byte	0x50
 6093 16e4 02       		.uleb128 0x2
 6094 16e5 75       		.byte	0x75
 6095 16e6 00       		.sleb128 0
 6096 16e7 00       		.byte	0
 6097 16e8 00       		.byte	0
 6098 16e9 14       		.uleb128 0x14
 6099 16ea 1A000000 		.4byte	.LVL290
 6100 16ee 22060000 		.4byte	0x622
 6101 16f2 0D170000 		.4byte	0x170d
 6102 16f6 15       		.uleb128 0x15
 6103 16f7 01       		.uleb128 0x1
 6104 16f8 50       		.byte	0x50
 6105 16f9 01       		.uleb128 0x1
 6106 16fa 30       		.byte	0x30
 6107 16fb 15       		.uleb128 0x15
 6108 16fc 01       		.uleb128 0x1
 6109 16fd 51       		.byte	0x51
 6110 16fe 01       		.uleb128 0x1
 6111 16ff 34       		.byte	0x34
 6112 1700 15       		.uleb128 0x15
 6113 1701 01       		.uleb128 0x1
 6114 1702 52       		.byte	0x52
 6115 1703 02       		.uleb128 0x2
 6116 1704 91       		.byte	0x91
 6117 1705 6C       		.sleb128 -20
 6118 1706 15       		.uleb128 0x15
 6119 1707 01       		.uleb128 0x1
 6120 1708 53       		.byte	0x53
 6121 1709 02       		.uleb128 0x2
 6122 170a 91       		.byte	0x91
 6123 170b 6A       		.sleb128 -22
 6124 170c 00       		.byte	0
 6125 170d 14       		.uleb128 0x14
 6126 170e 2C000000 		.4byte	.LVL293
 6127 1712 D2150000 		.4byte	0x15d2
 6128 1716 2F170000 		.4byte	0x172f
 6129 171a 15       		.uleb128 0x15
 6130 171b 01       		.uleb128 0x1
 6131 171c 50       		.byte	0x50
ARM GAS  C:\Users\TERENC~1\AppData\Local\Temp\ccyX5Aoq.s 			page 122


 6132 171d 03       		.uleb128 0x3
 6133 171e 0B       		.byte	0xb
 6134 171f 2080     		.2byte	0x8020
 6135 1721 15       		.uleb128 0x15
 6136 1722 01       		.uleb128 0x1
 6137 1723 51       		.byte	0x51
 6138 1724 03       		.uleb128 0x3
 6139 1725 0A       		.byte	0xa
 6140 1726 E803     		.2byte	0x3e8
 6141 1728 15       		.uleb128 0x15
 6142 1729 01       		.uleb128 0x1
 6143 172a 52       		.byte	0x52
 6144 172b 02       		.uleb128 0x2
 6145 172c 91       		.byte	0x91
 6146 172d 6A       		.sleb128 -22
 6147 172e 00       		.byte	0
 6148 172f 0F       		.uleb128 0xf
 6149 1730 34000000 		.4byte	.LVL294
 6150 1734 D81D0000 		.4byte	0x1dd8
 6151 1738 00       		.byte	0
 6152 1739 09       		.uleb128 0x9
 6153 173a 93040000 		.4byte	0x493
 6154 173e 49170000 		.4byte	0x1749
 6155 1742 0A       		.uleb128 0xa
 6156 1743 AB010000 		.4byte	0x1ab
 6157 1747 14       		.byte	0x14
 6158 1748 00       		.byte	0
 6159 1749 0D       		.uleb128 0xd
 6160 174a 39170000 		.4byte	0x1739
 6161 174e 18       		.uleb128 0x18
 6162 174f B6060000 		.4byte	.LASF110
 6163 1753 01       		.byte	0x1
 6164 1754 3201     		.2byte	0x132
 6165 1756 0F060000 		.4byte	0x60f
 6166 175a 00000000 		.4byte	.LFB13
 6167 175e 98000000 		.4byte	.LFE13-.LFB13
 6168 1762 01       		.uleb128 0x1
 6169 1763 9C       		.byte	0x9c
 6170 1764 56180000 		.4byte	0x1856
 6171 1768 1C       		.uleb128 0x1c
 6172 1769 72657400 		.ascii	"ret\000"
 6173 176d 01       		.byte	0x1
 6174 176e 3401     		.2byte	0x134
 6175 1770 0F060000 		.4byte	0x60f
 6176 1774 E9080000 		.4byte	.LLST70
 6177 1778 1B       		.uleb128 0x1b
 6178 1779 6B657900 		.ascii	"key\000"
 6179 177d 01       		.byte	0x1
 6180 177e 3501     		.2byte	0x135
 6181 1780 A2000000 		.4byte	0xa2
 6182 1784 02       		.uleb128 0x2
 6183 1785 91       		.byte	0x91
 6184 1786 6C       		.sleb128 -20
 6185 1787 1B       		.uleb128 0x1b
 6186 1788 737700   		.ascii	"sw\000"
 6187 178b 01       		.byte	0x1
 6188 178c 3601     		.2byte	0x136
ARM GAS  C:\Users\TERENC~1\AppData\Local\Temp\ccyX5Aoq.s 			page 123


 6189 178e 97000000 		.4byte	0x97
 6190 1792 02       		.uleb128 0x2
 6191 1793 91       		.byte	0x91
 6192 1794 6A       		.sleb128 -22
 6193 1795 1E       		.uleb128 0x1e
 6194 1796 7C040000 		.4byte	.LASF111
 6195 179a 56180000 		.4byte	0x1856
 6196 179e 05       		.uleb128 0x5
 6197 179f 03       		.byte	0x3
 6198 17a0 18000000 		.4byte	__FUNCTION__.7023
 6199 17a4 13       		.uleb128 0x13
 6200 17a5 38000000 		.4byte	.LBB26
 6201 17a9 36000000 		.4byte	.LBE26-.LBB26
 6202 17ad 06180000 		.4byte	0x1806
 6203 17b1 1C       		.uleb128 0x1c
 6204 17b2 733100   		.ascii	"s1\000"
 6205 17b5 01       		.byte	0x1
 6206 17b6 3C01     		.2byte	0x13c
 6207 17b8 A2000000 		.4byte	0xa2
 6208 17bc 08090000 		.4byte	.LLST71
 6209 17c0 0F       		.uleb128 0xf
 6210 17c1 40000000 		.4byte	.LVL307
 6211 17c5 AE1D0000 		.4byte	0x1dae
 6212 17c9 14       		.uleb128 0x14
 6213 17ca 68000000 		.4byte	.LVL309
 6214 17ce 811E0000 		.4byte	0x1e81
 6215 17d2 F5170000 		.4byte	0x17f5
 6216 17d6 15       		.uleb128 0x15
 6217 17d7 01       		.uleb128 0x1
 6218 17d8 50       		.byte	0x50
 6219 17d9 02       		.uleb128 0x2
 6220 17da 75       		.byte	0x75
 6221 17db 00       		.sleb128 0
 6222 17dc 15       		.uleb128 0x15
 6223 17dd 01       		.uleb128 0x1
 6224 17de 51       		.byte	0x51
 6225 17df 05       		.uleb128 0x5
 6226 17e0 03       		.byte	0x3
 6227 17e1 18020000 		.4byte	.LC56
 6228 17e5 15       		.uleb128 0x15
 6229 17e6 01       		.uleb128 0x1
 6230 17e7 52       		.byte	0x52
 6231 17e8 05       		.uleb128 0x5
 6232 17e9 03       		.byte	0x3
 6233 17ea 18000000 		.4byte	.LANCHOR0+24
 6234 17ee 15       		.uleb128 0x15
 6235 17ef 01       		.uleb128 0x1
 6236 17f0 53       		.byte	0x53
 6237 17f1 02       		.uleb128 0x2
 6238 17f2 74       		.byte	0x74
 6239 17f3 00       		.sleb128 0
 6240 17f4 00       		.byte	0
 6241 17f5 16       		.uleb128 0x16
 6242 17f6 6E000000 		.4byte	.LVL310
 6243 17fa C21D0000 		.4byte	0x1dc2
 6244 17fe 15       		.uleb128 0x15
 6245 17ff 01       		.uleb128 0x1
ARM GAS  C:\Users\TERENC~1\AppData\Local\Temp\ccyX5Aoq.s 			page 124


 6246 1800 50       		.byte	0x50
 6247 1801 02       		.uleb128 0x2
 6248 1802 75       		.byte	0x75
 6249 1803 00       		.sleb128 0
 6250 1804 00       		.byte	0
 6251 1805 00       		.byte	0
 6252 1806 14       		.uleb128 0x14
 6253 1807 1A000000 		.4byte	.LVL301
 6254 180b 22060000 		.4byte	0x622
 6255 180f 2A180000 		.4byte	0x182a
 6256 1813 15       		.uleb128 0x15
 6257 1814 01       		.uleb128 0x1
 6258 1815 50       		.byte	0x50
 6259 1816 01       		.uleb128 0x1
 6260 1817 33       		.byte	0x33
 6261 1818 15       		.uleb128 0x15
 6262 1819 01       		.uleb128 0x1
 6263 181a 51       		.byte	0x51
 6264 181b 01       		.uleb128 0x1
 6265 181c 34       		.byte	0x34
 6266 181d 15       		.uleb128 0x15
 6267 181e 01       		.uleb128 0x1
 6268 181f 52       		.byte	0x52
 6269 1820 02       		.uleb128 0x2
 6270 1821 91       		.byte	0x91
 6271 1822 6C       		.sleb128 -20
 6272 1823 15       		.uleb128 0x15
 6273 1824 01       		.uleb128 0x1
 6274 1825 53       		.byte	0x53
 6275 1826 02       		.uleb128 0x2
 6276 1827 91       		.byte	0x91
 6277 1828 6A       		.sleb128 -22
 6278 1829 00       		.byte	0
 6279 182a 14       		.uleb128 0x14
 6280 182b 2C000000 		.4byte	.LVL304
 6281 182f D2150000 		.4byte	0x15d2
 6282 1833 4C180000 		.4byte	0x184c
 6283 1837 15       		.uleb128 0x15
 6284 1838 01       		.uleb128 0x1
 6285 1839 50       		.byte	0x50
 6286 183a 03       		.uleb128 0x3
 6287 183b 0B       		.byte	0xb
 6288 183c 0380     		.2byte	0x8003
 6289 183e 15       		.uleb128 0x15
 6290 183f 01       		.uleb128 0x1
 6291 1840 51       		.byte	0x51
 6292 1841 03       		.uleb128 0x3
 6293 1842 0A       		.byte	0xa
 6294 1843 E803     		.2byte	0x3e8
 6295 1845 15       		.uleb128 0x15
 6296 1846 01       		.uleb128 0x1
 6297 1847 52       		.byte	0x52
 6298 1848 02       		.uleb128 0x2
 6299 1849 91       		.byte	0x91
 6300 184a 6A       		.sleb128 -22
 6301 184b 00       		.byte	0
 6302 184c 0F       		.uleb128 0xf
ARM GAS  C:\Users\TERENC~1\AppData\Local\Temp\ccyX5Aoq.s 			page 125


 6303 184d 34000000 		.4byte	.LVL305
 6304 1851 D81D0000 		.4byte	0x1dd8
 6305 1855 00       		.byte	0
 6306 1856 0D       		.uleb128 0xd
 6307 1857 39170000 		.4byte	0x1739
 6308 185b 18       		.uleb128 0x18
 6309 185c 00010000 		.4byte	.LASF112
 6310 1860 01       		.byte	0x1
 6311 1861 4301     		.2byte	0x143
 6312 1863 0F060000 		.4byte	0x60f
 6313 1867 00000000 		.4byte	.LFB14
 6314 186b 58010000 		.4byte	.LFE14-.LFB14
 6315 186f 01       		.uleb128 0x1
 6316 1870 9C       		.byte	0x9c
 6317 1871 251A0000 		.4byte	0x1a25
 6318 1875 19       		.uleb128 0x19
 6319 1876 B3030000 		.4byte	.LASF113
 6320 187a 01       		.byte	0x1
 6321 187b 4301     		.2byte	0x143
 6322 187d 251A0000 		.4byte	0x1a25
 6323 1881 1B090000 		.4byte	.LLST72
 6324 1885 1C       		.uleb128 0x1c
 6325 1886 72657400 		.ascii	"ret\000"
 6326 188a 01       		.byte	0x1
 6327 188b 4501     		.2byte	0x145
 6328 188d 0F060000 		.4byte	0x60f
 6329 1891 47090000 		.4byte	.LLST73
 6330 1895 1C       		.uleb128 0x1c
 6331 1896 727600   		.ascii	"rv\000"
 6332 1899 01       		.byte	0x1
 6333 189a 4601     		.2byte	0x146
 6334 189c 0F060000 		.4byte	0x60f
 6335 18a0 87090000 		.4byte	.LLST74
 6336 18a4 1B       		.uleb128 0x1b
 6337 18a5 737700   		.ascii	"sw\000"
 6338 18a8 01       		.byte	0x1
 6339 18a9 4701     		.2byte	0x147
 6340 18ab 97000000 		.4byte	0x97
 6341 18af 02       		.uleb128 0x2
 6342 18b0 91       		.byte	0x91
 6343 18b1 66       		.sleb128 -26
 6344 18b2 1D       		.uleb128 0x1d
 6345 18b3 45010000 		.4byte	.LASF88
 6346 18b7 01       		.byte	0x1
 6347 18b8 4901     		.2byte	0x149
 6348 18ba 2B1A0000 		.4byte	0x1a2b
 6349 18be A6090000 		.4byte	.LLST75
 6350 18c2 1E       		.uleb128 0x1e
 6351 18c3 7C040000 		.4byte	.LASF111
 6352 18c7 411A0000 		.4byte	0x1a41
 6353 18cb 05       		.uleb128 0x5
 6354 18cc 03       		.byte	0x3
 6355 18cd 30000000 		.4byte	__FUNCTION__.7035
 6356 18d1 13       		.uleb128 0x13
 6357 18d2 7C000000 		.4byte	.LBB27
 6358 18d6 36000000 		.4byte	.LBE27-.LBB27
 6359 18da 33190000 		.4byte	0x1933
ARM GAS  C:\Users\TERENC~1\AppData\Local\Temp\ccyX5Aoq.s 			page 126


 6360 18de 1C       		.uleb128 0x1c
 6361 18df 733100   		.ascii	"s1\000"
 6362 18e2 01       		.byte	0x1
 6363 18e3 5301     		.2byte	0x153
 6364 18e5 A2000000 		.4byte	0xa2
 6365 18e9 CF090000 		.4byte	.LLST76
 6366 18ed 0F       		.uleb128 0xf
 6367 18ee 84000000 		.4byte	.LVL323
 6368 18f2 AE1D0000 		.4byte	0x1dae
 6369 18f6 14       		.uleb128 0x14
 6370 18f7 AC000000 		.4byte	.LVL325
 6371 18fb 811E0000 		.4byte	0x1e81
 6372 18ff 22190000 		.4byte	0x1922
 6373 1903 15       		.uleb128 0x15
 6374 1904 01       		.uleb128 0x1
 6375 1905 50       		.byte	0x50
 6376 1906 02       		.uleb128 0x2
 6377 1907 76       		.byte	0x76
 6378 1908 00       		.sleb128 0
 6379 1909 15       		.uleb128 0x15
 6380 190a 01       		.uleb128 0x1
 6381 190b 51       		.byte	0x51
 6382 190c 05       		.uleb128 0x5
 6383 190d 03       		.byte	0x3
 6384 190e 18020000 		.4byte	.LC56
 6385 1912 15       		.uleb128 0x15
 6386 1913 01       		.uleb128 0x1
 6387 1914 52       		.byte	0x52
 6388 1915 05       		.uleb128 0x5
 6389 1916 03       		.byte	0x3
 6390 1917 30000000 		.4byte	.LANCHOR0+48
 6391 191b 15       		.uleb128 0x15
 6392 191c 01       		.uleb128 0x1
 6393 191d 53       		.byte	0x53
 6394 191e 02       		.uleb128 0x2
 6395 191f 75       		.byte	0x75
 6396 1920 00       		.sleb128 0
 6397 1921 00       		.byte	0
 6398 1922 16       		.uleb128 0x16
 6399 1923 B2000000 		.4byte	.LVL326
 6400 1927 C21D0000 		.4byte	0x1dc2
 6401 192b 15       		.uleb128 0x15
 6402 192c 01       		.uleb128 0x1
 6403 192d 50       		.byte	0x50
 6404 192e 02       		.uleb128 0x2
 6405 192f 76       		.byte	0x76
 6406 1930 00       		.sleb128 0
 6407 1931 00       		.byte	0
 6408 1932 00       		.byte	0
 6409 1933 13       		.uleb128 0x13
 6410 1934 F8000000 		.4byte	.LBB28
 6411 1938 3A000000 		.4byte	.LBE28-.LBB28
 6412 193c 86190000 		.4byte	0x1986
 6413 1940 1C       		.uleb128 0x1c
 6414 1941 733100   		.ascii	"s1\000"
 6415 1944 01       		.byte	0x1
 6416 1945 5D01     		.2byte	0x15d
ARM GAS  C:\Users\TERENC~1\AppData\Local\Temp\ccyX5Aoq.s 			page 127


 6417 1947 A2000000 		.4byte	0xa2
 6418 194b E2090000 		.4byte	.LLST77
 6419 194f 0F       		.uleb128 0xf
 6420 1950 00010000 		.4byte	.LVL336
 6421 1954 AE1D0000 		.4byte	0x1dae
 6422 1958 14       		.uleb128 0x14
 6423 1959 2C010000 		.4byte	.LVL338
 6424 195d 811E0000 		.4byte	0x1e81
 6425 1961 75190000 		.4byte	0x1975
 6426 1965 15       		.uleb128 0x15
 6427 1966 01       		.uleb128 0x1
 6428 1967 50       		.byte	0x50
 6429 1968 02       		.uleb128 0x2
 6430 1969 76       		.byte	0x76
 6431 196a 00       		.sleb128 0
 6432 196b 15       		.uleb128 0x15
 6433 196c 01       		.uleb128 0x1
 6434 196d 51       		.byte	0x51
 6435 196e 05       		.uleb128 0x5
 6436 196f 03       		.byte	0x3
 6437 1970 3C020000 		.4byte	.LC68
 6438 1974 00       		.byte	0
 6439 1975 16       		.uleb128 0x16
 6440 1976 32010000 		.4byte	.LVL339
 6441 197a C21D0000 		.4byte	0x1dc2
 6442 197e 15       		.uleb128 0x15
 6443 197f 01       		.uleb128 0x1
 6444 1980 50       		.byte	0x50
 6445 1981 02       		.uleb128 0x2
 6446 1982 76       		.byte	0x76
 6447 1983 00       		.sleb128 0
 6448 1984 00       		.byte	0
 6449 1985 00       		.byte	0
 6450 1986 14       		.uleb128 0x14
 6451 1987 0C000000 		.4byte	.LVL314
 6452 198b 081E0000 		.4byte	0x1e08
 6453 198f 99190000 		.4byte	0x1999
 6454 1993 15       		.uleb128 0x15
 6455 1994 01       		.uleb128 0x1
 6456 1995 50       		.byte	0x50
 6457 1996 01       		.uleb128 0x1
 6458 1997 38       		.byte	0x38
 6459 1998 00       		.byte	0
 6460 1999 14       		.uleb128 0x14
 6461 199a 56000000 		.4byte	.LVL317
 6462 199e 22060000 		.4byte	0x622
 6463 19a2 BD190000 		.4byte	0x19bd
 6464 19a6 15       		.uleb128 0x15
 6465 19a7 01       		.uleb128 0x1
 6466 19a8 50       		.byte	0x50
 6467 19a9 01       		.uleb128 0x1
 6468 19aa 3F       		.byte	0x3f
 6469 19ab 15       		.uleb128 0x15
 6470 19ac 01       		.uleb128 0x1
 6471 19ad 51       		.byte	0x51
 6472 19ae 01       		.uleb128 0x1
 6473 19af 38       		.byte	0x38
ARM GAS  C:\Users\TERENC~1\AppData\Local\Temp\ccyX5Aoq.s 			page 128


 6474 19b0 15       		.uleb128 0x15
 6475 19b1 01       		.uleb128 0x1
 6476 19b2 52       		.byte	0x52
 6477 19b3 02       		.uleb128 0x2
 6478 19b4 76       		.byte	0x76
 6479 19b5 00       		.sleb128 0
 6480 19b6 15       		.uleb128 0x15
 6481 19b7 01       		.uleb128 0x1
 6482 19b8 53       		.byte	0x53
 6483 19b9 02       		.uleb128 0x2
 6484 19ba 91       		.byte	0x91
 6485 19bb 66       		.sleb128 -26
 6486 19bc 00       		.byte	0
 6487 19bd 14       		.uleb128 0x14
 6488 19be 5E000000 		.4byte	.LVL319
 6489 19c2 131E0000 		.4byte	0x1e13
 6490 19c6 D1190000 		.4byte	0x19d1
 6491 19ca 15       		.uleb128 0x15
 6492 19cb 01       		.uleb128 0x1
 6493 19cc 50       		.byte	0x50
 6494 19cd 02       		.uleb128 0x2
 6495 19ce 76       		.byte	0x76
 6496 19cf 00       		.sleb128 0
 6497 19d0 00       		.byte	0
 6498 19d1 14       		.uleb128 0x14
 6499 19d2 70000000 		.4byte	.LVL320
 6500 19d6 D2150000 		.4byte	0x15d2
 6501 19da F3190000 		.4byte	0x19f3
 6502 19de 15       		.uleb128 0x15
 6503 19df 01       		.uleb128 0x1
 6504 19e0 50       		.byte	0x50
 6505 19e1 03       		.uleb128 0x3
 6506 19e2 0B       		.byte	0xb
 6507 19e3 0E80     		.2byte	0x800e
 6508 19e5 15       		.uleb128 0x15
 6509 19e6 01       		.uleb128 0x1
 6510 19e7 51       		.byte	0x51
 6511 19e8 03       		.uleb128 0x3
 6512 19e9 0A       		.byte	0xa
 6513 19ea E803     		.2byte	0x3e8
 6514 19ec 15       		.uleb128 0x15
 6515 19ed 01       		.uleb128 0x1
 6516 19ee 52       		.byte	0x52
 6517 19ef 02       		.uleb128 0x2
 6518 19f0 91       		.byte	0x91
 6519 19f1 66       		.sleb128 -26
 6520 19f2 00       		.byte	0
 6521 19f3 0F       		.uleb128 0xf
 6522 19f4 78000000 		.4byte	.LVL321
 6523 19f8 D81D0000 		.4byte	0x1dd8
 6524 19fc 14       		.uleb128 0x14
 6525 19fd CC000000 		.4byte	.LVL332
 6526 1a01 A3080000 		.4byte	0x8a3
 6527 1a05 1B1A0000 		.4byte	0x1a1b
 6528 1a09 15       		.uleb128 0x15
 6529 1a0a 01       		.uleb128 0x1
 6530 1a0b 50       		.byte	0x50
ARM GAS  C:\Users\TERENC~1\AppData\Local\Temp\ccyX5Aoq.s 			page 129


 6531 1a0c 01       		.uleb128 0x1
 6532 1a0d 34       		.byte	0x34
 6533 1a0e 15       		.uleb128 0x15
 6534 1a0f 01       		.uleb128 0x1
 6535 1a10 51       		.byte	0x51
 6536 1a11 02       		.uleb128 0x2
 6537 1a12 91       		.byte	0x91
 6538 1a13 66       		.sleb128 -26
 6539 1a14 15       		.uleb128 0x15
 6540 1a15 01       		.uleb128 0x1
 6541 1a16 52       		.byte	0x52
 6542 1a17 02       		.uleb128 0x2
 6543 1a18 74       		.byte	0x74
 6544 1a19 00       		.sleb128 0
 6545 1a1a 00       		.byte	0
 6546 1a1b 0F       		.uleb128 0xf
 6547 1a1c F4000000 		.4byte	.LVL334
 6548 1a20 D81D0000 		.4byte	0x1dd8
 6549 1a24 00       		.byte	0
 6550 1a25 17       		.uleb128 0x17
 6551 1a26 04       		.byte	0x4
 6552 1a27 A2000000 		.4byte	0xa2
 6553 1a2b 17       		.uleb128 0x17
 6554 1a2c 04       		.byte	0x4
 6555 1a2d E2020000 		.4byte	0x2e2
 6556 1a31 09       		.uleb128 0x9
 6557 1a32 93040000 		.4byte	0x493
 6558 1a36 411A0000 		.4byte	0x1a41
 6559 1a3a 0A       		.uleb128 0xa
 6560 1a3b AB010000 		.4byte	0x1ab
 6561 1a3f 16       		.byte	0x16
 6562 1a40 00       		.byte	0
 6563 1a41 0D       		.uleb128 0xd
 6564 1a42 311A0000 		.4byte	0x1a31
 6565 1a46 1F       		.uleb128 0x1f
 6566 1a47 9E050000 		.4byte	.LASF114
 6567 1a4b 01       		.byte	0x1
 6568 1a4c 0901     		.2byte	0x109
 6569 1a4e 0F060000 		.4byte	0x60f
 6570 1a52 00000000 		.4byte	.LFB11
 6571 1a56 D8000000 		.4byte	.LFE11-.LFB11
 6572 1a5a 01       		.uleb128 0x1
 6573 1a5b 9C       		.byte	0x9c
 6574 1a5c A61B0000 		.4byte	0x1ba6
 6575 1a60 19       		.uleb128 0x19
 6576 1a61 F2040000 		.4byte	.LASF115
 6577 1a65 01       		.byte	0x1
 6578 1a66 0901     		.2byte	0x109
 6579 1a68 97000000 		.4byte	0x97
 6580 1a6c F5090000 		.4byte	.LLST78
 6581 1a70 19       		.uleb128 0x19
 6582 1a71 8C060000 		.4byte	.LASF116
 6583 1a75 01       		.byte	0x1
 6584 1a76 0901     		.2byte	0x109
 6585 1a78 97000000 		.4byte	0x97
 6586 1a7c 160A0000 		.4byte	.LLST79
 6587 1a80 19       		.uleb128 0x19
ARM GAS  C:\Users\TERENC~1\AppData\Local\Temp\ccyX5Aoq.s 			page 130


 6588 1a81 DA070000 		.4byte	.LASF117
 6589 1a85 01       		.byte	0x1
 6590 1a86 0901     		.2byte	0x109
 6591 1a88 97000000 		.4byte	0x97
 6592 1a8c 370A0000 		.4byte	.LLST80
 6593 1a90 1C       		.uleb128 0x1c
 6594 1a91 72657400 		.ascii	"ret\000"
 6595 1a95 01       		.byte	0x1
 6596 1a96 0B01     		.2byte	0x10b
 6597 1a98 0F060000 		.4byte	0x60f
 6598 1a9c 580A0000 		.4byte	.LLST81
 6599 1aa0 1B       		.uleb128 0x1b
 6600 1aa1 737700   		.ascii	"sw\000"
 6601 1aa4 01       		.byte	0x1
 6602 1aa5 0C01     		.2byte	0x10c
 6603 1aa7 97000000 		.4byte	0x97
 6604 1aab 02       		.uleb128 0x2
 6605 1aac 91       		.byte	0x91
 6606 1aad 66       		.sleb128 -26
 6607 1aae 1D       		.uleb128 0x1d
 6608 1aaf 45010000 		.4byte	.LASF88
 6609 1ab3 01       		.byte	0x1
 6610 1ab4 0D01     		.2byte	0x10d
 6611 1ab6 A61B0000 		.4byte	0x1ba6
 6612 1aba 770A0000 		.4byte	.LLST82
 6613 1abe 1E       		.uleb128 0x1e
 6614 1abf 7C040000 		.4byte	.LASF111
 6615 1ac3 BC1B0000 		.4byte	0x1bbc
 6616 1ac7 05       		.uleb128 0x5
 6617 1ac8 03       		.byte	0x3
 6618 1ac9 48000000 		.4byte	__FUNCTION__.7001
 6619 1acd 13       		.uleb128 0x13
 6620 1ace 80000000 		.4byte	.LBB29
 6621 1ad2 36000000 		.4byte	.LBE29-.LBB29
 6622 1ad6 2F1B0000 		.4byte	0x1b2f
 6623 1ada 1C       		.uleb128 0x1c
 6624 1adb 733100   		.ascii	"s1\000"
 6625 1ade 01       		.byte	0x1
 6626 1adf 1A01     		.2byte	0x11a
 6627 1ae1 A2000000 		.4byte	0xa2
 6628 1ae5 A00A0000 		.4byte	.LLST83
 6629 1ae9 0F       		.uleb128 0xf
 6630 1aea 88000000 		.4byte	.LVL354
 6631 1aee AE1D0000 		.4byte	0x1dae
 6632 1af2 14       		.uleb128 0x14
 6633 1af3 B0000000 		.4byte	.LVL356
 6634 1af7 811E0000 		.4byte	0x1e81
 6635 1afb 1E1B0000 		.4byte	0x1b1e
 6636 1aff 15       		.uleb128 0x15
 6637 1b00 01       		.uleb128 0x1
 6638 1b01 50       		.byte	0x50
 6639 1b02 02       		.uleb128 0x2
 6640 1b03 75       		.byte	0x75
 6641 1b04 00       		.sleb128 0
 6642 1b05 15       		.uleb128 0x15
 6643 1b06 01       		.uleb128 0x1
 6644 1b07 51       		.byte	0x51
ARM GAS  C:\Users\TERENC~1\AppData\Local\Temp\ccyX5Aoq.s 			page 131


 6645 1b08 05       		.uleb128 0x5
 6646 1b09 03       		.byte	0x3
 6647 1b0a 18020000 		.4byte	.LC56
 6648 1b0e 15       		.uleb128 0x15
 6649 1b0f 01       		.uleb128 0x1
 6650 1b10 52       		.byte	0x52
 6651 1b11 05       		.uleb128 0x5
 6652 1b12 03       		.byte	0x3
 6653 1b13 48000000 		.4byte	.LANCHOR0+72
 6654 1b17 15       		.uleb128 0x15
 6655 1b18 01       		.uleb128 0x1
 6656 1b19 53       		.byte	0x53
 6657 1b1a 02       		.uleb128 0x2
 6658 1b1b 74       		.byte	0x74
 6659 1b1c 00       		.sleb128 0
 6660 1b1d 00       		.byte	0
 6661 1b1e 16       		.uleb128 0x16
 6662 1b1f B6000000 		.4byte	.LVL357
 6663 1b23 C21D0000 		.4byte	0x1dc2
 6664 1b27 15       		.uleb128 0x15
 6665 1b28 01       		.uleb128 0x1
 6666 1b29 50       		.byte	0x50
 6667 1b2a 02       		.uleb128 0x2
 6668 1b2b 75       		.byte	0x75
 6669 1b2c 00       		.sleb128 0
 6670 1b2d 00       		.byte	0
 6671 1b2e 00       		.byte	0
 6672 1b2f 14       		.uleb128 0x14
 6673 1b30 10000000 		.4byte	.LVL345
 6674 1b34 081E0000 		.4byte	0x1e08
 6675 1b38 421B0000 		.4byte	0x1b42
 6676 1b3c 15       		.uleb128 0x15
 6677 1b3d 01       		.uleb128 0x1
 6678 1b3e 50       		.byte	0x50
 6679 1b3f 01       		.uleb128 0x1
 6680 1b40 3A       		.byte	0x3a
 6681 1b41 00       		.byte	0
 6682 1b42 14       		.uleb128 0x14
 6683 1b43 5A000000 		.4byte	.LVL348
 6684 1b47 22060000 		.4byte	0x622
 6685 1b4b 661B0000 		.4byte	0x1b66
 6686 1b4f 15       		.uleb128 0x15
 6687 1b50 01       		.uleb128 0x1
 6688 1b51 50       		.byte	0x50
 6689 1b52 01       		.uleb128 0x1
 6690 1b53 37       		.byte	0x37
 6691 1b54 15       		.uleb128 0x15
 6692 1b55 01       		.uleb128 0x1
 6693 1b56 51       		.byte	0x51
 6694 1b57 01       		.uleb128 0x1
 6695 1b58 3A       		.byte	0x3a
 6696 1b59 15       		.uleb128 0x15
 6697 1b5a 01       		.uleb128 0x1
 6698 1b5b 52       		.byte	0x52
 6699 1b5c 02       		.uleb128 0x2
 6700 1b5d 76       		.byte	0x76
 6701 1b5e 00       		.sleb128 0
ARM GAS  C:\Users\TERENC~1\AppData\Local\Temp\ccyX5Aoq.s 			page 132


 6702 1b5f 15       		.uleb128 0x15
 6703 1b60 01       		.uleb128 0x1
 6704 1b61 53       		.byte	0x53
 6705 1b62 02       		.uleb128 0x2
 6706 1b63 91       		.byte	0x91
 6707 1b64 66       		.sleb128 -26
 6708 1b65 00       		.byte	0
 6709 1b66 14       		.uleb128 0x14
 6710 1b67 62000000 		.4byte	.LVL350
 6711 1b6b 131E0000 		.4byte	0x1e13
 6712 1b6f 7A1B0000 		.4byte	0x1b7a
 6713 1b73 15       		.uleb128 0x15
 6714 1b74 01       		.uleb128 0x1
 6715 1b75 50       		.byte	0x50
 6716 1b76 02       		.uleb128 0x2
 6717 1b77 76       		.byte	0x76
 6718 1b78 00       		.sleb128 0
 6719 1b79 00       		.byte	0
 6720 1b7a 14       		.uleb128 0x14
 6721 1b7b 74000000 		.4byte	.LVL351
 6722 1b7f D2150000 		.4byte	0x15d2
 6723 1b83 9C1B0000 		.4byte	0x1b9c
 6724 1b87 15       		.uleb128 0x15
 6725 1b88 01       		.uleb128 0x1
 6726 1b89 50       		.byte	0x50
 6727 1b8a 03       		.uleb128 0x3
 6728 1b8b 0B       		.byte	0xb
 6729 1b8c 0B80     		.2byte	0x800b
 6730 1b8e 15       		.uleb128 0x15
 6731 1b8f 01       		.uleb128 0x1
 6732 1b90 51       		.byte	0x51
 6733 1b91 03       		.uleb128 0x3
 6734 1b92 0A       		.byte	0xa
 6735 1b93 E803     		.2byte	0x3e8
 6736 1b95 15       		.uleb128 0x15
 6737 1b96 01       		.uleb128 0x1
 6738 1b97 52       		.byte	0x52
 6739 1b98 02       		.uleb128 0x2
 6740 1b99 91       		.byte	0x91
 6741 1b9a 66       		.sleb128 -26
 6742 1b9b 00       		.byte	0
 6743 1b9c 0F       		.uleb128 0xf
 6744 1b9d 7C000000 		.4byte	.LVL352
 6745 1ba1 D81D0000 		.4byte	0x1dd8
 6746 1ba5 00       		.byte	0
 6747 1ba6 17       		.uleb128 0x17
 6748 1ba7 04       		.byte	0x4
 6749 1ba8 B6020000 		.4byte	0x2b6
 6750 1bac 09       		.uleb128 0x9
 6751 1bad 93040000 		.4byte	0x493
 6752 1bb1 BC1B0000 		.4byte	0x1bbc
 6753 1bb5 0A       		.uleb128 0xa
 6754 1bb6 AB010000 		.4byte	0x1ab
 6755 1bba 19       		.byte	0x19
 6756 1bbb 00       		.byte	0
 6757 1bbc 0D       		.uleb128 0xd
 6758 1bbd AC1B0000 		.4byte	0x1bac
ARM GAS  C:\Users\TERENC~1\AppData\Local\Temp\ccyX5Aoq.s 			page 133


 6759 1bc1 20       		.uleb128 0x20
 6760 1bc2 4C010000 		.4byte	.LASF150
 6761 1bc6 01       		.byte	0x1
 6762 1bc7 E501     		.2byte	0x1e5
 6763 1bc9 00000000 		.4byte	.LFB21
 6764 1bcd 08000000 		.4byte	.LFE21-.LFB21
 6765 1bd1 01       		.uleb128 0x1
 6766 1bd2 9C       		.byte	0x9c
 6767 1bd3 E11B0000 		.4byte	0x1be1
 6768 1bd7 0F       		.uleb128 0xf
 6769 1bd8 06000000 		.4byte	.LVL360
 6770 1bdc 971E0000 		.4byte	0x1e97
 6771 1be0 00       		.byte	0
 6772 1be1 18       		.uleb128 0x18
 6773 1be2 25000000 		.4byte	.LASF118
 6774 1be6 01       		.byte	0x1
 6775 1be7 EA01     		.2byte	0x1ea
 6776 1be9 0F060000 		.4byte	0x60f
 6777 1bed 00000000 		.4byte	.LFB22
 6778 1bf1 A8000000 		.4byte	.LFE22-.LFB22
 6779 1bf5 01       		.uleb128 0x1
 6780 1bf6 9C       		.byte	0x9c
 6781 1bf7 C91C0000 		.4byte	0x1cc9
 6782 1bfb 19       		.uleb128 0x19
 6783 1bfc 49070000 		.4byte	.LASF90
 6784 1c00 01       		.byte	0x1
 6785 1c01 EA01     		.2byte	0x1ea
 6786 1c03 97000000 		.4byte	0x97
 6787 1c07 B30A0000 		.4byte	.LLST84
 6788 1c0b 19       		.uleb128 0x19
 6789 1c0c 56030000 		.4byte	.LASF87
 6790 1c10 01       		.byte	0x1
 6791 1c11 EA01     		.2byte	0x1ea
 6792 1c13 16060000 		.4byte	0x616
 6793 1c17 DF0A0000 		.4byte	.LLST85
 6794 1c1b 19       		.uleb128 0x19
 6795 1c1c 75030000 		.4byte	.LASF92
 6796 1c20 01       		.byte	0x1
 6797 1c21 EA01     		.2byte	0x1ea
 6798 1c23 97000000 		.4byte	0x97
 6799 1c27 0B0B0000 		.4byte	.LLST86
 6800 1c2b 1C       		.uleb128 0x1c
 6801 1c2c 72657400 		.ascii	"ret\000"
 6802 1c30 01       		.byte	0x1
 6803 1c31 EC01     		.2byte	0x1ec
 6804 1c33 0F060000 		.4byte	0x60f
 6805 1c37 2C0B0000 		.4byte	.LLST87
 6806 1c3b 1B       		.uleb128 0x1b
 6807 1c3c 737700   		.ascii	"sw\000"
 6808 1c3f 01       		.byte	0x1
 6809 1c40 ED01     		.2byte	0x1ed
 6810 1c42 97000000 		.4byte	0x97
 6811 1c46 02       		.uleb128 0x2
 6812 1c47 91       		.byte	0x91
 6813 1c48 66       		.sleb128 -26
 6814 1c49 1D       		.uleb128 0x1d
 6815 1c4a 61010000 		.4byte	.LASF39
ARM GAS  C:\Users\TERENC~1\AppData\Local\Temp\ccyX5Aoq.s 			page 134


 6816 1c4e 01       		.byte	0x1
 6817 1c4f EE01     		.2byte	0x1ee
 6818 1c51 97000000 		.4byte	0x97
 6819 1c55 620B0000 		.4byte	.LLST88
 6820 1c59 14       		.uleb128 0x14
 6821 1c5a 1C000000 		.4byte	.LVL365
 6822 1c5e 13070000 		.4byte	0x713
 6823 1c62 751C0000 		.4byte	0x1c75
 6824 1c66 15       		.uleb128 0x15
 6825 1c67 01       		.uleb128 0x1
 6826 1c68 50       		.byte	0x50
 6827 1c69 04       		.uleb128 0x4
 6828 1c6a 74       		.byte	0x74
 6829 1c6b 80C001   		.sleb128 24576
 6830 1c6e 15       		.uleb128 0x15
 6831 1c6f 01       		.uleb128 0x1
 6832 1c70 51       		.byte	0x51
 6833 1c71 02       		.uleb128 0x2
 6834 1c72 7D       		.byte	0x7d
 6835 1c73 06       		.sleb128 6
 6836 1c74 00       		.byte	0
 6837 1c75 14       		.uleb128 0x14
 6838 1c76 28000000 		.4byte	.LVL366
 6839 1c7a C2070000 		.4byte	0x7c2
 6840 1c7e 951C0000 		.4byte	0x1c95
 6841 1c82 15       		.uleb128 0x15
 6842 1c83 01       		.uleb128 0x1
 6843 1c84 50       		.byte	0x50
 6844 1c85 02       		.uleb128 0x2
 6845 1c86 76       		.byte	0x76
 6846 1c87 00       		.sleb128 0
 6847 1c88 15       		.uleb128 0x15
 6848 1c89 01       		.uleb128 0x1
 6849 1c8a 51       		.byte	0x51
 6850 1c8b 02       		.uleb128 0x2
 6851 1c8c 75       		.byte	0x75
 6852 1c8d 00       		.sleb128 0
 6853 1c8e 15       		.uleb128 0x15
 6854 1c8f 01       		.uleb128 0x1
 6855 1c90 52       		.byte	0x52
 6856 1c91 02       		.uleb128 0x2
 6857 1c92 7D       		.byte	0x7d
 6858 1c93 06       		.sleb128 6
 6859 1c94 00       		.byte	0
 6860 1c95 16       		.uleb128 0x16
 6861 1c96 50000000 		.4byte	.LVL370
 6862 1c9a 461A0000 		.4byte	0x1a46
 6863 1c9e 15       		.uleb128 0x15
 6864 1c9f 01       		.uleb128 0x1
 6865 1ca0 50       		.byte	0x50
 6866 1ca1 03       		.uleb128 0x3
 6867 1ca2 0A       		.byte	0xa
 6868 1ca3 0060     		.2byte	0x6000
 6869 1ca5 15       		.uleb128 0x15
 6870 1ca6 01       		.uleb128 0x1
 6871 1ca7 51       		.byte	0x51
 6872 1ca8 17       		.uleb128 0x17
ARM GAS  C:\Users\TERENC~1\AppData\Local\Temp\ccyX5Aoq.s 			page 135


 6873 1ca9 77       		.byte	0x77
 6874 1caa 80807E   		.sleb128 -32768
 6875 1cad 4F       		.byte	0x4f
 6876 1cae 26       		.byte	0x26
 6877 1caf 46       		.byte	0x46
 6878 1cb0 24       		.byte	0x24
 6879 1cb1 46       		.byte	0x46
 6880 1cb2 25       		.byte	0x25
 6881 1cb3 77       		.byte	0x77
 6882 1cb4 00       		.sleb128 0
 6883 1cb5 22       		.byte	0x22
 6884 1cb6 0A       		.byte	0xa
 6885 1cb7 0080     		.2byte	0x8000
 6886 1cb9 1C       		.byte	0x1c
 6887 1cba 3A       		.byte	0x3a
 6888 1cbb 26       		.byte	0x26
 6889 1cbc 23       		.byte	0x23
 6890 1cbd 20       		.uleb128 0x20
 6891 1cbe 3A       		.byte	0x3a
 6892 1cbf 24       		.byte	0x24
 6893 1cc0 15       		.uleb128 0x15
 6894 1cc1 01       		.uleb128 0x1
 6895 1cc2 52       		.byte	0x52
 6896 1cc3 03       		.uleb128 0x3
 6897 1cc4 0A       		.byte	0xa
 6898 1cc5 0001     		.2byte	0x100
 6899 1cc7 00       		.byte	0
 6900 1cc8 00       		.byte	0
 6901 1cc9 18       		.uleb128 0x18
 6902 1cca 68040000 		.4byte	.LASF119
 6903 1cce 01       		.byte	0x1
 6904 1ccf 0502     		.2byte	0x205
 6905 1cd1 0F060000 		.4byte	0x60f
 6906 1cd5 00000000 		.4byte	.LFB23
 6907 1cd9 10000000 		.4byte	.LFE23-.LFB23
 6908 1cdd 01       		.uleb128 0x1
 6909 1cde 9C       		.byte	0x9c
 6910 1cdf 141D0000 		.4byte	0x1d14
 6911 1ce3 19       		.uleb128 0x19
 6912 1ce4 EB030000 		.4byte	.LASF120
 6913 1ce8 01       		.byte	0x1
 6914 1ce9 0502     		.2byte	0x205
 6915 1ceb 141D0000 		.4byte	0x1d14
 6916 1cef D80B0000 		.4byte	.LLST89
 6917 1cf3 16       		.uleb128 0x16
 6918 1cf4 0E000000 		.4byte	.LVL379
 6919 1cf8 22060000 		.4byte	0x622
 6920 1cfc 15       		.uleb128 0x15
 6921 1cfd 01       		.uleb128 0x1
 6922 1cfe 50       		.byte	0x50
 6923 1cff 01       		.uleb128 0x1
 6924 1d00 4A       		.byte	0x4a
 6925 1d01 15       		.uleb128 0x15
 6926 1d02 01       		.uleb128 0x1
 6927 1d03 51       		.byte	0x51
 6928 1d04 01       		.uleb128 0x1
 6929 1d05 32       		.byte	0x32
ARM GAS  C:\Users\TERENC~1\AppData\Local\Temp\ccyX5Aoq.s 			page 136


 6930 1d06 15       		.uleb128 0x15
 6931 1d07 01       		.uleb128 0x1
 6932 1d08 52       		.byte	0x52
 6933 1d09 03       		.uleb128 0x3
 6934 1d0a F3       		.byte	0xf3
 6935 1d0b 01       		.uleb128 0x1
 6936 1d0c 50       		.byte	0x50
 6937 1d0d 15       		.uleb128 0x15
 6938 1d0e 01       		.uleb128 0x1
 6939 1d0f 53       		.byte	0x53
 6940 1d10 01       		.uleb128 0x1
 6941 1d11 30       		.byte	0x30
 6942 1d12 00       		.byte	0
 6943 1d13 00       		.byte	0
 6944 1d14 17       		.uleb128 0x17
 6945 1d15 04       		.byte	0x4
 6946 1d16 2F040000 		.4byte	0x42f
 6947 1d1a 18       		.uleb128 0x18
 6948 1d1b 5C030000 		.4byte	.LASF121
 6949 1d1f 01       		.byte	0x1
 6950 1d20 0A02     		.2byte	0x20a
 6951 1d22 0F060000 		.4byte	0x60f
 6952 1d26 00000000 		.4byte	.LFB24
 6953 1d2a 10000000 		.4byte	.LFE24-.LFB24
 6954 1d2e 01       		.uleb128 0x1
 6955 1d2f 9C       		.byte	0x9c
 6956 1d30 651D0000 		.4byte	0x1d65
 6957 1d34 19       		.uleb128 0x19
 6958 1d35 EB030000 		.4byte	.LASF120
 6959 1d39 01       		.byte	0x1
 6960 1d3a 0A02     		.2byte	0x20a
 6961 1d3c 651D0000 		.4byte	0x1d65
 6962 1d40 040C0000 		.4byte	.LLST90
 6963 1d44 16       		.uleb128 0x16
 6964 1d45 0E000000 		.4byte	.LVL382
 6965 1d49 22060000 		.4byte	0x622
 6966 1d4d 15       		.uleb128 0x15
 6967 1d4e 01       		.uleb128 0x1
 6968 1d4f 50       		.byte	0x50
 6969 1d50 01       		.uleb128 0x1
 6970 1d51 49       		.byte	0x49
 6971 1d52 15       		.uleb128 0x15
 6972 1d53 01       		.uleb128 0x1
 6973 1d54 51       		.byte	0x51
 6974 1d55 01       		.uleb128 0x1
 6975 1d56 31       		.byte	0x31
 6976 1d57 15       		.uleb128 0x15
 6977 1d58 01       		.uleb128 0x1
 6978 1d59 52       		.byte	0x52
 6979 1d5a 03       		.uleb128 0x3
 6980 1d5b F3       		.byte	0xf3
 6981 1d5c 01       		.uleb128 0x1
 6982 1d5d 50       		.byte	0x50
 6983 1d5e 15       		.uleb128 0x15
 6984 1d5f 01       		.uleb128 0x1
 6985 1d60 53       		.byte	0x53
 6986 1d61 01       		.uleb128 0x1
ARM GAS  C:\Users\TERENC~1\AppData\Local\Temp\ccyX5Aoq.s 			page 137


 6987 1d62 30       		.byte	0x30
 6988 1d63 00       		.byte	0
 6989 1d64 00       		.byte	0
 6990 1d65 17       		.uleb128 0x17
 6991 1d66 04       		.byte	0x4
 6992 1d67 4F040000 		.4byte	0x44f
 6993 1d6b 21       		.uleb128 0x21
 6994 1d6c 0D070000 		.4byte	.LASF122
 6995 1d70 01       		.byte	0x1
 6996 1d71 17       		.byte	0x17
 6997 1d72 A2000000 		.4byte	0xa2
 6998 1d76 05       		.uleb128 0x5
 6999 1d77 03       		.byte	0x3
 7000 1d78 00000000 		.4byte	nImageBytes
 7001 1d7c 22       		.uleb128 0x22
 7002 1d7d 03040000 		.4byte	.LASF123
 7003 1d81 06       		.byte	0x6
 7004 1d82 13       		.byte	0x13
 7005 1d83 871D0000 		.4byte	0x1d87
 7006 1d87 0C       		.uleb128 0xc
 7007 1d88 A2000000 		.4byte	0xa2
 7008 1d8c 09       		.uleb128 0x9
 7009 1d8d 74040000 		.4byte	0x474
 7010 1d91 971D0000 		.4byte	0x1d97
 7011 1d95 23       		.uleb128 0x23
 7012 1d96 00       		.byte	0
 7013 1d97 22       		.uleb128 0x22
 7014 1d98 7B050000 		.4byte	.LASF124
 7015 1d9c 07       		.byte	0x7
 7016 1d9d 3C       		.byte	0x3c
 7017 1d9e 8C1D0000 		.4byte	0x1d8c
 7018 1da2 24       		.uleb128 0x24
 7019 1da3 B1010000 		.4byte	.LASF125
 7020 1da7 B1010000 		.4byte	.LASF125
 7021 1dab 08       		.byte	0x8
 7022 1dac 3D03     		.2byte	0x33d
 7023 1dae 25       		.uleb128 0x25
 7024 1daf E6060000 		.4byte	.LASF126
 7025 1db3 E6060000 		.4byte	.LASF126
 7026 1db7 09       		.byte	0x9
 7027 1db8 28       		.byte	0x28
 7028 1db9 26       		.uleb128 0x26
 7029 1dba 97070000 		.4byte	.LASF151
 7030 1dbe 97070000 		.4byte	.LASF151
 7031 1dc2 25       		.uleb128 0x25
 7032 1dc3 74060000 		.4byte	.LASF127
 7033 1dc7 74060000 		.4byte	.LASF127
 7034 1dcb 09       		.byte	0x9
 7035 1dcc 24       		.byte	0x24
 7036 1dcd 25       		.uleb128 0x25
 7037 1dce 7B000000 		.4byte	.LASF128
 7038 1dd2 7B000000 		.4byte	.LASF128
 7039 1dd6 0A       		.byte	0xa
 7040 1dd7 32       		.byte	0x32
 7041 1dd8 24       		.uleb128 0x24
 7042 1dd9 17010000 		.4byte	.LASF129
 7043 1ddd 17010000 		.4byte	.LASF129
ARM GAS  C:\Users\TERENC~1\AppData\Local\Temp\ccyX5Aoq.s 			page 138


 7044 1de1 0B       		.byte	0xb
 7045 1de2 3201     		.2byte	0x132
 7046 1de4 24       		.uleb128 0x24
 7047 1de5 C5000000 		.4byte	.LASF130
 7048 1de9 C5000000 		.4byte	.LASF130
 7049 1ded 08       		.byte	0x8
 7050 1dee 4503     		.2byte	0x345
 7051 1df0 24       		.uleb128 0x24
 7052 1df1 84010000 		.4byte	.LASF131
 7053 1df5 84010000 		.4byte	.LASF131
 7054 1df9 08       		.byte	0x8
 7055 1dfa 3E03     		.2byte	0x33e
 7056 1dfc 24       		.uleb128 0x24
 7057 1dfd 2A050000 		.4byte	.LASF132
 7058 1e01 2A050000 		.4byte	.LASF132
 7059 1e05 08       		.byte	0x8
 7060 1e06 3F03     		.2byte	0x33f
 7061 1e08 25       		.uleb128 0x25
 7062 1e09 E8010000 		.4byte	.LASF133
 7063 1e0d E8010000 		.4byte	.LASF133
 7064 1e11 0C       		.byte	0xc
 7065 1e12 64       		.byte	0x64
 7066 1e13 25       		.uleb128 0x25
 7067 1e14 7D030000 		.4byte	.LASF134
 7068 1e18 7D030000 		.4byte	.LASF134
 7069 1e1c 0C       		.byte	0xc
 7070 1e1d 59       		.byte	0x59
 7071 1e1e 25       		.uleb128 0x25
 7072 1e1f C6040000 		.4byte	.LASF135
 7073 1e23 C6040000 		.4byte	.LASF135
 7074 1e27 0D       		.byte	0xd
 7075 1e28 19       		.byte	0x19
 7076 1e29 25       		.uleb128 0x25
 7077 1e2a 5B070000 		.4byte	.LASF136
 7078 1e2e 5B070000 		.4byte	.LASF136
 7079 1e32 0E       		.byte	0xe
 7080 1e33 36       		.byte	0x36
 7081 1e34 25       		.uleb128 0x25
 7082 1e35 C2050000 		.4byte	.LASF137
 7083 1e39 C2050000 		.4byte	.LASF137
 7084 1e3d 0E       		.byte	0xe
 7085 1e3e 33       		.byte	0x33
 7086 1e3f 25       		.uleb128 0x25
 7087 1e40 E5070000 		.4byte	.LASF138
 7088 1e44 E5070000 		.4byte	.LASF138
 7089 1e48 0F       		.byte	0xf
 7090 1e49 36       		.byte	0x36
 7091 1e4a 25       		.uleb128 0x25
 7092 1e4b FA050000 		.4byte	.LASF139
 7093 1e4f FA050000 		.4byte	.LASF139
 7094 1e53 0F       		.byte	0xf
 7095 1e54 33       		.byte	0x33
 7096 1e55 25       		.uleb128 0x25
 7097 1e56 38060000 		.4byte	.LASF140
 7098 1e5a 38060000 		.4byte	.LASF140
 7099 1e5e 10       		.byte	0x10
 7100 1e5f 36       		.byte	0x36
ARM GAS  C:\Users\TERENC~1\AppData\Local\Temp\ccyX5Aoq.s 			page 139


 7101 1e60 25       		.uleb128 0x25
 7102 1e61 91040000 		.4byte	.LASF141
 7103 1e65 91040000 		.4byte	.LASF141
 7104 1e69 10       		.byte	0x10
 7105 1e6a 33       		.byte	0x33
 7106 1e6b 25       		.uleb128 0x25
 7107 1e6c 07000000 		.4byte	.LASF142
 7108 1e70 07000000 		.4byte	.LASF142
 7109 1e74 11       		.byte	0x11
 7110 1e75 D9       		.byte	0xd9
 7111 1e76 25       		.uleb128 0x25
 7112 1e77 F6010000 		.4byte	.LASF143
 7113 1e7b F6010000 		.4byte	.LASF143
 7114 1e7f 11       		.byte	0x11
 7115 1e80 DA       		.byte	0xda
 7116 1e81 25       		.uleb128 0x25
 7117 1e82 64050000 		.4byte	.LASF144
 7118 1e86 64050000 		.4byte	.LASF144
 7119 1e8a 12       		.byte	0x12
 7120 1e8b E7       		.byte	0xe7
 7121 1e8c 25       		.uleb128 0x25
 7122 1e8d F9060000 		.4byte	.LASF145
 7123 1e91 F9060000 		.4byte	.LASF145
 7124 1e95 13       		.byte	0x13
 7125 1e96 73       		.byte	0x73
 7126 1e97 25       		.uleb128 0x25
 7127 1e98 00020000 		.4byte	.LASF146
 7128 1e9c 00020000 		.4byte	.LASF146
 7129 1ea0 13       		.byte	0x13
 7130 1ea1 72       		.byte	0x72
 7131 1ea2 00       		.byte	0
 7132              		.section	.debug_abbrev,"",%progbits
 7133              	.Ldebug_abbrev0:
 7134 0000 01       		.uleb128 0x1
 7135 0001 11       		.uleb128 0x11
 7136 0002 01       		.byte	0x1
 7137 0003 25       		.uleb128 0x25
 7138 0004 0E       		.uleb128 0xe
 7139 0005 13       		.uleb128 0x13
 7140 0006 0B       		.uleb128 0xb
 7141 0007 03       		.uleb128 0x3
 7142 0008 0E       		.uleb128 0xe
 7143 0009 1B       		.uleb128 0x1b
 7144 000a 0E       		.uleb128 0xe
 7145 000b 55       		.uleb128 0x55
 7146 000c 17       		.uleb128 0x17
 7147 000d 11       		.uleb128 0x11
 7148 000e 01       		.uleb128 0x1
 7149 000f 10       		.uleb128 0x10
 7150 0010 17       		.uleb128 0x17
 7151 0011 00       		.byte	0
 7152 0012 00       		.byte	0
 7153 0013 02       		.uleb128 0x2
 7154 0014 24       		.uleb128 0x24
 7155 0015 00       		.byte	0
 7156 0016 0B       		.uleb128 0xb
 7157 0017 0B       		.uleb128 0xb
ARM GAS  C:\Users\TERENC~1\AppData\Local\Temp\ccyX5Aoq.s 			page 140


 7158 0018 3E       		.uleb128 0x3e
 7159 0019 0B       		.uleb128 0xb
 7160 001a 03       		.uleb128 0x3
 7161 001b 0E       		.uleb128 0xe
 7162 001c 00       		.byte	0
 7163 001d 00       		.byte	0
 7164 001e 03       		.uleb128 0x3
 7165 001f 16       		.uleb128 0x16
 7166 0020 00       		.byte	0
 7167 0021 03       		.uleb128 0x3
 7168 0022 0E       		.uleb128 0xe
 7169 0023 3A       		.uleb128 0x3a
 7170 0024 0B       		.uleb128 0xb
 7171 0025 3B       		.uleb128 0x3b
 7172 0026 0B       		.uleb128 0xb
 7173 0027 49       		.uleb128 0x49
 7174 0028 13       		.uleb128 0x13
 7175 0029 00       		.byte	0
 7176 002a 00       		.byte	0
 7177 002b 04       		.uleb128 0x4
 7178 002c 24       		.uleb128 0x24
 7179 002d 00       		.byte	0
 7180 002e 0B       		.uleb128 0xb
 7181 002f 0B       		.uleb128 0xb
 7182 0030 3E       		.uleb128 0x3e
 7183 0031 0B       		.uleb128 0xb
 7184 0032 03       		.uleb128 0x3
 7185 0033 08       		.uleb128 0x8
 7186 0034 00       		.byte	0
 7187 0035 00       		.byte	0
 7188 0036 05       		.uleb128 0x5
 7189 0037 13       		.uleb128 0x13
 7190 0038 01       		.byte	0x1
 7191 0039 0B       		.uleb128 0xb
 7192 003a 0B       		.uleb128 0xb
 7193 003b 3A       		.uleb128 0x3a
 7194 003c 0B       		.uleb128 0xb
 7195 003d 3B       		.uleb128 0x3b
 7196 003e 0B       		.uleb128 0xb
 7197 003f 01       		.uleb128 0x1
 7198 0040 13       		.uleb128 0x13
 7199 0041 00       		.byte	0
 7200 0042 00       		.byte	0
 7201 0043 06       		.uleb128 0x6
 7202 0044 0D       		.uleb128 0xd
 7203 0045 00       		.byte	0
 7204 0046 03       		.uleb128 0x3
 7205 0047 0E       		.uleb128 0xe
 7206 0048 3A       		.uleb128 0x3a
 7207 0049 0B       		.uleb128 0xb
 7208 004a 3B       		.uleb128 0x3b
 7209 004b 0B       		.uleb128 0xb
 7210 004c 49       		.uleb128 0x49
 7211 004d 13       		.uleb128 0x13
 7212 004e 0B       		.uleb128 0xb
 7213 004f 0B       		.uleb128 0xb
 7214 0050 0D       		.uleb128 0xd
ARM GAS  C:\Users\TERENC~1\AppData\Local\Temp\ccyX5Aoq.s 			page 141


 7215 0051 0B       		.uleb128 0xb
 7216 0052 0C       		.uleb128 0xc
 7217 0053 0B       		.uleb128 0xb
 7218 0054 38       		.uleb128 0x38
 7219 0055 0B       		.uleb128 0xb
 7220 0056 00       		.byte	0
 7221 0057 00       		.byte	0
 7222 0058 07       		.uleb128 0x7
 7223 0059 0D       		.uleb128 0xd
 7224 005a 00       		.byte	0
 7225 005b 03       		.uleb128 0x3
 7226 005c 08       		.uleb128 0x8
 7227 005d 3A       		.uleb128 0x3a
 7228 005e 0B       		.uleb128 0xb
 7229 005f 3B       		.uleb128 0x3b
 7230 0060 0B       		.uleb128 0xb
 7231 0061 49       		.uleb128 0x49
 7232 0062 13       		.uleb128 0x13
 7233 0063 38       		.uleb128 0x38
 7234 0064 0B       		.uleb128 0xb
 7235 0065 00       		.byte	0
 7236 0066 00       		.byte	0
 7237 0067 08       		.uleb128 0x8
 7238 0068 0D       		.uleb128 0xd
 7239 0069 00       		.byte	0
 7240 006a 03       		.uleb128 0x3
 7241 006b 0E       		.uleb128 0xe
 7242 006c 3A       		.uleb128 0x3a
 7243 006d 0B       		.uleb128 0xb
 7244 006e 3B       		.uleb128 0x3b
 7245 006f 0B       		.uleb128 0xb
 7246 0070 49       		.uleb128 0x49
 7247 0071 13       		.uleb128 0x13
 7248 0072 38       		.uleb128 0x38
 7249 0073 0B       		.uleb128 0xb
 7250 0074 00       		.byte	0
 7251 0075 00       		.byte	0
 7252 0076 09       		.uleb128 0x9
 7253 0077 01       		.uleb128 0x1
 7254 0078 01       		.byte	0x1
 7255 0079 49       		.uleb128 0x49
 7256 007a 13       		.uleb128 0x13
 7257 007b 01       		.uleb128 0x1
 7258 007c 13       		.uleb128 0x13
 7259 007d 00       		.byte	0
 7260 007e 00       		.byte	0
 7261 007f 0A       		.uleb128 0xa
 7262 0080 21       		.uleb128 0x21
 7263 0081 00       		.byte	0
 7264 0082 49       		.uleb128 0x49
 7265 0083 13       		.uleb128 0x13
 7266 0084 2F       		.uleb128 0x2f
 7267 0085 0B       		.uleb128 0xb
 7268 0086 00       		.byte	0
 7269 0087 00       		.byte	0
 7270 0088 0B       		.uleb128 0xb
 7271 0089 16       		.uleb128 0x16
ARM GAS  C:\Users\TERENC~1\AppData\Local\Temp\ccyX5Aoq.s 			page 142


 7272 008a 00       		.byte	0
 7273 008b 03       		.uleb128 0x3
 7274 008c 0E       		.uleb128 0xe
 7275 008d 3A       		.uleb128 0x3a
 7276 008e 0B       		.uleb128 0xb
 7277 008f 3B       		.uleb128 0x3b
 7278 0090 05       		.uleb128 0x5
 7279 0091 49       		.uleb128 0x49
 7280 0092 13       		.uleb128 0x13
 7281 0093 00       		.byte	0
 7282 0094 00       		.byte	0
 7283 0095 0C       		.uleb128 0xc
 7284 0096 35       		.uleb128 0x35
 7285 0097 00       		.byte	0
 7286 0098 49       		.uleb128 0x49
 7287 0099 13       		.uleb128 0x13
 7288 009a 00       		.byte	0
 7289 009b 00       		.byte	0
 7290 009c 0D       		.uleb128 0xd
 7291 009d 26       		.uleb128 0x26
 7292 009e 00       		.byte	0
 7293 009f 49       		.uleb128 0x49
 7294 00a0 13       		.uleb128 0x13
 7295 00a1 00       		.byte	0
 7296 00a2 00       		.byte	0
 7297 00a3 0E       		.uleb128 0xe
 7298 00a4 2E       		.uleb128 0x2e
 7299 00a5 01       		.byte	0x1
 7300 00a6 03       		.uleb128 0x3
 7301 00a7 0E       		.uleb128 0xe
 7302 00a8 3A       		.uleb128 0x3a
 7303 00a9 0B       		.uleb128 0xb
 7304 00aa 3B       		.uleb128 0x3b
 7305 00ab 0B       		.uleb128 0xb
 7306 00ac 27       		.uleb128 0x27
 7307 00ad 19       		.uleb128 0x19
 7308 00ae 49       		.uleb128 0x49
 7309 00af 13       		.uleb128 0x13
 7310 00b0 11       		.uleb128 0x11
 7311 00b1 01       		.uleb128 0x1
 7312 00b2 12       		.uleb128 0x12
 7313 00b3 06       		.uleb128 0x6
 7314 00b4 40       		.uleb128 0x40
 7315 00b5 18       		.uleb128 0x18
 7316 00b6 9742     		.uleb128 0x2117
 7317 00b8 19       		.uleb128 0x19
 7318 00b9 01       		.uleb128 0x1
 7319 00ba 13       		.uleb128 0x13
 7320 00bb 00       		.byte	0
 7321 00bc 00       		.byte	0
 7322 00bd 0F       		.uleb128 0xf
 7323 00be 898201   		.uleb128 0x4109
 7324 00c1 00       		.byte	0
 7325 00c2 11       		.uleb128 0x11
 7326 00c3 01       		.uleb128 0x1
 7327 00c4 31       		.uleb128 0x31
 7328 00c5 13       		.uleb128 0x13
ARM GAS  C:\Users\TERENC~1\AppData\Local\Temp\ccyX5Aoq.s 			page 143


 7329 00c6 00       		.byte	0
 7330 00c7 00       		.byte	0
 7331 00c8 10       		.uleb128 0x10
 7332 00c9 05       		.uleb128 0x5
 7333 00ca 00       		.byte	0
 7334 00cb 03       		.uleb128 0x3
 7335 00cc 0E       		.uleb128 0xe
 7336 00cd 3A       		.uleb128 0x3a
 7337 00ce 0B       		.uleb128 0xb
 7338 00cf 3B       		.uleb128 0x3b
 7339 00d0 0B       		.uleb128 0xb
 7340 00d1 49       		.uleb128 0x49
 7341 00d2 13       		.uleb128 0x13
 7342 00d3 02       		.uleb128 0x2
 7343 00d4 17       		.uleb128 0x17
 7344 00d5 00       		.byte	0
 7345 00d6 00       		.byte	0
 7346 00d7 11       		.uleb128 0x11
 7347 00d8 34       		.uleb128 0x34
 7348 00d9 00       		.byte	0
 7349 00da 03       		.uleb128 0x3
 7350 00db 0E       		.uleb128 0xe
 7351 00dc 3A       		.uleb128 0x3a
 7352 00dd 0B       		.uleb128 0xb
 7353 00de 3B       		.uleb128 0x3b
 7354 00df 0B       		.uleb128 0xb
 7355 00e0 49       		.uleb128 0x49
 7356 00e1 13       		.uleb128 0x13
 7357 00e2 02       		.uleb128 0x2
 7358 00e3 17       		.uleb128 0x17
 7359 00e4 00       		.byte	0
 7360 00e5 00       		.byte	0
 7361 00e6 12       		.uleb128 0x12
 7362 00e7 34       		.uleb128 0x34
 7363 00e8 00       		.byte	0
 7364 00e9 03       		.uleb128 0x3
 7365 00ea 08       		.uleb128 0x8
 7366 00eb 3A       		.uleb128 0x3a
 7367 00ec 0B       		.uleb128 0xb
 7368 00ed 3B       		.uleb128 0x3b
 7369 00ee 0B       		.uleb128 0xb
 7370 00ef 49       		.uleb128 0x49
 7371 00f0 13       		.uleb128 0x13
 7372 00f1 02       		.uleb128 0x2
 7373 00f2 17       		.uleb128 0x17
 7374 00f3 00       		.byte	0
 7375 00f4 00       		.byte	0
 7376 00f5 13       		.uleb128 0x13
 7377 00f6 0B       		.uleb128 0xb
 7378 00f7 01       		.byte	0x1
 7379 00f8 11       		.uleb128 0x11
 7380 00f9 01       		.uleb128 0x1
 7381 00fa 12       		.uleb128 0x12
 7382 00fb 06       		.uleb128 0x6
 7383 00fc 01       		.uleb128 0x1
 7384 00fd 13       		.uleb128 0x13
 7385 00fe 00       		.byte	0
ARM GAS  C:\Users\TERENC~1\AppData\Local\Temp\ccyX5Aoq.s 			page 144


 7386 00ff 00       		.byte	0
 7387 0100 14       		.uleb128 0x14
 7388 0101 898201   		.uleb128 0x4109
 7389 0104 01       		.byte	0x1
 7390 0105 11       		.uleb128 0x11
 7391 0106 01       		.uleb128 0x1
 7392 0107 31       		.uleb128 0x31
 7393 0108 13       		.uleb128 0x13
 7394 0109 01       		.uleb128 0x1
 7395 010a 13       		.uleb128 0x13
 7396 010b 00       		.byte	0
 7397 010c 00       		.byte	0
 7398 010d 15       		.uleb128 0x15
 7399 010e 8A8201   		.uleb128 0x410a
 7400 0111 00       		.byte	0
 7401 0112 02       		.uleb128 0x2
 7402 0113 18       		.uleb128 0x18
 7403 0114 9142     		.uleb128 0x2111
 7404 0116 18       		.uleb128 0x18
 7405 0117 00       		.byte	0
 7406 0118 00       		.byte	0
 7407 0119 16       		.uleb128 0x16
 7408 011a 898201   		.uleb128 0x4109
 7409 011d 01       		.byte	0x1
 7410 011e 11       		.uleb128 0x11
 7411 011f 01       		.uleb128 0x1
 7412 0120 31       		.uleb128 0x31
 7413 0121 13       		.uleb128 0x13
 7414 0122 00       		.byte	0
 7415 0123 00       		.byte	0
 7416 0124 17       		.uleb128 0x17
 7417 0125 0F       		.uleb128 0xf
 7418 0126 00       		.byte	0
 7419 0127 0B       		.uleb128 0xb
 7420 0128 0B       		.uleb128 0xb
 7421 0129 49       		.uleb128 0x49
 7422 012a 13       		.uleb128 0x13
 7423 012b 00       		.byte	0
 7424 012c 00       		.byte	0
 7425 012d 18       		.uleb128 0x18
 7426 012e 2E       		.uleb128 0x2e
 7427 012f 01       		.byte	0x1
 7428 0130 3F       		.uleb128 0x3f
 7429 0131 19       		.uleb128 0x19
 7430 0132 03       		.uleb128 0x3
 7431 0133 0E       		.uleb128 0xe
 7432 0134 3A       		.uleb128 0x3a
 7433 0135 0B       		.uleb128 0xb
 7434 0136 3B       		.uleb128 0x3b
 7435 0137 05       		.uleb128 0x5
 7436 0138 27       		.uleb128 0x27
 7437 0139 19       		.uleb128 0x19
 7438 013a 49       		.uleb128 0x49
 7439 013b 13       		.uleb128 0x13
 7440 013c 11       		.uleb128 0x11
 7441 013d 01       		.uleb128 0x1
 7442 013e 12       		.uleb128 0x12
ARM GAS  C:\Users\TERENC~1\AppData\Local\Temp\ccyX5Aoq.s 			page 145


 7443 013f 06       		.uleb128 0x6
 7444 0140 40       		.uleb128 0x40
 7445 0141 18       		.uleb128 0x18
 7446 0142 9742     		.uleb128 0x2117
 7447 0144 19       		.uleb128 0x19
 7448 0145 01       		.uleb128 0x1
 7449 0146 13       		.uleb128 0x13
 7450 0147 00       		.byte	0
 7451 0148 00       		.byte	0
 7452 0149 19       		.uleb128 0x19
 7453 014a 05       		.uleb128 0x5
 7454 014b 00       		.byte	0
 7455 014c 03       		.uleb128 0x3
 7456 014d 0E       		.uleb128 0xe
 7457 014e 3A       		.uleb128 0x3a
 7458 014f 0B       		.uleb128 0xb
 7459 0150 3B       		.uleb128 0x3b
 7460 0151 05       		.uleb128 0x5
 7461 0152 49       		.uleb128 0x49
 7462 0153 13       		.uleb128 0x13
 7463 0154 02       		.uleb128 0x2
 7464 0155 17       		.uleb128 0x17
 7465 0156 00       		.byte	0
 7466 0157 00       		.byte	0
 7467 0158 1A       		.uleb128 0x1a
 7468 0159 34       		.uleb128 0x34
 7469 015a 00       		.byte	0
 7470 015b 03       		.uleb128 0x3
 7471 015c 0E       		.uleb128 0xe
 7472 015d 3A       		.uleb128 0x3a
 7473 015e 0B       		.uleb128 0xb
 7474 015f 3B       		.uleb128 0x3b
 7475 0160 05       		.uleb128 0x5
 7476 0161 49       		.uleb128 0x49
 7477 0162 13       		.uleb128 0x13
 7478 0163 02       		.uleb128 0x2
 7479 0164 18       		.uleb128 0x18
 7480 0165 00       		.byte	0
 7481 0166 00       		.byte	0
 7482 0167 1B       		.uleb128 0x1b
 7483 0168 34       		.uleb128 0x34
 7484 0169 00       		.byte	0
 7485 016a 03       		.uleb128 0x3
 7486 016b 08       		.uleb128 0x8
 7487 016c 3A       		.uleb128 0x3a
 7488 016d 0B       		.uleb128 0xb
 7489 016e 3B       		.uleb128 0x3b
 7490 016f 05       		.uleb128 0x5
 7491 0170 49       		.uleb128 0x49
 7492 0171 13       		.uleb128 0x13
 7493 0172 02       		.uleb128 0x2
 7494 0173 18       		.uleb128 0x18
 7495 0174 00       		.byte	0
 7496 0175 00       		.byte	0
 7497 0176 1C       		.uleb128 0x1c
 7498 0177 34       		.uleb128 0x34
 7499 0178 00       		.byte	0
ARM GAS  C:\Users\TERENC~1\AppData\Local\Temp\ccyX5Aoq.s 			page 146


 7500 0179 03       		.uleb128 0x3
 7501 017a 08       		.uleb128 0x8
 7502 017b 3A       		.uleb128 0x3a
 7503 017c 0B       		.uleb128 0xb
 7504 017d 3B       		.uleb128 0x3b
 7505 017e 05       		.uleb128 0x5
 7506 017f 49       		.uleb128 0x49
 7507 0180 13       		.uleb128 0x13
 7508 0181 02       		.uleb128 0x2
 7509 0182 17       		.uleb128 0x17
 7510 0183 00       		.byte	0
 7511 0184 00       		.byte	0
 7512 0185 1D       		.uleb128 0x1d
 7513 0186 34       		.uleb128 0x34
 7514 0187 00       		.byte	0
 7515 0188 03       		.uleb128 0x3
 7516 0189 0E       		.uleb128 0xe
 7517 018a 3A       		.uleb128 0x3a
 7518 018b 0B       		.uleb128 0xb
 7519 018c 3B       		.uleb128 0x3b
 7520 018d 05       		.uleb128 0x5
 7521 018e 49       		.uleb128 0x49
 7522 018f 13       		.uleb128 0x13
 7523 0190 02       		.uleb128 0x2
 7524 0191 17       		.uleb128 0x17
 7525 0192 00       		.byte	0
 7526 0193 00       		.byte	0
 7527 0194 1E       		.uleb128 0x1e
 7528 0195 34       		.uleb128 0x34
 7529 0196 00       		.byte	0
 7530 0197 03       		.uleb128 0x3
 7531 0198 0E       		.uleb128 0xe
 7532 0199 49       		.uleb128 0x49
 7533 019a 13       		.uleb128 0x13
 7534 019b 34       		.uleb128 0x34
 7535 019c 19       		.uleb128 0x19
 7536 019d 02       		.uleb128 0x2
 7537 019e 18       		.uleb128 0x18
 7538 019f 00       		.byte	0
 7539 01a0 00       		.byte	0
 7540 01a1 1F       		.uleb128 0x1f
 7541 01a2 2E       		.uleb128 0x2e
 7542 01a3 01       		.byte	0x1
 7543 01a4 03       		.uleb128 0x3
 7544 01a5 0E       		.uleb128 0xe
 7545 01a6 3A       		.uleb128 0x3a
 7546 01a7 0B       		.uleb128 0xb
 7547 01a8 3B       		.uleb128 0x3b
 7548 01a9 05       		.uleb128 0x5
 7549 01aa 27       		.uleb128 0x27
 7550 01ab 19       		.uleb128 0x19
 7551 01ac 49       		.uleb128 0x49
 7552 01ad 13       		.uleb128 0x13
 7553 01ae 11       		.uleb128 0x11
 7554 01af 01       		.uleb128 0x1
 7555 01b0 12       		.uleb128 0x12
 7556 01b1 06       		.uleb128 0x6
ARM GAS  C:\Users\TERENC~1\AppData\Local\Temp\ccyX5Aoq.s 			page 147


 7557 01b2 40       		.uleb128 0x40
 7558 01b3 18       		.uleb128 0x18
 7559 01b4 9742     		.uleb128 0x2117
 7560 01b6 19       		.uleb128 0x19
 7561 01b7 01       		.uleb128 0x1
 7562 01b8 13       		.uleb128 0x13
 7563 01b9 00       		.byte	0
 7564 01ba 00       		.byte	0
 7565 01bb 20       		.uleb128 0x20
 7566 01bc 2E       		.uleb128 0x2e
 7567 01bd 01       		.byte	0x1
 7568 01be 3F       		.uleb128 0x3f
 7569 01bf 19       		.uleb128 0x19
 7570 01c0 03       		.uleb128 0x3
 7571 01c1 0E       		.uleb128 0xe
 7572 01c2 3A       		.uleb128 0x3a
 7573 01c3 0B       		.uleb128 0xb
 7574 01c4 3B       		.uleb128 0x3b
 7575 01c5 05       		.uleb128 0x5
 7576 01c6 27       		.uleb128 0x27
 7577 01c7 19       		.uleb128 0x19
 7578 01c8 11       		.uleb128 0x11
 7579 01c9 01       		.uleb128 0x1
 7580 01ca 12       		.uleb128 0x12
 7581 01cb 06       		.uleb128 0x6
 7582 01cc 40       		.uleb128 0x40
 7583 01cd 18       		.uleb128 0x18
 7584 01ce 9742     		.uleb128 0x2117
 7585 01d0 19       		.uleb128 0x19
 7586 01d1 01       		.uleb128 0x1
 7587 01d2 13       		.uleb128 0x13
 7588 01d3 00       		.byte	0
 7589 01d4 00       		.byte	0
 7590 01d5 21       		.uleb128 0x21
 7591 01d6 34       		.uleb128 0x34
 7592 01d7 00       		.byte	0
 7593 01d8 03       		.uleb128 0x3
 7594 01d9 0E       		.uleb128 0xe
 7595 01da 3A       		.uleb128 0x3a
 7596 01db 0B       		.uleb128 0xb
 7597 01dc 3B       		.uleb128 0x3b
 7598 01dd 0B       		.uleb128 0xb
 7599 01de 49       		.uleb128 0x49
 7600 01df 13       		.uleb128 0x13
 7601 01e0 02       		.uleb128 0x2
 7602 01e1 18       		.uleb128 0x18
 7603 01e2 00       		.byte	0
 7604 01e3 00       		.byte	0
 7605 01e4 22       		.uleb128 0x22
 7606 01e5 34       		.uleb128 0x34
 7607 01e6 00       		.byte	0
 7608 01e7 03       		.uleb128 0x3
 7609 01e8 0E       		.uleb128 0xe
 7610 01e9 3A       		.uleb128 0x3a
 7611 01ea 0B       		.uleb128 0xb
 7612 01eb 3B       		.uleb128 0x3b
 7613 01ec 0B       		.uleb128 0xb
ARM GAS  C:\Users\TERENC~1\AppData\Local\Temp\ccyX5Aoq.s 			page 148


 7614 01ed 49       		.uleb128 0x49
 7615 01ee 13       		.uleb128 0x13
 7616 01ef 3F       		.uleb128 0x3f
 7617 01f0 19       		.uleb128 0x19
 7618 01f1 3C       		.uleb128 0x3c
 7619 01f2 19       		.uleb128 0x19
 7620 01f3 00       		.byte	0
 7621 01f4 00       		.byte	0
 7622 01f5 23       		.uleb128 0x23
 7623 01f6 21       		.uleb128 0x21
 7624 01f7 00       		.byte	0
 7625 01f8 00       		.byte	0
 7626 01f9 00       		.byte	0
 7627 01fa 24       		.uleb128 0x24
 7628 01fb 2E       		.uleb128 0x2e
 7629 01fc 00       		.byte	0
 7630 01fd 3F       		.uleb128 0x3f
 7631 01fe 19       		.uleb128 0x19
 7632 01ff 3C       		.uleb128 0x3c
 7633 0200 19       		.uleb128 0x19
 7634 0201 6E       		.uleb128 0x6e
 7635 0202 0E       		.uleb128 0xe
 7636 0203 03       		.uleb128 0x3
 7637 0204 0E       		.uleb128 0xe
 7638 0205 3A       		.uleb128 0x3a
 7639 0206 0B       		.uleb128 0xb
 7640 0207 3B       		.uleb128 0x3b
 7641 0208 05       		.uleb128 0x5
 7642 0209 00       		.byte	0
 7643 020a 00       		.byte	0
 7644 020b 25       		.uleb128 0x25
 7645 020c 2E       		.uleb128 0x2e
 7646 020d 00       		.byte	0
 7647 020e 3F       		.uleb128 0x3f
 7648 020f 19       		.uleb128 0x19
 7649 0210 3C       		.uleb128 0x3c
 7650 0211 19       		.uleb128 0x19
 7651 0212 6E       		.uleb128 0x6e
 7652 0213 0E       		.uleb128 0xe
 7653 0214 03       		.uleb128 0x3
 7654 0215 0E       		.uleb128 0xe
 7655 0216 3A       		.uleb128 0x3a
 7656 0217 0B       		.uleb128 0xb
 7657 0218 3B       		.uleb128 0x3b
 7658 0219 0B       		.uleb128 0xb
 7659 021a 00       		.byte	0
 7660 021b 00       		.byte	0
 7661 021c 26       		.uleb128 0x26
 7662 021d 2E       		.uleb128 0x2e
 7663 021e 00       		.byte	0
 7664 021f 3F       		.uleb128 0x3f
 7665 0220 19       		.uleb128 0x19
 7666 0221 3C       		.uleb128 0x3c
 7667 0222 19       		.uleb128 0x19
 7668 0223 6E       		.uleb128 0x6e
 7669 0224 0E       		.uleb128 0xe
 7670 0225 03       		.uleb128 0x3
ARM GAS  C:\Users\TERENC~1\AppData\Local\Temp\ccyX5Aoq.s 			page 149


 7671 0226 0E       		.uleb128 0xe
 7672 0227 00       		.byte	0
 7673 0228 00       		.byte	0
 7674 0229 00       		.byte	0
 7675              		.section	.debug_loc,"",%progbits
 7676              	.Ldebug_loc0:
 7677              	.LLST0:
 7678 0000 00000000 		.4byte	.LVL1
 7679 0004 18000000 		.4byte	.LVL4
 7680 0008 0100     		.2byte	0x1
 7681 000a 50       		.byte	0x50
 7682 000b 18000000 		.4byte	.LVL4
 7683 000f 0C010000 		.4byte	.LFE5
 7684 0013 0200     		.2byte	0x2
 7685 0015 91       		.byte	0x91
 7686 0016 64       		.sleb128 -28
 7687 0017 00000000 		.4byte	0
 7688 001b 00000000 		.4byte	0
 7689              	.LLST1:
 7690 001f 00000000 		.4byte	.LVL1
 7691 0023 18000000 		.4byte	.LVL4
 7692 0027 0100     		.2byte	0x1
 7693 0029 51       		.byte	0x51
 7694 002a 18000000 		.4byte	.LVL4
 7695 002e F6000000 		.4byte	.LVL31
 7696 0032 0100     		.2byte	0x1
 7697 0034 56       		.byte	0x56
 7698 0035 F6000000 		.4byte	.LVL31
 7699 0039 0C010000 		.4byte	.LFE5
 7700 003d 0400     		.2byte	0x4
 7701 003f F3       		.byte	0xf3
 7702 0040 01       		.uleb128 0x1
 7703 0041 51       		.byte	0x51
 7704 0042 9F       		.byte	0x9f
 7705 0043 00000000 		.4byte	0
 7706 0047 00000000 		.4byte	0
 7707              	.LLST2:
 7708 004b 00000000 		.4byte	.LVL1
 7709 004f 18000000 		.4byte	.LVL4
 7710 0053 0100     		.2byte	0x1
 7711 0055 52       		.byte	0x52
 7712 0056 18000000 		.4byte	.LVL4
 7713 005a D6000000 		.4byte	.LVL22
 7714 005e 0100     		.2byte	0x1
 7715 0060 55       		.byte	0x55
 7716 0061 D6000000 		.4byte	.LVL22
 7717 0065 E4000000 		.4byte	.LVL25
 7718 0069 0400     		.2byte	0x4
 7719 006b F3       		.byte	0xf3
 7720 006c 01       		.uleb128 0x1
 7721 006d 52       		.byte	0x52
 7722 006e 9F       		.byte	0x9f
 7723 006f E4000000 		.4byte	.LVL25
 7724 0073 E6000000 		.4byte	.LVL26
 7725 0077 0100     		.2byte	0x1
 7726 0079 55       		.byte	0x55
 7727 007a E6000000 		.4byte	.LVL26
ARM GAS  C:\Users\TERENC~1\AppData\Local\Temp\ccyX5Aoq.s 			page 150


 7728 007e F2000000 		.4byte	.LVL29
 7729 0082 0400     		.2byte	0x4
 7730 0084 F3       		.byte	0xf3
 7731 0085 01       		.uleb128 0x1
 7732 0086 52       		.byte	0x52
 7733 0087 9F       		.byte	0x9f
 7734 0088 F2000000 		.4byte	.LVL29
 7735 008c F4000000 		.4byte	.LVL30
 7736 0090 0100     		.2byte	0x1
 7737 0092 55       		.byte	0x55
 7738 0093 F4000000 		.4byte	.LVL30
 7739 0097 0C010000 		.4byte	.LFE5
 7740 009b 0400     		.2byte	0x4
 7741 009d F3       		.byte	0xf3
 7742 009e 01       		.uleb128 0x1
 7743 009f 52       		.byte	0x52
 7744 00a0 9F       		.byte	0x9f
 7745 00a1 00000000 		.4byte	0
 7746 00a5 00000000 		.4byte	0
 7747              	.LLST3:
 7748 00a9 00000000 		.4byte	.LVL1
 7749 00ad 12000000 		.4byte	.LVL2
 7750 00b1 0100     		.2byte	0x1
 7751 00b3 53       		.byte	0x53
 7752 00b4 12000000 		.4byte	.LVL2
 7753 00b8 D4000000 		.4byte	.LVL21
 7754 00bc 0100     		.2byte	0x1
 7755 00be 58       		.byte	0x58
 7756 00bf D4000000 		.4byte	.LVL21
 7757 00c3 D6000000 		.4byte	.LVL22
 7758 00c7 0100     		.2byte	0x1
 7759 00c9 53       		.byte	0x53
 7760 00ca D6000000 		.4byte	.LVL22
 7761 00ce E4000000 		.4byte	.LVL25
 7762 00d2 0100     		.2byte	0x1
 7763 00d4 58       		.byte	0x58
 7764 00d5 E4000000 		.4byte	.LVL25
 7765 00d9 E6000000 		.4byte	.LVL26
 7766 00dd 0100     		.2byte	0x1
 7767 00df 53       		.byte	0x53
 7768 00e0 E6000000 		.4byte	.LVL26
 7769 00e4 F6000000 		.4byte	.LVL32
 7770 00e8 0100     		.2byte	0x1
 7771 00ea 58       		.byte	0x58
 7772 00eb F6000000 		.4byte	.LVL32
 7773 00ef 0C010000 		.4byte	.LFE5
 7774 00f3 0400     		.2byte	0x4
 7775 00f5 F3       		.byte	0xf3
 7776 00f6 01       		.uleb128 0x1
 7777 00f7 53       		.byte	0x53
 7778 00f8 9F       		.byte	0x9f
 7779 00f9 00000000 		.4byte	0
 7780 00fd 00000000 		.4byte	0
 7781              	.LLST4:
 7782 0101 00000000 		.4byte	.LVL1
 7783 0105 12000000 		.4byte	.LVL2
 7784 0109 0200     		.2byte	0x2
ARM GAS  C:\Users\TERENC~1\AppData\Local\Temp\ccyX5Aoq.s 			page 151


 7785 010b 91       		.byte	0x91
 7786 010c 00       		.sleb128 0
 7787 010d 12000000 		.4byte	.LVL2
 7788 0111 16000000 		.4byte	.LVL3
 7789 0115 0200     		.2byte	0x2
 7790 0117 73       		.byte	0x73
 7791 0118 00       		.sleb128 0
 7792 0119 16000000 		.4byte	.LVL3
 7793 011d CE000000 		.4byte	.LVL20
 7794 0121 0200     		.2byte	0x2
 7795 0123 91       		.byte	0x91
 7796 0124 00       		.sleb128 0
 7797 0125 CE000000 		.4byte	.LVL20
 7798 0129 F2000000 		.4byte	.LVL29
 7799 012d 0100     		.2byte	0x1
 7800 012f 57       		.byte	0x57
 7801 0130 F2000000 		.4byte	.LVL29
 7802 0134 F4000000 		.4byte	.LVL30
 7803 0138 0200     		.2byte	0x2
 7804 013a 91       		.byte	0x91
 7805 013b 00       		.sleb128 0
 7806 013c 00000000 		.4byte	0
 7807 0140 00000000 		.4byte	0
 7808              	.LLST5:
 7809 0144 00000000 		.4byte	.LVL1
 7810 0148 12000000 		.4byte	.LVL2
 7811 014c 0200     		.2byte	0x2
 7812 014e 91       		.byte	0x91
 7813 014f 04       		.sleb128 4
 7814 0150 12000000 		.4byte	.LVL2
 7815 0154 16000000 		.4byte	.LVL3
 7816 0158 0200     		.2byte	0x2
 7817 015a 73       		.byte	0x73
 7818 015b 04       		.sleb128 4
 7819 015c 16000000 		.4byte	.LVL3
 7820 0160 0C010000 		.4byte	.LFE5
 7821 0164 0200     		.2byte	0x2
 7822 0166 91       		.byte	0x91
 7823 0167 04       		.sleb128 4
 7824 0168 00000000 		.4byte	0
 7825 016c 00000000 		.4byte	0
 7826              	.LLST6:
 7827 0170 18000000 		.4byte	.LVL4
 7828 0174 32000000 		.4byte	.LVL6
 7829 0178 0100     		.2byte	0x1
 7830 017a 54       		.byte	0x54
 7831 017b 7A000000 		.4byte	.LVL14
 7832 017f D6000000 		.4byte	.LVL22
 7833 0183 0100     		.2byte	0x1
 7834 0185 54       		.byte	0x54
 7835 0186 E4000000 		.4byte	.LVL25
 7836 018a E6000000 		.4byte	.LVL26
 7837 018e 0100     		.2byte	0x1
 7838 0190 54       		.byte	0x54
 7839 0191 00000000 		.4byte	0
 7840 0195 00000000 		.4byte	0
 7841              	.LLST7:
ARM GAS  C:\Users\TERENC~1\AppData\Local\Temp\ccyX5Aoq.s 			page 152


 7842 0199 D6000000 		.4byte	.LVL22
 7843 019d E4000000 		.4byte	.LVL25
 7844 01a1 0100     		.2byte	0x1
 7845 01a3 54       		.byte	0x54
 7846 01a4 E6000000 		.4byte	.LVL26
 7847 01a8 EA000000 		.4byte	.LVL27
 7848 01ac 0100     		.2byte	0x1
 7849 01ae 54       		.byte	0x54
 7850 01af 00000000 		.4byte	0
 7851 01b3 00000000 		.4byte	0
 7852              	.LLST8:
 7853 01b7 44000000 		.4byte	.LVL8
 7854 01bb 5A000000 		.4byte	.LVL10
 7855 01bf 0100     		.2byte	0x1
 7856 01c1 54       		.byte	0x54
 7857 01c2 00000000 		.4byte	0
 7858 01c6 00000000 		.4byte	0
 7859              	.LLST9:
 7860 01ca 00000000 		.4byte	.LVL33
 7861 01ce 10000000 		.4byte	.LVL35
 7862 01d2 0100     		.2byte	0x1
 7863 01d4 50       		.byte	0x50
 7864 01d5 10000000 		.4byte	.LVL35
 7865 01d9 60000000 		.4byte	.LFE6
 7866 01dd 0400     		.2byte	0x4
 7867 01df F3       		.byte	0xf3
 7868 01e0 01       		.uleb128 0x1
 7869 01e1 50       		.byte	0x50
 7870 01e2 9F       		.byte	0x9f
 7871 01e3 00000000 		.4byte	0
 7872 01e7 00000000 		.4byte	0
 7873              	.LLST10:
 7874 01eb 00000000 		.4byte	.LVL33
 7875 01ef 13000000 		.4byte	.LVL36-1
 7876 01f3 0100     		.2byte	0x1
 7877 01f5 51       		.byte	0x51
 7878 01f6 13000000 		.4byte	.LVL36-1
 7879 01fa 60000000 		.4byte	.LFE6
 7880 01fe 0400     		.2byte	0x4
 7881 0200 F3       		.byte	0xf3
 7882 0201 01       		.uleb128 0x1
 7883 0202 51       		.byte	0x51
 7884 0203 9F       		.byte	0x9f
 7885 0204 00000000 		.4byte	0
 7886 0208 00000000 		.4byte	0
 7887              	.LLST11:
 7888 020c 00000000 		.4byte	.LVL33
 7889 0210 13000000 		.4byte	.LVL36-1
 7890 0214 0100     		.2byte	0x1
 7891 0216 52       		.byte	0x52
 7892 0217 13000000 		.4byte	.LVL36-1
 7893 021b 60000000 		.4byte	.LFE6
 7894 021f 0200     		.2byte	0x2
 7895 0221 91       		.byte	0x91
 7896 0222 60       		.sleb128 -32
 7897 0223 00000000 		.4byte	0
 7898 0227 00000000 		.4byte	0
ARM GAS  C:\Users\TERENC~1\AppData\Local\Temp\ccyX5Aoq.s 			page 153


 7899              	.LLST12:
 7900 022b 00000000 		.4byte	.LVL33
 7901 022f 13000000 		.4byte	.LVL36-1
 7902 0233 0100     		.2byte	0x1
 7903 0235 53       		.byte	0x53
 7904 0236 13000000 		.4byte	.LVL36-1
 7905 023a 60000000 		.4byte	.LFE6
 7906 023e 0200     		.2byte	0x2
 7907 0240 91       		.byte	0x91
 7908 0241 64       		.sleb128 -28
 7909 0242 00000000 		.4byte	0
 7910 0246 00000000 		.4byte	0
 7911              	.LLST13:
 7912 024a 0C000000 		.4byte	.LVL34
 7913 024e 4C000000 		.4byte	.LVL41
 7914 0252 0200     		.2byte	0x2
 7915 0254 30       		.byte	0x30
 7916 0255 9F       		.byte	0x9f
 7917 0256 4C000000 		.4byte	.LVL41
 7918 025a 5E000000 		.4byte	.LVL43
 7919 025e 0100     		.2byte	0x1
 7920 0260 54       		.byte	0x54
 7921 0261 00000000 		.4byte	0
 7922 0265 00000000 		.4byte	0
 7923              	.LLST14:
 7924 0269 16000000 		.4byte	.LVL37
 7925 026d 32000000 		.4byte	.LVL38
 7926 0271 0100     		.2byte	0x1
 7927 0273 50       		.byte	0x50
 7928 0274 32000000 		.4byte	.LVL38
 7929 0278 5E000000 		.4byte	.LVL44
 7930 027c 0100     		.2byte	0x1
 7931 027e 57       		.byte	0x57
 7932 027f 00000000 		.4byte	0
 7933 0283 00000000 		.4byte	0
 7934              	.LLST15:
 7935 0287 00000000 		.4byte	.LVL45
 7936 028b 0A000000 		.4byte	.LVL47
 7937 028f 0100     		.2byte	0x1
 7938 0291 50       		.byte	0x50
 7939 0292 0A000000 		.4byte	.LVL47
 7940 0296 3E000000 		.4byte	.LFE9
 7941 029a 0400     		.2byte	0x4
 7942 029c F3       		.byte	0xf3
 7943 029d 01       		.uleb128 0x1
 7944 029e 50       		.byte	0x50
 7945 029f 9F       		.byte	0x9f
 7946 02a0 00000000 		.4byte	0
 7947 02a4 00000000 		.4byte	0
 7948              	.LLST16:
 7949 02a8 00000000 		.4byte	.LVL45
 7950 02ac 0D000000 		.4byte	.LVL48-1
 7951 02b0 0100     		.2byte	0x1
 7952 02b2 51       		.byte	0x51
 7953 02b3 0D000000 		.4byte	.LVL48-1
 7954 02b7 2A000000 		.4byte	.LVL51
 7955 02bb 0100     		.2byte	0x1
ARM GAS  C:\Users\TERENC~1\AppData\Local\Temp\ccyX5Aoq.s 			page 154


 7956 02bd 55       		.byte	0x55
 7957 02be 2A000000 		.4byte	.LVL51
 7958 02c2 3E000000 		.4byte	.LFE9
 7959 02c6 0400     		.2byte	0x4
 7960 02c8 F3       		.byte	0xf3
 7961 02c9 01       		.uleb128 0x1
 7962 02ca 51       		.byte	0x51
 7963 02cb 9F       		.byte	0x9f
 7964 02cc 00000000 		.4byte	0
 7965 02d0 00000000 		.4byte	0
 7966              	.LLST17:
 7967 02d4 08000000 		.4byte	.LVL46
 7968 02d8 2A000000 		.4byte	.LVL51
 7969 02dc 0200     		.2byte	0x2
 7970 02de 30       		.byte	0x30
 7971 02df 9F       		.byte	0x9f
 7972 02e0 2A000000 		.4byte	.LVL51
 7973 02e4 3C000000 		.4byte	.LVL54
 7974 02e8 0100     		.2byte	0x1
 7975 02ea 55       		.byte	0x55
 7976 02eb 00000000 		.4byte	0
 7977 02ef 00000000 		.4byte	0
 7978              	.LLST18:
 7979 02f3 10000000 		.4byte	.LVL49
 7980 02f7 27000000 		.4byte	.LVL50-1
 7981 02fb 0100     		.2byte	0x1
 7982 02fd 50       		.byte	0x50
 7983 02fe 27000000 		.4byte	.LVL50-1
 7984 0302 3C000000 		.4byte	.LVL53
 7985 0306 0100     		.2byte	0x1
 7986 0308 54       		.byte	0x54
 7987 0309 00000000 		.4byte	0
 7988 030d 00000000 		.4byte	0
 7989              	.LLST19:
 7990 0311 00000000 		.4byte	.LVL55
 7991 0315 0E000000 		.4byte	.LVL57
 7992 0319 0100     		.2byte	0x1
 7993 031b 50       		.byte	0x50
 7994 031c 0E000000 		.4byte	.LVL57
 7995 0320 60000000 		.4byte	.LFE10
 7996 0324 0400     		.2byte	0x4
 7997 0326 F3       		.byte	0xf3
 7998 0327 01       		.uleb128 0x1
 7999 0328 50       		.byte	0x50
 8000 0329 9F       		.byte	0x9f
 8001 032a 00000000 		.4byte	0
 8002 032e 00000000 		.4byte	0
 8003              	.LLST20:
 8004 0332 00000000 		.4byte	.LVL55
 8005 0336 11000000 		.4byte	.LVL58-1
 8006 033a 0100     		.2byte	0x1
 8007 033c 51       		.byte	0x51
 8008 033d 11000000 		.4byte	.LVL58-1
 8009 0341 5E000000 		.4byte	.LVL66
 8010 0345 0100     		.2byte	0x1
 8011 0347 56       		.byte	0x56
 8012 0348 5E000000 		.4byte	.LVL66
ARM GAS  C:\Users\TERENC~1\AppData\Local\Temp\ccyX5Aoq.s 			page 155


 8013 034c 60000000 		.4byte	.LFE10
 8014 0350 0400     		.2byte	0x4
 8015 0352 F3       		.byte	0xf3
 8016 0353 01       		.uleb128 0x1
 8017 0354 51       		.byte	0x51
 8018 0355 9F       		.byte	0x9f
 8019 0356 00000000 		.4byte	0
 8020 035a 00000000 		.4byte	0
 8021              	.LLST21:
 8022 035e 00000000 		.4byte	.LVL55
 8023 0362 11000000 		.4byte	.LVL58-1
 8024 0366 0100     		.2byte	0x1
 8025 0368 52       		.byte	0x52
 8026 0369 11000000 		.4byte	.LVL58-1
 8027 036d 60000000 		.4byte	.LFE10
 8028 0371 0200     		.2byte	0x2
 8029 0373 91       		.byte	0x91
 8030 0374 64       		.sleb128 -28
 8031 0375 00000000 		.4byte	0
 8032 0379 00000000 		.4byte	0
 8033              	.LLST22:
 8034 037d 0A000000 		.4byte	.LVL56
 8035 0381 4C000000 		.4byte	.LVL63
 8036 0385 0200     		.2byte	0x2
 8037 0387 30       		.byte	0x30
 8038 0388 9F       		.byte	0x9f
 8039 0389 4C000000 		.4byte	.LVL63
 8040 038d 5E000000 		.4byte	.LVL65
 8041 0391 0100     		.2byte	0x1
 8042 0393 54       		.byte	0x54
 8043 0394 00000000 		.4byte	0
 8044 0398 00000000 		.4byte	0
 8045              	.LLST23:
 8046 039c 14000000 		.4byte	.LVL59
 8047 03a0 32000000 		.4byte	.LVL60
 8048 03a4 0100     		.2byte	0x1
 8049 03a6 50       		.byte	0x50
 8050 03a7 32000000 		.4byte	.LVL60
 8051 03ab 5E000000 		.4byte	.LVL67
 8052 03af 0100     		.2byte	0x1
 8053 03b1 57       		.byte	0x57
 8054 03b2 00000000 		.4byte	0
 8055 03b6 00000000 		.4byte	0
 8056              	.LLST24:
 8057 03ba 00000000 		.4byte	.LVL68
 8058 03be 0E000000 		.4byte	.LVL70
 8059 03c2 0100     		.2byte	0x1
 8060 03c4 50       		.byte	0x50
 8061 03c5 0E000000 		.4byte	.LVL70
 8062 03c9 52000000 		.4byte	.LFE7
 8063 03cd 0400     		.2byte	0x4
 8064 03cf F3       		.byte	0xf3
 8065 03d0 01       		.uleb128 0x1
 8066 03d1 50       		.byte	0x50
 8067 03d2 9F       		.byte	0x9f
 8068 03d3 00000000 		.4byte	0
 8069 03d7 00000000 		.4byte	0
ARM GAS  C:\Users\TERENC~1\AppData\Local\Temp\ccyX5Aoq.s 			page 156


 8070              	.LLST25:
 8071 03db 00000000 		.4byte	.LVL68
 8072 03df 11000000 		.4byte	.LVL71-1
 8073 03e3 0100     		.2byte	0x1
 8074 03e5 51       		.byte	0x51
 8075 03e6 11000000 		.4byte	.LVL71-1
 8076 03ea 52000000 		.4byte	.LFE7
 8077 03ee 0200     		.2byte	0x2
 8078 03f0 91       		.byte	0x91
 8079 03f1 64       		.sleb128 -28
 8080 03f2 00000000 		.4byte	0
 8081 03f6 00000000 		.4byte	0
 8082              	.LLST26:
 8083 03fa 00000000 		.4byte	.LVL68
 8084 03fe 11000000 		.4byte	.LVL71-1
 8085 0402 0100     		.2byte	0x1
 8086 0404 52       		.byte	0x52
 8087 0405 11000000 		.4byte	.LVL71-1
 8088 0409 50000000 		.4byte	.LVL79
 8089 040d 0100     		.2byte	0x1
 8090 040f 57       		.byte	0x57
 8091 0410 50000000 		.4byte	.LVL79
 8092 0414 52000000 		.4byte	.LFE7
 8093 0418 0400     		.2byte	0x4
 8094 041a F3       		.byte	0xf3
 8095 041b 01       		.uleb128 0x1
 8096 041c 52       		.byte	0x52
 8097 041d 9F       		.byte	0x9f
 8098 041e 00000000 		.4byte	0
 8099 0422 00000000 		.4byte	0
 8100              	.LLST27:
 8101 0426 0A000000 		.4byte	.LVL69
 8102 042a 3E000000 		.4byte	.LVL75
 8103 042e 0200     		.2byte	0x2
 8104 0430 30       		.byte	0x30
 8105 0431 9F       		.byte	0x9f
 8106 0432 3E000000 		.4byte	.LVL75
 8107 0436 50000000 		.4byte	.LVL78
 8108 043a 0100     		.2byte	0x1
 8109 043c 55       		.byte	0x55
 8110 043d 00000000 		.4byte	0
 8111 0441 00000000 		.4byte	0
 8112              	.LLST28:
 8113 0445 14000000 		.4byte	.LVL72
 8114 0449 1B000000 		.4byte	.LVL73-1
 8115 044d 0100     		.2byte	0x1
 8116 044f 50       		.byte	0x50
 8117 0450 1B000000 		.4byte	.LVL73-1
 8118 0454 50000000 		.4byte	.LVL77
 8119 0458 0100     		.2byte	0x1
 8120 045a 54       		.byte	0x54
 8121 045b 00000000 		.4byte	0
 8122 045f 00000000 		.4byte	0
 8123              	.LLST29:
 8124 0463 00000000 		.4byte	.LVL80
 8125 0467 06000000 		.4byte	.LVL82
 8126 046b 0100     		.2byte	0x1
ARM GAS  C:\Users\TERENC~1\AppData\Local\Temp\ccyX5Aoq.s 			page 157


 8127 046d 50       		.byte	0x50
 8128 046e 06000000 		.4byte	.LVL82
 8129 0472 C4000000 		.4byte	.LFE3
 8130 0476 0400     		.2byte	0x4
 8131 0478 F3       		.byte	0xf3
 8132 0479 01       		.uleb128 0x1
 8133 047a 50       		.byte	0x50
 8134 047b 9F       		.byte	0x9f
 8135 047c 00000000 		.4byte	0
 8136 0480 00000000 		.4byte	0
 8137              	.LLST30:
 8138 0484 6C000000 		.4byte	.LVL98
 8139 0488 96000000 		.4byte	.LVL102
 8140 048c 0100     		.2byte	0x1
 8141 048e 55       		.byte	0x55
 8142 048f A0000000 		.4byte	.LVL103
 8143 0493 A8000000 		.4byte	.LVL104
 8144 0497 0100     		.2byte	0x1
 8145 0499 55       		.byte	0x55
 8146 049a 00000000 		.4byte	0
 8147 049e 00000000 		.4byte	0
 8148              	.LLST31:
 8149 04a2 68000000 		.4byte	.LVL97
 8150 04a6 6C000000 		.4byte	.LVL98
 8151 04aa 0100     		.2byte	0x1
 8152 04ac 50       		.byte	0x50
 8153 04ad 6C000000 		.4byte	.LVL98
 8154 04b1 B4000000 		.4byte	.LVL106
 8155 04b5 0100     		.2byte	0x1
 8156 04b7 54       		.byte	0x54
 8157 04b8 00000000 		.4byte	0
 8158 04bc 00000000 		.4byte	0
 8159              	.LLST32:
 8160 04c0 04000000 		.4byte	.LVL81
 8161 04c4 AA000000 		.4byte	.LVL105
 8162 04c8 0200     		.2byte	0x2
 8163 04ca 30       		.byte	0x30
 8164 04cb 9F       		.byte	0x9f
 8165 04cc AA000000 		.4byte	.LVL105
 8166 04d0 C4000000 		.4byte	.LFE3
 8167 04d4 0100     		.2byte	0x1
 8168 04d6 50       		.byte	0x50
 8169 04d7 00000000 		.4byte	0
 8170 04db 00000000 		.4byte	0
 8171              	.LLST33:
 8172 04df 00000000 		.4byte	.LVL107
 8173 04e3 18000000 		.4byte	.LVL109
 8174 04e7 0100     		.2byte	0x1
 8175 04e9 50       		.byte	0x50
 8176 04ea 18000000 		.4byte	.LVL109
 8177 04ee 2C000000 		.4byte	.LVL113
 8178 04f2 0100     		.2byte	0x1
 8179 04f4 55       		.byte	0x55
 8180 04f5 2C000000 		.4byte	.LVL113
 8181 04f9 5A000000 		.4byte	.LVL118
 8182 04fd 0400     		.2byte	0x4
 8183 04ff F3       		.byte	0xf3
ARM GAS  C:\Users\TERENC~1\AppData\Local\Temp\ccyX5Aoq.s 			page 158


 8184 0500 01       		.uleb128 0x1
 8185 0501 50       		.byte	0x50
 8186 0502 9F       		.byte	0x9f
 8187 0503 5A000000 		.4byte	.LVL118
 8188 0507 74000000 		.4byte	.LVL123
 8189 050b 0100     		.2byte	0x1
 8190 050d 55       		.byte	0x55
 8191 050e 74000000 		.4byte	.LVL123
 8192 0512 A0000000 		.4byte	.LVL128
 8193 0516 0400     		.2byte	0x4
 8194 0518 F3       		.byte	0xf3
 8195 0519 01       		.uleb128 0x1
 8196 051a 50       		.byte	0x50
 8197 051b 9F       		.byte	0x9f
 8198 051c A0000000 		.4byte	.LVL128
 8199 0520 A8000000 		.4byte	.LVL131
 8200 0524 0100     		.2byte	0x1
 8201 0526 55       		.byte	0x55
 8202 0527 A8000000 		.4byte	.LVL131
 8203 052b C0000000 		.4byte	.LFE15
 8204 052f 0400     		.2byte	0x4
 8205 0531 F3       		.byte	0xf3
 8206 0532 01       		.uleb128 0x1
 8207 0533 50       		.byte	0x50
 8208 0534 9F       		.byte	0x9f
 8209 0535 00000000 		.4byte	0
 8210 0539 00000000 		.4byte	0
 8211              	.LLST34:
 8212 053d 14000000 		.4byte	.LVL108
 8213 0541 1E000000 		.4byte	.LVL111
 8214 0545 0200     		.2byte	0x2
 8215 0547 30       		.byte	0x30
 8216 0548 9F       		.byte	0x9f
 8217 0549 1E000000 		.4byte	.LVL111
 8218 054d 23000000 		.4byte	.LVL112-1
 8219 0551 0100     		.2byte	0x1
 8220 0553 50       		.byte	0x50
 8221 0554 5A000000 		.4byte	.LVL118
 8222 0558 60000000 		.4byte	.LVL119
 8223 055c 0100     		.2byte	0x1
 8224 055e 50       		.byte	0x50
 8225 055f 66000000 		.4byte	.LVL121
 8226 0563 6B000000 		.4byte	.LVL122-1
 8227 0567 0100     		.2byte	0x1
 8228 0569 50       		.byte	0x50
 8229 056a A4000000 		.4byte	.LVL129
 8230 056e A6000000 		.4byte	.LVL130
 8231 0572 0100     		.2byte	0x1
 8232 0574 50       		.byte	0x50
 8233 0575 00000000 		.4byte	0
 8234 0579 00000000 		.4byte	0
 8235              	.LLST35:
 8236 057d 2C000000 		.4byte	.LVL113
 8237 0581 46000000 		.4byte	.LVL115
 8238 0585 0100     		.2byte	0x1
 8239 0587 55       		.byte	0x55
 8240 0588 00000000 		.4byte	0
ARM GAS  C:\Users\TERENC~1\AppData\Local\Temp\ccyX5Aoq.s 			page 159


 8241 058c 00000000 		.4byte	0
 8242              	.LLST36:
 8243 0590 74000000 		.4byte	.LVL123
 8244 0594 8E000000 		.4byte	.LVL125
 8245 0598 0100     		.2byte	0x1
 8246 059a 55       		.byte	0x55
 8247 059b 00000000 		.4byte	0
 8248 059f 00000000 		.4byte	0
 8249              	.LLST37:
 8250 05a3 00000000 		.4byte	.LVL132
 8251 05a7 12000000 		.4byte	.LVL133
 8252 05ab 0100     		.2byte	0x1
 8253 05ad 50       		.byte	0x50
 8254 05ae 12000000 		.4byte	.LVL133
 8255 05b2 26000000 		.4byte	.LVL137
 8256 05b6 0100     		.2byte	0x1
 8257 05b8 55       		.byte	0x55
 8258 05b9 26000000 		.4byte	.LVL137
 8259 05bd 56000000 		.4byte	.LVL142
 8260 05c1 0400     		.2byte	0x4
 8261 05c3 F3       		.byte	0xf3
 8262 05c4 01       		.uleb128 0x1
 8263 05c5 50       		.byte	0x50
 8264 05c6 9F       		.byte	0x9f
 8265 05c7 56000000 		.4byte	.LVL142
 8266 05cb 72000000 		.4byte	.LVL147
 8267 05cf 0100     		.2byte	0x1
 8268 05d1 55       		.byte	0x55
 8269 05d2 72000000 		.4byte	.LVL147
 8270 05d6 9E000000 		.4byte	.LVL152
 8271 05da 0400     		.2byte	0x4
 8272 05dc F3       		.byte	0xf3
 8273 05dd 01       		.uleb128 0x1
 8274 05de 50       		.byte	0x50
 8275 05df 9F       		.byte	0x9f
 8276 05e0 9E000000 		.4byte	.LVL152
 8277 05e4 A6000000 		.4byte	.LVL155
 8278 05e8 0100     		.2byte	0x1
 8279 05ea 55       		.byte	0x55
 8280 05eb A6000000 		.4byte	.LVL155
 8281 05ef C0000000 		.4byte	.LFE16
 8282 05f3 0400     		.2byte	0x4
 8283 05f5 F3       		.byte	0xf3
 8284 05f6 01       		.uleb128 0x1
 8285 05f7 50       		.byte	0x50
 8286 05f8 9F       		.byte	0x9f
 8287 05f9 00000000 		.4byte	0
 8288 05fd 00000000 		.4byte	0
 8289              	.LLST38:
 8290 0601 18000000 		.4byte	.LVL135
 8291 0605 1D000000 		.4byte	.LVL136-1
 8292 0609 0100     		.2byte	0x1
 8293 060b 50       		.byte	0x50
 8294 060c 56000000 		.4byte	.LVL142
 8295 0610 5E000000 		.4byte	.LVL143
 8296 0614 0100     		.2byte	0x1
 8297 0616 50       		.byte	0x50
ARM GAS  C:\Users\TERENC~1\AppData\Local\Temp\ccyX5Aoq.s 			page 160


 8298 0617 64000000 		.4byte	.LVL145
 8299 061b 69000000 		.4byte	.LVL146-1
 8300 061f 0100     		.2byte	0x1
 8301 0621 50       		.byte	0x50
 8302 0622 A2000000 		.4byte	.LVL153
 8303 0626 A4000000 		.4byte	.LVL154
 8304 062a 0100     		.2byte	0x1
 8305 062c 50       		.byte	0x50
 8306 062d 00000000 		.4byte	0
 8307 0631 00000000 		.4byte	0
 8308              	.LLST39:
 8309 0635 26000000 		.4byte	.LVL137
 8310 0639 42000000 		.4byte	.LVL139
 8311 063d 0100     		.2byte	0x1
 8312 063f 55       		.byte	0x55
 8313 0640 00000000 		.4byte	0
 8314 0644 00000000 		.4byte	0
 8315              	.LLST40:
 8316 0648 72000000 		.4byte	.LVL147
 8317 064c 8C000000 		.4byte	.LVL149
 8318 0650 0100     		.2byte	0x1
 8319 0652 55       		.byte	0x55
 8320 0653 00000000 		.4byte	0
 8321 0657 00000000 		.4byte	0
 8322              	.LLST41:
 8323 065b 04000000 		.4byte	.LVL156
 8324 065f CA040000 		.4byte	.LVL271
 8325 0663 0100     		.2byte	0x1
 8326 0665 5D       		.byte	0x5d
 8327 0666 CA040000 		.4byte	.LVL271
 8328 066a E4040000 		.4byte	.LFE17
 8329 066e 0300     		.2byte	0x3
 8330 0670 91       		.byte	0x91
 8331 0671 58       		.sleb128 -40
 8332 0672 9F       		.byte	0x9f
 8333 0673 00000000 		.4byte	0
 8334 0677 00000000 		.4byte	0
 8335              	.LLST43:
 8336 067b 0C000000 		.4byte	.LVL158
 8337 067f 11000000 		.4byte	.LVL159-1
 8338 0683 0100     		.2byte	0x1
 8339 0685 50       		.byte	0x50
 8340 0686 58000000 		.4byte	.LVL165
 8341 068a 5B000000 		.4byte	.LVL166-1
 8342 068e 0100     		.2byte	0x1
 8343 0690 50       		.byte	0x50
 8344 0691 50030000 		.4byte	.LVL245
 8345 0695 55030000 		.4byte	.LVL246-1
 8346 0699 0100     		.2byte	0x1
 8347 069b 50       		.byte	0x50
 8348 069c D0030000 		.4byte	.LVL252
 8349 06a0 D3030000 		.4byte	.LVL253-1
 8350 06a4 0100     		.2byte	0x1
 8351 06a6 50       		.byte	0x50
 8352 06a7 00000000 		.4byte	0
 8353 06ab 00000000 		.4byte	0
 8354              	.LLST44:
ARM GAS  C:\Users\TERENC~1\AppData\Local\Temp\ccyX5Aoq.s 			page 161


 8355 06af 1C000000 		.4byte	.LVL160
 8356 06b3 32000000 		.4byte	.LVL162
 8357 06b7 0100     		.2byte	0x1
 8358 06b9 55       		.byte	0x55
 8359 06ba 00000000 		.4byte	0
 8360 06be 00000000 		.4byte	0
 8361              	.LLST45:
 8362 06c2 64000000 		.4byte	.LVL167
 8363 06c6 86000000 		.4byte	.LVL169
 8364 06ca 0100     		.2byte	0x1
 8365 06cc 54       		.byte	0x54
 8366 06cd 00000000 		.4byte	0
 8367 06d1 00000000 		.4byte	0
 8368              	.LLST46:
 8369 06d5 A0000000 		.4byte	.LVL173
 8370 06d9 BE000000 		.4byte	.LVL175
 8371 06dd 0100     		.2byte	0x1
 8372 06df 54       		.byte	0x54
 8373 06e0 00000000 		.4byte	0
 8374 06e4 00000000 		.4byte	0
 8375              	.LLST47:
 8376 06e8 D8000000 		.4byte	.LVL179
 8377 06ec F4000000 		.4byte	.LVL181
 8378 06f0 0100     		.2byte	0x1
 8379 06f2 54       		.byte	0x54
 8380 06f3 00000000 		.4byte	0
 8381 06f7 00000000 		.4byte	0
 8382              	.LLST48:
 8383 06fb 0E010000 		.4byte	.LVL185
 8384 06ff 28010000 		.4byte	.LVL187
 8385 0703 0100     		.2byte	0x1
 8386 0705 54       		.byte	0x54
 8387 0706 00000000 		.4byte	0
 8388 070a 00000000 		.4byte	0
 8389              	.LLST49:
 8390 070e 42010000 		.4byte	.LVL191
 8391 0712 5C010000 		.4byte	.LVL193
 8392 0716 0100     		.2byte	0x1
 8393 0718 54       		.byte	0x54
 8394 0719 00000000 		.4byte	0
 8395 071d 00000000 		.4byte	0
 8396              	.LLST50:
 8397 0721 76010000 		.4byte	.LVL197
 8398 0725 98010000 		.4byte	.LVL199
 8399 0729 0100     		.2byte	0x1
 8400 072b 54       		.byte	0x54
 8401 072c 00000000 		.4byte	0
 8402 0730 00000000 		.4byte	0
 8403              	.LLST51:
 8404 0734 B2010000 		.4byte	.LVL203
 8405 0738 CC010000 		.4byte	.LVL205
 8406 073c 0100     		.2byte	0x1
 8407 073e 54       		.byte	0x54
 8408 073f 00000000 		.4byte	0
 8409 0743 00000000 		.4byte	0
 8410              	.LLST52:
 8411 0747 E6010000 		.4byte	.LVL209
ARM GAS  C:\Users\TERENC~1\AppData\Local\Temp\ccyX5Aoq.s 			page 162


 8412 074b 04020000 		.4byte	.LVL211
 8413 074f 0100     		.2byte	0x1
 8414 0751 54       		.byte	0x54
 8415 0752 00000000 		.4byte	0
 8416 0756 00000000 		.4byte	0
 8417              	.LLST53:
 8418 075a 1E020000 		.4byte	.LVL215
 8419 075e 3A020000 		.4byte	.LVL217
 8420 0762 0100     		.2byte	0x1
 8421 0764 54       		.byte	0x54
 8422 0765 00000000 		.4byte	0
 8423 0769 00000000 		.4byte	0
 8424              	.LLST54:
 8425 076d 54020000 		.4byte	.LVL221
 8426 0771 76020000 		.4byte	.LVL223
 8427 0775 0100     		.2byte	0x1
 8428 0777 54       		.byte	0x54
 8429 0778 00000000 		.4byte	0
 8430 077c 00000000 		.4byte	0
 8431              	.LLST55:
 8432 0780 90020000 		.4byte	.LVL227
 8433 0784 C2020000 		.4byte	.LVL229
 8434 0788 0100     		.2byte	0x1
 8435 078a 54       		.byte	0x54
 8436 078b 00000000 		.4byte	0
 8437 078f 00000000 		.4byte	0
 8438              	.LLST56:
 8439 0793 DC020000 		.4byte	.LVL233
 8440 0797 FE020000 		.4byte	.LVL235
 8441 079b 0100     		.2byte	0x1
 8442 079d 54       		.byte	0x54
 8443 079e 00000000 		.4byte	0
 8444 07a2 00000000 		.4byte	0
 8445              	.LLST57:
 8446 07a6 18030000 		.4byte	.LVL239
 8447 07aa 3A030000 		.4byte	.LVL241
 8448 07ae 0100     		.2byte	0x1
 8449 07b0 54       		.byte	0x54
 8450 07b1 00000000 		.4byte	0
 8451 07b5 00000000 		.4byte	0
 8452              	.LLST58:
 8453 07b9 60030000 		.4byte	.LVL247
 8454 07bd 76030000 		.4byte	.LVL249
 8455 07c1 0100     		.2byte	0x1
 8456 07c3 55       		.byte	0x55
 8457 07c4 00000000 		.4byte	0
 8458 07c8 00000000 		.4byte	0
 8459              	.LLST59:
 8460 07cc DC030000 		.4byte	.LVL254
 8461 07d0 F4030000 		.4byte	.LVL256
 8462 07d4 0100     		.2byte	0x1
 8463 07d6 55       		.byte	0x55
 8464 07d7 00000000 		.4byte	0
 8465 07db 00000000 		.4byte	0
 8466              	.LLST60:
 8467 07df 2A040000 		.4byte	.LVL260
 8468 07e3 42040000 		.4byte	.LVL262
ARM GAS  C:\Users\TERENC~1\AppData\Local\Temp\ccyX5Aoq.s 			page 163


 8469 07e7 0100     		.2byte	0x1
 8470 07e9 55       		.byte	0x55
 8471 07ea 00000000 		.4byte	0
 8472 07ee 00000000 		.4byte	0
 8473              	.LLST61:
 8474 07f2 78040000 		.4byte	.LVL266
 8475 07f6 90040000 		.4byte	.LVL268
 8476 07fa 0100     		.2byte	0x1
 8477 07fc 55       		.byte	0x55
 8478 07fd 00000000 		.4byte	0
 8479 0801 00000000 		.4byte	0
 8480              	.LLST62:
 8481 0805 0E000000 		.4byte	.LVL274
 8482 0809 14000000 		.4byte	.LVL276
 8483 080d 0100     		.2byte	0x1
 8484 080f 54       		.byte	0x54
 8485 0810 00000000 		.4byte	0
 8486 0814 00000000 		.4byte	0
 8487              	.LLST63:
 8488 0818 0E000000 		.4byte	.LVL279
 8489 081c 14000000 		.4byte	.LVL281
 8490 0820 0100     		.2byte	0x1
 8491 0822 54       		.byte	0x54
 8492 0823 00000000 		.4byte	0
 8493 0827 00000000 		.4byte	0
 8494              	.LLST64:
 8495 082b 00000000 		.4byte	.LVL283
 8496 082f 0C000000 		.4byte	.LVL284
 8497 0833 0100     		.2byte	0x1
 8498 0835 50       		.byte	0x50
 8499 0836 0C000000 		.4byte	.LVL284
 8500 083a 30000000 		.4byte	.LFE2
 8501 083e 0400     		.2byte	0x4
 8502 0840 F3       		.byte	0xf3
 8503 0841 01       		.uleb128 0x1
 8504 0842 50       		.byte	0x50
 8505 0843 9F       		.byte	0x9f
 8506 0844 00000000 		.4byte	0
 8507 0848 00000000 		.4byte	0
 8508              	.LLST65:
 8509 084c 00000000 		.4byte	.LVL283
 8510 0850 0C000000 		.4byte	.LVL284
 8511 0854 0100     		.2byte	0x1
 8512 0856 51       		.byte	0x51
 8513 0857 0C000000 		.4byte	.LVL284
 8514 085b 2A000000 		.4byte	.LVL288
 8515 085f 0100     		.2byte	0x1
 8516 0861 57       		.byte	0x57
 8517 0862 2A000000 		.4byte	.LVL288
 8518 0866 30000000 		.4byte	.LFE2
 8519 086a 0400     		.2byte	0x4
 8520 086c F3       		.byte	0xf3
 8521 086d 01       		.uleb128 0x1
 8522 086e 51       		.byte	0x51
 8523 086f 9F       		.byte	0x9f
 8524 0870 00000000 		.4byte	0
 8525 0874 00000000 		.4byte	0
ARM GAS  C:\Users\TERENC~1\AppData\Local\Temp\ccyX5Aoq.s 			page 164


 8526              	.LLST66:
 8527 0878 00000000 		.4byte	.LVL283
 8528 087c 0C000000 		.4byte	.LVL284
 8529 0880 0100     		.2byte	0x1
 8530 0882 52       		.byte	0x52
 8531 0883 0C000000 		.4byte	.LVL284
 8532 0887 2A000000 		.4byte	.LVL286
 8533 088b 0100     		.2byte	0x1
 8534 088d 55       		.byte	0x55
 8535 088e 2A000000 		.4byte	.LVL286
 8536 0892 30000000 		.4byte	.LFE2
 8537 0896 0400     		.2byte	0x4
 8538 0898 F3       		.byte	0xf3
 8539 0899 01       		.uleb128 0x1
 8540 089a 52       		.byte	0x52
 8541 089b 9F       		.byte	0x9f
 8542 089c 00000000 		.4byte	0
 8543 08a0 00000000 		.4byte	0
 8544              	.LLST67:
 8545 08a4 0C000000 		.4byte	.LVL284
 8546 08a8 2A000000 		.4byte	.LVL287
 8547 08ac 0100     		.2byte	0x1
 8548 08ae 56       		.byte	0x56
 8549 08af 00000000 		.4byte	0
 8550 08b3 00000000 		.4byte	0
 8551              	.LLST68:
 8552 08b7 04000000 		.4byte	.LVL289
 8553 08bb 1C000000 		.4byte	.LVL291
 8554 08bf 0200     		.2byte	0x2
 8555 08c1 30       		.byte	0x30
 8556 08c2 9F       		.byte	0x9f
 8557 08c3 1C000000 		.4byte	.LVL291
 8558 08c7 28000000 		.4byte	.LVL292
 8559 08cb 0100     		.2byte	0x1
 8560 08cd 50       		.byte	0x50
 8561 08ce 00000000 		.4byte	0
 8562 08d2 00000000 		.4byte	0
 8563              	.LLST69:
 8564 08d6 3C000000 		.4byte	.LVL295
 8565 08da 52000000 		.4byte	.LVL297
 8566 08de 0100     		.2byte	0x1
 8567 08e0 55       		.byte	0x55
 8568 08e1 00000000 		.4byte	0
 8569 08e5 00000000 		.4byte	0
 8570              	.LLST70:
 8571 08e9 04000000 		.4byte	.LVL300
 8572 08ed 1C000000 		.4byte	.LVL302
 8573 08f1 0200     		.2byte	0x2
 8574 08f3 30       		.byte	0x30
 8575 08f4 9F       		.byte	0x9f
 8576 08f5 1C000000 		.4byte	.LVL302
 8577 08f9 28000000 		.4byte	.LVL303
 8578 08fd 0100     		.2byte	0x1
 8579 08ff 50       		.byte	0x50
 8580 0900 00000000 		.4byte	0
 8581 0904 00000000 		.4byte	0
 8582              	.LLST71:
ARM GAS  C:\Users\TERENC~1\AppData\Local\Temp\ccyX5Aoq.s 			page 165


 8583 0908 3C000000 		.4byte	.LVL306
 8584 090c 52000000 		.4byte	.LVL308
 8585 0910 0100     		.2byte	0x1
 8586 0912 55       		.byte	0x55
 8587 0913 00000000 		.4byte	0
 8588 0917 00000000 		.4byte	0
 8589              	.LLST72:
 8590 091b 00000000 		.4byte	.LVL311
 8591 091f 08000000 		.4byte	.LVL313
 8592 0923 0100     		.2byte	0x1
 8593 0925 50       		.byte	0x50
 8594 0926 08000000 		.4byte	.LVL313
 8595 092a 36010000 		.4byte	.LVL340
 8596 092e 0100     		.2byte	0x1
 8597 0930 54       		.byte	0x54
 8598 0931 36010000 		.4byte	.LVL340
 8599 0935 58010000 		.4byte	.LFE14
 8600 0939 0400     		.2byte	0x4
 8601 093b F3       		.byte	0xf3
 8602 093c 01       		.uleb128 0x1
 8603 093d 50       		.byte	0x50
 8604 093e 9F       		.byte	0x9f
 8605 093f 00000000 		.4byte	0
 8606 0943 00000000 		.4byte	0
 8607              	.LLST73:
 8608 0947 06000000 		.4byte	.LVL312
 8609 094b 58000000 		.4byte	.LVL318
 8610 094f 0200     		.2byte	0x2
 8611 0951 30       		.byte	0x30
 8612 0952 9F       		.byte	0x9f
 8613 0953 58000000 		.4byte	.LVL318
 8614 0957 B4000000 		.4byte	.LVL327
 8615 095b 0100     		.2byte	0x1
 8616 095d 55       		.byte	0x55
 8617 095e B6000000 		.4byte	.LVL328
 8618 0962 B8000000 		.4byte	.LVL329
 8619 0966 0100     		.2byte	0x1
 8620 0968 55       		.byte	0x55
 8621 0969 BA000000 		.4byte	.LVL330
 8622 096d BC000000 		.4byte	.LVL331
 8623 0971 0100     		.2byte	0x1
 8624 0973 55       		.byte	0x55
 8625 0974 CC000000 		.4byte	.LVL332
 8626 0978 DE000000 		.4byte	.LVL333
 8627 097c 0100     		.2byte	0x1
 8628 097e 50       		.byte	0x50
 8629 097f 00000000 		.4byte	0
 8630 0983 00000000 		.4byte	0
 8631              	.LLST74:
 8632 0987 06000000 		.4byte	.LVL312
 8633 098b BC000000 		.4byte	.LVL331
 8634 098f 0200     		.2byte	0x2
 8635 0991 31       		.byte	0x31
 8636 0992 9F       		.byte	0x9f
 8637 0993 BC000000 		.4byte	.LVL331
 8638 0997 36010000 		.4byte	.LVL341
 8639 099b 0100     		.2byte	0x1
ARM GAS  C:\Users\TERENC~1\AppData\Local\Temp\ccyX5Aoq.s 			page 166


 8640 099d 55       		.byte	0x55
 8641 099e 00000000 		.4byte	0
 8642 09a2 00000000 		.4byte	0
 8643              	.LLST75:
 8644 09a6 0E000000 		.4byte	.LVL315
 8645 09aa 14000000 		.4byte	.LVL316
 8646 09ae 0100     		.2byte	0x1
 8647 09b0 50       		.byte	0x50
 8648 09b1 14000000 		.4byte	.LVL316
 8649 09b5 80000000 		.4byte	.LVL322
 8650 09b9 0100     		.2byte	0x1
 8651 09bb 56       		.byte	0x56
 8652 09bc B6000000 		.4byte	.LVL328
 8653 09c0 BC000000 		.4byte	.LVL331
 8654 09c4 0100     		.2byte	0x1
 8655 09c6 56       		.byte	0x56
 8656 09c7 00000000 		.4byte	0
 8657 09cb 00000000 		.4byte	0
 8658              	.LLST76:
 8659 09cf 80000000 		.4byte	.LVL322
 8660 09d3 96000000 		.4byte	.LVL324
 8661 09d7 0100     		.2byte	0x1
 8662 09d9 56       		.byte	0x56
 8663 09da 00000000 		.4byte	0
 8664 09de 00000000 		.4byte	0
 8665              	.LLST77:
 8666 09e2 FC000000 		.4byte	.LVL335
 8667 09e6 16010000 		.4byte	.LVL337
 8668 09ea 0100     		.2byte	0x1
 8669 09ec 56       		.byte	0x56
 8670 09ed 00000000 		.4byte	0
 8671 09f1 00000000 		.4byte	0
 8672              	.LLST78:
 8673 09f5 00000000 		.4byte	.LVL342
 8674 09f9 0C000000 		.4byte	.LVL344
 8675 09fd 0100     		.2byte	0x1
 8676 09ff 50       		.byte	0x50
 8677 0a00 0C000000 		.4byte	.LVL344
 8678 0a04 D8000000 		.4byte	.LFE11
 8679 0a08 0400     		.2byte	0x4
 8680 0a0a F3       		.byte	0xf3
 8681 0a0b 01       		.uleb128 0x1
 8682 0a0c 50       		.byte	0x50
 8683 0a0d 9F       		.byte	0x9f
 8684 0a0e 00000000 		.4byte	0
 8685 0a12 00000000 		.4byte	0
 8686              	.LLST79:
 8687 0a16 00000000 		.4byte	.LVL342
 8688 0a1a 0F000000 		.4byte	.LVL345-1
 8689 0a1e 0100     		.2byte	0x1
 8690 0a20 51       		.byte	0x51
 8691 0a21 0F000000 		.4byte	.LVL345-1
 8692 0a25 D8000000 		.4byte	.LFE11
 8693 0a29 0400     		.2byte	0x4
 8694 0a2b F3       		.byte	0xf3
 8695 0a2c 01       		.uleb128 0x1
 8696 0a2d 51       		.byte	0x51
ARM GAS  C:\Users\TERENC~1\AppData\Local\Temp\ccyX5Aoq.s 			page 167


 8697 0a2e 9F       		.byte	0x9f
 8698 0a2f 00000000 		.4byte	0
 8699 0a33 00000000 		.4byte	0
 8700              	.LLST80:
 8701 0a37 00000000 		.4byte	.LVL342
 8702 0a3b 0F000000 		.4byte	.LVL345-1
 8703 0a3f 0100     		.2byte	0x1
 8704 0a41 52       		.byte	0x52
 8705 0a42 0F000000 		.4byte	.LVL345-1
 8706 0a46 D8000000 		.4byte	.LFE11
 8707 0a4a 0400     		.2byte	0x4
 8708 0a4c F3       		.byte	0xf3
 8709 0a4d 01       		.uleb128 0x1
 8710 0a4e 52       		.byte	0x52
 8711 0a4f 9F       		.byte	0x9f
 8712 0a50 00000000 		.4byte	0
 8713 0a54 00000000 		.4byte	0
 8714              	.LLST81:
 8715 0a58 0A000000 		.4byte	.LVL343
 8716 0a5c 5C000000 		.4byte	.LVL349
 8717 0a60 0200     		.2byte	0x2
 8718 0a62 30       		.byte	0x30
 8719 0a63 9F       		.byte	0x9f
 8720 0a64 5C000000 		.4byte	.LVL349
 8721 0a68 BE000000 		.4byte	.LVL358
 8722 0a6c 0100     		.2byte	0x1
 8723 0a6e 54       		.byte	0x54
 8724 0a6f 00000000 		.4byte	0
 8725 0a73 00000000 		.4byte	0
 8726              	.LLST82:
 8727 0a77 12000000 		.4byte	.LVL346
 8728 0a7b 56000000 		.4byte	.LVL347
 8729 0a7f 0100     		.2byte	0x1
 8730 0a81 50       		.byte	0x50
 8731 0a82 56000000 		.4byte	.LVL347
 8732 0a86 59000000 		.4byte	.LVL348-1
 8733 0a8a 0100     		.2byte	0x1
 8734 0a8c 52       		.byte	0x52
 8735 0a8d 59000000 		.4byte	.LVL348-1
 8736 0a91 BE000000 		.4byte	.LVL359
 8737 0a95 0100     		.2byte	0x1
 8738 0a97 56       		.byte	0x56
 8739 0a98 00000000 		.4byte	0
 8740 0a9c 00000000 		.4byte	0
 8741              	.LLST83:
 8742 0aa0 84000000 		.4byte	.LVL353
 8743 0aa4 9A000000 		.4byte	.LVL355
 8744 0aa8 0100     		.2byte	0x1
 8745 0aaa 55       		.byte	0x55
 8746 0aab 00000000 		.4byte	0
 8747 0aaf 00000000 		.4byte	0
 8748              	.LLST84:
 8749 0ab3 00000000 		.4byte	.LVL361
 8750 0ab7 14000000 		.4byte	.LVL363
 8751 0abb 0100     		.2byte	0x1
 8752 0abd 50       		.byte	0x50
 8753 0abe 14000000 		.4byte	.LVL363
ARM GAS  C:\Users\TERENC~1\AppData\Local\Temp\ccyX5Aoq.s 			page 168


 8754 0ac2 68000000 		.4byte	.LVL374
 8755 0ac6 0400     		.2byte	0x4
 8756 0ac8 F3       		.byte	0xf3
 8757 0ac9 01       		.uleb128 0x1
 8758 0aca 50       		.byte	0x50
 8759 0acb 9F       		.byte	0x9f
 8760 0acc 68000000 		.4byte	.LVL374
 8761 0ad0 8C000000 		.4byte	.LVL376
 8762 0ad4 0100     		.2byte	0x1
 8763 0ad6 57       		.byte	0x57
 8764 0ad7 00000000 		.4byte	0
 8765 0adb 00000000 		.4byte	0
 8766              	.LLST85:
 8767 0adf 00000000 		.4byte	.LVL361
 8768 0ae3 18000000 		.4byte	.LVL364
 8769 0ae7 0100     		.2byte	0x1
 8770 0ae9 51       		.byte	0x51
 8771 0aea 18000000 		.4byte	.LVL364
 8772 0aee 6C000000 		.4byte	.LVL375
 8773 0af2 0100     		.2byte	0x1
 8774 0af4 55       		.byte	0x55
 8775 0af5 6C000000 		.4byte	.LVL375
 8776 0af9 A8000000 		.4byte	.LFE22
 8777 0afd 0400     		.2byte	0x4
 8778 0aff F3       		.byte	0xf3
 8779 0b00 01       		.uleb128 0x1
 8780 0b01 51       		.byte	0x51
 8781 0b02 9F       		.byte	0x9f
 8782 0b03 00000000 		.4byte	0
 8783 0b07 00000000 		.4byte	0
 8784              	.LLST86:
 8785 0b0b 00000000 		.4byte	.LVL361
 8786 0b0f 1B000000 		.4byte	.LVL365-1
 8787 0b13 0100     		.2byte	0x1
 8788 0b15 52       		.byte	0x52
 8789 0b16 1B000000 		.4byte	.LVL365-1
 8790 0b1a A8000000 		.4byte	.LFE22
 8791 0b1e 0400     		.2byte	0x4
 8792 0b20 F3       		.byte	0xf3
 8793 0b21 01       		.uleb128 0x1
 8794 0b22 52       		.byte	0x52
 8795 0b23 9F       		.byte	0x9f
 8796 0b24 00000000 		.4byte	0
 8797 0b28 00000000 		.4byte	0
 8798              	.LLST87:
 8799 0b2c 0A000000 		.4byte	.LVL362
 8800 0b30 50000000 		.4byte	.LVL370
 8801 0b34 0200     		.2byte	0x2
 8802 0b36 31       		.byte	0x31
 8803 0b37 9F       		.byte	0x9f
 8804 0b38 50000000 		.4byte	.LVL370
 8805 0b3c 52000000 		.4byte	.LVL371
 8806 0b40 0100     		.2byte	0x1
 8807 0b42 50       		.byte	0x50
 8808 0b43 52000000 		.4byte	.LVL371
 8809 0b47 54000000 		.4byte	.LVL372
 8810 0b4b 0200     		.2byte	0x2
ARM GAS  C:\Users\TERENC~1\AppData\Local\Temp\ccyX5Aoq.s 			page 169


 8811 0b4d 31       		.byte	0x31
 8812 0b4e 9F       		.byte	0x9f
 8813 0b4f 54000000 		.4byte	.LVL372
 8814 0b53 A8000000 		.4byte	.LFE22
 8815 0b57 0100     		.2byte	0x1
 8816 0b59 50       		.byte	0x50
 8817 0b5a 00000000 		.4byte	0
 8818 0b5e 00000000 		.4byte	0
 8819              	.LLST88:
 8820 0b62 14000000 		.4byte	.LVL363
 8821 0b66 1B000000 		.4byte	.LVL365-1
 8822 0b6a 0100     		.2byte	0x1
 8823 0b6c 50       		.byte	0x50
 8824 0b6d 1B000000 		.4byte	.LVL365-1
 8825 0b71 2A000000 		.4byte	.LVL367
 8826 0b75 0500     		.2byte	0x5
 8827 0b77 74       		.byte	0x74
 8828 0b78 80C001   		.sleb128 24576
 8829 0b7b 9F       		.byte	0x9f
 8830 0b7c 2A000000 		.4byte	.LVL367
 8831 0b80 4A000000 		.4byte	.LVL368
 8832 0b84 0B00     		.2byte	0xb
 8833 0b86 77       		.byte	0x77
 8834 0b87 00       		.sleb128 0
 8835 0b88 46       		.byte	0x46
 8836 0b89 24       		.byte	0x24
 8837 0b8a 46       		.byte	0x46
 8838 0b8b 25       		.byte	0x25
 8839 0b8c 23       		.byte	0x23
 8840 0b8d 80C001   		.uleb128 0x6000
 8841 0b90 9F       		.byte	0x9f
 8842 0b91 4A000000 		.4byte	.LVL368
 8843 0b95 4C000000 		.4byte	.LVL369
 8844 0b99 0C00     		.2byte	0xc
 8845 0b9b 77       		.byte	0x77
 8846 0b9c 00       		.sleb128 0
 8847 0b9d 46       		.byte	0x46
 8848 0b9e 24       		.byte	0x24
 8849 0b9f 46       		.byte	0x46
 8850 0ba0 25       		.byte	0x25
 8851 0ba1 70       		.byte	0x70
 8852 0ba2 00       		.sleb128 0
 8853 0ba3 37       		.byte	0x37
 8854 0ba4 24       		.byte	0x24
 8855 0ba5 22       		.byte	0x22
 8856 0ba6 9F       		.byte	0x9f
 8857 0ba7 4C000000 		.4byte	.LVL369
 8858 0bab 4F000000 		.4byte	.LVL370-1
 8859 0baf 0A00     		.2byte	0xa
 8860 0bb1 77       		.byte	0x77
 8861 0bb2 00       		.sleb128 0
 8862 0bb3 46       		.byte	0x46
 8863 0bb4 24       		.byte	0x24
 8864 0bb5 46       		.byte	0x46
 8865 0bb6 25       		.byte	0x25
 8866 0bb7 70       		.byte	0x70
 8867 0bb8 00       		.sleb128 0
ARM GAS  C:\Users\TERENC~1\AppData\Local\Temp\ccyX5Aoq.s 			page 170


 8868 0bb9 22       		.byte	0x22
 8869 0bba 9F       		.byte	0x9f
 8870 0bbb 4F000000 		.4byte	.LVL370-1
 8871 0bbf 66000000 		.4byte	.LVL373
 8872 0bc3 0B00     		.2byte	0xb
 8873 0bc5 77       		.byte	0x77
 8874 0bc6 00       		.sleb128 0
 8875 0bc7 46       		.byte	0x46
 8876 0bc8 24       		.byte	0x24
 8877 0bc9 46       		.byte	0x46
 8878 0bca 25       		.byte	0x25
 8879 0bcb 23       		.byte	0x23
 8880 0bcc 80C001   		.uleb128 0x6000
 8881 0bcf 9F       		.byte	0x9f
 8882 0bd0 00000000 		.4byte	0
 8883 0bd4 00000000 		.4byte	0
 8884              	.LLST89:
 8885 0bd8 00000000 		.4byte	.LVL377
 8886 0bdc 0A000000 		.4byte	.LVL378
 8887 0be0 0100     		.2byte	0x1
 8888 0be2 50       		.byte	0x50
 8889 0be3 0A000000 		.4byte	.LVL378
 8890 0be7 0D000000 		.4byte	.LVL379-1
 8891 0beb 0100     		.2byte	0x1
 8892 0bed 52       		.byte	0x52
 8893 0bee 0D000000 		.4byte	.LVL379-1
 8894 0bf2 10000000 		.4byte	.LFE23
 8895 0bf6 0400     		.2byte	0x4
 8896 0bf8 F3       		.byte	0xf3
 8897 0bf9 01       		.uleb128 0x1
 8898 0bfa 50       		.byte	0x50
 8899 0bfb 9F       		.byte	0x9f
 8900 0bfc 00000000 		.4byte	0
 8901 0c00 00000000 		.4byte	0
 8902              	.LLST90:
 8903 0c04 00000000 		.4byte	.LVL380
 8904 0c08 0A000000 		.4byte	.LVL381
 8905 0c0c 0100     		.2byte	0x1
 8906 0c0e 50       		.byte	0x50
 8907 0c0f 0A000000 		.4byte	.LVL381
 8908 0c13 0D000000 		.4byte	.LVL382-1
 8909 0c17 0100     		.2byte	0x1
 8910 0c19 52       		.byte	0x52
 8911 0c1a 0D000000 		.4byte	.LVL382-1
 8912 0c1e 10000000 		.4byte	.LFE24
 8913 0c22 0400     		.2byte	0x4
 8914 0c24 F3       		.byte	0xf3
 8915 0c25 01       		.uleb128 0x1
 8916 0c26 50       		.byte	0x50
 8917 0c27 9F       		.byte	0x9f
 8918 0c28 00000000 		.4byte	0
 8919 0c2c 00000000 		.4byte	0
 8920              		.section	.debug_aranges,"",%progbits
 8921 0000 C4000000 		.4byte	0xc4
 8922 0004 0200     		.2byte	0x2
 8923 0006 00000000 		.4byte	.Ldebug_info0
 8924 000a 04       		.byte	0x4
ARM GAS  C:\Users\TERENC~1\AppData\Local\Temp\ccyX5Aoq.s 			page 171


 8925 000b 00       		.byte	0
 8926 000c 0000     		.2byte	0
 8927 000e 0000     		.2byte	0
 8928 0010 00000000 		.4byte	.LFB4
 8929 0014 0A000000 		.4byte	.LFE4-.LFB4
 8930 0018 00000000 		.4byte	.LFB5
 8931 001c 0C010000 		.4byte	.LFE5-.LFB5
 8932 0020 00000000 		.4byte	.LFB6
 8933 0024 60000000 		.4byte	.LFE6-.LFB6
 8934 0028 00000000 		.4byte	.LFB9
 8935 002c 3E000000 		.4byte	.LFE9-.LFB9
 8936 0030 00000000 		.4byte	.LFB10
 8937 0034 60000000 		.4byte	.LFE10-.LFB10
 8938 0038 00000000 		.4byte	.LFB7
 8939 003c 52000000 		.4byte	.LFE7-.LFB7
 8940 0040 00000000 		.4byte	.LFB3
 8941 0044 C4000000 		.4byte	.LFE3-.LFB3
 8942 0048 00000000 		.4byte	.LFB15
 8943 004c C0000000 		.4byte	.LFE15-.LFB15
 8944 0050 00000000 		.4byte	.LFB16
 8945 0054 C0000000 		.4byte	.LFE16-.LFB16
 8946 0058 00000000 		.4byte	.LFB17
 8947 005c E4040000 		.4byte	.LFE17-.LFB17
 8948 0060 00000000 		.4byte	.LFB18
 8949 0064 16000000 		.4byte	.LFE18-.LFB18
 8950 0068 00000000 		.4byte	.LFB19
 8951 006c 16000000 		.4byte	.LFE19-.LFB19
 8952 0070 00000000 		.4byte	.LFB20
 8953 0074 28000000 		.4byte	.LFE20-.LFB20
 8954 0078 00000000 		.4byte	.LFB2
 8955 007c 30000000 		.4byte	.LFE2-.LFB2
 8956 0080 00000000 		.4byte	.LFB12
 8957 0084 98000000 		.4byte	.LFE12-.LFB12
 8958 0088 00000000 		.4byte	.LFB13
 8959 008c 98000000 		.4byte	.LFE13-.LFB13
 8960 0090 00000000 		.4byte	.LFB14
 8961 0094 58010000 		.4byte	.LFE14-.LFB14
 8962 0098 00000000 		.4byte	.LFB11
 8963 009c D8000000 		.4byte	.LFE11-.LFB11
 8964 00a0 00000000 		.4byte	.LFB21
 8965 00a4 08000000 		.4byte	.LFE21-.LFB21
 8966 00a8 00000000 		.4byte	.LFB22
 8967 00ac A8000000 		.4byte	.LFE22-.LFB22
 8968 00b0 00000000 		.4byte	.LFB23
 8969 00b4 10000000 		.4byte	.LFE23-.LFB23
 8970 00b8 00000000 		.4byte	.LFB24
 8971 00bc 10000000 		.4byte	.LFE24-.LFB24
 8972 00c0 00000000 		.4byte	0
 8973 00c4 00000000 		.4byte	0
 8974              		.section	.debug_ranges,"",%progbits
 8975              	.Ldebug_ranges0:
 8976 0000 00000000 		.4byte	.LFB4
 8977 0004 0A000000 		.4byte	.LFE4
 8978 0008 00000000 		.4byte	.LFB5
 8979 000c 0C010000 		.4byte	.LFE5
 8980 0010 00000000 		.4byte	.LFB6
 8981 0014 60000000 		.4byte	.LFE6
ARM GAS  C:\Users\TERENC~1\AppData\Local\Temp\ccyX5Aoq.s 			page 172


 8982 0018 00000000 		.4byte	.LFB9
 8983 001c 3E000000 		.4byte	.LFE9
 8984 0020 00000000 		.4byte	.LFB10
 8985 0024 60000000 		.4byte	.LFE10
 8986 0028 00000000 		.4byte	.LFB7
 8987 002c 52000000 		.4byte	.LFE7
 8988 0030 00000000 		.4byte	.LFB3
 8989 0034 C4000000 		.4byte	.LFE3
 8990 0038 00000000 		.4byte	.LFB15
 8991 003c C0000000 		.4byte	.LFE15
 8992 0040 00000000 		.4byte	.LFB16
 8993 0044 C0000000 		.4byte	.LFE16
 8994 0048 00000000 		.4byte	.LFB17
 8995 004c E4040000 		.4byte	.LFE17
 8996 0050 00000000 		.4byte	.LFB18
 8997 0054 16000000 		.4byte	.LFE18
 8998 0058 00000000 		.4byte	.LFB19
 8999 005c 16000000 		.4byte	.LFE19
 9000 0060 00000000 		.4byte	.LFB20
 9001 0064 28000000 		.4byte	.LFE20
 9002 0068 00000000 		.4byte	.LFB2
 9003 006c 30000000 		.4byte	.LFE2
 9004 0070 00000000 		.4byte	.LFB12
 9005 0074 98000000 		.4byte	.LFE12
 9006 0078 00000000 		.4byte	.LFB13
 9007 007c 98000000 		.4byte	.LFE13
 9008 0080 00000000 		.4byte	.LFB14
 9009 0084 58010000 		.4byte	.LFE14
 9010 0088 00000000 		.4byte	.LFB11
 9011 008c D8000000 		.4byte	.LFE11
 9012 0090 00000000 		.4byte	.LFB21
 9013 0094 08000000 		.4byte	.LFE21
 9014 0098 00000000 		.4byte	.LFB22
 9015 009c A8000000 		.4byte	.LFE22
 9016 00a0 00000000 		.4byte	.LFB23
 9017 00a4 10000000 		.4byte	.LFE23
 9018 00a8 00000000 		.4byte	.LFB24
 9019 00ac 10000000 		.4byte	.LFE24
 9020 00b0 00000000 		.4byte	0
 9021 00b4 00000000 		.4byte	0
 9022              		.section	.debug_line,"",%progbits
 9023              	.Ldebug_line0:
 9024 0000 E3070000 		.section	.debug_str,"MS",%progbits,1
 9024      02007702 
 9024      00000201 
 9024      FB0E0D00 
 9024      01010101 
 9025              	.LASF34:
 9026 0000 6C656E5F 		.ascii	"len_lo\000"
 9026      6C6F00
 9027              	.LASF142:
 9028 0007 43794465 		.ascii	"CyDelay\000"
 9028      6C617900 
 9029              	.LASF49:
 9030 000f 726F6D5F 		.ascii	"rom_type\000"
 9030      74797065 
 9030      00
ARM GAS  C:\Users\TERENC~1\AppData\Local\Temp\ccyX5Aoq.s 			page 173


 9031              	.LASF64:
 9032 0018 65686966 		.ascii	"ehif_irq_pol\000"
 9032      5F697271 
 9032      5F706F6C 
 9032      00
 9033              	.LASF118:
 9034 0025 63633835 		.ascii	"cc85xx_flash_bytes\000"
 9034      78785F66 
 9034      6C617368 
 9034      5F627974 
 9034      657300
 9035              	.LASF103:
 9036 0038 63633835 		.ascii	"cc85xx_boot_reset\000"
 9036      78785F62 
 9036      6F6F745F 
 9036      72657365 
 9036      7400
 9037              	.LASF59:
 9038 004a 63633835 		.ascii	"cc85xx_di_get_chip_info_rsp_s\000"
 9038      78785F64 
 9038      695F6765 
 9038      745F6368 
 9038      69705F69 
 9039              	.LASF24:
 9040 0068 636D645F 		.ascii	"cmd_type\000"
 9040      74797065 
 9040      00
 9041              	.LASF26:
 9042 0071 70617261 		.ascii	"param_len\000"
 9042      6D5F6C65 
 9042      6E00
 9043              	.LASF128:
 9044 007b 5350495F 		.ascii	"SPI_miso_m_Read\000"
 9044      6D69736F 
 9044      5F6D5F52 
 9044      65616400 
 9045              	.LASF56:
 9046 008b 66775F69 		.ascii	"fw_image_size\000"
 9046      6D616765 
 9046      5F73697A 
 9046      6500
 9047              	.LASF47:
 9048 0099 73696C5F 		.ascii	"sil_min_rev\000"
 9048      6D696E5F 
 9048      72657600 
 9049              	.LASF96:
 9050 00a5 6265666F 		.ascii	"before\000"
 9050      726500
 9051              	.LASF45:
 9052 00ac 63633835 		.ascii	"cc85xx_bl_flash_verify_s\000"
 9052      78785F62 
 9052      6C5F666C 
 9052      6173685F 
 9052      76657269 
 9053              	.LASF130:
 9054 00c5 5350495F 		.ascii	"SPI_SpiUartPutArray\000"
 9054      53706955 
ARM GAS  C:\Users\TERENC~1\AppData\Local\Temp\ccyX5Aoq.s 			page 174


 9054      61727450 
 9054      75744172 
 9054      72617900 
 9055              	.LASF89:
 9056 00d9 63633835 		.ascii	"cc85xx_set_addr\000"
 9056      78785F73 
 9056      65745F61 
 9056      64647200 
 9057              	.LASF11:
 9058 00e9 756E7369 		.ascii	"unsigned int\000"
 9058      676E6564 
 9058      20696E74 
 9058      00
 9059              	.LASF20:
 9060 00f6 6473635F 		.ascii	"dsc_reset\000"
 9060      72657365 
 9060      7400
 9061              	.LASF112:
 9062 0100 63633835 		.ascii	"cc85xx_bl_flash_verify\000"
 9062      78785F62 
 9062      6C5F666C 
 9062      6173685F 
 9062      76657269 
 9063              	.LASF129:
 9064 0117 55534255 		.ascii	"USBUART_GetConfiguration\000"
 9064      4152545F 
 9064      47657443 
 9064      6F6E6669 
 9064      67757261 
 9065              	.LASF94:
 9066 0130 63633835 		.ascii	"cc85xx_reset\000"
 9066      78785F72 
 9066      65736574 
 9066      00
 9067              	.LASF79:
 9068 013d 70527844 		.ascii	"pRxData\000"
 9068      61746100 
 9069              	.LASF88:
 9070 0145 70547850 		.ascii	"pTxPkt\000"
 9070      6B7400
 9071              	.LASF150:
 9072 014c 63633835 		.ascii	"cc85xx_init\000"
 9072      78785F69 
 9072      6E697400 
 9073              	.LASF86:
 9074 0158 70617261 		.ascii	"paramLen\000"
 9074      6D4C656E 
 9074      00
 9075              	.LASF39:
 9076 0161 72616D5F 		.ascii	"ram_addr\000"
 9076      61646472 
 9076      00
 9077              	.LASF66:
 9078 016a 63633835 		.ascii	"cc85xx_ehc_evt_mask_cmd_s\000"
 9078      78785F65 
 9078      68635F65 
 9078      76745F6D 
ARM GAS  C:\Users\TERENC~1\AppData\Local\Temp\ccyX5Aoq.s 			page 175


 9078      61736B5F 
 9079              	.LASF131:
 9080 0184 5350495F 		.ascii	"SPI_SpiUartGetRxBufferSize\000"
 9080      53706955 
 9080      61727447 
 9080      65745278 
 9080      42756666 
 9081              	.LASF61:
 9082 019f 6D616E66 		.ascii	"manf_id\000"
 9082      5F696400 
 9083              	.LASF60:
 9084 01a7 64657669 		.ascii	"device_id\000"
 9084      63655F69 
 9084      6400
 9085              	.LASF125:
 9086 01b1 5350495F 		.ascii	"SPI_SpiUartReadRxData\000"
 9086      53706955 
 9086      61727452 
 9086      65616452 
 9086      78446174 
 9087              	.LASF93:
 9088 01c7 63633835 		.ascii	"cc85xx_read\000"
 9088      78785F72 
 9088      65616400 
 9089              	.LASF14:
 9090 01d3 75696E74 		.ascii	"uint32_t\000"
 9090      33325F74 
 9090      00
 9091              	.LASF69:
 9092 01dc 666C6F61 		.ascii	"float\000"
 9092      7400
 9093              	.LASF80:
 9094 01e2 72784C65 		.ascii	"rxLen\000"
 9094      6E00
 9095              	.LASF133:
 9096 01e8 6D616C6C 		.ascii	"malloc\000"
 9096      6F6300
 9097              	.LASF17:
 9098 01ef 70735F63 		.ascii	"ps_chg\000"
 9098      686700
 9099              	.LASF143:
 9100 01f6 43794465 		.ascii	"CyDelayUs\000"
 9100      6C617955 
 9100      7300
 9101              	.LASF146:
 9102 0200 5350495F 		.ascii	"SPI_Start\000"
 9102      53746172 
 9102      7400
 9103              	.LASF10:
 9104 020a 6C6F6E67 		.ascii	"long long unsigned int\000"
 9104      206C6F6E 
 9104      6720756E 
 9104      7369676E 
 9104      65642069 
 9105              	.LASF102:
 9106 0221 63633835 		.ascii	"cc85xx_sys_reset\000"
 9106      78785F73 
ARM GAS  C:\Users\TERENC~1\AppData\Local\Temp\ccyX5Aoq.s 			page 176


 9106      79735F72 
 9106      65736574 
 9106      00
 9107              	.LASF4:
 9108 0232 5F5F7569 		.ascii	"__uint16_t\000"
 9108      6E743136 
 9108      5F7400
 9109              	.LASF106:
 9110 023d 63633835 		.ascii	"cc85xx_wait_for_status\000"
 9110      78785F77 
 9110      6169745F 
 9110      666F725F 
 9110      73746174 
 9111              	.LASF99:
 9112 0254 63633835 		.ascii	"cc85xx_di_get_device_info\000"
 9112      78785F64 
 9112      695F6765 
 9112      745F6465 
 9112      76696365 
 9113              	.LASF147:
 9114 026e 474E5520 		.ascii	"GNU C11 5.4.1 20160609 (release) [ARM/embedded-5-br"
 9114      43313120 
 9114      352E342E 
 9114      31203230 
 9114      31363036 
 9115 02a1 616E6368 		.ascii	"anch revision 237715] -mcpu=cortex-m0 -mthumb -g -O"
 9115      20726576 
 9115      6973696F 
 9115      6E203233 
 9115      37373135 
 9116 02d4 67202D66 		.ascii	"g -ffunction-sections -ffat-lto-objects\000"
 9116      66756E63 
 9116      74696F6E 
 9116      2D736563 
 9116      74696F6E 
 9117              	.LASF149:
 9118 02fc 433A5C64 		.ascii	"C:\\dev\\git\\icebreaker\\Icebreaker.cydsn\000"
 9118      65765C67 
 9118      69745C69 
 9118      63656272 
 9118      65616B65 
 9119              	.LASF75:
 9120 0323 63633835 		.ascii	"cc85xx_basic_transaction\000"
 9120      78785F62 
 9120      61736963 
 9120      5F747261 
 9120      6E736163 
 9121              	.LASF58:
 9122 033c 63686970 		.ascii	"chip_id\000"
 9122      5F696400 
 9123              	.LASF100:
 9124 0344 63633835 		.ascii	"cc85xx_print_info\000"
 9124      78785F70 
 9124      72696E74 
 9124      5F696E66 
 9124      6F00
 9125              	.LASF87:
ARM GAS  C:\Users\TERENC~1\AppData\Local\Temp\ccyX5Aoq.s 			page 177


 9126 0356 70446174 		.ascii	"pData\000"
 9126      6100
 9127              	.LASF121:
 9128 035c 63633835 		.ascii	"cc85xx_ehc_evt_clr\000"
 9128      78785F65 
 9128      68635F65 
 9128      76745F63 
 9128      6C7200
 9129              	.LASF83:
 9130 036f 5F426F6F 		.ascii	"_Bool\000"
 9130      6C00
 9131              	.LASF92:
 9132 0375 64617461 		.ascii	"dataLen\000"
 9132      4C656E00 
 9133              	.LASF134:
 9134 037d 66726565 		.ascii	"free\000"
 9134      00
 9135              	.LASF101:
 9136 0382 70527370 		.ascii	"pRsp\000"
 9136      00
 9137              	.LASF21:
 9138 0387 6473635F 		.ascii	"dsc_tx_avail\000"
 9138      74785F61 
 9138      7661696C 
 9138      00
 9139              	.LASF55:
 9140 0394 66775F70 		.ascii	"fw_patch_rev\000"
 9140      61746368 
 9140      5F726576 
 9140      00
 9141              	.LASF15:
 9142 03a1 73725F63 		.ascii	"sr_chg\000"
 9142      686700
 9143              	.LASF44:
 9144 03a8 62797465 		.ascii	"byte_count\000"
 9144      5F636F75 
 9144      6E7400
 9145              	.LASF113:
 9146 03b3 70437263 		.ascii	"pCrc32\000"
 9146      333200
 9147              	.LASF54:
 9148 03ba 66775F6D 		.ascii	"fw_maj_rev\000"
 9148      616A5F72 
 9148      657600
 9149              	.LASF76:
 9150 03c5 70547844 		.ascii	"pTxData\000"
 9150      61746100 
 9151              	.LASF71:
 9152 03cd 63686172 		.ascii	"char\000"
 9152      00
 9153              	.LASF67:
 9154 03d2 63633835 		.ascii	"cc85xx_ehc_evt_clr_cmd_s\000"
 9154      78785F65 
 9154      68635F65 
 9154      76745F63 
 9154      6C725F63 
 9155              	.LASF120:
ARM GAS  C:\Users\TERENC~1\AppData\Local\Temp\ccyX5Aoq.s 			page 178


 9156 03eb 70436D64 		.ascii	"pCmd\000"
 9156      00
 9157              	.LASF50:
 9158 03f0 726F6D5F 		.ascii	"rom_maj_rev\000"
 9158      6D616A5F 
 9158      72657600 
 9159              	.LASF25:
 9160 03fc 6F70636F 		.ascii	"opcode\000"
 9160      646500
 9161              	.LASF123:
 9162 0403 746D7243 		.ascii	"tmrCounter_ms\000"
 9162      6F756E74 
 9162      65725F6D 
 9162      7300
 9163              	.LASF12:
 9164 0411 75696E74 		.ascii	"uint8_t\000"
 9164      385F7400 
 9165              	.LASF57:
 9166 0419 63686970 		.ascii	"chip_caps\000"
 9166      5F636170 
 9166      7300
 9167              	.LASF27:
 9168 0423 63633835 		.ascii	"cc85xx_cmd_req_hdr_s\000"
 9168      78785F63 
 9168      6D645F72 
 9168      65715F68 
 9168      64725F73 
 9169              	.LASF97:
 9170 0438 70496E66 		.ascii	"pInfo\000"
 9170      6F00
 9171              	.LASF42:
 9172 043e 63633835 		.ascii	"cc85xx_bl_flash_page_prog_s\000"
 9172      78785F62 
 9172      6C5F666C 
 9172      6173685F 
 9172      70616765 
 9173              	.LASF9:
 9174 045a 6C6F6E67 		.ascii	"long long int\000"
 9174      206C6F6E 
 9174      6720696E 
 9174      7400
 9175              	.LASF119:
 9176 0468 63633835 		.ascii	"cc85xx_ehc_evt_mask\000"
 9176      78785F65 
 9176      68635F65 
 9176      76745F6D 
 9176      61736B00 
 9177              	.LASF111:
 9178 047c 5F5F4655 		.ascii	"__FUNCTION__\000"
 9178      4E435449 
 9178      4F4E5F5F 
 9178      00
 9179              	.LASF78:
 9180 0489 70537461 		.ascii	"pStatus\000"
 9180      74757300 
 9181              	.LASF141:
 9182 0491 5350495F 		.ascii	"SPI_mosi_m_Write\000"
ARM GAS  C:\Users\TERENC~1\AppData\Local\Temp\ccyX5Aoq.s 			page 179


 9182      6D6F7369 
 9182      5F6D5F57 
 9182      72697465 
 9182      00
 9183              	.LASF43:
 9184 04a2 64617461 		.ascii	"data_addr\000"
 9184      5F616464 
 9184      7200
 9185              	.LASF77:
 9186 04ac 74784C65 		.ascii	"txLen\000"
 9186      6E00
 9187              	.LASF35:
 9188 04b2 63633835 		.ascii	"cc85xx_write_s\000"
 9188      78785F77 
 9188      72697465 
 9188      5F7300
 9189              	.LASF95:
 9190 04c1 626F6F74 		.ascii	"boot\000"
 9190      00
 9191              	.LASF135:
 9192 04c6 6D656D73 		.ascii	"memset\000"
 9192      657400
 9193              	.LASF84:
 9194 04cd 63633835 		.ascii	"cc85xx_cmd_req\000"
 9194      78785F63 
 9194      6D645F72 
 9194      657100
 9195              	.LASF74:
 9196 04dc 63633835 		.ascii	"cc85xx_spi_read\000"
 9196      78785F73 
 9196      70695F72 
 9196      65616400 
 9197              	.LASF28:
 9198 04ec 70617261 		.ascii	"param\000"
 9198      6D00
 9199              	.LASF115:
 9200 04f2 72616D41 		.ascii	"ramAddr\000"
 9200      64647200 
 9201              	.LASF16:
 9202 04fa 6E776B5F 		.ascii	"nwk_chg\000"
 9202      63686700 
 9203              	.LASF63:
 9204 0502 63633835 		.ascii	"cc85xx_di_get_device_info_rsp_s\000"
 9204      78785F64 
 9204      695F6765 
 9204      745F6465 
 9204      76696365 
 9205              	.LASF62:
 9206 0522 70726F64 		.ascii	"prod_id\000"
 9206      5F696400 
 9207              	.LASF132:
 9208 052a 5350495F 		.ascii	"SPI_SpiUartClearRxBuffer\000"
 9208      53706955 
 9208      61727443 
 9208      6C656172 
 9208      52784275 
 9209              	.LASF22:
ARM GAS  C:\Users\TERENC~1\AppData\Local\Temp\ccyX5Aoq.s 			page 180


 9210 0543 6473635F 		.ascii	"dsc_rx_avail\000"
 9210      72785F61 
 9210      7661696C 
 9210      00
 9211              	.LASF52:
 9212 0550 66775F74 		.ascii	"fw_type\000"
 9212      79706500 
 9213              	.LASF73:
 9214 0558 6C6F6E67 		.ascii	"long double\000"
 9214      20646F75 
 9214      626C6500 
 9215              	.LASF144:
 9216 0564 73707269 		.ascii	"sprintf\000"
 9216      6E746600 
 9217              	.LASF13:
 9218 056c 75696E74 		.ascii	"uint16_t\000"
 9218      31365F74 
 9218      00
 9219              	.LASF72:
 9220 0575 72656733 		.ascii	"reg32\000"
 9220      3200
 9221              	.LASF124:
 9222 057b 67627566 		.ascii	"gbuf\000"
 9222      00
 9223              	.LASF31:
 9224 0580 64617461 		.ascii	"data_len\000"
 9224      5F6C656E 
 9224      00
 9225              	.LASF48:
 9226 0589 73696C5F 		.ascii	"sil_maj_rev\000"
 9226      6D616A5F 
 9226      72657600 
 9227              	.LASF105:
 9228 0595 74784275 		.ascii	"txBuffer\000"
 9228      66666572 
 9228      00
 9229              	.LASF114:
 9230 059e 63633835 		.ascii	"cc85xx_bl_flash_page_prog\000"
 9230      78785F62 
 9230      6C5F666C 
 9230      6173685F 
 9230      70616765 
 9231              	.LASF2:
 9232 05b8 73686F72 		.ascii	"short int\000"
 9232      7420696E 
 9232      7400
 9233              	.LASF137:
 9234 05c2 5253546E 		.ascii	"RSTn_Write\000"
 9234      5F577269 
 9234      746500
 9235              	.LASF36:
 9236 05cd 61646472 		.ascii	"addr_hi\000"
 9236      5F686900 
 9237              	.LASF6:
 9238 05d5 6C6F6E67 		.ascii	"long int\000"
 9238      20696E74 
 9238      00
ARM GAS  C:\Users\TERENC~1\AppData\Local\Temp\ccyX5Aoq.s 			page 181


 9239              	.LASF46:
 9240 05de 66616D69 		.ascii	"family_id\000"
 9240      6C795F69 
 9240      6400
 9241              	.LASF23:
 9242 05e8 63633835 		.ascii	"cc85xx_evt_mask_s\000"
 9242      78785F65 
 9242      76745F6D 
 9242      61736B5F 
 9242      7300
 9243              	.LASF139:
 9244 05fa 5350495F 		.ascii	"SPI_ss0_m_Write\000"
 9244      7373305F 
 9244      6D5F5772 
 9244      69746500 
 9245              	.LASF32:
 9246 060a 63633835 		.ascii	"cc85xx_read_s\000"
 9246      78785F72 
 9246      6561645F 
 9246      7300
 9247              	.LASF107:
 9248 0618 65787065 		.ascii	"expectedStatus\000"
 9248      63746564 
 9248      53746174 
 9248      757300
 9249              	.LASF30:
 9250 0627 63633835 		.ascii	"cc85xx_cmd_req_s\000"
 9250      78785F63 
 9250      6D645F72 
 9250      65715F73 
 9250      00
 9251              	.LASF140:
 9252 0638 5350495F 		.ascii	"SPI_mosi_m_SetDriveMode\000"
 9252      6D6F7369 
 9252      5F6D5F53 
 9252      65744472 
 9252      6976654D 
 9253              	.LASF68:
 9254 0650 75696E74 		.ascii	"uint32\000"
 9254      333200
 9255              	.LASF41:
 9256 0657 64776F72 		.ascii	"dword_count\000"
 9256      645F636F 
 9256      756E7400 
 9257              	.LASF33:
 9258 0663 6C656E5F 		.ascii	"len_hi\000"
 9258      686900
 9259              	.LASF3:
 9260 066a 5F5F7569 		.ascii	"__uint8_t\000"
 9260      6E74385F 
 9260      7400
 9261              	.LASF127:
 9262 0674 55534255 		.ascii	"USBUART_PutString\000"
 9262      4152545F 
 9262      50757453 
 9262      7472696E 
 9262      6700
ARM GAS  C:\Users\TERENC~1\AppData\Local\Temp\ccyX5Aoq.s 			page 182


 9263              	.LASF82:
 9264 0686 73746172 		.ascii	"start\000"
 9264      7400
 9265              	.LASF116:
 9266 068c 666C6173 		.ascii	"flashAddr\000"
 9266      68416464 
 9266      7200
 9267              	.LASF85:
 9268 0696 636D6454 		.ascii	"cmdType\000"
 9268      79706500 
 9269              	.LASF98:
 9270 069e 63633835 		.ascii	"cc85xx_di_get_chip_info\000"
 9270      78785F64 
 9270      695F6765 
 9270      745F6368 
 9270      69705F69 
 9271              	.LASF110:
 9272 06b6 63633835 		.ascii	"cc85xx_bl_mass_erase\000"
 9272      78785F62 
 9272      6C5F6D61 
 9272      73735F65 
 9272      72617365 
 9273              	.LASF29:
 9274 06cb 73697A65 		.ascii	"sizetype\000"
 9274      74797065 
 9274      00
 9275              	.LASF8:
 9276 06d4 6C6F6E67 		.ascii	"long unsigned int\000"
 9276      20756E73 
 9276      69676E65 
 9276      6420696E 
 9276      7400
 9277              	.LASF126:
 9278 06e6 55534255 		.ascii	"USBUART_CDCIsReady\000"
 9278      4152545F 
 9278      43444349 
 9278      73526561 
 9278      647900
 9279              	.LASF145:
 9280 06f9 5350495F 		.ascii	"SPI_Stop\000"
 9280      53746F70 
 9280      00
 9281              	.LASF53:
 9282 0702 66775F6D 		.ascii	"fw_min_rev\000"
 9282      696E5F72 
 9282      657600
 9283              	.LASF122:
 9284 070d 6E496D61 		.ascii	"nImageBytes\000"
 9284      67654279 
 9284      74657300 
 9285              	.LASF1:
 9286 0719 756E7369 		.ascii	"unsigned char\000"
 9286      676E6564 
 9286      20636861 
 9286      7200
 9287              	.LASF7:
 9288 0727 5F5F7569 		.ascii	"__uint32_t\000"
ARM GAS  C:\Users\TERENC~1\AppData\Local\Temp\ccyX5Aoq.s 			page 183


 9288      6E743332 
 9288      5F7400
 9289              	.LASF108:
 9290 0732 74696D65 		.ascii	"timeout\000"
 9290      6F757400 
 9291              	.LASF81:
 9292 073a 7052784C 		.ascii	"pRxLen\000"
 9292      656E00
 9293              	.LASF18:
 9294 0741 766F6C5F 		.ascii	"vol_chg\000"
 9294      63686700 
 9295              	.LASF90:
 9296 0749 61646472 		.ascii	"addr\000"
 9296      00
 9297              	.LASF91:
 9298 074e 63633835 		.ascii	"cc85xx_write\000"
 9298      78785F77 
 9298      72697465 
 9298      00
 9299              	.LASF136:
 9300 075b 5253546E 		.ascii	"RSTn_SetDriveMode\000"
 9300      5F536574 
 9300      44726976 
 9300      654D6F64 
 9300      6500
 9301              	.LASF40:
 9302 076d 666C6173 		.ascii	"flash_addr\000"
 9302      685F6164 
 9302      647200
 9303              	.LASF0:
 9304 0778 7369676E 		.ascii	"signed char\000"
 9304      65642063 
 9304      68617200 
 9305              	.LASF5:
 9306 0784 73686F72 		.ascii	"short unsigned int\000"
 9306      7420756E 
 9306      7369676E 
 9306      65642069 
 9306      6E7400
 9307              	.LASF151:
 9308 0797 6D656D63 		.ascii	"memcpy\000"
 9308      707900
 9309              	.LASF38:
 9310 079e 63633835 		.ascii	"cc85xx_set_addr_s\000"
 9310      78785F73 
 9310      65745F61 
 9310      6464725F 
 9310      7300
 9311              	.LASF70:
 9312 07b0 646F7562 		.ascii	"double\000"
 9312      6C6500
 9313              	.LASF51:
 9314 07b7 726F6D5F 		.ascii	"rom_min_rev\000"
 9314      6D696E5F 
 9314      72657600 
 9315              	.LASF37:
 9316 07c3 61646472 		.ascii	"addr_lo\000"
ARM GAS  C:\Users\TERENC~1\AppData\Local\Temp\ccyX5Aoq.s 			page 184


 9316      5F6C6F00 
 9317              	.LASF19:
 9318 07cb 7370695F 		.ascii	"spi_error\000"
 9318      6572726F 
 9318      7200
 9319              	.LASF65:
 9320 07d5 72737664 		.ascii	"rsvd\000"
 9320      00
 9321              	.LASF117:
 9322 07da 64776F72 		.ascii	"dwordCount\000"
 9322      64436F75 
 9322      6E7400
 9323              	.LASF138:
 9324 07e5 5350495F 		.ascii	"SPI_ss0_m_SetDriveMode\000"
 9324      7373305F 
 9324      6D5F5365 
 9324      74447269 
 9324      76654D6F 
 9325              	.LASF109:
 9326 07fc 63633835 		.ascii	"cc85xx_bl_unlock_spi\000"
 9326      78785F62 
 9326      6C5F756E 
 9326      6C6F636B 
 9326      5F737069 
 9327              	.LASF148:
 9328 0811 63633835 		.ascii	"cc85xx.c\000"
 9328      78782E63 
 9328      00
 9329              	.LASF104:
 9330 081a 63633835 		.ascii	"cc85xx_get_status\000"
 9330      78785F67 
 9330      65745F73 
 9330      74617475 
 9330      7300
 9331              		.ident	"GCC: (GNU Tools for ARM Embedded Processors) 5.4.1 20160609 (release) [ARM/embedded-5-bran
