ARM GAS  C:\Users\TERENC~1\AppData\Local\Temp\cc7H4W3g.s 			page 1


   1              		.syntax unified
   2              		.cpu cortex-m0
   3              		.fpu softvfp
   4              		.eabi_attribute 20, 1
   5              		.eabi_attribute 21, 1
   6              		.eabi_attribute 23, 3
   7              		.eabi_attribute 24, 1
   8              		.eabi_attribute 25, 1
   9              		.eabi_attribute 26, 1
  10              		.eabi_attribute 30, 1
  11              		.eabi_attribute 34, 0
  12              		.eabi_attribute 18, 4
  13              		.thumb
  14              		.syntax unified
  15              		.file	"cc85xx.c"
  16              		.text
  17              	.Ltext0:
  18              		.cfi_sections	.debug_frame
  19              		.section	.text.cc85xx_spi_read,"ax",%progbits
  20              		.align	2
  21              		.code	16
  22              		.thumb_func
  23              		.type	cc85xx_spi_read, %function
  24              	cc85xx_spi_read:
  25              	.LFB3:
  26              		.file 1 "cc85xx.c"
   1:cc85xx.c      **** /* ========================================
   2:cc85xx.c      ****  *
   3:cc85xx.c      ****  * Copyright YOUR COMPANY, THE YEAR
   4:cc85xx.c      ****  * All Rights Reserved
   5:cc85xx.c      ****  * UNPUBLISHED, LICENSED SOFTWARE.
   6:cc85xx.c      ****  *
   7:cc85xx.c      ****  * CONFIDENTIAL AND PROPRIETARY INFORMATION
   8:cc85xx.c      ****  * WHICH IS THE PROPERTY OF your company.
   9:cc85xx.c      ****  *
  10:cc85xx.c      ****  * ========================================
  11:cc85xx.c      **** */
  12:cc85xx.c      **** #include <cc85xx.h>
  13:cc85xx.c      **** #include <SPI.h>
  14:cc85xx.c      **** #include <SPI_SPI_UART.h>
  15:cc85xx.c      **** #include <RSTn.h>
  16:cc85xx.c      **** #include <timers.h>
  17:cc85xx.c      **** #include <Application.h>
  18:cc85xx.c      **** 
  19:cc85xx.c      **** #define CC85XX_WAIT_FOR_OPERATION_TIMEOUT_MS  (1000)
  20:cc85xx.c      **** 
  21:cc85xx.c      **** static bool cc85xx_reset(bool boot)
  22:cc85xx.c      **** {
  23:cc85xx.c      ****   uint32_t start;
  24:cc85xx.c      ****   uint8_t before;
  25:cc85xx.c      **** 
  26:cc85xx.c      ****   RSTn_Write(0);
  27:cc85xx.c      ****   SPI_ss0_m_Write(0);
  28:cc85xx.c      ****   
  29:cc85xx.c      ****   SPI_mosi_m_SetDriveMode(SPI_mosi_m_DM_STRONG);
  30:cc85xx.c      **** 
  31:cc85xx.c      ****   if (boot)
ARM GAS  C:\Users\TERENC~1\AppData\Local\Temp\cc7H4W3g.s 			page 2


  32:cc85xx.c      ****   {
  33:cc85xx.c      ****     SPI_mosi_m_Write(0);
  34:cc85xx.c      ****   }
  35:cc85xx.c      ****   else
  36:cc85xx.c      ****   {
  37:cc85xx.c      ****     SPI_mosi_m_Write(1);
  38:cc85xx.c      ****   }
  39:cc85xx.c      ****   
  40:cc85xx.c      ****   CyDelay(3);
  41:cc85xx.c      ****   
  42:cc85xx.c      ****   RSTn_Write(1);
  43:cc85xx.c      ****   
  44:cc85xx.c      ****   CyDelayUs(6);
  45:cc85xx.c      ****   
  46:cc85xx.c      ****   SPI_ss0_m_Write(1);
  47:cc85xx.c      ****   CyDelayUs(1);
  48:cc85xx.c      ****   SPI_ss0_m_Write(0);
  49:cc85xx.c      ****   
  50:cc85xx.c      ****   before = SPI_miso_m_Read();
  51:cc85xx.c      **** 
  52:cc85xx.c      ****   start = tmrGetCounter_ms();
  53:cc85xx.c      ****   while (SPI_miso_m_Read() == 0 && tmrGetElapsedMs(start) < 1000);
  54:cc85xx.c      ****   
  55:cc85xx.c      ****   if (SPI_miso_m_Read() && (before != SPI_miso_m_Read()) && (tmrGetElapsedMs(start) < 1000))
  56:cc85xx.c      ****   {
  57:cc85xx.c      ****     return true;
  58:cc85xx.c      ****   }
  59:cc85xx.c      ****   else
  60:cc85xx.c      ****   {
  61:cc85xx.c      ****     return false;
  62:cc85xx.c      ****   }
  63:cc85xx.c      **** }
  64:cc85xx.c      **** 
  65:cc85xx.c      **** static uint8_t cc85xx_spi_read(void)
  66:cc85xx.c      **** {
  27              		.loc 1 66 0
  28              		.cfi_startproc
  29              		@ args = 0, pretend = 0, frame = 0
  30              		@ frame_needed = 0, uses_anonymous_args = 0
  31 0000 10B5     		push	{r4, lr}
  32              		.cfi_def_cfa_offset 8
  33              		.cfi_offset 4, -8
  34              		.cfi_offset 14, -4
  67:cc85xx.c      ****   //while (SPI_SpiUartGetRxBufferSize() == 0);
  68:cc85xx.c      ****   
  69:cc85xx.c      ****   return (uint8_t)SPI_SpiUartReadRxData();
  35              		.loc 1 69 0
  36 0002 FFF7FEFF 		bl	SPI_SpiUartReadRxData
  37              	.LVL0:
  38 0006 C0B2     		uxtb	r0, r0
  70:cc85xx.c      **** }
  39              		.loc 1 70 0
  40              		@ sp needed
  41 0008 10BD     		pop	{r4, pc}
  42              		.cfi_endproc
  43              	.LFE3:
  44              		.size	cc85xx_spi_read, .-cc85xx_spi_read
ARM GAS  C:\Users\TERENC~1\AppData\Local\Temp\cc7H4W3g.s 			page 3


  45 000a C046     		.section	.text.cc85xx_basic_transaction,"ax",%progbits
  46              		.align	2
  47              		.code	16
  48              		.thumb_func
  49              		.type	cc85xx_basic_transaction, %function
  50              	cc85xx_basic_transaction:
  51              	.LFB7:
  71:cc85xx.c      **** 
  72:cc85xx.c      **** static bool cc85xx_sys_reset(void)
  73:cc85xx.c      **** {
  74:cc85xx.c      ****   return cc85xx_reset(false);
  75:cc85xx.c      **** }
  76:cc85xx.c      **** 
  77:cc85xx.c      **** static bool cc85xx_boot_reset(void)
  78:cc85xx.c      **** {
  79:cc85xx.c      ****   return cc85xx_reset(true);
  80:cc85xx.c      **** }
  81:cc85xx.c      **** 
  82:cc85xx.c      **** uint16_t cc85xx_get_status(void)
  83:cc85xx.c      **** {
  84:cc85xx.c      ****   uint16_t sw = 0;
  85:cc85xx.c      ****   uint8_t txBuffer[] = { 0x80, 0x00 };
  86:cc85xx.c      **** 
  87:cc85xx.c      ****   SPI_SpiUartPutArray(txBuffer, sizeof(txBuffer));
  88:cc85xx.c      ****   
  89:cc85xx.c      ****   /* Wait for the end of the transfer. The number of transmitted data
  90:cc85xx.c      ****   * elements has to be equal to the number of received data elements.
  91:cc85xx.c      ****   */
  92:cc85xx.c      ****   while(sizeof(txBuffer) != SPI_SpiUartGetRxBufferSize())
  93:cc85xx.c      ****   {
  94:cc85xx.c      ****   }
  95:cc85xx.c      ****   
  96:cc85xx.c      ****   while(SPI_SpiUartGetRxBufferSize() > 0)
  97:cc85xx.c      ****   {
  98:cc85xx.c      ****     sw <<= 8;
  99:cc85xx.c      ****     sw |= (SPI_SpiUartReadRxData() & 0xFF);
 100:cc85xx.c      ****   }
 101:cc85xx.c      **** 
 102:cc85xx.c      ****   /* Clear dummy bytes from RX buffer */
 103:cc85xx.c      ****   SPI_SpiUartClearRxBuffer();
 104:cc85xx.c      ****   
 105:cc85xx.c      ****   return sw;
 106:cc85xx.c      **** }
 107:cc85xx.c      **** 
 108:cc85xx.c      **** static bool cc85xx_basic_transaction(uint8_t *pTxData, uint32_t txLen, uint16_t *pStatus, uint8_t *
 109:cc85xx.c      **** {
  52              		.loc 1 109 0
  53              		.cfi_startproc
  54              		@ args = 4, pretend = 0, frame = 8
  55              		@ frame_needed = 0, uses_anonymous_args = 0
  56              	.LVL1:
  57 0000 F0B5     		push	{r4, r5, r6, r7, lr}
  58              		.cfi_def_cfa_offset 20
  59              		.cfi_offset 4, -20
  60              		.cfi_offset 5, -16
  61              		.cfi_offset 6, -12
  62              		.cfi_offset 7, -8
ARM GAS  C:\Users\TERENC~1\AppData\Local\Temp\cc7H4W3g.s 			page 4


  63              		.cfi_offset 14, -4
  64 0002 4746     		mov	r7, r8
  65 0004 80B4     		push	{r7}
  66              		.cfi_def_cfa_offset 24
  67              		.cfi_offset 8, -24
  68 0006 82B0     		sub	sp, sp, #8
  69              		.cfi_def_cfa_offset 32
  70 0008 0190     		str	r0, [sp, #4]
  71 000a 0E00     		movs	r6, r1
  72 000c 1500     		movs	r5, r2
  73 000e 1F00     		movs	r7, r3
  74 0010 08AB     		add	r3, sp, #32
  75              	.LVL2:
  76 0012 1B88     		ldrh	r3, [r3]
  77              	.LVL3:
  78 0014 9846     		mov	r8, r3
 110:cc85xx.c      ****   uint32_t start = tmrGetCounter_ms();
  79              		.loc 1 110 0
  80 0016 254B     		ldr	r3, .L14
  81 0018 1C68     		ldr	r4, [r3]
  82              	.LVL4:
  83              	.L4:
 111:cc85xx.c      ****   uint32_t i;
 112:cc85xx.c      **** 
 113:cc85xx.c      ****   /* Wait for previous operation to complete */
 114:cc85xx.c      ****   while (SPI_miso_m_Read() == 0 && tmrGetElapsedMs(start) < CC85XX_WAIT_FOR_OPERATION_TIMEOUT_MS);
  84              		.loc 1 114 0 discriminator 2
  85 001a FFF7FEFF 		bl	SPI_miso_m_Read
  86              	.LVL5:
  87 001e 0028     		cmp	r0, #0
  88 0020 05D1     		bne	.L3
  89              		.loc 1 114 0 is_stmt 0 discriminator 1
  90 0022 224B     		ldr	r3, .L14
  91 0024 1B68     		ldr	r3, [r3]
  92 0026 1B1B     		subs	r3, r3, r4
  93 0028 214A     		ldr	r2, .L14+4
  94 002a 9342     		cmp	r3, r2
  95 002c F5D9     		bls	.L4
  96              	.L3:
 115:cc85xx.c      ****   
 116:cc85xx.c      ****   if (tmrGetElapsedMs(start) >= CC85XX_WAIT_FOR_OPERATION_TIMEOUT_MS)
  97              		.loc 1 116 0 is_stmt 1
  98 002e 1F4B     		ldr	r3, .L14
  99 0030 1B68     		ldr	r3, [r3]
 100 0032 1C1B     		subs	r4, r3, r4
 101              	.LVL6:
 102 0034 1E4B     		ldr	r3, .L14+4
 103 0036 9C42     		cmp	r4, r3
 104 0038 12D9     		bls	.L5
 117:cc85xx.c      ****   {
 118:cc85xx.c      ****     PRINTF("ERROR: Timed out waiting for previous SPI operation to complete\n");
 105              		.loc 1 118 0
 106 003a FFF7FEFF 		bl	USBUART_GetConfiguration
 107              	.LVL7:
 108 003e 0028     		cmp	r0, #0
 109 0040 2FD0     		beq	.L12
 110              	.L7:
ARM GAS  C:\Users\TERENC~1\AppData\Local\Temp\cc7H4W3g.s 			page 5


 111              		.loc 1 118 0 is_stmt 0 discriminator 1
 112 0042 FFF7FEFF 		bl	USBUART_CDCIsReady
 113              	.LVL8:
 114 0046 0028     		cmp	r0, #0
 115 0048 FBD0     		beq	.L7
 116              		.loc 1 118 0 discriminator 2
 117 004a 1A4C     		ldr	r4, .L14+8
 118 004c 4122     		movs	r2, #65
 119 004e 1A49     		ldr	r1, .L14+12
 120 0050 2000     		movs	r0, r4
 121 0052 FFF7FEFF 		bl	memcpy
 122              	.LVL9:
 123 0056 2000     		movs	r0, r4
 124 0058 FFF7FEFF 		bl	USBUART_PutString
 125              	.LVL10:
 119:cc85xx.c      ****     return false;
 126              		.loc 1 119 0 is_stmt 1 discriminator 2
 127 005c 0020     		movs	r0, #0
 128 005e 21E0     		b	.L6
 129              	.L5:
 120:cc85xx.c      ****   }
 121:cc85xx.c      ****   
 122:cc85xx.c      ****   /* Start transfer */
 123:cc85xx.c      ****   SPI_SpiUartPutArray(pTxData, txLen);
 130              		.loc 1 123 0
 131 0060 3100     		movs	r1, r6
 132 0062 0198     		ldr	r0, [sp, #4]
 133 0064 FFF7FEFF 		bl	SPI_SpiUartPutArray
 134              	.LVL11:
 135              	.L8:
 124:cc85xx.c      **** 
 125:cc85xx.c      ****   /* Wait for the end of the transfer. The number of transmitted data
 126:cc85xx.c      ****   * elements has to be equal to the number of received data elements.
 127:cc85xx.c      ****   */
 128:cc85xx.c      ****   while(txLen != SPI_SpiUartGetRxBufferSize())
 136              		.loc 1 128 0 discriminator 1
 137 0068 FFF7FEFF 		bl	SPI_SpiUartGetRxBufferSize
 138              	.LVL12:
 139 006c 8642     		cmp	r6, r0
 140 006e FBD1     		bne	.L8
 129:cc85xx.c      ****   {
 130:cc85xx.c      ****   }
 131:cc85xx.c      ****   
 132:cc85xx.c      ****   *pStatus = cc85xx_spi_read() << 8;
 141              		.loc 1 132 0
 142 0070 FFF7FEFF 		bl	cc85xx_spi_read
 143              	.LVL13:
 144 0074 0002     		lsls	r0, r0, #8
 145 0076 2880     		strh	r0, [r5]
 133:cc85xx.c      ****   *pStatus |= cc85xx_spi_read();
 146              		.loc 1 133 0
 147 0078 FFF7FEFF 		bl	cc85xx_spi_read
 148              	.LVL14:
 149 007c 2B88     		ldrh	r3, [r5]
 150 007e 1843     		orrs	r0, r3
 151 0080 2880     		strh	r0, [r5]
 134:cc85xx.c      ****   
ARM GAS  C:\Users\TERENC~1\AppData\Local\Temp\cc7H4W3g.s 			page 6


 135:cc85xx.c      ****   if (pRxData != NULL)
 152              		.loc 1 135 0
 153 0082 002F     		cmp	r7, #0
 154 0084 06D1     		bne	.L13
 155 0086 08E0     		b	.L10
 156              	.LVL15:
 157              	.L11:
 136:cc85xx.c      ****   {
 137:cc85xx.c      ****     for (i = 0; i < rxLen; i++)
 138:cc85xx.c      ****     {
 139:cc85xx.c      ****       pRxData[i] = cc85xx_spi_read();
 158              		.loc 1 139 0 discriminator 3
 159 0088 3D19     		adds	r5, r7, r4
 160 008a FFF7FEFF 		bl	cc85xx_spi_read
 161              	.LVL16:
 162 008e 2870     		strb	r0, [r5]
 137:cc85xx.c      ****     {
 163              		.loc 1 137 0 discriminator 3
 164 0090 0134     		adds	r4, r4, #1
 165              	.LVL17:
 166 0092 00E0     		b	.L9
 167              	.LVL18:
 168              	.L13:
 169 0094 0024     		movs	r4, #0
 170              	.LVL19:
 171              	.L9:
 137:cc85xx.c      ****     {
 172              		.loc 1 137 0 is_stmt 0 discriminator 1
 173 0096 4445     		cmp	r4, r8
 174 0098 F6D3     		bcc	.L11
 175              	.LVL20:
 176              	.L10:
 140:cc85xx.c      ****     }
 141:cc85xx.c      ****   }
 142:cc85xx.c      **** 
 143:cc85xx.c      ****   /* Clear dummy bytes from RX buffer */
 144:cc85xx.c      ****   SPI_SpiUartClearRxBuffer();
 177              		.loc 1 144 0 is_stmt 1
 178 009a FFF7FEFF 		bl	SPI_SpiUartClearRxBuffer
 179              	.LVL21:
 145:cc85xx.c      ****   
 146:cc85xx.c      ****   return true;
 180              		.loc 1 146 0
 181 009e 0120     		movs	r0, #1
 182 00a0 00E0     		b	.L6
 183              	.LVL22:
 184              	.L12:
 119:cc85xx.c      ****   }
 185              		.loc 1 119 0
 186 00a2 0020     		movs	r0, #0
 187              	.LVL23:
 188              	.L6:
 147:cc85xx.c      **** }
 189              		.loc 1 147 0
 190 00a4 02B0     		add	sp, sp, #8
 191              		@ sp needed
 192              	.LVL24:
ARM GAS  C:\Users\TERENC~1\AppData\Local\Temp\cc7H4W3g.s 			page 7


 193              	.LVL25:
 194 00a6 04BC     		pop	{r2}
 195 00a8 9046     		mov	r8, r2
 196 00aa F0BD     		pop	{r4, r5, r6, r7, pc}
 197              	.L15:
 198              		.align	2
 199              	.L14:
 200 00ac 00000000 		.word	tmrCounter_ms
 201 00b0 E7030000 		.word	999
 202 00b4 00000000 		.word	gbuf
 203 00b8 00000000 		.word	.LC2
 204              		.cfi_endproc
 205              	.LFE7:
 206              		.size	cc85xx_basic_transaction, .-cc85xx_basic_transaction
 207              		.section	.text.cc85xx_cmd_req,"ax",%progbits
 208              		.align	2
 209              		.code	16
 210              		.thumb_func
 211              		.type	cc85xx_cmd_req, %function
 212              	cc85xx_cmd_req:
 213              	.LFB8:
 148:cc85xx.c      **** 
 149:cc85xx.c      **** static bool cc85xx_cmd_req(uint8_t cmdType, uint8_t paramLen, uint8_t *pData, uint16_t *pStatus)
 150:cc85xx.c      **** {
 214              		.loc 1 150 0
 215              		.cfi_startproc
 216              		@ args = 0, pretend = 0, frame = 8
 217              		@ frame_needed = 0, uses_anonymous_args = 0
 218              	.LVL26:
 219 0000 F0B5     		push	{r4, r5, r6, r7, lr}
 220              		.cfi_def_cfa_offset 20
 221              		.cfi_offset 4, -20
 222              		.cfi_offset 5, -16
 223              		.cfi_offset 6, -12
 224              		.cfi_offset 7, -8
 225              		.cfi_offset 14, -4
 226 0002 85B0     		sub	sp, sp, #20
 227              		.cfi_def_cfa_offset 40
 228 0004 0600     		movs	r6, r0
 229 0006 0D00     		movs	r5, r1
 230 0008 0292     		str	r2, [sp, #8]
 231 000a 0393     		str	r3, [sp, #12]
 232              	.LVL27:
 151:cc85xx.c      ****   bool ret = false;
 152:cc85xx.c      **** 
 153:cc85xx.c      ****   cc85xx_cmd_req_s *pTxPkt = (cc85xx_cmd_req_s *)malloc(sizeof(cc85xx_cmd_req_hdr_s) + paramLen);
 233              		.loc 1 153 0
 234 000c 8C1C     		adds	r4, r1, #2
 235 000e 2000     		movs	r0, r4
 236              	.LVL28:
 237 0010 FFF7FEFF 		bl	malloc
 238              	.LVL29:
 239 0014 0700     		movs	r7, r0
 240              	.LVL30:
 154:cc85xx.c      **** 
 155:cc85xx.c      ****   pTxPkt->hdr.opcode = CC85XX_OP_CMD_REQ;
 241              		.loc 1 155 0
ARM GAS  C:\Users\TERENC~1\AppData\Local\Temp\cc7H4W3g.s 			page 8


 242 0016 0278     		ldrb	r2, [r0]
 243 0018 4023     		movs	r3, #64
 244 001a 5B42     		rsbs	r3, r3, #0
 245 001c 1A43     		orrs	r2, r3
 156:cc85xx.c      ****   pTxPkt->hdr.cmd_type = cmdType;
 246              		.loc 1 156 0
 247 001e 7F33     		adds	r3, r3, #127
 248 0020 3340     		ands	r3, r6
 249 0022 1900     		movs	r1, r3
 250 0024 D3B2     		uxtb	r3, r2
 251 0026 3F22     		movs	r2, #63
 252 0028 9343     		bics	r3, r2
 253 002a 0B43     		orrs	r3, r1
 254 002c 0370     		strb	r3, [r0]
 157:cc85xx.c      ****   pTxPkt->hdr.param_len = paramLen;
 255              		.loc 1 157 0
 256 002e 4570     		strb	r5, [r0, #1]
 158:cc85xx.c      ****   memcpy(pTxPkt->param, pData, paramLen);
 257              		.loc 1 158 0
 258 0030 0230     		adds	r0, r0, #2
 259              	.LVL31:
 260 0032 2A00     		movs	r2, r5
 261 0034 0299     		ldr	r1, [sp, #8]
 262 0036 FFF7FEFF 		bl	memcpy
 263              	.LVL32:
 159:cc85xx.c      ****   
 160:cc85xx.c      ****   ret = cc85xx_basic_transaction((uint8_t *)pTxPkt, sizeof(cc85xx_cmd_req_hdr_s) + paramLen, pStatu
 264              		.loc 1 160 0
 265 003a 0023     		movs	r3, #0
 266 003c 0093     		str	r3, [sp]
 267 003e 039A     		ldr	r2, [sp, #12]
 268 0040 2100     		movs	r1, r4
 269 0042 3800     		movs	r0, r7
 270 0044 FFF7FEFF 		bl	cc85xx_basic_transaction
 271              	.LVL33:
 272 0048 0400     		movs	r4, r0
 273              	.LVL34:
 161:cc85xx.c      ****   
 162:cc85xx.c      ****   free(pTxPkt);
 274              		.loc 1 162 0
 275 004a 3800     		movs	r0, r7
 276 004c FFF7FEFF 		bl	free
 277              	.LVL35:
 163:cc85xx.c      **** 
 164:cc85xx.c      ****   if (!ret)
 278              		.loc 1 164 0
 279 0050 002C     		cmp	r4, #0
 280 0052 01D0     		beq	.L18
 165:cc85xx.c      ****   {
 166:cc85xx.c      ****     return ret;
 167:cc85xx.c      ****   }
 168:cc85xx.c      ****   
 169:cc85xx.c      ****   return true;
 281              		.loc 1 169 0
 282 0054 0120     		movs	r0, #1
 283 0056 00E0     		b	.L17
 284              	.L18:
ARM GAS  C:\Users\TERENC~1\AppData\Local\Temp\cc7H4W3g.s 			page 9


 166:cc85xx.c      ****   }
 285              		.loc 1 166 0
 286 0058 2000     		movs	r0, r4
 287              	.L17:
 170:cc85xx.c      **** }
 288              		.loc 1 170 0
 289 005a 05B0     		add	sp, sp, #20
 290              		@ sp needed
 291              	.LVL36:
 292              	.LVL37:
 293 005c F0BD     		pop	{r4, r5, r6, r7, pc}
 294              		.cfi_endproc
 295              	.LFE8:
 296              		.size	cc85xx_cmd_req, .-cc85xx_cmd_req
 297 005e C046     		.section	.text.cc85xx_read,"ax",%progbits
 298              		.align	2
 299              		.code	16
 300              		.thumb_func
 301              		.type	cc85xx_read, %function
 302              	cc85xx_read:
 303              	.LFB9:
 171:cc85xx.c      **** 
 172:cc85xx.c      **** static bool cc85xx_read(uint16_t dataLen, uint16_t *pStatus, uint8_t *pData)
 173:cc85xx.c      **** {
 304              		.loc 1 173 0
 305              		.cfi_startproc
 306              		@ args = 0, pretend = 0, frame = 8
 307              		@ frame_needed = 0, uses_anonymous_args = 0
 308              	.LVL38:
 309 0000 F0B5     		push	{r4, r5, r6, r7, lr}
 310              		.cfi_def_cfa_offset 20
 311              		.cfi_offset 4, -20
 312              		.cfi_offset 5, -16
 313              		.cfi_offset 6, -12
 314              		.cfi_offset 7, -8
 315              		.cfi_offset 14, -4
 316 0002 85B0     		sub	sp, sp, #20
 317              		.cfi_def_cfa_offset 40
 318 0004 0600     		movs	r6, r0
 319 0006 0391     		str	r1, [sp, #12]
 320 0008 1700     		movs	r7, r2
 321              	.LVL39:
 174:cc85xx.c      ****   bool ret = false;
 175:cc85xx.c      ****   
 176:cc85xx.c      ****   cc85xx_read_s *pTxPkt = (cc85xx_read_s *)malloc(sizeof(cc85xx_read_s) + dataLen);
 322              		.loc 1 176 0
 323 000a 851C     		adds	r5, r0, #2
 324 000c 2800     		movs	r0, r5
 325              	.LVL40:
 326 000e FFF7FEFF 		bl	malloc
 327              	.LVL41:
 328 0012 0400     		movs	r4, r0
 329              	.LVL42:
 177:cc85xx.c      ****   
 178:cc85xx.c      ****   memset((void *)pTxPkt, 0xCC, sizeof(cc85xx_read_s) + dataLen);
 330              		.loc 1 178 0
 331 0014 2A00     		movs	r2, r5
ARM GAS  C:\Users\TERENC~1\AppData\Local\Temp\cc7H4W3g.s 			page 10


 332 0016 CC21     		movs	r1, #204
 333 0018 FFF7FEFF 		bl	memset
 334              	.LVL43:
 179:cc85xx.c      ****   
 180:cc85xx.c      ****   pTxPkt->opcode = CC85XX_OP_READ;
 335              		.loc 1 180 0
 336 001c 2378     		ldrb	r3, [r4]
 337 001e 0F22     		movs	r2, #15
 338 0020 1340     		ands	r3, r2
 339 0022 7F3A     		subs	r2, r2, #127
 340 0024 1343     		orrs	r3, r2
 341 0026 2370     		strb	r3, [r4]
 181:cc85xx.c      ****   pTxPkt->data_len = dataLen;
 342              		.loc 1 181 0
 343 0028 6670     		strb	r6, [r4, #1]
 182:cc85xx.c      ****   
 183:cc85xx.c      ****   ret = cc85xx_basic_transaction((uint8_t *)pTxPkt, sizeof(cc85xx_read_s) + dataLen, pStatus, pData
 344              		.loc 1 183 0
 345 002a 0096     		str	r6, [sp]
 346 002c 3B00     		movs	r3, r7
 347 002e 039A     		ldr	r2, [sp, #12]
 348 0030 2900     		movs	r1, r5
 349 0032 2000     		movs	r0, r4
 350 0034 FFF7FEFF 		bl	cc85xx_basic_transaction
 351              	.LVL44:
 352 0038 0500     		movs	r5, r0
 353              	.LVL45:
 184:cc85xx.c      **** 
 185:cc85xx.c      ****   free(pTxPkt);
 354              		.loc 1 185 0
 355 003a 2000     		movs	r0, r4
 356 003c FFF7FEFF 		bl	free
 357              	.LVL46:
 186:cc85xx.c      **** 
 187:cc85xx.c      ****   if (!ret)
 358              		.loc 1 187 0
 359 0040 002D     		cmp	r5, #0
 360 0042 01D0     		beq	.L21
 188:cc85xx.c      ****   {
 189:cc85xx.c      ****     return ret;
 190:cc85xx.c      ****   }
 191:cc85xx.c      ****   
 192:cc85xx.c      ****   return true;
 361              		.loc 1 192 0
 362 0044 0120     		movs	r0, #1
 363 0046 00E0     		b	.L20
 364              	.L21:
 189:cc85xx.c      ****   }
 365              		.loc 1 189 0
 366 0048 2800     		movs	r0, r5
 367              	.L20:
 193:cc85xx.c      **** }
 368              		.loc 1 193 0
 369 004a 05B0     		add	sp, sp, #20
 370              		@ sp needed
 371              	.LVL47:
 372              	.LVL48:
ARM GAS  C:\Users\TERENC~1\AppData\Local\Temp\cc7H4W3g.s 			page 11


 373              	.LVL49:
 374 004c F0BD     		pop	{r4, r5, r6, r7, pc}
 375              		.cfi_endproc
 376              	.LFE9:
 377              		.size	cc85xx_read, .-cc85xx_read
 378 004e C046     		.section	.text.cc85xx_reset,"ax",%progbits
 379              		.align	2
 380              		.code	16
 381              		.thumb_func
 382              		.type	cc85xx_reset, %function
 383              	cc85xx_reset:
 384              	.LFB2:
  22:cc85xx.c      ****   uint32_t start;
 385              		.loc 1 22 0
 386              		.cfi_startproc
 387              		@ args = 0, pretend = 0, frame = 0
 388              		@ frame_needed = 0, uses_anonymous_args = 0
 389              	.LVL50:
 390 0000 70B5     		push	{r4, r5, r6, lr}
 391              		.cfi_def_cfa_offset 16
 392              		.cfi_offset 4, -16
 393              		.cfi_offset 5, -12
 394              		.cfi_offset 6, -8
 395              		.cfi_offset 14, -4
 396 0002 0400     		movs	r4, r0
  26:cc85xx.c      ****   SPI_ss0_m_Write(0);
 397              		.loc 1 26 0
 398 0004 0020     		movs	r0, #0
 399              	.LVL51:
 400 0006 FFF7FEFF 		bl	RSTn_Write
 401              	.LVL52:
  27:cc85xx.c      ****   
 402              		.loc 1 27 0
 403 000a 0020     		movs	r0, #0
 404 000c FFF7FEFF 		bl	SPI_ss0_m_Write
 405              	.LVL53:
  29:cc85xx.c      **** 
 406              		.loc 1 29 0
 407 0010 0620     		movs	r0, #6
 408 0012 FFF7FEFF 		bl	SPI_mosi_m_SetDriveMode
 409              	.LVL54:
  31:cc85xx.c      ****   {
 410              		.loc 1 31 0
 411 0016 002C     		cmp	r4, #0
 412 0018 03D0     		beq	.L23
  33:cc85xx.c      ****   }
 413              		.loc 1 33 0
 414 001a 0020     		movs	r0, #0
 415 001c FFF7FEFF 		bl	SPI_mosi_m_Write
 416              	.LVL55:
 417 0020 02E0     		b	.L24
 418              	.L23:
  37:cc85xx.c      ****   }
 419              		.loc 1 37 0
 420 0022 0120     		movs	r0, #1
 421 0024 FFF7FEFF 		bl	SPI_mosi_m_Write
 422              	.LVL56:
ARM GAS  C:\Users\TERENC~1\AppData\Local\Temp\cc7H4W3g.s 			page 12


 423              	.L24:
  40:cc85xx.c      ****   
 424              		.loc 1 40 0
 425 0028 0320     		movs	r0, #3
 426 002a FFF7FEFF 		bl	CyDelay
 427              	.LVL57:
  42:cc85xx.c      ****   
 428              		.loc 1 42 0
 429 002e 0120     		movs	r0, #1
 430 0030 FFF7FEFF 		bl	RSTn_Write
 431              	.LVL58:
  44:cc85xx.c      ****   
 432              		.loc 1 44 0
 433 0034 0620     		movs	r0, #6
 434 0036 FFF7FEFF 		bl	CyDelayUs
 435              	.LVL59:
  46:cc85xx.c      ****   CyDelayUs(1);
 436              		.loc 1 46 0
 437 003a 0120     		movs	r0, #1
 438 003c FFF7FEFF 		bl	SPI_ss0_m_Write
 439              	.LVL60:
  47:cc85xx.c      ****   SPI_ss0_m_Write(0);
 440              		.loc 1 47 0
 441 0040 0120     		movs	r0, #1
 442 0042 FFF7FEFF 		bl	CyDelayUs
 443              	.LVL61:
  48:cc85xx.c      ****   
 444              		.loc 1 48 0
 445 0046 0020     		movs	r0, #0
 446 0048 FFF7FEFF 		bl	SPI_ss0_m_Write
 447              	.LVL62:
  50:cc85xx.c      **** 
 448              		.loc 1 50 0
 449 004c FFF7FEFF 		bl	SPI_miso_m_Read
 450              	.LVL63:
 451 0050 0400     		movs	r4, r0
 452              	.LVL64:
  52:cc85xx.c      ****   while (SPI_miso_m_Read() == 0 && tmrGetElapsedMs(start) < 1000);
 453              		.loc 1 52 0
 454 0052 114B     		ldr	r3, .L31
 455 0054 1D68     		ldr	r5, [r3]
 456              	.LVL65:
 457              	.L26:
  53:cc85xx.c      ****   
 458              		.loc 1 53 0 discriminator 2
 459 0056 FFF7FEFF 		bl	SPI_miso_m_Read
 460              	.LVL66:
 461 005a 0028     		cmp	r0, #0
 462 005c 05D1     		bne	.L25
  53:cc85xx.c      ****   
 463              		.loc 1 53 0 is_stmt 0 discriminator 1
 464 005e 0E4B     		ldr	r3, .L31
 465 0060 1B68     		ldr	r3, [r3]
 466 0062 5B1B     		subs	r3, r3, r5
 467 0064 0D4A     		ldr	r2, .L31+4
 468 0066 9342     		cmp	r3, r2
 469 0068 F5D9     		bls	.L26
ARM GAS  C:\Users\TERENC~1\AppData\Local\Temp\cc7H4W3g.s 			page 13


 470              	.L25:
  55:cc85xx.c      ****   {
 471              		.loc 1 55 0 is_stmt 1
 472 006a FFF7FEFF 		bl	SPI_miso_m_Read
 473              	.LVL67:
 474 006e 0028     		cmp	r0, #0
 475 0070 0BD0     		beq	.L28
  55:cc85xx.c      ****   {
 476              		.loc 1 55 0 is_stmt 0 discriminator 1
 477 0072 FFF7FEFF 		bl	SPI_miso_m_Read
 478              	.LVL68:
 479 0076 8442     		cmp	r4, r0
 480 0078 09D0     		beq	.L29
  55:cc85xx.c      ****   {
 481              		.loc 1 55 0 discriminator 2
 482 007a 074B     		ldr	r3, .L31
 483 007c 1B68     		ldr	r3, [r3]
 484 007e 5D1B     		subs	r5, r3, r5
 485              	.LVL69:
 486 0080 064B     		ldr	r3, .L31+4
 487 0082 9D42     		cmp	r5, r3
 488 0084 05D8     		bhi	.L30
  57:cc85xx.c      ****   }
 489              		.loc 1 57 0 is_stmt 1
 490 0086 0120     		movs	r0, #1
 491 0088 04E0     		b	.L27
 492              	.LVL70:
 493              	.L28:
  61:cc85xx.c      ****   }
 494              		.loc 1 61 0
 495 008a 0020     		movs	r0, #0
 496 008c 02E0     		b	.L27
 497              	.L29:
 498 008e 0020     		movs	r0, #0
 499 0090 00E0     		b	.L27
 500              	.LVL71:
 501              	.L30:
 502 0092 0020     		movs	r0, #0
 503              	.L27:
  63:cc85xx.c      **** 
 504              		.loc 1 63 0
 505              		@ sp needed
 506              	.LVL72:
 507 0094 70BD     		pop	{r4, r5, r6, pc}
 508              	.L32:
 509 0096 C046     		.align	2
 510              	.L31:
 511 0098 00000000 		.word	tmrCounter_ms
 512 009c E7030000 		.word	999
 513              		.cfi_endproc
 514              	.LFE2:
 515              		.size	cc85xx_reset, .-cc85xx_reset
 516              		.section	.text.cc85xx_boot_reset,"ax",%progbits
 517              		.align	2
 518              		.code	16
 519              		.thumb_func
 520              		.type	cc85xx_boot_reset, %function
ARM GAS  C:\Users\TERENC~1\AppData\Local\Temp\cc7H4W3g.s 			page 14


 521              	cc85xx_boot_reset:
 522              	.LFB5:
  78:cc85xx.c      ****   return cc85xx_reset(true);
 523              		.loc 1 78 0
 524              		.cfi_startproc
 525              		@ args = 0, pretend = 0, frame = 0
 526              		@ frame_needed = 0, uses_anonymous_args = 0
 527 0000 10B5     		push	{r4, lr}
 528              		.cfi_def_cfa_offset 8
 529              		.cfi_offset 4, -8
 530              		.cfi_offset 14, -4
  79:cc85xx.c      **** }
 531              		.loc 1 79 0
 532 0002 0120     		movs	r0, #1
 533 0004 FFF7FEFF 		bl	cc85xx_reset
 534              	.LVL73:
  80:cc85xx.c      **** 
 535              		.loc 1 80 0
 536              		@ sp needed
 537 0008 10BD     		pop	{r4, pc}
 538              		.cfi_endproc
 539              	.LFE5:
 540              		.size	cc85xx_boot_reset, .-cc85xx_boot_reset
 541              		.section	.text.cc85xx_get_status,"ax",%progbits
 542              		.align	2
 543              		.global	cc85xx_get_status
 544              		.code	16
 545              		.thumb_func
 546              		.type	cc85xx_get_status, %function
 547              	cc85xx_get_status:
 548              	.LFB6:
  83:cc85xx.c      ****   uint16_t sw = 0;
 549              		.loc 1 83 0
 550              		.cfi_startproc
 551              		@ args = 0, pretend = 0, frame = 8
 552              		@ frame_needed = 0, uses_anonymous_args = 0
 553 0000 10B5     		push	{r4, lr}
 554              		.cfi_def_cfa_offset 8
 555              		.cfi_offset 4, -8
 556              		.cfi_offset 14, -4
 557 0002 82B0     		sub	sp, sp, #8
 558              		.cfi_def_cfa_offset 16
 559              	.LVL74:
  85:cc85xx.c      **** 
 560              		.loc 1 85 0
 561 0004 01A8     		add	r0, sp, #4
 562 0006 8023     		movs	r3, #128
 563 0008 0370     		strb	r3, [r0]
 564 000a 0023     		movs	r3, #0
 565 000c 4370     		strb	r3, [r0, #1]
  87:cc85xx.c      ****   
 566              		.loc 1 87 0
 567 000e 0221     		movs	r1, #2
 568 0010 FFF7FEFF 		bl	SPI_SpiUartPutArray
 569              	.LVL75:
 570              	.L35:
  92:cc85xx.c      ****   {
ARM GAS  C:\Users\TERENC~1\AppData\Local\Temp\cc7H4W3g.s 			page 15


 571              		.loc 1 92 0 discriminator 1
 572 0014 FFF7FEFF 		bl	SPI_SpiUartGetRxBufferSize
 573              	.LVL76:
 574 0018 0228     		cmp	r0, #2
 575 001a FBD1     		bne	.L35
 576 001c 0024     		movs	r4, #0
 577 001e 06E0     		b	.L36
 578              	.LVL77:
 579              	.L37:
  98:cc85xx.c      ****     sw |= (SPI_SpiUartReadRxData() & 0xFF);
 580              		.loc 1 98 0
 581 0020 2402     		lsls	r4, r4, #8
 582              	.LVL78:
 583 0022 A4B2     		uxth	r4, r4
 584              	.LVL79:
  99:cc85xx.c      ****   }
 585              		.loc 1 99 0
 586 0024 FFF7FEFF 		bl	SPI_SpiUartReadRxData
 587              	.LVL80:
 588 0028 FF23     		movs	r3, #255
 589 002a 1840     		ands	r0, r3
 590 002c 0443     		orrs	r4, r0
 591              	.LVL81:
 592              	.L36:
  96:cc85xx.c      ****   {
 593              		.loc 1 96 0
 594 002e FFF7FEFF 		bl	SPI_SpiUartGetRxBufferSize
 595              	.LVL82:
 596 0032 0028     		cmp	r0, #0
 597 0034 F4D1     		bne	.L37
 103:cc85xx.c      ****   
 598              		.loc 1 103 0
 599 0036 FFF7FEFF 		bl	SPI_SpiUartClearRxBuffer
 600              	.LVL83:
 106:cc85xx.c      **** 
 601              		.loc 1 106 0
 602 003a 2000     		movs	r0, r4
 603 003c 02B0     		add	sp, sp, #8
 604              		@ sp needed
 605              	.LVL84:
 606 003e 10BD     		pop	{r4, pc}
 607              		.cfi_endproc
 608              	.LFE6:
 609              		.size	cc85xx_get_status, .-cc85xx_get_status
 610              		.section	.text.cc85xx_bl_unlock_spi,"ax",%progbits
 611              		.align	2
 612              		.global	cc85xx_bl_unlock_spi
 613              		.code	16
 614              		.thumb_func
 615              		.type	cc85xx_bl_unlock_spi, %function
 616              	cc85xx_bl_unlock_spi:
 617              	.LFB10:
 194:cc85xx.c      **** 
 195:cc85xx.c      **** bool cc85xx_bl_unlock_spi(void)
 196:cc85xx.c      **** {
 618              		.loc 1 196 0
 619              		.cfi_startproc
ARM GAS  C:\Users\TERENC~1\AppData\Local\Temp\cc7H4W3g.s 			page 16


 620              		@ args = 0, pretend = 0, frame = 8
 621              		@ frame_needed = 0, uses_anonymous_args = 0
 622 0000 30B5     		push	{r4, r5, lr}
 623              		.cfi_def_cfa_offset 12
 624              		.cfi_offset 4, -12
 625              		.cfi_offset 5, -8
 626              		.cfi_offset 14, -4
 627 0002 85B0     		sub	sp, sp, #20
 628              		.cfi_def_cfa_offset 32
 629              	.LVL85:
 197:cc85xx.c      ****   bool ret = false;
 198:cc85xx.c      ****   uint32_t key = CC85XX_BOOTLOADER_KEY;
 630              		.loc 1 198 0
 631 0004 174B     		ldr	r3, .L44
 632 0006 0393     		str	r3, [sp, #12]
 199:cc85xx.c      ****   uint16_t sw = 0xCCCC;
 633              		.loc 1 199 0
 634 0008 0A23     		movs	r3, #10
 635 000a 6B44     		add	r3, r3, sp
 636 000c 164A     		ldr	r2, .L44+4
 637 000e 1A80     		strh	r2, [r3]
 200:cc85xx.c      **** 
 201:cc85xx.c      ****   ret = cc85xx_cmd_req(CC85XX_CMD_TYPE_BL_UNLOCK_SPI, sizeof(key), (uint8_t *)&key, &sw);
 638              		.loc 1 201 0
 639 0010 03AA     		add	r2, sp, #12
 640 0012 0421     		movs	r1, #4
 641 0014 0020     		movs	r0, #0
 642 0016 FFF7FEFF 		bl	cc85xx_cmd_req
 643              	.LVL86:
 644 001a 041E     		subs	r4, r0, #0
 645              	.LVL87:
 202:cc85xx.c      ****   
 203:cc85xx.c      ****   if (!ret || (sw != CC85XX_SW_BL_UNLOCK_SPI_SUCCESS))
 646              		.loc 1 203 0
 647 001c 05D0     		beq	.L39
 648              		.loc 1 203 0 is_stmt 0 discriminator 1
 649 001e 0A23     		movs	r3, #10
 650 0020 6B44     		add	r3, r3, sp
 651 0022 1A88     		ldrh	r2, [r3]
 652 0024 114B     		ldr	r3, .L44+8
 653 0026 9A42     		cmp	r2, r3
 654 0028 17D0     		beq	.L42
 655              	.L39:
 204:cc85xx.c      ****   {
 205:cc85xx.c      ****     PRINTF("ERROR: %s: ret=%d, status=0x%04X\n", __FUNCTION__, ret, sw);
 656              		.loc 1 205 0 is_stmt 1
 657 002a FFF7FEFF 		bl	USBUART_GetConfiguration
 658              	.LVL88:
 659 002e 0028     		cmp	r0, #0
 660 0030 15D0     		beq	.L43
 661              	.L41:
 662              		.loc 1 205 0 is_stmt 0 discriminator 1
 663 0032 FFF7FEFF 		bl	USBUART_CDCIsReady
 664              	.LVL89:
 665 0036 0028     		cmp	r0, #0
 666 0038 FBD0     		beq	.L41
 667              		.loc 1 205 0 discriminator 2
ARM GAS  C:\Users\TERENC~1\AppData\Local\Temp\cc7H4W3g.s 			page 17


 668 003a 0D4D     		ldr	r5, .L44+12
 669 003c 0A23     		movs	r3, #10
 670 003e 6B44     		add	r3, r3, sp
 671 0040 1B88     		ldrh	r3, [r3]
 672 0042 0093     		str	r3, [sp]
 673 0044 2300     		movs	r3, r4
 674 0046 0B4A     		ldr	r2, .L44+16
 675 0048 0B49     		ldr	r1, .L44+20
 676 004a 2800     		movs	r0, r5
 677 004c FFF7FEFF 		bl	sprintf
 678              	.LVL90:
 679 0050 2800     		movs	r0, r5
 680 0052 FFF7FEFF 		bl	USBUART_PutString
 681              	.LVL91:
 206:cc85xx.c      ****     return false;
 682              		.loc 1 206 0 is_stmt 1 discriminator 2
 683 0056 0020     		movs	r0, #0
 684 0058 02E0     		b	.L40
 685              	.LVL92:
 686              	.L42:
 207:cc85xx.c      ****   }
 208:cc85xx.c      ****   
 209:cc85xx.c      ****   return true;
 687              		.loc 1 209 0
 688 005a 0120     		movs	r0, #1
 689              	.LVL93:
 690 005c 00E0     		b	.L40
 691              	.L43:
 206:cc85xx.c      ****     return false;
 692              		.loc 1 206 0
 693 005e 0020     		movs	r0, #0
 694              	.L40:
 210:cc85xx.c      **** }
 695              		.loc 1 210 0
 696 0060 05B0     		add	sp, sp, #20
 697              		@ sp needed
 698 0062 30BD     		pop	{r4, r5, pc}
 699              	.L45:
 700              		.align	2
 701              	.L44:
 702 0064 07B00525 		.word	621129735
 703 0068 CCCCFFFF 		.word	-13108
 704 006c 20800000 		.word	32800
 705 0070 00000000 		.word	gbuf
 706 0074 00000000 		.word	.LANCHOR0
 707 0078 44000000 		.word	.LC6
 708              		.cfi_endproc
 709              	.LFE10:
 710              		.size	cc85xx_bl_unlock_spi, .-cc85xx_bl_unlock_spi
 711              		.section	.text.cc85xx_print_info,"ax",%progbits
 712              		.align	2
 713              		.global	cc85xx_print_info
 714              		.code	16
 715              		.thumb_func
 716              		.type	cc85xx_print_info, %function
 717              	cc85xx_print_info:
 718              	.LFB11:
ARM GAS  C:\Users\TERENC~1\AppData\Local\Temp\cc7H4W3g.s 			page 18


 211:cc85xx.c      **** 
 212:cc85xx.c      **** bool cc85xx_print_info(void)
 213:cc85xx.c      **** {
 719              		.loc 1 213 0
 720              		.cfi_startproc
 721              		@ args = 0, pretend = 0, frame = 32
 722              		@ frame_needed = 0, uses_anonymous_args = 0
 723 0000 70B5     		push	{r4, r5, r6, lr}
 724              		.cfi_def_cfa_offset 16
 725              		.cfi_offset 4, -16
 726              		.cfi_offset 5, -12
 727              		.cfi_offset 6, -8
 728              		.cfi_offset 14, -4
 729 0002 88B0     		sub	sp, sp, #32
 730              		.cfi_def_cfa_offset 48
 214:cc85xx.c      ****   uint32_t i;
 215:cc85xx.c      ****   uint8_t rsp[24];
 216:cc85xx.c      ****   const uint16_t rsvd = 0x00B0;
 731              		.loc 1 216 0
 732 0004 6B46     		mov	r3, sp
 733 0006 9A1D     		adds	r2, r3, #6
 734 0008 B023     		movs	r3, #176
 735 000a 1380     		strh	r3, [r2]
 217:cc85xx.c      ****   uint16_t sw = 0;
 736              		.loc 1 217 0
 737 000c 01AB     		add	r3, sp, #4
 738 000e 0021     		movs	r1, #0
 739 0010 1980     		strh	r1, [r3]
 740              	.LVL94:
 218:cc85xx.c      ****   bool ret = false;
 219:cc85xx.c      ****   
 220:cc85xx.c      ****   ret = cc85xx_cmd_req(CC85XX_CMD_TYPE_DI_GET_CHIP_INFO, sizeof(rsvd), (uint8_t *)&rsvd, &sw);
 741              		.loc 1 220 0
 742 0012 0231     		adds	r1, r1, #2
 743 0014 1F20     		movs	r0, #31
 744 0016 FFF7FEFF 		bl	cc85xx_cmd_req
 745              	.LVL95:
 746 001a 051E     		subs	r5, r0, #0
 747              	.LVL96:
 221:cc85xx.c      ****   if (!ret)
 748              		.loc 1 221 0
 749 001c 14D1     		bne	.L47
 222:cc85xx.c      ****   {
 223:cc85xx.c      ****     PRINTF("ERROR: CMD_REQ 0x%02X failed: sw=0x%04X\n", CC85XX_CMD_TYPE_DI_GET_CHIP_INFO, sw);
 750              		.loc 1 223 0
 751 001e FFF7FEFF 		bl	USBUART_GetConfiguration
 752              	.LVL97:
 753 0022 0028     		cmp	r0, #0
 754 0024 45D0     		beq	.L55
 755              	.L49:
 756              		.loc 1 223 0 is_stmt 0 discriminator 1
 757 0026 FFF7FEFF 		bl	USBUART_CDCIsReady
 758              	.LVL98:
 759 002a 0028     		cmp	r0, #0
 760 002c FBD0     		beq	.L49
 761              		.loc 1 223 0 discriminator 2
 762 002e 01AB     		add	r3, sp, #4
ARM GAS  C:\Users\TERENC~1\AppData\Local\Temp\cc7H4W3g.s 			page 19


 763 0030 1B88     		ldrh	r3, [r3]
 764 0032 224C     		ldr	r4, .L58
 765 0034 1F22     		movs	r2, #31
 766 0036 2249     		ldr	r1, .L58+4
 767 0038 2000     		movs	r0, r4
 768 003a FFF7FEFF 		bl	sprintf
 769              	.LVL99:
 770 003e 2000     		movs	r0, r4
 771 0040 FFF7FEFF 		bl	USBUART_PutString
 772              	.LVL100:
 224:cc85xx.c      ****     return ret;
 773              		.loc 1 224 0 is_stmt 1 discriminator 2
 774 0044 2800     		movs	r0, r5
 775 0046 37E0     		b	.L48
 776              	.LVL101:
 777              	.L47:
 225:cc85xx.c      ****   }
 226:cc85xx.c      **** 
 227:cc85xx.c      ****   ret = cc85xx_read(24, &sw, rsp);
 778              		.loc 1 227 0
 779 0048 02AA     		add	r2, sp, #8
 780 004a 01A9     		add	r1, sp, #4
 781 004c 1820     		movs	r0, #24
 782              	.LVL102:
 783 004e FFF7FEFF 		bl	cc85xx_read
 784              	.LVL103:
 785 0052 051E     		subs	r5, r0, #0
 786              	.LVL104:
 228:cc85xx.c      ****   if (!ret)
 787              		.loc 1 228 0
 788 0054 28D1     		bne	.L56
 229:cc85xx.c      ****   {
 230:cc85xx.c      ****     PRINTF("ERROR: READ failed: sw=0x%04X\n", sw);
 789              		.loc 1 230 0
 790 0056 FFF7FEFF 		bl	USBUART_GetConfiguration
 791              	.LVL105:
 792 005a 0028     		cmp	r0, #0
 793 005c 2BD0     		beq	.L57
 794              	.L51:
 795              		.loc 1 230 0 is_stmt 0 discriminator 1
 796 005e FFF7FEFF 		bl	USBUART_CDCIsReady
 797              	.LVL106:
 798 0062 0028     		cmp	r0, #0
 799 0064 FBD0     		beq	.L51
 800              		.loc 1 230 0 discriminator 2
 801 0066 01AB     		add	r3, sp, #4
 802 0068 1A88     		ldrh	r2, [r3]
 803 006a 144C     		ldr	r4, .L58
 804 006c 1549     		ldr	r1, .L58+8
 805 006e 2000     		movs	r0, r4
 806 0070 FFF7FEFF 		bl	sprintf
 807              	.LVL107:
 808 0074 2000     		movs	r0, r4
 809 0076 FFF7FEFF 		bl	USBUART_PutString
 810              	.LVL108:
 231:cc85xx.c      ****     return ret;
 811              		.loc 1 231 0 is_stmt 1 discriminator 2
ARM GAS  C:\Users\TERENC~1\AppData\Local\Temp\cc7H4W3g.s 			page 20


 812 007a 2800     		movs	r0, r5
 813 007c 1CE0     		b	.L48
 814              	.LVL109:
 815              	.L54:
 232:cc85xx.c      ****   }
 233:cc85xx.c      ****   
 234:cc85xx.c      ****   for (i = 0; i < 24; i++)
 235:cc85xx.c      ****   {
 236:cc85xx.c      ****     PRINTF("0x%02X: %02X\n", i, rsp[i]);
 816              		.loc 1 236 0
 817 007e FFF7FEFF 		bl	USBUART_GetConfiguration
 818              	.LVL110:
 819 0082 0028     		cmp	r0, #0
 820 0084 0ED0     		beq	.L52
 821              	.L53:
 822              		.loc 1 236 0 is_stmt 0 discriminator 1
 823 0086 FFF7FEFF 		bl	USBUART_CDCIsReady
 824              	.LVL111:
 825 008a 0028     		cmp	r0, #0
 826 008c FBD0     		beq	.L53
 827              		.loc 1 236 0 discriminator 2
 828 008e 02AB     		add	r3, sp, #8
 829 0090 1B5D     		ldrb	r3, [r3, r4]
 830 0092 0A4E     		ldr	r6, .L58
 831 0094 2200     		movs	r2, r4
 832 0096 0C49     		ldr	r1, .L58+12
 833 0098 3000     		movs	r0, r6
 834 009a FFF7FEFF 		bl	sprintf
 835              	.LVL112:
 836 009e 3000     		movs	r0, r6
 837 00a0 FFF7FEFF 		bl	USBUART_PutString
 838              	.LVL113:
 839              	.L52:
 234:cc85xx.c      ****   {
 840              		.loc 1 234 0 is_stmt 1 discriminator 2
 841 00a4 0134     		adds	r4, r4, #1
 842              	.LVL114:
 843 00a6 00E0     		b	.L50
 844              	.LVL115:
 845              	.L56:
 846 00a8 0024     		movs	r4, #0
 847              	.LVL116:
 848              	.L50:
 234:cc85xx.c      ****   {
 849              		.loc 1 234 0 is_stmt 0 discriminator 1
 850 00aa 172C     		cmp	r4, #23
 851 00ac E7D9     		bls	.L54
 237:cc85xx.c      ****   }
 238:cc85xx.c      **** 
 239:cc85xx.c      ****   return ret;
 852              		.loc 1 239 0 is_stmt 1
 853 00ae 2800     		movs	r0, r5
 854 00b0 02E0     		b	.L48
 855              	.LVL117:
 856              	.L55:
 224:cc85xx.c      ****   }
 857              		.loc 1 224 0
ARM GAS  C:\Users\TERENC~1\AppData\Local\Temp\cc7H4W3g.s 			page 21


 858 00b2 2800     		movs	r0, r5
 859 00b4 00E0     		b	.L48
 860              	.L57:
 231:cc85xx.c      ****   }
 861              		.loc 1 231 0
 862 00b6 2800     		movs	r0, r5
 863              	.L48:
 240:cc85xx.c      **** }
 864              		.loc 1 240 0
 865 00b8 08B0     		add	sp, sp, #32
 866              		@ sp needed
 867 00ba 70BD     		pop	{r4, r5, r6, pc}
 868              	.L59:
 869              		.align	2
 870              	.L58:
 871 00bc 00000000 		.word	gbuf
 872 00c0 68000000 		.word	.LC9
 873 00c4 94000000 		.word	.LC12
 874 00c8 B4000000 		.word	.LC14
 875              		.cfi_endproc
 876              	.LFE11:
 877              		.size	cc85xx_print_info, .-cc85xx_print_info
 878              		.section	.text.cc85xx_init,"ax",%progbits
 879              		.align	2
 880              		.global	cc85xx_init
 881              		.code	16
 882              		.thumb_func
 883              		.type	cc85xx_init, %function
 884              	cc85xx_init:
 885              	.LFB12:
 241:cc85xx.c      **** 
 242:cc85xx.c      **** void cc85xx_init(void)
 243:cc85xx.c      **** {
 886              		.loc 1 243 0
 887              		.cfi_startproc
 888              		@ args = 0, pretend = 0, frame = 0
 889              		@ frame_needed = 0, uses_anonymous_args = 0
 890 0000 10B5     		push	{r4, lr}
 891              		.cfi_def_cfa_offset 8
 892              		.cfi_offset 4, -8
 893              		.cfi_offset 14, -4
 244:cc85xx.c      ****   SPI_Stop();
 894              		.loc 1 244 0
 895 0002 FFF7FEFF 		bl	SPI_Stop
 896              	.LVL118:
 245:cc85xx.c      **** 
 246:cc85xx.c      ****   if (cc85xx_boot_reset() == false)
 897              		.loc 1 246 0
 898 0006 FFF7FEFF 		bl	cc85xx_boot_reset
 899              	.LVL119:
 900 000a 0028     		cmp	r0, #0
 901 000c 11D1     		bne	.L61
 247:cc85xx.c      ****   {
 248:cc85xx.c      ****     PRINTF("Failed to boot cc8520 into bootloader\n");
 902              		.loc 1 248 0
 903 000e FFF7FEFF 		bl	USBUART_GetConfiguration
 904              	.LVL120:
ARM GAS  C:\Users\TERENC~1\AppData\Local\Temp\cc7H4W3g.s 			page 22


 905 0012 0028     		cmp	r0, #0
 906 0014 0FD0     		beq	.L60
 907              	.L63:
 908              		.loc 1 248 0 is_stmt 0 discriminator 1
 909 0016 FFF7FEFF 		bl	USBUART_CDCIsReady
 910              	.LVL121:
 911 001a 0028     		cmp	r0, #0
 912 001c FBD0     		beq	.L63
 913              		.loc 1 248 0 discriminator 2
 914 001e 064C     		ldr	r4, .L64
 915 0020 2722     		movs	r2, #39
 916 0022 0649     		ldr	r1, .L64+4
 917 0024 2000     		movs	r0, r4
 918 0026 FFF7FEFF 		bl	memcpy
 919              	.LVL122:
 920 002a 2000     		movs	r0, r4
 921 002c FFF7FEFF 		bl	USBUART_PutString
 922              	.LVL123:
 923 0030 01E0     		b	.L60
 924              	.L61:
 249:cc85xx.c      ****     return;
 250:cc85xx.c      ****   }
 251:cc85xx.c      **** 
 252:cc85xx.c      ****   SPI_Start();
 925              		.loc 1 252 0 is_stmt 1
 926 0032 FFF7FEFF 		bl	SPI_Start
 927              	.LVL124:
 928              	.L60:
 253:cc85xx.c      **** }
 929              		.loc 1 253 0
 930              		@ sp needed
 931 0036 10BD     		pop	{r4, pc}
 932              	.L65:
 933              		.align	2
 934              	.L64:
 935 0038 00000000 		.word	gbuf
 936 003c C4000000 		.word	.LC17
 937              		.cfi_endproc
 938              	.LFE12:
 939              		.size	cc85xx_init, .-cc85xx_init
 940              		.section	.rodata
 941              		.align	2
 942              		.set	.LANCHOR0,. + 0
 943              		.type	__FUNCTION__.6838, %object
 944              		.size	__FUNCTION__.6838, 21
 945              	__FUNCTION__.6838:
 946 0000 63633835 		.ascii	"cc85xx_bl_unlock_spi\000"
 946      78785F62 
 946      6C5F756E 
 946      6C6F636B 
 946      5F737069 
 947              		.section	.rodata.str1.4,"aMS",%progbits,1
 948              		.align	2
 949              	.LC2:
 950 0000 4552524F 		.ascii	"ERROR: Timed out waiting for previous SPI operation"
 950      523A2054 
 950      696D6564 
ARM GAS  C:\Users\TERENC~1\AppData\Local\Temp\cc7H4W3g.s 			page 23


 950      206F7574 
 950      20776169 
 951 0033 20746F20 		.ascii	" to complete\012\000"
 951      636F6D70 
 951      6C657465 
 951      0A00
 952 0041 000000   		.space	3
 953              	.LC6:
 954 0044 4552524F 		.ascii	"ERROR: %s: ret=%d, status=0x%04X\012\000"
 954      523A2025 
 954      733A2072 
 954      65743D25 
 954      642C2073 
 955 0066 0000     		.space	2
 956              	.LC9:
 957 0068 4552524F 		.ascii	"ERROR: CMD_REQ 0x%02X failed: sw=0x%04X\012\000"
 957      523A2043 
 957      4D445F52 
 957      45512030 
 957      78253032 
 958 0091 000000   		.space	3
 959              	.LC12:
 960 0094 4552524F 		.ascii	"ERROR: READ failed: sw=0x%04X\012\000"
 960      523A2052 
 960      45414420 
 960      6661696C 
 960      65643A20 
 961 00b3 00       		.space	1
 962              	.LC14:
 963 00b4 30782530 		.ascii	"0x%02X: %02X\012\000"
 963      32583A20 
 963      25303258 
 963      0A00
 964 00c2 0000     		.space	2
 965              	.LC17:
 966 00c4 4661696C 		.ascii	"Failed to boot cc8520 into bootloader\012\000"
 966      65642074 
 966      6F20626F 
 966      6F742063 
 966      63383532 
 967              		.text
 968              	.Letext0:
 969              		.file 2 "c:\\program files (x86)\\cypress\\psoc creator\\4.2\\psoc creator\\import\\gnu\\arm\\5.4.
 970              		.file 3 "c:\\program files (x86)\\cypress\\psoc creator\\4.2\\psoc creator\\import\\gnu\\arm\\5.4.
 971              		.file 4 "./cc85xx.h"
 972              		.file 5 "./timers.h"
 973              		.file 6 "./Application.h"
 974              		.file 7 "Generated_Source\\PSoC4/SPI_SPI_UART.h"
 975              		.file 8 "Generated_Source\\PSoC4/SPI_miso_m.h"
 976              		.file 9 "Generated_Source\\PSoC4/USBUART.h"
 977              		.file 10 "Generated_Source\\PSoC4/USBUART_cdc.h"
 978              		.file 11 "c:\\program files (x86)\\cypress\\psoc creator\\4.2\\psoc creator\\import\\gnu\\arm\\5.4
 979              		.file 12 "c:\\program files (x86)\\cypress\\psoc creator\\4.2\\psoc creator\\import\\gnu\\arm\\5.4
 980              		.file 13 "Generated_Source\\PSoC4/RSTn.h"
 981              		.file 14 "Generated_Source\\PSoC4/SPI_ss0_m.h"
 982              		.file 15 "Generated_Source\\PSoC4/SPI_mosi_m.h"
 983              		.file 16 "Generated_Source\\PSoC4/CyLib.h"
ARM GAS  C:\Users\TERENC~1\AppData\Local\Temp\cc7H4W3g.s 			page 24


 984              		.file 17 "c:\\program files (x86)\\cypress\\psoc creator\\4.2\\psoc creator\\import\\gnu\\arm\\5.4
 985              		.file 18 "Generated_Source\\PSoC4/SPI.h"