ARM GAS  C:\Users\TERENC~1\AppData\Local\Temp\cc6g1pjk.s 			page 1


   1              		.syntax unified
   2              		.cpu cortex-m0
   3              		.fpu softvfp
   4              		.eabi_attribute 20, 1
   5              		.eabi_attribute 21, 1
   6              		.eabi_attribute 23, 3
   7              		.eabi_attribute 24, 1
   8              		.eabi_attribute 25, 1
   9              		.eabi_attribute 26, 1
  10              		.eabi_attribute 30, 1
  11              		.eabi_attribute 34, 0
  12              		.eabi_attribute 18, 4
  13              		.thumb
  14              		.syntax unified
  15              		.file	"Codec.c"
  16              		.text
  17              	.Ltext0:
  18              		.cfi_sections	.debug_frame
  19              		.section	.text.Codec_SendData,"ax",%progbits
  20              		.align	2
  21              		.global	Codec_SendData
  22              		.code	16
  23              		.thumb_func
  24              		.type	Codec_SendData, %function
  25              	Codec_SendData:
  26              	.LFB3:
  27              		.file 1 "Codec.c"
   1:Codec.c       **** /*******************************************************************************
   2:Codec.c       **** * File Name: Codec.c
   3:Codec.c       **** *
   4:Codec.c       **** * Version 1.0
   5:Codec.c       **** *
   6:Codec.c       **** *  Description: This file contains the codec control APIs
   7:Codec.c       **** *
   8:Codec.c       **** *******************************************************************************
   9:Codec.c       **** * Copyright (2018), Cypress Semiconductor Corporation. All rights reserved.
  10:Codec.c       **** *******************************************************************************
  11:Codec.c       **** * This software, including source code, documentation and related materials
  12:Codec.c       **** * (“Software”), is owned by Cypress Semiconductor Corporation or one of its
  13:Codec.c       **** * subsidiaries (“Cypress”) and is protected by and subject to worldwide patent
  14:Codec.c       **** * protection (United States and foreign), United States copyright laws and
  15:Codec.c       **** * international treaty provisions. Therefore, you may use this Software only
  16:Codec.c       **** * as provided in the license agreement accompanying the software package from
  17:Codec.c       **** * which you obtained this Software (“EULA”).
  18:Codec.c       **** *
  19:Codec.c       **** * If no EULA applies, Cypress hereby grants you a personal, nonexclusive,
  20:Codec.c       **** * non-transferable license to copy, modify, and compile the Software source
  21:Codec.c       **** * code solely for use in connection with Cypress’s integrated circuit products.
  22:Codec.c       **** * Any reproduction, modification, translation, compilation, or representation
  23:Codec.c       **** * of this Software except as specified above is prohibited without the express
  24:Codec.c       **** * written permission of Cypress.
  25:Codec.c       **** *
  26:Codec.c       **** * Disclaimer: THIS SOFTWARE IS PROVIDED AS-IS, WITH NO WARRANTY OF ANY KIND, 
  27:Codec.c       **** * EXPRESS OR IMPLIED, INCLUDING, BUT NOT LIMITED TO, NONINFRINGEMENT, IMPLIED 
  28:Codec.c       **** * WARRANTIES OF MERCHANTABILITY AND FITNESS FOR A PARTICULAR PURPOSE. Cypress 
  29:Codec.c       **** * reserves the right to make changes to the Software without notice. Cypress 
  30:Codec.c       **** * does not assume any liability arising out of the application or use of the 
ARM GAS  C:\Users\TERENC~1\AppData\Local\Temp\cc6g1pjk.s 			page 2


  31:Codec.c       **** * Software or any product or circuit described in the Software. Cypress does 
  32:Codec.c       **** * not authorize its products for use in any products where a malfunction or 
  33:Codec.c       **** * failure of the Cypress product may reasonably be expected to result in 
  34:Codec.c       **** * significant property damage, injury or death (“High Risk Product”). By 
  35:Codec.c       **** * including Cypress’s product in a High Risk Product, the manufacturer of such 
  36:Codec.c       **** * system or application assumes all risk of such use and in doing so agrees to 
  37:Codec.c       **** * indemnify Cypress against all liability.
  38:Codec.c       **** *******************************************************************************/
  39:Codec.c       **** 
  40:Codec.c       **** #include "Codec.h"
  41:Codec.c       **** #include "cytypes.h"
  42:Codec.c       **** #include "CodecI2CM_I2C.h"
  43:Codec.c       **** #include "stdbool.h"
  44:Codec.c       **** #include "Application.h"
  45:Codec.c       **** 
  46:Codec.c       **** #define I2C_WRITE_OPERATION		(0x00)
  47:Codec.c       **** #define I2C_TIMEOUT_MS          (0x64)
  48:Codec.c       **** 
  49:Codec.c       **** typedef struct
  50:Codec.c       **** {
  51:Codec.c       ****     uint8_t volume;
  52:Codec.c       ****     uint8_t mute;
  53:Codec.c       ****     uint16_t reg[16];
  54:Codec.c       **** } codec_data_s;
  55:Codec.c       **** 
  56:Codec.c       **** static codec_data_s codec_data;
  57:Codec.c       **** 
  58:Codec.c       **** static uint16 Codec_analogPathSetting = CODEC_DEF_ANALOG_CTRL;
  59:Codec.c       **** uint32 Codec_powerControlSetting = CODEC_DEF_POWER_CTRL;
  60:Codec.c       **** 
  61:Codec.c       **** /*******************************************************************************
  62:Codec.c       **** * Function Name: Codec_Init
  63:Codec.c       **** ********************************************************************************
  64:Codec.c       **** * Summary:
  65:Codec.c       **** *   Initializes the codec with default settings.
  66:Codec.c       **** *
  67:Codec.c       **** *
  68:Codec.c       **** * Parameters:  
  69:Codec.c       **** *	None
  70:Codec.c       **** *
  71:Codec.c       **** * Return:
  72:Codec.c       **** *   uint8 - I2C master transaction error status
  73:Codec.c       **** *				CodecI2CM_I2C_MSTR_NO_ERROR - Function complete without error                       
  74:Codec.c       **** *				CodecI2CM_I2C_MSTR_ERR_ARB_LOST - Master lost arbitration: INTR_MASTER_I2C_ARB_LOST    
  75:Codec.c       **** *				CodecI2CM_I2C_MSTR_ERR_LB_NAK - Last Byte NACKed: INTR_MASTER_I2C_NACK               
  76:Codec.c       **** *				CodecI2CM_I2C_MSTR_NOT_READY - Master on the bus or Slave operation is in progress  
  77:Codec.c       **** *				CodecI2CM_I2C_MSTR_BUS_BUSY - Bus is busy, process not started
  78:Codec.c       **** *				CodecI2CM_I2C_MSTR_ERR_ABORT_START - Slave was addressed before master begin Start
  79:Codec.c       **** *				CodecI2CM_I2C_MSTR_ERR_BUS_ERR - Bus error has: INTR_MASTER_I2C_BUS_ERROR 
  80:Codec.c       **** *
  81:Codec.c       **** *******************************************************************************/
  82:Codec.c       **** uint8 Codec_Init(void)
  83:Codec.c       **** {
  84:Codec.c       **** 	uint8 ret;
  85:Codec.c       **** 	
  86:Codec.c       **** 	ret = Codec_ResetOverI2C();
  87:Codec.c       **** 	CyDelay(CODEC_RESET_WAIT_DELAY);
ARM GAS  C:\Users\TERENC~1\AppData\Local\Temp\cc6g1pjk.s 			page 3


  88:Codec.c       **** 	
  89:Codec.c       **** 	ret = Codec_AdjustBothHeadphoneVolume(CODEC_HP_DEFAULT_VOLUME);
  90:Codec.c       **** 	ret = Codec_SendData(CODEC_REG_ANALOG_CTRL, CODEC_DEF_ANALOG_CTRL);
  91:Codec.c       **** 	ret = Codec_SendData(CODEC_REG_DIGITAL_CTRL, CODEC_DEF_DIGITAL_CTRL);
  92:Codec.c       **** 	ret = Codec_SendData(CODEC_REG_POWER_CTRL, CODEC_DEF_POWER_CTRL);
  93:Codec.c       **** 	ret = Codec_SetSamplingRate(CODEC_DEF_SAMPLING_RATE);
  94:Codec.c       **** 	
  95:Codec.c       **** 	return ret;  
  96:Codec.c       **** }
  97:Codec.c       **** 
  98:Codec.c       **** /*******************************************************************************
  99:Codec.c       **** * Function Name: Codec_SendData
 100:Codec.c       **** ********************************************************************************
 101:Codec.c       **** * Summary:
 102:Codec.c       **** *   Low level API to send data to codec over I2C.
 103:Codec.c       **** *
 104:Codec.c       **** *
 105:Codec.c       **** * Parameters:  
 106:Codec.c       **** *	regAddr - Address of the codec register to be updated
 107:Codec.c       **** *	data - 16-bit data to be updated in the register
 108:Codec.c       **** *
 109:Codec.c       **** * Return:
 110:Codec.c       **** *   uint8 - I2C master transaction error status
 111:Codec.c       **** *				CodecI2CM_I2C_MSTR_NO_ERROR - Function complete without error                       
 112:Codec.c       **** *				CodecI2CM_I2C_MSTR_ERR_ARB_LOST - Master lost arbitration: INTR_MASTER_I2C_ARB_LOST    
 113:Codec.c       **** *				CodecI2CM_I2C_MSTR_ERR_LB_NAK - Last Byte NACKed: INTR_MASTER_I2C_NACK               
 114:Codec.c       **** *				CodecI2CM_I2C_MSTR_NOT_READY - Master on the bus or Slave operation is in progress  
 115:Codec.c       **** *				CodecI2CM_I2C_MSTR_BUS_BUSY - Bus is busy, process not started
 116:Codec.c       **** *				CodecI2CM_I2C_MSTR_ERR_ABORT_START - Slave was addressed before master begin Start
 117:Codec.c       **** *				CodecI2CM_I2C_MSTR_ERR_BUS_ERR - Bus error has: INTR_MASTER_I2C_BUS_ERROR 
 118:Codec.c       **** *
 119:Codec.c       **** *******************************************************************************/
 120:Codec.c       **** uint8 Codec_SendData(uint8 regAddr, uint16 data)
 121:Codec.c       **** {
  28              		.loc 1 121 0
  29              		.cfi_startproc
  30              		@ args = 0, pretend = 0, frame = 0
  31              		@ frame_needed = 0, uses_anonymous_args = 0
  32              	.LVL0:
  33 0000 70B5     		push	{r4, r5, r6, lr}
  34              		.cfi_def_cfa_offset 16
  35              		.cfi_offset 4, -16
  36              		.cfi_offset 5, -12
  37              		.cfi_offset 6, -8
  38              		.cfi_offset 14, -4
  39 0002 0400     		movs	r4, r0
  40 0004 0D00     		movs	r5, r1
 122:Codec.c       **** 	uint8 temp;
 123:Codec.c       **** 	
 124:Codec.c       **** 	temp = CodecI2CM_I2CMasterSendStart(CODEC_I2C_ADDR, I2C_WRITE_OPERATION, I2C_TIMEOUT_MS); 
  41              		.loc 1 124 0
  42 0006 6422     		movs	r2, #100
  43 0008 0021     		movs	r1, #0
  44              	.LVL1:
  45 000a 1A20     		movs	r0, #26
  46              	.LVL2:
  47 000c FFF7FEFF 		bl	CodecI2CM_I2CMasterSendStart
ARM GAS  C:\Users\TERENC~1\AppData\Local\Temp\cc6g1pjk.s 			page 4


  48              	.LVL3:
  49 0010 C0B2     		uxtb	r0, r0
  50              	.LVL4:
 125:Codec.c       **** 	if(temp == CodecI2CM_I2C_MSTR_NO_ERROR)
  51              		.loc 1 125 0
  52 0012 0028     		cmp	r0, #0
  53 0014 16D1     		bne	.L2
 126:Codec.c       **** 	{
 127:Codec.c       **** 		temp = CodecI2CM_I2CMasterWriteByte(((regAddr << 0x01) | (HI8(data) & 0x01)), I2C_TIMEOUT_MS);
  54              		.loc 1 127 0
  55 0016 6200     		lsls	r2, r4, #1
  56 0018 2B0A     		lsrs	r3, r5, #8
  57 001a 0130     		adds	r0, r0, #1
  58              	.LVL5:
  59 001c 0340     		ands	r3, r0
  60 001e 1000     		movs	r0, r2
  61              	.LVL6:
  62 0020 1843     		orrs	r0, r3
  63 0022 6421     		movs	r1, #100
  64 0024 FFF7FEFF 		bl	CodecI2CM_I2CMasterWriteByte
  65              	.LVL7:
  66 0028 C0B2     		uxtb	r0, r0
  67              	.LVL8:
 128:Codec.c       **** 		
 129:Codec.c       **** 		if(temp == CodecI2CM_I2C_MSTR_NO_ERROR)
  68              		.loc 1 129 0
  69 002a 0028     		cmp	r0, #0
  70 002c 0AD1     		bne	.L2
 130:Codec.c       **** 		{
 131:Codec.c       **** 			temp = CodecI2CM_I2CMasterWriteByte(LO8(data), I2C_TIMEOUT_MS);
  71              		.loc 1 131 0
  72 002e E8B2     		uxtb	r0, r5
  73              	.LVL9:
  74 0030 6421     		movs	r1, #100
  75 0032 FFF7FEFF 		bl	CodecI2CM_I2CMasterWriteByte
  76              	.LVL10:
  77 0036 C0B2     		uxtb	r0, r0
  78              	.LVL11:
 132:Codec.c       **** 			
 133:Codec.c       **** 			if(temp == CodecI2CM_I2C_MSTR_NO_ERROR)
  79              		.loc 1 133 0
  80 0038 0028     		cmp	r0, #0
  81 003a 03D1     		bne	.L2
 134:Codec.c       **** 			{
 135:Codec.c       **** 				temp = CodecI2CM_I2CMasterSendStop(I2C_TIMEOUT_MS);
  82              		.loc 1 135 0
  83 003c 6430     		adds	r0, r0, #100
  84              	.LVL12:
  85 003e FFF7FEFF 		bl	CodecI2CM_I2CMasterSendStop
  86              	.LVL13:
  87 0042 C0B2     		uxtb	r0, r0
  88              	.LVL14:
  89              	.L2:
 136:Codec.c       **** 			}
 137:Codec.c       **** 		}
 138:Codec.c       **** 	}
 139:Codec.c       ****     
ARM GAS  C:\Users\TERENC~1\AppData\Local\Temp\cc6g1pjk.s 			page 5


 140:Codec.c       ****     if (temp == CodecI2CM_I2C_MSTR_NO_ERROR)
  90              		.loc 1 140 0
  91 0044 0028     		cmp	r0, #0
  92 0046 03D1     		bne	.L3
 141:Codec.c       ****     {
 142:Codec.c       ****         codec_data.reg[regAddr] = data;
  93              		.loc 1 142 0
  94 0048 6400     		lsls	r4, r4, #1
  95 004a 024B     		ldr	r3, .L4
  96 004c 1C19     		adds	r4, r3, r4
  97 004e 6580     		strh	r5, [r4, #2]
  98              	.L3:
 143:Codec.c       ****     }
 144:Codec.c       **** 
 145:Codec.c       **** 	return temp;
 146:Codec.c       **** }
  99              		.loc 1 146 0
 100              		@ sp needed
 101 0050 70BD     		pop	{r4, r5, r6, pc}
 102              	.L5:
 103 0052 C046     		.align	2
 104              	.L4:
 105 0054 00000000 		.word	.LANCHOR0
 106              		.cfi_endproc
 107              	.LFE3:
 108              		.size	Codec_SendData, .-Codec_SendData
 109              		.section	.text.Codec_GetData,"ax",%progbits
 110              		.align	2
 111              		.global	Codec_GetData
 112              		.code	16
 113              		.thumb_func
 114              		.type	Codec_GetData, %function
 115              	Codec_GetData:
 116              	.LFB4:
 147:Codec.c       **** 
 148:Codec.c       **** uint16 Codec_GetData(uint8 regAddr)
 149:Codec.c       **** {
 117              		.loc 1 149 0
 118              		.cfi_startproc
 119              		@ args = 0, pretend = 0, frame = 0
 120              		@ frame_needed = 0, uses_anonymous_args = 0
 121              		@ link register save eliminated.
 122              	.LVL15:
 150:Codec.c       ****     return codec_data.reg[regAddr];
 123              		.loc 1 150 0
 124 0000 4000     		lsls	r0, r0, #1
 125              	.LVL16:
 126 0002 024B     		ldr	r3, .L7
 127 0004 1818     		adds	r0, r3, r0
 128 0006 4088     		ldrh	r0, [r0, #2]
 151:Codec.c       **** }
 129              		.loc 1 151 0
 130              		@ sp needed
 131 0008 7047     		bx	lr
 132              	.L8:
 133 000a C046     		.align	2
 134              	.L7:
ARM GAS  C:\Users\TERENC~1\AppData\Local\Temp\cc6g1pjk.s 			page 6


 135 000c 00000000 		.word	.LANCHOR0
 136              		.cfi_endproc
 137              	.LFE4:
 138              		.size	Codec_GetData, .-Codec_GetData
 139              		.section	.text.Codec_SetSamplingRate,"ax",%progbits
 140              		.align	2
 141              		.global	Codec_SetSamplingRate
 142              		.code	16
 143              		.thumb_func
 144              		.type	Codec_SetSamplingRate, %function
 145              	Codec_SetSamplingRate:
 146              	.LFB5:
 152:Codec.c       **** 
 153:Codec.c       **** /*******************************************************************************
 154:Codec.c       **** * Function Name: Codec_SetSamplingRate
 155:Codec.c       **** ********************************************************************************
 156:Codec.c       **** * Summary:
 157:Codec.c       **** *   This function sets the sampling rate of the codec. Note that the codec must be deactivated 
 158:Codec.c       **** *	before configuring the sample rate.
 159:Codec.c       **** *
 160:Codec.c       **** *
 161:Codec.c       **** * Parameters:  
 162:Codec.c       **** *	srCtrlField - Sampling control register settings 
 163:Codec.c       **** *					
 164:Codec.c       **** *
 165:Codec.c       **** * Return:
 166:Codec.c       **** *   uint8 - I2C master transaction error status
 167:Codec.c       **** *				CodecI2CM_I2C_MSTR_NO_ERROR - Function complete without error                       
 168:Codec.c       **** *				CodecI2CM_I2C_MSTR_ERR_ARB_LOST - Master lost arbitration: INTR_MASTER_I2C_ARB_LOST    
 169:Codec.c       **** *				CodecI2CM_I2C_MSTR_ERR_LB_NAK - Last Byte NACKed: INTR_MASTER_I2C_NACK               
 170:Codec.c       **** *				CodecI2CM_I2C_MSTR_NOT_READY - Master on the bus or Slave operation is in progress  
 171:Codec.c       **** *				CodecI2CM_I2C_MSTR_BUS_BUSY - Bus is busy, process not started
 172:Codec.c       **** *				CodecI2CM_I2C_MSTR_ERR_ABORT_START - Slave was addressed before master begin Start
 173:Codec.c       **** *				CodecI2CM_I2C_MSTR_ERR_BUS_ERR - Bus error has: INTR_MASTER_I2C_BUS_ERROR 
 174:Codec.c       **** *
 175:Codec.c       **** *******************************************************************************/
 176:Codec.c       **** uint8 Codec_SetSamplingRate(uint8 srCtrlField)
 177:Codec.c       **** {		
 147              		.loc 1 177 0
 148              		.cfi_startproc
 149              		@ args = 0, pretend = 0, frame = 0
 150              		@ frame_needed = 0, uses_anonymous_args = 0
 151              	.LVL17:
 152 0000 10B5     		push	{r4, lr}
 153              		.cfi_def_cfa_offset 8
 154              		.cfi_offset 4, -8
 155              		.cfi_offset 14, -4
 178:Codec.c       **** 	/* This function modifies the BOSR & SR bits of sampling rate control register.
 179:Codec.c       ****      * srCtrlField : bit[0] - BOSR, bit[1:4] - SR.
 180:Codec.c       ****      */
 181:Codec.c       ****     return Codec_SendData(CODEC_REG_SAMPLING_CTRL, srCtrlField);;
 156              		.loc 1 181 0
 157 0002 81B2     		uxth	r1, r0
 158 0004 0820     		movs	r0, #8
 159              	.LVL18:
 160 0006 FFF7FEFF 		bl	Codec_SendData
 161              	.LVL19:
ARM GAS  C:\Users\TERENC~1\AppData\Local\Temp\cc6g1pjk.s 			page 7


 182:Codec.c       **** }
 162              		.loc 1 182 0
 163              		@ sp needed
 164 000a 10BD     		pop	{r4, pc}
 165              		.cfi_endproc
 166              	.LFE5:
 167              		.size	Codec_SetSamplingRate, .-Codec_SetSamplingRate
 168              		.section	.text.Codec_AdjustBothHeadphoneVolume,"ax",%progbits
 169              		.align	2
 170              		.global	Codec_AdjustBothHeadphoneVolume
 171              		.code	16
 172              		.thumb_func
 173              		.type	Codec_AdjustBothHeadphoneVolume, %function
 174              	Codec_AdjustBothHeadphoneVolume:
 175              	.LFB6:
 183:Codec.c       **** 
 184:Codec.c       **** /*******************************************************************************
 185:Codec.c       **** * Function Name: Codec_AdjustBothHeadphoneVolume
 186:Codec.c       **** ********************************************************************************
 187:Codec.c       **** * Summary:
 188:Codec.c       **** *   This function updates the volume of both the left and right channels of the
 189:Codec.c       **** * 	headphone output.
 190:Codec.c       **** *
 191:Codec.c       **** *
 192:Codec.c       **** * Parameters:  
 193:Codec.c       **** *	volume - 0 - Mute
 194:Codec.c       **** *			 1 to CODEC_HP_VOLUME_MAX levels
 195:Codec.c       **** *
 196:Codec.c       **** * Return:
 197:Codec.c       **** *   uint8 - I2C master transaction error status
 198:Codec.c       **** *				CodecI2CM_I2C_MSTR_NO_ERROR - Function complete without error                       
 199:Codec.c       **** *				CodecI2CM_I2C_MSTR_ERR_ARB_LOST - Master lost arbitration: INTR_MASTER_I2C_ARB_LOST    
 200:Codec.c       **** *				CodecI2CM_I2C_MSTR_ERR_LB_NAK - Last Byte NACKed: INTR_MASTER_I2C_NACK               
 201:Codec.c       **** *				CodecI2CM_I2C_MSTR_NOT_READY - Master on the bus or Slave operation is in progress  
 202:Codec.c       **** *				CodecI2CM_I2C_MSTR_BUS_BUSY - Bus is busy, process not started
 203:Codec.c       **** *				CodecI2CM_I2C_MSTR_ERR_ABORT_START - Slave was addressed before master begin Start
 204:Codec.c       **** *				CodecI2CM_I2C_MSTR_ERR_BUS_ERR - Bus error has: INTR_MASTER_I2C_BUS_ERROR 
 205:Codec.c       **** *
 206:Codec.c       **** *******************************************************************************/
 207:Codec.c       **** 
 208:Codec.c       **** uint8 Codec_AdjustBothHeadphoneVolume(uint8 volume)
 209:Codec.c       **** {
 176              		.loc 1 209 0
 177              		.cfi_startproc
 178              		@ args = 0, pretend = 0, frame = 0
 179              		@ frame_needed = 0, uses_anonymous_args = 0
 180              	.LVL20:
 181 0000 30B5     		push	{r4, r5, lr}
 182              		.cfi_def_cfa_offset 12
 183              		.cfi_offset 4, -12
 184              		.cfi_offset 5, -8
 185              		.cfi_offset 14, -4
 186 0002 83B0     		sub	sp, sp, #12
 187              		.cfi_def_cfa_offset 24
 188 0004 0400     		movs	r4, r0
 210:Codec.c       ****     D_PRINTF(DEBUG, "Codec_AdjustBothHeadphoneVolume: %d -> %d, %d\n", codec_data.volume, volume, c
 189              		.loc 1 210 0
ARM GAS  C:\Users\TERENC~1\AppData\Local\Temp\cc6g1pjk.s 			page 8


 190 0006 1B4B     		ldr	r3, .L18
 191 0008 1B68     		ldr	r3, [r3]
 192 000a 002B     		cmp	r3, #0
 193 000c 1FD0     		beq	.L11
 194              		.loc 1 210 0 is_stmt 0 discriminator 1
 195 000e 5B7C     		ldrb	r3, [r3, #17]
 196 0010 9B07     		lsls	r3, r3, #30
 197 0012 1CD0     		beq	.L11
 198              		.loc 1 210 0 discriminator 2
 199 0014 FFF7FEFF 		bl	USBUART_GetConfiguration
 200              	.LVL21:
 201 0018 0028     		cmp	r0, #0
 202 001a 18D0     		beq	.L11
 203              	.LBB2:
 204              		.loc 1 210 0 discriminator 3
 205 001c 164B     		ldr	r3, .L18+4
 206 001e 1D68     		ldr	r5, [r3]
 207              	.LVL22:
 208              	.L13:
 209              		.loc 1 210 0 discriminator 7
 210 0020 FFF7FEFF 		bl	USBUART_CDCIsReady
 211              	.LVL23:
 212 0024 0028     		cmp	r0, #0
 213 0026 05D1     		bne	.L12
 214              		.loc 1 210 0 discriminator 5
 215 0028 134B     		ldr	r3, .L18+4
 216 002a 1B68     		ldr	r3, [r3]
 217 002c 5B1B     		subs	r3, r3, r5
 218 002e 134A     		ldr	r2, .L18+8
 219 0030 9342     		cmp	r3, r2
 220 0032 F5D9     		bls	.L13
 221              	.L12:
 222              		.loc 1 210 0 discriminator 8
 223 0034 124B     		ldr	r3, .L18+12
 224 0036 1A78     		ldrb	r2, [r3]
 225 0038 5B78     		ldrb	r3, [r3, #1]
 226 003a 124D     		ldr	r5, .L18+16
 227              	.LVL24:
 228 003c 0093     		str	r3, [sp]
 229 003e 2300     		movs	r3, r4
 230 0040 1149     		ldr	r1, .L18+20
 231 0042 2800     		movs	r0, r5
 232 0044 FFF7FEFF 		bl	sprintf
 233              	.LVL25:
 234 0048 2800     		movs	r0, r5
 235 004a FFF7FEFF 		bl	USBUART_PutString
 236              	.LVL26:
 237              	.L11:
 238              	.LBE2:
 211:Codec.c       **** 	if(volume > CODEC_HP_VOLUME_MAX)
 239              		.loc 1 211 0 is_stmt 1
 240 004e 4A2C     		cmp	r4, #74
 241 0050 00D9     		bls	.L14
 212:Codec.c       **** 	{
 213:Codec.c       **** 		volume = CODEC_HP_VOLUME_MAX;
 242              		.loc 1 213 0
 243 0052 4A24     		movs	r4, #74
ARM GAS  C:\Users\TERENC~1\AppData\Local\Temp\cc6g1pjk.s 			page 9


 244              	.L14:
 245              	.LVL27:
 214:Codec.c       **** 	}
 215:Codec.c       **** 	
 216:Codec.c       ****     codec_data.volume = volume;
 246              		.loc 1 216 0
 247 0054 0A4B     		ldr	r3, .L18+12
 248 0056 1C70     		strb	r4, [r3]
 217:Codec.c       **** 
 218:Codec.c       ****     if (codec_data.mute == false)
 249              		.loc 1 218 0
 250 0058 5B78     		ldrb	r3, [r3, #1]
 251 005a 002B     		cmp	r3, #0
 252 005c 06D1     		bne	.L17
 219:Codec.c       ****     {
 220:Codec.c       **** 	    return Codec_SendData(CODEC_REG_LHPOUT, (volume + (CODEC_LHPOUT_BOTH + CODEC_LHPOUT_LZCEN + CO
 253              		.loc 1 220 0
 254 005e 2100     		movs	r1, r4
 255 0060 B031     		adds	r1, r1, #176
 256 0062 FF31     		adds	r1, r1, #255
 257 0064 0220     		movs	r0, #2
 258 0066 FFF7FEFF 		bl	Codec_SendData
 259              	.LVL28:
 260 006a 00E0     		b	.L15
 261              	.L17:
 221:Codec.c       ****     }
 222:Codec.c       ****     else
 223:Codec.c       ****     {
 224:Codec.c       ****         return CodecI2CM_I2C_MSTR_NO_ERROR;
 262              		.loc 1 224 0
 263 006c 0020     		movs	r0, #0
 264              	.L15:
 225:Codec.c       ****     }
 226:Codec.c       **** }
 265              		.loc 1 226 0
 266 006e 03B0     		add	sp, sp, #12
 267              		@ sp needed
 268              	.LVL29:
 269 0070 30BD     		pop	{r4, r5, pc}
 270              	.L19:
 271 0072 C046     		.align	2
 272              	.L18:
 273 0074 00000000 		.word	cal_data
 274 0078 00000000 		.word	tmrCounter_ms
 275 007c E7030000 		.word	999
 276 0080 00000000 		.word	.LANCHOR0
 277 0084 00000000 		.word	gbuf
 278 0088 00000000 		.word	.LC5
 279              		.cfi_endproc
 280              	.LFE6:
 281              		.size	Codec_AdjustBothHeadphoneVolume, .-Codec_AdjustBothHeadphoneVolume
 282              		.global	__aeabi_uidiv
 283              		.section	.text.Codec_AdjustBothHeadphoneVolumeLevel,"ax",%progbits
 284              		.align	2
 285              		.global	Codec_AdjustBothHeadphoneVolumeLevel
 286              		.code	16
 287              		.thumb_func
ARM GAS  C:\Users\TERENC~1\AppData\Local\Temp\cc6g1pjk.s 			page 10


 288              		.type	Codec_AdjustBothHeadphoneVolumeLevel, %function
 289              	Codec_AdjustBothHeadphoneVolumeLevel:
 290              	.LFB7:
 227:Codec.c       **** 
 228:Codec.c       **** uint8 Codec_AdjustBothHeadphoneVolumeLevel(uint8 level)
 229:Codec.c       **** {
 291              		.loc 1 229 0
 292              		.cfi_startproc
 293              		@ args = 0, pretend = 0, frame = 0
 294              		@ frame_needed = 0, uses_anonymous_args = 0
 295              	.LVL30:
 296 0000 10B5     		push	{r4, lr}
 297              		.cfi_def_cfa_offset 8
 298              		.cfi_offset 4, -8
 299              		.cfi_offset 14, -4
 300              	.LVL31:
 230:Codec.c       ****     uint32 volume = level;
 231:Codec.c       **** 
 232:Codec.c       ****     // Round with 1000th digit precision
 233:Codec.c       ****     return Codec_AdjustBothHeadphoneVolume((uint8)((((volume * 1000) / PC_VOLUME_MSB_MAX) * CODEC_H
 301              		.loc 1 233 0
 302 0002 FA24     		movs	r4, #250
 303 0004 A400     		lsls	r4, r4, #2
 304 0006 6043     		muls	r0, r4
 305              	.LVL32:
 306 0008 7F21     		movs	r1, #127
 307 000a FFF7FEFF 		bl	__aeabi_uidiv
 308              	.LVL33:
 309 000e 4A23     		movs	r3, #74
 310 0010 5843     		muls	r0, r3
 311 0012 F530     		adds	r0, r0, #245
 312 0014 FF30     		adds	r0, r0, #255
 313 0016 2100     		movs	r1, r4
 314 0018 FFF7FEFF 		bl	__aeabi_uidiv
 315              	.LVL34:
 316 001c C0B2     		uxtb	r0, r0
 317 001e FFF7FEFF 		bl	Codec_AdjustBothHeadphoneVolume
 318              	.LVL35:
 234:Codec.c       **** }
 319              		.loc 1 234 0
 320              		@ sp needed
 321 0022 10BD     		pop	{r4, pc}
 322              		.cfi_endproc
 323              	.LFE7:
 324              		.size	Codec_AdjustBothHeadphoneVolumeLevel, .-Codec_AdjustBothHeadphoneVolumeLevel
 325              		.section	.text.Codec_GetHeadphoneVolume,"ax",%progbits
 326              		.align	2
 327              		.global	Codec_GetHeadphoneVolume
 328              		.code	16
 329              		.thumb_func
 330              		.type	Codec_GetHeadphoneVolume, %function
 331              	Codec_GetHeadphoneVolume:
 332              	.LFB8:
 235:Codec.c       **** 
 236:Codec.c       **** uint8 Codec_GetHeadphoneVolume(void)
 237:Codec.c       **** {
 333              		.loc 1 237 0
ARM GAS  C:\Users\TERENC~1\AppData\Local\Temp\cc6g1pjk.s 			page 11


 334              		.cfi_startproc
 335              		@ args = 0, pretend = 0, frame = 0
 336              		@ frame_needed = 0, uses_anonymous_args = 0
 337              		@ link register save eliminated.
 238:Codec.c       ****     return codec_data.volume;
 338              		.loc 1 238 0
 339 0000 014B     		ldr	r3, .L22
 340 0002 1878     		ldrb	r0, [r3]
 239:Codec.c       **** }
 341              		.loc 1 239 0
 342              		@ sp needed
 343 0004 7047     		bx	lr
 344              	.L23:
 345 0006 C046     		.align	2
 346              	.L22:
 347 0008 00000000 		.word	.LANCHOR0
 348              		.cfi_endproc
 349              	.LFE8:
 350              		.size	Codec_GetHeadphoneVolume, .-Codec_GetHeadphoneVolume
 351              		.section	.text.Codec_SetMute,"ax",%progbits
 352              		.align	2
 353              		.global	Codec_SetMute
 354              		.code	16
 355              		.thumb_func
 356              		.type	Codec_SetMute, %function
 357              	Codec_SetMute:
 358              	.LFB9:
 240:Codec.c       **** 
 241:Codec.c       **** uint8 Codec_SetMute(bool enable)
 242:Codec.c       **** {
 359              		.loc 1 242 0
 360              		.cfi_startproc
 361              		@ args = 0, pretend = 0, frame = 0
 362              		@ frame_needed = 0, uses_anonymous_args = 0
 363              	.LVL36:
 364 0000 70B5     		push	{r4, r5, r6, lr}
 365              		.cfi_def_cfa_offset 16
 366              		.cfi_offset 4, -16
 367              		.cfi_offset 5, -12
 368              		.cfi_offset 6, -8
 369              		.cfi_offset 14, -4
 370 0002 0400     		movs	r4, r0
 371              	.LVL37:
 243:Codec.c       ****     uint8 ret = CodecI2CM_I2C_MSTR_NO_ERROR;
 244:Codec.c       **** 
 245:Codec.c       ****     D_PRINTF(DEBUG, "Codec_SetMute: %d -> %d\n", codec_data.mute, enable);
 372              		.loc 1 245 0
 373 0004 184B     		ldr	r3, .L31
 374 0006 1B68     		ldr	r3, [r3]
 375 0008 002B     		cmp	r3, #0
 376 000a 1DD0     		beq	.L25
 377              		.loc 1 245 0 is_stmt 0 discriminator 1
 378 000c 5B7C     		ldrb	r3, [r3, #17]
 379 000e 9B07     		lsls	r3, r3, #30
 380 0010 1AD0     		beq	.L25
 381              		.loc 1 245 0 discriminator 2
 382 0012 FFF7FEFF 		bl	USBUART_GetConfiguration
ARM GAS  C:\Users\TERENC~1\AppData\Local\Temp\cc6g1pjk.s 			page 12


 383              	.LVL38:
 384 0016 0028     		cmp	r0, #0
 385 0018 16D0     		beq	.L25
 386              	.LBB3:
 387              		.loc 1 245 0 discriminator 3
 388 001a 144B     		ldr	r3, .L31+4
 389 001c 1D68     		ldr	r5, [r3]
 390              	.LVL39:
 391              	.L27:
 392              		.loc 1 245 0 discriminator 7
 393 001e FFF7FEFF 		bl	USBUART_CDCIsReady
 394              	.LVL40:
 395 0022 0028     		cmp	r0, #0
 396 0024 05D1     		bne	.L26
 397              		.loc 1 245 0 discriminator 5
 398 0026 114B     		ldr	r3, .L31+4
 399 0028 1B68     		ldr	r3, [r3]
 400 002a 5B1B     		subs	r3, r3, r5
 401 002c 104A     		ldr	r2, .L31+8
 402 002e 9342     		cmp	r3, r2
 403 0030 F5D9     		bls	.L27
 404              	.L26:
 405              		.loc 1 245 0 discriminator 8
 406 0032 104B     		ldr	r3, .L31+12
 407 0034 5A78     		ldrb	r2, [r3, #1]
 408 0036 104D     		ldr	r5, .L31+16
 409              	.LVL41:
 410 0038 2300     		movs	r3, r4
 411 003a 1049     		ldr	r1, .L31+20
 412 003c 2800     		movs	r0, r5
 413 003e FFF7FEFF 		bl	sprintf
 414              	.LVL42:
 415 0042 2800     		movs	r0, r5
 416 0044 FFF7FEFF 		bl	USBUART_PutString
 417              	.LVL43:
 418              	.L25:
 419              	.LBE3:
 246:Codec.c       ****     if (enable)
 420              		.loc 1 246 0 is_stmt 1
 421 0048 002C     		cmp	r4, #0
 422 004a 03D0     		beq	.L30
 247:Codec.c       ****     {
 248:Codec.c       ****         ret = Codec_AdjustBothHeadphoneVolume(0);
 423              		.loc 1 248 0
 424 004c 0020     		movs	r0, #0
 425 004e FFF7FEFF 		bl	Codec_AdjustBothHeadphoneVolume
 426              	.LVL44:
 427 0052 00E0     		b	.L28
 428              	.LVL45:
 429              	.L30:
 243:Codec.c       **** 
 430              		.loc 1 243 0
 431 0054 0020     		movs	r0, #0
 432              	.LVL46:
 433              	.L28:
 249:Codec.c       ****     }
 250:Codec.c       **** 
ARM GAS  C:\Users\TERENC~1\AppData\Local\Temp\cc6g1pjk.s 			page 13


 251:Codec.c       ****     codec_data.mute = enable;
 434              		.loc 1 251 0
 435 0056 074B     		ldr	r3, .L31+12
 436 0058 5C70     		strb	r4, [r3, #1]
 252:Codec.c       **** 
 253:Codec.c       ****     if (!enable)
 437              		.loc 1 253 0
 438 005a 002C     		cmp	r4, #0
 439 005c 02D1     		bne	.L29
 254:Codec.c       ****     {
 255:Codec.c       ****         ret = Codec_AdjustBothHeadphoneVolume(codec_data.volume);
 440              		.loc 1 255 0
 441 005e 1878     		ldrb	r0, [r3]
 442              	.LVL47:
 443 0060 FFF7FEFF 		bl	Codec_AdjustBothHeadphoneVolume
 444              	.LVL48:
 445              	.L29:
 256:Codec.c       ****     }
 257:Codec.c       ****     
 258:Codec.c       ****     return ret;
 259:Codec.c       **** }
 446              		.loc 1 259 0
 447              		@ sp needed
 448 0064 70BD     		pop	{r4, r5, r6, pc}
 449              	.L32:
 450 0066 C046     		.align	2
 451              	.L31:
 452 0068 00000000 		.word	cal_data
 453 006c 00000000 		.word	tmrCounter_ms
 454 0070 E7030000 		.word	999
 455 0074 00000000 		.word	.LANCHOR0
 456 0078 00000000 		.word	gbuf
 457 007c 30000000 		.word	.LC12
 458              		.cfi_endproc
 459              	.LFE9:
 460              		.size	Codec_SetMute, .-Codec_SetMute
 461              		.section	.text.Codec_MuteMic,"ax",%progbits
 462              		.align	2
 463              		.global	Codec_MuteMic
 464              		.code	16
 465              		.thumb_func
 466              		.type	Codec_MuteMic, %function
 467              	Codec_MuteMic:
 468              	.LFB10:
 260:Codec.c       **** 
 261:Codec.c       **** /*******************************************************************************
 262:Codec.c       **** * Function Name: Codec_MuteMic
 263:Codec.c       **** ********************************************************************************
 264:Codec.c       **** * Summary:
 265:Codec.c       **** *   Mutes/unmutes the microphone input
 266:Codec.c       **** *
 267:Codec.c       **** *
 268:Codec.c       **** * Parameters:  
 269:Codec.c       **** *	isMuteOrUnmute - 0 - Unmute
 270:Codec.c       **** *					 1 - Mute
 271:Codec.c       **** *
 272:Codec.c       **** * Return:
ARM GAS  C:\Users\TERENC~1\AppData\Local\Temp\cc6g1pjk.s 			page 14


 273:Codec.c       **** *   uint8 - I2C master transaction error status
 274:Codec.c       **** *				CodecI2CM_I2C_MSTR_NO_ERROR - Function complete without error                       
 275:Codec.c       **** *				CodecI2CM_I2C_MSTR_ERR_ARB_LOST - Master lost arbitration: INTR_MASTER_I2C_ARB_LOST    
 276:Codec.c       **** *				CodecI2CM_I2C_MSTR_ERR_LB_NAK - Last Byte NACKed: INTR_MASTER_I2C_NACK               
 277:Codec.c       **** *				CodecI2CM_I2C_MSTR_NOT_READY - Master on the bus or Slave operation is in progress  
 278:Codec.c       **** *				CodecI2CM_I2C_MSTR_BUS_BUSY - Bus is busy, process not started
 279:Codec.c       **** *				CodecI2CM_I2C_MSTR_ERR_ABORT_START - Slave was addressed before master begin Start
 280:Codec.c       **** *				CodecI2CM_I2C_MSTR_ERR_BUS_ERR - Bus error has: INTR_MASTER_I2C_BUS_ERROR 
 281:Codec.c       **** *
 282:Codec.c       **** *******************************************************************************/
 283:Codec.c       **** uint8 Codec_MuteMic(bool isMuteOrUnmute)
 284:Codec.c       **** {
 469              		.loc 1 284 0
 470              		.cfi_startproc
 471              		@ args = 0, pretend = 0, frame = 0
 472              		@ frame_needed = 0, uses_anonymous_args = 0
 473              	.LVL49:
 474 0000 10B5     		push	{r4, lr}
 475              		.cfi_def_cfa_offset 8
 476              		.cfi_offset 4, -8
 477              		.cfi_offset 14, -4
 285:Codec.c       **** 	Codec_analogPathSetting &= ~(CODEC_ANALOG_CTRL_MUTEMIC);
 478              		.loc 1 285 0
 479 0002 084A     		ldr	r2, .L35
 480 0004 1388     		ldrh	r3, [r2]
 481 0006 0221     		movs	r1, #2
 482 0008 8B43     		bics	r3, r1
 483 000a 1380     		strh	r3, [r2]
 286:Codec.c       **** 	
 287:Codec.c       **** 	if(isMuteOrUnmute)
 484              		.loc 1 287 0
 485 000c 0028     		cmp	r0, #0
 486 000e 03D0     		beq	.L34
 288:Codec.c       **** 	{
 289:Codec.c       **** 		Codec_analogPathSetting |= CODEC_ANALOG_CTRL_MUTEMIC;		
 487              		.loc 1 289 0
 488 0010 0222     		movs	r2, #2
 489 0012 1343     		orrs	r3, r2
 490 0014 034A     		ldr	r2, .L35
 491 0016 1380     		strh	r3, [r2]
 492              	.L34:
 290:Codec.c       **** 	}
 291:Codec.c       **** 	
 292:Codec.c       **** 	return Codec_SendData(CODEC_REG_ANALOG_CTRL, Codec_analogPathSetting);
 493              		.loc 1 292 0
 494 0018 024B     		ldr	r3, .L35
 495 001a 1988     		ldrh	r1, [r3]
 496 001c 0420     		movs	r0, #4
 497              	.LVL50:
 498 001e FFF7FEFF 		bl	Codec_SendData
 499              	.LVL51:
 293:Codec.c       **** }
 500              		.loc 1 293 0
 501              		@ sp needed
 502 0022 10BD     		pop	{r4, pc}
 503              	.L36:
 504              		.align	2
ARM GAS  C:\Users\TERENC~1\AppData\Local\Temp\cc6g1pjk.s 			page 15


 505              	.L35:
 506 0024 00000000 		.word	.LANCHOR1
 507              		.cfi_endproc
 508              	.LFE10:
 509              		.size	Codec_MuteMic, .-Codec_MuteMic
 510              		.section	.text.Codec_SetMicBoost,"ax",%progbits
 511              		.align	2
 512              		.global	Codec_SetMicBoost
 513              		.code	16
 514              		.thumb_func
 515              		.type	Codec_SetMicBoost, %function
 516              	Codec_SetMicBoost:
 517              	.LFB11:
 294:Codec.c       **** 
 295:Codec.c       **** /*******************************************************************************
 296:Codec.c       **** * Function Name: Codec_SetMicBoost
 297:Codec.c       **** ********************************************************************************
 298:Codec.c       **** * Summary:
 299:Codec.c       **** *   Enables/Disables microphone boost (amplification)
 300:Codec.c       **** *
 301:Codec.c       **** *
 302:Codec.c       **** * Parameters:  
 303:Codec.c       **** *	micBoost -       0 - Disable
 304:Codec.c       **** *					 1 - Enable
 305:Codec.c       **** *
 306:Codec.c       **** * Return:
 307:Codec.c       **** *   uint8 - I2C master transaction error status
 308:Codec.c       **** *				CodecI2CM_I2C_MSTR_NO_ERROR - Function complete without error                       
 309:Codec.c       **** *				CodecI2CM_I2C_MSTR_ERR_ARB_LOST - Master lost arbitration: INTR_MASTER_I2C_ARB_LOST    
 310:Codec.c       **** *				CodecI2CM_I2C_MSTR_ERR_LB_NAK - Last Byte NACKed: INTR_MASTER_I2C_NACK               
 311:Codec.c       **** *				CodecI2CM_I2C_MSTR_NOT_READY - Master on the bus or Slave operation is in progress  
 312:Codec.c       **** *				CodecI2CM_I2C_MSTR_BUS_BUSY - Bus is busy, process not started
 313:Codec.c       **** *				CodecI2CM_I2C_MSTR_ERR_ABORT_START - Slave was addressed before master begin Start
 314:Codec.c       **** *				CodecI2CM_I2C_MSTR_ERR_BUS_ERR - Bus error has: INTR_MASTER_I2C_BUS_ERROR 
 315:Codec.c       **** *
 316:Codec.c       **** *******************************************************************************/
 317:Codec.c       **** uint8 Codec_SetMicBoost(bool micBoost)
 318:Codec.c       **** {
 518              		.loc 1 318 0
 519              		.cfi_startproc
 520              		@ args = 0, pretend = 0, frame = 0
 521              		@ frame_needed = 0, uses_anonymous_args = 0
 522              	.LVL52:
 523 0000 10B5     		push	{r4, lr}
 524              		.cfi_def_cfa_offset 8
 525              		.cfi_offset 4, -8
 526              		.cfi_offset 14, -4
 319:Codec.c       **** 	Codec_analogPathSetting &= ~(CODEC_ANALOG_CTRL_MICBOOST);
 527              		.loc 1 319 0
 528 0002 084A     		ldr	r2, .L39
 529 0004 1388     		ldrh	r3, [r2]
 530 0006 0121     		movs	r1, #1
 531 0008 8B43     		bics	r3, r1
 532 000a 1380     		strh	r3, [r2]
 320:Codec.c       **** 	
 321:Codec.c       **** 	if(micBoost)
 533              		.loc 1 321 0
ARM GAS  C:\Users\TERENC~1\AppData\Local\Temp\cc6g1pjk.s 			page 16


 534 000c 0028     		cmp	r0, #0
 535 000e 03D0     		beq	.L38
 322:Codec.c       **** 	{
 323:Codec.c       **** 		Codec_analogPathSetting |= CODEC_ANALOG_CTRL_MICBOOST;		
 536              		.loc 1 323 0
 537 0010 0122     		movs	r2, #1
 538 0012 1343     		orrs	r3, r2
 539 0014 034A     		ldr	r2, .L39
 540 0016 1380     		strh	r3, [r2]
 541              	.L38:
 324:Codec.c       **** 	}
 325:Codec.c       **** 	
 326:Codec.c       **** 	return Codec_SendData(CODEC_REG_ANALOG_CTRL, Codec_analogPathSetting);
 542              		.loc 1 326 0
 543 0018 024B     		ldr	r3, .L39
 544 001a 1988     		ldrh	r1, [r3]
 545 001c 0420     		movs	r0, #4
 546              	.LVL53:
 547 001e FFF7FEFF 		bl	Codec_SendData
 548              	.LVL54:
 327:Codec.c       **** }
 549              		.loc 1 327 0
 550              		@ sp needed
 551 0022 10BD     		pop	{r4, pc}
 552              	.L40:
 553              		.align	2
 554              	.L39:
 555 0024 00000000 		.word	.LANCHOR1
 556              		.cfi_endproc
 557              	.LFE11:
 558              		.size	Codec_SetMicBoost, .-Codec_SetMicBoost
 559              		.section	.text.Codec_Activate,"ax",%progbits
 560              		.align	2
 561              		.global	Codec_Activate
 562              		.code	16
 563              		.thumb_func
 564              		.type	Codec_Activate, %function
 565              	Codec_Activate:
 566              	.LFB12:
 328:Codec.c       **** 
 329:Codec.c       **** /*******************************************************************************
 330:Codec.c       **** * Function Name: Codec_Activate
 331:Codec.c       **** ********************************************************************************
 332:Codec.c       **** * Summary:
 333:Codec.c       **** *   Activates the codec - This function is called in conjunction with Codec_Deactivate API
 334:Codec.c       **** *	after successful configuration update of the codec.
 335:Codec.c       **** *
 336:Codec.c       **** *
 337:Codec.c       **** * Parameters:  
 338:Codec.c       **** *	None
 339:Codec.c       **** *
 340:Codec.c       **** * Return:
 341:Codec.c       **** *   uint8 - I2C master transaction error status
 342:Codec.c       **** *				CodecI2CM_I2C_MSTR_NO_ERROR - Function complete without error                       
 343:Codec.c       **** *				CodecI2CM_I2C_MSTR_ERR_ARB_LOST - Master lost arbitration: INTR_MASTER_I2C_ARB_LOST    
 344:Codec.c       **** *				CodecI2CM_I2C_MSTR_ERR_LB_NAK - Last Byte NACKed: INTR_MASTER_I2C_NACK               
 345:Codec.c       **** *				CodecI2CM_I2C_MSTR_NOT_READY - Master on the bus or Slave operation is in progress  
ARM GAS  C:\Users\TERENC~1\AppData\Local\Temp\cc6g1pjk.s 			page 17


 346:Codec.c       **** *				CodecI2CM_I2C_MSTR_BUS_BUSY - Bus is busy, process not started
 347:Codec.c       **** *				CodecI2CM_I2C_MSTR_ERR_ABORT_START - Slave was addressed before master begin Start
 348:Codec.c       **** *				CodecI2CM_I2C_MSTR_ERR_BUS_ERR - Bus error has: INTR_MASTER_I2C_BUS_ERROR 
 349:Codec.c       **** *
 350:Codec.c       **** *******************************************************************************/
 351:Codec.c       **** uint8 Codec_Activate(void)
 352:Codec.c       **** {
 567              		.loc 1 352 0
 568              		.cfi_startproc
 569              		@ args = 0, pretend = 0, frame = 0
 570              		@ frame_needed = 0, uses_anonymous_args = 0
 571 0000 10B5     		push	{r4, lr}
 572              		.cfi_def_cfa_offset 8
 573              		.cfi_offset 4, -8
 574              		.cfi_offset 14, -4
 353:Codec.c       **** 	return Codec_SendData(CODEC_REG_ACTIVATE, CODEC_CTRL_ACTIVATE); 
 575              		.loc 1 353 0
 576 0002 0121     		movs	r1, #1
 577 0004 0920     		movs	r0, #9
 578 0006 FFF7FEFF 		bl	Codec_SendData
 579              	.LVL55:
 354:Codec.c       **** }
 580              		.loc 1 354 0
 581              		@ sp needed
 582 000a 10BD     		pop	{r4, pc}
 583              		.cfi_endproc
 584              	.LFE12:
 585              		.size	Codec_Activate, .-Codec_Activate
 586              		.section	.text.Codec_Deactivate,"ax",%progbits
 587              		.align	2
 588              		.global	Codec_Deactivate
 589              		.code	16
 590              		.thumb_func
 591              		.type	Codec_Deactivate, %function
 592              	Codec_Deactivate:
 593              	.LFB13:
 355:Codec.c       **** 
 356:Codec.c       **** /*******************************************************************************
 357:Codec.c       **** * Function Name: Codec_Deactivate
 358:Codec.c       **** ********************************************************************************
 359:Codec.c       **** * Summary:
 360:Codec.c       **** *   Deactivates the CODEC - the configuration is retained, just the CODEC input/outputs are
 361:Codec.c       **** *	disabled. The function should be called before changing any setting in the codec over I2C
 362:Codec.c       **** *
 363:Codec.c       **** *
 364:Codec.c       **** * Parameters:  
 365:Codec.c       **** *	None
 366:Codec.c       **** *
 367:Codec.c       **** * Return:
 368:Codec.c       **** *   uint8 - I2C master transaction error status
 369:Codec.c       **** *				CodecI2CM_I2C_MSTR_NO_ERROR - Function complete without error                       
 370:Codec.c       **** *				CodecI2CM_I2C_MSTR_ERR_ARB_LOST - Master lost arbitration: INTR_MASTER_I2C_ARB_LOST    
 371:Codec.c       **** *				CodecI2CM_I2C_MSTR_ERR_LB_NAK - Last Byte NACKed: INTR_MASTER_I2C_NACK               
 372:Codec.c       **** *				CodecI2CM_I2C_MSTR_NOT_READY - Master on the bus or Slave operation is in progress  
 373:Codec.c       **** *				CodecI2CM_I2C_MSTR_BUS_BUSY - Bus is busy, process not started
 374:Codec.c       **** *				CodecI2CM_I2C_MSTR_ERR_ABORT_START - Slave was addressed before master begin Start
 375:Codec.c       **** *				CodecI2CM_I2C_MSTR_ERR_BUS_ERR - Bus error has: INTR_MASTER_I2C_BUS_ERROR 
ARM GAS  C:\Users\TERENC~1\AppData\Local\Temp\cc6g1pjk.s 			page 18


 376:Codec.c       **** *
 377:Codec.c       **** *******************************************************************************/
 378:Codec.c       **** uint8 Codec_Deactivate(void)
 379:Codec.c       **** {
 594              		.loc 1 379 0
 595              		.cfi_startproc
 596              		@ args = 0, pretend = 0, frame = 0
 597              		@ frame_needed = 0, uses_anonymous_args = 0
 598 0000 10B5     		push	{r4, lr}
 599              		.cfi_def_cfa_offset 8
 600              		.cfi_offset 4, -8
 601              		.cfi_offset 14, -4
 380:Codec.c       **** 	return Codec_SendData(CODEC_REG_ACTIVATE, CODEC_CTRL_DEACTIVATE); 
 602              		.loc 1 380 0
 603 0002 0021     		movs	r1, #0
 604 0004 0920     		movs	r0, #9
 605 0006 FFF7FEFF 		bl	Codec_SendData
 606              	.LVL56:
 381:Codec.c       **** }
 607              		.loc 1 381 0
 608              		@ sp needed
 609 000a 10BD     		pop	{r4, pc}
 610              		.cfi_endproc
 611              	.LFE13:
 612              		.size	Codec_Deactivate, .-Codec_Deactivate
 613              		.section	.text.Codec_ResetOverI2C,"ax",%progbits
 614              		.align	2
 615              		.global	Codec_ResetOverI2C
 616              		.code	16
 617              		.thumb_func
 618              		.type	Codec_ResetOverI2C, %function
 619              	Codec_ResetOverI2C:
 620              	.LFB14:
 382:Codec.c       **** 
 383:Codec.c       **** /*******************************************************************************
 384:Codec.c       **** * Function Name: Codec_ResetOverI2C
 385:Codec.c       **** ********************************************************************************
 386:Codec.c       **** * Summary:
 387:Codec.c       **** *   Resets the codec by sending an I2C command
 388:Codec.c       **** *
 389:Codec.c       **** * Parameters:  
 390:Codec.c       **** *	None
 391:Codec.c       **** *
 392:Codec.c       **** * Return:
 393:Codec.c       **** *   uint8 - I2C master transaction error status
 394:Codec.c       **** *				CodecI2CM_I2C_MSTR_NO_ERROR - Function complete without error                       
 395:Codec.c       **** *				CodecI2CM_I2C_MSTR_ERR_ARB_LOST - Master lost arbitration: INTR_MASTER_I2C_ARB_LOST    
 396:Codec.c       **** *				CodecI2CM_I2C_MSTR_ERR_LB_NAK - Last Byte NACKed: INTR_MASTER_I2C_NACK               
 397:Codec.c       **** *				CodecI2CM_I2C_MSTR_NOT_READY - Master on the bus or Slave operation is in progress  
 398:Codec.c       **** *				CodecI2CM_I2C_MSTR_BUS_BUSY - Bus is busy, process not started
 399:Codec.c       **** *				CodecI2CM_I2C_MSTR_ERR_ABORT_START - Slave was addressed before master begin Start
 400:Codec.c       **** *				CodecI2CM_I2C_MSTR_ERR_BUS_ERR - Bus error has: INTR_MASTER_I2C_BUS_ERROR 
 401:Codec.c       **** *
 402:Codec.c       **** *******************************************************************************/
 403:Codec.c       **** uint8 Codec_ResetOverI2C(void)
 404:Codec.c       **** {
 621              		.loc 1 404 0
ARM GAS  C:\Users\TERENC~1\AppData\Local\Temp\cc6g1pjk.s 			page 19


 622              		.cfi_startproc
 623              		@ args = 0, pretend = 0, frame = 0
 624              		@ frame_needed = 0, uses_anonymous_args = 0
 625 0000 10B5     		push	{r4, lr}
 626              		.cfi_def_cfa_offset 8
 627              		.cfi_offset 4, -8
 628              		.cfi_offset 14, -4
 405:Codec.c       **** 	return Codec_SendData(CODEC_REG_RESET, CODEC_CTRL_RESET);
 629              		.loc 1 405 0
 630 0002 0021     		movs	r1, #0
 631 0004 0F20     		movs	r0, #15
 632 0006 FFF7FEFF 		bl	Codec_SendData
 633              	.LVL57:
 406:Codec.c       **** }
 634              		.loc 1 406 0
 635              		@ sp needed
 636 000a 10BD     		pop	{r4, pc}
 637              		.cfi_endproc
 638              	.LFE14:
 639              		.size	Codec_ResetOverI2C, .-Codec_ResetOverI2C
 640              		.section	.text.Codec_Init,"ax",%progbits
 641              		.align	2
 642              		.global	Codec_Init
 643              		.code	16
 644              		.thumb_func
 645              		.type	Codec_Init, %function
 646              	Codec_Init:
 647              	.LFB2:
  83:Codec.c       **** 	uint8 ret;
 648              		.loc 1 83 0
 649              		.cfi_startproc
 650              		@ args = 0, pretend = 0, frame = 0
 651              		@ frame_needed = 0, uses_anonymous_args = 0
 652 0000 10B5     		push	{r4, lr}
 653              		.cfi_def_cfa_offset 8
 654              		.cfi_offset 4, -8
 655              		.cfi_offset 14, -4
  86:Codec.c       **** 	CyDelay(CODEC_RESET_WAIT_DELAY);
 656              		.loc 1 86 0
 657 0002 FFF7FEFF 		bl	Codec_ResetOverI2C
 658              	.LVL58:
  87:Codec.c       **** 	
 659              		.loc 1 87 0
 660 0006 0A20     		movs	r0, #10
 661 0008 FFF7FEFF 		bl	CyDelay
 662              	.LVL59:
  89:Codec.c       **** 	ret = Codec_SendData(CODEC_REG_ANALOG_CTRL, CODEC_DEF_ANALOG_CTRL);
 663              		.loc 1 89 0
 664 000c 0020     		movs	r0, #0
 665 000e FFF7FEFF 		bl	Codec_AdjustBothHeadphoneVolume
 666              	.LVL60:
  90:Codec.c       **** 	ret = Codec_SendData(CODEC_REG_DIGITAL_CTRL, CODEC_DEF_DIGITAL_CTRL);
 667              		.loc 1 90 0
 668 0012 1421     		movs	r1, #20
 669 0014 0420     		movs	r0, #4
 670 0016 FFF7FEFF 		bl	Codec_SendData
 671              	.LVL61:
ARM GAS  C:\Users\TERENC~1\AppData\Local\Temp\cc6g1pjk.s 			page 20


  91:Codec.c       **** 	ret = Codec_SendData(CODEC_REG_POWER_CTRL, CODEC_DEF_POWER_CTRL);
 672              		.loc 1 91 0
 673 001a 1021     		movs	r1, #16
 674 001c 0520     		movs	r0, #5
 675 001e FFF7FEFF 		bl	Codec_SendData
 676              	.LVL62:
  92:Codec.c       **** 	ret = Codec_SetSamplingRate(CODEC_DEF_SAMPLING_RATE);
 677              		.loc 1 92 0
 678 0022 6121     		movs	r1, #97
 679 0024 0620     		movs	r0, #6
 680 0026 FFF7FEFF 		bl	Codec_SendData
 681              	.LVL63:
  93:Codec.c       **** 	
 682              		.loc 1 93 0
 683 002a 0020     		movs	r0, #0
 684 002c FFF7FEFF 		bl	Codec_SetSamplingRate
 685              	.LVL64:
  96:Codec.c       **** 
 686              		.loc 1 96 0
 687              		@ sp needed
 688 0030 10BD     		pop	{r4, pc}
 689              		.cfi_endproc
 690              	.LFE2:
 691              		.size	Codec_Init, .-Codec_Init
 692 0032 C046     		.section	.text.Codec_PowerOffControl,"ax",%progbits
 693              		.align	2
 694              		.global	Codec_PowerOffControl
 695              		.code	16
 696              		.thumb_func
 697              		.type	Codec_PowerOffControl, %function
 698              	Codec_PowerOffControl:
 699              	.LFB15:
 407:Codec.c       **** 	
 408:Codec.c       **** /*******************************************************************************
 409:Codec.c       **** * Function Name: Codec_PowerOffControl
 410:Codec.c       **** ********************************************************************************
 411:Codec.c       **** * Summary:
 412:Codec.c       **** *   Disables power for various blocks in the codec
 413:Codec.c       **** *
 414:Codec.c       **** *
 415:Codec.c       **** * Parameters:  
 416:Codec.c       **** *	powerOffMask - Bit(s) mask for the power off control 
 417:Codec.c       **** *                   Refer to bit settings available for CODEC_REG_POWER_CTRL in 
 418:Codec.c       **** *                   Codec.h
 419:Codec.c       **** *
 420:Codec.c       **** * Return:
 421:Codec.c       **** *   uint8 - I2C master transaction error status
 422:Codec.c       **** *				CodecI2CM_I2C_MSTR_NO_ERROR - Function complete without error                       
 423:Codec.c       **** *				CodecI2CM_I2C_MSTR_ERR_ARB_LOST - Master lost arbitration: INTR_MASTER_I2C_ARB_LOST    
 424:Codec.c       **** *				CodecI2CM_I2C_MSTR_ERR_LB_NAK - Last Byte NACKed: INTR_MASTER_I2C_NACK               
 425:Codec.c       **** *				CodecI2CM_I2C_MSTR_NOT_READY - Master on the bus or Slave operation is in progress  
 426:Codec.c       **** *				CodecI2CM_I2C_MSTR_BUS_BUSY - Bus is busy, process not started
 427:Codec.c       **** *				CodecI2CM_I2C_MSTR_ERR_ABORT_START - Slave was addressed before master begin Start
 428:Codec.c       **** *				CodecI2CM_I2C_MSTR_ERR_BUS_ERR - Bus error has: INTR_MASTER_I2C_BUS_ERROR 
 429:Codec.c       **** *
 430:Codec.c       **** *******************************************************************************/
 431:Codec.c       **** uint8 Codec_PowerOffControl(uint32 powerOffMask)
ARM GAS  C:\Users\TERENC~1\AppData\Local\Temp\cc6g1pjk.s 			page 21


 432:Codec.c       **** {
 700              		.loc 1 432 0
 701              		.cfi_startproc
 702              		@ args = 0, pretend = 0, frame = 0
 703              		@ frame_needed = 0, uses_anonymous_args = 0
 704              	.LVL65:
 705 0000 10B5     		push	{r4, lr}
 706              		.cfi_def_cfa_offset 8
 707              		.cfi_offset 4, -8
 708              		.cfi_offset 14, -4
 433:Codec.c       **** 	Codec_powerControlSetting |= powerOffMask;
 709              		.loc 1 433 0
 710 0002 044B     		ldr	r3, .L46
 711 0004 5A68     		ldr	r2, [r3, #4]
 712 0006 1043     		orrs	r0, r2
 713              	.LVL66:
 714 0008 5860     		str	r0, [r3, #4]
 434:Codec.c       ****     return Codec_SendData(CODEC_REG_POWER_CTRL, Codec_powerControlSetting);
 715              		.loc 1 434 0
 716 000a 81B2     		uxth	r1, r0
 717 000c 0620     		movs	r0, #6
 718 000e FFF7FEFF 		bl	Codec_SendData
 719              	.LVL67:
 435:Codec.c       **** }
 720              		.loc 1 435 0
 721              		@ sp needed
 722 0012 10BD     		pop	{r4, pc}
 723              	.L47:
 724              		.align	2
 725              	.L46:
 726 0014 00000000 		.word	.LANCHOR1
 727              		.cfi_endproc
 728              	.LFE15:
 729              		.size	Codec_PowerOffControl, .-Codec_PowerOffControl
 730              		.section	.text.Codec_PowerOnControl,"ax",%progbits
 731              		.align	2
 732              		.global	Codec_PowerOnControl
 733              		.code	16
 734              		.thumb_func
 735              		.type	Codec_PowerOnControl, %function
 736              	Codec_PowerOnControl:
 737              	.LFB16:
 436:Codec.c       **** 
 437:Codec.c       **** /*******************************************************************************
 438:Codec.c       **** * Function Name: Codec_PowerOnControl
 439:Codec.c       **** ********************************************************************************
 440:Codec.c       **** * Summary:
 441:Codec.c       **** *   Enables power for various blocks in the codec
 442:Codec.c       **** *
 443:Codec.c       **** *
 444:Codec.c       **** * Parameters:  
 445:Codec.c       **** *	powerOffMask - Bit(s) mask for the power on control 
 446:Codec.c       **** *                   Refer to bit settings available for CODEC_REG_POWER_CTRL in 
 447:Codec.c       **** *                   Codec.h
 448:Codec.c       **** *
 449:Codec.c       **** * Return:
 450:Codec.c       **** *   uint8 - I2C master transaction error status
ARM GAS  C:\Users\TERENC~1\AppData\Local\Temp\cc6g1pjk.s 			page 22


 451:Codec.c       **** *				CodecI2CM_I2C_MSTR_NO_ERROR - Function complete without error                       
 452:Codec.c       **** *				CodecI2CM_I2C_MSTR_ERR_ARB_LOST - Master lost arbitration: INTR_MASTER_I2C_ARB_LOST    
 453:Codec.c       **** *				CodecI2CM_I2C_MSTR_ERR_LB_NAK - Last Byte NACKed: INTR_MASTER_I2C_NACK               
 454:Codec.c       **** *				CodecI2CM_I2C_MSTR_NOT_READY - Master on the bus or Slave operation is in progress  
 455:Codec.c       **** *				CodecI2CM_I2C_MSTR_BUS_BUSY - Bus is busy, process not started
 456:Codec.c       **** *				CodecI2CM_I2C_MSTR_ERR_ABORT_START - Slave was addressed before master begin Start
 457:Codec.c       **** *				CodecI2CM_I2C_MSTR_ERR_BUS_ERR - Bus error has: INTR_MASTER_I2C_BUS_ERROR 
 458:Codec.c       **** *
 459:Codec.c       **** *******************************************************************************/
 460:Codec.c       **** uint8 Codec_PowerOnControl(uint32 powerOnMask)
 461:Codec.c       **** {
 738              		.loc 1 461 0
 739              		.cfi_startproc
 740              		@ args = 0, pretend = 0, frame = 0
 741              		@ frame_needed = 0, uses_anonymous_args = 0
 742              	.LVL68:
 743 0000 10B5     		push	{r4, lr}
 744              		.cfi_def_cfa_offset 8
 745              		.cfi_offset 4, -8
 746              		.cfi_offset 14, -4
 462:Codec.c       **** 	Codec_powerControlSetting &= ~powerOnMask;
 747              		.loc 1 462 0
 748 0002 044B     		ldr	r3, .L49
 749 0004 5968     		ldr	r1, [r3, #4]
 750 0006 8143     		bics	r1, r0
 751 0008 5960     		str	r1, [r3, #4]
 463:Codec.c       ****     return Codec_SendData(CODEC_REG_POWER_CTRL, Codec_powerControlSetting);
 752              		.loc 1 463 0
 753 000a 89B2     		uxth	r1, r1
 754 000c 0620     		movs	r0, #6
 755              	.LVL69:
 756 000e FFF7FEFF 		bl	Codec_SendData
 757              	.LVL70:
 464:Codec.c       **** }
 758              		.loc 1 464 0
 759              		@ sp needed
 760 0012 10BD     		pop	{r4, pc}
 761              	.L50:
 762              		.align	2
 763              	.L49:
 764 0014 00000000 		.word	.LANCHOR1
 765              		.cfi_endproc
 766              	.LFE16:
 767              		.size	Codec_PowerOnControl, .-Codec_PowerOnControl
 768              		.global	Codec_powerControlSetting
 769              		.data
 770              		.align	2
 771              		.set	.LANCHOR1,. + 0
 772              		.type	Codec_analogPathSetting, %object
 773              		.size	Codec_analogPathSetting, 2
 774              	Codec_analogPathSetting:
 775 0000 1400     		.short	20
 776 0002 0000     		.space	2
 777              		.type	Codec_powerControlSetting, %object
 778              		.size	Codec_powerControlSetting, 4
 779              	Codec_powerControlSetting:
 780 0004 61000000 		.word	97
ARM GAS  C:\Users\TERENC~1\AppData\Local\Temp\cc6g1pjk.s 			page 23


 781              		.section	.rodata.str1.4,"aMS",%progbits,1
 782              		.align	2
 783              	.LC5:
 784 0000 436F6465 		.ascii	"Codec_AdjustBothHeadphoneVolume: %d -> %d, %d\012\000"
 784      635F4164 
 784      6A757374 
 784      426F7468 
 784      48656164 
 785 002f 00       		.space	1
 786              	.LC12:
 787 0030 436F6465 		.ascii	"Codec_SetMute: %d -> %d\012\000"
 787      635F5365 
 787      744D7574 
 787      653A2025 
 787      64202D3E 
 788              		.bss
 789              		.align	2
 790              		.set	.LANCHOR0,. + 0
 791              		.type	codec_data, %object
 792              		.size	codec_data, 34
 793              	codec_data:
 794 0000 00000000 		.space	34
 794      00000000 
 794      00000000 
 794      00000000 
 794      00000000 
 795              		.text
 796              	.Letext0:
 797              		.file 2 "c:\\program files (x86)\\cypress\\psoc creator\\4.2\\psoc creator\\import\\gnu\\arm\\5.4.
 798              		.file 3 "c:\\program files (x86)\\cypress\\psoc creator\\4.2\\psoc creator\\import\\gnu\\arm\\5.4.
 799              		.file 4 "Generated_Source\\PSoC4/cytypes.h"
 800              		.file 5 "./Calibration.h"
 801              		.file 6 "./timers.h"
 802              		.file 7 "Application.h"
 803              		.file 8 "Generated_Source\\PSoC4/CodecI2CM_I2C.h"
 804              		.file 9 "Generated_Source\\PSoC4/USBUART_cdc.h"
 805              		.file 10 "c:\\program files (x86)\\cypress\\psoc creator\\4.2\\psoc creator\\import\\gnu\\arm\\5.4
 806              		.file 11 "Generated_Source\\PSoC4/USBUART.h"
 807              		.file 12 "Generated_Source\\PSoC4/CyLib.h"