ARM GAS  C:\Users\TERENC~1\AppData\Local\Temp\ccZN0dQJ.s 			page 1


   1              		.syntax unified
   2              		.cpu cortex-m0
   3              		.fpu softvfp
   4              		.eabi_attribute 20, 1
   5              		.eabi_attribute 21, 1
   6              		.eabi_attribute 23, 3
   7              		.eabi_attribute 24, 1
   8              		.eabi_attribute 25, 1
   9              		.eabi_attribute 26, 1
  10              		.eabi_attribute 30, 1
  11              		.eabi_attribute 34, 0
  12              		.eabi_attribute 18, 4
  13              		.thumb
  14              		.syntax unified
  15              		.file	"cyfitter_cfg.c"
  16              		.text
  17              	.Ltext0:
  18              		.cfi_sections	.debug_frame
  19              		.section	.text.cfg_write_bytes32,"ax",%progbits
  20              		.align	2
  21              		.code	16
  22              		.thumb_func
  23              		.type	cfg_write_bytes32, %function
  24              	cfg_write_bytes32:
  25              	.LFB4:
  26              		.file 1 "Generated_Source\\PSoC4\\cyfitter_cfg.c"
   1:Generated_Source\PSoC4/cyfitter_cfg.c **** 
   2:Generated_Source\PSoC4/cyfitter_cfg.c **** /*******************************************************************************
   3:Generated_Source\PSoC4/cyfitter_cfg.c **** * File Name: cyfitter_cfg.c
   4:Generated_Source\PSoC4/cyfitter_cfg.c **** * 
   5:Generated_Source\PSoC4/cyfitter_cfg.c **** * PSoC Creator  4.2
   6:Generated_Source\PSoC4/cyfitter_cfg.c **** *
   7:Generated_Source\PSoC4/cyfitter_cfg.c **** * Description:
   8:Generated_Source\PSoC4/cyfitter_cfg.c **** * This file contains device initialization code.
   9:Generated_Source\PSoC4/cyfitter_cfg.c **** * Except for the user defined sections in CyClockStartupError(), this file should not be modified.
  10:Generated_Source\PSoC4/cyfitter_cfg.c **** * This file is automatically generated by PSoC Creator.
  11:Generated_Source\PSoC4/cyfitter_cfg.c **** *
  12:Generated_Source\PSoC4/cyfitter_cfg.c **** ********************************************************************************
  13:Generated_Source\PSoC4/cyfitter_cfg.c **** * Copyright (c) 2007-2018 Cypress Semiconductor.  All rights reserved.
  14:Generated_Source\PSoC4/cyfitter_cfg.c **** * You may use this file only in accordance with the license, terms, conditions, 
  15:Generated_Source\PSoC4/cyfitter_cfg.c **** * disclaimers, and limitations in the end user license agreement accompanying 
  16:Generated_Source\PSoC4/cyfitter_cfg.c **** * the software package with which this file was provided.
  17:Generated_Source\PSoC4/cyfitter_cfg.c **** ********************************************************************************/
  18:Generated_Source\PSoC4/cyfitter_cfg.c **** 
  19:Generated_Source\PSoC4/cyfitter_cfg.c **** #include <string.h>
  20:Generated_Source\PSoC4/cyfitter_cfg.c **** #include "cytypes.h"
  21:Generated_Source\PSoC4/cyfitter_cfg.c **** #include "cydevice_trm.h"
  22:Generated_Source\PSoC4/cyfitter_cfg.c **** #include "cyfitter.h"
  23:Generated_Source\PSoC4/cyfitter_cfg.c **** #include "CyLib.h"
  24:Generated_Source\PSoC4/cyfitter_cfg.c **** #include "CyLFClk.h"
  25:Generated_Source\PSoC4/cyfitter_cfg.c **** #include "cyfitter_cfg.h"
  26:Generated_Source\PSoC4/cyfitter_cfg.c **** #include "cyapicallbacks.h"
  27:Generated_Source\PSoC4/cyfitter_cfg.c **** 
  28:Generated_Source\PSoC4/cyfitter_cfg.c **** 
  29:Generated_Source\PSoC4/cyfitter_cfg.c **** #if defined(__GNUC__) || defined(__ARMCC_VERSION)
  30:Generated_Source\PSoC4/cyfitter_cfg.c ****     #define CYPACKED 
  31:Generated_Source\PSoC4/cyfitter_cfg.c ****     #define CYPACKED_ATTR __attribute__ ((packed))
ARM GAS  C:\Users\TERENC~1\AppData\Local\Temp\ccZN0dQJ.s 			page 2


  32:Generated_Source\PSoC4/cyfitter_cfg.c ****     #define CYALIGNED __attribute__ ((aligned))
  33:Generated_Source\PSoC4/cyfitter_cfg.c ****     #define CY_CFG_UNUSED __attribute__ ((unused))
  34:Generated_Source\PSoC4/cyfitter_cfg.c ****     #ifndef CY_CFG_SECTION
  35:Generated_Source\PSoC4/cyfitter_cfg.c ****         #define CY_CFG_SECTION __attribute__ ((section(".psocinit")))
  36:Generated_Source\PSoC4/cyfitter_cfg.c ****     #endif
  37:Generated_Source\PSoC4/cyfitter_cfg.c ****     
  38:Generated_Source\PSoC4/cyfitter_cfg.c ****     #if defined(__ARMCC_VERSION)
  39:Generated_Source\PSoC4/cyfitter_cfg.c ****         #define CY_CFG_MEMORY_BARRIER() __memory_changed()
  40:Generated_Source\PSoC4/cyfitter_cfg.c ****     #else
  41:Generated_Source\PSoC4/cyfitter_cfg.c ****         #define CY_CFG_MEMORY_BARRIER() __sync_synchronize()
  42:Generated_Source\PSoC4/cyfitter_cfg.c ****     #endif
  43:Generated_Source\PSoC4/cyfitter_cfg.c ****     
  44:Generated_Source\PSoC4/cyfitter_cfg.c **** #elif defined(__ICCARM__)
  45:Generated_Source\PSoC4/cyfitter_cfg.c ****     #include <intrinsics.h>
  46:Generated_Source\PSoC4/cyfitter_cfg.c **** 
  47:Generated_Source\PSoC4/cyfitter_cfg.c ****     #define CYPACKED __packed
  48:Generated_Source\PSoC4/cyfitter_cfg.c ****     #define CYPACKED_ATTR 
  49:Generated_Source\PSoC4/cyfitter_cfg.c ****     #define CYALIGNED _Pragma("data_alignment=4")
  50:Generated_Source\PSoC4/cyfitter_cfg.c ****     #define CY_CFG_UNUSED _Pragma("diag_suppress=Pe177")
  51:Generated_Source\PSoC4/cyfitter_cfg.c ****     #define CY_CFG_SECTION _Pragma("location=\".psocinit\"")
  52:Generated_Source\PSoC4/cyfitter_cfg.c ****     
  53:Generated_Source\PSoC4/cyfitter_cfg.c ****     #define CY_CFG_MEMORY_BARRIER() __DMB()
  54:Generated_Source\PSoC4/cyfitter_cfg.c ****     
  55:Generated_Source\PSoC4/cyfitter_cfg.c **** #else
  56:Generated_Source\PSoC4/cyfitter_cfg.c ****     #error Unsupported toolchain
  57:Generated_Source\PSoC4/cyfitter_cfg.c **** #endif
  58:Generated_Source\PSoC4/cyfitter_cfg.c **** 
  59:Generated_Source\PSoC4/cyfitter_cfg.c **** #ifndef CYCODE
  60:Generated_Source\PSoC4/cyfitter_cfg.c ****     #define CYCODE
  61:Generated_Source\PSoC4/cyfitter_cfg.c **** #endif
  62:Generated_Source\PSoC4/cyfitter_cfg.c **** #ifndef CYDATA
  63:Generated_Source\PSoC4/cyfitter_cfg.c ****     #define CYDATA
  64:Generated_Source\PSoC4/cyfitter_cfg.c **** #endif
  65:Generated_Source\PSoC4/cyfitter_cfg.c **** #ifndef CYFAR
  66:Generated_Source\PSoC4/cyfitter_cfg.c ****     #define CYFAR
  67:Generated_Source\PSoC4/cyfitter_cfg.c **** #endif
  68:Generated_Source\PSoC4/cyfitter_cfg.c **** #ifndef CYXDATA
  69:Generated_Source\PSoC4/cyfitter_cfg.c ****     #define CYXDATA
  70:Generated_Source\PSoC4/cyfitter_cfg.c **** #endif
  71:Generated_Source\PSoC4/cyfitter_cfg.c **** 
  72:Generated_Source\PSoC4/cyfitter_cfg.c **** 
  73:Generated_Source\PSoC4/cyfitter_cfg.c **** CY_CFG_UNUSED
  74:Generated_Source\PSoC4/cyfitter_cfg.c **** static void CYMEMZERO(void *s, size_t n);
  75:Generated_Source\PSoC4/cyfitter_cfg.c **** CY_CFG_UNUSED
  76:Generated_Source\PSoC4/cyfitter_cfg.c **** static void CYMEMZERO(void *s, size_t n)
  77:Generated_Source\PSoC4/cyfitter_cfg.c **** {
  78:Generated_Source\PSoC4/cyfitter_cfg.c **** 	(void)memset(s, 0, n);
  79:Generated_Source\PSoC4/cyfitter_cfg.c **** }
  80:Generated_Source\PSoC4/cyfitter_cfg.c **** CY_CFG_UNUSED
  81:Generated_Source\PSoC4/cyfitter_cfg.c **** static void CYCONFIGCPY(void *dest, const void *src, size_t n);
  82:Generated_Source\PSoC4/cyfitter_cfg.c **** CY_CFG_UNUSED
  83:Generated_Source\PSoC4/cyfitter_cfg.c **** static void CYCONFIGCPY(void *dest, const void *src, size_t n)
  84:Generated_Source\PSoC4/cyfitter_cfg.c **** {
  85:Generated_Source\PSoC4/cyfitter_cfg.c **** 	(void)memcpy(dest, src, n);
  86:Generated_Source\PSoC4/cyfitter_cfg.c **** }
  87:Generated_Source\PSoC4/cyfitter_cfg.c **** CY_CFG_UNUSED
  88:Generated_Source\PSoC4/cyfitter_cfg.c **** static void CYCONFIGCPYCODE(void *dest, const void *src, size_t n);
ARM GAS  C:\Users\TERENC~1\AppData\Local\Temp\ccZN0dQJ.s 			page 3


  89:Generated_Source\PSoC4/cyfitter_cfg.c **** CY_CFG_UNUSED
  90:Generated_Source\PSoC4/cyfitter_cfg.c **** static void CYCONFIGCPYCODE(void *dest, const void *src, size_t n)
  91:Generated_Source\PSoC4/cyfitter_cfg.c **** {
  92:Generated_Source\PSoC4/cyfitter_cfg.c **** 	(void)memcpy(dest, src, n);
  93:Generated_Source\PSoC4/cyfitter_cfg.c **** }
  94:Generated_Source\PSoC4/cyfitter_cfg.c **** 
  95:Generated_Source\PSoC4/cyfitter_cfg.c **** 
  96:Generated_Source\PSoC4/cyfitter_cfg.c **** 
  97:Generated_Source\PSoC4/cyfitter_cfg.c **** 
  98:Generated_Source\PSoC4/cyfitter_cfg.c **** /* Clock startup error codes                                                   */
  99:Generated_Source\PSoC4/cyfitter_cfg.c **** #define CYCLOCKSTART_NO_ERROR    0u
 100:Generated_Source\PSoC4/cyfitter_cfg.c **** #define CYCLOCKSTART_XTAL_ERROR  1u
 101:Generated_Source\PSoC4/cyfitter_cfg.c **** #define CYCLOCKSTART_32KHZ_ERROR 2u
 102:Generated_Source\PSoC4/cyfitter_cfg.c **** #define CYCLOCKSTART_PLL_ERROR   3u
 103:Generated_Source\PSoC4/cyfitter_cfg.c **** #define CYCLOCKSTART_FLL_ERROR   4u
 104:Generated_Source\PSoC4/cyfitter_cfg.c **** #define CYCLOCKSTART_WCO_ERROR   5u
 105:Generated_Source\PSoC4/cyfitter_cfg.c **** 
 106:Generated_Source\PSoC4/cyfitter_cfg.c **** 
 107:Generated_Source\PSoC4/cyfitter_cfg.c **** #ifdef CY_NEED_CYCLOCKSTARTUPERROR
 108:Generated_Source\PSoC4/cyfitter_cfg.c **** /*******************************************************************************
 109:Generated_Source\PSoC4/cyfitter_cfg.c **** * Function Name: CyClockStartupError
 110:Generated_Source\PSoC4/cyfitter_cfg.c **** ********************************************************************************
 111:Generated_Source\PSoC4/cyfitter_cfg.c **** * Summary:
 112:Generated_Source\PSoC4/cyfitter_cfg.c **** *  If an error is encountered during clock configuration (crystal startup error,
 113:Generated_Source\PSoC4/cyfitter_cfg.c **** *  PLL lock error, etc.), the system will end up here.  Unless reimplemented by
 114:Generated_Source\PSoC4/cyfitter_cfg.c **** *  the customer, this function will stop in an infinite loop.
 115:Generated_Source\PSoC4/cyfitter_cfg.c **** *
 116:Generated_Source\PSoC4/cyfitter_cfg.c **** * Parameters:
 117:Generated_Source\PSoC4/cyfitter_cfg.c **** *   void
 118:Generated_Source\PSoC4/cyfitter_cfg.c **** *
 119:Generated_Source\PSoC4/cyfitter_cfg.c **** * Return:
 120:Generated_Source\PSoC4/cyfitter_cfg.c **** *   void
 121:Generated_Source\PSoC4/cyfitter_cfg.c **** *
 122:Generated_Source\PSoC4/cyfitter_cfg.c **** *******************************************************************************/
 123:Generated_Source\PSoC4/cyfitter_cfg.c **** CY_CFG_UNUSED
 124:Generated_Source\PSoC4/cyfitter_cfg.c **** static void CyClockStartupError(uint8 errorCode);
 125:Generated_Source\PSoC4/cyfitter_cfg.c **** CY_CFG_UNUSED
 126:Generated_Source\PSoC4/cyfitter_cfg.c **** static void CyClockStartupError(uint8 errorCode)
 127:Generated_Source\PSoC4/cyfitter_cfg.c **** {
 128:Generated_Source\PSoC4/cyfitter_cfg.c ****     /* To remove the compiler warning if errorCode not used.                */
 129:Generated_Source\PSoC4/cyfitter_cfg.c ****     errorCode = errorCode;
 130:Generated_Source\PSoC4/cyfitter_cfg.c **** 
 131:Generated_Source\PSoC4/cyfitter_cfg.c ****     /* If we have a clock startup error (bad MHz crystal, PLL lock, etc.),  */
 132:Generated_Source\PSoC4/cyfitter_cfg.c ****     /* we will end up here to allow the customer to implement something to  */
 133:Generated_Source\PSoC4/cyfitter_cfg.c ****     /* deal with the clock condition.                                       */
 134:Generated_Source\PSoC4/cyfitter_cfg.c **** 
 135:Generated_Source\PSoC4/cyfitter_cfg.c **** #ifdef CY_CFG_CLOCK_STARTUP_ERROR_CALLBACK
 136:Generated_Source\PSoC4/cyfitter_cfg.c ****     CY_CFG_Clock_Startup_ErrorCallback();
 137:Generated_Source\PSoC4/cyfitter_cfg.c **** #else
 138:Generated_Source\PSoC4/cyfitter_cfg.c ****     /*  If not using CY_CFG_CLOCK_STARTUP_ERROR_CALLBACK, place your clock startup code here. */
 139:Generated_Source\PSoC4/cyfitter_cfg.c ****     /* `#START CyClockStartupError` */
 140:Generated_Source\PSoC4/cyfitter_cfg.c **** 
 141:Generated_Source\PSoC4/cyfitter_cfg.c **** 
 142:Generated_Source\PSoC4/cyfitter_cfg.c **** 
 143:Generated_Source\PSoC4/cyfitter_cfg.c ****     /* `#END` */
 144:Generated_Source\PSoC4/cyfitter_cfg.c **** 
 145:Generated_Source\PSoC4/cyfitter_cfg.c ****     while(1) {}
ARM GAS  C:\Users\TERENC~1\AppData\Local\Temp\ccZN0dQJ.s 			page 4


 146:Generated_Source\PSoC4/cyfitter_cfg.c **** #endif /* CY_CFG_CLOCK_STARTUP_ERROR_CALLBACK */
 147:Generated_Source\PSoC4/cyfitter_cfg.c **** }
 148:Generated_Source\PSoC4/cyfitter_cfg.c **** #endif
 149:Generated_Source\PSoC4/cyfitter_cfg.c **** 
 150:Generated_Source\PSoC4/cyfitter_cfg.c **** #define CY_CFG_BASE_ADDR_COUNT 18u
 151:Generated_Source\PSoC4/cyfitter_cfg.c **** CYPACKED typedef struct
 152:Generated_Source\PSoC4/cyfitter_cfg.c **** {
 153:Generated_Source\PSoC4/cyfitter_cfg.c **** 	uint8 offset;
 154:Generated_Source\PSoC4/cyfitter_cfg.c **** 	uint8 value;
 155:Generated_Source\PSoC4/cyfitter_cfg.c **** } CYPACKED_ATTR cy_cfg_addrvalue_t;
 156:Generated_Source\PSoC4/cyfitter_cfg.c **** 
 157:Generated_Source\PSoC4/cyfitter_cfg.c **** 
 158:Generated_Source\PSoC4/cyfitter_cfg.c **** 
 159:Generated_Source\PSoC4/cyfitter_cfg.c **** /*******************************************************************************
 160:Generated_Source\PSoC4/cyfitter_cfg.c **** * Function Name: cfg_write_bytes32
 161:Generated_Source\PSoC4/cyfitter_cfg.c **** ********************************************************************************
 162:Generated_Source\PSoC4/cyfitter_cfg.c **** * Summary:
 163:Generated_Source\PSoC4/cyfitter_cfg.c **** *  This function is used for setting up the chip configuration areas that
 164:Generated_Source\PSoC4/cyfitter_cfg.c **** *  contain relatively sparse data.
 165:Generated_Source\PSoC4/cyfitter_cfg.c **** *
 166:Generated_Source\PSoC4/cyfitter_cfg.c **** * Parameters:
 167:Generated_Source\PSoC4/cyfitter_cfg.c **** *   void
 168:Generated_Source\PSoC4/cyfitter_cfg.c **** *
 169:Generated_Source\PSoC4/cyfitter_cfg.c **** * Return:
 170:Generated_Source\PSoC4/cyfitter_cfg.c **** *   void
 171:Generated_Source\PSoC4/cyfitter_cfg.c **** *
 172:Generated_Source\PSoC4/cyfitter_cfg.c **** *******************************************************************************/
 173:Generated_Source\PSoC4/cyfitter_cfg.c **** static void cfg_write_bytes32(const uint32 addr_table[], const cy_cfg_addrvalue_t data_table[]);
 174:Generated_Source\PSoC4/cyfitter_cfg.c **** static void cfg_write_bytes32(const uint32 addr_table[], const cy_cfg_addrvalue_t data_table[])
 175:Generated_Source\PSoC4/cyfitter_cfg.c **** {
  27              		.loc 1 175 0
  28              		.cfi_startproc
  29              		@ args = 0, pretend = 0, frame = 0
  30              		@ frame_needed = 0, uses_anonymous_args = 0
  31              	.LVL0:
  32 0000 F0B5     		push	{r4, r5, r6, r7, lr}
  33              		.cfi_def_cfa_offset 20
  34              		.cfi_offset 4, -20
  35              		.cfi_offset 5, -16
  36              		.cfi_offset 6, -12
  37              		.cfi_offset 7, -8
  38              		.cfi_offset 14, -4
  39              	.LVL1:
 176:Generated_Source\PSoC4/cyfitter_cfg.c **** 	/* For 32-bit little-endian architectures */
 177:Generated_Source\PSoC4/cyfitter_cfg.c **** 	uint32 i, j = 0u;
  40              		.loc 1 177 0
  41 0002 0025     		movs	r5, #0
 178:Generated_Source\PSoC4/cyfitter_cfg.c **** 	for (i = 0u; i < CY_CFG_BASE_ADDR_COUNT; i++)
  42              		.loc 1 178 0
  43 0004 0027     		movs	r7, #0
  44 0006 11E0     		b	.L2
  45              	.LVL2:
  46              	.L5:
  47              	.LBB2:
 179:Generated_Source\PSoC4/cyfitter_cfg.c **** 	{
 180:Generated_Source\PSoC4/cyfitter_cfg.c **** 		uint32 baseAddr = addr_table[i];
  48              		.loc 1 180 0
ARM GAS  C:\Users\TERENC~1\AppData\Local\Temp\ccZN0dQJ.s 			page 5


  49 0008 BB00     		lsls	r3, r7, #2
  50 000a C658     		ldr	r6, [r0, r3]
  51              	.LVL3:
 181:Generated_Source\PSoC4/cyfitter_cfg.c **** 		uint8 count = (uint8)baseAddr;
  52              		.loc 1 181 0
  53 000c F3B2     		uxtb	r3, r6
  54              	.LVL4:
 182:Generated_Source\PSoC4/cyfitter_cfg.c **** 		baseAddr &= 0xFFFFFF00u;
  55              		.loc 1 182 0
  56 000e FF22     		movs	r2, #255
  57 0010 9643     		bics	r6, r2
  58              	.LVL5:
 183:Generated_Source\PSoC4/cyfitter_cfg.c **** 		while (count != 0u)
  59              		.loc 1 183 0
  60 0012 08E0     		b	.L3
  61              	.L4:
 184:Generated_Source\PSoC4/cyfitter_cfg.c **** 		{
 185:Generated_Source\PSoC4/cyfitter_cfg.c **** 			CY_SET_REG8((void *)(baseAddr + data_table[j].offset), data_table[j].value);
  62              		.loc 1 185 0
  63 0014 6A00     		lsls	r2, r5, #1
  64 0016 8A18     		adds	r2, r1, r2
  65 0018 1478     		ldrb	r4, [r2]
  66 001a A419     		adds	r4, r4, r6
  67 001c 5278     		ldrb	r2, [r2, #1]
  68 001e 2270     		strb	r2, [r4]
 186:Generated_Source\PSoC4/cyfitter_cfg.c **** 			j++;
  69              		.loc 1 186 0
  70 0020 0135     		adds	r5, r5, #1
  71              	.LVL6:
 187:Generated_Source\PSoC4/cyfitter_cfg.c **** 			count--;
  72              		.loc 1 187 0
  73 0022 013B     		subs	r3, r3, #1
  74              	.LVL7:
  75 0024 DBB2     		uxtb	r3, r3
  76              	.LVL8:
  77              	.L3:
 183:Generated_Source\PSoC4/cyfitter_cfg.c **** 		{
  78              		.loc 1 183 0
  79 0026 002B     		cmp	r3, #0
  80 0028 F4D1     		bne	.L4
  81              	.LBE2:
 178:Generated_Source\PSoC4/cyfitter_cfg.c **** 	{
  82              		.loc 1 178 0 discriminator 2
  83 002a 0137     		adds	r7, r7, #1
  84              	.LVL9:
  85              	.L2:
 178:Generated_Source\PSoC4/cyfitter_cfg.c **** 	{
  86              		.loc 1 178 0 is_stmt 0 discriminator 1
  87 002c 112F     		cmp	r7, #17
  88 002e EBD9     		bls	.L5
 188:Generated_Source\PSoC4/cyfitter_cfg.c **** 		}
 189:Generated_Source\PSoC4/cyfitter_cfg.c **** 	}
 190:Generated_Source\PSoC4/cyfitter_cfg.c **** }
  89              		.loc 1 190 0 is_stmt 1
  90              		@ sp needed
  91              	.LVL10:
  92              	.LVL11:
ARM GAS  C:\Users\TERENC~1\AppData\Local\Temp\ccZN0dQJ.s 			page 6


  93 0030 F0BD     		pop	{r4, r5, r6, r7, pc}
  94              		.cfi_endproc
  95              	.LFE4:
  96              		.size	cfg_write_bytes32, .-cfg_write_bytes32
  97 0032 C046     		.section	.text.CYMEMZERO,"ax",%progbits
  98              		.align	2
  99              		.code	16
 100              		.thumb_func
 101              		.type	CYMEMZERO, %function
 102              	CYMEMZERO:
 103              	.LFB1:
  77:Generated_Source\PSoC4/cyfitter_cfg.c **** 	(void)memset(s, 0, n);
 104              		.loc 1 77 0
 105              		.cfi_startproc
 106              		@ args = 0, pretend = 0, frame = 0
 107              		@ frame_needed = 0, uses_anonymous_args = 0
 108              	.LVL12:
 109 0000 10B5     		push	{r4, lr}
 110              		.cfi_def_cfa_offset 8
 111              		.cfi_offset 4, -8
 112              		.cfi_offset 14, -4
 113 0002 0A00     		movs	r2, r1
  78:Generated_Source\PSoC4/cyfitter_cfg.c **** }
 114              		.loc 1 78 0
 115 0004 0021     		movs	r1, #0
 116              	.LVL13:
 117 0006 FFF7FEFF 		bl	memset
 118              	.LVL14:
  79:Generated_Source\PSoC4/cyfitter_cfg.c **** CY_CFG_UNUSED
 119              		.loc 1 79 0
 120              		@ sp needed
 121 000a 10BD     		pop	{r4, pc}
 122              		.cfi_endproc
 123              	.LFE1:
 124              		.size	CYMEMZERO, .-CYMEMZERO
 125              		.section	.text.CYCONFIGCPYCODE,"ax",%progbits
 126              		.align	2
 127              		.code	16
 128              		.thumb_func
 129              		.type	CYCONFIGCPYCODE, %function
 130              	CYCONFIGCPYCODE:
 131              	.LFB3:
  91:Generated_Source\PSoC4/cyfitter_cfg.c **** 	(void)memcpy(dest, src, n);
 132              		.loc 1 91 0
 133              		.cfi_startproc
 134              		@ args = 0, pretend = 0, frame = 0
 135              		@ frame_needed = 0, uses_anonymous_args = 0
 136              	.LVL15:
 137 0000 10B5     		push	{r4, lr}
 138              		.cfi_def_cfa_offset 8
 139              		.cfi_offset 4, -8
 140              		.cfi_offset 14, -4
  92:Generated_Source\PSoC4/cyfitter_cfg.c **** }
 141              		.loc 1 92 0
 142 0002 FFF7FEFF 		bl	memcpy
 143              	.LVL16:
  93:Generated_Source\PSoC4/cyfitter_cfg.c **** 
ARM GAS  C:\Users\TERENC~1\AppData\Local\Temp\ccZN0dQJ.s 			page 7


 144              		.loc 1 93 0
 145              		@ sp needed
 146 0006 10BD     		pop	{r4, pc}
 147              		.cfi_endproc
 148              	.LFE3:
 149              		.size	CYCONFIGCPYCODE, .-CYCONFIGCPYCODE
 150              		.section	.psocinit,"ax",%progbits
 151              		.align	2
 152              		.code	16
 153              		.thumb_func
 154              		.type	ClockSetup, %function
 155              	ClockSetup:
 156              	.LFB5:
 191:Generated_Source\PSoC4/cyfitter_cfg.c **** 
 192:Generated_Source\PSoC4/cyfitter_cfg.c **** 
 193:Generated_Source\PSoC4/cyfitter_cfg.c **** /*******************************************************************************
 194:Generated_Source\PSoC4/cyfitter_cfg.c **** * Function Name: ClockSetup
 195:Generated_Source\PSoC4/cyfitter_cfg.c **** ********************************************************************************
 196:Generated_Source\PSoC4/cyfitter_cfg.c **** *
 197:Generated_Source\PSoC4/cyfitter_cfg.c **** * Summary:
 198:Generated_Source\PSoC4/cyfitter_cfg.c **** *   Performs the initialization of all of the clocks in the device based on the
 199:Generated_Source\PSoC4/cyfitter_cfg.c **** *   settings in the Clock tab of the DWR.  This includes enabling the requested
 200:Generated_Source\PSoC4/cyfitter_cfg.c **** *   clocks and setting the necessary dividers to produce the desired frequency. 
 201:Generated_Source\PSoC4/cyfitter_cfg.c **** *
 202:Generated_Source\PSoC4/cyfitter_cfg.c **** * Parameters:
 203:Generated_Source\PSoC4/cyfitter_cfg.c **** *   void
 204:Generated_Source\PSoC4/cyfitter_cfg.c **** *
 205:Generated_Source\PSoC4/cyfitter_cfg.c **** * Return:
 206:Generated_Source\PSoC4/cyfitter_cfg.c **** *   void
 207:Generated_Source\PSoC4/cyfitter_cfg.c **** *
 208:Generated_Source\PSoC4/cyfitter_cfg.c **** *******************************************************************************/
 209:Generated_Source\PSoC4/cyfitter_cfg.c **** static void ClockSetup(void);
 210:Generated_Source\PSoC4/cyfitter_cfg.c **** CY_CFG_SECTION
 211:Generated_Source\PSoC4/cyfitter_cfg.c **** static void ClockSetup(void)
 212:Generated_Source\PSoC4/cyfitter_cfg.c **** {
 157              		.loc 1 212 0
 158              		.cfi_startproc
 159              		@ args = 0, pretend = 0, frame = 0
 160              		@ frame_needed = 0, uses_anonymous_args = 0
 161 0000 70B5     		push	{r4, r5, r6, lr}
 162              		.cfi_def_cfa_offset 16
 163              		.cfi_offset 4, -16
 164              		.cfi_offset 5, -12
 165              		.cfi_offset 6, -8
 166              		.cfi_offset 14, -4
 213:Generated_Source\PSoC4/cyfitter_cfg.c **** 	uint8 pllTimeout;
 214:Generated_Source\PSoC4/cyfitter_cfg.c **** 
 215:Generated_Source\PSoC4/cyfitter_cfg.c **** 	/* Set Flash Cycles based on max possible frequency in case a glitch occurs during ClockSetup(). *
 216:Generated_Source\PSoC4/cyfitter_cfg.c **** 	CY_SET_REG32((void CYXDATA *)(CYREG_CPUSS_FLASH_CTL), (0x0012u));
 167              		.loc 1 216 0
 168 0002 1222     		movs	r2, #18
 169 0004 4F4B     		ldr	r3, .L13
 170 0006 1A60     		str	r2, [r3]
 217:Generated_Source\PSoC4/cyfitter_cfg.c **** 
 218:Generated_Source\PSoC4/cyfitter_cfg.c **** 	/* Start the WCO */
 219:Generated_Source\PSoC4/cyfitter_cfg.c **** 	CySysClkWcoStart();
 171              		.loc 1 219 0
ARM GAS  C:\Users\TERENC~1\AppData\Local\Temp\ccZN0dQJ.s 			page 8


 172 0008 FFF7FEFF 		bl	CySysClkWcoStart
 173              	.LVL17:
 220:Generated_Source\PSoC4/cyfitter_cfg.c **** 	CyDelayCycles(12000000u); /* WCO may take up to 500ms to start */
 174              		.loc 1 220 0
 175 000c 4E48     		ldr	r0, .L13+4
 176 000e FFF7FEFF 		bl	CyDelayCycles
 177              	.LVL18:
 221:Generated_Source\PSoC4/cyfitter_cfg.c **** 
 222:Generated_Source\PSoC4/cyfitter_cfg.c **** 	CySysClkImoEnableUsbLock();
 178              		.loc 1 222 0
 179 0012 FFF7FEFF 		bl	CySysClkImoEnableUsbLock
 180              	.LVL19:
 223:Generated_Source\PSoC4/cyfitter_cfg.c **** 	/* Setup and trim IMO based on desired frequency. */
 224:Generated_Source\PSoC4/cyfitter_cfg.c **** 	CySysClkWriteImoFreq(48u);
 181              		.loc 1 224 0
 182 0016 3020     		movs	r0, #48
 183 0018 FFF7FEFF 		bl	CySysClkWriteImoFreq
 184              	.LVL20:
 225:Generated_Source\PSoC4/cyfitter_cfg.c **** 	/* CYDEV_CLK_ILO_CONFIG Starting address: CYDEV_CLK_ILO_CONFIG */
 226:Generated_Source\PSoC4/cyfitter_cfg.c **** 	CY_SET_REG32((void *)(CYREG_CLK_ILO_CONFIG), 0x80000006u);
 185              		.loc 1 226 0
 186 001c 4B4A     		ldr	r2, .L13+8
 187 001e 4C4B     		ldr	r3, .L13+12
 188 0020 1A60     		str	r2, [r3]
 227:Generated_Source\PSoC4/cyfitter_cfg.c **** 
 228:Generated_Source\PSoC4/cyfitter_cfg.c **** 	/* CYDEV_WDT_CONFIG Starting address: CYDEV_WDT_CONFIG */
 229:Generated_Source\PSoC4/cyfitter_cfg.c **** 	CY_SET_REG32((void *)(CYREG_WDT_CONFIG), 0x40000000u);
 189              		.loc 1 229 0
 190 0022 8022     		movs	r2, #128
 191 0024 D205     		lsls	r2, r2, #23
 192 0026 4B4B     		ldr	r3, .L13+16
 193 0028 1A60     		str	r2, [r3]
 230:Generated_Source\PSoC4/cyfitter_cfg.c **** 
 231:Generated_Source\PSoC4/cyfitter_cfg.c **** 
 232:Generated_Source\PSoC4/cyfitter_cfg.c **** 	/* Configure ECO trim */
 233:Generated_Source\PSoC4/cyfitter_cfg.c **** 	CY_SET_REG32((void CYXDATA *)(CYREG_CLK_ECO_CONFIG), (0x00000000u));
 194              		.loc 1 233 0
 195 002a 0022     		movs	r2, #0
 196 002c 4A4B     		ldr	r3, .L13+20
 197 002e 1A60     		str	r2, [r3]
 234:Generated_Source\PSoC4/cyfitter_cfg.c **** 	CY_SET_REG32((void CYXDATA *)(CYREG_CLK_ECO_TRIM0), (0x0000001Fu));
 198              		.loc 1 234 0
 199 0030 1F32     		adds	r2, r2, #31
 200 0032 4A4B     		ldr	r3, .L13+24
 201 0034 1A60     		str	r2, [r3]
 235:Generated_Source\PSoC4/cyfitter_cfg.c **** 	CY_SET_REG32((void CYXDATA *)(CYREG_CLK_ECO_TRIM1), (0x0000001Au));
 202              		.loc 1 235 0
 203 0036 053A     		subs	r2, r2, #5
 204 0038 494B     		ldr	r3, .L13+28
 205 003a 1A60     		str	r2, [r3]
 236:Generated_Source\PSoC4/cyfitter_cfg.c **** 	/* Start the ECO and do not check status since it is not needed for HFCLK */
 237:Generated_Source\PSoC4/cyfitter_cfg.c **** 	(void)CySysClkEcoStart(2000u);
 206              		.loc 1 237 0
 207 003c FA20     		movs	r0, #250
 208 003e C000     		lsls	r0, r0, #3
 209 0040 FFF7FEFF 		bl	CySysClkEcoStart
 210              	.LVL21:
ARM GAS  C:\Users\TERENC~1\AppData\Local\Temp\ccZN0dQJ.s 			page 9


 238:Generated_Source\PSoC4/cyfitter_cfg.c **** 	CyDelayUs(1500u); /* Wait to stabilize */
 211              		.loc 1 238 0
 212 0044 4748     		ldr	r0, .L13+32
 213 0046 FFF7FEFF 		bl	CyDelayUs
 214              	.LVL22:
 239:Generated_Source\PSoC4/cyfitter_cfg.c **** 	CY_SET_REG32(CYREG_CLK_SELECT, ((CY_GET_REG32(CYREG_CLK_SELECT) & 0xFFFFFE07u) | 0x00000090u));
 215              		.loc 1 239 0
 216 004a 4749     		ldr	r1, .L13+36
 217 004c 0A68     		ldr	r2, [r1]
 218 004e 474B     		ldr	r3, .L13+40
 219 0050 1340     		ands	r3, r2
 220 0052 9022     		movs	r2, #144
 221 0054 1343     		orrs	r3, r2
 222 0056 0B60     		str	r3, [r1]
 240:Generated_Source\PSoC4/cyfitter_cfg.c **** 	CY_SET_REG32(CYREG_CLK_PLL0_CONFIG, 0x8002060Au);
 223              		.loc 1 240 0
 224 0058 454D     		ldr	r5, .L13+44
 225 005a 464B     		ldr	r3, .L13+48
 226 005c 2B60     		str	r3, [r5]
 241:Generated_Source\PSoC4/cyfitter_cfg.c **** 	CY_SET_REG32(CYREG_CLK_PLL1_CONFIG, 0x80020F15u);
 227              		.loc 1 241 0
 228 005e 464C     		ldr	r4, .L13+52
 229 0060 464B     		ldr	r3, .L13+56
 230 0062 2360     		str	r3, [r4]
 242:Generated_Source\PSoC4/cyfitter_cfg.c **** 	CyDelayCycles(240u);
 231              		.loc 1 242 0
 232 0064 F020     		movs	r0, #240
 233 0066 FFF7FEFF 		bl	CyDelayCycles
 234              	.LVL23:
 243:Generated_Source\PSoC4/cyfitter_cfg.c **** 	CY_SET_REG32(CYREG_CLK_PLL0_CONFIG, 0xC002060Au);
 235              		.loc 1 243 0
 236 006a 454B     		ldr	r3, .L13+60
 237 006c 2B60     		str	r3, [r5]
 244:Generated_Source\PSoC4/cyfitter_cfg.c **** 	CY_SET_REG32(CYREG_CLK_PLL1_CONFIG, 0xC0020F15u);
 238              		.loc 1 244 0
 239 006e 454B     		ldr	r3, .L13+64
 240 0070 2360     		str	r3, [r4]
 241              	.LVL24:
 245:Generated_Source\PSoC4/cyfitter_cfg.c **** 	for (pllTimeout = 0u; (pllTimeout < 25u) && ((CY_GET_REG32(CYREG_CLK_PLL0_STATUS) == 0u) || (CY_GE
 242              		.loc 1 245 0
 243 0072 0024     		movs	r4, #0
 244 0074 05E0     		b	.L9
 245              	.LVL25:
 246              	.L11:
 246:Generated_Source\PSoC4/cyfitter_cfg.c **** 	{
 247:Generated_Source\PSoC4/cyfitter_cfg.c **** 		CyDelayCycles(480u);
 247              		.loc 1 247 0 discriminator 6
 248 0076 F020     		movs	r0, #240
 249 0078 4000     		lsls	r0, r0, #1
 250 007a FFF7FEFF 		bl	CyDelayCycles
 251              	.LVL26:
 245:Generated_Source\PSoC4/cyfitter_cfg.c **** 	for (pllTimeout = 0u; (pllTimeout < 25u) && ((CY_GET_REG32(CYREG_CLK_PLL0_STATUS) == 0u) || (CY_GE
 252              		.loc 1 245 0 discriminator 6
 253 007e 0134     		adds	r4, r4, #1
 254              	.LVL27:
 255 0080 E4B2     		uxtb	r4, r4
 256              	.LVL28:
ARM GAS  C:\Users\TERENC~1\AppData\Local\Temp\ccZN0dQJ.s 			page 10


 257              	.L9:
 245:Generated_Source\PSoC4/cyfitter_cfg.c **** 	for (pllTimeout = 0u; (pllTimeout < 25u) && ((CY_GET_REG32(CYREG_CLK_PLL0_STATUS) == 0u) || (CY_GE
 258              		.loc 1 245 0 is_stmt 0 discriminator 1
 259 0082 182C     		cmp	r4, #24
 260 0084 07D8     		bhi	.L10
 245:Generated_Source\PSoC4/cyfitter_cfg.c **** 	for (pllTimeout = 0u; (pllTimeout < 25u) && ((CY_GET_REG32(CYREG_CLK_PLL0_STATUS) == 0u) || (CY_GE
 261              		.loc 1 245 0 discriminator 3
 262 0086 404B     		ldr	r3, .L13+68
 263 0088 1B68     		ldr	r3, [r3]
 264 008a 002B     		cmp	r3, #0
 265 008c F3D0     		beq	.L11
 245:Generated_Source\PSoC4/cyfitter_cfg.c **** 	for (pllTimeout = 0u; (pllTimeout < 25u) && ((CY_GET_REG32(CYREG_CLK_PLL0_STATUS) == 0u) || (CY_GE
 266              		.loc 1 245 0 discriminator 5
 267 008e 3F4B     		ldr	r3, .L13+72
 268 0090 1B68     		ldr	r3, [r3]
 269 0092 002B     		cmp	r3, #0
 270 0094 EFD0     		beq	.L11
 271              	.L10:
 248:Generated_Source\PSoC4/cyfitter_cfg.c **** 	}
 249:Generated_Source\PSoC4/cyfitter_cfg.c **** 
 250:Generated_Source\PSoC4/cyfitter_cfg.c **** 	/* Setup phase aligned clocks */
 251:Generated_Source\PSoC4/cyfitter_cfg.c **** 	CY_SET_REG32((void *)CYREG_PERI_DIV_16_CTL1, 0x00000300u);
 272              		.loc 1 251 0 is_stmt 1
 273 0096 C022     		movs	r2, #192
 274 0098 9200     		lsls	r2, r2, #2
 275 009a 3D4B     		ldr	r3, .L13+76
 276 009c 1A60     		str	r2, [r3]
 252:Generated_Source\PSoC4/cyfitter_cfg.c **** 	CY_SET_REG32((void *)CYREG_PERI_DIV_CMD, 0x8000FF41u);
 277              		.loc 1 252 0
 278 009e 3D4B     		ldr	r3, .L13+80
 279 00a0 3D4A     		ldr	r2, .L13+84
 280 00a2 1A60     		str	r2, [r3]
 253:Generated_Source\PSoC4/cyfitter_cfg.c **** 	CY_SET_REG32((void *)CYREG_PERI_DIV_16_CTL0, 0x00000000u);
 281              		.loc 1 253 0
 282 00a4 0021     		movs	r1, #0
 283 00a6 3D4A     		ldr	r2, .L13+88
 284 00a8 1160     		str	r1, [r2]
 254:Generated_Source\PSoC4/cyfitter_cfg.c **** 	CY_SET_REG32((void *)CYREG_PERI_DIV_CMD, 0x8000FF40u);
 285              		.loc 1 254 0
 286 00aa 3D4A     		ldr	r2, .L13+92
 287 00ac 1A60     		str	r2, [r3]
 255:Generated_Source\PSoC4/cyfitter_cfg.c **** 	CY_SET_REG32((void *)CYREG_PERI_DIV_16_CTL3, 0x00001700u);
 288              		.loc 1 255 0
 289 00ae B821     		movs	r1, #184
 290 00b0 4901     		lsls	r1, r1, #5
 291 00b2 3C4A     		ldr	r2, .L13+96
 292 00b4 1160     		str	r1, [r2]
 256:Generated_Source\PSoC4/cyfitter_cfg.c **** 	CY_SET_REG32((void *)CYREG_PERI_DIV_CMD, 0x8000FF43u);
 293              		.loc 1 256 0
 294 00b6 3C4A     		ldr	r2, .L13+100
 295 00b8 1A60     		str	r2, [r3]
 257:Generated_Source\PSoC4/cyfitter_cfg.c **** 	CY_SET_REG32((void *)CYREG_PERI_DIV_16_CTL4, 0x00002200u);
 296              		.loc 1 257 0
 297 00ba 8821     		movs	r1, #136
 298 00bc 8901     		lsls	r1, r1, #6
 299 00be 3B4A     		ldr	r2, .L13+104
 300 00c0 1160     		str	r1, [r2]
ARM GAS  C:\Users\TERENC~1\AppData\Local\Temp\ccZN0dQJ.s 			page 11


 258:Generated_Source\PSoC4/cyfitter_cfg.c **** 	CY_SET_REG32((void *)CYREG_PERI_DIV_CMD, 0x8000FF44u);
 301              		.loc 1 258 0
 302 00c2 3B4A     		ldr	r2, .L13+108
 303 00c4 1A60     		str	r2, [r3]
 259:Generated_Source\PSoC4/cyfitter_cfg.c **** 	CY_SET_REG32((void *)CYREG_PERI_DIV_16_CTL2, 0x00000500u);
 304              		.loc 1 259 0
 305 00c6 A021     		movs	r1, #160
 306 00c8 C900     		lsls	r1, r1, #3
 307 00ca 3A4A     		ldr	r2, .L13+112
 308 00cc 1160     		str	r1, [r2]
 260:Generated_Source\PSoC4/cyfitter_cfg.c **** 	CY_SET_REG32((void *)CYREG_PERI_DIV_CMD, 0x8000FF42u);
 309              		.loc 1 260 0
 310 00ce 3A4A     		ldr	r2, .L13+116
 311 00d0 1A60     		str	r2, [r3]
 261:Generated_Source\PSoC4/cyfitter_cfg.c **** 
 262:Generated_Source\PSoC4/cyfitter_cfg.c **** 	/* CYDEV_CLK_IMO_CONFIG Starting address: CYDEV_CLK_IMO_CONFIG */
 263:Generated_Source\PSoC4/cyfitter_cfg.c **** 	CY_SET_REG32((void *)(CYREG_CLK_IMO_CONFIG), 0x82000000u);
 312              		.loc 1 263 0
 313 00d2 8222     		movs	r2, #130
 314 00d4 1206     		lsls	r2, r2, #24
 315 00d6 394B     		ldr	r3, .L13+120
 316 00d8 1A60     		str	r2, [r3]
 264:Generated_Source\PSoC4/cyfitter_cfg.c **** 
 265:Generated_Source\PSoC4/cyfitter_cfg.c **** 	/* CYDEV_CLK_SELECT Starting address: CYDEV_CLK_SELECT */
 266:Generated_Source\PSoC4/cyfitter_cfg.c **** 	CY_SET_REG32((void *)(CYREG_CLK_SELECT), 0x00040090u);
 317              		.loc 1 266 0
 318 00da 394A     		ldr	r2, .L13+124
 319 00dc 224B     		ldr	r3, .L13+36
 320 00de 1A60     		str	r2, [r3]
 267:Generated_Source\PSoC4/cyfitter_cfg.c **** 
 268:Generated_Source\PSoC4/cyfitter_cfg.c **** 	/* CYDEV_PERI_PCLK_CTL18 Starting address: CYDEV_PERI_PCLK_CTL18 */
 269:Generated_Source\PSoC4/cyfitter_cfg.c **** 	CY_SET_REG32((void *)(CYREG_PERI_PCLK_CTL18), 0x00000041u);
 321              		.loc 1 269 0
 322 00e0 4123     		movs	r3, #65
 323 00e2 384A     		ldr	r2, .L13+128
 324 00e4 1360     		str	r3, [r2]
 270:Generated_Source\PSoC4/cyfitter_cfg.c **** 
 271:Generated_Source\PSoC4/cyfitter_cfg.c **** 	/* CYDEV_PERI_PCLK_CTL17 Starting address: CYDEV_PERI_PCLK_CTL17 */
 272:Generated_Source\PSoC4/cyfitter_cfg.c **** 	CY_SET_REG32((void *)(CYREG_PERI_PCLK_CTL17), 0x00000041u);
 325              		.loc 1 272 0
 326 00e6 384A     		ldr	r2, .L13+132
 327 00e8 1360     		str	r3, [r2]
 273:Generated_Source\PSoC4/cyfitter_cfg.c **** 
 274:Generated_Source\PSoC4/cyfitter_cfg.c **** 	/* CYDEV_PERI_PCLK_CTL16 Starting address: CYDEV_PERI_PCLK_CTL16 */
 275:Generated_Source\PSoC4/cyfitter_cfg.c **** 	CY_SET_REG32((void *)(CYREG_PERI_PCLK_CTL16), 0x00000041u);
 328              		.loc 1 275 0
 329 00ea 384A     		ldr	r2, .L13+136
 330 00ec 1360     		str	r3, [r2]
 276:Generated_Source\PSoC4/cyfitter_cfg.c **** 
 277:Generated_Source\PSoC4/cyfitter_cfg.c **** 	/* CYDEV_PERI_PCLK_CTL12 Starting address: CYDEV_PERI_PCLK_CTL12 */
 278:Generated_Source\PSoC4/cyfitter_cfg.c **** 	CY_SET_REG32((void *)(CYREG_PERI_PCLK_CTL12), 0x00000040u);
 331              		.loc 1 278 0
 332 00ee 013B     		subs	r3, r3, #1
 333 00f0 374A     		ldr	r2, .L13+140
 334 00f2 1360     		str	r3, [r2]
 279:Generated_Source\PSoC4/cyfitter_cfg.c **** 
 280:Generated_Source\PSoC4/cyfitter_cfg.c **** 	/* CYDEV_PERI_PCLK_CTL11 Starting address: CYDEV_PERI_PCLK_CTL11 */
ARM GAS  C:\Users\TERENC~1\AppData\Local\Temp\ccZN0dQJ.s 			page 12


 281:Generated_Source\PSoC4/cyfitter_cfg.c **** 	CY_SET_REG32((void *)(CYREG_PERI_PCLK_CTL11), 0x00000040u);
 335              		.loc 1 281 0
 336 00f4 374A     		ldr	r2, .L13+144
 337 00f6 1360     		str	r3, [r2]
 282:Generated_Source\PSoC4/cyfitter_cfg.c **** 
 283:Generated_Source\PSoC4/cyfitter_cfg.c **** 	/* CYDEV_PERI_PCLK_CTL10 Starting address: CYDEV_PERI_PCLK_CTL10 */
 284:Generated_Source\PSoC4/cyfitter_cfg.c **** 	CY_SET_REG32((void *)(CYREG_PERI_PCLK_CTL10), 0x00000043u);
 338              		.loc 1 284 0
 339 00f8 4322     		movs	r2, #67
 340 00fa 374B     		ldr	r3, .L13+148
 341 00fc 1A60     		str	r2, [r3]
 285:Generated_Source\PSoC4/cyfitter_cfg.c **** 
 286:Generated_Source\PSoC4/cyfitter_cfg.c **** 	/* CYDEV_PERI_PCLK_CTL5 Starting address: CYDEV_PERI_PCLK_CTL5 */
 287:Generated_Source\PSoC4/cyfitter_cfg.c **** 	CY_SET_REG32((void *)(CYREG_PERI_PCLK_CTL5), 0x00000044u);
 342              		.loc 1 287 0
 343 00fe 0132     		adds	r2, r2, #1
 344 0100 364B     		ldr	r3, .L13+152
 345 0102 1A60     		str	r2, [r3]
 288:Generated_Source\PSoC4/cyfitter_cfg.c **** 
 289:Generated_Source\PSoC4/cyfitter_cfg.c **** 	/* CYDEV_PERI_PCLK_CTL2 Starting address: CYDEV_PERI_PCLK_CTL2 */
 290:Generated_Source\PSoC4/cyfitter_cfg.c **** 	CY_SET_REG32((void *)(CYREG_PERI_PCLK_CTL2), 0x00000042u);
 346              		.loc 1 290 0
 347 0104 023A     		subs	r2, r2, #2
 348 0106 364B     		ldr	r3, .L13+156
 349 0108 1A60     		str	r2, [r3]
 291:Generated_Source\PSoC4/cyfitter_cfg.c **** 
 292:Generated_Source\PSoC4/cyfitter_cfg.c **** 	(void)CyIntSetVector(8u, &CySysWdtIsr);
 350              		.loc 1 292 0
 351 010a 3649     		ldr	r1, .L13+160
 352 010c 0820     		movs	r0, #8
 353 010e FFF7FEFF 		bl	CyIntSetVector
 354              	.LVL29:
 293:Generated_Source\PSoC4/cyfitter_cfg.c **** 	CyIntEnable(8u);
 355              		.loc 1 293 0
 356 0112 0820     		movs	r0, #8
 357 0114 FFF7FEFF 		bl	CyIntEnable
 358              	.LVL30:
 294:Generated_Source\PSoC4/cyfitter_cfg.c **** 	CY_SET_REG32((void *)(CYREG_WDT_MATCH), 0x001F0000u);
 359              		.loc 1 294 0
 360 0118 F822     		movs	r2, #248
 361 011a 5203     		lsls	r2, r2, #13
 362 011c 324B     		ldr	r3, .L13+164
 363 011e 1A60     		str	r2, [r3]
 295:Generated_Source\PSoC4/cyfitter_cfg.c **** 	CY_SET_REG32((void *)(CYREG_WDT_CONFIG), 0x40000000u);
 364              		.loc 1 295 0
 365 0120 8022     		movs	r2, #128
 366 0122 D205     		lsls	r2, r2, #23
 367 0124 0B4B     		ldr	r3, .L13+16
 368 0126 1A60     		str	r2, [r3]
 296:Generated_Source\PSoC4/cyfitter_cfg.c **** 	CY_SET_REG32((void *)(CYREG_WDT_CONTROL), 0x00000800u);
 369              		.loc 1 296 0
 370 0128 8022     		movs	r2, #128
 371 012a 1201     		lsls	r2, r2, #4
 372 012c 2F4B     		ldr	r3, .L13+168
 373 012e 1A60     		str	r2, [r3]
 374              	.L12:
 297:Generated_Source\PSoC4/cyfitter_cfg.c **** 	while ((CY_GET_XTND_REG32((void CYFAR *)(CYREG_WDT_CONTROL)) & 0x00000800u) != 0u) { }
ARM GAS  C:\Users\TERENC~1\AppData\Local\Temp\ccZN0dQJ.s 			page 13


 375              		.loc 1 297 0 discriminator 1
 376 0130 2E4B     		ldr	r3, .L13+168
 377 0132 1B68     		ldr	r3, [r3]
 378 0134 1B05     		lsls	r3, r3, #20
 379 0136 FBD4     		bmi	.L12
 298:Generated_Source\PSoC4/cyfitter_cfg.c **** 	CY_SET_REG32((void *)(CYREG_WDT_CONTROL), 0x00000100u);
 380              		.loc 1 298 0
 381 0138 8022     		movs	r2, #128
 382 013a 5200     		lsls	r2, r2, #1
 383 013c 2B4B     		ldr	r3, .L13+168
 384 013e 1A60     		str	r2, [r3]
 299:Generated_Source\PSoC4/cyfitter_cfg.c **** }
 385              		.loc 1 299 0
 386              		@ sp needed
 387              	.LVL31:
 388 0140 70BD     		pop	{r4, r5, r6, pc}
 389              	.L14:
 390 0142 C046     		.align	2
 391              	.L13:
 392 0144 30001040 		.word	1074790448
 393 0148 001BB700 		.word	12000000
 394 014c 06000080 		.word	-2147483642
 395 0150 04010B40 		.word	1074462980
 396 0154 0C020B40 		.word	1074463244
 397 0158 08000C40 		.word	1074528264
 398 015c 0CFF0C40 		.word	1074593548
 399 0160 10FF0C40 		.word	1074593552
 400 0164 DC050000 		.word	1500
 401 0168 00010B40 		.word	1074462976
 402 016c 07FEFFFF 		.word	-505
 403 0170 14000C40 		.word	1074528276
 404 0174 0A060280 		.word	-2147351030
 405 0178 20000C40 		.word	1074528288
 406 017c 150F0280 		.word	-2147348715
 407 0180 0A0602C0 		.word	-1073609206
 408 0184 150F02C0 		.word	-1073606891
 409 0188 18000C40 		.word	1074528280
 410 018c 24000C40 		.word	1074528292
 411 0190 04030140 		.word	1073808132
 412 0194 00000140 		.word	1073807360
 413 0198 41FF0080 		.word	-2147418303
 414 019c 00030140 		.word	1073808128
 415 01a0 40FF0080 		.word	-2147418304
 416 01a4 0C030140 		.word	1073808140
 417 01a8 43FF0080 		.word	-2147418301
 418 01ac 10030140 		.word	1073808144
 419 01b0 44FF0080 		.word	-2147418300
 420 01b4 08030140 		.word	1073808136
 421 01b8 42FF0080 		.word	-2147418302
 422 01bc 08010B40 		.word	1074462984
 423 01c0 90000400 		.word	262288
 424 01c4 48010140 		.word	1073807688
 425 01c8 44010140 		.word	1073807684
 426 01cc 40010140 		.word	1073807680
 427 01d0 30010140 		.word	1073807664
 428 01d4 2C010140 		.word	1073807660
 429 01d8 28010140 		.word	1073807656
ARM GAS  C:\Users\TERENC~1\AppData\Local\Temp\ccZN0dQJ.s 			page 14


 430 01dc 14010140 		.word	1073807636
 431 01e0 08010140 		.word	1073807624
 432 01e4 00000000 		.word	CySysWdtIsr
 433 01e8 08020B40 		.word	1074463240
 434 01ec 10020B40 		.word	1074463248
 435              		.cfi_endproc
 436              	.LFE5:
 437              		.size	ClockSetup, .-ClockSetup
 438              		.section	.text.SetAnalogRoutingPumps,"ax",%progbits
 439              		.align	2
 440              		.global	SetAnalogRoutingPumps
 441              		.code	16
 442              		.thumb_func
 443              		.type	SetAnalogRoutingPumps, %function
 444              	SetAnalogRoutingPumps:
 445              	.LFB7:
 300:Generated_Source\PSoC4/cyfitter_cfg.c **** 
 301:Generated_Source\PSoC4/cyfitter_cfg.c **** 
 302:Generated_Source\PSoC4/cyfitter_cfg.c **** /* Analog API Functions */
 303:Generated_Source\PSoC4/cyfitter_cfg.c **** 
 304:Generated_Source\PSoC4/cyfitter_cfg.c **** 
 305:Generated_Source\PSoC4/cyfitter_cfg.c **** /*******************************************************************************
 306:Generated_Source\PSoC4/cyfitter_cfg.c **** * Function Name: AnalogSetDefault
 307:Generated_Source\PSoC4/cyfitter_cfg.c **** ********************************************************************************
 308:Generated_Source\PSoC4/cyfitter_cfg.c **** *
 309:Generated_Source\PSoC4/cyfitter_cfg.c **** * Summary:
 310:Generated_Source\PSoC4/cyfitter_cfg.c **** *  Sets up the analog portions of the chip to default values based on chip
 311:Generated_Source\PSoC4/cyfitter_cfg.c **** *  configuration options from the project.
 312:Generated_Source\PSoC4/cyfitter_cfg.c **** *
 313:Generated_Source\PSoC4/cyfitter_cfg.c **** * Parameters:
 314:Generated_Source\PSoC4/cyfitter_cfg.c **** *  void
 315:Generated_Source\PSoC4/cyfitter_cfg.c **** *
 316:Generated_Source\PSoC4/cyfitter_cfg.c **** * Return:
 317:Generated_Source\PSoC4/cyfitter_cfg.c **** *  void
 318:Generated_Source\PSoC4/cyfitter_cfg.c **** *
 319:Generated_Source\PSoC4/cyfitter_cfg.c **** *******************************************************************************/
 320:Generated_Source\PSoC4/cyfitter_cfg.c **** static void AnalogSetDefault(void);
 321:Generated_Source\PSoC4/cyfitter_cfg.c **** static void AnalogSetDefault(void)
 322:Generated_Source\PSoC4/cyfitter_cfg.c **** {
 323:Generated_Source\PSoC4/cyfitter_cfg.c **** 	CY_SET_XTND_REG32((void CYFAR *)CYREG_HSIOM_AMUX_SPLIT_CTL1, 0x00000033u);
 324:Generated_Source\PSoC4/cyfitter_cfg.c **** 	CY_SET_XTND_REG32((void CYFAR *)CYREG_HSIOM_AMUX_SPLIT_CTL2, 0x00000033u);
 325:Generated_Source\PSoC4/cyfitter_cfg.c **** 	CY_SET_XTND_REG32((void CYFAR *)CYREG_CTBM0_DFT_CTRL, 0x00000003u);
 326:Generated_Source\PSoC4/cyfitter_cfg.c **** 	CY_SET_XTND_REG32((void CYFAR *)CYREG_CTBM1_DFT_CTRL, 0x00000003u);
 327:Generated_Source\PSoC4/cyfitter_cfg.c **** 	CY_SET_XTND_REG32((void CYFAR *)CYREG_SAR_CTRL, 0x80000000u);
 328:Generated_Source\PSoC4/cyfitter_cfg.c **** 	CY_SET_XTND_REG32((void CYFAR *)CYREG_SAR_MUX_SWITCH0, 0x000C0000u);
 329:Generated_Source\PSoC4/cyfitter_cfg.c **** 	CY_SET_XTND_REG32((void CYFAR *)CYREG_SAR_MUX_SWITCH_HW_CTRL, 0x000C0000u);
 330:Generated_Source\PSoC4/cyfitter_cfg.c **** 	CY_SET_XTND_REG32((void CYFAR *)CYREG_PASS_DSAB_DSAB_CTRL, 0x00000000u);
 331:Generated_Source\PSoC4/cyfitter_cfg.c **** 	SetAnalogRoutingPumps(1);
 332:Generated_Source\PSoC4/cyfitter_cfg.c **** }
 333:Generated_Source\PSoC4/cyfitter_cfg.c **** 
 334:Generated_Source\PSoC4/cyfitter_cfg.c **** 
 335:Generated_Source\PSoC4/cyfitter_cfg.c **** /*******************************************************************************
 336:Generated_Source\PSoC4/cyfitter_cfg.c **** * Function Name: SetAnalogRoutingPumps
 337:Generated_Source\PSoC4/cyfitter_cfg.c **** ********************************************************************************
 338:Generated_Source\PSoC4/cyfitter_cfg.c **** *
 339:Generated_Source\PSoC4/cyfitter_cfg.c **** * Summary:
 340:Generated_Source\PSoC4/cyfitter_cfg.c **** * Enables or disables the analog pumps feeding analog routing switches.
ARM GAS  C:\Users\TERENC~1\AppData\Local\Temp\ccZN0dQJ.s 			page 15


 341:Generated_Source\PSoC4/cyfitter_cfg.c **** * Intended to be called at startup, based on the Vdda system configuration;
 342:Generated_Source\PSoC4/cyfitter_cfg.c **** * may be called during operation when the user informs us that the Vdda voltage crossed the pump th
 343:Generated_Source\PSoC4/cyfitter_cfg.c **** *
 344:Generated_Source\PSoC4/cyfitter_cfg.c **** * Parameters:
 345:Generated_Source\PSoC4/cyfitter_cfg.c **** *  enabled - 1 to enable the pumps, 0 to disable the pumps
 346:Generated_Source\PSoC4/cyfitter_cfg.c **** *
 347:Generated_Source\PSoC4/cyfitter_cfg.c **** * Return:
 348:Generated_Source\PSoC4/cyfitter_cfg.c **** *  void
 349:Generated_Source\PSoC4/cyfitter_cfg.c **** *
 350:Generated_Source\PSoC4/cyfitter_cfg.c **** *******************************************************************************/
 351:Generated_Source\PSoC4/cyfitter_cfg.c **** void SetAnalogRoutingPumps(uint8 enabled)
 352:Generated_Source\PSoC4/cyfitter_cfg.c **** {
 446              		.loc 1 352 0
 447              		.cfi_startproc
 448              		@ args = 0, pretend = 0, frame = 0
 449              		@ frame_needed = 0, uses_anonymous_args = 0
 450              		@ link register save eliminated.
 451              	.LVL32:
 353:Generated_Source\PSoC4/cyfitter_cfg.c **** 	uint32 regValue = CY_GET_XTND_REG32((void *)(CYREG_SAR_PUMP_CTRL));
 452              		.loc 1 353 0
 453 0000 064B     		ldr	r3, .L18
 454 0002 1B68     		ldr	r3, [r3]
 455              	.LVL33:
 354:Generated_Source\PSoC4/cyfitter_cfg.c **** 	if (enabled != 0u)
 456              		.loc 1 354 0
 457 0004 0028     		cmp	r0, #0
 458 0006 03D0     		beq	.L16
 355:Generated_Source\PSoC4/cyfitter_cfg.c **** 	{
 356:Generated_Source\PSoC4/cyfitter_cfg.c **** 		regValue |= 0x80000000u;
 459              		.loc 1 356 0
 460 0008 8022     		movs	r2, #128
 461 000a 1206     		lsls	r2, r2, #24
 462 000c 1343     		orrs	r3, r2
 463              	.LVL34:
 464 000e 01E0     		b	.L17
 465              	.L16:
 357:Generated_Source\PSoC4/cyfitter_cfg.c **** 	}
 358:Generated_Source\PSoC4/cyfitter_cfg.c **** 	else
 359:Generated_Source\PSoC4/cyfitter_cfg.c **** 	{
 360:Generated_Source\PSoC4/cyfitter_cfg.c **** 		regValue &= ~0x80000000u;
 466              		.loc 1 360 0
 467 0010 5B00     		lsls	r3, r3, #1
 468              	.LVL35:
 469 0012 5B08     		lsrs	r3, r3, #1
 470              	.LVL36:
 471              	.L17:
 361:Generated_Source\PSoC4/cyfitter_cfg.c **** 	}
 362:Generated_Source\PSoC4/cyfitter_cfg.c **** 	CY_SET_XTND_REG32((void *)(CYREG_SAR_PUMP_CTRL), regValue);
 472              		.loc 1 362 0
 473 0014 014A     		ldr	r2, .L18
 474 0016 1360     		str	r3, [r2]
 363:Generated_Source\PSoC4/cyfitter_cfg.c **** }
 475              		.loc 1 363 0
 476              		@ sp needed
 477 0018 7047     		bx	lr
 478              	.L19:
 479 001a C046     		.align	2
ARM GAS  C:\Users\TERENC~1\AppData\Local\Temp\ccZN0dQJ.s 			page 16


 480              	.L18:
 481 001c 80033A40 		.word	1077543808
 482              		.cfi_endproc
 483              	.LFE7:
 484              		.size	SetAnalogRoutingPumps, .-SetAnalogRoutingPumps
 485              		.section	.text.AnalogSetDefault,"ax",%progbits
 486              		.align	2
 487              		.code	16
 488              		.thumb_func
 489              		.type	AnalogSetDefault, %function
 490              	AnalogSetDefault:
 491              	.LFB6:
 322:Generated_Source\PSoC4/cyfitter_cfg.c **** 	CY_SET_XTND_REG32((void CYFAR *)CYREG_HSIOM_AMUX_SPLIT_CTL1, 0x00000033u);
 492              		.loc 1 322 0
 493              		.cfi_startproc
 494              		@ args = 0, pretend = 0, frame = 0
 495              		@ frame_needed = 0, uses_anonymous_args = 0
 496 0000 10B5     		push	{r4, lr}
 497              		.cfi_def_cfa_offset 8
 498              		.cfi_offset 4, -8
 499              		.cfi_offset 14, -4
 323:Generated_Source\PSoC4/cyfitter_cfg.c **** 	CY_SET_XTND_REG32((void CYFAR *)CYREG_HSIOM_AMUX_SPLIT_CTL2, 0x00000033u);
 500              		.loc 1 323 0
 501 0002 3323     		movs	r3, #51
 502 0004 0C4A     		ldr	r2, .L21
 503 0006 1360     		str	r3, [r2]
 324:Generated_Source\PSoC4/cyfitter_cfg.c **** 	CY_SET_XTND_REG32((void CYFAR *)CYREG_CTBM0_DFT_CTRL, 0x00000003u);
 504              		.loc 1 324 0
 505 0008 0C4A     		ldr	r2, .L21+4
 506 000a 1360     		str	r3, [r2]
 325:Generated_Source\PSoC4/cyfitter_cfg.c **** 	CY_SET_XTND_REG32((void CYFAR *)CYREG_CTBM1_DFT_CTRL, 0x00000003u);
 507              		.loc 1 325 0
 508 000c 303B     		subs	r3, r3, #48
 509 000e 0C4A     		ldr	r2, .L21+8
 510 0010 1360     		str	r3, [r2]
 326:Generated_Source\PSoC4/cyfitter_cfg.c **** 	CY_SET_XTND_REG32((void CYFAR *)CYREG_SAR_CTRL, 0x80000000u);
 511              		.loc 1 326 0
 512 0012 0C4A     		ldr	r2, .L21+12
 513 0014 1360     		str	r3, [r2]
 327:Generated_Source\PSoC4/cyfitter_cfg.c **** 	CY_SET_XTND_REG32((void CYFAR *)CYREG_SAR_MUX_SWITCH0, 0x000C0000u);
 514              		.loc 1 327 0
 515 0016 8022     		movs	r2, #128
 516 0018 1206     		lsls	r2, r2, #24
 517 001a 0B4B     		ldr	r3, .L21+16
 518 001c 1A60     		str	r2, [r3]
 328:Generated_Source\PSoC4/cyfitter_cfg.c **** 	CY_SET_XTND_REG32((void CYFAR *)CYREG_SAR_MUX_SWITCH_HW_CTRL, 0x000C0000u);
 519              		.loc 1 328 0
 520 001e C023     		movs	r3, #192
 521 0020 1B03     		lsls	r3, r3, #12
 522 0022 0A4A     		ldr	r2, .L21+20
 523 0024 1360     		str	r3, [r2]
 329:Generated_Source\PSoC4/cyfitter_cfg.c **** 	CY_SET_XTND_REG32((void CYFAR *)CYREG_PASS_DSAB_DSAB_CTRL, 0x00000000u);
 524              		.loc 1 329 0
 525 0026 0A4A     		ldr	r2, .L21+24
 526 0028 1360     		str	r3, [r2]
 330:Generated_Source\PSoC4/cyfitter_cfg.c **** 	SetAnalogRoutingPumps(1);
 527              		.loc 1 330 0
ARM GAS  C:\Users\TERENC~1\AppData\Local\Temp\ccZN0dQJ.s 			page 17


 528 002a 0022     		movs	r2, #0
 529 002c 094B     		ldr	r3, .L21+28
 530 002e 1A60     		str	r2, [r3]
 331:Generated_Source\PSoC4/cyfitter_cfg.c **** }
 531              		.loc 1 331 0
 532 0030 0120     		movs	r0, #1
 533 0032 FFF7FEFF 		bl	SetAnalogRoutingPumps
 534              	.LVL37:
 332:Generated_Source\PSoC4/cyfitter_cfg.c **** 
 535              		.loc 1 332 0
 536              		@ sp needed
 537 0036 10BD     		pop	{r4, pc}
 538              	.L22:
 539              		.align	2
 540              	.L21:
 541 0038 04210240 		.word	1073881348
 542 003c 08210240 		.word	1073881352
 543 0040 30003040 		.word	1076887600
 544 0044 30003140 		.word	1076953136
 545 0048 00003A40 		.word	1077542912
 546 004c 00033A40 		.word	1077543680
 547 0050 40033A40 		.word	1077543744
 548 0054 000E3F40 		.word	1077874176
 549              		.cfi_endproc
 550              	.LFE6:
 551              		.size	AnalogSetDefault, .-AnalogSetDefault
 552              		.section	.psocinit
 553              		.align	2
 554              		.global	cyfitter_cfg
 555              		.code	16
 556              		.thumb_func
 557              		.type	cyfitter_cfg, %function
 558              	cyfitter_cfg:
 559              	.LFB8:
 364:Generated_Source\PSoC4/cyfitter_cfg.c **** 
 365:Generated_Source\PSoC4/cyfitter_cfg.c **** 
 366:Generated_Source\PSoC4/cyfitter_cfg.c **** 
 367:Generated_Source\PSoC4/cyfitter_cfg.c **** 
 368:Generated_Source\PSoC4/cyfitter_cfg.c **** /*******************************************************************************
 369:Generated_Source\PSoC4/cyfitter_cfg.c **** * Function Name: cyfitter_cfg
 370:Generated_Source\PSoC4/cyfitter_cfg.c **** ********************************************************************************
 371:Generated_Source\PSoC4/cyfitter_cfg.c **** * Summary:
 372:Generated_Source\PSoC4/cyfitter_cfg.c **** *  This function is called by the start-up code for the selected device. It
 373:Generated_Source\PSoC4/cyfitter_cfg.c **** *  performs all of the necessary device configuration based on the design
 374:Generated_Source\PSoC4/cyfitter_cfg.c **** *  settings.  This includes settings from the Design Wide Resources (DWR) such
 375:Generated_Source\PSoC4/cyfitter_cfg.c **** *  as Clocks and Pins as well as any component configuration that is necessary.
 376:Generated_Source\PSoC4/cyfitter_cfg.c **** *
 377:Generated_Source\PSoC4/cyfitter_cfg.c **** * Parameters:
 378:Generated_Source\PSoC4/cyfitter_cfg.c **** *   void
 379:Generated_Source\PSoC4/cyfitter_cfg.c **** *
 380:Generated_Source\PSoC4/cyfitter_cfg.c **** * Return:
 381:Generated_Source\PSoC4/cyfitter_cfg.c **** *   void
 382:Generated_Source\PSoC4/cyfitter_cfg.c **** *
 383:Generated_Source\PSoC4/cyfitter_cfg.c **** *******************************************************************************/
 384:Generated_Source\PSoC4/cyfitter_cfg.c **** CY_CFG_SECTION
 385:Generated_Source\PSoC4/cyfitter_cfg.c **** void cyfitter_cfg(void)
 386:Generated_Source\PSoC4/cyfitter_cfg.c **** {
ARM GAS  C:\Users\TERENC~1\AppData\Local\Temp\ccZN0dQJ.s 			page 18


 560              		.loc 1 386 0
 561              		.cfi_startproc
 562              		@ args = 0, pretend = 0, frame = 0
 563              		@ frame_needed = 0, uses_anonymous_args = 0
 564 01f0 70B5     		push	{r4, r5, r6, lr}
 565              		.cfi_def_cfa_offset 16
 566              		.cfi_offset 4, -16
 567              		.cfi_offset 5, -12
 568              		.cfi_offset 6, -8
 569              		.cfi_offset 14, -4
 387:Generated_Source\PSoC4/cyfitter_cfg.c **** 	/* Disable interrupts by default. Let user enable if/when they want. */
 388:Generated_Source\PSoC4/cyfitter_cfg.c **** 	CyGlobalIntDisable;
 570              		.loc 1 388 0
 571              		.syntax divided
 572              	@ 388 "Generated_Source\PSoC4\cyfitter_cfg.c" 1
 573 01f2 72B6     		CPSID   i
 574              	@ 0 "" 2
 389:Generated_Source\PSoC4/cyfitter_cfg.c **** 
 390:Generated_Source\PSoC4/cyfitter_cfg.c **** 	/* Enable the clock in the interrupt controller for the routed interrupts */
 391:Generated_Source\PSoC4/cyfitter_cfg.c **** 	CY_SET_REG8((void *)CYREG_UDB_UDB_INT_CLK_CTL, 0x01u);
 575              		.loc 1 391 0
 576              		.thumb
 577              		.syntax unified
 578 01f4 0122     		movs	r2, #1
 579 01f6 5F4B     		ldr	r3, .L28
 580 01f8 1A70     		strb	r2, [r3]
 581              	.LVL38:
 582              	.LBB3:
 392:Generated_Source\PSoC4/cyfitter_cfg.c **** 	{
 393:Generated_Source\PSoC4/cyfitter_cfg.c **** 		static const uint32 CYCODE cy_cfg_addr_table[] = {
 394:Generated_Source\PSoC4/cyfitter_cfg.c **** 			0x400F0002u, /* Base address: 0x400F0000 Count: 2 */
 395:Generated_Source\PSoC4/cyfitter_cfg.c **** 			0x400F3050u, /* Base address: 0x400F3000 Count: 80 */
 396:Generated_Source\PSoC4/cyfitter_cfg.c **** 			0x400F3136u, /* Base address: 0x400F3100 Count: 54 */
 397:Generated_Source\PSoC4/cyfitter_cfg.c **** 			0x400F320Au, /* Base address: 0x400F3200 Count: 10 */
 398:Generated_Source\PSoC4/cyfitter_cfg.c **** 			0x400F334Au, /* Base address: 0x400F3300 Count: 74 */
 399:Generated_Source\PSoC4/cyfitter_cfg.c **** 			0x400F343Cu, /* Base address: 0x400F3400 Count: 60 */
 400:Generated_Source\PSoC4/cyfitter_cfg.c **** 			0x400F3548u, /* Base address: 0x400F3500 Count: 72 */
 401:Generated_Source\PSoC4/cyfitter_cfg.c **** 			0x400F3615u, /* Base address: 0x400F3600 Count: 21 */
 402:Generated_Source\PSoC4/cyfitter_cfg.c **** 			0x400F3749u, /* Base address: 0x400F3700 Count: 73 */
 403:Generated_Source\PSoC4/cyfitter_cfg.c **** 			0x400F4009u, /* Base address: 0x400F4000 Count: 9 */
 404:Generated_Source\PSoC4/cyfitter_cfg.c **** 			0x400F4104u, /* Base address: 0x400F4100 Count: 4 */
 405:Generated_Source\PSoC4/cyfitter_cfg.c **** 			0x400F4205u, /* Base address: 0x400F4200 Count: 5 */
 406:Generated_Source\PSoC4/cyfitter_cfg.c **** 			0x400F4305u, /* Base address: 0x400F4300 Count: 5 */
 407:Generated_Source\PSoC4/cyfitter_cfg.c **** 			0x400F4408u, /* Base address: 0x400F4400 Count: 8 */
 408:Generated_Source\PSoC4/cyfitter_cfg.c **** 			0x400F4505u, /* Base address: 0x400F4500 Count: 5 */
 409:Generated_Source\PSoC4/cyfitter_cfg.c **** 			0x400F4605u, /* Base address: 0x400F4600 Count: 5 */
 410:Generated_Source\PSoC4/cyfitter_cfg.c **** 			0x400F4710u, /* Base address: 0x400F4700 Count: 16 */
 411:Generated_Source\PSoC4/cyfitter_cfg.c **** 			0x400F6002u, /* Base address: 0x400F6000 Count: 2 */
 412:Generated_Source\PSoC4/cyfitter_cfg.c **** 		};
 413:Generated_Source\PSoC4/cyfitter_cfg.c **** 
 414:Generated_Source\PSoC4/cyfitter_cfg.c **** 		static const cy_cfg_addrvalue_t CYCODE cy_cfg_data_table[] = {
 415:Generated_Source\PSoC4/cyfitter_cfg.c **** 			{0x81u, 0x0Du},
 416:Generated_Source\PSoC4/cyfitter_cfg.c **** 			{0x85u, 0x7Fu},
 417:Generated_Source\PSoC4/cyfitter_cfg.c **** 			{0x02u, 0x01u},
 418:Generated_Source\PSoC4/cyfitter_cfg.c **** 			{0x0Du, 0x01u},
 419:Generated_Source\PSoC4/cyfitter_cfg.c **** 			{0x0Fu, 0x02u},
 420:Generated_Source\PSoC4/cyfitter_cfg.c **** 			{0x13u, 0x02u},
ARM GAS  C:\Users\TERENC~1\AppData\Local\Temp\ccZN0dQJ.s 			page 19


 421:Generated_Source\PSoC4/cyfitter_cfg.c **** 			{0x16u, 0x01u},
 422:Generated_Source\PSoC4/cyfitter_cfg.c **** 			{0x17u, 0x01u},
 423:Generated_Source\PSoC4/cyfitter_cfg.c **** 			{0x30u, 0x01u},
 424:Generated_Source\PSoC4/cyfitter_cfg.c **** 			{0x31u, 0x03u},
 425:Generated_Source\PSoC4/cyfitter_cfg.c **** 			{0x3Au, 0x30u},
 426:Generated_Source\PSoC4/cyfitter_cfg.c **** 			{0x3Eu, 0x01u},
 427:Generated_Source\PSoC4/cyfitter_cfg.c **** 			{0x3Fu, 0x01u},
 428:Generated_Source\PSoC4/cyfitter_cfg.c **** 			{0x52u, 0x80u},
 429:Generated_Source\PSoC4/cyfitter_cfg.c **** 			{0x58u, 0x04u},
 430:Generated_Source\PSoC4/cyfitter_cfg.c **** 			{0x59u, 0x04u},
 431:Generated_Source\PSoC4/cyfitter_cfg.c **** 			{0x5Bu, 0x09u},
 432:Generated_Source\PSoC4/cyfitter_cfg.c **** 			{0x5Cu, 0x08u},
 433:Generated_Source\PSoC4/cyfitter_cfg.c **** 			{0x5Du, 0x90u},
 434:Generated_Source\PSoC4/cyfitter_cfg.c **** 			{0x5Fu, 0x01u},
 435:Generated_Source\PSoC4/cyfitter_cfg.c **** 			{0x82u, 0x01u},
 436:Generated_Source\PSoC4/cyfitter_cfg.c **** 			{0x83u, 0x3Fu},
 437:Generated_Source\PSoC4/cyfitter_cfg.c **** 			{0x89u, 0x01u},
 438:Generated_Source\PSoC4/cyfitter_cfg.c **** 			{0x8Au, 0x04u},
 439:Generated_Source\PSoC4/cyfitter_cfg.c **** 			{0x8Bu, 0xC0u},
 440:Generated_Source\PSoC4/cyfitter_cfg.c **** 			{0x8Cu, 0x04u},
 441:Generated_Source\PSoC4/cyfitter_cfg.c **** 			{0x8Du, 0xFFu},
 442:Generated_Source\PSoC4/cyfitter_cfg.c **** 			{0x8Eu, 0x08u},
 443:Generated_Source\PSoC4/cyfitter_cfg.c **** 			{0x91u, 0x04u},
 444:Generated_Source\PSoC4/cyfitter_cfg.c **** 			{0x92u, 0x10u},
 445:Generated_Source\PSoC4/cyfitter_cfg.c **** 			{0x93u, 0xC0u},
 446:Generated_Source\PSoC4/cyfitter_cfg.c **** 			{0x95u, 0x02u},
 447:Generated_Source\PSoC4/cyfitter_cfg.c **** 			{0x96u, 0x01u},
 448:Generated_Source\PSoC4/cyfitter_cfg.c **** 			{0x97u, 0xC0u},
 449:Generated_Source\PSoC4/cyfitter_cfg.c **** 			{0x98u, 0x08u},
 450:Generated_Source\PSoC4/cyfitter_cfg.c **** 			{0x99u, 0x40u},
 451:Generated_Source\PSoC4/cyfitter_cfg.c **** 			{0x9Au, 0x04u},
 452:Generated_Source\PSoC4/cyfitter_cfg.c **** 			{0x9Bu, 0x80u},
 453:Generated_Source\PSoC4/cyfitter_cfg.c **** 			{0x9Cu, 0x20u},
 454:Generated_Source\PSoC4/cyfitter_cfg.c **** 			{0x9Fu, 0x7Fu},
 455:Generated_Source\PSoC4/cyfitter_cfg.c **** 			{0xA1u, 0x08u},
 456:Generated_Source\PSoC4/cyfitter_cfg.c **** 			{0xA2u, 0x10u},
 457:Generated_Source\PSoC4/cyfitter_cfg.c **** 			{0xA3u, 0xC0u},
 458:Generated_Source\PSoC4/cyfitter_cfg.c **** 			{0xA5u, 0x10u},
 459:Generated_Source\PSoC4/cyfitter_cfg.c **** 			{0xA7u, 0xC0u},
 460:Generated_Source\PSoC4/cyfitter_cfg.c **** 			{0xA9u, 0xC0u},
 461:Generated_Source\PSoC4/cyfitter_cfg.c **** 			{0xAAu, 0x02u},
 462:Generated_Source\PSoC4/cyfitter_cfg.c **** 			{0xABu, 0x20u},
 463:Generated_Source\PSoC4/cyfitter_cfg.c **** 			{0xAEu, 0x03u},
 464:Generated_Source\PSoC4/cyfitter_cfg.c **** 			{0xAFu, 0x80u},
 465:Generated_Source\PSoC4/cyfitter_cfg.c **** 			{0xB0u, 0x03u},
 466:Generated_Source\PSoC4/cyfitter_cfg.c **** 			{0xB2u, 0x0Cu},
 467:Generated_Source\PSoC4/cyfitter_cfg.c **** 			{0xB4u, 0x10u},
 468:Generated_Source\PSoC4/cyfitter_cfg.c **** 			{0xB6u, 0x20u},
 469:Generated_Source\PSoC4/cyfitter_cfg.c **** 			{0xB7u, 0xFFu},
 470:Generated_Source\PSoC4/cyfitter_cfg.c **** 			{0xBEu, 0x10u},
 471:Generated_Source\PSoC4/cyfitter_cfg.c **** 			{0xC0u, 0x45u},
 472:Generated_Source\PSoC4/cyfitter_cfg.c **** 			{0xC5u, 0xECu},
 473:Generated_Source\PSoC4/cyfitter_cfg.c **** 			{0xC6u, 0x02u},
 474:Generated_Source\PSoC4/cyfitter_cfg.c **** 			{0xC8u, 0x07u},
 475:Generated_Source\PSoC4/cyfitter_cfg.c **** 			{0xC9u, 0xFFu},
 476:Generated_Source\PSoC4/cyfitter_cfg.c **** 			{0xCAu, 0xFFu},
 477:Generated_Source\PSoC4/cyfitter_cfg.c **** 			{0xCBu, 0xFFu},
ARM GAS  C:\Users\TERENC~1\AppData\Local\Temp\ccZN0dQJ.s 			page 20


 478:Generated_Source\PSoC4/cyfitter_cfg.c **** 			{0xCFu, 0x01u},
 479:Generated_Source\PSoC4/cyfitter_cfg.c **** 			{0xD0u, 0x18u},
 480:Generated_Source\PSoC4/cyfitter_cfg.c **** 			{0xD4u, 0x01u},
 481:Generated_Source\PSoC4/cyfitter_cfg.c **** 			{0xD8u, 0x04u},
 482:Generated_Source\PSoC4/cyfitter_cfg.c **** 			{0xD9u, 0x04u},
 483:Generated_Source\PSoC4/cyfitter_cfg.c **** 			{0xDAu, 0x08u},
 484:Generated_Source\PSoC4/cyfitter_cfg.c **** 			{0xDBu, 0x08u},
 485:Generated_Source\PSoC4/cyfitter_cfg.c **** 			{0xDCu, 0x88u},
 486:Generated_Source\PSoC4/cyfitter_cfg.c **** 			{0xDDu, 0x99u},
 487:Generated_Source\PSoC4/cyfitter_cfg.c **** 			{0xDFu, 0x31u},
 488:Generated_Source\PSoC4/cyfitter_cfg.c **** 			{0xE0u, 0x40u},
 489:Generated_Source\PSoC4/cyfitter_cfg.c **** 			{0xE2u, 0x40u},
 490:Generated_Source\PSoC4/cyfitter_cfg.c **** 			{0xE4u, 0x40u},
 491:Generated_Source\PSoC4/cyfitter_cfg.c **** 			{0xE5u, 0x40u},
 492:Generated_Source\PSoC4/cyfitter_cfg.c **** 			{0xE6u, 0x80u},
 493:Generated_Source\PSoC4/cyfitter_cfg.c **** 			{0xE8u, 0x80u},
 494:Generated_Source\PSoC4/cyfitter_cfg.c **** 			{0xEAu, 0x80u},
 495:Generated_Source\PSoC4/cyfitter_cfg.c **** 			{0xECu, 0x80u},
 496:Generated_Source\PSoC4/cyfitter_cfg.c **** 			{0xEEu, 0x80u},
 497:Generated_Source\PSoC4/cyfitter_cfg.c **** 			{0x01u, 0x02u},
 498:Generated_Source\PSoC4/cyfitter_cfg.c **** 			{0x04u, 0x60u},
 499:Generated_Source\PSoC4/cyfitter_cfg.c **** 			{0x05u, 0x02u},
 500:Generated_Source\PSoC4/cyfitter_cfg.c **** 			{0x09u, 0x08u},
 501:Generated_Source\PSoC4/cyfitter_cfg.c **** 			{0x0Du, 0x2Au},
 502:Generated_Source\PSoC4/cyfitter_cfg.c **** 			{0x0Fu, 0x02u},
 503:Generated_Source\PSoC4/cyfitter_cfg.c **** 			{0x14u, 0x01u},
 504:Generated_Source\PSoC4/cyfitter_cfg.c **** 			{0x16u, 0x80u},
 505:Generated_Source\PSoC4/cyfitter_cfg.c **** 			{0x17u, 0x10u},
 506:Generated_Source\PSoC4/cyfitter_cfg.c **** 			{0x1Au, 0x88u},
 507:Generated_Source\PSoC4/cyfitter_cfg.c **** 			{0x1Du, 0x08u},
 508:Generated_Source\PSoC4/cyfitter_cfg.c **** 			{0x1Eu, 0x40u},
 509:Generated_Source\PSoC4/cyfitter_cfg.c **** 			{0x1Fu, 0x50u},
 510:Generated_Source\PSoC4/cyfitter_cfg.c **** 			{0x22u, 0x02u},
 511:Generated_Source\PSoC4/cyfitter_cfg.c **** 			{0x26u, 0x80u},
 512:Generated_Source\PSoC4/cyfitter_cfg.c **** 			{0x27u, 0x02u},
 513:Generated_Source\PSoC4/cyfitter_cfg.c **** 			{0x2Cu, 0x81u},
 514:Generated_Source\PSoC4/cyfitter_cfg.c **** 			{0x2Fu, 0x24u},
 515:Generated_Source\PSoC4/cyfitter_cfg.c **** 			{0x30u, 0x02u},
 516:Generated_Source\PSoC4/cyfitter_cfg.c **** 			{0x32u, 0x08u},
 517:Generated_Source\PSoC4/cyfitter_cfg.c **** 			{0x34u, 0x20u},
 518:Generated_Source\PSoC4/cyfitter_cfg.c **** 			{0x35u, 0x04u},
 519:Generated_Source\PSoC4/cyfitter_cfg.c **** 			{0x36u, 0x80u},
 520:Generated_Source\PSoC4/cyfitter_cfg.c **** 			{0x37u, 0x01u},
 521:Generated_Source\PSoC4/cyfitter_cfg.c **** 			{0x39u, 0x40u},
 522:Generated_Source\PSoC4/cyfitter_cfg.c **** 			{0x3Eu, 0x60u},
 523:Generated_Source\PSoC4/cyfitter_cfg.c **** 			{0x3Fu, 0x02u},
 524:Generated_Source\PSoC4/cyfitter_cfg.c **** 			{0x45u, 0x02u},
 525:Generated_Source\PSoC4/cyfitter_cfg.c **** 			{0x4Du, 0x04u},
 526:Generated_Source\PSoC4/cyfitter_cfg.c **** 			{0x4Fu, 0x81u},
 527:Generated_Source\PSoC4/cyfitter_cfg.c **** 			{0x56u, 0x80u},
 528:Generated_Source\PSoC4/cyfitter_cfg.c **** 			{0x57u, 0x40u},
 529:Generated_Source\PSoC4/cyfitter_cfg.c **** 			{0x5Cu, 0x80u},
 530:Generated_Source\PSoC4/cyfitter_cfg.c **** 			{0x5Du, 0x04u},
 531:Generated_Source\PSoC4/cyfitter_cfg.c **** 			{0x5Fu, 0x01u},
 532:Generated_Source\PSoC4/cyfitter_cfg.c **** 			{0x6Du, 0x40u},
 533:Generated_Source\PSoC4/cyfitter_cfg.c **** 			{0x71u, 0x02u},
 534:Generated_Source\PSoC4/cyfitter_cfg.c **** 			{0x7Au, 0x06u},
ARM GAS  C:\Users\TERENC~1\AppData\Local\Temp\ccZN0dQJ.s 			page 21


 535:Generated_Source\PSoC4/cyfitter_cfg.c **** 			{0x7Du, 0x01u},
 536:Generated_Source\PSoC4/cyfitter_cfg.c **** 			{0x7Fu, 0x01u},
 537:Generated_Source\PSoC4/cyfitter_cfg.c **** 			{0x82u, 0x40u},
 538:Generated_Source\PSoC4/cyfitter_cfg.c **** 			{0x83u, 0x10u},
 539:Generated_Source\PSoC4/cyfitter_cfg.c **** 			{0x86u, 0x04u},
 540:Generated_Source\PSoC4/cyfitter_cfg.c **** 			{0x88u, 0x02u},
 541:Generated_Source\PSoC4/cyfitter_cfg.c **** 			{0xC0u, 0xD8u},
 542:Generated_Source\PSoC4/cyfitter_cfg.c **** 			{0xC2u, 0xF4u},
 543:Generated_Source\PSoC4/cyfitter_cfg.c **** 			{0xC4u, 0xD0u},
 544:Generated_Source\PSoC4/cyfitter_cfg.c **** 			{0xCAu, 0xF0u},
 545:Generated_Source\PSoC4/cyfitter_cfg.c **** 			{0xCCu, 0xF3u},
 546:Generated_Source\PSoC4/cyfitter_cfg.c **** 			{0xCEu, 0xB8u},
 547:Generated_Source\PSoC4/cyfitter_cfg.c **** 			{0xD0u, 0x80u},
 548:Generated_Source\PSoC4/cyfitter_cfg.c **** 			{0xD2u, 0x10u},
 549:Generated_Source\PSoC4/cyfitter_cfg.c **** 			{0xD6u, 0xD0u},
 550:Generated_Source\PSoC4/cyfitter_cfg.c **** 			{0xDEu, 0x9Cu},
 551:Generated_Source\PSoC4/cyfitter_cfg.c **** 			{0x35u, 0x01u},
 552:Generated_Source\PSoC4/cyfitter_cfg.c **** 			{0x3Au, 0x03u},
 553:Generated_Source\PSoC4/cyfitter_cfg.c **** 			{0x3Fu, 0x10u},
 554:Generated_Source\PSoC4/cyfitter_cfg.c **** 			{0x56u, 0x08u},
 555:Generated_Source\PSoC4/cyfitter_cfg.c **** 			{0x58u, 0x04u},
 556:Generated_Source\PSoC4/cyfitter_cfg.c **** 			{0x59u, 0x04u},
 557:Generated_Source\PSoC4/cyfitter_cfg.c **** 			{0x5Bu, 0x04u},
 558:Generated_Source\PSoC4/cyfitter_cfg.c **** 			{0x5Cu, 0x08u},
 559:Generated_Source\PSoC4/cyfitter_cfg.c **** 			{0x5Du, 0x90u},
 560:Generated_Source\PSoC4/cyfitter_cfg.c **** 			{0x5Fu, 0x11u},
 561:Generated_Source\PSoC4/cyfitter_cfg.c **** 			{0x02u, 0x04u},
 562:Generated_Source\PSoC4/cyfitter_cfg.c **** 			{0x03u, 0x60u},
 563:Generated_Source\PSoC4/cyfitter_cfg.c **** 			{0x09u, 0x08u},
 564:Generated_Source\PSoC4/cyfitter_cfg.c **** 			{0x0Au, 0x46u},
 565:Generated_Source\PSoC4/cyfitter_cfg.c **** 			{0x10u, 0x04u},
 566:Generated_Source\PSoC4/cyfitter_cfg.c **** 			{0x11u, 0x02u},
 567:Generated_Source\PSoC4/cyfitter_cfg.c **** 			{0x12u, 0x21u},
 568:Generated_Source\PSoC4/cyfitter_cfg.c **** 			{0x18u, 0x80u},
 569:Generated_Source\PSoC4/cyfitter_cfg.c **** 			{0x19u, 0x21u},
 570:Generated_Source\PSoC4/cyfitter_cfg.c **** 			{0x1Au, 0x44u},
 571:Generated_Source\PSoC4/cyfitter_cfg.c **** 			{0x1Eu, 0x80u},
 572:Generated_Source\PSoC4/cyfitter_cfg.c **** 			{0x21u, 0x10u},
 573:Generated_Source\PSoC4/cyfitter_cfg.c **** 			{0x22u, 0x20u},
 574:Generated_Source\PSoC4/cyfitter_cfg.c **** 			{0x23u, 0x10u},
 575:Generated_Source\PSoC4/cyfitter_cfg.c **** 			{0x25u, 0x10u},
 576:Generated_Source\PSoC4/cyfitter_cfg.c **** 			{0x28u, 0x04u},
 577:Generated_Source\PSoC4/cyfitter_cfg.c **** 			{0x29u, 0x05u},
 578:Generated_Source\PSoC4/cyfitter_cfg.c **** 			{0x2Au, 0xA4u},
 579:Generated_Source\PSoC4/cyfitter_cfg.c **** 			{0x30u, 0x80u},
 580:Generated_Source\PSoC4/cyfitter_cfg.c **** 			{0x31u, 0x08u},
 581:Generated_Source\PSoC4/cyfitter_cfg.c **** 			{0x32u, 0x01u},
 582:Generated_Source\PSoC4/cyfitter_cfg.c **** 			{0x33u, 0x60u},
 583:Generated_Source\PSoC4/cyfitter_cfg.c **** 			{0x38u, 0x08u},
 584:Generated_Source\PSoC4/cyfitter_cfg.c **** 			{0x39u, 0x20u},
 585:Generated_Source\PSoC4/cyfitter_cfg.c **** 			{0x3Au, 0x01u},
 586:Generated_Source\PSoC4/cyfitter_cfg.c **** 			{0x3Bu, 0x88u},
 587:Generated_Source\PSoC4/cyfitter_cfg.c **** 			{0x40u, 0x40u},
 588:Generated_Source\PSoC4/cyfitter_cfg.c **** 			{0x41u, 0x62u},
 589:Generated_Source\PSoC4/cyfitter_cfg.c **** 			{0x42u, 0x10u},
 590:Generated_Source\PSoC4/cyfitter_cfg.c **** 			{0x44u, 0x80u},
 591:Generated_Source\PSoC4/cyfitter_cfg.c **** 			{0x46u, 0x40u},
ARM GAS  C:\Users\TERENC~1\AppData\Local\Temp\ccZN0dQJ.s 			page 22


 592:Generated_Source\PSoC4/cyfitter_cfg.c **** 			{0x49u, 0x02u},
 593:Generated_Source\PSoC4/cyfitter_cfg.c **** 			{0x4Au, 0x0Au},
 594:Generated_Source\PSoC4/cyfitter_cfg.c **** 			{0x53u, 0x10u},
 595:Generated_Source\PSoC4/cyfitter_cfg.c **** 			{0x5Au, 0xA0u},
 596:Generated_Source\PSoC4/cyfitter_cfg.c **** 			{0x5Cu, 0x80u},
 597:Generated_Source\PSoC4/cyfitter_cfg.c **** 			{0x5Eu, 0x08u},
 598:Generated_Source\PSoC4/cyfitter_cfg.c **** 			{0x5Fu, 0x14u},
 599:Generated_Source\PSoC4/cyfitter_cfg.c **** 			{0x67u, 0x06u},
 600:Generated_Source\PSoC4/cyfitter_cfg.c **** 			{0x69u, 0x54u},
 601:Generated_Source\PSoC4/cyfitter_cfg.c **** 			{0x79u, 0x01u},
 602:Generated_Source\PSoC4/cyfitter_cfg.c **** 			{0x7Au, 0x40u},
 603:Generated_Source\PSoC4/cyfitter_cfg.c **** 			{0x7Eu, 0x14u},
 604:Generated_Source\PSoC4/cyfitter_cfg.c **** 			{0x7Fu, 0x10u},
 605:Generated_Source\PSoC4/cyfitter_cfg.c **** 			{0x91u, 0x80u},
 606:Generated_Source\PSoC4/cyfitter_cfg.c **** 			{0x92u, 0x88u},
 607:Generated_Source\PSoC4/cyfitter_cfg.c **** 			{0x93u, 0x80u},
 608:Generated_Source\PSoC4/cyfitter_cfg.c **** 			{0x94u, 0x60u},
 609:Generated_Source\PSoC4/cyfitter_cfg.c **** 			{0x95u, 0x01u},
 610:Generated_Source\PSoC4/cyfitter_cfg.c **** 			{0x97u, 0x0Au},
 611:Generated_Source\PSoC4/cyfitter_cfg.c **** 			{0x9Bu, 0x02u},
 612:Generated_Source\PSoC4/cyfitter_cfg.c **** 			{0x9Cu, 0x21u},
 613:Generated_Source\PSoC4/cyfitter_cfg.c **** 			{0x9Du, 0x06u},
 614:Generated_Source\PSoC4/cyfitter_cfg.c **** 			{0x9Eu, 0x20u},
 615:Generated_Source\PSoC4/cyfitter_cfg.c **** 			{0x9Fu, 0x01u},
 616:Generated_Source\PSoC4/cyfitter_cfg.c **** 			{0xA4u, 0x80u},
 617:Generated_Source\PSoC4/cyfitter_cfg.c **** 			{0xA5u, 0x20u},
 618:Generated_Source\PSoC4/cyfitter_cfg.c **** 			{0xA6u, 0x04u},
 619:Generated_Source\PSoC4/cyfitter_cfg.c **** 			{0xA7u, 0x21u},
 620:Generated_Source\PSoC4/cyfitter_cfg.c **** 			{0xACu, 0x80u},
 621:Generated_Source\PSoC4/cyfitter_cfg.c **** 			{0xAFu, 0x10u},
 622:Generated_Source\PSoC4/cyfitter_cfg.c **** 			{0xB5u, 0x48u},
 623:Generated_Source\PSoC4/cyfitter_cfg.c **** 			{0xB6u, 0x08u},
 624:Generated_Source\PSoC4/cyfitter_cfg.c **** 			{0xC0u, 0x0Eu},
 625:Generated_Source\PSoC4/cyfitter_cfg.c **** 			{0xC2u, 0x0Fu},
 626:Generated_Source\PSoC4/cyfitter_cfg.c **** 			{0xC4u, 0x0Fu},
 627:Generated_Source\PSoC4/cyfitter_cfg.c **** 			{0xCAu, 0x0Fu},
 628:Generated_Source\PSoC4/cyfitter_cfg.c **** 			{0xCCu, 0x0Fu},
 629:Generated_Source\PSoC4/cyfitter_cfg.c **** 			{0xCEu, 0x0Fu},
 630:Generated_Source\PSoC4/cyfitter_cfg.c **** 			{0xD0u, 0x0Fu},
 631:Generated_Source\PSoC4/cyfitter_cfg.c **** 			{0xD2u, 0x0Cu},
 632:Generated_Source\PSoC4/cyfitter_cfg.c **** 			{0xD6u, 0x3Cu},
 633:Generated_Source\PSoC4/cyfitter_cfg.c **** 			{0xD8u, 0x30u},
 634:Generated_Source\PSoC4/cyfitter_cfg.c **** 			{0xDEu, 0x21u},
 635:Generated_Source\PSoC4/cyfitter_cfg.c **** 			{0x00u, 0x80u},
 636:Generated_Source\PSoC4/cyfitter_cfg.c **** 			{0x02u, 0x04u},
 637:Generated_Source\PSoC4/cyfitter_cfg.c **** 			{0x04u, 0x80u},
 638:Generated_Source\PSoC4/cyfitter_cfg.c **** 			{0x06u, 0x10u},
 639:Generated_Source\PSoC4/cyfitter_cfg.c **** 			{0x07u, 0x02u},
 640:Generated_Source\PSoC4/cyfitter_cfg.c **** 			{0x08u, 0x80u},
 641:Generated_Source\PSoC4/cyfitter_cfg.c **** 			{0x0Au, 0x02u},
 642:Generated_Source\PSoC4/cyfitter_cfg.c **** 			{0x0Eu, 0x7Fu},
 643:Generated_Source\PSoC4/cyfitter_cfg.c **** 			{0x0Fu, 0x04u},
 644:Generated_Source\PSoC4/cyfitter_cfg.c **** 			{0x10u, 0xFFu},
 645:Generated_Source\PSoC4/cyfitter_cfg.c **** 			{0x11u, 0x01u},
 646:Generated_Source\PSoC4/cyfitter_cfg.c **** 			{0x14u, 0x80u},
 647:Generated_Source\PSoC4/cyfitter_cfg.c **** 			{0x16u, 0x01u},
 648:Generated_Source\PSoC4/cyfitter_cfg.c **** 			{0x17u, 0x01u},
ARM GAS  C:\Users\TERENC~1\AppData\Local\Temp\ccZN0dQJ.s 			page 23


 649:Generated_Source\PSoC4/cyfitter_cfg.c **** 			{0x19u, 0x01u},
 650:Generated_Source\PSoC4/cyfitter_cfg.c **** 			{0x1Eu, 0x7Fu},
 651:Generated_Source\PSoC4/cyfitter_cfg.c **** 			{0x20u, 0x80u},
 652:Generated_Source\PSoC4/cyfitter_cfg.c **** 			{0x22u, 0x08u},
 653:Generated_Source\PSoC4/cyfitter_cfg.c **** 			{0x26u, 0x80u},
 654:Generated_Source\PSoC4/cyfitter_cfg.c **** 			{0x28u, 0x80u},
 655:Generated_Source\PSoC4/cyfitter_cfg.c **** 			{0x2Au, 0x20u},
 656:Generated_Source\PSoC4/cyfitter_cfg.c **** 			{0x2Cu, 0x80u},
 657:Generated_Source\PSoC4/cyfitter_cfg.c **** 			{0x2Eu, 0x40u},
 658:Generated_Source\PSoC4/cyfitter_cfg.c **** 			{0x31u, 0x01u},
 659:Generated_Source\PSoC4/cyfitter_cfg.c **** 			{0x35u, 0x04u},
 660:Generated_Source\PSoC4/cyfitter_cfg.c **** 			{0x36u, 0xFFu},
 661:Generated_Source\PSoC4/cyfitter_cfg.c **** 			{0x37u, 0x02u},
 662:Generated_Source\PSoC4/cyfitter_cfg.c **** 			{0x56u, 0x08u},
 663:Generated_Source\PSoC4/cyfitter_cfg.c **** 			{0x58u, 0x04u},
 664:Generated_Source\PSoC4/cyfitter_cfg.c **** 			{0x59u, 0x04u},
 665:Generated_Source\PSoC4/cyfitter_cfg.c **** 			{0x5Bu, 0x04u},
 666:Generated_Source\PSoC4/cyfitter_cfg.c **** 			{0x5Cu, 0x88u},
 667:Generated_Source\PSoC4/cyfitter_cfg.c **** 			{0x5Du, 0x80u},
 668:Generated_Source\PSoC4/cyfitter_cfg.c **** 			{0x5Fu, 0x31u},
 669:Generated_Source\PSoC4/cyfitter_cfg.c **** 			{0x83u, 0x8Bu},
 670:Generated_Source\PSoC4/cyfitter_cfg.c **** 			{0x85u, 0x9Bu},
 671:Generated_Source\PSoC4/cyfitter_cfg.c **** 			{0x87u, 0x24u},
 672:Generated_Source\PSoC4/cyfitter_cfg.c **** 			{0x89u, 0x8Au},
 673:Generated_Source\PSoC4/cyfitter_cfg.c **** 			{0x8Bu, 0x01u},
 674:Generated_Source\PSoC4/cyfitter_cfg.c **** 			{0x8Du, 0x0Bu},
 675:Generated_Source\PSoC4/cyfitter_cfg.c **** 			{0x93u, 0xFFu},
 676:Generated_Source\PSoC4/cyfitter_cfg.c **** 			{0x95u, 0x81u},
 677:Generated_Source\PSoC4/cyfitter_cfg.c **** 			{0x97u, 0x02u},
 678:Generated_Source\PSoC4/cyfitter_cfg.c **** 			{0x99u, 0x83u},
 679:Generated_Source\PSoC4/cyfitter_cfg.c **** 			{0x9Bu, 0x44u},
 680:Generated_Source\PSoC4/cyfitter_cfg.c **** 			{0xA5u, 0x01u},
 681:Generated_Source\PSoC4/cyfitter_cfg.c **** 			{0xA7u, 0x8Au},
 682:Generated_Source\PSoC4/cyfitter_cfg.c **** 			{0xADu, 0xA7u},
 683:Generated_Source\PSoC4/cyfitter_cfg.c **** 			{0xAFu, 0x10u},
 684:Generated_Source\PSoC4/cyfitter_cfg.c **** 			{0xB1u, 0x84u},
 685:Generated_Source\PSoC4/cyfitter_cfg.c **** 			{0xB3u, 0x07u},
 686:Generated_Source\PSoC4/cyfitter_cfg.c **** 			{0xB5u, 0x78u},
 687:Generated_Source\PSoC4/cyfitter_cfg.c **** 			{0xB9u, 0x20u},
 688:Generated_Source\PSoC4/cyfitter_cfg.c **** 			{0xD6u, 0x02u},
 689:Generated_Source\PSoC4/cyfitter_cfg.c **** 			{0xD7u, 0x20u},
 690:Generated_Source\PSoC4/cyfitter_cfg.c **** 			{0xD9u, 0x04u},
 691:Generated_Source\PSoC4/cyfitter_cfg.c **** 			{0xDBu, 0x04u},
 692:Generated_Source\PSoC4/cyfitter_cfg.c **** 			{0xDCu, 0x80u},
 693:Generated_Source\PSoC4/cyfitter_cfg.c **** 			{0xDDu, 0x80u},
 694:Generated_Source\PSoC4/cyfitter_cfg.c **** 			{0xDFu, 0x31u},
 695:Generated_Source\PSoC4/cyfitter_cfg.c **** 			{0x01u, 0x82u},
 696:Generated_Source\PSoC4/cyfitter_cfg.c **** 			{0x02u, 0x04u},
 697:Generated_Source\PSoC4/cyfitter_cfg.c **** 			{0x03u, 0x20u},
 698:Generated_Source\PSoC4/cyfitter_cfg.c **** 			{0x08u, 0x04u},
 699:Generated_Source\PSoC4/cyfitter_cfg.c **** 			{0x0Bu, 0x41u},
 700:Generated_Source\PSoC4/cyfitter_cfg.c **** 			{0x11u, 0x92u},
 701:Generated_Source\PSoC4/cyfitter_cfg.c **** 			{0x12u, 0x10u},
 702:Generated_Source\PSoC4/cyfitter_cfg.c **** 			{0x19u, 0x80u},
 703:Generated_Source\PSoC4/cyfitter_cfg.c **** 			{0x1Au, 0x02u},
 704:Generated_Source\PSoC4/cyfitter_cfg.c **** 			{0x22u, 0x52u},
 705:Generated_Source\PSoC4/cyfitter_cfg.c **** 			{0x24u, 0x20u},
ARM GAS  C:\Users\TERENC~1\AppData\Local\Temp\ccZN0dQJ.s 			page 24


 706:Generated_Source\PSoC4/cyfitter_cfg.c **** 			{0x25u, 0x26u},
 707:Generated_Source\PSoC4/cyfitter_cfg.c **** 			{0x26u, 0x28u},
 708:Generated_Source\PSoC4/cyfitter_cfg.c **** 			{0x29u, 0x02u},
 709:Generated_Source\PSoC4/cyfitter_cfg.c **** 			{0x2Au, 0x01u},
 710:Generated_Source\PSoC4/cyfitter_cfg.c **** 			{0x2Fu, 0x22u},
 711:Generated_Source\PSoC4/cyfitter_cfg.c **** 			{0x31u, 0x22u},
 712:Generated_Source\PSoC4/cyfitter_cfg.c **** 			{0x32u, 0x08u},
 713:Generated_Source\PSoC4/cyfitter_cfg.c **** 			{0x33u, 0x02u},
 714:Generated_Source\PSoC4/cyfitter_cfg.c **** 			{0x36u, 0x20u},
 715:Generated_Source\PSoC4/cyfitter_cfg.c **** 			{0x37u, 0x0Au},
 716:Generated_Source\PSoC4/cyfitter_cfg.c **** 			{0x39u, 0x44u},
 717:Generated_Source\PSoC4/cyfitter_cfg.c **** 			{0x3Cu, 0x80u},
 718:Generated_Source\PSoC4/cyfitter_cfg.c **** 			{0x3Du, 0x1Au},
 719:Generated_Source\PSoC4/cyfitter_cfg.c **** 			{0x5Au, 0xA0u},
 720:Generated_Source\PSoC4/cyfitter_cfg.c **** 			{0x60u, 0x04u},
 721:Generated_Source\PSoC4/cyfitter_cfg.c **** 			{0x62u, 0x10u},
 722:Generated_Source\PSoC4/cyfitter_cfg.c **** 			{0x63u, 0x03u},
 723:Generated_Source\PSoC4/cyfitter_cfg.c **** 			{0x67u, 0x01u},
 724:Generated_Source\PSoC4/cyfitter_cfg.c **** 			{0x6Cu, 0x05u},
 725:Generated_Source\PSoC4/cyfitter_cfg.c **** 			{0x6Du, 0x92u},
 726:Generated_Source\PSoC4/cyfitter_cfg.c **** 			{0x6Eu, 0x02u},
 727:Generated_Source\PSoC4/cyfitter_cfg.c **** 			{0x6Fu, 0x60u},
 728:Generated_Source\PSoC4/cyfitter_cfg.c **** 			{0x74u, 0x40u},
 729:Generated_Source\PSoC4/cyfitter_cfg.c **** 			{0x76u, 0x25u},
 730:Generated_Source\PSoC4/cyfitter_cfg.c **** 			{0x77u, 0x19u},
 731:Generated_Source\PSoC4/cyfitter_cfg.c **** 			{0x79u, 0x01u},
 732:Generated_Source\PSoC4/cyfitter_cfg.c **** 			{0x7Au, 0x40u},
 733:Generated_Source\PSoC4/cyfitter_cfg.c **** 			{0x7Du, 0x01u},
 734:Generated_Source\PSoC4/cyfitter_cfg.c **** 			{0x8Cu, 0x21u},
 735:Generated_Source\PSoC4/cyfitter_cfg.c **** 			{0x90u, 0x80u},
 736:Generated_Source\PSoC4/cyfitter_cfg.c **** 			{0x91u, 0x64u},
 737:Generated_Source\PSoC4/cyfitter_cfg.c **** 			{0x94u, 0x28u},
 738:Generated_Source\PSoC4/cyfitter_cfg.c **** 			{0x96u, 0x12u},
 739:Generated_Source\PSoC4/cyfitter_cfg.c **** 			{0x98u, 0x04u},
 740:Generated_Source\PSoC4/cyfitter_cfg.c **** 			{0x99u, 0x20u},
 741:Generated_Source\PSoC4/cyfitter_cfg.c **** 			{0x9Bu, 0x02u},
 742:Generated_Source\PSoC4/cyfitter_cfg.c **** 			{0x9Cu, 0x21u},
 743:Generated_Source\PSoC4/cyfitter_cfg.c **** 			{0x9Eu, 0x25u},
 744:Generated_Source\PSoC4/cyfitter_cfg.c **** 			{0x9Fu, 0x41u},
 745:Generated_Source\PSoC4/cyfitter_cfg.c **** 			{0xA2u, 0xC0u},
 746:Generated_Source\PSoC4/cyfitter_cfg.c **** 			{0xA5u, 0x2Au},
 747:Generated_Source\PSoC4/cyfitter_cfg.c **** 			{0xA6u, 0x0Au},
 748:Generated_Source\PSoC4/cyfitter_cfg.c **** 			{0xA7u, 0x21u},
 749:Generated_Source\PSoC4/cyfitter_cfg.c **** 			{0xADu, 0x10u},
 750:Generated_Source\PSoC4/cyfitter_cfg.c **** 			{0xAEu, 0xC0u},
 751:Generated_Source\PSoC4/cyfitter_cfg.c **** 			{0xAFu, 0x10u},
 752:Generated_Source\PSoC4/cyfitter_cfg.c **** 			{0xB2u, 0x84u},
 753:Generated_Source\PSoC4/cyfitter_cfg.c **** 			{0xB4u, 0x04u},
 754:Generated_Source\PSoC4/cyfitter_cfg.c **** 			{0xB5u, 0x11u},
 755:Generated_Source\PSoC4/cyfitter_cfg.c **** 			{0xC0u, 0x0Fu},
 756:Generated_Source\PSoC4/cyfitter_cfg.c **** 			{0xC2u, 0x0Du},
 757:Generated_Source\PSoC4/cyfitter_cfg.c **** 			{0xC4u, 0x0Fu},
 758:Generated_Source\PSoC4/cyfitter_cfg.c **** 			{0xCAu, 0x50u},
 759:Generated_Source\PSoC4/cyfitter_cfg.c **** 			{0xCCu, 0xE7u},
 760:Generated_Source\PSoC4/cyfitter_cfg.c **** 			{0xCEu, 0xFAu},
 761:Generated_Source\PSoC4/cyfitter_cfg.c **** 			{0xD6u, 0x0Cu},
 762:Generated_Source\PSoC4/cyfitter_cfg.c **** 			{0xD8u, 0x1Cu},
ARM GAS  C:\Users\TERENC~1\AppData\Local\Temp\ccZN0dQJ.s 			page 25


 763:Generated_Source\PSoC4/cyfitter_cfg.c **** 			{0xDEu, 0x81u},
 764:Generated_Source\PSoC4/cyfitter_cfg.c **** 			{0xE2u, 0x02u},
 765:Generated_Source\PSoC4/cyfitter_cfg.c **** 			{0xE8u, 0x08u},
 766:Generated_Source\PSoC4/cyfitter_cfg.c **** 			{0xECu, 0x40u},
 767:Generated_Source\PSoC4/cyfitter_cfg.c **** 			{0x00u, 0x20u},
 768:Generated_Source\PSoC4/cyfitter_cfg.c **** 			{0x02u, 0x1Fu},
 769:Generated_Source\PSoC4/cyfitter_cfg.c **** 			{0x04u, 0x08u},
 770:Generated_Source\PSoC4/cyfitter_cfg.c **** 			{0x06u, 0x01u},
 771:Generated_Source\PSoC4/cyfitter_cfg.c **** 			{0x08u, 0x01u},
 772:Generated_Source\PSoC4/cyfitter_cfg.c **** 			{0x0Au, 0x02u},
 773:Generated_Source\PSoC4/cyfitter_cfg.c **** 			{0x0Cu, 0x02u},
 774:Generated_Source\PSoC4/cyfitter_cfg.c **** 			{0x0Eu, 0x1Cu},
 775:Generated_Source\PSoC4/cyfitter_cfg.c **** 			{0x12u, 0x20u},
 776:Generated_Source\PSoC4/cyfitter_cfg.c **** 			{0x1Cu, 0x04u},
 777:Generated_Source\PSoC4/cyfitter_cfg.c **** 			{0x1Eu, 0x01u},
 778:Generated_Source\PSoC4/cyfitter_cfg.c **** 			{0x22u, 0x1Fu},
 779:Generated_Source\PSoC4/cyfitter_cfg.c **** 			{0x28u, 0x10u},
 780:Generated_Source\PSoC4/cyfitter_cfg.c **** 			{0x2Au, 0x01u},
 781:Generated_Source\PSoC4/cyfitter_cfg.c **** 			{0x30u, 0x3Fu},
 782:Generated_Source\PSoC4/cyfitter_cfg.c **** 			{0x56u, 0x08u},
 783:Generated_Source\PSoC4/cyfitter_cfg.c **** 			{0x58u, 0x04u},
 784:Generated_Source\PSoC4/cyfitter_cfg.c **** 			{0x5Bu, 0x04u},
 785:Generated_Source\PSoC4/cyfitter_cfg.c **** 			{0x5Cu, 0x08u},
 786:Generated_Source\PSoC4/cyfitter_cfg.c **** 			{0x5Du, 0x80u},
 787:Generated_Source\PSoC4/cyfitter_cfg.c **** 			{0x5Fu, 0x31u},
 788:Generated_Source\PSoC4/cyfitter_cfg.c **** 			{0x00u, 0x80u},
 789:Generated_Source\PSoC4/cyfitter_cfg.c **** 			{0x01u, 0x08u},
 790:Generated_Source\PSoC4/cyfitter_cfg.c **** 			{0x02u, 0x80u},
 791:Generated_Source\PSoC4/cyfitter_cfg.c **** 			{0x03u, 0x28u},
 792:Generated_Source\PSoC4/cyfitter_cfg.c **** 			{0x04u, 0x02u},
 793:Generated_Source\PSoC4/cyfitter_cfg.c **** 			{0x05u, 0x08u},
 794:Generated_Source\PSoC4/cyfitter_cfg.c **** 			{0x06u, 0x04u},
 795:Generated_Source\PSoC4/cyfitter_cfg.c **** 			{0x07u, 0x01u},
 796:Generated_Source\PSoC4/cyfitter_cfg.c **** 			{0x08u, 0x04u},
 797:Generated_Source\PSoC4/cyfitter_cfg.c **** 			{0x09u, 0x41u},
 798:Generated_Source\PSoC4/cyfitter_cfg.c **** 			{0x0Du, 0x02u},
 799:Generated_Source\PSoC4/cyfitter_cfg.c **** 			{0x0Eu, 0x02u},
 800:Generated_Source\PSoC4/cyfitter_cfg.c **** 			{0x10u, 0x02u},
 801:Generated_Source\PSoC4/cyfitter_cfg.c **** 			{0x12u, 0x04u},
 802:Generated_Source\PSoC4/cyfitter_cfg.c **** 			{0x14u, 0x04u},
 803:Generated_Source\PSoC4/cyfitter_cfg.c **** 			{0x15u, 0x12u},
 804:Generated_Source\PSoC4/cyfitter_cfg.c **** 			{0x1Au, 0x50u},
 805:Generated_Source\PSoC4/cyfitter_cfg.c **** 			{0x1Bu, 0x08u},
 806:Generated_Source\PSoC4/cyfitter_cfg.c **** 			{0x1Du, 0x02u},
 807:Generated_Source\PSoC4/cyfitter_cfg.c **** 			{0x20u, 0x08u},
 808:Generated_Source\PSoC4/cyfitter_cfg.c **** 			{0x21u, 0x88u},
 809:Generated_Source\PSoC4/cyfitter_cfg.c **** 			{0x22u, 0x01u},
 810:Generated_Source\PSoC4/cyfitter_cfg.c **** 			{0x23u, 0x40u},
 811:Generated_Source\PSoC4/cyfitter_cfg.c **** 			{0x29u, 0xA4u},
 812:Generated_Source\PSoC4/cyfitter_cfg.c **** 			{0x31u, 0x08u},
 813:Generated_Source\PSoC4/cyfitter_cfg.c **** 			{0x32u, 0x01u},
 814:Generated_Source\PSoC4/cyfitter_cfg.c **** 			{0x33u, 0x10u},
 815:Generated_Source\PSoC4/cyfitter_cfg.c **** 			{0x38u, 0x84u},
 816:Generated_Source\PSoC4/cyfitter_cfg.c **** 			{0x39u, 0x20u},
 817:Generated_Source\PSoC4/cyfitter_cfg.c **** 			{0x3Au, 0x80u},
 818:Generated_Source\PSoC4/cyfitter_cfg.c **** 			{0x41u, 0x90u},
 819:Generated_Source\PSoC4/cyfitter_cfg.c **** 			{0x42u, 0x80u},
ARM GAS  C:\Users\TERENC~1\AppData\Local\Temp\ccZN0dQJ.s 			page 26


 820:Generated_Source\PSoC4/cyfitter_cfg.c **** 			{0x44u, 0x10u},
 821:Generated_Source\PSoC4/cyfitter_cfg.c **** 			{0x46u, 0x10u},
 822:Generated_Source\PSoC4/cyfitter_cfg.c **** 			{0x49u, 0x24u},
 823:Generated_Source\PSoC4/cyfitter_cfg.c **** 			{0x51u, 0x01u},
 824:Generated_Source\PSoC4/cyfitter_cfg.c **** 			{0x52u, 0x10u},
 825:Generated_Source\PSoC4/cyfitter_cfg.c **** 			{0x58u, 0x90u},
 826:Generated_Source\PSoC4/cyfitter_cfg.c **** 			{0x5Eu, 0x40u},
 827:Generated_Source\PSoC4/cyfitter_cfg.c **** 			{0x64u, 0x01u},
 828:Generated_Source\PSoC4/cyfitter_cfg.c **** 			{0x79u, 0x01u},
 829:Generated_Source\PSoC4/cyfitter_cfg.c **** 			{0x7Du, 0x01u},
 830:Generated_Source\PSoC4/cyfitter_cfg.c **** 			{0x80u, 0x03u},
 831:Generated_Source\PSoC4/cyfitter_cfg.c **** 			{0x81u, 0x02u},
 832:Generated_Source\PSoC4/cyfitter_cfg.c **** 			{0x84u, 0x84u},
 833:Generated_Source\PSoC4/cyfitter_cfg.c **** 			{0x8Au, 0x10u},
 834:Generated_Source\PSoC4/cyfitter_cfg.c **** 			{0x90u, 0x86u},
 835:Generated_Source\PSoC4/cyfitter_cfg.c **** 			{0x91u, 0x31u},
 836:Generated_Source\PSoC4/cyfitter_cfg.c **** 			{0x96u, 0x10u},
 837:Generated_Source\PSoC4/cyfitter_cfg.c **** 			{0x97u, 0x40u},
 838:Generated_Source\PSoC4/cyfitter_cfg.c **** 			{0x99u, 0xA0u},
 839:Generated_Source\PSoC4/cyfitter_cfg.c **** 			{0x9Au, 0x04u},
 840:Generated_Source\PSoC4/cyfitter_cfg.c **** 			{0x9Bu, 0x11u},
 841:Generated_Source\PSoC4/cyfitter_cfg.c **** 			{0x9Cu, 0x01u},
 842:Generated_Source\PSoC4/cyfitter_cfg.c **** 			{0xA0u, 0x40u},
 843:Generated_Source\PSoC4/cyfitter_cfg.c **** 			{0xA1u, 0x41u},
 844:Generated_Source\PSoC4/cyfitter_cfg.c **** 			{0xA2u, 0x81u},
 845:Generated_Source\PSoC4/cyfitter_cfg.c **** 			{0xA3u, 0x20u},
 846:Generated_Source\PSoC4/cyfitter_cfg.c **** 			{0xA5u, 0x08u},
 847:Generated_Source\PSoC4/cyfitter_cfg.c **** 			{0xC0u, 0xFFu},
 848:Generated_Source\PSoC4/cyfitter_cfg.c **** 			{0xC2u, 0x9Du},
 849:Generated_Source\PSoC4/cyfitter_cfg.c **** 			{0xC4u, 0x53u},
 850:Generated_Source\PSoC4/cyfitter_cfg.c **** 			{0xCAu, 0x0Eu},
 851:Generated_Source\PSoC4/cyfitter_cfg.c **** 			{0xCCu, 0x07u},
 852:Generated_Source\PSoC4/cyfitter_cfg.c **** 			{0xCEu, 0x0Eu},
 853:Generated_Source\PSoC4/cyfitter_cfg.c **** 			{0xD0u, 0x0Du},
 854:Generated_Source\PSoC4/cyfitter_cfg.c **** 			{0xD2u, 0x04u},
 855:Generated_Source\PSoC4/cyfitter_cfg.c **** 			{0xD6u, 0x1Cu},
 856:Generated_Source\PSoC4/cyfitter_cfg.c **** 			{0xD8u, 0x10u},
 857:Generated_Source\PSoC4/cyfitter_cfg.c **** 			{0xDEu, 0x81u},
 858:Generated_Source\PSoC4/cyfitter_cfg.c **** 			{0xE0u, 0x01u},
 859:Generated_Source\PSoC4/cyfitter_cfg.c **** 			{0xE2u, 0x04u},
 860:Generated_Source\PSoC4/cyfitter_cfg.c **** 			{0xE4u, 0x04u},
 861:Generated_Source\PSoC4/cyfitter_cfg.c **** 			{0x67u, 0x08u},
 862:Generated_Source\PSoC4/cyfitter_cfg.c **** 			{0x69u, 0x02u},
 863:Generated_Source\PSoC4/cyfitter_cfg.c **** 			{0x6Fu, 0x01u},
 864:Generated_Source\PSoC4/cyfitter_cfg.c **** 			{0x77u, 0x02u},
 865:Generated_Source\PSoC4/cyfitter_cfg.c **** 			{0x87u, 0x04u},
 866:Generated_Source\PSoC4/cyfitter_cfg.c **** 			{0xD8u, 0x80u},
 867:Generated_Source\PSoC4/cyfitter_cfg.c **** 			{0xDAu, 0x80u},
 868:Generated_Source\PSoC4/cyfitter_cfg.c **** 			{0xDCu, 0x60u},
 869:Generated_Source\PSoC4/cyfitter_cfg.c **** 			{0xE6u, 0x10u},
 870:Generated_Source\PSoC4/cyfitter_cfg.c **** 			{0x29u, 0x01u},
 871:Generated_Source\PSoC4/cyfitter_cfg.c **** 			{0x95u, 0x02u},
 872:Generated_Source\PSoC4/cyfitter_cfg.c **** 			{0x9Fu, 0x03u},
 873:Generated_Source\PSoC4/cyfitter_cfg.c **** 			{0xCAu, 0x40u},
 874:Generated_Source\PSoC4/cyfitter_cfg.c **** 			{0x87u, 0x01u},
 875:Generated_Source\PSoC4/cyfitter_cfg.c **** 			{0x95u, 0x02u},
 876:Generated_Source\PSoC4/cyfitter_cfg.c **** 			{0x9Fu, 0x03u},
ARM GAS  C:\Users\TERENC~1\AppData\Local\Temp\ccZN0dQJ.s 			page 27


 877:Generated_Source\PSoC4/cyfitter_cfg.c **** 			{0xB5u, 0x01u},
 878:Generated_Source\PSoC4/cyfitter_cfg.c **** 			{0xE2u, 0x40u},
 879:Generated_Source\PSoC4/cyfitter_cfg.c **** 			{0x13u, 0x02u},
 880:Generated_Source\PSoC4/cyfitter_cfg.c **** 			{0x15u, 0x02u},
 881:Generated_Source\PSoC4/cyfitter_cfg.c **** 			{0x95u, 0x02u},
 882:Generated_Source\PSoC4/cyfitter_cfg.c **** 			{0x9Fu, 0x02u},
 883:Generated_Source\PSoC4/cyfitter_cfg.c **** 			{0xC4u, 0x30u},
 884:Generated_Source\PSoC4/cyfitter_cfg.c **** 			{0x26u, 0x08u},
 885:Generated_Source\PSoC4/cyfitter_cfg.c **** 			{0x29u, 0x80u},
 886:Generated_Source\PSoC4/cyfitter_cfg.c **** 			{0x54u, 0x20u},
 887:Generated_Source\PSoC4/cyfitter_cfg.c **** 			{0x8Au, 0x08u},
 888:Generated_Source\PSoC4/cyfitter_cfg.c **** 			{0xC8u, 0x01u},
 889:Generated_Source\PSoC4/cyfitter_cfg.c **** 			{0xCAu, 0x08u},
 890:Generated_Source\PSoC4/cyfitter_cfg.c **** 			{0xD4u, 0x02u},
 891:Generated_Source\PSoC4/cyfitter_cfg.c **** 			{0xE6u, 0x01u},
 892:Generated_Source\PSoC4/cyfitter_cfg.c **** 			{0x40u, 0x04u},
 893:Generated_Source\PSoC4/cyfitter_cfg.c **** 			{0xA4u, 0x20u},
 894:Generated_Source\PSoC4/cyfitter_cfg.c **** 			{0xB5u, 0x80u},
 895:Generated_Source\PSoC4/cyfitter_cfg.c **** 			{0xD0u, 0x08u},
 896:Generated_Source\PSoC4/cyfitter_cfg.c **** 			{0xEEu, 0x02u},
 897:Generated_Source\PSoC4/cyfitter_cfg.c **** 			{0x86u, 0x04u},
 898:Generated_Source\PSoC4/cyfitter_cfg.c **** 			{0x93u, 0x80u},
 899:Generated_Source\PSoC4/cyfitter_cfg.c **** 			{0xAFu, 0x40u},
 900:Generated_Source\PSoC4/cyfitter_cfg.c **** 			{0xB4u, 0x24u},
 901:Generated_Source\PSoC4/cyfitter_cfg.c **** 			{0xECu, 0x0Au},
 902:Generated_Source\PSoC4/cyfitter_cfg.c **** 			{0x0Cu, 0x80u},
 903:Generated_Source\PSoC4/cyfitter_cfg.c **** 			{0x2Eu, 0x04u},
 904:Generated_Source\PSoC4/cyfitter_cfg.c **** 			{0x5Bu, 0x04u},
 905:Generated_Source\PSoC4/cyfitter_cfg.c **** 			{0x67u, 0x82u},
 906:Generated_Source\PSoC4/cyfitter_cfg.c **** 			{0x6Bu, 0x01u},
 907:Generated_Source\PSoC4/cyfitter_cfg.c **** 			{0x80u, 0x80u},
 908:Generated_Source\PSoC4/cyfitter_cfg.c **** 			{0x83u, 0x05u},
 909:Generated_Source\PSoC4/cyfitter_cfg.c **** 			{0x8Bu, 0x01u},
 910:Generated_Source\PSoC4/cyfitter_cfg.c **** 			{0x93u, 0x80u},
 911:Generated_Source\PSoC4/cyfitter_cfg.c **** 			{0x96u, 0x04u},
 912:Generated_Source\PSoC4/cyfitter_cfg.c **** 			{0xC2u, 0x01u},
 913:Generated_Source\PSoC4/cyfitter_cfg.c **** 			{0xCAu, 0x01u},
 914:Generated_Source\PSoC4/cyfitter_cfg.c **** 			{0xD6u, 0x03u},
 915:Generated_Source\PSoC4/cyfitter_cfg.c **** 			{0xD8u, 0x01u},
 916:Generated_Source\PSoC4/cyfitter_cfg.c **** 			{0xDAu, 0x02u},
 917:Generated_Source\PSoC4/cyfitter_cfg.c **** 			{0xE4u, 0x04u},
 918:Generated_Source\PSoC4/cyfitter_cfg.c **** 			{0x02u, 0x01u},
 919:Generated_Source\PSoC4/cyfitter_cfg.c **** 			{0x11u, 0x01u},
 920:Generated_Source\PSoC4/cyfitter_cfg.c **** 		};
 921:Generated_Source\PSoC4/cyfitter_cfg.c **** 
 922:Generated_Source\PSoC4/cyfitter_cfg.c **** 
 923:Generated_Source\PSoC4/cyfitter_cfg.c **** 
 924:Generated_Source\PSoC4/cyfitter_cfg.c **** 		CYPACKED typedef struct {
 925:Generated_Source\PSoC4/cyfitter_cfg.c **** 			void CYFAR *address;
 926:Generated_Source\PSoC4/cyfitter_cfg.c **** 			uint16 size;
 927:Generated_Source\PSoC4/cyfitter_cfg.c **** 		} CYPACKED_ATTR cfg_memset_t;
 928:Generated_Source\PSoC4/cyfitter_cfg.c **** 
 929:Generated_Source\PSoC4/cyfitter_cfg.c **** 
 930:Generated_Source\PSoC4/cyfitter_cfg.c **** 		CYPACKED typedef struct {
 931:Generated_Source\PSoC4/cyfitter_cfg.c **** 			void CYFAR *dest;
 932:Generated_Source\PSoC4/cyfitter_cfg.c **** 			const void CYCODE *src;
 933:Generated_Source\PSoC4/cyfitter_cfg.c **** 			uint16 size;
ARM GAS  C:\Users\TERENC~1\AppData\Local\Temp\ccZN0dQJ.s 			page 28


 934:Generated_Source\PSoC4/cyfitter_cfg.c **** 		} CYPACKED_ATTR cfg_memcpy_t;
 935:Generated_Source\PSoC4/cyfitter_cfg.c **** 
 936:Generated_Source\PSoC4/cyfitter_cfg.c **** 		static const cfg_memset_t CYCODE cfg_memset_list[] = {
 937:Generated_Source\PSoC4/cyfitter_cfg.c **** 			/* address, size */
 938:Generated_Source\PSoC4/cyfitter_cfg.c **** 			{(void CYFAR *)(CYDEV_UDB_P0_U0_BASE), 640u},
 939:Generated_Source\PSoC4/cyfitter_cfg.c **** 			{(void CYFAR *)(CYDEV_UDB_P1_ROUTE_BASE), 896u},
 940:Generated_Source\PSoC4/cyfitter_cfg.c **** 			{(void CYFAR *)(CYDEV_UDB_P3_ROUTE_BASE), 256u},
 941:Generated_Source\PSoC4/cyfitter_cfg.c **** 			{(void CYFAR *)(CYDEV_UDB_DSI0_BASE), 2048u},
 942:Generated_Source\PSoC4/cyfitter_cfg.c **** 		};
 943:Generated_Source\PSoC4/cyfitter_cfg.c **** 
 944:Generated_Source\PSoC4/cyfitter_cfg.c **** 		/* UDB_0_2_0_CONFIG Address: CYDEV_UDB_P1_U1_BASE Size (bytes): 128 */
 945:Generated_Source\PSoC4/cyfitter_cfg.c **** 		static const uint8 CYCODE BS_UDB_0_2_0_CONFIG_VAL[] = {
 946:Generated_Source\PSoC4/cyfitter_cfg.c **** 			0x63u, 0x06u, 0x8Cu, 0x08u, 0x63u, 0x00u, 0x8Cu, 0x0Eu, 0xE3u, 0x40u, 0x04u, 0x10u, 0x00u, 0x01u
 947:Generated_Source\PSoC4/cyfitter_cfg.c **** 			0xEFu, 0x00u, 0x00u, 0xFEu, 0x00u, 0x00u, 0xCEu, 0x0Cu, 0xEFu, 0x06u, 0x00u, 0x08u, 0x10u, 0x06u
 948:Generated_Source\PSoC4/cyfitter_cfg.c **** 			0x60u, 0x80u, 0x8Fu, 0x20u, 0xEFu, 0x06u, 0x00u, 0x00u, 0x21u, 0x03u, 0x00u, 0x00u, 0x63u, 0x3Eu
 949:Generated_Source\PSoC4/cyfitter_cfg.c **** 			0x1Fu, 0x00u, 0x00u, 0x01u, 0xF0u, 0xFEu, 0x00u, 0x00u, 0x00u, 0x20u, 0x00u, 0x00u, 0x00u, 0x00u
 950:Generated_Source\PSoC4/cyfitter_cfg.c **** 			0x42u, 0x06u, 0x51u, 0x00u, 0x03u, 0xC0u, 0xE0u, 0x00u, 0x0Au, 0xFFu, 0xFFu, 0xFFu, 0x02u, 0x20u
 951:Generated_Source\PSoC4/cyfitter_cfg.c **** 			0x04u, 0x12u, 0x07u, 0x00u, 0x01u, 0x00u, 0x00u, 0x00u, 0x04u, 0x04u, 0x04u, 0x04u, 0x88u, 0x88u
 952:Generated_Source\PSoC4/cyfitter_cfg.c **** 			0x00u, 0x00u, 0x40u, 0x01u, 0x40u, 0x01u, 0x50u, 0x01u, 0x40u, 0x01u, 0x70u, 0x10u, 0x40u, 0x10u
 953:Generated_Source\PSoC4/cyfitter_cfg.c **** 			0x00u, 0x00u, 0x00u, 0x00u, 0x00u, 0x00u, 0x00u, 0x00u, 0x00u, 0x00u, 0x00u, 0x00u, 0x00u, 0x00u
 954:Generated_Source\PSoC4/cyfitter_cfg.c **** 
 955:Generated_Source\PSoC4/cyfitter_cfg.c **** 		/* UDB_0_0_0_CONFIG Address: CYDEV_UDB_P3_U1_BASE Size (bytes): 128 */
 956:Generated_Source\PSoC4/cyfitter_cfg.c **** 		static const uint8 CYCODE BS_UDB_0_0_0_CONFIG_VAL[] = {
 957:Generated_Source\PSoC4/cyfitter_cfg.c **** 			0x00u, 0x00u, 0x40u, 0x00u, 0x08u, 0x00u, 0x01u, 0x03u, 0x00u, 0x22u, 0x20u, 0x0Cu, 0x02u, 0x0Cu
 958:Generated_Source\PSoC4/cyfitter_cfg.c **** 			0x04u, 0x00u, 0x01u, 0x01u, 0x10u, 0x00u, 0x01u, 0x10u, 0x00u, 0x08u, 0x00u, 0x00u, 0x1Fu, 0x00u
 959:Generated_Source\PSoC4/cyfitter_cfg.c **** 			0x00u, 0x00u, 0x00u, 0x00u, 0x00u, 0x00u, 0x00u, 0x22u, 0x01u, 0x22u, 0x02u, 0x0Cu, 0x00u, 0x00u
 960:Generated_Source\PSoC4/cyfitter_cfg.c **** 			0x40u, 0x03u, 0x3Fu, 0x18u, 0x00u, 0x20u, 0x00u, 0x04u, 0x00u, 0x00u, 0x00u, 0x00u, 0x00u, 0x00u
 961:Generated_Source\PSoC4/cyfitter_cfg.c **** 			0x24u, 0x06u, 0x00u, 0x01u, 0x00u, 0x0Cu, 0xE0u, 0xB0u, 0x29u, 0xFFu, 0xFFu, 0xFFu, 0x00u, 0x00u
 962:Generated_Source\PSoC4/cyfitter_cfg.c **** 			0x04u, 0x10u, 0x00u, 0x00u, 0x01u, 0x00u, 0x00u, 0x00u, 0x04u, 0x04u, 0x04u, 0x04u, 0x88u, 0x88u
 963:Generated_Source\PSoC4/cyfitter_cfg.c **** 			0x00u, 0x00u, 0xC0u, 0x00u, 0x40u, 0x01u, 0x80u, 0x00u, 0x30u, 0x00u, 0x40u, 0x10u, 0x10u, 0x00u
 964:Generated_Source\PSoC4/cyfitter_cfg.c **** 			0x00u, 0x00u, 0x00u, 0x00u, 0x00u, 0x00u, 0x00u, 0x00u, 0x00u, 0x00u, 0x00u, 0x00u, 0x00u, 0x00u
 965:Generated_Source\PSoC4/cyfitter_cfg.c **** 
 966:Generated_Source\PSoC4/cyfitter_cfg.c **** 		static const cfg_memcpy_t CYCODE cfg_memcpy_list [] = {
 967:Generated_Source\PSoC4/cyfitter_cfg.c **** 			/* dest, src, size */
 968:Generated_Source\PSoC4/cyfitter_cfg.c **** 			{(void CYFAR *)(CYDEV_UDB_P1_U1_BASE), BS_UDB_0_2_0_CONFIG_VAL, 128u},
 969:Generated_Source\PSoC4/cyfitter_cfg.c **** 			{(void CYFAR *)(CYDEV_UDB_P3_U1_BASE), BS_UDB_0_0_0_CONFIG_VAL, 128u},
 970:Generated_Source\PSoC4/cyfitter_cfg.c **** 		};
 971:Generated_Source\PSoC4/cyfitter_cfg.c **** 
 972:Generated_Source\PSoC4/cyfitter_cfg.c **** 		uint8 CYDATA i;
 973:Generated_Source\PSoC4/cyfitter_cfg.c **** 
 974:Generated_Source\PSoC4/cyfitter_cfg.c **** 		/* Zero out critical memory blocks before beginning configuration */
 975:Generated_Source\PSoC4/cyfitter_cfg.c **** 		for (i = 0u; i < (sizeof(cfg_memset_list)/sizeof(cfg_memset_list[0])); i++)
 583              		.loc 1 975 0
 584 01fa 0024     		movs	r4, #0
 585 01fc 0FE0     		b	.L24
 586              	.LVL39:
 587              	.L25:
 588              	.LBB4:
 976:Generated_Source\PSoC4/cyfitter_cfg.c **** 		{
 977:Generated_Source\PSoC4/cyfitter_cfg.c **** 			const cfg_memset_t CYCODE * CYDATA ms = &cfg_memset_list[i];
 978:Generated_Source\PSoC4/cyfitter_cfg.c **** 			CYMEMZERO(ms->address, (size_t)(uint32)(ms->size));
 589              		.loc 1 978 0 discriminator 3
 590 01fe 5E48     		ldr	r0, .L28+4
 591 0200 6200     		lsls	r2, r4, #1
 592 0202 1319     		adds	r3, r2, r4
 593 0204 5900     		lsls	r1, r3, #1
 594 0206 0B00     		movs	r3, r1
ARM GAS  C:\Users\TERENC~1\AppData\Local\Temp\ccZN0dQJ.s 			page 29


 595 0208 4118     		adds	r1, r0, r1
 596 020a 8988     		ldrh	r1, [r1, #4]
 597 020c 1A5A     		ldrh	r2, [r3, r0]
 598 020e C318     		adds	r3, r0, r3
 599 0210 5888     		ldrh	r0, [r3, #2]
 600 0212 0004     		lsls	r0, r0, #16
 601 0214 1043     		orrs	r0, r2
 602 0216 FFF7FEFF 		bl	CYMEMZERO
 603              	.LVL40:
 604              	.LBE4:
 975:Generated_Source\PSoC4/cyfitter_cfg.c **** 		{
 605              		.loc 1 975 0 discriminator 3
 606 021a 0134     		adds	r4, r4, #1
 607              	.LVL41:
 608 021c E4B2     		uxtb	r4, r4
 609              	.LVL42:
 610              	.L24:
 975:Generated_Source\PSoC4/cyfitter_cfg.c **** 		{
 611              		.loc 1 975 0 is_stmt 0 discriminator 1
 612 021e 032C     		cmp	r4, #3
 613 0220 EDD9     		bls	.L25
 614 0222 0024     		movs	r4, #0
 615              	.LVL43:
 616 0224 14E0     		b	.L26
 617              	.LVL44:
 618              	.L27:
 619              	.LBB5:
 979:Generated_Source\PSoC4/cyfitter_cfg.c **** 		}
 980:Generated_Source\PSoC4/cyfitter_cfg.c **** 
 981:Generated_Source\PSoC4/cyfitter_cfg.c **** 		/* Copy device configuration data into registers */
 982:Generated_Source\PSoC4/cyfitter_cfg.c **** 		for (i = 0u; i < (sizeof(cfg_memcpy_list)/sizeof(cfg_memcpy_list[0])); i++)
 983:Generated_Source\PSoC4/cyfitter_cfg.c **** 		{
 984:Generated_Source\PSoC4/cyfitter_cfg.c **** 			const cfg_memcpy_t CYCODE * CYDATA mc = &cfg_memcpy_list[i];
 985:Generated_Source\PSoC4/cyfitter_cfg.c **** 			void * CYDATA destPtr = mc->dest;
 620              		.loc 1 985 0 is_stmt 1 discriminator 3
 621 0226 544E     		ldr	r6, .L28+4
 622 0228 A200     		lsls	r2, r4, #2
 623 022a 1119     		adds	r1, r2, r4
 624 022c 4B00     		lsls	r3, r1, #1
 625 022e F318     		adds	r3, r6, r3
 626 0230 198B     		ldrh	r1, [r3, #24]
 627 0232 588B     		ldrh	r0, [r3, #26]
 628 0234 0004     		lsls	r0, r0, #16
 629 0236 0843     		orrs	r0, r1
 630              	.LVL45:
 986:Generated_Source\PSoC4/cyfitter_cfg.c **** 			const void CYCODE * CYDATA srcPtr = mc->src;
 631              		.loc 1 986 0 discriminator 3
 632 0238 9D8B     		ldrh	r5, [r3, #28]
 633 023a D98B     		ldrh	r1, [r3, #30]
 634 023c 0904     		lsls	r1, r1, #16
 635 023e 2943     		orrs	r1, r5
 636              	.LVL46:
 987:Generated_Source\PSoC4/cyfitter_cfg.c **** 			uint16 CYDATA numBytes = mc->size;
 637              		.loc 1 987 0 discriminator 3
 638 0240 1319     		adds	r3, r2, r4
 639 0242 5A00     		lsls	r2, r3, #1
 640 0244 B218     		adds	r2, r6, r2
ARM GAS  C:\Users\TERENC~1\AppData\Local\Temp\ccZN0dQJ.s 			page 30


 641 0246 128C     		ldrh	r2, [r2, #32]
 642              	.LVL47:
 988:Generated_Source\PSoC4/cyfitter_cfg.c **** 			CYCONFIGCPYCODE(destPtr, srcPtr, numBytes);
 643              		.loc 1 988 0 discriminator 3
 644 0248 FFF7FEFF 		bl	CYCONFIGCPYCODE
 645              	.LVL48:
 646              	.LBE5:
 982:Generated_Source\PSoC4/cyfitter_cfg.c **** 		{
 647              		.loc 1 982 0 discriminator 3
 648 024c 0134     		adds	r4, r4, #1
 649              	.LVL49:
 650 024e E4B2     		uxtb	r4, r4
 651              	.LVL50:
 652              	.L26:
 982:Generated_Source\PSoC4/cyfitter_cfg.c **** 		{
 653              		.loc 1 982 0 is_stmt 0 discriminator 1
 654 0250 012C     		cmp	r4, #1
 655 0252 E8D9     		bls	.L27
 989:Generated_Source\PSoC4/cyfitter_cfg.c **** 		}
 990:Generated_Source\PSoC4/cyfitter_cfg.c **** 
 991:Generated_Source\PSoC4/cyfitter_cfg.c **** 		cfg_write_bytes32(cy_cfg_addr_table, cy_cfg_data_table);
 656              		.loc 1 991 0 is_stmt 1
 657 0254 4849     		ldr	r1, .L28+4
 658 0256 2C31     		adds	r1, r1, #44
 659 0258 4848     		ldr	r0, .L28+8
 660 025a 2030     		adds	r0, r0, #32
 661 025c FFF7FEFF 		bl	cfg_write_bytes32
 662              	.LVL51:
 992:Generated_Source\PSoC4/cyfitter_cfg.c **** 
 993:Generated_Source\PSoC4/cyfitter_cfg.c **** 		/* HSIOM Starting address: CYDEV_HSIOM_BASE */
 994:Generated_Source\PSoC4/cyfitter_cfg.c **** 		CY_SET_REG32((void *)(CYDEV_HSIOM_BASE), 0x00000670u);
 663              		.loc 1 994 0
 664 0260 CE22     		movs	r2, #206
 665 0262 D200     		lsls	r2, r2, #3
 666 0264 464B     		ldr	r3, .L28+12
 667 0266 1A60     		str	r2, [r3]
 995:Generated_Source\PSoC4/cyfitter_cfg.c **** 		CY_SET_REG32((void *)(CYREG_HSIOM_PORT_SEL3), 0x0333EE00u);
 668              		.loc 1 995 0
 669 0268 464A     		ldr	r2, .L28+16
 670 026a 474B     		ldr	r3, .L28+20
 671 026c 1A60     		str	r2, [r3]
 996:Generated_Source\PSoC4/cyfitter_cfg.c **** 		CY_SET_REG32((void *)(CYREG_HSIOM_PORT_SEL4), 0x000000EEu);
 672              		.loc 1 996 0
 673 026e EE22     		movs	r2, #238
 674 0270 464B     		ldr	r3, .L28+24
 675 0272 1A60     		str	r2, [r3]
 997:Generated_Source\PSoC4/cyfitter_cfg.c **** 		CY_SET_REG32((void *)(CYREG_HSIOM_PORT_SEL5), 0x30000000u);
 676              		.loc 1 997 0
 677 0274 C022     		movs	r2, #192
 678 0276 9205     		lsls	r2, r2, #22
 679 0278 454B     		ldr	r3, .L28+28
 680 027a 1A60     		str	r2, [r3]
 998:Generated_Source\PSoC4/cyfitter_cfg.c **** 		CY_SET_REG32((void *)(CYREG_HSIOM_PORT_SEL8), 0x00000099u);
 681              		.loc 1 998 0
 682 027c 9922     		movs	r2, #153
 683 027e 454B     		ldr	r3, .L28+32
 684 0280 1A60     		str	r2, [r3]
ARM GAS  C:\Users\TERENC~1\AppData\Local\Temp\ccZN0dQJ.s 			page 31


 999:Generated_Source\PSoC4/cyfitter_cfg.c **** 		CY_SET_REG32((void *)(CYREG_HSIOM_PORT_SEL11), 0x08080800u);
 685              		.loc 1 999 0
 686 0282 454A     		ldr	r2, .L28+36
 687 0284 454B     		ldr	r3, .L28+40
 688 0286 1A60     		str	r2, [r3]
1000:Generated_Source\PSoC4/cyfitter_cfg.c **** 
1001:Generated_Source\PSoC4/cyfitter_cfg.c **** 		/* UDB_PA_0 Starting address: CYDEV_UDB_PA0_BASE */
1002:Generated_Source\PSoC4/cyfitter_cfg.c **** 		CY_SET_REG32((void *)(CYDEV_UDB_PA0_BASE), 0x00990000u);
 689              		.loc 1 1002 0
 690 0288 9923     		movs	r3, #153
 691 028a 1B04     		lsls	r3, r3, #16
 692 028c 444A     		ldr	r2, .L28+44
 693 028e 1360     		str	r3, [r2]
1003:Generated_Source\PSoC4/cyfitter_cfg.c **** 		CY_SET_REG32((void *)(CYREG_UDB_PA0_CFG8), 0xC0000000u);
 694              		.loc 1 1003 0
 695 0290 C021     		movs	r1, #192
 696 0292 0906     		lsls	r1, r1, #24
 697 0294 434A     		ldr	r2, .L28+48
 698 0296 1160     		str	r1, [r2]
1004:Generated_Source\PSoC4/cyfitter_cfg.c **** 
1005:Generated_Source\PSoC4/cyfitter_cfg.c **** 		/* UDB_PA_2 Starting address: CYDEV_UDB_PA2_BASE */
1006:Generated_Source\PSoC4/cyfitter_cfg.c **** 		CY_SET_REG32((void *)(CYDEV_UDB_PA2_BASE), 0x00990000u);
 699              		.loc 1 1006 0
 700 0298 434A     		ldr	r2, .L28+52
 701 029a 1360     		str	r3, [r2]
1007:Generated_Source\PSoC4/cyfitter_cfg.c **** 
1008:Generated_Source\PSoC4/cyfitter_cfg.c **** 		/* UDB_PA_4 Starting address: CYDEV_UDB_PA4_BASE */
1009:Generated_Source\PSoC4/cyfitter_cfg.c **** 		CY_SET_REG32((void *)(CYDEV_UDB_PA4_BASE), 0x00990000u);
 702              		.loc 1 1009 0
 703 029c 434A     		ldr	r2, .L28+56
 704 029e 1360     		str	r3, [r2]
1010:Generated_Source\PSoC4/cyfitter_cfg.c **** 		CY_SET_REG32((void *)(CYREG_UDB_PA4_CFG4), 0x00800000u);
 705              		.loc 1 1010 0
 706 02a0 8021     		movs	r1, #128
 707 02a2 0904     		lsls	r1, r1, #16
 708 02a4 424A     		ldr	r2, .L28+60
 709 02a6 1160     		str	r1, [r2]
1011:Generated_Source\PSoC4/cyfitter_cfg.c **** 		CY_SET_REG32((void *)(CYREG_UDB_PA4_CFG8), 0x00140000u);
 710              		.loc 1 1011 0
 711 02a8 A021     		movs	r1, #160
 712 02aa 4903     		lsls	r1, r1, #13
 713 02ac 414A     		ldr	r2, .L28+64
 714 02ae 1160     		str	r1, [r2]
1012:Generated_Source\PSoC4/cyfitter_cfg.c **** 
1013:Generated_Source\PSoC4/cyfitter_cfg.c **** 		/* UDB_PA_5 Starting address: CYDEV_UDB_PA5_BASE */
1014:Generated_Source\PSoC4/cyfitter_cfg.c **** 		CY_SET_REG32((void *)(CYDEV_UDB_PA5_BASE), 0x00990000u);
 715              		.loc 1 1014 0
 716 02b0 414A     		ldr	r2, .L28+68
 717 02b2 1360     		str	r3, [r2]
1015:Generated_Source\PSoC4/cyfitter_cfg.c **** 
1016:Generated_Source\PSoC4/cyfitter_cfg.c **** 		/* UDB_PA_6 Starting address: CYDEV_UDB_PA6_BASE */
1017:Generated_Source\PSoC4/cyfitter_cfg.c **** 		CY_SET_REG32((void *)(CYDEV_UDB_PA6_BASE), 0x00990000u);
 718              		.loc 1 1017 0
 719 02b4 414A     		ldr	r2, .L28+72
 720 02b6 1360     		str	r3, [r2]
1018:Generated_Source\PSoC4/cyfitter_cfg.c **** 
1019:Generated_Source\PSoC4/cyfitter_cfg.c **** 		/* UDB_PA_7 Starting address: CYDEV_UDB_PA7_BASE */
ARM GAS  C:\Users\TERENC~1\AppData\Local\Temp\ccZN0dQJ.s 			page 32


1020:Generated_Source\PSoC4/cyfitter_cfg.c **** 		CY_SET_REG32((void *)(CYDEV_UDB_PA7_BASE), 0x00990000u);
 721              		.loc 1 1020 0
 722 02b8 414A     		ldr	r2, .L28+76
 723 02ba 1360     		str	r3, [r2]
1021:Generated_Source\PSoC4/cyfitter_cfg.c **** 		CY_SET_REG32((void *)(CYREG_UDB_PA7_CFG8), 0x8D000000u);
 724              		.loc 1 1021 0
 725 02bc 8D22     		movs	r2, #141
 726 02be 1206     		lsls	r2, r2, #24
 727 02c0 404B     		ldr	r3, .L28+80
 728 02c2 1A60     		str	r2, [r3]
1022:Generated_Source\PSoC4/cyfitter_cfg.c **** 
1023:Generated_Source\PSoC4/cyfitter_cfg.c **** 		/* TCPWM_CNT0 Starting address: CYDEV_TCPWM_CNT0_TR_CTRL0 */
1024:Generated_Source\PSoC4/cyfitter_cfg.c **** 		CY_SET_REG32((void *)(CYREG_TCPWM_CNT0_TR_CTRL0), 0x00000090u);
 729              		.loc 1 1024 0
 730 02c4 9022     		movs	r2, #144
 731 02c6 404B     		ldr	r3, .L28+84
 732 02c8 1A60     		str	r2, [r3]
1025:Generated_Source\PSoC4/cyfitter_cfg.c **** 
1026:Generated_Source\PSoC4/cyfitter_cfg.c **** 		/* INT_SELECT Starting address: CYDEV_CPUSS_INT_SEL */
1027:Generated_Source\PSoC4/cyfitter_cfg.c **** 		CY_SET_REG32((void *)(CYREG_CPUSS_INT_SEL), 0x0000000Eu);
 733              		.loc 1 1027 0
 734 02ca 823A     		subs	r2, r2, #130
 735 02cc 3F4B     		ldr	r3, .L28+88
 736 02ce 1A60     		str	r2, [r3]
1028:Generated_Source\PSoC4/cyfitter_cfg.c **** 
1029:Generated_Source\PSoC4/cyfitter_cfg.c **** 		/* TR_GROUP0 Starting address: CYDEV_PERI_TR_GROUP0_TR_OUT_CTL0 */
1030:Generated_Source\PSoC4/cyfitter_cfg.c **** 		CY_SET_REG32((void *)(CYREG_PERI_TR_GROUP0_TR_OUT_CTL0), 0x00000022u);
 737              		.loc 1 1030 0
 738 02d0 1432     		adds	r2, r2, #20
 739 02d2 3F4B     		ldr	r3, .L28+92
 740 02d4 1A60     		str	r2, [r3]
1031:Generated_Source\PSoC4/cyfitter_cfg.c **** 		CY_SET_REG32((void *)(CYREG_PERI_TR_GROUP0_TR_OUT_CTL2), 0x00000019u);
 741              		.loc 1 1031 0
 742 02d6 093A     		subs	r2, r2, #9
 743 02d8 3E4B     		ldr	r3, .L28+96
 744 02da 1A60     		str	r2, [r3]
1032:Generated_Source\PSoC4/cyfitter_cfg.c **** 
1033:Generated_Source\PSoC4/cyfitter_cfg.c **** 		/* INT_CONFIG Starting address: CYDEV_UDB_INT_CFG */
1034:Generated_Source\PSoC4/cyfitter_cfg.c **** 		CY_SET_REG32((void *)(CYREG_UDB_INT_CFG), 0x0000000Cu);
 745              		.loc 1 1034 0
 746 02dc 0D3A     		subs	r2, r2, #13
 747 02de 3E4B     		ldr	r3, .L28+100
 748 02e0 1A60     		str	r2, [r3]
1035:Generated_Source\PSoC4/cyfitter_cfg.c **** 
1036:Generated_Source\PSoC4/cyfitter_cfg.c **** 		/* Enable UDB array and digital routing */
1037:Generated_Source\PSoC4/cyfitter_cfg.c **** 		CY_SET_XTND_REG8((void *)CYREG_UDB_UDB_WAIT_CFG, (uint8)((CY_GET_XTND_REG8((void *)CYREG_UDB_UDB_
 749              		.loc 1 1037 0
 750 02e2 3E49     		ldr	r1, .L28+104
 751 02e4 0B78     		ldrb	r3, [r1]
 752 02e6 3032     		adds	r2, r2, #48
 753 02e8 9343     		bics	r3, r2
 754 02ea 1422     		movs	r2, #20
 755 02ec 1343     		orrs	r3, r2
 756 02ee DBB2     		uxtb	r3, r3
 757 02f0 0B70     		strb	r3, [r1]
1038:Generated_Source\PSoC4/cyfitter_cfg.c **** 		CY_SET_XTND_REG8((void *)CYREG_UDB_UDB_BANK_CTL, (uint8)(CY_GET_XTND_REG8((void *)CYREG_UDB_UDB_B
 758              		.loc 1 1038 0
ARM GAS  C:\Users\TERENC~1\AppData\Local\Temp\ccZN0dQJ.s 			page 33


 759 02f2 3B4A     		ldr	r2, .L28+108
 760 02f4 1178     		ldrb	r1, [r2]
 761 02f6 1623     		movs	r3, #22
 762 02f8 0B43     		orrs	r3, r1
 763 02fa DBB2     		uxtb	r3, r3
 764 02fc 1370     		strb	r3, [r2]
 765              	.LBE3:
1039:Generated_Source\PSoC4/cyfitter_cfg.c **** 	}
1040:Generated_Source\PSoC4/cyfitter_cfg.c **** 
1041:Generated_Source\PSoC4/cyfitter_cfg.c **** 	/* Perform second pass device configuration. These items must be configured in specific order afte
1042:Generated_Source\PSoC4/cyfitter_cfg.c **** 	/* IOPINS0_0 Starting address: CYDEV_GPIO_PRT0_BASE */
1043:Generated_Source\PSoC4/cyfitter_cfg.c **** 	CY_SET_REG32((void *)(CYDEV_GPIO_PRT0_BASE), 0x00000006u);
 766              		.loc 1 1043 0
 767 02fe 0623     		movs	r3, #6
 768 0300 384A     		ldr	r2, .L28+112
 769 0302 1360     		str	r3, [r2]
1044:Generated_Source\PSoC4/cyfitter_cfg.c **** 	CY_SET_REG32((void *)(CYREG_GPIO_PRT0_PC), 0x00000406u);
 770              		.loc 1 1044 0
 771 0304 3849     		ldr	r1, .L28+116
 772 0306 394A     		ldr	r2, .L28+120
 773 0308 1160     		str	r1, [r2]
1045:Generated_Source\PSoC4/cyfitter_cfg.c **** 	CY_SET_REG32((void *)(CYREG_GPIO_PRT0_INTR_CFG), 0x000000C0u);
 774              		.loc 1 1045 0
 775 030a C021     		movs	r1, #192
 776 030c 384A     		ldr	r2, .L28+124
 777 030e 1160     		str	r1, [r2]
1046:Generated_Source\PSoC4/cyfitter_cfg.c **** 	CY_SET_REG32((void *)(CYREG_GPIO_PRT0_PC2), 0x00000006u);
 778              		.loc 1 1046 0
 779 0310 384A     		ldr	r2, .L28+128
 780 0312 1360     		str	r3, [r2]
1047:Generated_Source\PSoC4/cyfitter_cfg.c **** 
1048:Generated_Source\PSoC4/cyfitter_cfg.c **** 	/* IOPINS0_11 Starting address: CYDEV_GPIO_PRT11_BASE */
1049:Generated_Source\PSoC4/cyfitter_cfg.c **** 	CY_SET_REG32((void *)(CYDEV_GPIO_PRT11_BASE), 0x00000054u);
 781              		.loc 1 1049 0
 782 0314 5422     		movs	r2, #84
 783 0316 384B     		ldr	r3, .L28+132
 784 0318 1A60     		str	r2, [r3]
1050:Generated_Source\PSoC4/cyfitter_cfg.c **** 	CY_SET_REG32((void *)(CYREG_GPIO_PRT11_PC), 0x00186180u);
 785              		.loc 1 1050 0
 786 031a 384A     		ldr	r2, .L28+136
 787 031c 384B     		ldr	r3, .L28+140
 788 031e 1A60     		str	r2, [r3]
1051:Generated_Source\PSoC4/cyfitter_cfg.c **** 
1052:Generated_Source\PSoC4/cyfitter_cfg.c **** 	/* IOPINS0_13 Starting address: CYDEV_GPIO_PRT13_BASE */
1053:Generated_Source\PSoC4/cyfitter_cfg.c **** 	CY_SET_REG32((void *)(CYDEV_GPIO_PRT13_BASE), 0x00000003u);
 789              		.loc 1 1053 0
 790 0320 0322     		movs	r2, #3
 791 0322 384B     		ldr	r3, .L28+144
 792 0324 1A60     		str	r2, [r3]
1054:Generated_Source\PSoC4/cyfitter_cfg.c **** 	CY_SET_REG32((void *)(CYREG_GPIO_PRT13_INTR_CFG), 0x00000002u);
 793              		.loc 1 1054 0
 794 0326 0223     		movs	r3, #2
 795 0328 3749     		ldr	r1, .L28+148
 796 032a 0B60     		str	r3, [r1]
1055:Generated_Source\PSoC4/cyfitter_cfg.c **** 
1056:Generated_Source\PSoC4/cyfitter_cfg.c **** 	/* IOPINS0_2 Starting address: CYDEV_GPIO_PRT2_BASE */
1057:Generated_Source\PSoC4/cyfitter_cfg.c **** 	CY_SET_REG32((void *)(CYDEV_GPIO_PRT2_BASE), 0x0000000Du);
ARM GAS  C:\Users\TERENC~1\AppData\Local\Temp\ccZN0dQJ.s 			page 34


 797              		.loc 1 1057 0
 798 032c 0D20     		movs	r0, #13
 799 032e 3749     		ldr	r1, .L28+152
 800 0330 0860     		str	r0, [r1]
1058:Generated_Source\PSoC4/cyfitter_cfg.c **** 	CY_SET_REG32((void *)(CYREG_GPIO_PRT2_PC), 0x00000D86u);
 801              		.loc 1 1058 0
 802 0332 3748     		ldr	r0, .L28+156
 803 0334 3749     		ldr	r1, .L28+160
 804 0336 0860     		str	r0, [r1]
1059:Generated_Source\PSoC4/cyfitter_cfg.c **** 
1060:Generated_Source\PSoC4/cyfitter_cfg.c **** 	/* IOPINS0_3 Starting address: CYDEV_GPIO_PRT3_BASE */
1061:Generated_Source\PSoC4/cyfitter_cfg.c **** 	CY_SET_REG32((void *)(CYDEV_GPIO_PRT3_BASE), 0x00000070u);
 805              		.loc 1 1061 0
 806 0338 7020     		movs	r0, #112
 807 033a 3749     		ldr	r1, .L28+164
 808 033c 0860     		str	r0, [r1]
1062:Generated_Source\PSoC4/cyfitter_cfg.c **** 	CY_SET_REG32((void *)(CYREG_GPIO_PRT3_PC), 0x003B6D80u);
 809              		.loc 1 1062 0
 810 033e 3748     		ldr	r0, .L28+168
 811 0340 3749     		ldr	r1, .L28+172
 812 0342 0860     		str	r0, [r1]
1063:Generated_Source\PSoC4/cyfitter_cfg.c **** 
1064:Generated_Source\PSoC4/cyfitter_cfg.c **** 	/* IOPINS0_4 Starting address: CYDEV_GPIO_PRT4_BASE */
1065:Generated_Source\PSoC4/cyfitter_cfg.c **** 	CY_SET_REG32((void *)(CYDEV_GPIO_PRT4_BASE), 0x00000003u);
 813              		.loc 1 1065 0
 814 0344 3749     		ldr	r1, .L28+176
 815 0346 0A60     		str	r2, [r1]
1066:Generated_Source\PSoC4/cyfitter_cfg.c **** 	CY_SET_REG32((void *)(CYREG_GPIO_PRT4_PC), 0x00000024u);
 816              		.loc 1 1066 0
 817 0348 2421     		movs	r1, #36
 818 034a 374A     		ldr	r2, .L28+180
 819 034c 1160     		str	r1, [r2]
1067:Generated_Source\PSoC4/cyfitter_cfg.c **** 
1068:Generated_Source\PSoC4/cyfitter_cfg.c **** 	/* IOPINS0_5 Starting address: CYDEV_GPIO_PRT5_BASE */
1069:Generated_Source\PSoC4/cyfitter_cfg.c **** 	CY_SET_REG32((void *)(CYDEV_GPIO_PRT5_BASE), 0x00000080u);
 820              		.loc 1 1069 0
 821 034e 5C31     		adds	r1, r1, #92
 822 0350 364A     		ldr	r2, .L28+184
 823 0352 1160     		str	r1, [r2]
1070:Generated_Source\PSoC4/cyfitter_cfg.c **** 	CY_SET_REG32((void *)(CYREG_GPIO_PRT5_PC), 0x00C00000u);
 824              		.loc 1 1070 0
 825 0354 C021     		movs	r1, #192
 826 0356 0904     		lsls	r1, r1, #16
 827 0358 354A     		ldr	r2, .L28+188
 828 035a 1160     		str	r1, [r2]
1071:Generated_Source\PSoC4/cyfitter_cfg.c **** 
1072:Generated_Source\PSoC4/cyfitter_cfg.c **** 	/* IOPINS0_8 Starting address: CYDEV_GPIO_PRT8_BASE */
1073:Generated_Source\PSoC4/cyfitter_cfg.c **** 	CY_SET_REG32((void *)(CYDEV_GPIO_PRT8_BASE), 0x00000002u);
 829              		.loc 1 1073 0
 830 035c 354A     		ldr	r2, .L28+192
 831 035e 1360     		str	r3, [r2]
1074:Generated_Source\PSoC4/cyfitter_cfg.c **** 	CY_SET_REG32((void *)(CYREG_GPIO_PRT8_PC), 0x00000031u);
 832              		.loc 1 1074 0
 833 0360 3121     		movs	r1, #49
 834 0362 354A     		ldr	r2, .L28+196
 835 0364 1160     		str	r1, [r2]
1075:Generated_Source\PSoC4/cyfitter_cfg.c **** 	CY_SET_REG32((void *)(CYREG_GPIO_PRT8_PC2), 0x00000002u);
ARM GAS  C:\Users\TERENC~1\AppData\Local\Temp\ccZN0dQJ.s 			page 35


 836              		.loc 1 1075 0
 837 0366 354A     		ldr	r2, .L28+200
 838 0368 1360     		str	r3, [r2]
1076:Generated_Source\PSoC4/cyfitter_cfg.c **** 
1077:Generated_Source\PSoC4/cyfitter_cfg.c **** 
1078:Generated_Source\PSoC4/cyfitter_cfg.c **** 	/* Setup clocks based on selections from Clock DWR */
1079:Generated_Source\PSoC4/cyfitter_cfg.c **** 	ClockSetup();
 839              		.loc 1 1079 0
 840 036a FFF749FE 		bl	ClockSetup
 841              	.LVL52:
1080:Generated_Source\PSoC4/cyfitter_cfg.c **** 
1081:Generated_Source\PSoC4/cyfitter_cfg.c **** 	/* Perform basic analog initialization to defaults */
1082:Generated_Source\PSoC4/cyfitter_cfg.c **** 	AnalogSetDefault();
 842              		.loc 1 1082 0
 843 036e FFF7FEFF 		bl	AnalogSetDefault
 844              	.LVL53:
1083:Generated_Source\PSoC4/cyfitter_cfg.c **** 
1084:Generated_Source\PSoC4/cyfitter_cfg.c **** }
 845              		.loc 1 1084 0
 846              		@ sp needed
 847              	.LVL54:
 848 0372 70BD     		pop	{r4, r5, r6, pc}
 849              	.L29:
 850              		.align	2
 851              	.L28:
 852 0374 1C700F40 		.word	1074753564
 853 0378 00000000 		.word	.LANCHOR0
 854 037c 00040000 		.word	.LANCHOR1
 855 0380 00000240 		.word	1073872896
 856 0384 00EE3303 		.word	53734912
 857 0388 00030240 		.word	1073873664
 858 038c 00040240 		.word	1073873920
 859 0390 00050240 		.word	1073874176
 860 0394 00080240 		.word	1073874944
 861 0398 00080808 		.word	134744064
 862 039c 000B0240 		.word	1073875712
 863 03a0 00500F40 		.word	1074745344
 864 03a4 08500F40 		.word	1074745352
 865 03a8 20500F40 		.word	1074745376
 866 03ac 40500F40 		.word	1074745408
 867 03b0 44500F40 		.word	1074745412
 868 03b4 48500F40 		.word	1074745416
 869 03b8 50500F40 		.word	1074745424
 870 03bc 60500F40 		.word	1074745440
 871 03c0 70500F40 		.word	1074745456
 872 03c4 78500F40 		.word	1074745464
 873 03c8 20012040 		.word	1075839264
 874 03cc 20001040 		.word	1074790432
 875 03d0 00200140 		.word	1073815552
 876 03d4 08200140 		.word	1073815560
 877 03d8 00800F40 		.word	1074757632
 878 03dc 01700F40 		.word	1074753537
 879 03e0 00700F40 		.word	1074753536
 880 03e4 00000440 		.word	1074003968
 881 03e8 06040000 		.word	1030
 882 03ec 08000440 		.word	1074003976
 883 03f0 0C000440 		.word	1074003980
ARM GAS  C:\Users\TERENC~1\AppData\Local\Temp\ccZN0dQJ.s 			page 36


 884 03f4 18000440 		.word	1074003992
 885 03f8 000B0440 		.word	1074006784
 886 03fc 80611800 		.word	1597824
 887 0400 080B0440 		.word	1074006792
 888 0404 000D0440 		.word	1074007296
 889 0408 0C0D0440 		.word	1074007308
 890 040c 00020440 		.word	1074004480
 891 0410 860D0000 		.word	3462
 892 0414 08020440 		.word	1074004488
 893 0418 00030440 		.word	1074004736
 894 041c 806D3B00 		.word	3894656
 895 0420 08030440 		.word	1074004744
 896 0424 00040440 		.word	1074004992
 897 0428 08040440 		.word	1074005000
 898 042c 00050440 		.word	1074005248
 899 0430 08050440 		.word	1074005256
 900 0434 00080440 		.word	1074006016
 901 0438 08080440 		.word	1074006024
 902 043c 18080440 		.word	1074006040
 903              		.cfi_endproc
 904              	.LFE8:
 905              		.size	cyfitter_cfg, .-cyfitter_cfg
 906              		.section	.rodata
 907              		.align	2
 908              		.set	.LANCHOR0,. + 0
 909              		.set	.LANCHOR1,. + 1024
 910              		.type	cfg_memset_list.4997, %object
 911              		.size	cfg_memset_list.4997, 24
 912              	cfg_memset_list.4997:
 913 0000 00300F40 		.word	1074737152
 914 0004 8002     		.short	640
 915 0006 00330F40 		.4byte	1074737920
 916 000a 8003     		.short	896
 917 000c 00370F40 		.word	1074738944
 918 0010 0001     		.short	256
 919 0012 00400F40 		.4byte	1074741248
 920 0016 0008     		.short	2048
 921              		.type	cfg_memcpy_list.5000, %object
 922              		.size	cfg_memcpy_list.5000, 20
 923              	cfg_memcpy_list.5000:
 924 0018 80320F40 		.word	1074737792
 925 001c 68040000 		.word	BS_UDB_0_2_0_CONFIG_VAL.4998
 926 0020 8000     		.short	128
 927 0022 80360F40 		.4byte	1074738816
 928 0026 E8040000 		.4byte	BS_UDB_0_0_0_CONFIG_VAL.4999
 929 002a 8000     		.short	128
 930              		.type	cy_cfg_data_table.4987, %object
 931              		.size	cy_cfg_data_table.4987, 1010
 932              	cy_cfg_data_table.4987:
 933 002c 81       		.byte	-127
 934 002d 0D       		.byte	13
 935 002e 85       		.byte	-123
 936 002f 7F       		.byte	127
 937 0030 02       		.byte	2
 938 0031 01       		.byte	1
 939 0032 0D       		.byte	13
 940 0033 01       		.byte	1
ARM GAS  C:\Users\TERENC~1\AppData\Local\Temp\ccZN0dQJ.s 			page 37


 941 0034 0F       		.byte	15
 942 0035 02       		.byte	2
 943 0036 13       		.byte	19
 944 0037 02       		.byte	2
 945 0038 16       		.byte	22
 946 0039 01       		.byte	1
 947 003a 17       		.byte	23
 948 003b 01       		.byte	1
 949 003c 30       		.byte	48
 950 003d 01       		.byte	1
 951 003e 31       		.byte	49
 952 003f 03       		.byte	3
 953 0040 3A       		.byte	58
 954 0041 30       		.byte	48
 955 0042 3E       		.byte	62
 956 0043 01       		.byte	1
 957 0044 3F       		.byte	63
 958 0045 01       		.byte	1
 959 0046 52       		.byte	82
 960 0047 80       		.byte	-128
 961 0048 58       		.byte	88
 962 0049 04       		.byte	4
 963 004a 59       		.byte	89
 964 004b 04       		.byte	4
 965 004c 5B       		.byte	91
 966 004d 09       		.byte	9
 967 004e 5C       		.byte	92
 968 004f 08       		.byte	8
 969 0050 5D       		.byte	93
 970 0051 90       		.byte	-112
 971 0052 5F       		.byte	95
 972 0053 01       		.byte	1
 973 0054 82       		.byte	-126
 974 0055 01       		.byte	1
 975 0056 83       		.byte	-125
 976 0057 3F       		.byte	63
 977 0058 89       		.byte	-119
 978 0059 01       		.byte	1
 979 005a 8A       		.byte	-118
 980 005b 04       		.byte	4
 981 005c 8B       		.byte	-117
 982 005d C0       		.byte	-64
 983 005e 8C       		.byte	-116
 984 005f 04       		.byte	4
 985 0060 8D       		.byte	-115
 986 0061 FF       		.byte	-1
 987 0062 8E       		.byte	-114
 988 0063 08       		.byte	8
 989 0064 91       		.byte	-111
 990 0065 04       		.byte	4
 991 0066 92       		.byte	-110
 992 0067 10       		.byte	16
 993 0068 93       		.byte	-109
 994 0069 C0       		.byte	-64
 995 006a 95       		.byte	-107
 996 006b 02       		.byte	2
 997 006c 96       		.byte	-106
ARM GAS  C:\Users\TERENC~1\AppData\Local\Temp\ccZN0dQJ.s 			page 38


 998 006d 01       		.byte	1
 999 006e 97       		.byte	-105
 1000 006f C0       		.byte	-64
 1001 0070 98       		.byte	-104
 1002 0071 08       		.byte	8
 1003 0072 99       		.byte	-103
 1004 0073 40       		.byte	64
 1005 0074 9A       		.byte	-102
 1006 0075 04       		.byte	4
 1007 0076 9B       		.byte	-101
 1008 0077 80       		.byte	-128
 1009 0078 9C       		.byte	-100
 1010 0079 20       		.byte	32
 1011 007a 9F       		.byte	-97
 1012 007b 7F       		.byte	127
 1013 007c A1       		.byte	-95
 1014 007d 08       		.byte	8
 1015 007e A2       		.byte	-94
 1016 007f 10       		.byte	16
 1017 0080 A3       		.byte	-93
 1018 0081 C0       		.byte	-64
 1019 0082 A5       		.byte	-91
 1020 0083 10       		.byte	16
 1021 0084 A7       		.byte	-89
 1022 0085 C0       		.byte	-64
 1023 0086 A9       		.byte	-87
 1024 0087 C0       		.byte	-64
 1025 0088 AA       		.byte	-86
 1026 0089 02       		.byte	2
 1027 008a AB       		.byte	-85
 1028 008b 20       		.byte	32
 1029 008c AE       		.byte	-82
 1030 008d 03       		.byte	3
 1031 008e AF       		.byte	-81
 1032 008f 80       		.byte	-128
 1033 0090 B0       		.byte	-80
 1034 0091 03       		.byte	3
 1035 0092 B2       		.byte	-78
 1036 0093 0C       		.byte	12
 1037 0094 B4       		.byte	-76
 1038 0095 10       		.byte	16
 1039 0096 B6       		.byte	-74
 1040 0097 20       		.byte	32
 1041 0098 B7       		.byte	-73
 1042 0099 FF       		.byte	-1
 1043 009a BE       		.byte	-66
 1044 009b 10       		.byte	16
 1045 009c C0       		.byte	-64
 1046 009d 45       		.byte	69
 1047 009e C5       		.byte	-59
 1048 009f EC       		.byte	-20
 1049 00a0 C6       		.byte	-58
 1050 00a1 02       		.byte	2
 1051 00a2 C8       		.byte	-56
 1052 00a3 07       		.byte	7
 1053 00a4 C9       		.byte	-55
 1054 00a5 FF       		.byte	-1
ARM GAS  C:\Users\TERENC~1\AppData\Local\Temp\ccZN0dQJ.s 			page 39


 1055 00a6 CA       		.byte	-54
 1056 00a7 FF       		.byte	-1
 1057 00a8 CB       		.byte	-53
 1058 00a9 FF       		.byte	-1
 1059 00aa CF       		.byte	-49
 1060 00ab 01       		.byte	1
 1061 00ac D0       		.byte	-48
 1062 00ad 18       		.byte	24
 1063 00ae D4       		.byte	-44
 1064 00af 01       		.byte	1
 1065 00b0 D8       		.byte	-40
 1066 00b1 04       		.byte	4
 1067 00b2 D9       		.byte	-39
 1068 00b3 04       		.byte	4
 1069 00b4 DA       		.byte	-38
 1070 00b5 08       		.byte	8
 1071 00b6 DB       		.byte	-37
 1072 00b7 08       		.byte	8
 1073 00b8 DC       		.byte	-36
 1074 00b9 88       		.byte	-120
 1075 00ba DD       		.byte	-35
 1076 00bb 99       		.byte	-103
 1077 00bc DF       		.byte	-33
 1078 00bd 31       		.byte	49
 1079 00be E0       		.byte	-32
 1080 00bf 40       		.byte	64
 1081 00c0 E2       		.byte	-30
 1082 00c1 40       		.byte	64
 1083 00c2 E4       		.byte	-28
 1084 00c3 40       		.byte	64
 1085 00c4 E5       		.byte	-27
 1086 00c5 40       		.byte	64
 1087 00c6 E6       		.byte	-26
 1088 00c7 80       		.byte	-128
 1089 00c8 E8       		.byte	-24
 1090 00c9 80       		.byte	-128
 1091 00ca EA       		.byte	-22
 1092 00cb 80       		.byte	-128
 1093 00cc EC       		.byte	-20
 1094 00cd 80       		.byte	-128
 1095 00ce EE       		.byte	-18
 1096 00cf 80       		.byte	-128
 1097 00d0 01       		.byte	1
 1098 00d1 02       		.byte	2
 1099 00d2 04       		.byte	4
 1100 00d3 60       		.byte	96
 1101 00d4 05       		.byte	5
 1102 00d5 02       		.byte	2
 1103 00d6 09       		.byte	9
 1104 00d7 08       		.byte	8
 1105 00d8 0D       		.byte	13
 1106 00d9 2A       		.byte	42
 1107 00da 0F       		.byte	15
 1108 00db 02       		.byte	2
 1109 00dc 14       		.byte	20
 1110 00dd 01       		.byte	1
 1111 00de 16       		.byte	22
ARM GAS  C:\Users\TERENC~1\AppData\Local\Temp\ccZN0dQJ.s 			page 40


 1112 00df 80       		.byte	-128
 1113 00e0 17       		.byte	23
 1114 00e1 10       		.byte	16
 1115 00e2 1A       		.byte	26
 1116 00e3 88       		.byte	-120
 1117 00e4 1D       		.byte	29
 1118 00e5 08       		.byte	8
 1119 00e6 1E       		.byte	30
 1120 00e7 40       		.byte	64
 1121 00e8 1F       		.byte	31
 1122 00e9 50       		.byte	80
 1123 00ea 22       		.byte	34
 1124 00eb 02       		.byte	2
 1125 00ec 26       		.byte	38
 1126 00ed 80       		.byte	-128
 1127 00ee 27       		.byte	39
 1128 00ef 02       		.byte	2
 1129 00f0 2C       		.byte	44
 1130 00f1 81       		.byte	-127
 1131 00f2 2F       		.byte	47
 1132 00f3 24       		.byte	36
 1133 00f4 30       		.byte	48
 1134 00f5 02       		.byte	2
 1135 00f6 32       		.byte	50
 1136 00f7 08       		.byte	8
 1137 00f8 34       		.byte	52
 1138 00f9 20       		.byte	32
 1139 00fa 35       		.byte	53
 1140 00fb 04       		.byte	4
 1141 00fc 36       		.byte	54
 1142 00fd 80       		.byte	-128
 1143 00fe 37       		.byte	55
 1144 00ff 01       		.byte	1
 1145 0100 39       		.byte	57
 1146 0101 40       		.byte	64
 1147 0102 3E       		.byte	62
 1148 0103 60       		.byte	96
 1149 0104 3F       		.byte	63
 1150 0105 02       		.byte	2
 1151 0106 45       		.byte	69
 1152 0107 02       		.byte	2
 1153 0108 4D       		.byte	77
 1154 0109 04       		.byte	4
 1155 010a 4F       		.byte	79
 1156 010b 81       		.byte	-127
 1157 010c 56       		.byte	86
 1158 010d 80       		.byte	-128
 1159 010e 57       		.byte	87
 1160 010f 40       		.byte	64
 1161 0110 5C       		.byte	92
 1162 0111 80       		.byte	-128
 1163 0112 5D       		.byte	93
 1164 0113 04       		.byte	4
 1165 0114 5F       		.byte	95
 1166 0115 01       		.byte	1
 1167 0116 6D       		.byte	109
 1168 0117 40       		.byte	64
ARM GAS  C:\Users\TERENC~1\AppData\Local\Temp\ccZN0dQJ.s 			page 41


 1169 0118 71       		.byte	113
 1170 0119 02       		.byte	2
 1171 011a 7A       		.byte	122
 1172 011b 06       		.byte	6
 1173 011c 7D       		.byte	125
 1174 011d 01       		.byte	1
 1175 011e 7F       		.byte	127
 1176 011f 01       		.byte	1
 1177 0120 82       		.byte	-126
 1178 0121 40       		.byte	64
 1179 0122 83       		.byte	-125
 1180 0123 10       		.byte	16
 1181 0124 86       		.byte	-122
 1182 0125 04       		.byte	4
 1183 0126 88       		.byte	-120
 1184 0127 02       		.byte	2
 1185 0128 C0       		.byte	-64
 1186 0129 D8       		.byte	-40
 1187 012a C2       		.byte	-62
 1188 012b F4       		.byte	-12
 1189 012c C4       		.byte	-60
 1190 012d D0       		.byte	-48
 1191 012e CA       		.byte	-54
 1192 012f F0       		.byte	-16
 1193 0130 CC       		.byte	-52
 1194 0131 F3       		.byte	-13
 1195 0132 CE       		.byte	-50
 1196 0133 B8       		.byte	-72
 1197 0134 D0       		.byte	-48
 1198 0135 80       		.byte	-128
 1199 0136 D2       		.byte	-46
 1200 0137 10       		.byte	16
 1201 0138 D6       		.byte	-42
 1202 0139 D0       		.byte	-48
 1203 013a DE       		.byte	-34
 1204 013b 9C       		.byte	-100
 1205 013c 35       		.byte	53
 1206 013d 01       		.byte	1
 1207 013e 3A       		.byte	58
 1208 013f 03       		.byte	3
 1209 0140 3F       		.byte	63
 1210 0141 10       		.byte	16
 1211 0142 56       		.byte	86
 1212 0143 08       		.byte	8
 1213 0144 58       		.byte	88
 1214 0145 04       		.byte	4
 1215 0146 59       		.byte	89
 1216 0147 04       		.byte	4
 1217 0148 5B       		.byte	91
 1218 0149 04       		.byte	4
 1219 014a 5C       		.byte	92
 1220 014b 08       		.byte	8
 1221 014c 5D       		.byte	93
 1222 014d 90       		.byte	-112
 1223 014e 5F       		.byte	95
 1224 014f 11       		.byte	17
 1225 0150 02       		.byte	2
ARM GAS  C:\Users\TERENC~1\AppData\Local\Temp\ccZN0dQJ.s 			page 42


 1226 0151 04       		.byte	4
 1227 0152 03       		.byte	3
 1228 0153 60       		.byte	96
 1229 0154 09       		.byte	9
 1230 0155 08       		.byte	8
 1231 0156 0A       		.byte	10
 1232 0157 46       		.byte	70
 1233 0158 10       		.byte	16
 1234 0159 04       		.byte	4
 1235 015a 11       		.byte	17
 1236 015b 02       		.byte	2
 1237 015c 12       		.byte	18
 1238 015d 21       		.byte	33
 1239 015e 18       		.byte	24
 1240 015f 80       		.byte	-128
 1241 0160 19       		.byte	25
 1242 0161 21       		.byte	33
 1243 0162 1A       		.byte	26
 1244 0163 44       		.byte	68
 1245 0164 1E       		.byte	30
 1246 0165 80       		.byte	-128
 1247 0166 21       		.byte	33
 1248 0167 10       		.byte	16
 1249 0168 22       		.byte	34
 1250 0169 20       		.byte	32
 1251 016a 23       		.byte	35
 1252 016b 10       		.byte	16
 1253 016c 25       		.byte	37
 1254 016d 10       		.byte	16
 1255 016e 28       		.byte	40
 1256 016f 04       		.byte	4
 1257 0170 29       		.byte	41
 1258 0171 05       		.byte	5
 1259 0172 2A       		.byte	42
 1260 0173 A4       		.byte	-92
 1261 0174 30       		.byte	48
 1262 0175 80       		.byte	-128
 1263 0176 31       		.byte	49
 1264 0177 08       		.byte	8
 1265 0178 32       		.byte	50
 1266 0179 01       		.byte	1
 1267 017a 33       		.byte	51
 1268 017b 60       		.byte	96
 1269 017c 38       		.byte	56
 1270 017d 08       		.byte	8
 1271 017e 39       		.byte	57
 1272 017f 20       		.byte	32
 1273 0180 3A       		.byte	58
 1274 0181 01       		.byte	1
 1275 0182 3B       		.byte	59
 1276 0183 88       		.byte	-120
 1277 0184 40       		.byte	64
 1278 0185 40       		.byte	64
 1279 0186 41       		.byte	65
 1280 0187 62       		.byte	98
 1281 0188 42       		.byte	66
 1282 0189 10       		.byte	16
ARM GAS  C:\Users\TERENC~1\AppData\Local\Temp\ccZN0dQJ.s 			page 43


 1283 018a 44       		.byte	68
 1284 018b 80       		.byte	-128
 1285 018c 46       		.byte	70
 1286 018d 40       		.byte	64
 1287 018e 49       		.byte	73
 1288 018f 02       		.byte	2
 1289 0190 4A       		.byte	74
 1290 0191 0A       		.byte	10
 1291 0192 53       		.byte	83
 1292 0193 10       		.byte	16
 1293 0194 5A       		.byte	90
 1294 0195 A0       		.byte	-96
 1295 0196 5C       		.byte	92
 1296 0197 80       		.byte	-128
 1297 0198 5E       		.byte	94
 1298 0199 08       		.byte	8
 1299 019a 5F       		.byte	95
 1300 019b 14       		.byte	20
 1301 019c 67       		.byte	103
 1302 019d 06       		.byte	6
 1303 019e 69       		.byte	105
 1304 019f 54       		.byte	84
 1305 01a0 79       		.byte	121
 1306 01a1 01       		.byte	1
 1307 01a2 7A       		.byte	122
 1308 01a3 40       		.byte	64
 1309 01a4 7E       		.byte	126
 1310 01a5 14       		.byte	20
 1311 01a6 7F       		.byte	127
 1312 01a7 10       		.byte	16
 1313 01a8 91       		.byte	-111
 1314 01a9 80       		.byte	-128
 1315 01aa 92       		.byte	-110
 1316 01ab 88       		.byte	-120
 1317 01ac 93       		.byte	-109
 1318 01ad 80       		.byte	-128
 1319 01ae 94       		.byte	-108
 1320 01af 60       		.byte	96
 1321 01b0 95       		.byte	-107
 1322 01b1 01       		.byte	1
 1323 01b2 97       		.byte	-105
 1324 01b3 0A       		.byte	10
 1325 01b4 9B       		.byte	-101
 1326 01b5 02       		.byte	2
 1327 01b6 9C       		.byte	-100
 1328 01b7 21       		.byte	33
 1329 01b8 9D       		.byte	-99
 1330 01b9 06       		.byte	6
 1331 01ba 9E       		.byte	-98
 1332 01bb 20       		.byte	32
 1333 01bc 9F       		.byte	-97
 1334 01bd 01       		.byte	1
 1335 01be A4       		.byte	-92
 1336 01bf 80       		.byte	-128
 1337 01c0 A5       		.byte	-91
 1338 01c1 20       		.byte	32
 1339 01c2 A6       		.byte	-90
ARM GAS  C:\Users\TERENC~1\AppData\Local\Temp\ccZN0dQJ.s 			page 44


 1340 01c3 04       		.byte	4
 1341 01c4 A7       		.byte	-89
 1342 01c5 21       		.byte	33
 1343 01c6 AC       		.byte	-84
 1344 01c7 80       		.byte	-128
 1345 01c8 AF       		.byte	-81
 1346 01c9 10       		.byte	16
 1347 01ca B5       		.byte	-75
 1348 01cb 48       		.byte	72
 1349 01cc B6       		.byte	-74
 1350 01cd 08       		.byte	8
 1351 01ce C0       		.byte	-64
 1352 01cf 0E       		.byte	14
 1353 01d0 C2       		.byte	-62
 1354 01d1 0F       		.byte	15
 1355 01d2 C4       		.byte	-60
 1356 01d3 0F       		.byte	15
 1357 01d4 CA       		.byte	-54
 1358 01d5 0F       		.byte	15
 1359 01d6 CC       		.byte	-52
 1360 01d7 0F       		.byte	15
 1361 01d8 CE       		.byte	-50
 1362 01d9 0F       		.byte	15
 1363 01da D0       		.byte	-48
 1364 01db 0F       		.byte	15
 1365 01dc D2       		.byte	-46
 1366 01dd 0C       		.byte	12
 1367 01de D6       		.byte	-42
 1368 01df 3C       		.byte	60
 1369 01e0 D8       		.byte	-40
 1370 01e1 30       		.byte	48
 1371 01e2 DE       		.byte	-34
 1372 01e3 21       		.byte	33
 1373 01e4 00       		.byte	0
 1374 01e5 80       		.byte	-128
 1375 01e6 02       		.byte	2
 1376 01e7 04       		.byte	4
 1377 01e8 04       		.byte	4
 1378 01e9 80       		.byte	-128
 1379 01ea 06       		.byte	6
 1380 01eb 10       		.byte	16
 1381 01ec 07       		.byte	7
 1382 01ed 02       		.byte	2
 1383 01ee 08       		.byte	8
 1384 01ef 80       		.byte	-128
 1385 01f0 0A       		.byte	10
 1386 01f1 02       		.byte	2
 1387 01f2 0E       		.byte	14
 1388 01f3 7F       		.byte	127
 1389 01f4 0F       		.byte	15
 1390 01f5 04       		.byte	4
 1391 01f6 10       		.byte	16
 1392 01f7 FF       		.byte	-1
 1393 01f8 11       		.byte	17
 1394 01f9 01       		.byte	1
 1395 01fa 14       		.byte	20
 1396 01fb 80       		.byte	-128
ARM GAS  C:\Users\TERENC~1\AppData\Local\Temp\ccZN0dQJ.s 			page 45


 1397 01fc 16       		.byte	22
 1398 01fd 01       		.byte	1
 1399 01fe 17       		.byte	23
 1400 01ff 01       		.byte	1
 1401 0200 19       		.byte	25
 1402 0201 01       		.byte	1
 1403 0202 1E       		.byte	30
 1404 0203 7F       		.byte	127
 1405 0204 20       		.byte	32
 1406 0205 80       		.byte	-128
 1407 0206 22       		.byte	34
 1408 0207 08       		.byte	8
 1409 0208 26       		.byte	38
 1410 0209 80       		.byte	-128
 1411 020a 28       		.byte	40
 1412 020b 80       		.byte	-128
 1413 020c 2A       		.byte	42
 1414 020d 20       		.byte	32
 1415 020e 2C       		.byte	44
 1416 020f 80       		.byte	-128
 1417 0210 2E       		.byte	46
 1418 0211 40       		.byte	64
 1419 0212 31       		.byte	49
 1420 0213 01       		.byte	1
 1421 0214 35       		.byte	53
 1422 0215 04       		.byte	4
 1423 0216 36       		.byte	54
 1424 0217 FF       		.byte	-1
 1425 0218 37       		.byte	55
 1426 0219 02       		.byte	2
 1427 021a 56       		.byte	86
 1428 021b 08       		.byte	8
 1429 021c 58       		.byte	88
 1430 021d 04       		.byte	4
 1431 021e 59       		.byte	89
 1432 021f 04       		.byte	4
 1433 0220 5B       		.byte	91
 1434 0221 04       		.byte	4
 1435 0222 5C       		.byte	92
 1436 0223 88       		.byte	-120
 1437 0224 5D       		.byte	93
 1438 0225 80       		.byte	-128
 1439 0226 5F       		.byte	95
 1440 0227 31       		.byte	49
 1441 0228 83       		.byte	-125
 1442 0229 8B       		.byte	-117
 1443 022a 85       		.byte	-123
 1444 022b 9B       		.byte	-101
 1445 022c 87       		.byte	-121
 1446 022d 24       		.byte	36
 1447 022e 89       		.byte	-119
 1448 022f 8A       		.byte	-118
 1449 0230 8B       		.byte	-117
 1450 0231 01       		.byte	1
 1451 0232 8D       		.byte	-115
 1452 0233 0B       		.byte	11
 1453 0234 93       		.byte	-109
ARM GAS  C:\Users\TERENC~1\AppData\Local\Temp\ccZN0dQJ.s 			page 46


 1454 0235 FF       		.byte	-1
 1455 0236 95       		.byte	-107
 1456 0237 81       		.byte	-127
 1457 0238 97       		.byte	-105
 1458 0239 02       		.byte	2
 1459 023a 99       		.byte	-103
 1460 023b 83       		.byte	-125
 1461 023c 9B       		.byte	-101
 1462 023d 44       		.byte	68
 1463 023e A5       		.byte	-91
 1464 023f 01       		.byte	1
 1465 0240 A7       		.byte	-89
 1466 0241 8A       		.byte	-118
 1467 0242 AD       		.byte	-83
 1468 0243 A7       		.byte	-89
 1469 0244 AF       		.byte	-81
 1470 0245 10       		.byte	16
 1471 0246 B1       		.byte	-79
 1472 0247 84       		.byte	-124
 1473 0248 B3       		.byte	-77
 1474 0249 07       		.byte	7
 1475 024a B5       		.byte	-75
 1476 024b 78       		.byte	120
 1477 024c B9       		.byte	-71
 1478 024d 20       		.byte	32
 1479 024e D6       		.byte	-42
 1480 024f 02       		.byte	2
 1481 0250 D7       		.byte	-41
 1482 0251 20       		.byte	32
 1483 0252 D9       		.byte	-39
 1484 0253 04       		.byte	4
 1485 0254 DB       		.byte	-37
 1486 0255 04       		.byte	4
 1487 0256 DC       		.byte	-36
 1488 0257 80       		.byte	-128
 1489 0258 DD       		.byte	-35
 1490 0259 80       		.byte	-128
 1491 025a DF       		.byte	-33
 1492 025b 31       		.byte	49
 1493 025c 01       		.byte	1
 1494 025d 82       		.byte	-126
 1495 025e 02       		.byte	2
 1496 025f 04       		.byte	4
 1497 0260 03       		.byte	3
 1498 0261 20       		.byte	32
 1499 0262 08       		.byte	8
 1500 0263 04       		.byte	4
 1501 0264 0B       		.byte	11
 1502 0265 41       		.byte	65
 1503 0266 11       		.byte	17
 1504 0267 92       		.byte	-110
 1505 0268 12       		.byte	18
 1506 0269 10       		.byte	16
 1507 026a 19       		.byte	25
 1508 026b 80       		.byte	-128
 1509 026c 1A       		.byte	26
 1510 026d 02       		.byte	2
ARM GAS  C:\Users\TERENC~1\AppData\Local\Temp\ccZN0dQJ.s 			page 47


 1511 026e 22       		.byte	34
 1512 026f 52       		.byte	82
 1513 0270 24       		.byte	36
 1514 0271 20       		.byte	32
 1515 0272 25       		.byte	37
 1516 0273 26       		.byte	38
 1517 0274 26       		.byte	38
 1518 0275 28       		.byte	40
 1519 0276 29       		.byte	41
 1520 0277 02       		.byte	2
 1521 0278 2A       		.byte	42
 1522 0279 01       		.byte	1
 1523 027a 2F       		.byte	47
 1524 027b 22       		.byte	34
 1525 027c 31       		.byte	49
 1526 027d 22       		.byte	34
 1527 027e 32       		.byte	50
 1528 027f 08       		.byte	8
 1529 0280 33       		.byte	51
 1530 0281 02       		.byte	2
 1531 0282 36       		.byte	54
 1532 0283 20       		.byte	32
 1533 0284 37       		.byte	55
 1534 0285 0A       		.byte	10
 1535 0286 39       		.byte	57
 1536 0287 44       		.byte	68
 1537 0288 3C       		.byte	60
 1538 0289 80       		.byte	-128
 1539 028a 3D       		.byte	61
 1540 028b 1A       		.byte	26
 1541 028c 5A       		.byte	90
 1542 028d A0       		.byte	-96
 1543 028e 60       		.byte	96
 1544 028f 04       		.byte	4
 1545 0290 62       		.byte	98
 1546 0291 10       		.byte	16
 1547 0292 63       		.byte	99
 1548 0293 03       		.byte	3
 1549 0294 67       		.byte	103
 1550 0295 01       		.byte	1
 1551 0296 6C       		.byte	108
 1552 0297 05       		.byte	5
 1553 0298 6D       		.byte	109
 1554 0299 92       		.byte	-110
 1555 029a 6E       		.byte	110
 1556 029b 02       		.byte	2
 1557 029c 6F       		.byte	111
 1558 029d 60       		.byte	96
 1559 029e 74       		.byte	116
 1560 029f 40       		.byte	64
 1561 02a0 76       		.byte	118
 1562 02a1 25       		.byte	37
 1563 02a2 77       		.byte	119
 1564 02a3 19       		.byte	25
 1565 02a4 79       		.byte	121
 1566 02a5 01       		.byte	1
 1567 02a6 7A       		.byte	122
ARM GAS  C:\Users\TERENC~1\AppData\Local\Temp\ccZN0dQJ.s 			page 48


 1568 02a7 40       		.byte	64
 1569 02a8 7D       		.byte	125
 1570 02a9 01       		.byte	1
 1571 02aa 8C       		.byte	-116
 1572 02ab 21       		.byte	33
 1573 02ac 90       		.byte	-112
 1574 02ad 80       		.byte	-128
 1575 02ae 91       		.byte	-111
 1576 02af 64       		.byte	100
 1577 02b0 94       		.byte	-108
 1578 02b1 28       		.byte	40
 1579 02b2 96       		.byte	-106
 1580 02b3 12       		.byte	18
 1581 02b4 98       		.byte	-104
 1582 02b5 04       		.byte	4
 1583 02b6 99       		.byte	-103
 1584 02b7 20       		.byte	32
 1585 02b8 9B       		.byte	-101
 1586 02b9 02       		.byte	2
 1587 02ba 9C       		.byte	-100
 1588 02bb 21       		.byte	33
 1589 02bc 9E       		.byte	-98
 1590 02bd 25       		.byte	37
 1591 02be 9F       		.byte	-97
 1592 02bf 41       		.byte	65
 1593 02c0 A2       		.byte	-94
 1594 02c1 C0       		.byte	-64
 1595 02c2 A5       		.byte	-91
 1596 02c3 2A       		.byte	42
 1597 02c4 A6       		.byte	-90
 1598 02c5 0A       		.byte	10
 1599 02c6 A7       		.byte	-89
 1600 02c7 21       		.byte	33
 1601 02c8 AD       		.byte	-83
 1602 02c9 10       		.byte	16
 1603 02ca AE       		.byte	-82
 1604 02cb C0       		.byte	-64
 1605 02cc AF       		.byte	-81
 1606 02cd 10       		.byte	16
 1607 02ce B2       		.byte	-78
 1608 02cf 84       		.byte	-124
 1609 02d0 B4       		.byte	-76
 1610 02d1 04       		.byte	4
 1611 02d2 B5       		.byte	-75
 1612 02d3 11       		.byte	17
 1613 02d4 C0       		.byte	-64
 1614 02d5 0F       		.byte	15
 1615 02d6 C2       		.byte	-62
 1616 02d7 0D       		.byte	13
 1617 02d8 C4       		.byte	-60
 1618 02d9 0F       		.byte	15
 1619 02da CA       		.byte	-54
 1620 02db 50       		.byte	80
 1621 02dc CC       		.byte	-52
 1622 02dd E7       		.byte	-25
 1623 02de CE       		.byte	-50
 1624 02df FA       		.byte	-6
ARM GAS  C:\Users\TERENC~1\AppData\Local\Temp\ccZN0dQJ.s 			page 49


 1625 02e0 D6       		.byte	-42
 1626 02e1 0C       		.byte	12
 1627 02e2 D8       		.byte	-40
 1628 02e3 1C       		.byte	28
 1629 02e4 DE       		.byte	-34
 1630 02e5 81       		.byte	-127
 1631 02e6 E2       		.byte	-30
 1632 02e7 02       		.byte	2
 1633 02e8 E8       		.byte	-24
 1634 02e9 08       		.byte	8
 1635 02ea EC       		.byte	-20
 1636 02eb 40       		.byte	64
 1637 02ec 00       		.byte	0
 1638 02ed 20       		.byte	32
 1639 02ee 02       		.byte	2
 1640 02ef 1F       		.byte	31
 1641 02f0 04       		.byte	4
 1642 02f1 08       		.byte	8
 1643 02f2 06       		.byte	6
 1644 02f3 01       		.byte	1
 1645 02f4 08       		.byte	8
 1646 02f5 01       		.byte	1
 1647 02f6 0A       		.byte	10
 1648 02f7 02       		.byte	2
 1649 02f8 0C       		.byte	12
 1650 02f9 02       		.byte	2
 1651 02fa 0E       		.byte	14
 1652 02fb 1C       		.byte	28
 1653 02fc 12       		.byte	18
 1654 02fd 20       		.byte	32
 1655 02fe 1C       		.byte	28
 1656 02ff 04       		.byte	4
 1657 0300 1E       		.byte	30
 1658 0301 01       		.byte	1
 1659 0302 22       		.byte	34
 1660 0303 1F       		.byte	31
 1661 0304 28       		.byte	40
 1662 0305 10       		.byte	16
 1663 0306 2A       		.byte	42
 1664 0307 01       		.byte	1
 1665 0308 30       		.byte	48
 1666 0309 3F       		.byte	63
 1667 030a 56       		.byte	86
 1668 030b 08       		.byte	8
 1669 030c 58       		.byte	88
 1670 030d 04       		.byte	4
 1671 030e 5B       		.byte	91
 1672 030f 04       		.byte	4
 1673 0310 5C       		.byte	92
 1674 0311 08       		.byte	8
 1675 0312 5D       		.byte	93
 1676 0313 80       		.byte	-128
 1677 0314 5F       		.byte	95
 1678 0315 31       		.byte	49
 1679 0316 00       		.byte	0
 1680 0317 80       		.byte	-128
 1681 0318 01       		.byte	1
ARM GAS  C:\Users\TERENC~1\AppData\Local\Temp\ccZN0dQJ.s 			page 50


 1682 0319 08       		.byte	8
 1683 031a 02       		.byte	2
 1684 031b 80       		.byte	-128
 1685 031c 03       		.byte	3
 1686 031d 28       		.byte	40
 1687 031e 04       		.byte	4
 1688 031f 02       		.byte	2
 1689 0320 05       		.byte	5
 1690 0321 08       		.byte	8
 1691 0322 06       		.byte	6
 1692 0323 04       		.byte	4
 1693 0324 07       		.byte	7
 1694 0325 01       		.byte	1
 1695 0326 08       		.byte	8
 1696 0327 04       		.byte	4
 1697 0328 09       		.byte	9
 1698 0329 41       		.byte	65
 1699 032a 0D       		.byte	13
 1700 032b 02       		.byte	2
 1701 032c 0E       		.byte	14
 1702 032d 02       		.byte	2
 1703 032e 10       		.byte	16
 1704 032f 02       		.byte	2
 1705 0330 12       		.byte	18
 1706 0331 04       		.byte	4
 1707 0332 14       		.byte	20
 1708 0333 04       		.byte	4
 1709 0334 15       		.byte	21
 1710 0335 12       		.byte	18
 1711 0336 1A       		.byte	26
 1712 0337 50       		.byte	80
 1713 0338 1B       		.byte	27
 1714 0339 08       		.byte	8
 1715 033a 1D       		.byte	29
 1716 033b 02       		.byte	2
 1717 033c 20       		.byte	32
 1718 033d 08       		.byte	8
 1719 033e 21       		.byte	33
 1720 033f 88       		.byte	-120
 1721 0340 22       		.byte	34
 1722 0341 01       		.byte	1
 1723 0342 23       		.byte	35
 1724 0343 40       		.byte	64
 1725 0344 29       		.byte	41
 1726 0345 A4       		.byte	-92
 1727 0346 31       		.byte	49
 1728 0347 08       		.byte	8
 1729 0348 32       		.byte	50
 1730 0349 01       		.byte	1
 1731 034a 33       		.byte	51
 1732 034b 10       		.byte	16
 1733 034c 38       		.byte	56
 1734 034d 84       		.byte	-124
 1735 034e 39       		.byte	57
 1736 034f 20       		.byte	32
 1737 0350 3A       		.byte	58
 1738 0351 80       		.byte	-128
ARM GAS  C:\Users\TERENC~1\AppData\Local\Temp\ccZN0dQJ.s 			page 51


 1739 0352 41       		.byte	65
 1740 0353 90       		.byte	-112
 1741 0354 42       		.byte	66
 1742 0355 80       		.byte	-128
 1743 0356 44       		.byte	68
 1744 0357 10       		.byte	16
 1745 0358 46       		.byte	70
 1746 0359 10       		.byte	16
 1747 035a 49       		.byte	73
 1748 035b 24       		.byte	36
 1749 035c 51       		.byte	81
 1750 035d 01       		.byte	1
 1751 035e 52       		.byte	82
 1752 035f 10       		.byte	16
 1753 0360 58       		.byte	88
 1754 0361 90       		.byte	-112
 1755 0362 5E       		.byte	94
 1756 0363 40       		.byte	64
 1757 0364 64       		.byte	100
 1758 0365 01       		.byte	1
 1759 0366 79       		.byte	121
 1760 0367 01       		.byte	1
 1761 0368 7D       		.byte	125
 1762 0369 01       		.byte	1
 1763 036a 80       		.byte	-128
 1764 036b 03       		.byte	3
 1765 036c 81       		.byte	-127
 1766 036d 02       		.byte	2
 1767 036e 84       		.byte	-124
 1768 036f 84       		.byte	-124
 1769 0370 8A       		.byte	-118
 1770 0371 10       		.byte	16
 1771 0372 90       		.byte	-112
 1772 0373 86       		.byte	-122
 1773 0374 91       		.byte	-111
 1774 0375 31       		.byte	49
 1775 0376 96       		.byte	-106
 1776 0377 10       		.byte	16
 1777 0378 97       		.byte	-105
 1778 0379 40       		.byte	64
 1779 037a 99       		.byte	-103
 1780 037b A0       		.byte	-96
 1781 037c 9A       		.byte	-102
 1782 037d 04       		.byte	4
 1783 037e 9B       		.byte	-101
 1784 037f 11       		.byte	17
 1785 0380 9C       		.byte	-100
 1786 0381 01       		.byte	1
 1787 0382 A0       		.byte	-96
 1788 0383 40       		.byte	64
 1789 0384 A1       		.byte	-95
 1790 0385 41       		.byte	65
 1791 0386 A2       		.byte	-94
 1792 0387 81       		.byte	-127
 1793 0388 A3       		.byte	-93
 1794 0389 20       		.byte	32
 1795 038a A5       		.byte	-91
ARM GAS  C:\Users\TERENC~1\AppData\Local\Temp\ccZN0dQJ.s 			page 52


 1796 038b 08       		.byte	8
 1797 038c C0       		.byte	-64
 1798 038d FF       		.byte	-1
 1799 038e C2       		.byte	-62
 1800 038f 9D       		.byte	-99
 1801 0390 C4       		.byte	-60
 1802 0391 53       		.byte	83
 1803 0392 CA       		.byte	-54
 1804 0393 0E       		.byte	14
 1805 0394 CC       		.byte	-52
 1806 0395 07       		.byte	7
 1807 0396 CE       		.byte	-50
 1808 0397 0E       		.byte	14
 1809 0398 D0       		.byte	-48
 1810 0399 0D       		.byte	13
 1811 039a D2       		.byte	-46
 1812 039b 04       		.byte	4
 1813 039c D6       		.byte	-42
 1814 039d 1C       		.byte	28
 1815 039e D8       		.byte	-40
 1816 039f 10       		.byte	16
 1817 03a0 DE       		.byte	-34
 1818 03a1 81       		.byte	-127
 1819 03a2 E0       		.byte	-32
 1820 03a3 01       		.byte	1
 1821 03a4 E2       		.byte	-30
 1822 03a5 04       		.byte	4
 1823 03a6 E4       		.byte	-28
 1824 03a7 04       		.byte	4
 1825 03a8 67       		.byte	103
 1826 03a9 08       		.byte	8
 1827 03aa 69       		.byte	105
 1828 03ab 02       		.byte	2
 1829 03ac 6F       		.byte	111
 1830 03ad 01       		.byte	1
 1831 03ae 77       		.byte	119
 1832 03af 02       		.byte	2
 1833 03b0 87       		.byte	-121
 1834 03b1 04       		.byte	4
 1835 03b2 D8       		.byte	-40
 1836 03b3 80       		.byte	-128
 1837 03b4 DA       		.byte	-38
 1838 03b5 80       		.byte	-128
 1839 03b6 DC       		.byte	-36
 1840 03b7 60       		.byte	96
 1841 03b8 E6       		.byte	-26
 1842 03b9 10       		.byte	16
 1843 03ba 29       		.byte	41
 1844 03bb 01       		.byte	1
 1845 03bc 95       		.byte	-107
 1846 03bd 02       		.byte	2
 1847 03be 9F       		.byte	-97
 1848 03bf 03       		.byte	3
 1849 03c0 CA       		.byte	-54
 1850 03c1 40       		.byte	64
 1851 03c2 87       		.byte	-121
 1852 03c3 01       		.byte	1
ARM GAS  C:\Users\TERENC~1\AppData\Local\Temp\ccZN0dQJ.s 			page 53


 1853 03c4 95       		.byte	-107
 1854 03c5 02       		.byte	2
 1855 03c6 9F       		.byte	-97
 1856 03c7 03       		.byte	3
 1857 03c8 B5       		.byte	-75
 1858 03c9 01       		.byte	1
 1859 03ca E2       		.byte	-30
 1860 03cb 40       		.byte	64
 1861 03cc 13       		.byte	19
 1862 03cd 02       		.byte	2
 1863 03ce 15       		.byte	21
 1864 03cf 02       		.byte	2
 1865 03d0 95       		.byte	-107
 1866 03d1 02       		.byte	2
 1867 03d2 9F       		.byte	-97
 1868 03d3 02       		.byte	2
 1869 03d4 C4       		.byte	-60
 1870 03d5 30       		.byte	48
 1871 03d6 26       		.byte	38
 1872 03d7 08       		.byte	8
 1873 03d8 29       		.byte	41
 1874 03d9 80       		.byte	-128
 1875 03da 54       		.byte	84
 1876 03db 20       		.byte	32
 1877 03dc 8A       		.byte	-118
 1878 03dd 08       		.byte	8
 1879 03de C8       		.byte	-56
 1880 03df 01       		.byte	1
 1881 03e0 CA       		.byte	-54
 1882 03e1 08       		.byte	8
 1883 03e2 D4       		.byte	-44
 1884 03e3 02       		.byte	2
 1885 03e4 E6       		.byte	-26
 1886 03e5 01       		.byte	1
 1887 03e6 40       		.byte	64
 1888 03e7 04       		.byte	4
 1889 03e8 A4       		.byte	-92
 1890 03e9 20       		.byte	32
 1891 03ea B5       		.byte	-75
 1892 03eb 80       		.byte	-128
 1893 03ec D0       		.byte	-48
 1894 03ed 08       		.byte	8
 1895 03ee EE       		.byte	-18
 1896 03ef 02       		.byte	2
 1897 03f0 86       		.byte	-122
 1898 03f1 04       		.byte	4
 1899 03f2 93       		.byte	-109
 1900 03f3 80       		.byte	-128
 1901 03f4 AF       		.byte	-81
 1902 03f5 40       		.byte	64
 1903 03f6 B4       		.byte	-76
 1904 03f7 24       		.byte	36
 1905 03f8 EC       		.byte	-20
 1906 03f9 0A       		.byte	10
 1907 03fa 0C       		.byte	12
 1908 03fb 80       		.byte	-128
 1909 03fc 2E       		.byte	46
ARM GAS  C:\Users\TERENC~1\AppData\Local\Temp\ccZN0dQJ.s 			page 54


 1910 03fd 04       		.byte	4
 1911 03fe 5B       		.byte	91
 1912 03ff 04       		.byte	4
 1913 0400 67       		.byte	103
 1914 0401 82       		.byte	-126
 1915 0402 6B       		.byte	107
 1916 0403 01       		.byte	1
 1917 0404 80       		.byte	-128
 1918 0405 80       		.byte	-128
 1919 0406 83       		.byte	-125
 1920 0407 05       		.byte	5
 1921 0408 8B       		.byte	-117
 1922 0409 01       		.byte	1
 1923 040a 93       		.byte	-109
 1924 040b 80       		.byte	-128
 1925 040c 96       		.byte	-106
 1926 040d 04       		.byte	4
 1927 040e C2       		.byte	-62
 1928 040f 01       		.byte	1
 1929 0410 CA       		.byte	-54
 1930 0411 01       		.byte	1
 1931 0412 D6       		.byte	-42
 1932 0413 03       		.byte	3
 1933 0414 D8       		.byte	-40
 1934 0415 01       		.byte	1
 1935 0416 DA       		.byte	-38
 1936 0417 02       		.byte	2
 1937 0418 E4       		.byte	-28
 1938 0419 04       		.byte	4
 1939 041a 02       		.byte	2
 1940 041b 01       		.byte	1
 1941 041c 11       		.byte	17
 1942 041d 01       		.byte	1
 1943 041e 0000     		.space	2
 1944              		.type	cy_cfg_addr_table.4986, %object
 1945              		.size	cy_cfg_addr_table.4986, 72
 1946              	cy_cfg_addr_table.4986:
 1947 0420 02000F40 		.word	1074724866
 1948 0424 50300F40 		.word	1074737232
 1949 0428 36310F40 		.word	1074737462
 1950 042c 0A320F40 		.word	1074737674
 1951 0430 4A330F40 		.word	1074737994
 1952 0434 3C340F40 		.word	1074738236
 1953 0438 48350F40 		.word	1074738504
 1954 043c 15360F40 		.word	1074738709
 1955 0440 49370F40 		.word	1074739017
 1956 0444 09400F40 		.word	1074741257
 1957 0448 04410F40 		.word	1074741508
 1958 044c 05420F40 		.word	1074741765
 1959 0450 05430F40 		.word	1074742021
 1960 0454 08440F40 		.word	1074742280
 1961 0458 05450F40 		.word	1074742533
 1962 045c 05460F40 		.word	1074742789
 1963 0460 10470F40 		.word	1074743056
 1964 0464 02600F40 		.word	1074749442
 1965              		.type	BS_UDB_0_2_0_CONFIG_VAL.4998, %object
 1966              		.size	BS_UDB_0_2_0_CONFIG_VAL.4998, 128
ARM GAS  C:\Users\TERENC~1\AppData\Local\Temp\ccZN0dQJ.s 			page 55


 1967              	BS_UDB_0_2_0_CONFIG_VAL.4998:
 1968 0468 63       		.byte	99
 1969 0469 06       		.byte	6
 1970 046a 8C       		.byte	-116
 1971 046b 08       		.byte	8
 1972 046c 63       		.byte	99
 1973 046d 00       		.byte	0
 1974 046e 8C       		.byte	-116
 1975 046f 0E       		.byte	14
 1976 0470 E3       		.byte	-29
 1977 0471 40       		.byte	64
 1978 0472 04       		.byte	4
 1979 0473 10       		.byte	16
 1980 0474 00       		.byte	0
 1981 0475 01       		.byte	1
 1982 0476 00       		.byte	0
 1983 0477 00       		.byte	0
 1984 0478 EF       		.byte	-17
 1985 0479 00       		.byte	0
 1986 047a 00       		.byte	0
 1987 047b FE       		.byte	-2
 1988 047c 00       		.byte	0
 1989 047d 00       		.byte	0
 1990 047e CE       		.byte	-50
 1991 047f 0C       		.byte	12
 1992 0480 EF       		.byte	-17
 1993 0481 06       		.byte	6
 1994 0482 00       		.byte	0
 1995 0483 08       		.byte	8
 1996 0484 10       		.byte	16
 1997 0485 06       		.byte	6
 1998 0486 00       		.byte	0
 1999 0487 08       		.byte	8
 2000 0488 60       		.byte	96
 2001 0489 80       		.byte	-128
 2002 048a 8F       		.byte	-113
 2003 048b 20       		.byte	32
 2004 048c EF       		.byte	-17
 2005 048d 06       		.byte	6
 2006 048e 00       		.byte	0
 2007 048f 00       		.byte	0
 2008 0490 21       		.byte	33
 2009 0491 03       		.byte	3
 2010 0492 00       		.byte	0
 2011 0493 00       		.byte	0
 2012 0494 63       		.byte	99
 2013 0495 3E       		.byte	62
 2014 0496 88       		.byte	-120
 2015 0497 C0       		.byte	-64
 2016 0498 1F       		.byte	31
 2017 0499 00       		.byte	0
 2018 049a 00       		.byte	0
 2019 049b 01       		.byte	1
 2020 049c F0       		.byte	-16
 2021 049d FE       		.byte	-2
 2022 049e 00       		.byte	0
 2023 049f 00       		.byte	0
ARM GAS  C:\Users\TERENC~1\AppData\Local\Temp\ccZN0dQJ.s 			page 56


 2024 04a0 00       		.byte	0
 2025 04a1 20       		.byte	32
 2026 04a2 00       		.byte	0
 2027 04a3 00       		.byte	0
 2028 04a4 00       		.byte	0
 2029 04a5 00       		.byte	0
 2030 04a6 00       		.byte	0
 2031 04a7 00       		.byte	0
 2032 04a8 42       		.byte	66
 2033 04a9 06       		.byte	6
 2034 04aa 51       		.byte	81
 2035 04ab 00       		.byte	0
 2036 04ac 03       		.byte	3
 2037 04ad C0       		.byte	-64
 2038 04ae E0       		.byte	-32
 2039 04af 00       		.byte	0
 2040 04b0 0A       		.byte	10
 2041 04b1 FF       		.byte	-1
 2042 04b2 FF       		.byte	-1
 2043 04b3 FF       		.byte	-1
 2044 04b4 02       		.byte	2
 2045 04b5 20       		.byte	32
 2046 04b6 00       		.byte	0
 2047 04b7 05       		.byte	5
 2048 04b8 04       		.byte	4
 2049 04b9 12       		.byte	18
 2050 04ba 07       		.byte	7
 2051 04bb 00       		.byte	0
 2052 04bc 01       		.byte	1
 2053 04bd 00       		.byte	0
 2054 04be 00       		.byte	0
 2055 04bf 00       		.byte	0
 2056 04c0 04       		.byte	4
 2057 04c1 04       		.byte	4
 2058 04c2 04       		.byte	4
 2059 04c3 04       		.byte	4
 2060 04c4 88       		.byte	-120
 2061 04c5 88       		.byte	-120
 2062 04c6 00       		.byte	0
 2063 04c7 31       		.byte	49
 2064 04c8 00       		.byte	0
 2065 04c9 00       		.byte	0
 2066 04ca 40       		.byte	64
 2067 04cb 01       		.byte	1
 2068 04cc 40       		.byte	64
 2069 04cd 01       		.byte	1
 2070 04ce 50       		.byte	80
 2071 04cf 01       		.byte	1
 2072 04d0 40       		.byte	64
 2073 04d1 01       		.byte	1
 2074 04d2 70       		.byte	112
 2075 04d3 10       		.byte	16
 2076 04d4 40       		.byte	64
 2077 04d5 10       		.byte	16
 2078 04d6 00       		.byte	0
 2079 04d7 00       		.byte	0
 2080 04d8 00       		.byte	0
ARM GAS  C:\Users\TERENC~1\AppData\Local\Temp\ccZN0dQJ.s 			page 57


 2081 04d9 00       		.byte	0
 2082 04da 00       		.byte	0
 2083 04db 00       		.byte	0
 2084 04dc 00       		.byte	0
 2085 04dd 00       		.byte	0
 2086 04de 00       		.byte	0
 2087 04df 00       		.byte	0
 2088 04e0 00       		.byte	0
 2089 04e1 00       		.byte	0
 2090 04e2 00       		.byte	0
 2091 04e3 00       		.byte	0
 2092 04e4 00       		.byte	0
 2093 04e5 00       		.byte	0
 2094 04e6 00       		.byte	0
 2095 04e7 00       		.byte	0
 2096              		.type	BS_UDB_0_0_0_CONFIG_VAL.4999, %object
 2097              		.size	BS_UDB_0_0_0_CONFIG_VAL.4999, 128
 2098              	BS_UDB_0_0_0_CONFIG_VAL.4999:
 2099 04e8 00       		.byte	0
 2100 04e9 00       		.byte	0
 2101 04ea 40       		.byte	64
 2102 04eb 00       		.byte	0
 2103 04ec 08       		.byte	8
 2104 04ed 00       		.byte	0
 2105 04ee 01       		.byte	1
 2106 04ef 03       		.byte	3
 2107 04f0 00       		.byte	0
 2108 04f1 22       		.byte	34
 2109 04f2 20       		.byte	32
 2110 04f3 0C       		.byte	12
 2111 04f4 02       		.byte	2
 2112 04f5 0C       		.byte	12
 2113 04f6 1C       		.byte	28
 2114 04f7 22       		.byte	34
 2115 04f8 04       		.byte	4
 2116 04f9 00       		.byte	0
 2117 04fa 01       		.byte	1
 2118 04fb 01       		.byte	1
 2119 04fc 10       		.byte	16
 2120 04fd 00       		.byte	0
 2121 04fe 01       		.byte	1
 2122 04ff 10       		.byte	16
 2123 0500 00       		.byte	0
 2124 0501 08       		.byte	8
 2125 0502 00       		.byte	0
 2126 0503 00       		.byte	0
 2127 0504 1F       		.byte	31
 2128 0505 00       		.byte	0
 2129 0506 20       		.byte	32
 2130 0507 00       		.byte	0
 2131 0508 00       		.byte	0
 2132 0509 00       		.byte	0
 2133 050a 00       		.byte	0
 2134 050b 00       		.byte	0
 2135 050c 00       		.byte	0
 2136 050d 00       		.byte	0
 2137 050e 00       		.byte	0
ARM GAS  C:\Users\TERENC~1\AppData\Local\Temp\ccZN0dQJ.s 			page 58


 2138 050f 22       		.byte	34
 2139 0510 01       		.byte	1
 2140 0511 22       		.byte	34
 2141 0512 02       		.byte	2
 2142 0513 0C       		.byte	12
 2143 0514 00       		.byte	0
 2144 0515 00       		.byte	0
 2145 0516 1F       		.byte	31
 2146 0517 18       		.byte	24
 2147 0518 40       		.byte	64
 2148 0519 03       		.byte	3
 2149 051a 3F       		.byte	63
 2150 051b 18       		.byte	24
 2151 051c 00       		.byte	0
 2152 051d 20       		.byte	32
 2153 051e 00       		.byte	0
 2154 051f 04       		.byte	4
 2155 0520 00       		.byte	0
 2156 0521 00       		.byte	0
 2157 0522 00       		.byte	0
 2158 0523 00       		.byte	0
 2159 0524 00       		.byte	0
 2160 0525 00       		.byte	0
 2161 0526 00       		.byte	0
 2162 0527 10       		.byte	16
 2163 0528 24       		.byte	36
 2164 0529 06       		.byte	6
 2165 052a 00       		.byte	0
 2166 052b 01       		.byte	1
 2167 052c 00       		.byte	0
 2168 052d 0C       		.byte	12
 2169 052e E0       		.byte	-32
 2170 052f B0       		.byte	-80
 2171 0530 29       		.byte	41
 2172 0531 FF       		.byte	-1
 2173 0532 FF       		.byte	-1
 2174 0533 FF       		.byte	-1
 2175 0534 00       		.byte	0
 2176 0535 00       		.byte	0
 2177 0536 00       		.byte	0
 2178 0537 00       		.byte	0
 2179 0538 04       		.byte	4
 2180 0539 10       		.byte	16
 2181 053a 00       		.byte	0
 2182 053b 00       		.byte	0
 2183 053c 01       		.byte	1
 2184 053d 00       		.byte	0
 2185 053e 00       		.byte	0
 2186 053f 00       		.byte	0
 2187 0540 04       		.byte	4
 2188 0541 04       		.byte	4
 2189 0542 04       		.byte	4
 2190 0543 04       		.byte	4
 2191 0544 88       		.byte	-120
 2192 0545 88       		.byte	-120
 2193 0546 00       		.byte	0
 2194 0547 31       		.byte	49
ARM GAS  C:\Users\TERENC~1\AppData\Local\Temp\ccZN0dQJ.s 			page 59


 2195 0548 00       		.byte	0
 2196 0549 00       		.byte	0
 2197 054a C0       		.byte	-64
 2198 054b 00       		.byte	0
 2199 054c 40       		.byte	64
 2200 054d 01       		.byte	1
 2201 054e 80       		.byte	-128
 2202 054f 00       		.byte	0
 2203 0550 30       		.byte	48
 2204 0551 00       		.byte	0
 2205 0552 40       		.byte	64
 2206 0553 10       		.byte	16
 2207 0554 10       		.byte	16
 2208 0555 00       		.byte	0
 2209 0556 40       		.byte	64
 2210 0557 A8       		.byte	-88
 2211 0558 00       		.byte	0
 2212 0559 00       		.byte	0
 2213 055a 00       		.byte	0
 2214 055b 00       		.byte	0
 2215 055c 00       		.byte	0
 2216 055d 00       		.byte	0
 2217 055e 00       		.byte	0
 2218 055f 00       		.byte	0
 2219 0560 00       		.byte	0
 2220 0561 00       		.byte	0
 2221 0562 00       		.byte	0
 2222 0563 00       		.byte	0
 2223 0564 00       		.byte	0
 2224 0565 00       		.byte	0
 2225 0566 00       		.byte	0
 2226 0567 00       		.byte	0
 2227              		.text
 2228              	.Letext0:
 2229              		.file 2 "c:\\program files (x86)\\cypress\\psoc creator\\4.2\\psoc creator\\import\\gnu\\arm\\5.4.
 2230              		.file 3 "Generated_Source\\PSoC4\\cytypes.h"
 2231              		.file 4 "Generated_Source\\PSoC4\\CyLFClk.h"
 2232              		.file 5 "Generated_Source\\PSoC4\\CyLib.h"