ARM GAS  C:\Users\TERENC~1\AppData\Local\Temp\cczDJbWQ.s 			page 1


   1              		.syntax unified
   2              		.cpu cortex-m0
   3              		.fpu softvfp
   4              		.eabi_attribute 20, 1
   5              		.eabi_attribute 21, 1
   6              		.eabi_attribute 23, 3
   7              		.eabi_attribute 24, 1
   8              		.eabi_attribute 25, 1
   9              		.eabi_attribute 26, 1
  10              		.eabi_attribute 30, 1
  11              		.eabi_attribute 34, 0
  12              		.eabi_attribute 18, 4
  13              		.thumb
  14              		.syntax unified
  15              		.file	"Interrupts.c"
  16              		.text
  17              	.Ltext0:
  18              		.cfi_sections	.debug_frame
  19              		.section	.text.InDMADone_Interrupt,"ax",%progbits
  20              		.align	2
  21              		.global	InDMADone_Interrupt
  22              		.code	16
  23              		.thumb_func
  24              		.type	InDMADone_Interrupt, %function
  25              	InDMADone_Interrupt:
  26              	.LFB99:
  27              		.file 1 "Interrupts.c"
   1:Interrupts.c  **** /*******************************************************************************
   2:Interrupts.c  **** * File Name: Interrupts.c
   3:Interrupts.c  **** *
   4:Interrupts.c  **** * Version 1.0
   5:Interrupts.c  **** *
   6:Interrupts.c  **** *  Description: This file contains interrupt service routines for all the interrupts
   7:Interrupts.c  **** *               in the system
   8:Interrupts.c  **** *
   9:Interrupts.c  **** *******************************************************************************
  10:Interrupts.c  **** * Copyright (2018), Cypress Semiconductor Corporation. All rights reserved.
  11:Interrupts.c  **** *******************************************************************************
  12:Interrupts.c  **** * This software, including source code, documentation and related materials
  13:Interrupts.c  **** * (“Software”), is owned by Cypress Semiconductor Corporation or one of its
  14:Interrupts.c  **** * subsidiaries (“Cypress”) and is protected by and subject to worldwide patent
  15:Interrupts.c  **** * protection (United States and foreign), United States copyright laws and
  16:Interrupts.c  **** * international treaty provisions. Therefore, you may use this Software only
  17:Interrupts.c  **** * as provided in the license agreement accompanying the software package from
  18:Interrupts.c  **** * which you obtained this Software (“EULA”).
  19:Interrupts.c  **** *
  20:Interrupts.c  **** * If no EULA applies, Cypress hereby grants you a personal, nonexclusive,
  21:Interrupts.c  **** * non-transferable license to copy, modify, and compile the Software source
  22:Interrupts.c  **** * code solely for use in connection with Cypress’s integrated circuit products.
  23:Interrupts.c  **** * Any reproduction, modification, translation, compilation, or representation
  24:Interrupts.c  **** * of this Software except as specified above is prohibited without the express
  25:Interrupts.c  **** * written permission of Cypress.
  26:Interrupts.c  **** *
  27:Interrupts.c  **** * Disclaimer: THIS SOFTWARE IS PROVIDED AS-IS, WITH NO WARRANTY OF ANY KIND, 
  28:Interrupts.c  **** * EXPRESS OR IMPLIED, INCLUDING, BUT NOT LIMITED TO, NONINFRINGEMENT, IMPLIED 
  29:Interrupts.c  **** * WARRANTIES OF MERCHANTABILITY AND FITNESS FOR A PARTICULAR PURPOSE. Cypress 
  30:Interrupts.c  **** * reserves the right to make changes to the Software without notice. Cypress 
ARM GAS  C:\Users\TERENC~1\AppData\Local\Temp\cczDJbWQ.s 			page 2


  31:Interrupts.c  **** * does not assume any liability arising out of the application or use of the 
  32:Interrupts.c  **** * Software or any product or circuit described in the Software. Cypress does 
  33:Interrupts.c  **** * not authorize its products for use in any products where a malfunction or 
  34:Interrupts.c  **** * failure of the Cypress product may reasonably be expected to result in 
  35:Interrupts.c  **** * significant property damage, injury or death (“High Risk Product”). By 
  36:Interrupts.c  **** * including Cypress’s product in a High Risk Product, the manufacturer of such 
  37:Interrupts.c  **** * system or application assumes all risk of such use and in doing so agrees to 
  38:Interrupts.c  **** * indemnify Cypress against all liability.
  39:Interrupts.c  **** *******************************************************************************/
  40:Interrupts.c  **** #include <AudioControl.h>
  41:Interrupts.c  **** #include <AudioOut.h>
  42:Interrupts.c  **** #include <Config.h>
  43:Interrupts.c  **** #include <project.h>
  44:Interrupts.c  **** #include <Application.h>
  45:Interrupts.c  **** #include <Interrupts.h>
  46:Interrupts.c  **** 
  47:Interrupts.c  **** extern uint16 inCnt;
  48:Interrupts.c  **** extern uint16 inLevel;
  49:Interrupts.c  **** extern uint16 inUsbCount;
  50:Interrupts.c  **** extern uint16 inUsbShadow;
  51:Interrupts.c  **** extern uint16 outLevel;
  52:Interrupts.c  **** extern uint16 outUsbCount;
  53:Interrupts.c  **** extern uint16 outUsbShadow;
  54:Interrupts.c  **** 
  55:Interrupts.c  **** /*******************************************************************************
  56:Interrupts.c  **** * Function Name: InDMADone_Interrupt
  57:Interrupts.c  **** ********************************************************************************
  58:Interrupts.c  **** * Summary:
  59:Interrupts.c  **** *   The Interrupt Service Routine for isr_InDMADone. Arms USB Audio In end-point
  60:Interrupts.c  **** * 	for USB host to receive audio data.
  61:Interrupts.c  **** *
  62:Interrupts.c  **** *
  63:Interrupts.c  **** * Parameters:  
  64:Interrupts.c  **** *	InDMADone interrupt vector
  65:Interrupts.c  **** *
  66:Interrupts.c  **** * Return:
  67:Interrupts.c  **** *   void.
  68:Interrupts.c  **** *
  69:Interrupts.c  **** *******************************************************************************/
  70:Interrupts.c  **** CY_ISR(InDMADone_Interrupt)
  71:Interrupts.c  **** {
  28              		.loc 1 71 0
  29              		.cfi_startproc
  30              		@ args = 0, pretend = 0, frame = 0
  31              		@ frame_needed = 0, uses_anonymous_args = 0
  32              		@ link register save eliminated.
  72:Interrupts.c  ****     /* Parameters to this API Call CHANGE DEPENDING ON DATA ENDPOINT MEMORY MODE */
  73:Interrupts.c  ****     //USBFS_LoadInEP(AUDIO_IN_ENDPOINT, USBFS_NULL, inCnt);
  74:Interrupts.c  **** }
  33              		.loc 1 74 0
  34              		@ sp needed
  35 0000 7047     		bx	lr
  36              		.cfi_endproc
  37              	.LFE99:
  38              		.size	InDMADone_Interrupt, .-InDMADone_Interrupt
  39 0002 C046     		.section	.text.RxDMADone_Interrupt,"ax",%progbits
  40              		.align	2
ARM GAS  C:\Users\TERENC~1\AppData\Local\Temp\cczDJbWQ.s 			page 3


  41              		.global	RxDMADone_Interrupt
  42              		.code	16
  43              		.thumb_func
  44              		.type	RxDMADone_Interrupt, %function
  45              	RxDMADone_Interrupt:
  46              	.LFB100:
  75:Interrupts.c  **** 
  76:Interrupts.c  **** 
  77:Interrupts.c  **** 
  78:Interrupts.c  **** /*******************************************************************************
  79:Interrupts.c  **** * Function Name: RxDMADone_Interrupt
  80:Interrupts.c  **** ********************************************************************************
  81:Interrupts.c  **** * Summary:
  82:Interrupts.c  **** *   The Interrupt Service Routine for isr_RxDMADone. This handles the AUDIO In
  83:Interrupts.c  **** *	buffer pointers and detects overflow of the buffer to stop AUDIO In. 
  84:Interrupts.c  **** *
  85:Interrupts.c  **** * Parameters:  
  86:Interrupts.c  **** *	RxDMADone interrupt vector
  87:Interrupts.c  **** *
  88:Interrupts.c  **** * Return:
  89:Interrupts.c  **** *   void.
  90:Interrupts.c  **** *
  91:Interrupts.c  **** *******************************************************************************/
  92:Interrupts.c  **** CY_ISR(RxDMADone_Interrupt)
  93:Interrupts.c  **** {    
  47              		.loc 1 93 0
  48              		.cfi_startproc
  49              		@ args = 0, pretend = 0, frame = 0
  50              		@ frame_needed = 0, uses_anonymous_args = 0
  51 0000 10B5     		push	{r4, lr}
  52              		.cfi_def_cfa_offset 8
  53              		.cfi_offset 4, -8
  54              		.cfi_offset 14, -4
  94:Interrupts.c  ****     uint16 removed;
  95:Interrupts.c  **** 	
  96:Interrupts.c  **** 	/* Note: Care must be taken in the application code to update inUsbCount atomically */
  97:Interrupts.c  **** 	removed = inUsbCount - inUsbShadow;
  55              		.loc 1 97 0
  56 0002 0B4B     		ldr	r3, .L5
  57 0004 1888     		ldrh	r0, [r3]
  58 0006 0B49     		ldr	r1, .L5+4
  59 0008 0B88     		ldrh	r3, [r1]
  60 000a C31A     		subs	r3, r0, r3
  61 000c 9BB2     		uxth	r3, r3
  62              	.LVL0:
  98:Interrupts.c  ****     
  99:Interrupts.c  **** 	inLevel -= removed;
  63              		.loc 1 99 0
  64 000e 0A4C     		ldr	r4, .L5+8
  65 0010 2288     		ldrh	r2, [r4]
  66 0012 D31A     		subs	r3, r2, r3
  67              	.LVL1:
  68 0014 9BB2     		uxth	r3, r3
  69 0016 2380     		strh	r3, [r4]
 100:Interrupts.c  ****        
 101:Interrupts.c  **** 	inUsbShadow = inUsbCount;
  70              		.loc 1 101 0
ARM GAS  C:\Users\TERENC~1\AppData\Local\Temp\cczDJbWQ.s 			page 4


  71 0018 0880     		strh	r0, [r1]
  72              	.LVL2:
 102:Interrupts.c  **** 		
 103:Interrupts.c  **** 	if (inLevel >= IN_BUFSIZE) 
  73              		.loc 1 103 0
  74 001a 084A     		ldr	r2, .L5+12
  75 001c 9342     		cmp	r3, r2
  76 001e 02D9     		bls	.L3
 104:Interrupts.c  ****     {
 105:Interrupts.c  **** 		/* Overflow, so disable the DMA, disable the I2S data and tell the main task to reset all its str
 106:Interrupts.c  **** 		Stop_I2S_Rx();
  77              		.loc 1 106 0
  78 0020 FFF7FEFF 		bl	Stop_I2S_Rx
  79              	.LVL3:
  80 0024 02E0     		b	.L2
  81              	.L3:
 107:Interrupts.c  **** 	}
 108:Interrupts.c  **** 	else 
 109:Interrupts.c  ****     {
 110:Interrupts.c  **** 		inLevel += IN_TRANS_SIZE;
  82              		.loc 1 110 0
  83 0026 9033     		adds	r3, r3, #144
  84 0028 034A     		ldr	r2, .L5+8
  85 002a 1380     		strh	r3, [r2]
  86              	.L2:
 111:Interrupts.c  **** 	} 
 112:Interrupts.c  **** }
  87              		.loc 1 112 0
  88              		@ sp needed
  89 002c 10BD     		pop	{r4, pc}
  90              	.L6:
  91 002e C046     		.align	2
  92              	.L5:
  93 0030 00000000 		.word	inUsbCount
  94 0034 00000000 		.word	inUsbShadow
  95 0038 00000000 		.word	inLevel
  96 003c 7F040000 		.word	1151
  97              		.cfi_endproc
  98              	.LFE100:
  99              		.size	RxDMADone_Interrupt, .-RxDMADone_Interrupt
 100              		.section	.text.TxDMADone_Interrupt,"ax",%progbits
 101              		.align	2
 102              		.global	TxDMADone_Interrupt
 103              		.code	16
 104              		.thumb_func
 105              		.type	TxDMADone_Interrupt, %function
 106              	TxDMADone_Interrupt:
 107              	.LFB101:
 113:Interrupts.c  **** 
 114:Interrupts.c  **** 
 115:Interrupts.c  **** /*******************************************************************************
 116:Interrupts.c  **** * Function Name: TxDMADone_Interrupt
 117:Interrupts.c  **** ********************************************************************************
 118:Interrupts.c  **** * Summary:
 119:Interrupts.c  **** *   The Interrupt Service Routine for isr_TxDMADone. This handles the AUDIO Out
 120:Interrupts.c  **** *	buffer pointers and detects underflow of the buffer to stop AUDIO out.
 121:Interrupts.c  **** *
ARM GAS  C:\Users\TERENC~1\AppData\Local\Temp\cczDJbWQ.s 			page 5


 122:Interrupts.c  **** * Parameters:  
 123:Interrupts.c  **** *	TxDMADone interrupt vector
 124:Interrupts.c  **** *
 125:Interrupts.c  **** * Return:
 126:Interrupts.c  **** *   void.
 127:Interrupts.c  **** *
 128:Interrupts.c  **** *******************************************************************************/
 129:Interrupts.c  **** CY_ISR(TxDMADone_Interrupt)
 130:Interrupts.c  **** {
 108              		.loc 1 130 0
 109              		.cfi_startproc
 110              		@ args = 0, pretend = 0, frame = 0
 111              		@ frame_needed = 0, uses_anonymous_args = 0
 112 0000 10B5     		push	{r4, lr}
 113              		.cfi_def_cfa_offset 8
 114              		.cfi_offset 4, -8
 115              		.cfi_offset 14, -4
 131:Interrupts.c  **** 
 132:Interrupts.c  **** 	uint16 added;
 133:Interrupts.c  **** 
 134:Interrupts.c  **** 	/* Note: Care must be taken in the application code to update outUsbCount atomically
 135:Interrupts.c  **** 	 * Code is currently implemented with both updater of this value in interrupts that are
 136:Interrupts.c  **** 	 * the same priority so the code will not execute at the same time, but the code
 137:Interrupts.c  **** 	 * has been written so that this is not a requirement. */
 138:Interrupts.c  ****     
 139:Interrupts.c  **** 	added = outUsbCount - outUsbShadow;
 116              		.loc 1 139 0
 117 0002 0F4B     		ldr	r3, .L11
 118 0004 1888     		ldrh	r0, [r3]
 119 0006 0F49     		ldr	r1, .L11+4
 120 0008 0B88     		ldrh	r3, [r1]
 121 000a C31A     		subs	r3, r0, r3
 122 000c 9BB2     		uxth	r3, r3
 123              	.LVL4:
 140:Interrupts.c  ****     
 141:Interrupts.c  **** 	outLevel += added;
 124              		.loc 1 141 0
 125 000e 0E4C     		ldr	r4, .L11+8
 126 0010 2288     		ldrh	r2, [r4]
 127 0012 9B18     		adds	r3, r3, r2
 128              	.LVL5:
 129 0014 9BB2     		uxth	r3, r3
 130 0016 2380     		strh	r3, [r4]
 142:Interrupts.c  ****             
 143:Interrupts.c  **** 	outUsbShadow = outUsbCount;
 131              		.loc 1 143 0
 132 0018 0880     		strh	r0, [r1]
 133              	.LVL6:
 144:Interrupts.c  **** 	
 145:Interrupts.c  **** 	if (outLevel <= AUDIOMAXPKT) 
 134              		.loc 1 145 0
 135 001a 9022     		movs	r2, #144
 136 001c 5200     		lsls	r2, r2, #1
 137 001e 9342     		cmp	r3, r2
 138 0020 02D8     		bhi	.L8
 146:Interrupts.c  **** 	{
 147:Interrupts.c  **** 		/* Underflow, so disable the DMA, disable I2S TX and tell the main task to reset all its structur
ARM GAS  C:\Users\TERENC~1\AppData\Local\Temp\cczDJbWQ.s 			page 6


 148:Interrupts.c  **** 		Stop_I2S_Tx();
 139              		.loc 1 148 0
 140 0022 FFF7FEFF 		bl	Stop_I2S_Tx
 141              	.LVL7:
 142 0026 02E0     		b	.L9
 143              	.L8:
 149:Interrupts.c  **** 	}
 150:Interrupts.c  **** 	else
 151:Interrupts.c  **** 	{
 152:Interrupts.c  **** 		outLevel -= OUT_TRANS_SIZE;
 144              		.loc 1 152 0
 145 0028 903B     		subs	r3, r3, #144
 146 002a 074A     		ldr	r2, .L11+8
 147 002c 1380     		strh	r3, [r2]
 148              	.L9:
 153:Interrupts.c  **** 	}
 154:Interrupts.c  **** 	
 155:Interrupts.c  **** 	if (outLevel > (OUT_BUFSIZE + MAX_AUDIO_SAMPLE_SIZE)) 
 149              		.loc 1 155 0
 150 002e 064B     		ldr	r3, .L11+8
 151 0030 1A88     		ldrh	r2, [r3]
 152 0032 064B     		ldr	r3, .L11+12
 153 0034 9A42     		cmp	r2, r3
 154 0036 01D9     		bls	.L7
 156:Interrupts.c  **** 	{		
 157:Interrupts.c  **** 		/* Stop I2S till the overflow condition is present - this provides USB enough time to correct the
 158:Interrupts.c  **** 			Disable the DMA, mute and tell the main task to reset all its structures Stop DMA */
 159:Interrupts.c  **** 		Stop_I2S_Tx();
 155              		.loc 1 159 0
 156 0038 FFF7FEFF 		bl	Stop_I2S_Tx
 157              	.LVL8:
 158              	.L7:
 160:Interrupts.c  **** 	}
 161:Interrupts.c  **** }
 159              		.loc 1 161 0
 160              		@ sp needed
 161 003c 10BD     		pop	{r4, pc}
 162              	.L12:
 163 003e C046     		.align	2
 164              	.L11:
 165 0040 00000000 		.word	outUsbCount
 166 0044 00000000 		.word	outUsbShadow
 167 0048 00000000 		.word	outLevel
 168 004c 86040000 		.word	1158
 169              		.cfi_endproc
 170              	.LFE101:
 171              		.size	TxDMADone_Interrupt, .-TxDMADone_Interrupt
 172              		.text
 173              	.Letext0:
 174              		.file 2 "./AudioControl.h"
 175              		.file 3 "./AudioOut.h"
 176              		.file 4 "Generated_Source\\PSoC4/cytypes.h"