ARM GAS  C:\Users\TERENC~1\AppData\Local\Temp\ccy0dLdh.s 			page 1


   1              		.syntax unified
   2              		.cpu cortex-m0
   3              		.fpu softvfp
   4              		.eabi_attribute 20, 1
   5              		.eabi_attribute 21, 1
   6              		.eabi_attribute 23, 3
   7              		.eabi_attribute 24, 1
   8              		.eabi_attribute 25, 1
   9              		.eabi_attribute 26, 1
  10              		.eabi_attribute 30, 1
  11              		.eabi_attribute 34, 0
  12              		.eabi_attribute 18, 4
  13              		.thumb
  14              		.syntax unified
  15              		.file	"LED_RED_PWM_ISR.c"
  16              		.text
  17              	.Ltext0:
  18              		.cfi_sections	.debug_frame
  19              		.section	.text.LED_RED_PWM_ISR_SetVector,"ax",%progbits
  20              		.align	2
  21              		.global	LED_RED_PWM_ISR_SetVector
  22              		.code	16
  23              		.thumb_func
  24              		.type	LED_RED_PWM_ISR_SetVector, %function
  25              	LED_RED_PWM_ISR_SetVector:
  26              	.LFB5:
  27              		.file 1 "Generated_Source\\PSoC4\\LED_RED_PWM_ISR.c"
   1:Generated_Source\PSoC4/LED_RED_PWM_ISR.c **** /*******************************************************************************
   2:Generated_Source\PSoC4/LED_RED_PWM_ISR.c **** * File Name: LED_RED_PWM_ISR.c  
   3:Generated_Source\PSoC4/LED_RED_PWM_ISR.c **** * Version 1.70
   4:Generated_Source\PSoC4/LED_RED_PWM_ISR.c **** *
   5:Generated_Source\PSoC4/LED_RED_PWM_ISR.c **** *  Description:
   6:Generated_Source\PSoC4/LED_RED_PWM_ISR.c **** *   API for controlling the state of an interrupt.
   7:Generated_Source\PSoC4/LED_RED_PWM_ISR.c **** *
   8:Generated_Source\PSoC4/LED_RED_PWM_ISR.c **** *
   9:Generated_Source\PSoC4/LED_RED_PWM_ISR.c **** *  Note:
  10:Generated_Source\PSoC4/LED_RED_PWM_ISR.c **** *
  11:Generated_Source\PSoC4/LED_RED_PWM_ISR.c **** ********************************************************************************
  12:Generated_Source\PSoC4/LED_RED_PWM_ISR.c **** * Copyright 2008-2015, Cypress Semiconductor Corporation.  All rights reserved.
  13:Generated_Source\PSoC4/LED_RED_PWM_ISR.c **** * You may use this file only in accordance with the license, terms, conditions, 
  14:Generated_Source\PSoC4/LED_RED_PWM_ISR.c **** * disclaimers, and limitations in the end user license agreement accompanying 
  15:Generated_Source\PSoC4/LED_RED_PWM_ISR.c **** * the software package with which this file was provided.
  16:Generated_Source\PSoC4/LED_RED_PWM_ISR.c **** *******************************************************************************/
  17:Generated_Source\PSoC4/LED_RED_PWM_ISR.c **** 
  18:Generated_Source\PSoC4/LED_RED_PWM_ISR.c **** 
  19:Generated_Source\PSoC4/LED_RED_PWM_ISR.c **** #include <cydevice_trm.h>
  20:Generated_Source\PSoC4/LED_RED_PWM_ISR.c **** #include <CyLib.h>
  21:Generated_Source\PSoC4/LED_RED_PWM_ISR.c **** #include <LED_RED_PWM_ISR.h>
  22:Generated_Source\PSoC4/LED_RED_PWM_ISR.c **** #include "cyapicallbacks.h"
  23:Generated_Source\PSoC4/LED_RED_PWM_ISR.c **** 
  24:Generated_Source\PSoC4/LED_RED_PWM_ISR.c **** #if !defined(LED_RED_PWM_ISR__REMOVED) /* Check for removal by optimization */
  25:Generated_Source\PSoC4/LED_RED_PWM_ISR.c **** 
  26:Generated_Source\PSoC4/LED_RED_PWM_ISR.c **** /*******************************************************************************
  27:Generated_Source\PSoC4/LED_RED_PWM_ISR.c **** *  Place your includes, defines and code here 
  28:Generated_Source\PSoC4/LED_RED_PWM_ISR.c **** ********************************************************************************/
  29:Generated_Source\PSoC4/LED_RED_PWM_ISR.c **** /* `#START LED_RED_PWM_ISR_intc` */
  30:Generated_Source\PSoC4/LED_RED_PWM_ISR.c **** 
ARM GAS  C:\Users\TERENC~1\AppData\Local\Temp\ccy0dLdh.s 			page 2


  31:Generated_Source\PSoC4/LED_RED_PWM_ISR.c **** /* `#END` */
  32:Generated_Source\PSoC4/LED_RED_PWM_ISR.c **** 
  33:Generated_Source\PSoC4/LED_RED_PWM_ISR.c **** extern cyisraddress CyRamVectors[CYINT_IRQ_BASE + CY_NUM_INTERRUPTS];
  34:Generated_Source\PSoC4/LED_RED_PWM_ISR.c **** 
  35:Generated_Source\PSoC4/LED_RED_PWM_ISR.c **** /* Declared in startup, used to set unused interrupts to. */
  36:Generated_Source\PSoC4/LED_RED_PWM_ISR.c **** CY_ISR_PROTO(IntDefaultHandler);
  37:Generated_Source\PSoC4/LED_RED_PWM_ISR.c **** 
  38:Generated_Source\PSoC4/LED_RED_PWM_ISR.c **** 
  39:Generated_Source\PSoC4/LED_RED_PWM_ISR.c **** /*******************************************************************************
  40:Generated_Source\PSoC4/LED_RED_PWM_ISR.c **** * Function Name: LED_RED_PWM_ISR_Start
  41:Generated_Source\PSoC4/LED_RED_PWM_ISR.c **** ********************************************************************************
  42:Generated_Source\PSoC4/LED_RED_PWM_ISR.c **** *
  43:Generated_Source\PSoC4/LED_RED_PWM_ISR.c **** * Summary:
  44:Generated_Source\PSoC4/LED_RED_PWM_ISR.c **** *  Set up the interrupt and enable it. This function disables the interrupt, 
  45:Generated_Source\PSoC4/LED_RED_PWM_ISR.c **** *  sets the default interrupt vector, sets the priority from the value in the
  46:Generated_Source\PSoC4/LED_RED_PWM_ISR.c **** *  Design Wide Resources Interrupt Editor, then enables the interrupt to the 
  47:Generated_Source\PSoC4/LED_RED_PWM_ISR.c **** *  interrupt controller.
  48:Generated_Source\PSoC4/LED_RED_PWM_ISR.c **** *
  49:Generated_Source\PSoC4/LED_RED_PWM_ISR.c **** * Parameters:  
  50:Generated_Source\PSoC4/LED_RED_PWM_ISR.c **** *   None
  51:Generated_Source\PSoC4/LED_RED_PWM_ISR.c **** *
  52:Generated_Source\PSoC4/LED_RED_PWM_ISR.c **** * Return:
  53:Generated_Source\PSoC4/LED_RED_PWM_ISR.c **** *   None
  54:Generated_Source\PSoC4/LED_RED_PWM_ISR.c **** *
  55:Generated_Source\PSoC4/LED_RED_PWM_ISR.c **** *******************************************************************************/
  56:Generated_Source\PSoC4/LED_RED_PWM_ISR.c **** void LED_RED_PWM_ISR_Start(void)
  57:Generated_Source\PSoC4/LED_RED_PWM_ISR.c **** {
  58:Generated_Source\PSoC4/LED_RED_PWM_ISR.c ****     /* For all we know the interrupt is active. */
  59:Generated_Source\PSoC4/LED_RED_PWM_ISR.c ****     LED_RED_PWM_ISR_Disable();
  60:Generated_Source\PSoC4/LED_RED_PWM_ISR.c **** 
  61:Generated_Source\PSoC4/LED_RED_PWM_ISR.c ****     /* Set the ISR to point to the LED_RED_PWM_ISR Interrupt. */
  62:Generated_Source\PSoC4/LED_RED_PWM_ISR.c ****     LED_RED_PWM_ISR_SetVector(&LED_RED_PWM_ISR_Interrupt);
  63:Generated_Source\PSoC4/LED_RED_PWM_ISR.c **** 
  64:Generated_Source\PSoC4/LED_RED_PWM_ISR.c ****     /* Set the priority. */
  65:Generated_Source\PSoC4/LED_RED_PWM_ISR.c ****     LED_RED_PWM_ISR_SetPriority((uint8)LED_RED_PWM_ISR_INTC_PRIOR_NUMBER);
  66:Generated_Source\PSoC4/LED_RED_PWM_ISR.c **** 
  67:Generated_Source\PSoC4/LED_RED_PWM_ISR.c ****     /* Enable it. */
  68:Generated_Source\PSoC4/LED_RED_PWM_ISR.c ****     LED_RED_PWM_ISR_Enable();
  69:Generated_Source\PSoC4/LED_RED_PWM_ISR.c **** }
  70:Generated_Source\PSoC4/LED_RED_PWM_ISR.c **** 
  71:Generated_Source\PSoC4/LED_RED_PWM_ISR.c **** 
  72:Generated_Source\PSoC4/LED_RED_PWM_ISR.c **** /*******************************************************************************
  73:Generated_Source\PSoC4/LED_RED_PWM_ISR.c **** * Function Name: LED_RED_PWM_ISR_StartEx
  74:Generated_Source\PSoC4/LED_RED_PWM_ISR.c **** ********************************************************************************
  75:Generated_Source\PSoC4/LED_RED_PWM_ISR.c **** *
  76:Generated_Source\PSoC4/LED_RED_PWM_ISR.c **** * Summary:
  77:Generated_Source\PSoC4/LED_RED_PWM_ISR.c **** *  Sets up the interrupt and enables it. This function disables the interrupt,
  78:Generated_Source\PSoC4/LED_RED_PWM_ISR.c **** *  sets the interrupt vector based on the address passed in, sets the priority 
  79:Generated_Source\PSoC4/LED_RED_PWM_ISR.c **** *  from the value in the Design Wide Resources Interrupt Editor, then enables 
  80:Generated_Source\PSoC4/LED_RED_PWM_ISR.c **** *  the interrupt to the interrupt controller.
  81:Generated_Source\PSoC4/LED_RED_PWM_ISR.c **** *  
  82:Generated_Source\PSoC4/LED_RED_PWM_ISR.c **** *  When defining ISR functions, the CY_ISR and CY_ISR_PROTO macros should be 
  83:Generated_Source\PSoC4/LED_RED_PWM_ISR.c **** *  used to provide consistent definition across compilers:
  84:Generated_Source\PSoC4/LED_RED_PWM_ISR.c **** *  
  85:Generated_Source\PSoC4/LED_RED_PWM_ISR.c **** *  Function definition example:
  86:Generated_Source\PSoC4/LED_RED_PWM_ISR.c **** *   CY_ISR(MyISR)
  87:Generated_Source\PSoC4/LED_RED_PWM_ISR.c **** *   {
ARM GAS  C:\Users\TERENC~1\AppData\Local\Temp\ccy0dLdh.s 			page 3


  88:Generated_Source\PSoC4/LED_RED_PWM_ISR.c **** *   }
  89:Generated_Source\PSoC4/LED_RED_PWM_ISR.c **** *   Function prototype example:
  90:Generated_Source\PSoC4/LED_RED_PWM_ISR.c **** *   CY_ISR_PROTO(MyISR);
  91:Generated_Source\PSoC4/LED_RED_PWM_ISR.c **** *
  92:Generated_Source\PSoC4/LED_RED_PWM_ISR.c **** * Parameters:  
  93:Generated_Source\PSoC4/LED_RED_PWM_ISR.c **** *   address: Address of the ISR to set in the interrupt vector table.
  94:Generated_Source\PSoC4/LED_RED_PWM_ISR.c **** *
  95:Generated_Source\PSoC4/LED_RED_PWM_ISR.c **** * Return:
  96:Generated_Source\PSoC4/LED_RED_PWM_ISR.c **** *   None
  97:Generated_Source\PSoC4/LED_RED_PWM_ISR.c **** *
  98:Generated_Source\PSoC4/LED_RED_PWM_ISR.c **** *******************************************************************************/
  99:Generated_Source\PSoC4/LED_RED_PWM_ISR.c **** void LED_RED_PWM_ISR_StartEx(cyisraddress address)
 100:Generated_Source\PSoC4/LED_RED_PWM_ISR.c **** {
 101:Generated_Source\PSoC4/LED_RED_PWM_ISR.c ****     /* For all we know the interrupt is active. */
 102:Generated_Source\PSoC4/LED_RED_PWM_ISR.c ****     LED_RED_PWM_ISR_Disable();
 103:Generated_Source\PSoC4/LED_RED_PWM_ISR.c **** 
 104:Generated_Source\PSoC4/LED_RED_PWM_ISR.c ****     /* Set the ISR to point to the LED_RED_PWM_ISR Interrupt. */
 105:Generated_Source\PSoC4/LED_RED_PWM_ISR.c ****     LED_RED_PWM_ISR_SetVector(address);
 106:Generated_Source\PSoC4/LED_RED_PWM_ISR.c **** 
 107:Generated_Source\PSoC4/LED_RED_PWM_ISR.c ****     /* Set the priority. */
 108:Generated_Source\PSoC4/LED_RED_PWM_ISR.c ****     LED_RED_PWM_ISR_SetPriority((uint8)LED_RED_PWM_ISR_INTC_PRIOR_NUMBER);
 109:Generated_Source\PSoC4/LED_RED_PWM_ISR.c **** 
 110:Generated_Source\PSoC4/LED_RED_PWM_ISR.c ****     /* Enable it. */
 111:Generated_Source\PSoC4/LED_RED_PWM_ISR.c ****     LED_RED_PWM_ISR_Enable();
 112:Generated_Source\PSoC4/LED_RED_PWM_ISR.c **** }
 113:Generated_Source\PSoC4/LED_RED_PWM_ISR.c **** 
 114:Generated_Source\PSoC4/LED_RED_PWM_ISR.c **** 
 115:Generated_Source\PSoC4/LED_RED_PWM_ISR.c **** /*******************************************************************************
 116:Generated_Source\PSoC4/LED_RED_PWM_ISR.c **** * Function Name: LED_RED_PWM_ISR_Stop
 117:Generated_Source\PSoC4/LED_RED_PWM_ISR.c **** ********************************************************************************
 118:Generated_Source\PSoC4/LED_RED_PWM_ISR.c **** *
 119:Generated_Source\PSoC4/LED_RED_PWM_ISR.c **** * Summary:
 120:Generated_Source\PSoC4/LED_RED_PWM_ISR.c **** *   Disables and removes the interrupt.
 121:Generated_Source\PSoC4/LED_RED_PWM_ISR.c **** *
 122:Generated_Source\PSoC4/LED_RED_PWM_ISR.c **** * Parameters:  
 123:Generated_Source\PSoC4/LED_RED_PWM_ISR.c **** *   None
 124:Generated_Source\PSoC4/LED_RED_PWM_ISR.c **** *
 125:Generated_Source\PSoC4/LED_RED_PWM_ISR.c **** * Return:
 126:Generated_Source\PSoC4/LED_RED_PWM_ISR.c **** *   None
 127:Generated_Source\PSoC4/LED_RED_PWM_ISR.c **** *
 128:Generated_Source\PSoC4/LED_RED_PWM_ISR.c **** *******************************************************************************/
 129:Generated_Source\PSoC4/LED_RED_PWM_ISR.c **** void LED_RED_PWM_ISR_Stop(void)
 130:Generated_Source\PSoC4/LED_RED_PWM_ISR.c **** {
 131:Generated_Source\PSoC4/LED_RED_PWM_ISR.c ****     /* Disable this interrupt. */
 132:Generated_Source\PSoC4/LED_RED_PWM_ISR.c ****     LED_RED_PWM_ISR_Disable();
 133:Generated_Source\PSoC4/LED_RED_PWM_ISR.c **** 
 134:Generated_Source\PSoC4/LED_RED_PWM_ISR.c ****     /* Set the ISR to point to the passive one. */
 135:Generated_Source\PSoC4/LED_RED_PWM_ISR.c ****     LED_RED_PWM_ISR_SetVector(&IntDefaultHandler);
 136:Generated_Source\PSoC4/LED_RED_PWM_ISR.c **** }
 137:Generated_Source\PSoC4/LED_RED_PWM_ISR.c **** 
 138:Generated_Source\PSoC4/LED_RED_PWM_ISR.c **** 
 139:Generated_Source\PSoC4/LED_RED_PWM_ISR.c **** /*******************************************************************************
 140:Generated_Source\PSoC4/LED_RED_PWM_ISR.c **** * Function Name: LED_RED_PWM_ISR_Interrupt
 141:Generated_Source\PSoC4/LED_RED_PWM_ISR.c **** ********************************************************************************
 142:Generated_Source\PSoC4/LED_RED_PWM_ISR.c **** *
 143:Generated_Source\PSoC4/LED_RED_PWM_ISR.c **** * Summary:
 144:Generated_Source\PSoC4/LED_RED_PWM_ISR.c **** *   The default Interrupt Service Routine for LED_RED_PWM_ISR.
ARM GAS  C:\Users\TERENC~1\AppData\Local\Temp\ccy0dLdh.s 			page 4


 145:Generated_Source\PSoC4/LED_RED_PWM_ISR.c **** *
 146:Generated_Source\PSoC4/LED_RED_PWM_ISR.c **** *   Add custom code between the START and END comments to keep the next version
 147:Generated_Source\PSoC4/LED_RED_PWM_ISR.c **** *   of this file from over-writing your code.
 148:Generated_Source\PSoC4/LED_RED_PWM_ISR.c **** *
 149:Generated_Source\PSoC4/LED_RED_PWM_ISR.c **** *   Note You may use either the default ISR by using this API, or you may define
 150:Generated_Source\PSoC4/LED_RED_PWM_ISR.c **** *   your own separate ISR through ISR_StartEx().
 151:Generated_Source\PSoC4/LED_RED_PWM_ISR.c **** *
 152:Generated_Source\PSoC4/LED_RED_PWM_ISR.c **** * Parameters:  
 153:Generated_Source\PSoC4/LED_RED_PWM_ISR.c **** *   None
 154:Generated_Source\PSoC4/LED_RED_PWM_ISR.c **** *
 155:Generated_Source\PSoC4/LED_RED_PWM_ISR.c **** * Return:
 156:Generated_Source\PSoC4/LED_RED_PWM_ISR.c **** *   None
 157:Generated_Source\PSoC4/LED_RED_PWM_ISR.c **** *
 158:Generated_Source\PSoC4/LED_RED_PWM_ISR.c **** *******************************************************************************/
 159:Generated_Source\PSoC4/LED_RED_PWM_ISR.c **** CY_ISR(LED_RED_PWM_ISR_Interrupt)
 160:Generated_Source\PSoC4/LED_RED_PWM_ISR.c **** {
 161:Generated_Source\PSoC4/LED_RED_PWM_ISR.c ****     #ifdef LED_RED_PWM_ISR_INTERRUPT_INTERRUPT_CALLBACK
 162:Generated_Source\PSoC4/LED_RED_PWM_ISR.c ****         LED_RED_PWM_ISR_Interrupt_InterruptCallback();
 163:Generated_Source\PSoC4/LED_RED_PWM_ISR.c ****     #endif /* LED_RED_PWM_ISR_INTERRUPT_INTERRUPT_CALLBACK */ 
 164:Generated_Source\PSoC4/LED_RED_PWM_ISR.c **** 
 165:Generated_Source\PSoC4/LED_RED_PWM_ISR.c ****     /*  Place your Interrupt code here. */
 166:Generated_Source\PSoC4/LED_RED_PWM_ISR.c ****     /* `#START LED_RED_PWM_ISR_Interrupt` */
 167:Generated_Source\PSoC4/LED_RED_PWM_ISR.c ****     #include <LedManager.h>
 168:Generated_Source\PSoC4/LED_RED_PWM_ISR.c ****     LED_RED_PWM_ISR_ClearPending();
 169:Generated_Source\PSoC4/LED_RED_PWM_ISR.c **** 
 170:Generated_Source\PSoC4/LED_RED_PWM_ISR.c ****     LedManagerInterruptHandler(LM_LED_RED);
 171:Generated_Source\PSoC4/LED_RED_PWM_ISR.c ****     /* `#END` */
 172:Generated_Source\PSoC4/LED_RED_PWM_ISR.c **** }
 173:Generated_Source\PSoC4/LED_RED_PWM_ISR.c **** 
 174:Generated_Source\PSoC4/LED_RED_PWM_ISR.c **** 
 175:Generated_Source\PSoC4/LED_RED_PWM_ISR.c **** /*******************************************************************************
 176:Generated_Source\PSoC4/LED_RED_PWM_ISR.c **** * Function Name: LED_RED_PWM_ISR_SetVector
 177:Generated_Source\PSoC4/LED_RED_PWM_ISR.c **** ********************************************************************************
 178:Generated_Source\PSoC4/LED_RED_PWM_ISR.c **** *
 179:Generated_Source\PSoC4/LED_RED_PWM_ISR.c **** * Summary:
 180:Generated_Source\PSoC4/LED_RED_PWM_ISR.c **** *   Change the ISR vector for the Interrupt. Note calling LED_RED_PWM_ISR_Start
 181:Generated_Source\PSoC4/LED_RED_PWM_ISR.c **** *   will override any effect this method would have had. To set the vector 
 182:Generated_Source\PSoC4/LED_RED_PWM_ISR.c **** *   before the component has been started use LED_RED_PWM_ISR_StartEx instead.
 183:Generated_Source\PSoC4/LED_RED_PWM_ISR.c **** * 
 184:Generated_Source\PSoC4/LED_RED_PWM_ISR.c **** *   When defining ISR functions, the CY_ISR and CY_ISR_PROTO macros should be 
 185:Generated_Source\PSoC4/LED_RED_PWM_ISR.c **** *   used to provide consistent definition across compilers:
 186:Generated_Source\PSoC4/LED_RED_PWM_ISR.c **** *
 187:Generated_Source\PSoC4/LED_RED_PWM_ISR.c **** *   Function definition example:
 188:Generated_Source\PSoC4/LED_RED_PWM_ISR.c **** *   CY_ISR(MyISR)
 189:Generated_Source\PSoC4/LED_RED_PWM_ISR.c **** *   {
 190:Generated_Source\PSoC4/LED_RED_PWM_ISR.c **** *   }
 191:Generated_Source\PSoC4/LED_RED_PWM_ISR.c **** *
 192:Generated_Source\PSoC4/LED_RED_PWM_ISR.c **** *   Function prototype example:
 193:Generated_Source\PSoC4/LED_RED_PWM_ISR.c **** *     CY_ISR_PROTO(MyISR);
 194:Generated_Source\PSoC4/LED_RED_PWM_ISR.c **** *
 195:Generated_Source\PSoC4/LED_RED_PWM_ISR.c **** * Parameters:
 196:Generated_Source\PSoC4/LED_RED_PWM_ISR.c **** *   address: Address of the ISR to set in the interrupt vector table.
 197:Generated_Source\PSoC4/LED_RED_PWM_ISR.c **** *
 198:Generated_Source\PSoC4/LED_RED_PWM_ISR.c **** * Return:
 199:Generated_Source\PSoC4/LED_RED_PWM_ISR.c **** *   None
 200:Generated_Source\PSoC4/LED_RED_PWM_ISR.c **** *
 201:Generated_Source\PSoC4/LED_RED_PWM_ISR.c **** *******************************************************************************/
ARM GAS  C:\Users\TERENC~1\AppData\Local\Temp\ccy0dLdh.s 			page 5


 202:Generated_Source\PSoC4/LED_RED_PWM_ISR.c **** void LED_RED_PWM_ISR_SetVector(cyisraddress address)
 203:Generated_Source\PSoC4/LED_RED_PWM_ISR.c **** {
  28              		.loc 1 203 0
  29              		.cfi_startproc
  30              		@ args = 0, pretend = 0, frame = 0
  31              		@ frame_needed = 0, uses_anonymous_args = 0
  32              		@ link register save eliminated.
  33              	.LVL0:
 204:Generated_Source\PSoC4/LED_RED_PWM_ISR.c ****     CyRamVectors[CYINT_IRQ_BASE + LED_RED_PWM_ISR__INTC_NUMBER] = address;
  34              		.loc 1 204 0
  35 0000 AC23     		movs	r3, #172
  36 0002 014A     		ldr	r2, .L2
  37 0004 D050     		str	r0, [r2, r3]
 205:Generated_Source\PSoC4/LED_RED_PWM_ISR.c **** }
  38              		.loc 1 205 0
  39              		@ sp needed
  40 0006 7047     		bx	lr
  41              	.L3:
  42              		.align	2
  43              	.L2:
  44 0008 00000000 		.word	CyRamVectors
  45              		.cfi_endproc
  46              	.LFE5:
  47              		.size	LED_RED_PWM_ISR_SetVector, .-LED_RED_PWM_ISR_SetVector
  48              		.section	.text.LED_RED_PWM_ISR_GetVector,"ax",%progbits
  49              		.align	2
  50              		.global	LED_RED_PWM_ISR_GetVector
  51              		.code	16
  52              		.thumb_func
  53              		.type	LED_RED_PWM_ISR_GetVector, %function
  54              	LED_RED_PWM_ISR_GetVector:
  55              	.LFB6:
 206:Generated_Source\PSoC4/LED_RED_PWM_ISR.c **** 
 207:Generated_Source\PSoC4/LED_RED_PWM_ISR.c **** 
 208:Generated_Source\PSoC4/LED_RED_PWM_ISR.c **** /*******************************************************************************
 209:Generated_Source\PSoC4/LED_RED_PWM_ISR.c **** * Function Name: LED_RED_PWM_ISR_GetVector
 210:Generated_Source\PSoC4/LED_RED_PWM_ISR.c **** ********************************************************************************
 211:Generated_Source\PSoC4/LED_RED_PWM_ISR.c **** *
 212:Generated_Source\PSoC4/LED_RED_PWM_ISR.c **** * Summary:
 213:Generated_Source\PSoC4/LED_RED_PWM_ISR.c **** *   Gets the "address" of the current ISR vector for the Interrupt.
 214:Generated_Source\PSoC4/LED_RED_PWM_ISR.c **** *
 215:Generated_Source\PSoC4/LED_RED_PWM_ISR.c **** * Parameters:
 216:Generated_Source\PSoC4/LED_RED_PWM_ISR.c **** *   None
 217:Generated_Source\PSoC4/LED_RED_PWM_ISR.c **** *
 218:Generated_Source\PSoC4/LED_RED_PWM_ISR.c **** * Return:
 219:Generated_Source\PSoC4/LED_RED_PWM_ISR.c **** *   Address of the ISR in the interrupt vector table.
 220:Generated_Source\PSoC4/LED_RED_PWM_ISR.c **** *
 221:Generated_Source\PSoC4/LED_RED_PWM_ISR.c **** *******************************************************************************/
 222:Generated_Source\PSoC4/LED_RED_PWM_ISR.c **** cyisraddress LED_RED_PWM_ISR_GetVector(void)
 223:Generated_Source\PSoC4/LED_RED_PWM_ISR.c **** {
  56              		.loc 1 223 0
  57              		.cfi_startproc
  58              		@ args = 0, pretend = 0, frame = 0
  59              		@ frame_needed = 0, uses_anonymous_args = 0
  60              		@ link register save eliminated.
 224:Generated_Source\PSoC4/LED_RED_PWM_ISR.c ****     return CyRamVectors[CYINT_IRQ_BASE + LED_RED_PWM_ISR__INTC_NUMBER];
  61              		.loc 1 224 0
ARM GAS  C:\Users\TERENC~1\AppData\Local\Temp\ccy0dLdh.s 			page 6


  62 0000 AC23     		movs	r3, #172
  63 0002 014A     		ldr	r2, .L5
  64 0004 D058     		ldr	r0, [r2, r3]
 225:Generated_Source\PSoC4/LED_RED_PWM_ISR.c **** }
  65              		.loc 1 225 0
  66              		@ sp needed
  67 0006 7047     		bx	lr
  68              	.L6:
  69              		.align	2
  70              	.L5:
  71 0008 00000000 		.word	CyRamVectors
  72              		.cfi_endproc
  73              	.LFE6:
  74              		.size	LED_RED_PWM_ISR_GetVector, .-LED_RED_PWM_ISR_GetVector
  75              		.section	.text.LED_RED_PWM_ISR_SetPriority,"ax",%progbits
  76              		.align	2
  77              		.global	LED_RED_PWM_ISR_SetPriority
  78              		.code	16
  79              		.thumb_func
  80              		.type	LED_RED_PWM_ISR_SetPriority, %function
  81              	LED_RED_PWM_ISR_SetPriority:
  82              	.LFB7:
 226:Generated_Source\PSoC4/LED_RED_PWM_ISR.c **** 
 227:Generated_Source\PSoC4/LED_RED_PWM_ISR.c **** 
 228:Generated_Source\PSoC4/LED_RED_PWM_ISR.c **** /*******************************************************************************
 229:Generated_Source\PSoC4/LED_RED_PWM_ISR.c **** * Function Name: LED_RED_PWM_ISR_SetPriority
 230:Generated_Source\PSoC4/LED_RED_PWM_ISR.c **** ********************************************************************************
 231:Generated_Source\PSoC4/LED_RED_PWM_ISR.c **** *
 232:Generated_Source\PSoC4/LED_RED_PWM_ISR.c **** * Summary:
 233:Generated_Source\PSoC4/LED_RED_PWM_ISR.c **** *   Sets the Priority of the Interrupt. 
 234:Generated_Source\PSoC4/LED_RED_PWM_ISR.c **** *
 235:Generated_Source\PSoC4/LED_RED_PWM_ISR.c **** *   Note calling LED_RED_PWM_ISR_Start or LED_RED_PWM_ISR_StartEx will 
 236:Generated_Source\PSoC4/LED_RED_PWM_ISR.c **** *   override any effect this API would have had. This API should only be called
 237:Generated_Source\PSoC4/LED_RED_PWM_ISR.c **** *   after LED_RED_PWM_ISR_Start or LED_RED_PWM_ISR_StartEx has been called. 
 238:Generated_Source\PSoC4/LED_RED_PWM_ISR.c **** *   To set the initial priority for the component, use the Design-Wide Resources
 239:Generated_Source\PSoC4/LED_RED_PWM_ISR.c **** *   Interrupt Editor.
 240:Generated_Source\PSoC4/LED_RED_PWM_ISR.c **** *
 241:Generated_Source\PSoC4/LED_RED_PWM_ISR.c **** *   Note This API has no effect on Non-maskable interrupt NMI).
 242:Generated_Source\PSoC4/LED_RED_PWM_ISR.c **** *
 243:Generated_Source\PSoC4/LED_RED_PWM_ISR.c **** * Parameters:
 244:Generated_Source\PSoC4/LED_RED_PWM_ISR.c **** *   priority: Priority of the interrupt, 0 being the highest priority
 245:Generated_Source\PSoC4/LED_RED_PWM_ISR.c **** *             PSoC 3 and PSoC 5LP: Priority is from 0 to 7.
 246:Generated_Source\PSoC4/LED_RED_PWM_ISR.c **** *             PSoC 4: Priority is from 0 to 3.
 247:Generated_Source\PSoC4/LED_RED_PWM_ISR.c **** *
 248:Generated_Source\PSoC4/LED_RED_PWM_ISR.c **** * Return:
 249:Generated_Source\PSoC4/LED_RED_PWM_ISR.c **** *   None
 250:Generated_Source\PSoC4/LED_RED_PWM_ISR.c **** *
 251:Generated_Source\PSoC4/LED_RED_PWM_ISR.c **** *******************************************************************************/
 252:Generated_Source\PSoC4/LED_RED_PWM_ISR.c **** void LED_RED_PWM_ISR_SetPriority(uint8 priority)
 253:Generated_Source\PSoC4/LED_RED_PWM_ISR.c **** {
  83              		.loc 1 253 0
  84              		.cfi_startproc
  85              		@ args = 0, pretend = 0, frame = 0
  86              		@ frame_needed = 0, uses_anonymous_args = 0
  87              	.LVL1:
  88 0000 10B5     		push	{r4, lr}
  89              		.cfi_def_cfa_offset 8
ARM GAS  C:\Users\TERENC~1\AppData\Local\Temp\ccy0dLdh.s 			page 7


  90              		.cfi_offset 4, -8
  91              		.cfi_offset 14, -4
  92 0002 0400     		movs	r4, r0
  93              	.LVL2:
 254:Generated_Source\PSoC4/LED_RED_PWM_ISR.c **** 	uint8 interruptState;
 255:Generated_Source\PSoC4/LED_RED_PWM_ISR.c ****     uint32 priorityOffset = ((LED_RED_PWM_ISR__INTC_NUMBER % 4u) * 8u) + 6u;
 256:Generated_Source\PSoC4/LED_RED_PWM_ISR.c ****     
 257:Generated_Source\PSoC4/LED_RED_PWM_ISR.c **** 	interruptState = CyEnterCriticalSection();
  94              		.loc 1 257 0
  95 0004 FFF7FEFF 		bl	CyEnterCriticalSection
  96              	.LVL3:
 258:Generated_Source\PSoC4/LED_RED_PWM_ISR.c ****     *LED_RED_PWM_ISR_INTC_PRIOR = (*LED_RED_PWM_ISR_INTC_PRIOR & (uint32)(~LED_RED_PWM_ISR__INTC_PR
  97              		.loc 1 258 0
  98 0008 044A     		ldr	r2, .L8
  99 000a 1368     		ldr	r3, [r2]
 100 000c 9B00     		lsls	r3, r3, #2
 101 000e 9B08     		lsrs	r3, r3, #2
 259:Generated_Source\PSoC4/LED_RED_PWM_ISR.c ****                                     ((uint32)priority << priorityOffset);
 102              		.loc 1 259 0
 103 0010 A407     		lsls	r4, r4, #30
 258:Generated_Source\PSoC4/LED_RED_PWM_ISR.c ****     *LED_RED_PWM_ISR_INTC_PRIOR = (*LED_RED_PWM_ISR_INTC_PRIOR & (uint32)(~LED_RED_PWM_ISR__INTC_PR
 104              		.loc 1 258 0
 105 0012 1C43     		orrs	r4, r3
 106 0014 1460     		str	r4, [r2]
 260:Generated_Source\PSoC4/LED_RED_PWM_ISR.c **** 	CyExitCriticalSection(interruptState);
 107              		.loc 1 260 0
 108 0016 FFF7FEFF 		bl	CyExitCriticalSection
 109              	.LVL4:
 261:Generated_Source\PSoC4/LED_RED_PWM_ISR.c **** }
 110              		.loc 1 261 0
 111              		@ sp needed
 112 001a 10BD     		pop	{r4, pc}
 113              	.L9:
 114              		.align	2
 115              	.L8:
 116 001c 18E400E0 		.word	-536812520
 117              		.cfi_endproc
 118              	.LFE7:
 119              		.size	LED_RED_PWM_ISR_SetPriority, .-LED_RED_PWM_ISR_SetPriority
 120              		.section	.text.LED_RED_PWM_ISR_GetPriority,"ax",%progbits
 121              		.align	2
 122              		.global	LED_RED_PWM_ISR_GetPriority
 123              		.code	16
 124              		.thumb_func
 125              		.type	LED_RED_PWM_ISR_GetPriority, %function
 126              	LED_RED_PWM_ISR_GetPriority:
 127              	.LFB8:
 262:Generated_Source\PSoC4/LED_RED_PWM_ISR.c **** 
 263:Generated_Source\PSoC4/LED_RED_PWM_ISR.c **** 
 264:Generated_Source\PSoC4/LED_RED_PWM_ISR.c **** /*******************************************************************************
 265:Generated_Source\PSoC4/LED_RED_PWM_ISR.c **** * Function Name: LED_RED_PWM_ISR_GetPriority
 266:Generated_Source\PSoC4/LED_RED_PWM_ISR.c **** ********************************************************************************
 267:Generated_Source\PSoC4/LED_RED_PWM_ISR.c **** *
 268:Generated_Source\PSoC4/LED_RED_PWM_ISR.c **** * Summary:
 269:Generated_Source\PSoC4/LED_RED_PWM_ISR.c **** *   Gets the Priority of the Interrupt.
 270:Generated_Source\PSoC4/LED_RED_PWM_ISR.c **** *
 271:Generated_Source\PSoC4/LED_RED_PWM_ISR.c **** * Parameters:
ARM GAS  C:\Users\TERENC~1\AppData\Local\Temp\ccy0dLdh.s 			page 8


 272:Generated_Source\PSoC4/LED_RED_PWM_ISR.c **** *   None
 273:Generated_Source\PSoC4/LED_RED_PWM_ISR.c **** *
 274:Generated_Source\PSoC4/LED_RED_PWM_ISR.c **** * Return:
 275:Generated_Source\PSoC4/LED_RED_PWM_ISR.c **** *   Priority of the interrupt, 0 being the highest priority
 276:Generated_Source\PSoC4/LED_RED_PWM_ISR.c **** *    PSoC 3 and PSoC 5LP: Priority is from 0 to 7.
 277:Generated_Source\PSoC4/LED_RED_PWM_ISR.c **** *    PSoC 4: Priority is from 0 to 3.
 278:Generated_Source\PSoC4/LED_RED_PWM_ISR.c **** *
 279:Generated_Source\PSoC4/LED_RED_PWM_ISR.c **** *******************************************************************************/
 280:Generated_Source\PSoC4/LED_RED_PWM_ISR.c **** uint8 LED_RED_PWM_ISR_GetPriority(void)
 281:Generated_Source\PSoC4/LED_RED_PWM_ISR.c **** {
 128              		.loc 1 281 0
 129              		.cfi_startproc
 130              		@ args = 0, pretend = 0, frame = 0
 131              		@ frame_needed = 0, uses_anonymous_args = 0
 132              		@ link register save eliminated.
 133              	.LVL5:
 282:Generated_Source\PSoC4/LED_RED_PWM_ISR.c ****     uint32 priority;
 283:Generated_Source\PSoC4/LED_RED_PWM_ISR.c **** 	uint32 priorityOffset = ((LED_RED_PWM_ISR__INTC_NUMBER % 4u) * 8u) + 6u;
 284:Generated_Source\PSoC4/LED_RED_PWM_ISR.c **** 
 285:Generated_Source\PSoC4/LED_RED_PWM_ISR.c ****     priority = (*LED_RED_PWM_ISR_INTC_PRIOR & LED_RED_PWM_ISR__INTC_PRIOR_MASK) >> priorityOffset;
 134              		.loc 1 285 0
 135 0000 014B     		ldr	r3, .L11
 136 0002 1868     		ldr	r0, [r3]
 137              	.LVL6:
 286:Generated_Source\PSoC4/LED_RED_PWM_ISR.c **** 
 287:Generated_Source\PSoC4/LED_RED_PWM_ISR.c ****     return (uint8)priority;
 138              		.loc 1 287 0
 139 0004 800F     		lsrs	r0, r0, #30
 140              	.LVL7:
 288:Generated_Source\PSoC4/LED_RED_PWM_ISR.c **** }
 141              		.loc 1 288 0
 142              		@ sp needed
 143 0006 7047     		bx	lr
 144              	.L12:
 145              		.align	2
 146              	.L11:
 147 0008 18E400E0 		.word	-536812520
 148              		.cfi_endproc
 149              	.LFE8:
 150              		.size	LED_RED_PWM_ISR_GetPriority, .-LED_RED_PWM_ISR_GetPriority
 151              		.section	.text.LED_RED_PWM_ISR_Enable,"ax",%progbits
 152              		.align	2
 153              		.global	LED_RED_PWM_ISR_Enable
 154              		.code	16
 155              		.thumb_func
 156              		.type	LED_RED_PWM_ISR_Enable, %function
 157              	LED_RED_PWM_ISR_Enable:
 158              	.LFB9:
 289:Generated_Source\PSoC4/LED_RED_PWM_ISR.c **** 
 290:Generated_Source\PSoC4/LED_RED_PWM_ISR.c **** 
 291:Generated_Source\PSoC4/LED_RED_PWM_ISR.c **** /*******************************************************************************
 292:Generated_Source\PSoC4/LED_RED_PWM_ISR.c **** * Function Name: LED_RED_PWM_ISR_Enable
 293:Generated_Source\PSoC4/LED_RED_PWM_ISR.c **** ********************************************************************************
 294:Generated_Source\PSoC4/LED_RED_PWM_ISR.c **** *
 295:Generated_Source\PSoC4/LED_RED_PWM_ISR.c **** * Summary:
 296:Generated_Source\PSoC4/LED_RED_PWM_ISR.c **** *   Enables the interrupt to the interrupt controller. Do not call this function
 297:Generated_Source\PSoC4/LED_RED_PWM_ISR.c **** *   unless ISR_Start() has been called or the functionality of the ISR_Start() 
ARM GAS  C:\Users\TERENC~1\AppData\Local\Temp\ccy0dLdh.s 			page 9


 298:Generated_Source\PSoC4/LED_RED_PWM_ISR.c **** *   function, which sets the vector and the priority, has been called.
 299:Generated_Source\PSoC4/LED_RED_PWM_ISR.c **** *
 300:Generated_Source\PSoC4/LED_RED_PWM_ISR.c **** * Parameters:
 301:Generated_Source\PSoC4/LED_RED_PWM_ISR.c **** *   None
 302:Generated_Source\PSoC4/LED_RED_PWM_ISR.c **** *
 303:Generated_Source\PSoC4/LED_RED_PWM_ISR.c **** * Return:
 304:Generated_Source\PSoC4/LED_RED_PWM_ISR.c **** *   None
 305:Generated_Source\PSoC4/LED_RED_PWM_ISR.c **** *
 306:Generated_Source\PSoC4/LED_RED_PWM_ISR.c **** *******************************************************************************/
 307:Generated_Source\PSoC4/LED_RED_PWM_ISR.c **** void LED_RED_PWM_ISR_Enable(void)
 308:Generated_Source\PSoC4/LED_RED_PWM_ISR.c **** {
 159              		.loc 1 308 0
 160              		.cfi_startproc
 161              		@ args = 0, pretend = 0, frame = 0
 162              		@ frame_needed = 0, uses_anonymous_args = 0
 163              		@ link register save eliminated.
 309:Generated_Source\PSoC4/LED_RED_PWM_ISR.c ****     /* Enable the general interrupt. */
 310:Generated_Source\PSoC4/LED_RED_PWM_ISR.c ****     *LED_RED_PWM_ISR_INTC_SET_EN = LED_RED_PWM_ISR__INTC_MASK;
 164              		.loc 1 310 0
 165 0000 8022     		movs	r2, #128
 166 0002 1205     		lsls	r2, r2, #20
 167 0004 014B     		ldr	r3, .L14
 168 0006 1A60     		str	r2, [r3]
 311:Generated_Source\PSoC4/LED_RED_PWM_ISR.c **** }
 169              		.loc 1 311 0
 170              		@ sp needed
 171 0008 7047     		bx	lr
 172              	.L15:
 173 000a C046     		.align	2
 174              	.L14:
 175 000c 00E100E0 		.word	-536813312
 176              		.cfi_endproc
 177              	.LFE9:
 178              		.size	LED_RED_PWM_ISR_Enable, .-LED_RED_PWM_ISR_Enable
 179              		.section	.text.LED_RED_PWM_ISR_GetState,"ax",%progbits
 180              		.align	2
 181              		.global	LED_RED_PWM_ISR_GetState
 182              		.code	16
 183              		.thumb_func
 184              		.type	LED_RED_PWM_ISR_GetState, %function
 185              	LED_RED_PWM_ISR_GetState:
 186              	.LFB10:
 312:Generated_Source\PSoC4/LED_RED_PWM_ISR.c **** 
 313:Generated_Source\PSoC4/LED_RED_PWM_ISR.c **** 
 314:Generated_Source\PSoC4/LED_RED_PWM_ISR.c **** /*******************************************************************************
 315:Generated_Source\PSoC4/LED_RED_PWM_ISR.c **** * Function Name: LED_RED_PWM_ISR_GetState
 316:Generated_Source\PSoC4/LED_RED_PWM_ISR.c **** ********************************************************************************
 317:Generated_Source\PSoC4/LED_RED_PWM_ISR.c **** *
 318:Generated_Source\PSoC4/LED_RED_PWM_ISR.c **** * Summary:
 319:Generated_Source\PSoC4/LED_RED_PWM_ISR.c **** *   Gets the state (enabled, disabled) of the Interrupt.
 320:Generated_Source\PSoC4/LED_RED_PWM_ISR.c **** *
 321:Generated_Source\PSoC4/LED_RED_PWM_ISR.c **** * Parameters:
 322:Generated_Source\PSoC4/LED_RED_PWM_ISR.c **** *   None
 323:Generated_Source\PSoC4/LED_RED_PWM_ISR.c **** *
 324:Generated_Source\PSoC4/LED_RED_PWM_ISR.c **** * Return:
 325:Generated_Source\PSoC4/LED_RED_PWM_ISR.c **** *   1 if enabled, 0 if disabled.
 326:Generated_Source\PSoC4/LED_RED_PWM_ISR.c **** *
ARM GAS  C:\Users\TERENC~1\AppData\Local\Temp\ccy0dLdh.s 			page 10


 327:Generated_Source\PSoC4/LED_RED_PWM_ISR.c **** *******************************************************************************/
 328:Generated_Source\PSoC4/LED_RED_PWM_ISR.c **** uint8 LED_RED_PWM_ISR_GetState(void)
 329:Generated_Source\PSoC4/LED_RED_PWM_ISR.c **** {
 187              		.loc 1 329 0
 188              		.cfi_startproc
 189              		@ args = 0, pretend = 0, frame = 0
 190              		@ frame_needed = 0, uses_anonymous_args = 0
 191              		@ link register save eliminated.
 330:Generated_Source\PSoC4/LED_RED_PWM_ISR.c ****     /* Get the state of the general interrupt. */
 331:Generated_Source\PSoC4/LED_RED_PWM_ISR.c ****     return ((*LED_RED_PWM_ISR_INTC_SET_EN & (uint32)LED_RED_PWM_ISR__INTC_MASK) != 0u) ? 1u:0u;
 192              		.loc 1 331 0
 193 0000 034B     		ldr	r3, .L19
 194 0002 1B68     		ldr	r3, [r3]
 195 0004 1B01     		lsls	r3, r3, #4
 196 0006 01D5     		bpl	.L18
 197 0008 0120     		movs	r0, #1
 198 000a 00E0     		b	.L17
 199              	.L18:
 200 000c 0020     		movs	r0, #0
 201              	.L17:
 332:Generated_Source\PSoC4/LED_RED_PWM_ISR.c **** }
 202              		.loc 1 332 0 discriminator 4
 203              		@ sp needed
 204 000e 7047     		bx	lr
 205              	.L20:
 206              		.align	2
 207              	.L19:
 208 0010 00E100E0 		.word	-536813312
 209              		.cfi_endproc
 210              	.LFE10:
 211              		.size	LED_RED_PWM_ISR_GetState, .-LED_RED_PWM_ISR_GetState
 212              		.section	.text.LED_RED_PWM_ISR_Disable,"ax",%progbits
 213              		.align	2
 214              		.global	LED_RED_PWM_ISR_Disable
 215              		.code	16
 216              		.thumb_func
 217              		.type	LED_RED_PWM_ISR_Disable, %function
 218              	LED_RED_PWM_ISR_Disable:
 219              	.LFB11:
 333:Generated_Source\PSoC4/LED_RED_PWM_ISR.c **** 
 334:Generated_Source\PSoC4/LED_RED_PWM_ISR.c **** 
 335:Generated_Source\PSoC4/LED_RED_PWM_ISR.c **** /*******************************************************************************
 336:Generated_Source\PSoC4/LED_RED_PWM_ISR.c **** * Function Name: LED_RED_PWM_ISR_Disable
 337:Generated_Source\PSoC4/LED_RED_PWM_ISR.c **** ********************************************************************************
 338:Generated_Source\PSoC4/LED_RED_PWM_ISR.c **** *
 339:Generated_Source\PSoC4/LED_RED_PWM_ISR.c **** * Summary:
 340:Generated_Source\PSoC4/LED_RED_PWM_ISR.c **** *   Disables the Interrupt in the interrupt controller.
 341:Generated_Source\PSoC4/LED_RED_PWM_ISR.c **** *
 342:Generated_Source\PSoC4/LED_RED_PWM_ISR.c **** * Parameters:
 343:Generated_Source\PSoC4/LED_RED_PWM_ISR.c **** *   None
 344:Generated_Source\PSoC4/LED_RED_PWM_ISR.c **** *
 345:Generated_Source\PSoC4/LED_RED_PWM_ISR.c **** * Return:
 346:Generated_Source\PSoC4/LED_RED_PWM_ISR.c **** *   None
 347:Generated_Source\PSoC4/LED_RED_PWM_ISR.c **** *
 348:Generated_Source\PSoC4/LED_RED_PWM_ISR.c **** *******************************************************************************/
 349:Generated_Source\PSoC4/LED_RED_PWM_ISR.c **** void LED_RED_PWM_ISR_Disable(void)
 350:Generated_Source\PSoC4/LED_RED_PWM_ISR.c **** {
ARM GAS  C:\Users\TERENC~1\AppData\Local\Temp\ccy0dLdh.s 			page 11


 220              		.loc 1 350 0
 221              		.cfi_startproc
 222              		@ args = 0, pretend = 0, frame = 0
 223              		@ frame_needed = 0, uses_anonymous_args = 0
 224              		@ link register save eliminated.
 351:Generated_Source\PSoC4/LED_RED_PWM_ISR.c ****     /* Disable the general interrupt. */
 352:Generated_Source\PSoC4/LED_RED_PWM_ISR.c ****     *LED_RED_PWM_ISR_INTC_CLR_EN = LED_RED_PWM_ISR__INTC_MASK;
 225              		.loc 1 352 0
 226 0000 8022     		movs	r2, #128
 227 0002 1205     		lsls	r2, r2, #20
 228 0004 014B     		ldr	r3, .L22
 229 0006 1A60     		str	r2, [r3]
 353:Generated_Source\PSoC4/LED_RED_PWM_ISR.c **** }
 230              		.loc 1 353 0
 231              		@ sp needed
 232 0008 7047     		bx	lr
 233              	.L23:
 234 000a C046     		.align	2
 235              	.L22:
 236 000c 80E100E0 		.word	-536813184
 237              		.cfi_endproc
 238              	.LFE11:
 239              		.size	LED_RED_PWM_ISR_Disable, .-LED_RED_PWM_ISR_Disable
 240              		.section	.text.LED_RED_PWM_ISR_Start,"ax",%progbits
 241              		.align	2
 242              		.global	LED_RED_PWM_ISR_Start
 243              		.code	16
 244              		.thumb_func
 245              		.type	LED_RED_PWM_ISR_Start, %function
 246              	LED_RED_PWM_ISR_Start:
 247              	.LFB1:
  57:Generated_Source\PSoC4/LED_RED_PWM_ISR.c ****     /* For all we know the interrupt is active. */
 248              		.loc 1 57 0
 249              		.cfi_startproc
 250              		@ args = 0, pretend = 0, frame = 0
 251              		@ frame_needed = 0, uses_anonymous_args = 0
 252 0000 10B5     		push	{r4, lr}
 253              		.cfi_def_cfa_offset 8
 254              		.cfi_offset 4, -8
 255              		.cfi_offset 14, -4
  59:Generated_Source\PSoC4/LED_RED_PWM_ISR.c **** 
 256              		.loc 1 59 0
 257 0002 FFF7FEFF 		bl	LED_RED_PWM_ISR_Disable
 258              	.LVL8:
  62:Generated_Source\PSoC4/LED_RED_PWM_ISR.c **** 
 259              		.loc 1 62 0
 260 0006 0448     		ldr	r0, .L25
 261 0008 FFF7FEFF 		bl	LED_RED_PWM_ISR_SetVector
 262              	.LVL9:
  65:Generated_Source\PSoC4/LED_RED_PWM_ISR.c **** 
 263              		.loc 1 65 0
 264 000c 0320     		movs	r0, #3
 265 000e FFF7FEFF 		bl	LED_RED_PWM_ISR_SetPriority
 266              	.LVL10:
  68:Generated_Source\PSoC4/LED_RED_PWM_ISR.c **** }
 267              		.loc 1 68 0
 268 0012 FFF7FEFF 		bl	LED_RED_PWM_ISR_Enable
ARM GAS  C:\Users\TERENC~1\AppData\Local\Temp\ccy0dLdh.s 			page 12


 269              	.LVL11:
  69:Generated_Source\PSoC4/LED_RED_PWM_ISR.c **** 
 270              		.loc 1 69 0
 271              		@ sp needed
 272 0016 10BD     		pop	{r4, pc}
 273              	.L26:
 274              		.align	2
 275              	.L25:
 276 0018 00000000 		.word	LED_RED_PWM_ISR_Interrupt
 277              		.cfi_endproc
 278              	.LFE1:
 279              		.size	LED_RED_PWM_ISR_Start, .-LED_RED_PWM_ISR_Start
 280              		.section	.text.LED_RED_PWM_ISR_StartEx,"ax",%progbits
 281              		.align	2
 282              		.global	LED_RED_PWM_ISR_StartEx
 283              		.code	16
 284              		.thumb_func
 285              		.type	LED_RED_PWM_ISR_StartEx, %function
 286              	LED_RED_PWM_ISR_StartEx:
 287              	.LFB2:
 100:Generated_Source\PSoC4/LED_RED_PWM_ISR.c ****     /* For all we know the interrupt is active. */
 288              		.loc 1 100 0
 289              		.cfi_startproc
 290              		@ args = 0, pretend = 0, frame = 0
 291              		@ frame_needed = 0, uses_anonymous_args = 0
 292              	.LVL12:
 293 0000 10B5     		push	{r4, lr}
 294              		.cfi_def_cfa_offset 8
 295              		.cfi_offset 4, -8
 296              		.cfi_offset 14, -4
 297 0002 0400     		movs	r4, r0
 102:Generated_Source\PSoC4/LED_RED_PWM_ISR.c **** 
 298              		.loc 1 102 0
 299 0004 FFF7FEFF 		bl	LED_RED_PWM_ISR_Disable
 300              	.LVL13:
 105:Generated_Source\PSoC4/LED_RED_PWM_ISR.c **** 
 301              		.loc 1 105 0
 302 0008 2000     		movs	r0, r4
 303 000a FFF7FEFF 		bl	LED_RED_PWM_ISR_SetVector
 304              	.LVL14:
 108:Generated_Source\PSoC4/LED_RED_PWM_ISR.c **** 
 305              		.loc 1 108 0
 306 000e 0320     		movs	r0, #3
 307 0010 FFF7FEFF 		bl	LED_RED_PWM_ISR_SetPriority
 308              	.LVL15:
 111:Generated_Source\PSoC4/LED_RED_PWM_ISR.c **** }
 309              		.loc 1 111 0
 310 0014 FFF7FEFF 		bl	LED_RED_PWM_ISR_Enable
 311              	.LVL16:
 112:Generated_Source\PSoC4/LED_RED_PWM_ISR.c **** 
 312              		.loc 1 112 0
 313              		@ sp needed
 314              	.LVL17:
 315 0018 10BD     		pop	{r4, pc}
 316              		.cfi_endproc
 317              	.LFE2:
 318              		.size	LED_RED_PWM_ISR_StartEx, .-LED_RED_PWM_ISR_StartEx
ARM GAS  C:\Users\TERENC~1\AppData\Local\Temp\ccy0dLdh.s 			page 13


 319 001a C046     		.section	.text.LED_RED_PWM_ISR_Stop,"ax",%progbits
 320              		.align	2
 321              		.global	LED_RED_PWM_ISR_Stop
 322              		.code	16
 323              		.thumb_func
 324              		.type	LED_RED_PWM_ISR_Stop, %function
 325              	LED_RED_PWM_ISR_Stop:
 326              	.LFB3:
 130:Generated_Source\PSoC4/LED_RED_PWM_ISR.c ****     /* Disable this interrupt. */
 327              		.loc 1 130 0
 328              		.cfi_startproc
 329              		@ args = 0, pretend = 0, frame = 0
 330              		@ frame_needed = 0, uses_anonymous_args = 0
 331 0000 10B5     		push	{r4, lr}
 332              		.cfi_def_cfa_offset 8
 333              		.cfi_offset 4, -8
 334              		.cfi_offset 14, -4
 132:Generated_Source\PSoC4/LED_RED_PWM_ISR.c **** 
 335              		.loc 1 132 0
 336 0002 FFF7FEFF 		bl	LED_RED_PWM_ISR_Disable
 337              	.LVL18:
 135:Generated_Source\PSoC4/LED_RED_PWM_ISR.c **** }
 338              		.loc 1 135 0
 339 0006 0248     		ldr	r0, .L29
 340 0008 FFF7FEFF 		bl	LED_RED_PWM_ISR_SetVector
 341              	.LVL19:
 136:Generated_Source\PSoC4/LED_RED_PWM_ISR.c **** 
 342              		.loc 1 136 0
 343              		@ sp needed
 344 000c 10BD     		pop	{r4, pc}
 345              	.L30:
 346 000e C046     		.align	2
 347              	.L29:
 348 0010 00000000 		.word	IntDefaultHandler
 349              		.cfi_endproc
 350              	.LFE3:
 351              		.size	LED_RED_PWM_ISR_Stop, .-LED_RED_PWM_ISR_Stop
 352              		.section	.text.LED_RED_PWM_ISR_SetPending,"ax",%progbits
 353              		.align	2
 354              		.global	LED_RED_PWM_ISR_SetPending
 355              		.code	16
 356              		.thumb_func
 357              		.type	LED_RED_PWM_ISR_SetPending, %function
 358              	LED_RED_PWM_ISR_SetPending:
 359              	.LFB12:
 354:Generated_Source\PSoC4/LED_RED_PWM_ISR.c **** 
 355:Generated_Source\PSoC4/LED_RED_PWM_ISR.c **** 
 356:Generated_Source\PSoC4/LED_RED_PWM_ISR.c **** /*******************************************************************************
 357:Generated_Source\PSoC4/LED_RED_PWM_ISR.c **** * Function Name: LED_RED_PWM_ISR_SetPending
 358:Generated_Source\PSoC4/LED_RED_PWM_ISR.c **** ********************************************************************************
 359:Generated_Source\PSoC4/LED_RED_PWM_ISR.c **** *
 360:Generated_Source\PSoC4/LED_RED_PWM_ISR.c **** * Summary:
 361:Generated_Source\PSoC4/LED_RED_PWM_ISR.c **** *   Causes the Interrupt to enter the pending state, a software method of
 362:Generated_Source\PSoC4/LED_RED_PWM_ISR.c **** *   generating the interrupt.
 363:Generated_Source\PSoC4/LED_RED_PWM_ISR.c **** *
 364:Generated_Source\PSoC4/LED_RED_PWM_ISR.c **** * Parameters:
 365:Generated_Source\PSoC4/LED_RED_PWM_ISR.c **** *   None
ARM GAS  C:\Users\TERENC~1\AppData\Local\Temp\ccy0dLdh.s 			page 14


 366:Generated_Source\PSoC4/LED_RED_PWM_ISR.c **** *
 367:Generated_Source\PSoC4/LED_RED_PWM_ISR.c **** * Return:
 368:Generated_Source\PSoC4/LED_RED_PWM_ISR.c **** *   None
 369:Generated_Source\PSoC4/LED_RED_PWM_ISR.c **** *
 370:Generated_Source\PSoC4/LED_RED_PWM_ISR.c **** * Side Effects:
 371:Generated_Source\PSoC4/LED_RED_PWM_ISR.c **** *   If interrupts are enabled and the interrupt is set up properly, the ISR is
 372:Generated_Source\PSoC4/LED_RED_PWM_ISR.c **** *   entered (depending on the priority of this interrupt and other pending 
 373:Generated_Source\PSoC4/LED_RED_PWM_ISR.c **** *   interrupts).
 374:Generated_Source\PSoC4/LED_RED_PWM_ISR.c **** *
 375:Generated_Source\PSoC4/LED_RED_PWM_ISR.c **** *******************************************************************************/
 376:Generated_Source\PSoC4/LED_RED_PWM_ISR.c **** void LED_RED_PWM_ISR_SetPending(void)
 377:Generated_Source\PSoC4/LED_RED_PWM_ISR.c **** {
 360              		.loc 1 377 0
 361              		.cfi_startproc
 362              		@ args = 0, pretend = 0, frame = 0
 363              		@ frame_needed = 0, uses_anonymous_args = 0
 364              		@ link register save eliminated.
 378:Generated_Source\PSoC4/LED_RED_PWM_ISR.c ****     *LED_RED_PWM_ISR_INTC_SET_PD = LED_RED_PWM_ISR__INTC_MASK;
 365              		.loc 1 378 0
 366 0000 8022     		movs	r2, #128
 367 0002 1205     		lsls	r2, r2, #20
 368 0004 014B     		ldr	r3, .L32
 369 0006 1A60     		str	r2, [r3]
 379:Generated_Source\PSoC4/LED_RED_PWM_ISR.c **** }
 370              		.loc 1 379 0
 371              		@ sp needed
 372 0008 7047     		bx	lr
 373              	.L33:
 374 000a C046     		.align	2
 375              	.L32:
 376 000c 00E200E0 		.word	-536813056
 377              		.cfi_endproc
 378              	.LFE12:
 379              		.size	LED_RED_PWM_ISR_SetPending, .-LED_RED_PWM_ISR_SetPending
 380              		.section	.text.LED_RED_PWM_ISR_ClearPending,"ax",%progbits
 381              		.align	2
 382              		.global	LED_RED_PWM_ISR_ClearPending
 383              		.code	16
 384              		.thumb_func
 385              		.type	LED_RED_PWM_ISR_ClearPending, %function
 386              	LED_RED_PWM_ISR_ClearPending:
 387              	.LFB13:
 380:Generated_Source\PSoC4/LED_RED_PWM_ISR.c **** 
 381:Generated_Source\PSoC4/LED_RED_PWM_ISR.c **** 
 382:Generated_Source\PSoC4/LED_RED_PWM_ISR.c **** /*******************************************************************************
 383:Generated_Source\PSoC4/LED_RED_PWM_ISR.c **** * Function Name: LED_RED_PWM_ISR_ClearPending
 384:Generated_Source\PSoC4/LED_RED_PWM_ISR.c **** ********************************************************************************
 385:Generated_Source\PSoC4/LED_RED_PWM_ISR.c **** *
 386:Generated_Source\PSoC4/LED_RED_PWM_ISR.c **** * Summary:
 387:Generated_Source\PSoC4/LED_RED_PWM_ISR.c **** *   Clears a pending interrupt in the interrupt controller.
 388:Generated_Source\PSoC4/LED_RED_PWM_ISR.c **** *
 389:Generated_Source\PSoC4/LED_RED_PWM_ISR.c **** *   Note Some interrupt sources are clear-on-read and require the block 
 390:Generated_Source\PSoC4/LED_RED_PWM_ISR.c **** *   interrupt/status register to be read/cleared with the appropriate block API 
 391:Generated_Source\PSoC4/LED_RED_PWM_ISR.c **** *   (GPIO, UART, and so on). Otherwise the ISR will continue to remain in 
 392:Generated_Source\PSoC4/LED_RED_PWM_ISR.c **** *   pending state even though the interrupt itself is cleared using this API.
 393:Generated_Source\PSoC4/LED_RED_PWM_ISR.c **** *
 394:Generated_Source\PSoC4/LED_RED_PWM_ISR.c **** * Parameters:
ARM GAS  C:\Users\TERENC~1\AppData\Local\Temp\ccy0dLdh.s 			page 15


 395:Generated_Source\PSoC4/LED_RED_PWM_ISR.c **** *   None
 396:Generated_Source\PSoC4/LED_RED_PWM_ISR.c **** *
 397:Generated_Source\PSoC4/LED_RED_PWM_ISR.c **** * Return:
 398:Generated_Source\PSoC4/LED_RED_PWM_ISR.c **** *   None
 399:Generated_Source\PSoC4/LED_RED_PWM_ISR.c **** *
 400:Generated_Source\PSoC4/LED_RED_PWM_ISR.c **** *******************************************************************************/
 401:Generated_Source\PSoC4/LED_RED_PWM_ISR.c **** void LED_RED_PWM_ISR_ClearPending(void)
 402:Generated_Source\PSoC4/LED_RED_PWM_ISR.c **** {
 388              		.loc 1 402 0
 389              		.cfi_startproc
 390              		@ args = 0, pretend = 0, frame = 0
 391              		@ frame_needed = 0, uses_anonymous_args = 0
 392              		@ link register save eliminated.
 403:Generated_Source\PSoC4/LED_RED_PWM_ISR.c ****     *LED_RED_PWM_ISR_INTC_CLR_PD = LED_RED_PWM_ISR__INTC_MASK;
 393              		.loc 1 403 0
 394 0000 8022     		movs	r2, #128
 395 0002 1205     		lsls	r2, r2, #20
 396 0004 014B     		ldr	r3, .L35
 397 0006 1A60     		str	r2, [r3]
 404:Generated_Source\PSoC4/LED_RED_PWM_ISR.c **** }
 398              		.loc 1 404 0
 399              		@ sp needed
 400 0008 7047     		bx	lr
 401              	.L36:
 402 000a C046     		.align	2
 403              	.L35:
 404 000c 80E200E0 		.word	-536812928
 405              		.cfi_endproc
 406              	.LFE13:
 407              		.size	LED_RED_PWM_ISR_ClearPending, .-LED_RED_PWM_ISR_ClearPending
 408              		.section	.text.LED_RED_PWM_ISR_Interrupt,"ax",%progbits
 409              		.align	2
 410              		.global	LED_RED_PWM_ISR_Interrupt
 411              		.code	16
 412              		.thumb_func
 413              		.type	LED_RED_PWM_ISR_Interrupt, %function
 414              	LED_RED_PWM_ISR_Interrupt:
 415              	.LFB4:
 160:Generated_Source\PSoC4/LED_RED_PWM_ISR.c ****     #ifdef LED_RED_PWM_ISR_INTERRUPT_INTERRUPT_CALLBACK
 416              		.loc 1 160 0
 417              		.cfi_startproc
 418              		@ args = 0, pretend = 0, frame = 0
 419              		@ frame_needed = 0, uses_anonymous_args = 0
 420 0000 10B5     		push	{r4, lr}
 421              		.cfi_def_cfa_offset 8
 422              		.cfi_offset 4, -8
 423              		.cfi_offset 14, -4
 168:Generated_Source\PSoC4/LED_RED_PWM_ISR.c **** 
 424              		.loc 1 168 0
 425 0002 FFF7FEFF 		bl	LED_RED_PWM_ISR_ClearPending
 426              	.LVL20:
 170:Generated_Source\PSoC4/LED_RED_PWM_ISR.c ****     /* `#END` */
 427              		.loc 1 170 0
 428 0006 0020     		movs	r0, #0
 429 0008 FFF7FEFF 		bl	LedManagerInterruptHandler
 430              	.LVL21:
 172:Generated_Source\PSoC4/LED_RED_PWM_ISR.c **** 
ARM GAS  C:\Users\TERENC~1\AppData\Local\Temp\ccy0dLdh.s 			page 16


 431              		.loc 1 172 0
 432              		@ sp needed
 433 000c 10BD     		pop	{r4, pc}
 434              		.cfi_endproc
 435              	.LFE4:
 436              		.size	LED_RED_PWM_ISR_Interrupt, .-LED_RED_PWM_ISR_Interrupt
 437 000e C046     		.text
 438              	.Letext0:
 439              		.file 2 "c:\\program files (x86)\\cypress\\psoc creator\\4.2\\psoc creator\\import\\gnu\\arm\\5.4.
 440              		.file 3 "c:\\program files (x86)\\cypress\\psoc creator\\4.2\\psoc creator\\import\\gnu\\arm\\5.4.
 441              		.file 4 "Generated_Source\\PSoC4/cytypes.h"
 442              		.file 5 "./LedManager.h"
 443              		.file 6 "Generated_Source\\PSoC4/CyLib.h"