ARM GAS  C:\Users\TERENC~1\AppData\Local\Temp\ccaCxr18.s 			page 1


   1              		.syntax unified
   2              		.cpu cortex-m0
   3              		.fpu softvfp
   4              		.eabi_attribute 20, 1
   5              		.eabi_attribute 21, 1
   6              		.eabi_attribute 23, 3
   7              		.eabi_attribute 24, 1
   8              		.eabi_attribute 25, 1
   9              		.eabi_attribute 26, 1
  10              		.eabi_attribute 30, 1
  11              		.eabi_attribute 34, 0
  12              		.eabi_attribute 18, 4
  13              		.thumb
  14              		.syntax unified
  15              		.file	"LedManager.c"
  16              		.text
  17              	.Ltext0:
  18              		.cfi_sections	.debug_frame
  19              		.section	.text.LedManagerStartOverride,"ax",%progbits
  20              		.align	2
  21              		.global	LedManagerStartOverride
  22              		.code	16
  23              		.thumb_func
  24              		.type	LedManagerStartOverride, %function
  25              	LedManagerStartOverride:
  26              	.LFB1:
  27              		.file 1 "LedManager.c"
   1:LedManager.c  **** /* ========================================
   2:LedManager.c  ****  *
   3:LedManager.c  ****  * Copyright YOUR COMPANY, THE YEAR
   4:LedManager.c  ****  * All Rights Reserved
   5:LedManager.c  ****  * UNPUBLISHED, LICENSED SOFTWARE.
   6:LedManager.c  ****  *
   7:LedManager.c  ****  * CONFIDENTIAL AND PROPRIETARY INFORMATION
   8:LedManager.c  ****  * WHICH IS THE PROPERTY OF your company.
   9:LedManager.c  ****  *
  10:LedManager.c  ****  * ========================================
  11:LedManager.c  **** */
  12:LedManager.c  **** #include <LedManager.h>
  13:LedManager.c  **** #include <LED_RED_PWM_ISR.h>
  14:LedManager.c  **** #include <LED_BLUE_PWM_ISR.h>
  15:LedManager.c  **** #include <LED_RED_PWM.h>
  16:LedManager.c  **** #include <LED_BLUE_PWM.h>
  17:LedManager.c  **** #include <stdbool.h>
  18:LedManager.c  **** 
  19:LedManager.c  **** typedef struct
  20:LedManager.c  **** {
  21:LedManager.c  ****     void (* startIsr)(void);
  22:LedManager.c  ****     void (* start)(void);
  23:LedManager.c  ****     void (* stop)(void);
  24:LedManager.c  ****     void (* writeCounter)(uint32 count);
  25:LedManager.c  ****     uint32 (* readCounter)(void);
  26:LedManager.c  ****     void (* writePeriod)(uint32 period);
  27:LedManager.c  ****     uint32 (* readPeriod)(void);
  28:LedManager.c  ****     void (* writeCompare)(uint32 compare);
  29:LedManager.c  ****     uint32 (* readCompare)(void);
  30:LedManager.c  **** } pwm_callbacks_s;
ARM GAS  C:\Users\TERENC~1\AppData\Local\Temp\ccaCxr18.s 			page 2


  31:LedManager.c  **** 
  32:LedManager.c  **** static pwm_callbacks_s pwm[LM_LED_MAX] = 
  33:LedManager.c  **** {
  34:LedManager.c  ****     // LM_LED_RED
  35:LedManager.c  ****     {
  36:LedManager.c  ****         .startIsr = LED_RED_PWM_ISR_Start,
  37:LedManager.c  ****         .start = LED_RED_PWM_Start,
  38:LedManager.c  ****         .stop = LED_RED_PWM_Stop,
  39:LedManager.c  ****         .writeCounter = LED_RED_PWM_WriteCounter,
  40:LedManager.c  ****         .readCounter = LED_RED_PWM_ReadCounter,
  41:LedManager.c  ****         .writePeriod = LED_RED_PWM_WritePeriod,
  42:LedManager.c  ****         .readPeriod = LED_RED_PWM_ReadPeriod,
  43:LedManager.c  ****         .writeCompare = LED_RED_PWM_WriteCompare,
  44:LedManager.c  ****         .readCompare = LED_RED_PWM_ReadCompare
  45:LedManager.c  ****     },
  46:LedManager.c  ****     // LM_LED_GREEN
  47:LedManager.c  ****     {
  48:LedManager.c  **** //        .startIsr = LED_GREEN_PWM_ISR_Start,
  49:LedManager.c  **** //        .start = LED_GREEN_PWM_Start,
  50:LedManager.c  **** //        .stop = LED_GREEN_PWM_Stop,
  51:LedManager.c  **** //        .writeCounter = LED_GREEN_PWM_WriteCounter,
  52:LedManager.c  **** //        .readCounter = LED_GREEN_PWM_ReadCounter,
  53:LedManager.c  **** //        .writePeriod = LED_GREEN_PWM_WritePeriod,
  54:LedManager.c  **** //        .readPeriod = LED_GREEN_PWM_ReadPeriod,
  55:LedManager.c  **** //        .writeCompare = LED_GREEN_PWM_WriteCompare,
  56:LedManager.c  **** //        .readCompare = LED_GREEN_PWM_ReadCompare
  57:LedManager.c  ****     },
  58:LedManager.c  ****     // LM_LED_BLUE
  59:LedManager.c  ****     {
  60:LedManager.c  ****         .startIsr = LED_BLUE_PWM_ISR_Start,
  61:LedManager.c  ****         .start = LED_BLUE_PWM_Start,
  62:LedManager.c  ****         .stop = LED_BLUE_PWM_Stop,
  63:LedManager.c  ****         .writeCounter = LED_BLUE_PWM_WriteCounter,
  64:LedManager.c  ****         .readCounter = LED_BLUE_PWM_ReadCounter,
  65:LedManager.c  ****         .writePeriod = LED_BLUE_PWM_WritePeriod,
  66:LedManager.c  ****         .readPeriod = LED_BLUE_PWM_ReadPeriod,
  67:LedManager.c  ****         .writeCompare = LED_BLUE_PWM_WriteCompare,
  68:LedManager.c  ****         .readCompare = LED_BLUE_PWM_ReadCompare
  69:LedManager.c  ****     },
  70:LedManager.c  **** };
  71:LedManager.c  **** 
  72:LedManager.c  **** static bool override[LM_LED_MAX];
  73:LedManager.c  **** static int32 change[LM_LED_MAX];
  74:LedManager.c  **** 
  75:LedManager.c  **** void LedManagerStartOverride(LM_LED_e ledIdx, uint32_t pwmPeriod, uint32_t pwmCompare, uint32_t pwm
  76:LedManager.c  **** {
  28              		.loc 1 76 0
  29              		.cfi_startproc
  30              		@ args = 0, pretend = 0, frame = 16
  31              		@ frame_needed = 0, uses_anonymous_args = 0
  32              	.LVL0:
  33 0000 F0B5     		push	{r4, r5, r6, r7, lr}
  34              		.cfi_def_cfa_offset 20
  35              		.cfi_offset 4, -20
  36              		.cfi_offset 5, -16
  37              		.cfi_offset 6, -12
  38              		.cfi_offset 7, -8
ARM GAS  C:\Users\TERENC~1\AppData\Local\Temp\ccaCxr18.s 			page 3


  39              		.cfi_offset 14, -4
  40 0002 85B0     		sub	sp, sp, #20
  41              		.cfi_def_cfa_offset 40
  42 0004 0400     		movs	r4, r0
  43 0006 0191     		str	r1, [sp, #4]
  44 0008 0292     		str	r2, [sp, #8]
  45 000a 0393     		str	r3, [sp, #12]
  77:LedManager.c  ****     override[ledIdx] = true;
  46              		.loc 1 77 0
  47 000c 0E4E     		ldr	r6, .L2
  48 000e 0123     		movs	r3, #1
  49              	.LVL1:
  50 0010 3354     		strb	r3, [r6, r0]
  78:LedManager.c  **** 
  79:LedManager.c  ****     pwm[ledIdx].startIsr();
  51              		.loc 1 79 0
  52 0012 0E4F     		ldr	r7, .L2+4
  53 0014 C500     		lsls	r5, r0, #3
  54 0016 2A18     		adds	r2, r5, r0
  55              	.LVL2:
  56 0018 9300     		lsls	r3, r2, #2
  57 001a DB59     		ldr	r3, [r3, r7]
  58 001c 9847     		blx	r3
  59              	.LVL3:
  80:LedManager.c  ****     pwm[ledIdx].start();
  60              		.loc 1 80 0
  61 001e 2A19     		adds	r2, r5, r4
  62 0020 9300     		lsls	r3, r2, #2
  63 0022 FF18     		adds	r7, r7, r3
  64 0024 7B68     		ldr	r3, [r7, #4]
  65 0026 9847     		blx	r3
  66              	.LVL4:
  81:LedManager.c  ****     pwm[ledIdx].writePeriod(pwmPeriod);
  67              		.loc 1 81 0
  68 0028 0198     		ldr	r0, [sp, #4]
  69 002a 7969     		ldr	r1, [r7, #20]
  70 002c 8847     		blx	r1
  71              	.LVL5:
  82:LedManager.c  ****     pwm[ledIdx].writeCounter(pwmCounter);
  72              		.loc 1 82 0
  73 002e 0398     		ldr	r0, [sp, #12]
  74 0030 FB68     		ldr	r3, [r7, #12]
  75 0032 9847     		blx	r3
  76              	.LVL6:
  83:LedManager.c  ****     pwm[ledIdx].writeCompare(pwmCompare);
  77              		.loc 1 83 0
  78 0034 FB69     		ldr	r3, [r7, #28]
  79 0036 029D     		ldr	r5, [sp, #8]
  80 0038 2800     		movs	r0, r5
  81 003a 9847     		blx	r3
  82              	.LVL7:
  84:LedManager.c  ****     
  85:LedManager.c  ****     change[ledIdx] = pwmCompare;
  83              		.loc 1 85 0
  84 003c A400     		lsls	r4, r4, #2
  85 003e 3419     		adds	r4, r6, r4
  86 0040 6560     		str	r5, [r4, #4]
ARM GAS  C:\Users\TERENC~1\AppData\Local\Temp\ccaCxr18.s 			page 4


  86:LedManager.c  **** }
  87              		.loc 1 86 0
  88 0042 05B0     		add	sp, sp, #20
  89              		@ sp needed
  90 0044 F0BD     		pop	{r4, r5, r6, r7, pc}
  91              	.L3:
  92 0046 C046     		.align	2
  93              	.L2:
  94 0048 00000000 		.word	.LANCHOR0
  95 004c 00000000 		.word	.LANCHOR1
  96              		.cfi_endproc
  97              	.LFE1:
  98              		.size	LedManagerStartOverride, .-LedManagerStartOverride
  99              		.section	.text.LedManagerStopOverride,"ax",%progbits
 100              		.align	2
 101              		.global	LedManagerStopOverride
 102              		.code	16
 103              		.thumb_func
 104              		.type	LedManagerStopOverride, %function
 105              	LedManagerStopOverride:
 106              	.LFB2:
  87:LedManager.c  **** 
  88:LedManager.c  **** void LedManagerStopOverride(LM_LED_e ledIdx)
  89:LedManager.c  **** {
 107              		.loc 1 89 0
 108              		.cfi_startproc
 109              		@ args = 0, pretend = 0, frame = 0
 110              		@ frame_needed = 0, uses_anonymous_args = 0
 111              	.LVL8:
 112 0000 10B5     		push	{r4, lr}
 113              		.cfi_def_cfa_offset 8
 114              		.cfi_offset 4, -8
 115              		.cfi_offset 14, -4
 116 0002 0400     		movs	r4, r0
  90:LedManager.c  ****     pwm[ledIdx].stop();
 117              		.loc 1 90 0
 118 0004 C200     		lsls	r2, r0, #3
 119 0006 1218     		adds	r2, r2, r0
 120 0008 9300     		lsls	r3, r2, #2
 121 000a 044A     		ldr	r2, .L5
 122 000c D318     		adds	r3, r2, r3
 123 000e 9B68     		ldr	r3, [r3, #8]
 124 0010 9847     		blx	r3
 125              	.LVL9:
  91:LedManager.c  ****     override[ledIdx] = false;
 126              		.loc 1 91 0
 127 0012 0022     		movs	r2, #0
 128 0014 024B     		ldr	r3, .L5+4
 129 0016 1A55     		strb	r2, [r3, r4]
  92:LedManager.c  **** }
 130              		.loc 1 92 0
 131              		@ sp needed
 132 0018 10BD     		pop	{r4, pc}
 133              	.L6:
 134 001a C046     		.align	2
 135              	.L5:
 136 001c 00000000 		.word	.LANCHOR1
ARM GAS  C:\Users\TERENC~1\AppData\Local\Temp\ccaCxr18.s 			page 5


 137 0020 00000000 		.word	.LANCHOR0
 138              		.cfi_endproc
 139              	.LFE2:
 140              		.size	LedManagerStopOverride, .-LedManagerStopOverride
 141              		.section	.text.LedManagerInterruptHandler,"ax",%progbits
 142              		.align	2
 143              		.global	LedManagerInterruptHandler
 144              		.code	16
 145              		.thumb_func
 146              		.type	LedManagerInterruptHandler, %function
 147              	LedManagerInterruptHandler:
 148              	.LFB3:
  93:LedManager.c  **** 
  94:LedManager.c  **** void LedManagerInterruptHandler(LM_LED_e ledIdx)
  95:LedManager.c  **** {
 149              		.loc 1 95 0
 150              		.cfi_startproc
 151              		@ args = 0, pretend = 0, frame = 0
 152              		@ frame_needed = 0, uses_anonymous_args = 0
 153              	.LVL10:
 154 0000 70B5     		push	{r4, r5, r6, lr}
 155              		.cfi_def_cfa_offset 16
 156              		.cfi_offset 4, -16
 157              		.cfi_offset 5, -12
 158              		.cfi_offset 6, -8
 159              		.cfi_offset 14, -4
 160 0002 0400     		movs	r4, r0
  96:LedManager.c  ****     if (override[ledIdx])
 161              		.loc 1 96 0
 162 0004 274B     		ldr	r3, .L15
 163 0006 1B5C     		ldrb	r3, [r3, r0]
 164 0008 002B     		cmp	r3, #0
 165 000a 4AD0     		beq	.L7
  97:LedManager.c  ****     {
  98:LedManager.c  ****         switch (ledIdx)
 166              		.loc 1 98 0
 167 000c 0028     		cmp	r0, #0
 168 000e 02D0     		beq	.L10
 169 0010 0228     		cmp	r0, #2
 170 0012 04D0     		beq	.L11
 171 0014 06E0     		b	.L9
 172              	.L10:
  99:LedManager.c  ****         {
 100:LedManager.c  ****             case LM_LED_RED:
 101:LedManager.c  ****                 LED_RED_PWM_ClearInterrupt(LED_RED_PWM_INTR_MASK_TC);
 173              		.loc 1 101 0
 174 0016 0120     		movs	r0, #1
 175              	.LVL11:
 176 0018 FFF7FEFF 		bl	LED_RED_PWM_ClearInterrupt
 177              	.LVL12:
 102:LedManager.c  ****                 break;
 178              		.loc 1 102 0
 179 001c 02E0     		b	.L9
 180              	.LVL13:
 181              	.L11:
 103:LedManager.c  ****             
 104:LedManager.c  ****             case LM_LED_BLUE:
ARM GAS  C:\Users\TERENC~1\AppData\Local\Temp\ccaCxr18.s 			page 6


 105:LedManager.c  ****                 LED_BLUE_PWM_ClearInterrupt(LED_BLUE_PWM_INTR_MASK_TC);
 182              		.loc 1 105 0
 183 001e 0120     		movs	r0, #1
 184              	.LVL14:
 185 0020 FFF7FEFF 		bl	LED_BLUE_PWM_ClearInterrupt
 186              	.LVL15:
 187              	.L9:
 106:LedManager.c  ****                 break;
 107:LedManager.c  **** 
 108:LedManager.c  ****             default:
 109:LedManager.c  ****                 break;
 110:LedManager.c  ****         }
 111:LedManager.c  ****         
 112:LedManager.c  ****         if ((change[ledIdx] > 0 && (pwm[ledIdx].readCompare() + change[ledIdx]) <= pwm[ledIdx].read
 188              		.loc 1 112 0
 189 0024 A300     		lsls	r3, r4, #2
 190 0026 1F4A     		ldr	r2, .L15
 191 0028 D318     		adds	r3, r2, r3
 192 002a 5B68     		ldr	r3, [r3, #4]
 193 002c 002B     		cmp	r3, #0
 194 002e 0FDD     		ble	.L12
 195              		.loc 1 112 0 is_stmt 0 discriminator 1
 196 0030 E300     		lsls	r3, r4, #3
 197 0032 1B19     		adds	r3, r3, r4
 198 0034 9A00     		lsls	r2, r3, #2
 199 0036 1C4D     		ldr	r5, .L15+4
 200 0038 AD18     		adds	r5, r5, r2
 201 003a 2B6A     		ldr	r3, [r5, #32]
 202 003c 9847     		blx	r3
 203              	.LVL16:
 204 003e A300     		lsls	r3, r4, #2
 205 0040 184A     		ldr	r2, .L15
 206 0042 D318     		adds	r3, r2, r3
 207 0044 5E68     		ldr	r6, [r3, #4]
 208 0046 3618     		adds	r6, r6, r0
 209 0048 AB69     		ldr	r3, [r5, #24]
 210 004a 9847     		blx	r3
 211              	.LVL17:
 212 004c 8642     		cmp	r6, r0
 213 004e 13D9     		bls	.L13
 214              	.L12:
 113:LedManager.c  ****             (change[ledIdx] < 0 && ((int32)pwm[ledIdx].readCompare() + change[ledIdx]) >= 1))
 215              		.loc 1 113 0 is_stmt 1 discriminator 3
 216 0050 A300     		lsls	r3, r4, #2
 217 0052 144A     		ldr	r2, .L15
 218 0054 D318     		adds	r3, r2, r3
 219 0056 5B68     		ldr	r3, [r3, #4]
 112:LedManager.c  ****             (change[ledIdx] < 0 && ((int32)pwm[ledIdx].readCompare() + change[ledIdx]) >= 1))
 220              		.loc 1 112 0 discriminator 3
 221 0058 002B     		cmp	r3, #0
 222 005a 1CDA     		bge	.L14
 223              		.loc 1 113 0
 224 005c E200     		lsls	r2, r4, #3
 225 005e 1219     		adds	r2, r2, r4
 226 0060 9300     		lsls	r3, r2, #2
 227 0062 114A     		ldr	r2, .L15+4
 228 0064 D318     		adds	r3, r2, r3
ARM GAS  C:\Users\TERENC~1\AppData\Local\Temp\ccaCxr18.s 			page 7


 229 0066 1B6A     		ldr	r3, [r3, #32]
 230 0068 9847     		blx	r3
 231              	.LVL18:
 232 006a A300     		lsls	r3, r4, #2
 233 006c 0D4A     		ldr	r2, .L15
 234 006e D318     		adds	r3, r2, r3
 235 0070 5B68     		ldr	r3, [r3, #4]
 236 0072 C018     		adds	r0, r0, r3
 237 0074 0028     		cmp	r0, #0
 238 0076 0EDD     		ble	.L14
 239              	.L13:
 114:LedManager.c  ****         {
 115:LedManager.c  ****             pwm[ledIdx].writeCompare(pwm[ledIdx].readCompare() + change[ledIdx]);
 240              		.loc 1 115 0
 241 0078 E200     		lsls	r2, r4, #3
 242 007a 1219     		adds	r2, r2, r4
 243 007c 9300     		lsls	r3, r2, #2
 244 007e 0A4A     		ldr	r2, .L15+4
 245 0080 D318     		adds	r3, r2, r3
 246 0082 DD69     		ldr	r5, [r3, #28]
 247 0084 1B6A     		ldr	r3, [r3, #32]
 248 0086 9847     		blx	r3
 249              	.LVL19:
 250 0088 A400     		lsls	r4, r4, #2
 251 008a 064B     		ldr	r3, .L15
 252 008c 1C19     		adds	r4, r3, r4
 253 008e 6368     		ldr	r3, [r4, #4]
 254 0090 1818     		adds	r0, r3, r0
 255 0092 A847     		blx	r5
 256              	.LVL20:
 257 0094 05E0     		b	.L7
 258              	.L14:
 116:LedManager.c  ****         }
 117:LedManager.c  ****         else
 118:LedManager.c  ****         {
 119:LedManager.c  ****             // Change direction (next go around)
 120:LedManager.c  ****             change[ledIdx] *= -1;
 259              		.loc 1 120 0
 260 0096 A400     		lsls	r4, r4, #2
 261 0098 024B     		ldr	r3, .L15
 262 009a 1C19     		adds	r4, r3, r4
 263 009c 6368     		ldr	r3, [r4, #4]
 264 009e 5B42     		rsbs	r3, r3, #0
 265 00a0 6360     		str	r3, [r4, #4]
 266              	.L7:
 121:LedManager.c  ****         }
 122:LedManager.c  ****     }
 123:LedManager.c  **** }
 267              		.loc 1 123 0
 268              		@ sp needed
 269 00a2 70BD     		pop	{r4, r5, r6, pc}
 270              	.L16:
 271              		.align	2
 272              	.L15:
 273 00a4 00000000 		.word	.LANCHOR0
 274 00a8 00000000 		.word	.LANCHOR1
 275              		.cfi_endproc
ARM GAS  C:\Users\TERENC~1\AppData\Local\Temp\ccaCxr18.s 			page 8


 276              	.LFE3:
 277              		.size	LedManagerInterruptHandler, .-LedManagerInterruptHandler
 278              		.section	.rodata
 279              		.align	2
 280              		.set	.LANCHOR1,. + 0
 281              		.type	pwm, %object
 282              		.size	pwm, 108
 283              	pwm:
 284 0000 00000000 		.word	LED_RED_PWM_ISR_Start
 285 0004 00000000 		.word	LED_RED_PWM_Start
 286 0008 00000000 		.word	LED_RED_PWM_Stop
 287 000c 00000000 		.word	LED_RED_PWM_WriteCounter
 288 0010 00000000 		.word	LED_RED_PWM_ReadCounter
 289 0014 00000000 		.word	LED_RED_PWM_WritePeriod
 290 0018 00000000 		.word	LED_RED_PWM_ReadPeriod
 291 001c 00000000 		.word	LED_RED_PWM_WriteCompare
 292 0020 00000000 		.word	LED_RED_PWM_ReadCompare
 293 0024 00000000 		.space	36
 293      00000000 
 293      00000000 
 293      00000000 
 293      00000000 
 294 0048 00000000 		.word	LED_BLUE_PWM_ISR_Start
 295 004c 00000000 		.word	LED_BLUE_PWM_Start
 296 0050 00000000 		.word	LED_BLUE_PWM_Stop
 297 0054 00000000 		.word	LED_BLUE_PWM_WriteCounter
 298 0058 00000000 		.word	LED_BLUE_PWM_ReadCounter
 299 005c 00000000 		.word	LED_BLUE_PWM_WritePeriod
 300 0060 00000000 		.word	LED_BLUE_PWM_ReadPeriod
 301 0064 00000000 		.word	LED_BLUE_PWM_WriteCompare
 302 0068 00000000 		.word	LED_BLUE_PWM_ReadCompare
 303              		.bss
 304              		.align	2
 305              		.set	.LANCHOR0,. + 0
 306              		.type	override, %object
 307              		.size	override, 3
 308              	override:
 309 0000 000000   		.space	3
 310 0003 00       		.space	1
 311              		.type	change, %object
 312              		.size	change, 12
 313              	change:
 314 0004 00000000 		.space	12
 314      00000000 
 314      00000000 
 315              		.text
 316              	.Letext0:
 317              		.file 2 "c:\\program files (x86)\\cypress\\psoc creator\\4.2\\psoc creator\\import\\gnu\\arm\\5.4.
 318              		.file 3 "c:\\program files (x86)\\cypress\\psoc creator\\4.2\\psoc creator\\import\\gnu\\arm\\5.4.
 319              		.file 4 "./LedManager.h"
 320              		.file 5 "Generated_Source\\PSoC4/cytypes.h"
 321              		.file 6 "Generated_Source\\PSoC4/LED_RED_PWM.h"
 322              		.file 7 "Generated_Source\\PSoC4/LED_BLUE_PWM.h"