ARM GAS  C:\Users\TERENC~1\AppData\Local\Temp\ccGV9HL6.s 			page 1


   1              		.syntax unified
   2              		.cpu cortex-m0
   3              		.fpu softvfp
   4              		.eabi_attribute 20, 1
   5              		.eabi_attribute 21, 1
   6              		.eabi_attribute 23, 3
   7              		.eabi_attribute 24, 1
   8              		.eabi_attribute 25, 1
   9              		.eabi_attribute 26, 1
  10              		.eabi_attribute 30, 1
  11              		.eabi_attribute 34, 0
  12              		.eabi_attribute 18, 4
  13              		.thumb
  14              		.syntax unified
  15              		.file	"main.c"
  16              		.text
  17              	.Ltext0:
  18              		.cfi_sections	.debug_frame
  19              		.section	.text.HFI_Handler,"ax",%progbits
  20              		.align	2
  21              		.global	HFI_Handler
  22              		.code	16
  23              		.thumb_func
  24              		.type	HFI_Handler, %function
  25              	HFI_Handler:
  26              	.LFB99:
  27              		.file 1 "main.c"
   1:main.c        **** /******************************************************************************
   2:main.c        **** * Project Name		: CY8CKIT_046_USB_Audio
   3:main.c        **** * Version			: 1.0
   4:main.c        **** * Device Used		: CY8C4248BZI-L489     
   5:main.c        **** * Software Used		: PSoC Creator 4.2
   6:main.c        **** * Compiler Used		: ARM GCC 5.4.1
   7:main.c        **** * Related Hardware	: CY8CKIT-046 PSoC 4 L-Series Pioneer Kit 
   8:main.c        **** *******************************************************************************
   9:main.c        **** * Copyright (2018), Cypress Semiconductor Corporation. All rights reserved.
  10:main.c        **** *******************************************************************************
  11:main.c        **** * This software, including source code, documentation and related materials
  12:main.c        **** * (“Software”), is owned by Cypress Semiconductor Corporation or one of its
  13:main.c        **** * subsidiaries (“Cypress”) and is protected by and subject to worldwide patent
  14:main.c        **** * protection (United States and foreign), United States copyright laws and
  15:main.c        **** * international treaty provisions. Therefore, you may use this Software only
  16:main.c        **** * as provided in the license agreement accompanying the software package from
  17:main.c        **** * which you obtained this Software (“EULA”).
  18:main.c        **** *
  19:main.c        **** * If no EULA applies, Cypress hereby grants you a personal, nonexclusive,
  20:main.c        **** * non-transferable license to copy, modify, and compile the Software source
  21:main.c        **** * code solely for use in connection with Cypress’s integrated circuit products.
  22:main.c        **** * Any reproduction, modification, translation, compilation, or representation
  23:main.c        **** * of this Software except as specified above is prohibited without the express
  24:main.c        **** * written permission of Cypress.
  25:main.c        **** *
  26:main.c        **** * Disclaimer: THIS SOFTWARE IS PROVIDED AS-IS, WITH NO WARRANTY OF ANY KIND, 
  27:main.c        **** * EXPRESS OR IMPLIED, INCLUDING, BUT NOT LIMITED TO, NONINFRINGEMENT, IMPLIED 
  28:main.c        **** * WARRANTIES OF MERCHANTABILITY AND FITNESS FOR A PARTICULAR PURPOSE. Cypress 
  29:main.c        **** * reserves the right to make changes to the Software without notice. Cypress 
  30:main.c        **** * does not assume any liability arising out of the application or use of the 
ARM GAS  C:\Users\TERENC~1\AppData\Local\Temp\ccGV9HL6.s 			page 2


  31:main.c        **** * Software or any product or circuit described in the Software. Cypress does 
  32:main.c        **** * not authorize its products for use in any products where a malfunction or 
  33:main.c        **** * failure of the Cypress product may reasonably be expected to result in 
  34:main.c        **** * significant property damage, injury or death (“High Risk Product”). By 
  35:main.c        **** * including Cypress’s product in a High Risk Product, the manufacturer of such 
  36:main.c        **** * system or application assumes all risk of such use and in doing so agrees to 
  37:main.c        **** * indemnify Cypress against all liability.
  38:main.c        **** *******************************************************************************/
  39:main.c        **** /*******************************************************************************
  40:main.c        **** * Theory of Operation: This project demonstrates the capability of PSoC 4200L to 
  41:main.c        **** * provide a high-quality audio playback and recording interface to a Windows or 
  42:main.c        **** * Mac PC. The example uses the PSoC 4200L USB to implement an asynchronous USB 
  43:main.c        **** * Audio Class v1.0 compliant device. The PSoC 4 L-Series Pioneer Kit has a 
  44:main.c        **** * standard 3.5-mm TRRS audio jack onboard and an audio codec to convert digital 
  45:main.c        **** * audio stream into analog and vice-versa. These components along with PSoC 4200L
  46:main.c        **** * implement the complete USB Audio interface.
  47:main.c        **** *******************************************************************************/
  48:main.c        **** 
  49:main.c        **** #include <project.h>
  50:main.c        **** #include "Application.h"
  51:main.c        **** #include "Codec.h"
  52:main.c        **** #include "AudioControl.h"
  53:main.c        **** #include "USBInterface.h"
  54:main.c        **** #include <LED.h>
  55:main.c        **** #include <LedManager.h>
  56:main.c        **** #include <timers.h>
  57:main.c        **** 
  58:main.c        **** CY_ISR(HFI_Handler)
  59:main.c        **** {
  28              		.loc 1 59 0
  29              		.cfi_startproc
  30              		@ Volatile: function does not return.
  31              		@ args = 0, pretend = 0, frame = 0
  32              		@ frame_needed = 0, uses_anonymous_args = 0
  33 0000 70B5     		push	{r4, r5, r6, lr}
  34              		.cfi_def_cfa_offset 16
  35              		.cfi_offset 4, -16
  36              		.cfi_offset 5, -12
  37              		.cfi_offset 6, -8
  38              		.cfi_offset 14, -4
  39              	.L2:
  60:main.c        ****   while (1)
  61:main.c        ****   {
  62:main.c        ****     LedManagerStartOverride(LM_LED_BLUE, 63000, 30000, 0);
  40              		.loc 1 62 0 discriminator 1
  41 0002 134D     		ldr	r5, .L3
  42 0004 134C     		ldr	r4, .L3+4
  43 0006 0023     		movs	r3, #0
  44 0008 2A00     		movs	r2, r5
  45 000a 2100     		movs	r1, r4
  46 000c 0220     		movs	r0, #2
  47 000e FFF7FEFF 		bl	LedManagerStartOverride
  48              	.LVL0:
  63:main.c        ****     LedManagerStartOverride(LM_LED_RED, 63000, 30000, 0);
  49              		.loc 1 63 0 discriminator 1
  50 0012 0023     		movs	r3, #0
  51 0014 2A00     		movs	r2, r5
ARM GAS  C:\Users\TERENC~1\AppData\Local\Temp\ccGV9HL6.s 			page 3


  52 0016 2100     		movs	r1, r4
  53 0018 0020     		movs	r0, #0
  54 001a FFF7FEFF 		bl	LedManagerStartOverride
  55              	.LVL1:
  64:main.c        ****     LedManagerStartOverride(LM_LED_GREEN, 63000, 30000, 0);
  56              		.loc 1 64 0 discriminator 1
  57 001e 0023     		movs	r3, #0
  58 0020 2A00     		movs	r2, r5
  59 0022 2100     		movs	r1, r4
  60 0024 0120     		movs	r0, #1
  61 0026 FFF7FEFF 		bl	LedManagerStartOverride
  62              	.LVL2:
  65:main.c        ****     
  66:main.c        ****     CyDelay(1000);
  63              		.loc 1 66 0 discriminator 1
  64 002a FA24     		movs	r4, #250
  65 002c A400     		lsls	r4, r4, #2
  66 002e 2000     		movs	r0, r4
  67 0030 FFF7FEFF 		bl	CyDelay
  68              	.LVL3:
  67:main.c        ****     
  68:main.c        ****     LedManagerStopOverride(LM_LED_RED);
  69              		.loc 1 68 0 discriminator 1
  70 0034 0020     		movs	r0, #0
  71 0036 FFF7FEFF 		bl	LedManagerStopOverride
  72              	.LVL4:
  69:main.c        ****     LedManagerStopOverride(LM_LED_GREEN);
  73              		.loc 1 69 0 discriminator 1
  74 003a 0120     		movs	r0, #1
  75 003c FFF7FEFF 		bl	LedManagerStopOverride
  76              	.LVL5:
  70:main.c        ****     LedManagerStopOverride(LM_LED_BLUE);
  77              		.loc 1 70 0 discriminator 1
  78 0040 0220     		movs	r0, #2
  79 0042 FFF7FEFF 		bl	LedManagerStopOverride
  80              	.LVL6:
  71:main.c        ****     
  72:main.c        ****     CyDelay(1000);
  81              		.loc 1 72 0 discriminator 1
  82 0046 2000     		movs	r0, r4
  83 0048 FFF7FEFF 		bl	CyDelay
  84              	.LVL7:
  85 004c D9E7     		b	.L2
  86              	.L4:
  87 004e C046     		.align	2
  88              	.L3:
  89 0050 30750000 		.word	30000
  90 0054 18F60000 		.word	63000
  91              		.cfi_endproc
  92              	.LFE99:
  93              		.size	HFI_Handler, .-HFI_Handler
  94              		.section	.text.SysTickHandler,"ax",%progbits
  95              		.align	2
  96              		.global	SysTickHandler
  97              		.code	16
  98              		.thumb_func
  99              		.type	SysTickHandler, %function
ARM GAS  C:\Users\TERENC~1\AppData\Local\Temp\ccGV9HL6.s 			page 4


 100              	SysTickHandler:
 101              	.LFB100:
  73:main.c        ****   }
  74:main.c        **** }
  75:main.c        **** 
  76:main.c        **** CY_ISR(SysTickHandler)
  77:main.c        **** {
 102              		.loc 1 77 0
 103              		.cfi_startproc
 104              		@ args = 0, pretend = 0, frame = 0
 105              		@ frame_needed = 0, uses_anonymous_args = 0
 106 0000 10B5     		push	{r4, lr}
 107              		.cfi_def_cfa_offset 8
 108              		.cfi_offset 4, -8
 109              		.cfi_offset 14, -4
  78:main.c        ****     tmrService();
 110              		.loc 1 78 0
 111 0002 FFF7FEFF 		bl	tmrService
 112              	.LVL8:
  79:main.c        **** }
 113              		.loc 1 79 0
 114              		@ sp needed
 115 0006 10BD     		pop	{r4, pc}
 116              		.cfi_endproc
 117              	.LFE100:
 118              		.size	SysTickHandler, .-SysTickHandler
 119              		.section	.text.main,"ax",%progbits
 120              		.align	2
 121              		.global	main
 122              		.code	16
 123              		.thumb_func
 124              		.type	main, %function
 125              	main:
 126              	.LFB101:
  80:main.c        **** 
  81:main.c        **** int main()
  82:main.c        **** {
 127              		.loc 1 82 0
 128              		.cfi_startproc
 129              		@ args = 0, pretend = 0, frame = 0
 130              		@ frame_needed = 0, uses_anonymous_args = 0
 131 0000 10B5     		push	{r4, lr}
 132              		.cfi_def_cfa_offset 8
 133              		.cfi_offset 4, -8
 134              		.cfi_offset 14, -4
  83:main.c        **** 	//int32 usbEnumFlag = 0;
  84:main.c        ****     
  85:main.c        ****     CyIntSetSysVector(CY_INT_HARD_FAULT_IRQN, HFI_Handler);
 135              		.loc 1 85 0
 136 0002 1449     		ldr	r1, .L11
 137 0004 0320     		movs	r0, #3
 138 0006 FFF7FEFF 		bl	CyIntSetSysVector
 139              	.LVL9:
  86:main.c        **** 
  87:main.c        ****     /* Start SysTick */
  88:main.c        ****     CySysTickStart();
 140              		.loc 1 88 0
ARM GAS  C:\Users\TERENC~1\AppData\Local\Temp\ccGV9HL6.s 			page 5


 141 000a FFF7FEFF 		bl	CySysTickStart
 142              	.LVL10:
  89:main.c        ****     CySysTickSetCallback(0, SysTickHandler);
 143              		.loc 1 89 0
 144 000e 1249     		ldr	r1, .L11+4
 145 0010 0020     		movs	r0, #0
 146 0012 FFF7FEFF 		bl	CySysTickSetCallback
 147              	.LVL11:
  90:main.c        **** 	
  91:main.c        **** 	/* Setup the Audio pipe from USB to I2S.*/	
  92:main.c        ****     //InitAudioPath();
  93:main.c        **** 	
  94:main.c        **** 	/* Setup the Application part of the firmware */
  95:main.c        ****     InitApp();
 148              		.loc 1 95 0
 149 0016 FFF7FEFF 		bl	InitApp
 150              	.LVL12:
  96:main.c        **** 	
  97:main.c        **** 	PRINTF("InitApp Complete\r\n");
 151              		.loc 1 97 0
 152 001a FFF7FEFF 		bl	USBUART_GetConfiguration
 153              	.LVL13:
 154 001e 0028     		cmp	r0, #0
 155 0020 14D0     		beq	.L10
 156              	.LBB2:
 157              		.loc 1 97 0 is_stmt 0 discriminator 1
 158 0022 0E4B     		ldr	r3, .L11+8
 159 0024 1C68     		ldr	r4, [r3]
 160              	.LVL14:
 161              	.L9:
 162              		.loc 1 97 0 discriminator 5
 163 0026 FFF7FEFF 		bl	USBUART_CDCIsReady
 164              	.LVL15:
 165 002a 0028     		cmp	r0, #0
 166 002c 05D1     		bne	.L8
 167              		.loc 1 97 0 discriminator 3
 168 002e 0B4B     		ldr	r3, .L11+8
 169 0030 1B68     		ldr	r3, [r3]
 170 0032 1B1B     		subs	r3, r3, r4
 171 0034 0A4A     		ldr	r2, .L11+12
 172 0036 9342     		cmp	r3, r2
 173 0038 F5D9     		bls	.L9
 174              	.L8:
 175              		.loc 1 97 0 discriminator 6
 176 003a 0A4C     		ldr	r4, .L11+16
 177              	.LVL16:
 178 003c 1322     		movs	r2, #19
 179 003e 0A49     		ldr	r1, .L11+20
 180 0040 2000     		movs	r0, r4
 181 0042 FFF7FEFF 		bl	memcpy
 182              	.LVL17:
 183 0046 2000     		movs	r0, r4
 184 0048 FFF7FEFF 		bl	USBUART_PutString
 185              	.LVL18:
 186              	.L10:
 187              	.LBE2:
  98:main.c        **** 	
ARM GAS  C:\Users\TERENC~1\AppData\Local\Temp\ccGV9HL6.s 			page 6


  99:main.c        ****     for(;;)
 100:main.c        ****     {
 101:main.c        **** #if 0
 102:main.c        ****         /* Check for USB enumeration with USB host */
 103:main.c        ****         if(USBFS_VBusPresent() == TRUE)
 104:main.c        **** 		{
 105:main.c        **** 			if( USBFS_GetConfiguration() != FALSE)
 106:main.c        **** 	        {				
 107:main.c        **** 	            /* Accessory initialization routine after USB enumeration completion 
 108:main.c        **** 				 * Also loads the EP's when audio playback/recording starts */
 109:main.c        **** 				ServiceUSB();               
 110:main.c        **** 	            
 111:main.c        **** 	            /* USB audio sampling frequency change handler. */
 112:main.c        **** 	            HandleSamplingFrequencyChangeRequest(); 
 113:main.c        **** 				
 114:main.c        **** 				if(usbEnumFlag == FALSE)
 115:main.c        **** 				{
 116:main.c        **** 					usbEnumFlag = TRUE; 
 117:main.c        **** 					PRINTF("USB Enumeration Done\r\n");
 118:main.c        **** 				}
 119:main.c        **** 	        }	
 120:main.c        **** 		}
 121:main.c        **** 		else
 122:main.c        **** 		{		
 123:main.c        **** 			/* Do not operate the device when VBUS is absent */			
 124:main.c        **** 			PRINTF("USB Disconnected \r\n");	
 125:main.c        **** 			
 126:main.c        **** 			/* Wait till the USB is connected again */
 127:main.c        **** 			while(USBFS_VBusPresent() == FALSE);
 128:main.c        **** 			
 129:main.c        **** 			/* Do a software reset once VBUS is connected to properly reinitialize USB, DMA and I2S componen
 130:main.c        **** 			PRINTF("USB Reconnected - SW reset \r\n");
 131:main.c        ****             #ifdef TXDEBUG
 132:main.c        **** 			    while(UART_SpiUartGetTxBufferSize() != 0);
 133:main.c        ****             #endif
 134:main.c        ****             
 135:main.c        ****             /* Do a software reset once data is sent over UART */
 136:main.c        **** 			CySoftwareReset();		
 137:main.c        **** 		}
 138:main.c        ****         
 139:main.c        **** 		/* Clear audio IN buffer when IN stream is stopped */
 140:main.c        **** 		HandleAudioInBuffer();             
 141:main.c        **** #endif
 142:main.c        **** 		/* Runs application layer code for CapSense */
 143:main.c        **** 		RunApplication(); 
 188              		.loc 1 143 0 is_stmt 1 discriminator 1
 189 004c FFF7FEFF 		bl	RunApplication
 190              	.LVL19:
 191 0050 FCE7     		b	.L10
 192              	.L12:
 193 0052 C046     		.align	2
 194              	.L11:
 195 0054 00000000 		.word	HFI_Handler
 196 0058 00000000 		.word	SysTickHandler
 197 005c 00000000 		.word	tmrCounter_ms
 198 0060 E7030000 		.word	999
 199 0064 00000000 		.word	gbuf
ARM GAS  C:\Users\TERENC~1\AppData\Local\Temp\ccGV9HL6.s 			page 7


 200 0068 00000000 		.word	.LC4
 201              		.cfi_endproc
 202              	.LFE101:
 203              		.size	main, .-main
 204              		.section	.rodata.str1.4,"aMS",%progbits,1
 205              		.align	2
 206              	.LC4:
 207 0000 496E6974 		.ascii	"InitApp Complete\015\012\000"
 207      41707020 
 207      436F6D70 
 207      6C657465 
 207      0D0A00
 208              		.text
 209              	.Letext0:
 210              		.file 2 "c:\\program files (x86)\\cypress\\psoc creator\\4.2\\psoc creator\\import\\gnu\\arm\\5.4.
 211              		.file 3 "c:\\program files (x86)\\cypress\\psoc creator\\4.2\\psoc creator\\import\\gnu\\arm\\5.4.
 212              		.file 4 "./timers.h"
 213              		.file 5 "Application.h"
 214              		.file 6 "./LedManager.h"
 215              		.file 7 "Generated_Source\\PSoC4/CyLib.h"
 216              		.file 8 "Generated_Source\\PSoC4/USBUART_cdc.h"
 217              		.file 9 "Generated_Source\\PSoC4/USBUART.h"