ARM GAS  C:\Users\TERENC~1\AppData\Local\Temp\cctAVZMf.s 			page 1


   1              		.syntax unified
   2              		.cpu cortex-m0
   3              		.fpu softvfp
   4              		.eabi_attribute 20, 1
   5              		.eabi_attribute 21, 1
   6              		.eabi_attribute 23, 3
   7              		.eabi_attribute 24, 1
   8              		.eabi_attribute 25, 1
   9              		.eabi_attribute 26, 1
  10              		.eabi_attribute 30, 1
  11              		.eabi_attribute 34, 0
  12              		.eabi_attribute 18, 4
  13              		.thumb
  14              		.syntax unified
  15              		.file	"pcm1770.c"
  16              		.text
  17              	.Ltext0:
  18              		.cfi_sections	.debug_frame
  19              		.section	.text.pcm1770_send_halfword,"ax",%progbits
  20              		.align	2
  21              		.code	16
  22              		.thumb_func
  23              		.type	pcm1770_send_halfword, %function
  24              	pcm1770_send_halfword:
  25              	.LFB3:
  26              		.file 1 "pcm1770.c"
   1:pcm1770.c     **** /* ========================================
   2:pcm1770.c     ****  *
   3:pcm1770.c     ****  * Copyright YOUR COMPANY, THE YEAR
   4:pcm1770.c     ****  * All Rights Reserved
   5:pcm1770.c     ****  * UNPUBLISHED, LICENSED SOFTWARE.
   6:pcm1770.c     ****  *
   7:pcm1770.c     ****  * CONFIDENTIAL AND PROPRIETARY INFORMATION
   8:pcm1770.c     ****  * WHICH IS THE PROPERTY OF your company.
   9:pcm1770.c     ****  *
  10:pcm1770.c     ****  * ========================================
  11:pcm1770.c     **** */
  12:pcm1770.c     **** #include "pcm1770.h"
  13:pcm1770.c     **** #include <cypins.h>
  14:pcm1770.c     **** #include <Application.h>
  15:pcm1770.c     **** #include <Codec.h>
  16:pcm1770.c     **** #include <SPI_CLK.h>
  17:pcm1770.c     **** #include <SPI_CS.h>
  18:pcm1770.c     **** #include <SPI_MOSI.h>
  19:pcm1770.c     **** #include <PD.h>
  20:pcm1770.c     **** 
  21:pcm1770.c     **** #define SPI_CS_PIN      3
  22:pcm1770.c     **** #define SPI_CLK_PIN     2
  23:pcm1770.c     **** #define SPI_MOSI_PIN    0
  24:pcm1770.c     **** 
  25:pcm1770.c     **** #define NUM_OF_STEPS    63
  26:pcm1770.c     **** 
  27:pcm1770.c     **** #define PCM1770_VOL_MIN -63
  28:pcm1770.c     **** #define PCM1770_VOL_MAX 0
  29:pcm1770.c     **** 
  30:pcm1770.c     **** #define WritePin(pp, s) pp ## _Write(s)
  31:pcm1770.c     **** 
ARM GAS  C:\Users\TERENC~1\AppData\Local\Temp\cctAVZMf.s 			page 2


  32:pcm1770.c     **** #define ConfigPin(pp, m)  CY_SYS_PINS_SET_DRIVE_MODE(CYREG_PRT2_DR, pp ## _PIN, m)
  33:pcm1770.c     **** 
  34:pcm1770.c     **** #define SPI_CS_Config(m)   ConfigPin(SPI_CS, m)
  35:pcm1770.c     **** #define SPI_CLK_Config(m)  ConfigPin(SPI_CLK, m)
  36:pcm1770.c     **** #define SPI_MOSI_Config(m) ConfigPin(SPI_MOSI, m)
  37:pcm1770.c     **** //#define SPI_CS_Write(s)    WritePin(SPI_CS, s)
  38:pcm1770.c     **** //#define SPI_CLK_Write(s)   WritePin(SPI_CLK, s)
  39:pcm1770.c     **** //#define SPI_MOSI_Write(s)  WritePin(SPI_MOSI, s)
  40:pcm1770.c     **** 
  41:pcm1770.c     **** static uint8 pcm1770_regs[] =
  42:pcm1770.c     **** {
  43:pcm1770.c     ****     0,  // Reserved
  44:pcm1770.c     ****     63, // PCM1770_REG_HPOUT_L
  45:pcm1770.c     ****     63, // PCM1770_REG_HPOUT_R
  46:pcm1770.c     ****     0,  // PCM1770_REG_OVERSAMPLING_CONTROL 3
  47:pcm1770.c     ****     0,  // PCM1770_REG_ZCAT_PWRD 4
  48:pcm1770.c     **** };
  49:pcm1770.c     **** 
  50:pcm1770.c     **** void pcm1770_init(void)
  51:pcm1770.c     **** {
  52:pcm1770.c     ****     //CY_SYS_PINS_SET_DRIVE_MODE(CYREG_PRT2_DR, 3, CY_SYS_PINS_DM_STRONG);
  53:pcm1770.c     ****     //CY_SYS_PINS_SET_DRIVE_MODE(CYREG_PRT2_DR, 2, CY_SYS_PINS_DM_STRONG);
  54:pcm1770.c     ****     //CY_SYS_PINS_SET_DRIVE_MODE(CYREG_PRT2_DR, 0, CY_SYS_PINS_DM_STRONG);
  55:pcm1770.c     ****     //SPI_CS_Config(CY_SYS_PINS_DM_STRONG);
  56:pcm1770.c     ****     //SPI_CLK_Config(CY_SYS_PINS_DM_STRONG);
  57:pcm1770.c     ****     //SPI_MOSI_Config(CY_SYS_PINS_DM_STRONG);
  58:pcm1770.c     ****     
  59:pcm1770.c     ****     //SPI_CS_Write(1);
  60:pcm1770.c     ****     //SPI_CLK_Write(1);
  61:pcm1770.c     ****     //SPI_MOSI_Write(1);
  62:pcm1770.c     **** 
  63:pcm1770.c     ****     CyDelay(5);
  64:pcm1770.c     **** 
  65:pcm1770.c     ****     // Power on
  66:pcm1770.c     ****     PD_Write(1);
  67:pcm1770.c     ****     
  68:pcm1770.c     ****     CyDelay(5);
  69:pcm1770.c     ****     
  70:pcm1770.c     ****     pcm1770_reg_write(PCM1770_REG_OVERSAMPLING_CONTROL, 0x01);
  71:pcm1770.c     ****     pcm1770_reg_write(PCM1770_REG_ZCAT_PWRD, 0x10);
  72:pcm1770.c     **** }
  73:pcm1770.c     **** 
  74:pcm1770.c     **** static void pcm1770_send_halfword(uint16 data, bool toggle_cs)
  75:pcm1770.c     **** {
  27              		.loc 1 75 0
  28              		.cfi_startproc
  29              		@ args = 0, pretend = 0, frame = 0
  30              		@ frame_needed = 0, uses_anonymous_args = 0
  31              	.LVL0:
  32 0000 70B5     		push	{r4, r5, r6, lr}
  33              		.cfi_def_cfa_offset 16
  34              		.cfi_offset 4, -16
  35              		.cfi_offset 5, -12
  36              		.cfi_offset 6, -8
  37              		.cfi_offset 14, -4
  38 0002 0400     		movs	r4, r0
  39 0004 0E1E     		subs	r6, r1, #0
ARM GAS  C:\Users\TERENC~1\AppData\Local\Temp\cctAVZMf.s 			page 3


  76:pcm1770.c     ****     int i;
  77:pcm1770.c     **** 
  78:pcm1770.c     ****     if (toggle_cs)
  40              		.loc 1 78 0
  41 0006 02D0     		beq	.L2
  79:pcm1770.c     ****     {
  80:pcm1770.c     ****         SPI_CS_Write(0);
  42              		.loc 1 80 0
  43 0008 0020     		movs	r0, #0
  44              	.LVL1:
  45 000a FFF7FEFF 		bl	SPI_CS_Write
  46              	.LVL2:
  47              	.L2:
  75:pcm1770.c     ****     int i;
  48              		.loc 1 75 0 discriminator 1
  49 000e 0025     		movs	r5, #0
  50 0010 0BE0     		b	.L3
  51              	.LVL3:
  52              	.L4:
  81:pcm1770.c     ****     }
  82:pcm1770.c     **** 
  83:pcm1770.c     ****     for (i = 0; i < 16; i++)
  84:pcm1770.c     ****     {
  85:pcm1770.c     ****         SPI_CLK_Write(0);
  53              		.loc 1 85 0 discriminator 3
  54 0012 0020     		movs	r0, #0
  55 0014 FFF7FEFF 		bl	SPI_CLK_Write
  56              	.LVL4:
  86:pcm1770.c     ****         SPI_MOSI_Write((data & 0x8000) != 0);
  57              		.loc 1 86 0 discriminator 3
  58 0018 E00B     		lsrs	r0, r4, #15
  59 001a FFF7FEFF 		bl	SPI_MOSI_Write
  60              	.LVL5:
  87:pcm1770.c     ****         data <<= 1;
  61              		.loc 1 87 0 discriminator 3
  62 001e 6400     		lsls	r4, r4, #1
  63              	.LVL6:
  64 0020 A4B2     		uxth	r4, r4
  65              	.LVL7:
  88:pcm1770.c     ****         SPI_CLK_Write(1);
  66              		.loc 1 88 0 discriminator 3
  67 0022 0120     		movs	r0, #1
  68 0024 FFF7FEFF 		bl	SPI_CLK_Write
  69              	.LVL8:
  83:pcm1770.c     ****     {
  70              		.loc 1 83 0 discriminator 3
  71 0028 0135     		adds	r5, r5, #1
  72              	.LVL9:
  73              	.L3:
  83:pcm1770.c     ****     {
  74              		.loc 1 83 0 is_stmt 0 discriminator 1
  75 002a 0F2D     		cmp	r5, #15
  76 002c F1DD     		ble	.L4
  89:pcm1770.c     ****     }
  90:pcm1770.c     **** 
  91:pcm1770.c     ****     if (toggle_cs)
  77              		.loc 1 91 0 is_stmt 1
ARM GAS  C:\Users\TERENC~1\AppData\Local\Temp\cctAVZMf.s 			page 4


  78 002e 002E     		cmp	r6, #0
  79 0030 02D0     		beq	.L1
  92:pcm1770.c     ****     {
  93:pcm1770.c     ****         SPI_CS_Write(1);
  80              		.loc 1 93 0
  81 0032 0120     		movs	r0, #1
  82 0034 FFF7FEFF 		bl	SPI_CS_Write
  83              	.LVL10:
  84              	.L1:
  94:pcm1770.c     ****     }
  95:pcm1770.c     **** }
  85              		.loc 1 95 0
  86              		@ sp needed
  87              	.LVL11:
  88              	.LVL12:
  89 0038 70BD     		pop	{r4, r5, r6, pc}
  90              		.cfi_endproc
  91              	.LFE3:
  92              		.size	pcm1770_send_halfword, .-pcm1770_send_halfword
  93              		.section	.text.pcm1770_send_data,"ax",%progbits
  94              		.align	2
  95              		.global	pcm1770_send_data
  96              		.code	16
  97              		.thumb_func
  98              		.type	pcm1770_send_data, %function
  99              	pcm1770_send_data:
 100              	.LFB4:
  96:pcm1770.c     **** 
  97:pcm1770.c     **** void pcm1770_send_data(uint16 *pData, uint16 len)
  98:pcm1770.c     **** {
 101              		.loc 1 98 0
 102              		.cfi_startproc
 103              		@ args = 0, pretend = 0, frame = 0
 104              		@ frame_needed = 0, uses_anonymous_args = 0
 105              	.LVL13:
 106 0000 70B5     		push	{r4, r5, r6, lr}
 107              		.cfi_def_cfa_offset 16
 108              		.cfi_offset 4, -16
 109              		.cfi_offset 5, -12
 110              		.cfi_offset 6, -8
 111              		.cfi_offset 14, -4
 112 0002 0600     		movs	r6, r0
 113 0004 0D00     		movs	r5, r1
  99:pcm1770.c     ****     int i;
 100:pcm1770.c     ****     
 101:pcm1770.c     ****     SPI_CS_Write(0);
 114              		.loc 1 101 0
 115 0006 0020     		movs	r0, #0
 116              	.LVL14:
 117 0008 FFF7FEFF 		bl	SPI_CS_Write
 118              	.LVL15:
 102:pcm1770.c     ****     
 103:pcm1770.c     ****     for (i = 0; i < len; i++)
 119              		.loc 1 103 0
 120 000c 0024     		movs	r4, #0
 121 000e 05E0     		b	.L7
 122              	.LVL16:
ARM GAS  C:\Users\TERENC~1\AppData\Local\Temp\cctAVZMf.s 			page 5


 123              	.L8:
 104:pcm1770.c     ****     {
 105:pcm1770.c     ****         pcm1770_send_halfword(pData[i], false);
 124              		.loc 1 105 0 discriminator 3
 125 0010 6300     		lsls	r3, r4, #1
 126 0012 F05A     		ldrh	r0, [r6, r3]
 127 0014 0021     		movs	r1, #0
 128 0016 FFF7FEFF 		bl	pcm1770_send_halfword
 129              	.LVL17:
 103:pcm1770.c     ****     {
 130              		.loc 1 103 0 discriminator 3
 131 001a 0134     		adds	r4, r4, #1
 132              	.LVL18:
 133              	.L7:
 103:pcm1770.c     ****     {
 134              		.loc 1 103 0 is_stmt 0 discriminator 1
 135 001c AC42     		cmp	r4, r5
 136 001e F7DB     		blt	.L8
 106:pcm1770.c     ****     }
 107:pcm1770.c     **** }
 137              		.loc 1 107 0 is_stmt 1
 138              		@ sp needed
 139              	.LVL19:
 140              	.LVL20:
 141 0020 70BD     		pop	{r4, r5, r6, pc}
 142              		.cfi_endproc
 143              	.LFE4:
 144              		.size	pcm1770_send_data, .-pcm1770_send_data
 145 0022 C046     		.section	.text.pcm1770_reg_write,"ax",%progbits
 146              		.align	2
 147              		.global	pcm1770_reg_write
 148              		.code	16
 149              		.thumb_func
 150              		.type	pcm1770_reg_write, %function
 151              	pcm1770_reg_write:
 152              	.LFB5:
 108:pcm1770.c     **** 
 109:pcm1770.c     **** void pcm1770_reg_write(uint8 reg, uint8 data)
 110:pcm1770.c     **** {
 153              		.loc 1 110 0
 154              		.cfi_startproc
 155              		@ args = 0, pretend = 0, frame = 0
 156              		@ frame_needed = 0, uses_anonymous_args = 0
 157              	.LVL21:
 158 0000 10B5     		push	{r4, lr}
 159              		.cfi_def_cfa_offset 8
 160              		.cfi_offset 4, -8
 161              		.cfi_offset 14, -4
 162              	.LVL22:
 111:pcm1770.c     ****     uint16 tmp = reg;
 112:pcm1770.c     ****     
 113:pcm1770.c     ****     pcm1770_regs[reg] = data;
 163              		.loc 1 113 0
 164 0002 044B     		ldr	r3, .L10
 165 0004 1954     		strb	r1, [r3, r0]
 114:pcm1770.c     ****     
 115:pcm1770.c     ****     tmp = (tmp << 8) | data;
ARM GAS  C:\Users\TERENC~1\AppData\Local\Temp\cctAVZMf.s 			page 6


 166              		.loc 1 115 0
 167 0006 0002     		lsls	r0, r0, #8
 168              	.LVL23:
 169 0008 0843     		orrs	r0, r1
 170              	.LVL24:
 116:pcm1770.c     ****     pcm1770_send_halfword(tmp, true);
 171              		.loc 1 116 0
 172 000a 0121     		movs	r1, #1
 173              	.LVL25:
 174 000c FFF7FEFF 		bl	pcm1770_send_halfword
 175              	.LVL26:
 117:pcm1770.c     **** }
 176              		.loc 1 117 0
 177              		@ sp needed
 178 0010 10BD     		pop	{r4, pc}
 179              	.L11:
 180 0012 C046     		.align	2
 181              	.L10:
 182 0014 00000000 		.word	.LANCHOR0
 183              		.cfi_endproc
 184              	.LFE5:
 185              		.size	pcm1770_reg_write, .-pcm1770_reg_write
 186              		.section	.text.pcm1770_init,"ax",%progbits
 187              		.align	2
 188              		.global	pcm1770_init
 189              		.code	16
 190              		.thumb_func
 191              		.type	pcm1770_init, %function
 192              	pcm1770_init:
 193              	.LFB2:
  51:pcm1770.c     ****     //CY_SYS_PINS_SET_DRIVE_MODE(CYREG_PRT2_DR, 3, CY_SYS_PINS_DM_STRONG);
 194              		.loc 1 51 0
 195              		.cfi_startproc
 196              		@ args = 0, pretend = 0, frame = 0
 197              		@ frame_needed = 0, uses_anonymous_args = 0
 198 0000 10B5     		push	{r4, lr}
 199              		.cfi_def_cfa_offset 8
 200              		.cfi_offset 4, -8
 201              		.cfi_offset 14, -4
  63:pcm1770.c     **** 
 202              		.loc 1 63 0
 203 0002 0520     		movs	r0, #5
 204 0004 FFF7FEFF 		bl	CyDelay
 205              	.LVL27:
  66:pcm1770.c     ****     
 206              		.loc 1 66 0
 207 0008 0120     		movs	r0, #1
 208 000a FFF7FEFF 		bl	PD_Write
 209              	.LVL28:
  68:pcm1770.c     ****     
 210              		.loc 1 68 0
 211 000e 0520     		movs	r0, #5
 212 0010 FFF7FEFF 		bl	CyDelay
 213              	.LVL29:
  70:pcm1770.c     ****     pcm1770_reg_write(PCM1770_REG_ZCAT_PWRD, 0x10);
 214              		.loc 1 70 0
 215 0014 0121     		movs	r1, #1
ARM GAS  C:\Users\TERENC~1\AppData\Local\Temp\cctAVZMf.s 			page 7


 216 0016 0320     		movs	r0, #3
 217 0018 FFF7FEFF 		bl	pcm1770_reg_write
 218              	.LVL30:
  71:pcm1770.c     **** }
 219              		.loc 1 71 0
 220 001c 1021     		movs	r1, #16
 221 001e 0420     		movs	r0, #4
 222 0020 FFF7FEFF 		bl	pcm1770_reg_write
 223              	.LVL31:
  72:pcm1770.c     **** 
 224              		.loc 1 72 0
 225              		@ sp needed
 226 0024 10BD     		pop	{r4, pc}
 227              		.cfi_endproc
 228              	.LFE2:
 229              		.size	pcm1770_init, .-pcm1770_init
 230 0026 C046     		.section	.text.pcm1770_volume_set,"ax",%progbits
 231              		.align	2
 232              		.global	pcm1770_volume_set
 233              		.code	16
 234              		.thumb_func
 235              		.type	pcm1770_volume_set, %function
 236              	pcm1770_volume_set:
 237              	.LFB6:
 118:pcm1770.c     **** 
 119:pcm1770.c     **** void pcm1770_volume_set(int8 volume)
 120:pcm1770.c     **** {
 238              		.loc 1 120 0
 239              		.cfi_startproc
 240              		@ args = 0, pretend = 0, frame = 8
 241              		@ frame_needed = 0, uses_anonymous_args = 0
 242              	.LVL32:
 243 0000 30B5     		push	{r4, r5, lr}
 244              		.cfi_def_cfa_offset 12
 245              		.cfi_offset 4, -12
 246              		.cfi_offset 5, -8
 247              		.cfi_offset 14, -4
 248 0002 85B0     		sub	sp, sp, #20
 249              		.cfi_def_cfa_offset 32
 250 0004 0400     		movs	r4, r0
 121:pcm1770.c     ****     uint8 data = pcm1770_regs[PCM1770_REG_HPOUT_L];
 251              		.loc 1 121 0
 252 0006 1C4B     		ldr	r3, .L19
 253 0008 5A78     		ldrb	r2, [r3, #1]
 254 000a 0F23     		movs	r3, #15
 255 000c 6B44     		add	r3, r3, sp
 256 000e 1A70     		strb	r2, [r3]
 257              	.LVL33:
 122:pcm1770.c     ****     pcm1770_reg_hpout_l_s *pData = (pcm1770_reg_hpout_l_s *)&data;
 123:pcm1770.c     **** 
 124:pcm1770.c     ****     if (volume > PCM1770_VOL_MAX)
 258              		.loc 1 124 0
 259 0010 0028     		cmp	r0, #0
 260 0012 00DD     		ble	.L14
 125:pcm1770.c     ****     {
 126:pcm1770.c     ****         volume = PCM1770_VOL_MAX;
 261              		.loc 1 126 0
ARM GAS  C:\Users\TERENC~1\AppData\Local\Temp\cctAVZMf.s 			page 8


 262 0014 0024     		movs	r4, #0
 263              	.L14:
 264              	.LVL34:
 127:pcm1770.c     ****     }
 128:pcm1770.c     ****     
 129:pcm1770.c     ****     if (volume < PCM1770_VOL_MIN)
 265              		.loc 1 129 0
 266 0016 2300     		movs	r3, r4
 267 0018 3F33     		adds	r3, r3, #63
 268 001a 01DA     		bge	.L15
 130:pcm1770.c     ****     {
 131:pcm1770.c     ****         volume = PCM1770_VOL_MIN;
 269              		.loc 1 131 0
 270 001c 3F24     		movs	r4, #63
 271              	.LVL35:
 272 001e 6442     		rsbs	r4, r4, #0
 273              	.L15:
 274              	.LVL36:
 132:pcm1770.c     ****     }
 133:pcm1770.c     **** 
 134:pcm1770.c     ****     D_PRINTF(DEBUG, "%s: %d -> %d\n", __FUNCTION__, pData->atl - NUM_OF_STEPS, volume);
 275              		.loc 1 134 0
 276 0020 164B     		ldr	r3, .L19+4
 277 0022 1B68     		ldr	r3, [r3]
 278 0024 002B     		cmp	r3, #0
 279 0026 12D0     		beq	.L16
 280              		.loc 1 134 0 is_stmt 0 discriminator 1
 281 0028 5B7C     		ldrb	r3, [r3, #17]
 282 002a 9B07     		lsls	r3, r3, #30
 283 002c 0FD0     		beq	.L16
 284              		.loc 1 134 0 discriminator 2
 285 002e 0F23     		movs	r3, #15
 286 0030 6B44     		add	r3, r3, sp
 287 0032 1B78     		ldrb	r3, [r3]
 288 0034 9B06     		lsls	r3, r3, #26
 289 0036 9B0E     		lsrs	r3, r3, #26
 290 0038 3F3B     		subs	r3, r3, #63
 291 003a 114D     		ldr	r5, .L19+8
 292 003c 0094     		str	r4, [sp]
 293 003e 114A     		ldr	r2, .L19+12
 294 0040 1149     		ldr	r1, .L19+16
 295 0042 2800     		movs	r0, r5
 296 0044 FFF7FEFF 		bl	sprintf
 297              	.LVL37:
 298 0048 2800     		movs	r0, r5
 299 004a FFF7FEFF 		bl	UART_UartPutString
 300              	.LVL38:
 301              	.L16:
 135:pcm1770.c     **** 
 136:pcm1770.c     ****     pData->atl = volume + NUM_OF_STEPS;
 302              		.loc 1 136 0 is_stmt 1
 303 004e 3F34     		adds	r4, r4, #63
 304              	.LVL39:
 305 0050 E4B2     		uxtb	r4, r4
 306 0052 0F22     		movs	r2, #15
 307 0054 6A44     		add	r2, r2, sp
 308 0056 3F21     		movs	r1, #63
ARM GAS  C:\Users\TERENC~1\AppData\Local\Temp\cctAVZMf.s 			page 9


 309 0058 0B00     		movs	r3, r1
 310 005a 2340     		ands	r3, r4
 311 005c 1178     		ldrb	r1, [r2]
 312 005e 3F20     		movs	r0, #63
 313 0060 8143     		bics	r1, r0
 314 0062 1943     		orrs	r1, r3
 315 0064 1170     		strb	r1, [r2]
 137:pcm1770.c     ****     pcm1770_reg_write(1, data);
 316              		.loc 1 137 0
 317 0066 3E38     		subs	r0, r0, #62
 318 0068 FFF7FEFF 		bl	pcm1770_reg_write
 319              	.LVL40:
 138:pcm1770.c     ****     pcm1770_reg_write(2, volume + NUM_OF_STEPS);
 320              		.loc 1 138 0
 321 006c 2100     		movs	r1, r4
 322 006e 0220     		movs	r0, #2
 323 0070 FFF7FEFF 		bl	pcm1770_reg_write
 324              	.LVL41:
 139:pcm1770.c     **** }
 325              		.loc 1 139 0
 326 0074 05B0     		add	sp, sp, #20
 327              		@ sp needed
 328 0076 30BD     		pop	{r4, r5, pc}
 329              	.L20:
 330              		.align	2
 331              	.L19:
 332 0078 00000000 		.word	.LANCHOR0
 333 007c 00000000 		.word	cal_data
 334 0080 00000000 		.word	gbuf
 335 0084 00000000 		.word	.LANCHOR1
 336 0088 00000000 		.word	.LC4
 337              		.cfi_endproc
 338              	.LFE6:
 339              		.size	pcm1770_volume_set, .-pcm1770_volume_set
 340              		.global	__aeabi_idiv
 341              		.section	.text.pcm1770_volume_set_level,"ax",%progbits
 342              		.align	2
 343              		.global	pcm1770_volume_set_level
 344              		.code	16
 345              		.thumb_func
 346              		.type	pcm1770_volume_set_level, %function
 347              	pcm1770_volume_set_level:
 348              	.LFB7:
 140:pcm1770.c     **** 
 141:pcm1770.c     **** void pcm1770_volume_set_level(uint8 level)
 142:pcm1770.c     **** {
 349              		.loc 1 142 0
 350              		.cfi_startproc
 351              		@ args = 0, pretend = 0, frame = 0
 352              		@ frame_needed = 0, uses_anonymous_args = 0
 353              	.LVL42:
 354 0000 10B5     		push	{r4, lr}
 355              		.cfi_def_cfa_offset 8
 356              		.cfi_offset 4, -8
 357              		.cfi_offset 14, -4
 358              	.LVL43:
 143:pcm1770.c     ****     int32 volume = level;
ARM GAS  C:\Users\TERENC~1\AppData\Local\Temp\cctAVZMf.s 			page 10


 144:pcm1770.c     **** 
 145:pcm1770.c     ****     // Round with 1000th digit precision
 146:pcm1770.c     ****     volume = ((volume * 1000 / PC_VOLUME_MSB_MAX) * NUM_OF_STEPS + 500) / 1000 + PCM1770_VOL_MIN;
 359              		.loc 1 146 0
 360 0002 FA24     		movs	r4, #250
 361 0004 A400     		lsls	r4, r4, #2
 362 0006 6043     		muls	r0, r4
 363              	.LVL44:
 364 0008 7F21     		movs	r1, #127
 365 000a FFF7FEFF 		bl	__aeabi_idiv
 366              	.LVL45:
 367 000e 8301     		lsls	r3, r0, #6
 368 0010 181A     		subs	r0, r3, r0
 369 0012 F530     		adds	r0, r0, #245
 370 0014 FF30     		adds	r0, r0, #255
 371 0016 2100     		movs	r1, r4
 372 0018 FFF7FEFF 		bl	__aeabi_idiv
 373              	.LVL46:
 374 001c 3F38     		subs	r0, r0, #63
 375              	.LVL47:
 147:pcm1770.c     **** 
 148:pcm1770.c     ****     pcm1770_volume_set((int8) volume);
 376              		.loc 1 148 0
 377 001e 40B2     		sxtb	r0, r0
 378              	.LVL48:
 379 0020 FFF7FEFF 		bl	pcm1770_volume_set
 380              	.LVL49:
 149:pcm1770.c     **** }
 381              		.loc 1 149 0
 382              		@ sp needed
 383 0024 10BD     		pop	{r4, pc}
 384              		.cfi_endproc
 385              	.LFE7:
 386              		.size	pcm1770_volume_set_level, .-pcm1770_volume_set_level
 387 0026 C046     		.section	.text.pcm1770_mute_set,"ax",%progbits
 388              		.align	2
 389              		.global	pcm1770_mute_set
 390              		.code	16
 391              		.thumb_func
 392              		.type	pcm1770_mute_set, %function
 393              	pcm1770_mute_set:
 394              	.LFB8:
 150:pcm1770.c     **** 
 151:pcm1770.c     **** void pcm1770_mute_set(bool left, bool right)
 152:pcm1770.c     **** {
 395              		.loc 1 152 0
 396              		.cfi_startproc
 397              		@ args = 0, pretend = 0, frame = 8
 398              		@ frame_needed = 0, uses_anonymous_args = 0
 399              	.LVL50:
 400 0000 00B5     		push	{lr}
 401              		.cfi_def_cfa_offset 4
 402              		.cfi_offset 14, -4
 403 0002 83B0     		sub	sp, sp, #12
 404              		.cfi_def_cfa_offset 16
 405              	.LVL51:
 153:pcm1770.c     ****     uint8 data = pcm1770_regs[PCM1770_REG_HPOUT_L];
ARM GAS  C:\Users\TERENC~1\AppData\Local\Temp\cctAVZMf.s 			page 11


 154:pcm1770.c     ****     pcm1770_reg_hpout_l_s *pData = (pcm1770_reg_hpout_l_s *)&data;
 155:pcm1770.c     **** 
 156:pcm1770.c     ****     pData->mutl = left;
 406              		.loc 1 156 0
 407 0004 0122     		movs	r2, #1
 408 0006 1040     		ands	r0, r2
 409              	.LVL52:
 410 0008 8201     		lsls	r2, r0, #6
 411 000a 094B     		ldr	r3, .L23
 412 000c 5878     		ldrb	r0, [r3, #1]
 413 000e 4023     		movs	r3, #64
 414 0010 9843     		bics	r0, r3
 157:pcm1770.c     ****     pData->mutr = right;
 415              		.loc 1 157 0
 416 0012 C901     		lsls	r1, r1, #7
 417              	.LVL53:
 418 0014 0300     		movs	r3, r0
 419 0016 1343     		orrs	r3, r2
 420 0018 7F20     		movs	r0, #127
 421 001a 1840     		ands	r0, r3
 422 001c 0843     		orrs	r0, r1
 423 001e 6B46     		mov	r3, sp
 424 0020 D871     		strb	r0, [r3, #7]
 158:pcm1770.c     **** 
 159:pcm1770.c     ****     pcm1770_reg_write(PCM1770_REG_HPOUT_L, data);
 425              		.loc 1 159 0
 426 0022 C1B2     		uxtb	r1, r0
 427 0024 0120     		movs	r0, #1
 428 0026 FFF7FEFF 		bl	pcm1770_reg_write
 429              	.LVL54:
 160:pcm1770.c     **** }
 430              		.loc 1 160 0
 431 002a 03B0     		add	sp, sp, #12
 432              		@ sp needed
 433 002c 00BD     		pop	{pc}
 434              	.L24:
 435 002e C046     		.align	2
 436              	.L23:
 437 0030 00000000 		.word	.LANCHOR0
 438              		.cfi_endproc
 439              	.LFE8:
 440              		.size	pcm1770_mute_set, .-pcm1770_mute_set
 441              		.section	.text.pcm1770_reg_read,"ax",%progbits
 442              		.align	2
 443              		.global	pcm1770_reg_read
 444              		.code	16
 445              		.thumb_func
 446              		.type	pcm1770_reg_read, %function
 447              	pcm1770_reg_read:
 448              	.LFB9:
 161:pcm1770.c     **** 
 162:pcm1770.c     **** uint8 pcm1770_reg_read(uint8 reg)
 163:pcm1770.c     **** {
 449              		.loc 1 163 0
 450              		.cfi_startproc
 451              		@ args = 0, pretend = 0, frame = 0
 452              		@ frame_needed = 0, uses_anonymous_args = 0
ARM GAS  C:\Users\TERENC~1\AppData\Local\Temp\cctAVZMf.s 			page 12


 453              		@ link register save eliminated.
 454              	.LVL55:
 164:pcm1770.c     ****     if (reg >= PCM1770_NUM_OF_REGS)
 455              		.loc 1 164 0
 456 0000 0428     		cmp	r0, #4
 457 0002 02D8     		bhi	.L27
 165:pcm1770.c     ****     {
 166:pcm1770.c     ****         return 0;
 167:pcm1770.c     ****     }
 168:pcm1770.c     **** 
 169:pcm1770.c     ****     return pcm1770_regs[reg];
 458              		.loc 1 169 0
 459 0004 024B     		ldr	r3, .L28
 460 0006 185C     		ldrb	r0, [r3, r0]
 461              	.LVL56:
 462 0008 00E0     		b	.L26
 463              	.LVL57:
 464              	.L27:
 166:pcm1770.c     ****     }
 465              		.loc 1 166 0
 466 000a 0020     		movs	r0, #0
 467              	.LVL58:
 468              	.L26:
 170:pcm1770.c     **** }
 469              		.loc 1 170 0
 470              		@ sp needed
 471 000c 7047     		bx	lr
 472              	.L29:
 473 000e C046     		.align	2
 474              	.L28:
 475 0010 00000000 		.word	.LANCHOR0
 476              		.cfi_endproc
 477              	.LFE9:
 478              		.size	pcm1770_reg_read, .-pcm1770_reg_read
 479              		.section	.rodata
 480              		.align	2
 481              		.set	.LANCHOR1,. + 0
 482              		.type	__FUNCTION__.6471, %object
 483              		.size	__FUNCTION__.6471, 19
 484              	__FUNCTION__.6471:
 485 0000 70636D31 		.ascii	"pcm1770_volume_set\000"
 485      3737305F 
 485      766F6C75 
 485      6D655F73 
 485      657400
 486              		.data
 487              		.align	2
 488              		.set	.LANCHOR0,. + 0
 489              		.type	pcm1770_regs, %object
 490              		.size	pcm1770_regs, 5
 491              	pcm1770_regs:
 492 0000 00       		.byte	0
 493 0001 3F       		.byte	63
 494 0002 3F       		.byte	63
 495 0003 00       		.byte	0
 496 0004 00       		.byte	0
 497              		.section	.rodata.str1.4,"aMS",%progbits,1
ARM GAS  C:\Users\TERENC~1\AppData\Local\Temp\cctAVZMf.s 			page 13


 498              		.align	2
 499              	.LC4:
 500 0000 25733A20 		.ascii	"%s: %d -> %d\012\000"
 500      2564202D 
 500      3E202564 
 500      0A00
 501              		.text
 502              	.Letext0:
 503              		.file 2 "Generated_Source\\PSoC4/cytypes.h"
 504              		.file 3 "./Calibration.h"
 505              		.file 4 "pcm1770.h"
 506              		.file 5 "./Application.h"
 507              		.file 6 "Generated_Source\\PSoC4/SPI_CS.h"
 508              		.file 7 "Generated_Source\\PSoC4/SPI_CLK.h"
 509              		.file 8 "Generated_Source\\PSoC4/SPI_MOSI.h"
 510              		.file 9 "Generated_Source\\PSoC4/CyLib.h"
 511              		.file 10 "Generated_Source\\PSoC4/PD.h"
 512              		.file 11 "c:\\program files (x86)\\cypress\\psoc creator\\4.2\\psoc creator\\import\\gnu\\arm\\5.4
 513              		.file 12 "Generated_Source\\PSoC4/UART_SPI_UART.h"