ARM GAS  C:\Users\TERENC~1\AppData\Local\Temp\cc1ICAaG.s 			page 1


   1              		.syntax unified
   2              		.cpu cortex-m0
   3              		.fpu softvfp
   4              		.eabi_attribute 20, 1
   5              		.eabi_attribute 21, 1
   6              		.eabi_attribute 23, 3
   7              		.eabi_attribute 24, 1
   8              		.eabi_attribute 25, 1
   9              		.eabi_attribute 26, 1
  10              		.eabi_attribute 30, 1
  11              		.eabi_attribute 34, 0
  12              		.eabi_attribute 18, 4
  13              		.thumb
  14              		.syntax unified
  15              		.file	"timers.c"
  16              		.text
  17              	.Ltext0:
  18              		.cfi_sections	.debug_frame
  19              		.section	.text.tmrInit,"ax",%progbits
  20              		.align	2
  21              		.global	tmrInit
  22              		.code	16
  23              		.thumb_func
  24              		.type	tmrInit, %function
  25              	tmrInit:
  26              	.LFB2:
  27              		.file 1 "timers.c"
   1:timers.c      **** /* ========================================
   2:timers.c      ****  *
   3:timers.c      ****  * Copyright YOUR COMPANY, THE YEAR
   4:timers.c      ****  * All Rights Reserved
   5:timers.c      ****  * UNPUBLISHED, LICENSED SOFTWARE.
   6:timers.c      ****  *
   7:timers.c      ****  * CONFIDENTIAL AND PROPRIETARY INFORMATION
   8:timers.c      ****  * WHICH IS THE PROPERTY OF your company.
   9:timers.c      ****  *
  10:timers.c      ****  * ========================================
  11:timers.c      **** */
  12:timers.c      **** #include <Application.h>
  13:timers.c      **** #include <timers.h>
  14:timers.c      **** #include <stdio.h>
  15:timers.c      **** #include <stdbool.h>
  16:timers.c      **** 
  17:timers.c      **** volatile uint32_t tmrCounter_ms;
  18:timers.c      **** 
  19:timers.c      **** static tmrFuncType headTmr;
  20:timers.c      ****     
  21:timers.c      **** void tmrInit(void)
  22:timers.c      **** {
  28              		.loc 1 22 0
  29              		.cfi_startproc
  30              		@ args = 0, pretend = 0, frame = 0
  31              		@ frame_needed = 0, uses_anonymous_args = 0
  32              		@ link register save eliminated.
  23:timers.c      ****     headTmr.next = NULL;
  33              		.loc 1 23 0
  34 0000 024B     		ldr	r3, .L2
ARM GAS  C:\Users\TERENC~1\AppData\Local\Temp\cc1ICAaG.s 			page 2


  35 0002 0022     		movs	r2, #0
  36 0004 1A60     		str	r2, [r3]
  24:timers.c      ****     headTmr.mS = 0;
  37              		.loc 1 24 0
  38 0006 5A60     		str	r2, [r3, #4]
  25:timers.c      ****     headTmr.func = NULL;
  39              		.loc 1 25 0
  40 0008 9A60     		str	r2, [r3, #8]
  26:timers.c      **** }
  41              		.loc 1 26 0
  42              		@ sp needed
  43 000a 7047     		bx	lr
  44              	.L3:
  45              		.align	2
  46              	.L2:
  47 000c 00000000 		.word	.LANCHOR0
  48              		.cfi_endproc
  49              	.LFE2:
  50              		.size	tmrInit, .-tmrInit
  51              		.section	.text.tmrService,"ax",%progbits
  52              		.align	2
  53              		.global	tmrService
  54              		.code	16
  55              		.thumb_func
  56              		.type	tmrService, %function
  57              	tmrService:
  58              	.LFB3:
  27:timers.c      **** 
  28:timers.c      **** void tmrService(void)
  29:timers.c      **** {
  59              		.loc 1 29 0
  60              		.cfi_startproc
  61              		@ args = 0, pretend = 0, frame = 0
  62              		@ frame_needed = 0, uses_anonymous_args = 0
  63 0000 70B5     		push	{r4, r5, r6, lr}
  64              		.cfi_def_cfa_offset 16
  65              		.cfi_offset 4, -16
  66              		.cfi_offset 5, -12
  67              		.cfi_offset 6, -8
  68              		.cfi_offset 14, -4
  69              	.LVL0:
  30:timers.c      ****     tmrFuncType *pTmr = &headTmr;
  31:timers.c      ****     
  32:timers.c      ****     tmrCounter_ms++;
  70              		.loc 1 32 0
  71 0002 0E4A     		ldr	r2, .L10
  72 0004 1368     		ldr	r3, [r2]
  73 0006 0133     		adds	r3, r3, #1
  74 0008 1360     		str	r3, [r2]
  30:timers.c      ****     tmrFuncType *pTmr = &headTmr;
  75              		.loc 1 30 0
  76 000a 0D4C     		ldr	r4, .L10+4
  33:timers.c      ****     
  34:timers.c      ****     while (pTmr->next)
  77              		.loc 1 34 0
  78 000c 11E0     		b	.L5
  79              	.LVL1:
ARM GAS  C:\Users\TERENC~1\AppData\Local\Temp\cc1ICAaG.s 			page 3


  80              	.L9:
  35:timers.c      ****     {
  36:timers.c      ****         if (pTmr->next->mS == 0)
  81              		.loc 1 36 0
  82 000e 6B68     		ldr	r3, [r5, #4]
  83 0010 002B     		cmp	r3, #0
  84 0012 09D1     		bne	.L6
  37:timers.c      ****         {
  38:timers.c      ****             // Timer has expired - execute function
  39:timers.c      ****             pTmr->next->mS = pTmr->next->func();
  85              		.loc 1 39 0
  86 0014 AB68     		ldr	r3, [r5, #8]
  87 0016 9847     		blx	r3
  88              	.LVL2:
  89 0018 6860     		str	r0, [r5, #4]
  40:timers.c      ****             if (pTmr->next->mS == 0)
  90              		.loc 1 40 0
  91 001a 2368     		ldr	r3, [r4]
  92 001c 5A68     		ldr	r2, [r3, #4]
  93 001e 002A     		cmp	r2, #0
  94 0020 04D1     		bne	.L7
  41:timers.c      ****             {
  42:timers.c      ****                 // Timer was not kicked - remove from list
  43:timers.c      ****                 pTmr->next = pTmr->next->next;
  95              		.loc 1 43 0
  96 0022 1B68     		ldr	r3, [r3]
  97 0024 2360     		str	r3, [r4]
  98 0026 01E0     		b	.L7
  99              	.L6:
  44:timers.c      ****             }
  45:timers.c      ****         }
  46:timers.c      ****         else
  47:timers.c      ****         {
  48:timers.c      ****             pTmr->next->mS--;
 100              		.loc 1 48 0
 101 0028 013B     		subs	r3, r3, #1
 102 002a 6B60     		str	r3, [r5, #4]
 103              	.L7:
  49:timers.c      ****         }
  50:timers.c      ****         
  51:timers.c      ****         if (pTmr->next)
 104              		.loc 1 51 0
 105 002c 2468     		ldr	r4, [r4]
 106              	.LVL3:
 107 002e 002C     		cmp	r4, #0
 108 0030 02D0     		beq	.L4
 109              	.L5:
 110              	.LVL4:
  34:timers.c      ****     {
 111              		.loc 1 34 0
 112 0032 2568     		ldr	r5, [r4]
 113 0034 002D     		cmp	r5, #0
 114 0036 EAD1     		bne	.L9
 115              	.LVL5:
 116              	.L4:
  52:timers.c      ****         {
  53:timers.c      ****             // Advance pointer
ARM GAS  C:\Users\TERENC~1\AppData\Local\Temp\cc1ICAaG.s 			page 4


  54:timers.c      ****             pTmr = pTmr->next;
  55:timers.c      ****         }
  56:timers.c      ****         else
  57:timers.c      ****         {
  58:timers.c      ****             // Reached the end of the list
  59:timers.c      ****             break;
  60:timers.c      ****         }
  61:timers.c      ****     }
  62:timers.c      **** }
 117              		.loc 1 62 0
 118              		@ sp needed
 119 0038 70BD     		pop	{r4, r5, r6, pc}
 120              	.L11:
 121 003a C046     		.align	2
 122              	.L10:
 123 003c 00000000 		.word	tmrCounter_ms
 124 0040 00000000 		.word	.LANCHOR0
 125              		.cfi_endproc
 126              	.LFE3:
 127              		.size	tmrService, .-tmrService
 128              		.section	.text.tmrIsRunning,"ax",%progbits
 129              		.align	2
 130              		.global	tmrIsRunning
 131              		.code	16
 132              		.thumb_func
 133              		.type	tmrIsRunning, %function
 134              	tmrIsRunning:
 135              	.LFB4:
  63:timers.c      **** 
  64:timers.c      **** bool tmrIsRunning(void)
  65:timers.c      **** {
 136              		.loc 1 65 0
 137              		.cfi_startproc
 138              		@ args = 0, pretend = 0, frame = 0
 139              		@ frame_needed = 0, uses_anonymous_args = 0
 140              		@ link register save eliminated.
 141              	.LVL6:
  66:timers.c      ****     bool running = false;
  67:timers.c      ****     tmrFuncType *pTmr = &headTmr;
 142              		.loc 1 67 0
 143 0000 054B     		ldr	r3, .L17
  68:timers.c      ****     
  69:timers.c      ****     while (pTmr->next)
 144              		.loc 1 69 0
 145 0002 02E0     		b	.L13
 146              	.LVL7:
 147              	.L15:
  70:timers.c      ****     {
  71:timers.c      ****         if (pTmr->next->mS)
 148              		.loc 1 71 0
 149 0004 5A68     		ldr	r2, [r3, #4]
 150 0006 002A     		cmp	r2, #0
 151 0008 04D1     		bne	.L16
 152              	.L13:
 153              	.LVL8:
  69:timers.c      ****     {
 154              		.loc 1 69 0
ARM GAS  C:\Users\TERENC~1\AppData\Local\Temp\cc1ICAaG.s 			page 5


 155 000a 1B68     		ldr	r3, [r3]
 156              	.LVL9:
 157 000c 002B     		cmp	r3, #0
 158 000e F9D1     		bne	.L15
  66:timers.c      ****     tmrFuncType *pTmr = &headTmr;
 159              		.loc 1 66 0
 160 0010 0020     		movs	r0, #0
 161 0012 00E0     		b	.L14
 162              	.L16:
  72:timers.c      ****         {
  73:timers.c      ****             running = true;
 163              		.loc 1 73 0
 164 0014 0120     		movs	r0, #1
 165              	.L14:
 166              	.LVL10:
  74:timers.c      ****             break;
  75:timers.c      ****         }
  76:timers.c      ****         pTmr = pTmr->next;
  77:timers.c      ****     }
  78:timers.c      ****     return running;
  79:timers.c      **** }
 167              		.loc 1 79 0
 168              		@ sp needed
 169 0016 7047     		bx	lr
 170              	.L18:
 171              		.align	2
 172              	.L17:
 173 0018 00000000 		.word	.LANCHOR0
 174              		.cfi_endproc
 175              	.LFE4:
 176              		.size	tmrIsRunning, .-tmrIsRunning
 177              		.section	.text.tmrFuncAdd,"ax",%progbits
 178              		.align	2
 179              		.global	tmrFuncAdd
 180              		.code	16
 181              		.thumb_func
 182              		.type	tmrFuncAdd, %function
 183              	tmrFuncAdd:
 184              	.LFB5:
  80:timers.c      **** 
  81:timers.c      **** void tmrFuncAdd(tmrFuncType *pTmr)
  82:timers.c      **** {
 185              		.loc 1 82 0
 186              		.cfi_startproc
 187              		@ args = 0, pretend = 0, frame = 0
 188              		@ frame_needed = 0, uses_anonymous_args = 0
 189              		@ link register save eliminated.
 190              	.LVL11:
  83:timers.c      ****     tmrFuncType *p = &headTmr;
  84:timers.c      ****     
  85:timers.c      ****     if (!pTmr->mS || !pTmr->func)
 191              		.loc 1 85 0
 192 0000 4168     		ldr	r1, [r0, #4]
 193 0002 0029     		cmp	r1, #0
 194 0004 0ED0     		beq	.L19
 195              		.loc 1 85 0 is_stmt 0 discriminator 1
 196 0006 8368     		ldr	r3, [r0, #8]
ARM GAS  C:\Users\TERENC~1\AppData\Local\Temp\cc1ICAaG.s 			page 6


 197 0008 002B     		cmp	r3, #0
 198 000a 0BD0     		beq	.L19
 199 000c 064A     		ldr	r2, .L23
 200 000e 04E0     		b	.L21
 201              	.LVL12:
 202              	.L22:
  86:timers.c      ****     {
  87:timers.c      ****         // Invalid arguments
  88:timers.c      ****         return;
  89:timers.c      ****     }
  90:timers.c      ****     
  91:timers.c      ****     // Go to end of list
  92:timers.c      ****     while (p->next)
  93:timers.c      ****     {
  94:timers.c      ****         if (p->next != pTmr)
  95:timers.c      ****         {
  96:timers.c      ****             p = p->next;
 203              		.loc 1 96 0 is_stmt 1
 204 0010 1A00     		movs	r2, r3
 205              	.LVL13:
  94:timers.c      ****         {
 206              		.loc 1 94 0
 207 0012 9842     		cmp	r0, r3
 208 0014 01D1     		bne	.L21
  97:timers.c      ****         }
  98:timers.c      ****         else
  99:timers.c      ****         {
 100:timers.c      ****             // Timer already running - run with new times
 101:timers.c      ****             p->next->mS = pTmr->mS;
 209              		.loc 1 101 0
 210 0016 5960     		str	r1, [r3, #4]
 102:timers.c      ****             return;
 211              		.loc 1 102 0
 212 0018 04E0     		b	.L19
 213              	.L21:
 214              	.LVL14:
  92:timers.c      ****     {
 215              		.loc 1 92 0
 216 001a 1368     		ldr	r3, [r2]
 217 001c 002B     		cmp	r3, #0
 218 001e F7D1     		bne	.L22
 103:timers.c      ****         }
 104:timers.c      ****     }
 105:timers.c      ****     
 106:timers.c      ****     // Add to end of list
 107:timers.c      ****     pTmr->next = NULL;
 219              		.loc 1 107 0
 220 0020 0360     		str	r3, [r0]
 108:timers.c      ****     p->next = pTmr;
 221              		.loc 1 108 0
 222 0022 1060     		str	r0, [r2]
 223              	.LVL15:
 224              	.L19:
 109:timers.c      **** }
 225              		.loc 1 109 0
 226              		@ sp needed
 227 0024 7047     		bx	lr
ARM GAS  C:\Users\TERENC~1\AppData\Local\Temp\cc1ICAaG.s 			page 7


 228              	.L24:
 229 0026 C046     		.align	2
 230              	.L23:
 231 0028 00000000 		.word	.LANCHOR0
 232              		.cfi_endproc
 233              	.LFE5:
 234              		.size	tmrFuncAdd, .-tmrFuncAdd
 235              		.section	.text.tmrFuncDelete,"ax",%progbits
 236              		.align	2
 237              		.global	tmrFuncDelete
 238              		.code	16
 239              		.thumb_func
 240              		.type	tmrFuncDelete, %function
 241              	tmrFuncDelete:
 242              	.LFB6:
 110:timers.c      **** 
 111:timers.c      **** void tmrFuncDelete(tmrFuncType *pTmr)
 112:timers.c      **** {
 243              		.loc 1 112 0
 244              		.cfi_startproc
 245              		@ args = 0, pretend = 0, frame = 0
 246              		@ frame_needed = 0, uses_anonymous_args = 0
 247              		@ link register save eliminated.
 248              	.LVL16:
 113:timers.c      ****     tmrFuncType *p = &headTmr;
 249              		.loc 1 113 0
 250 0000 054A     		ldr	r2, .L30
 114:timers.c      ****     
 115:timers.c      ****     while (p->next)
 251              		.loc 1 115 0
 252 0002 05E0     		b	.L26
 253              	.LVL17:
 254              	.L28:
 116:timers.c      ****     {
 117:timers.c      ****         if (p->next == pTmr)
 255              		.loc 1 117 0
 256 0004 8342     		cmp	r3, r0
 257 0006 02D1     		bne	.L29
 118:timers.c      ****         {
 119:timers.c      ****             p->next = p->next->next;
 258              		.loc 1 119 0
 259 0008 1B68     		ldr	r3, [r3]
 260 000a 1360     		str	r3, [r2]
 120:timers.c      ****             break;
 261              		.loc 1 120 0
 262 000c 03E0     		b	.L25
 263              	.L29:
 121:timers.c      ****         }
 122:timers.c      ****         
 123:timers.c      ****         p = p->next;
 264              		.loc 1 123 0
 265 000e 1A00     		movs	r2, r3
 266              	.LVL18:
 267              	.L26:
 115:timers.c      ****     {
 268              		.loc 1 115 0
 269 0010 1368     		ldr	r3, [r2]
ARM GAS  C:\Users\TERENC~1\AppData\Local\Temp\cc1ICAaG.s 			page 8


 270 0012 002B     		cmp	r3, #0
 271 0014 F6D1     		bne	.L28
 272              	.L25:
 124:timers.c      ****     }
 125:timers.c      **** }
 273              		.loc 1 125 0
 274              		@ sp needed
 275 0016 7047     		bx	lr
 276              	.L31:
 277              		.align	2
 278              	.L30:
 279 0018 00000000 		.word	.LANCHOR0
 280              		.cfi_endproc
 281              	.LFE6:
 282              		.size	tmrFuncDelete, .-tmrFuncDelete
 283              		.comm	tmrCounter_ms,4,4
 284              		.bss
 285              		.align	2
 286              		.set	.LANCHOR0,. + 0
 287              		.type	headTmr, %object
 288              		.size	headTmr, 12
 289              	headTmr:
 290 0000 00000000 		.space	12
 290      00000000 
 290      00000000 
 291              		.text
 292              	.Letext0:
 293              		.file 2 "c:\\program files (x86)\\cypress\\psoc creator\\4.2\\psoc creator\\import\\gnu\\arm\\5.4.
 294              		.file 3 "c:\\program files (x86)\\cypress\\psoc creator\\4.2\\psoc creator\\import\\gnu\\arm\\5.4.
 295              		.file 4 "./timers.h"