ARM GAS  C:\Users\TERENC~1\AppData\Local\Temp\ccVObDgl.s 			page 1


   1              		.syntax unified
   2              		.cpu cortex-m0
   3              		.fpu softvfp
   4              		.eabi_attribute 20, 1
   5              		.eabi_attribute 21, 1
   6              		.eabi_attribute 23, 3
   7              		.eabi_attribute 24, 1
   8              		.eabi_attribute 25, 1
   9              		.eabi_attribute 26, 1
  10              		.eabi_attribute 30, 1
  11              		.eabi_attribute 34, 0
  12              		.eabi_attribute 18, 4
  13              		.thumb
  14              		.syntax unified
  15              		.file	"TkShell.c"
  16              		.text
  17              	.Ltext0:
  18              		.cfi_sections	.debug_frame
  19              		.section	.text.__tk_shell_sys_crash,"ax",%progbits
  20              		.align	2
  21              		.global	__tk_shell_sys_crash
  22              		.code	16
  23              		.thumb_func
  24              		.type	__tk_shell_sys_crash, %function
  25              	__tk_shell_sys_crash:
  26              	.LFB14:
  27              		.file 1 "TkShell.c"
   1:TkShell.c     **** /* ========================================
   2:TkShell.c     ****  *
   3:TkShell.c     ****  * Copyright YOUR COMPANY, THE YEAR
   4:TkShell.c     ****  * All Rights Reserved
   5:TkShell.c     ****  * UNPUBLISHED, LICENSED SOFTWARE.
   6:TkShell.c     ****  *
   7:TkShell.c     ****  * CONFIDENTIAL AND PROPRIETARY INFORMATION
   8:TkShell.c     ****  * WHICH IS THE PROPERTY OF your company.
   9:TkShell.c     ****  *
  10:TkShell.c     ****  * ========================================
  11:TkShell.c     **** */
  12:TkShell.c     **** #include <string.h>
  13:TkShell.c     **** #include <Application.h>
  14:TkShell.c     **** #include <ctype.h>
  15:TkShell.c     **** #include "TkShell.h"
  16:TkShell.c     **** #include <Codec.h>
  17:TkShell.c     **** #include <VolumeControl.h>
  18:TkShell.c     **** #include <Calibration.h>
  19:TkShell.c     **** #include <LED.h>
  20:TkShell.c     **** #include <USBUART_cdc.h>
  21:TkShell.c     **** #include <timers.h>
  22:TkShell.c     **** #include <LedManager.h>
  23:TkShell.c     **** #include <AudioManager.h>
  24:TkShell.c     **** #include <cc85xx.h>
  25:TkShell.c     **** 
  26:TkShell.c     **** #define USBUART_BUFFER_SIZE (64u)
  27:TkShell.c     **** 
  28:TkShell.c     **** #define TK_SHELL_METHOD(c, verb)              int __tk_shell_ ## c ## _ ## verb(int __unused argc, 
  29:TkShell.c     **** #define TK_SHELL_COMMAND(name, desc)          {#name, (tk_shell_command_verb_s *)__tk_shell_verbs_ 
  30:TkShell.c     **** #define TK_SHELL_VERBS(name)                  const tk_shell_command_verb_s __tk_shell_verbs_ ## na
ARM GAS  C:\Users\TERENC~1\AppData\Local\Temp\ccVObDgl.s 			page 2


  31:TkShell.c     **** #define TK_SHELL_VERB(c, name, desc)          {#name, __tk_shell_ ## c ## _ ## name, desc}
  32:TkShell.c     **** 
  33:TkShell.c     **** #define CMD_BUF_LEN 64
  34:TkShell.c     **** #define TK_SHELL_MAX_ARGS 10
  35:TkShell.c     **** 
  36:TkShell.c     **** typedef struct
  37:TkShell.c     **** {
  38:TkShell.c     ****   const char *name;
  39:TkShell.c     ****   int        (*func)(int argc, char **argv);
  40:TkShell.c     ****   const char *desc;
  41:TkShell.c     **** } tk_shell_command_verb_s;
  42:TkShell.c     **** 
  43:TkShell.c     **** typedef struct
  44:TkShell.c     **** {
  45:TkShell.c     ****   const char *name;
  46:TkShell.c     ****   tk_shell_command_verb_s *verbs;
  47:TkShell.c     ****   const char *desc;
  48:TkShell.c     **** } tk_shell_command_s;
  49:TkShell.c     **** 
  50:TkShell.c     **** 
  51:TkShell.c     **** static const uint32_t reg_lookup[] = 
  52:TkShell.c     **** {
  53:TkShell.c     ****     CYREG_PRT0_DR,  // 0
  54:TkShell.c     ****     CYREG_PRT1_DR,  // 1
  55:TkShell.c     ****     CYREG_PRT2_DR,  // 2
  56:TkShell.c     ****     CYREG_PRT3_DR,  // 3
  57:TkShell.c     ****     CYREG_PRT4_DR,  // 4
  58:TkShell.c     ****     CYREG_PRT5_DR,  // 5
  59:TkShell.c     ****     CYREG_PRT6_DR,  // 6
  60:TkShell.c     ****     CYREG_PRT7_DR,  // 7
  61:TkShell.c     ****     CYREG_PRT8_DR,  // 8
  62:TkShell.c     ****     CYREG_PRT9_DR,  // 9
  63:TkShell.c     ****     CYREG_PRT10_DR, // 10
  64:TkShell.c     ****     CYREG_PRT11_DR, // 11
  65:TkShell.c     ****     CYREG_PRT12_DR, // 12
  66:TkShell.c     ****     CYREG_PRT13_DR, // 13
  67:TkShell.c     **** };
  68:TkShell.c     **** TK_SHELL_METHOD(gpio, set);
  69:TkShell.c     **** TK_SHELL_METHOD(gpio, config);
  70:TkShell.c     **** TK_SHELL_METHOD(gpio, get);
  71:TkShell.c     **** static TK_SHELL_VERBS(gpio) =
  72:TkShell.c     **** {
  73:TkShell.c     ****     TK_SHELL_VERB(gpio, set, "set GPIO state"),
  74:TkShell.c     ****     TK_SHELL_VERB(gpio, config, "configure GPIO"),
  75:TkShell.c     ****     TK_SHELL_VERB(gpio, get, "get GPIO state"),
  76:TkShell.c     ****     { "", NULL, "" }
  77:TkShell.c     **** };
  78:TkShell.c     **** 
  79:TkShell.c     **** TK_SHELL_METHOD(wm, vol_set);
  80:TkShell.c     **** TK_SHELL_METHOD(wm, vol_get);
  81:TkShell.c     **** TK_SHELL_METHOD(wm, reg_wr);
  82:TkShell.c     **** TK_SHELL_METHOD(wm, reg_rd);
  83:TkShell.c     **** static TK_SHELL_VERBS(wm) =
  84:TkShell.c     **** {
  85:TkShell.c     ****     TK_SHELL_VERB(wm, vol_set, "set volume level <vol:uint8>"),
  86:TkShell.c     ****     TK_SHELL_VERB(wm, vol_get, "get volume level"),
  87:TkShell.c     ****     TK_SHELL_VERB(wm, reg_wr, "write register <reg:uint8,data:uint16>)"),
ARM GAS  C:\Users\TERENC~1\AppData\Local\Temp\ccVObDgl.s 			page 3


  88:TkShell.c     ****     TK_SHELL_VERB(wm, reg_rd, "read register <reg:uint8>"),
  89:TkShell.c     ****     { "", NULL, "" }
  90:TkShell.c     **** };
  91:TkShell.c     **** 
  92:TkShell.c     **** TK_SHELL_METHOD(rf, init);
  93:TkShell.c     **** TK_SHELL_METHOD(rf, bl_unlock);
  94:TkShell.c     **** TK_SHELL_METHOD(rf, status);
  95:TkShell.c     **** TK_SHELL_METHOD(rf, info);
  96:TkShell.c     **** static TK_SHELL_VERBS(rf) =
  97:TkShell.c     **** {
  98:TkShell.c     ****   TK_SHELL_VERB(rf, init, "initialize RF chip"),
  99:TkShell.c     ****   TK_SHELL_VERB(rf, bl_unlock, "unlock bootloader SPI"),
 100:TkShell.c     ****   TK_SHELL_VERB(rf, status, "get status"),
 101:TkShell.c     ****   TK_SHELL_VERB(rf, info, "print dev_chip_info"),
 102:TkShell.c     ****   { "", NULL, "" }
 103:TkShell.c     **** };
 104:TkShell.c     **** 
 105:TkShell.c     **** TK_SHELL_METHOD(sys, crash);
 106:TkShell.c     **** TK_SHELL_METHOD(sys, info);
 107:TkShell.c     **** TK_SHELL_METHOD(sys, reset);
 108:TkShell.c     **** TK_SHELL_METHOD(sys, adc);
 109:TkShell.c     **** static TK_SHELL_VERBS(sys) = 
 110:TkShell.c     **** {
 111:TkShell.c     ****     TK_SHELL_VERB(sys, crash, "trigger a hard fault"),
 112:TkShell.c     ****     TK_SHELL_VERB(sys, info, "print info"),
 113:TkShell.c     ****     TK_SHELL_VERB(sys, reset, "trigger a SW reset"),
 114:TkShell.c     ****     TK_SHELL_VERB(sys, adc, "print ADC values"),
 115:TkShell.c     ****     { "", NULL, "" }
 116:TkShell.c     **** };
 117:TkShell.c     **** 
 118:TkShell.c     **** TK_SHELL_METHOD(led, pwm_period);
 119:TkShell.c     **** TK_SHELL_METHOD(led, start);
 120:TkShell.c     **** TK_SHELL_METHOD(led, stop);
 121:TkShell.c     **** static TK_SHELL_VERBS(led) =
 122:TkShell.c     **** {
 123:TkShell.c     ****     TK_SHELL_VERB(led, start, "start LED animation <led:red|green|blue> <period:uint32> <compare:ui
 124:TkShell.c     ****     TK_SHELL_VERB(led, stop, "stop LED animation <led:red|green|blue>"),
 125:TkShell.c     ****     { "", NULL, "" }
 126:TkShell.c     **** };
 127:TkShell.c     **** 
 128:TkShell.c     **** TK_SHELL_METHOD(cal, print);
 129:TkShell.c     **** TK_SHELL_METHOD(cal, set);
 130:TkShell.c     **** TK_SHELL_METHOD(cal, save);
 131:TkShell.c     **** static TK_SHELL_VERBS(cal) =
 132:TkShell.c     **** {
 133:TkShell.c     ****     TK_SHELL_VERB(cal, print, "print cal data"),
 134:TkShell.c     ****     TK_SHELL_VERB(cal, set, "set cal data"),
 135:TkShell.c     ****     TK_SHELL_VERB(cal, save, "commit cal data to flash"),
 136:TkShell.c     ****     { "", NULL, "" }
 137:TkShell.c     **** };
 138:TkShell.c     **** 
 139:TkShell.c     **** TK_SHELL_METHOD(audio, play_tone);
 140:TkShell.c     **** TK_SHELL_METHOD(audio, stop_tone);
 141:TkShell.c     **** static TK_SHELL_VERBS(audio) =
 142:TkShell.c     **** {
 143:TkShell.c     ****   TK_SHELL_VERB(audio, play_tone, "play tone"),
 144:TkShell.c     ****   TK_SHELL_VERB(audio, stop_tone, "stop tone"),
ARM GAS  C:\Users\TERENC~1\AppData\Local\Temp\ccVObDgl.s 			page 4


 145:TkShell.c     ****   { "", NULL, "" }
 146:TkShell.c     **** };
 147:TkShell.c     **** 
 148:TkShell.c     **** static const tk_shell_command_s commands[] = 
 149:TkShell.c     **** {
 150:TkShell.c     ****     TK_SHELL_COMMAND(gpio, "GPIO commands"),
 151:TkShell.c     ****     TK_SHELL_COMMAND(wm, "Wolfson Codec commands"),
 152:TkShell.c     ****     TK_SHELL_COMMAND(rf, "RF chip commands"),
 153:TkShell.c     ****     TK_SHELL_COMMAND(sys, "System commands"),
 154:TkShell.c     ****     TK_SHELL_COMMAND(led, "LED commands"),
 155:TkShell.c     ****     TK_SHELL_COMMAND(cal, "Calibration data commands"),
 156:TkShell.c     ****     TK_SHELL_COMMAND(audio, "Audio commands"),
 157:TkShell.c     ****     { "", NULL, "" }
 158:TkShell.c     **** };
 159:TkShell.c     **** 
 160:TkShell.c     **** static char cmd_buf[CMD_BUF_LEN];
 161:TkShell.c     **** static uint8_t cmd_char_count;
 162:TkShell.c     **** 
 163:TkShell.c     **** ////////////////////////////////////////////////////////////////////////////////
 164:TkShell.c     **** int strcicmp(char const *a, char const *b)
 165:TkShell.c     **** {
 166:TkShell.c     ****     for (;; a++, b++)
 167:TkShell.c     ****     {
 168:TkShell.c     ****         int d = tolower(*a) - tolower(*b);
 169:TkShell.c     ****         if (d != 0 || !*a)
 170:TkShell.c     ****             return d;
 171:TkShell.c     ****     }
 172:TkShell.c     **** }
 173:TkShell.c     **** 
 174:TkShell.c     **** TK_SHELL_METHOD(gpio, set)
 175:TkShell.c     **** {
 176:TkShell.c     ****     uint32_t port, pin, state;
 177:TkShell.c     ****     int i = 2;
 178:TkShell.c     ****     
 179:TkShell.c     ****     argc -= i;
 180:TkShell.c     **** 
 181:TkShell.c     ****     if (argc != 3)
 182:TkShell.c     ****     {
 183:TkShell.c     ****         PRINTF("Invalid number of arguments!\n");
 184:TkShell.c     ****         return -1;
 185:TkShell.c     ****     }
 186:TkShell.c     ****     
 187:TkShell.c     ****     port = atoi(argv[i++]);
 188:TkShell.c     ****     pin = atoi(argv[i++]);
 189:TkShell.c     ****     state = atoi(argv[i]);
 190:TkShell.c     ****     
 191:TkShell.c     ****     CY_SYS_PINS_SET_DRIVE_MODE(reg_lookup[port], pin, CY_SYS_PINS_DM_STRONG);
 192:TkShell.c     **** 
 193:TkShell.c     ****     if (state)
 194:TkShell.c     ****     {
 195:TkShell.c     ****         CY_SYS_PINS_SET_PIN(reg_lookup[port], pin);
 196:TkShell.c     ****     }
 197:TkShell.c     ****     else
 198:TkShell.c     ****     {
 199:TkShell.c     ****         CY_SYS_PINS_CLEAR_PIN(reg_lookup[port], pin);
 200:TkShell.c     ****     }
 201:TkShell.c     ****     
ARM GAS  C:\Users\TERENC~1\AppData\Local\Temp\ccVObDgl.s 			page 5


 202:TkShell.c     ****     PRINTF("> gpio:ok %d\n", (int)CY_SYS_PINS_READ_PIN(reg_lookup[port], pin));
 203:TkShell.c     ****     return 0;
 204:TkShell.c     **** }
 205:TkShell.c     **** 
 206:TkShell.c     **** TK_SHELL_METHOD(gpio, config)
 207:TkShell.c     **** {
 208:TkShell.c     ****     uint32_t port, pin, mode;
 209:TkShell.c     ****     int i = 2;
 210:TkShell.c     ****     
 211:TkShell.c     ****     argc -= i;
 212:TkShell.c     **** 
 213:TkShell.c     ****     if (argc != 3)
 214:TkShell.c     ****     {
 215:TkShell.c     ****         PRINTF("Invalid number of arguments!\n");
 216:TkShell.c     ****         return -1;
 217:TkShell.c     ****     }
 218:TkShell.c     ****     
 219:TkShell.c     ****     port = atoi(argv[i++]);
 220:TkShell.c     ****     pin = atoi(argv[i++]);
 221:TkShell.c     ****     mode = atoi(argv[i]);
 222:TkShell.c     ****     
 223:TkShell.c     ****     CY_SYS_PINS_SET_DRIVE_MODE(reg_lookup[port], pin, mode);
 224:TkShell.c     ****     
 225:TkShell.c     ****     return 0;
 226:TkShell.c     **** }
 227:TkShell.c     **** 
 228:TkShell.c     **** TK_SHELL_METHOD(gpio, get)
 229:TkShell.c     **** {
 230:TkShell.c     ****     uint32_t port, pin;
 231:TkShell.c     ****     int i = 2;
 232:TkShell.c     ****     
 233:TkShell.c     ****     argc -= i;
 234:TkShell.c     **** 
 235:TkShell.c     ****     if (argc != 2)
 236:TkShell.c     ****     {
 237:TkShell.c     ****         PRINTF("Invalid number of arguments!\n");
 238:TkShell.c     ****         return -1;
 239:TkShell.c     ****     }
 240:TkShell.c     ****     
 241:TkShell.c     ****     port = atoi(argv[i++]);
 242:TkShell.c     ****     pin = atoi(argv[i]);
 243:TkShell.c     ****     
 244:TkShell.c     ****     PRINTF("> gpio:ok %d\n", (int)CY_SYS_PINS_READ_PIN(reg_lookup[port], pin));
 245:TkShell.c     ****     
 246:TkShell.c     ****     return 0;
 247:TkShell.c     **** }
 248:TkShell.c     **** 
 249:TkShell.c     **** TK_SHELL_METHOD(wm, vol_set)
 250:TkShell.c     **** {
 251:TkShell.c     ****     int vol;
 252:TkShell.c     ****     int i = 2;
 253:TkShell.c     ****     uint8_t rv;
 254:TkShell.c     ****     
 255:TkShell.c     ****     argc -= i;
 256:TkShell.c     ****     
 257:TkShell.c     ****     if (argc != 1)
 258:TkShell.c     ****     {
ARM GAS  C:\Users\TERENC~1\AppData\Local\Temp\ccVObDgl.s 			page 6


 259:TkShell.c     ****         PRINTF("Invalid number of arguments!\n");
 260:TkShell.c     ****         return -1;
 261:TkShell.c     ****     }
 262:TkShell.c     **** 
 263:TkShell.c     ****     vol = atoi(argv[i++]);
 264:TkShell.c     **** 
 265:TkShell.c     ****     if ((rv = Codec_AdjustBothHeadphoneVolume(vol)) == 0)
 266:TkShell.c     ****     {
 267:TkShell.c     ****         PRINTF("> wm:ok\n");
 268:TkShell.c     ****     }
 269:TkShell.c     ****     else
 270:TkShell.c     ****     {
 271:TkShell.c     ****         PRINTF("> wm:er %d\n", rv);
 272:TkShell.c     ****         return -2;
 273:TkShell.c     ****     }
 274:TkShell.c     **** 
 275:TkShell.c     ****     return 0;
 276:TkShell.c     **** }
 277:TkShell.c     **** 
 278:TkShell.c     **** TK_SHELL_METHOD(wm, vol_get)
 279:TkShell.c     **** {
 280:TkShell.c     ****     PRINTF("> wm:ok %d\n", (int)Codec_GetHeadphoneVolume());
 281:TkShell.c     **** 
 282:TkShell.c     ****     return 0;
 283:TkShell.c     **** }
 284:TkShell.c     **** 
 285:TkShell.c     **** TK_SHELL_METHOD(wm, reg_wr)
 286:TkShell.c     **** {
 287:TkShell.c     ****     int i = 2;
 288:TkShell.c     ****     uint8_t reg;
 289:TkShell.c     ****     uint16_t data;
 290:TkShell.c     ****     int rv;
 291:TkShell.c     ****     
 292:TkShell.c     ****     argc -= i;
 293:TkShell.c     ****     
 294:TkShell.c     ****     if (argc != 2)
 295:TkShell.c     ****     {
 296:TkShell.c     ****         PRINTF("Invalid number of arguments!\n");
 297:TkShell.c     ****         return -1;
 298:TkShell.c     ****     }
 299:TkShell.c     ****     
 300:TkShell.c     ****     reg = atoi(argv[i++]);
 301:TkShell.c     ****     data = strtoul(argv[i++], NULL, 16);
 302:TkShell.c     ****     
 303:TkShell.c     ****     if ((rv = Codec_SendData(reg, data)) == 0)
 304:TkShell.c     ****     {
 305:TkShell.c     ****         PRINTF("> wm:ok\n");
 306:TkShell.c     ****     }
 307:TkShell.c     ****     else
 308:TkShell.c     ****     {
 309:TkShell.c     ****         PRINTF("> wm:er %d\n", rv);
 310:TkShell.c     ****         return -2;
 311:TkShell.c     ****     }
 312:TkShell.c     ****     
 313:TkShell.c     ****     return 0;
 314:TkShell.c     **** }
 315:TkShell.c     **** 
ARM GAS  C:\Users\TERENC~1\AppData\Local\Temp\ccVObDgl.s 			page 7


 316:TkShell.c     **** TK_SHELL_METHOD(wm, reg_rd)
 317:TkShell.c     **** {
 318:TkShell.c     ****     int i = 2;
 319:TkShell.c     ****     uint8_t reg;
 320:TkShell.c     ****     
 321:TkShell.c     ****     argc -= i;
 322:TkShell.c     ****     
 323:TkShell.c     ****     if (argc != 1)
 324:TkShell.c     ****     {
 325:TkShell.c     ****         PRINTF("Invalid number of arguments!\n");
 326:TkShell.c     ****         return -1;
 327:TkShell.c     ****     }
 328:TkShell.c     ****     
 329:TkShell.c     ****     reg = atoi(argv[i++]);
 330:TkShell.c     ****     
 331:TkShell.c     ****     PRINTF("> wm:ok 0x%04X\n", Codec_GetData(reg));
 332:TkShell.c     ****     
 333:TkShell.c     ****     return 0;
 334:TkShell.c     **** }
 335:TkShell.c     **** 
 336:TkShell.c     **** TK_SHELL_METHOD(rf, init)
 337:TkShell.c     **** {
 338:TkShell.c     ****   cc85xx_init();
 339:TkShell.c     ****   PRINTF("> rf:ok\n");
 340:TkShell.c     ****   return 0;
 341:TkShell.c     **** }
 342:TkShell.c     **** 
 343:TkShell.c     **** TK_SHELL_METHOD(rf, bl_unlock)
 344:TkShell.c     **** {
 345:TkShell.c     ****   cc85xx_bl_unlock_spi();
 346:TkShell.c     ****   PRINTF("> rf:ok\n");
 347:TkShell.c     ****   return 0;
 348:TkShell.c     **** }
 349:TkShell.c     **** 
 350:TkShell.c     **** TK_SHELL_METHOD(rf, status)
 351:TkShell.c     **** {
 352:TkShell.c     ****   PRINTF("> rf:ok 0x%04X\n", cc85xx_get_status());
 353:TkShell.c     ****   return 0;
 354:TkShell.c     **** }
 355:TkShell.c     **** 
 356:TkShell.c     **** TK_SHELL_METHOD(rf, info)
 357:TkShell.c     **** {
 358:TkShell.c     ****   cc85xx_print_info();
 359:TkShell.c     ****   PRINTF("> rf:ok\n");
 360:TkShell.c     ****   return 0;
 361:TkShell.c     **** }
 362:TkShell.c     **** 
 363:TkShell.c     **** TK_SHELL_METHOD(sys, crash)
 364:TkShell.c     **** {
  28              		.loc 1 364 0
  29              		.cfi_startproc
  30              		@ args = 0, pretend = 0, frame = 0
  31              		@ frame_needed = 0, uses_anonymous_args = 0
  32              	.LVL0:
  33 0000 10B5     		push	{r4, lr}
  34              		.cfi_def_cfa_offset 8
  35              		.cfi_offset 4, -8
ARM GAS  C:\Users\TERENC~1\AppData\Local\Temp\ccVObDgl.s 			page 8


  36              		.cfi_offset 14, -4
  37              	.LVL1:
 365:TkShell.c     ****     void (*fp)(void) = NULL;
 366:TkShell.c     ****     
 367:TkShell.c     ****     fp();
  38              		.loc 1 367 0
  39 0002 0023     		movs	r3, #0
  40 0004 9847     		blx	r3
  41              	.LVL2:
 368:TkShell.c     ****     
 369:TkShell.c     ****     PRINTF("> sys:er\n");
  42              		.loc 1 369 0
  43 0006 FFF7FEFF 		bl	USBUART_GetConfiguration
  44              	.LVL3:
  45 000a 0028     		cmp	r0, #0
  46 000c 0CD0     		beq	.L2
  47              	.L3:
  48              		.loc 1 369 0 is_stmt 0 discriminator 1
  49 000e FFF7FEFF 		bl	USBUART_CDCIsReady
  50              	.LVL4:
  51 0012 0028     		cmp	r0, #0
  52 0014 FBD0     		beq	.L3
  53              		.loc 1 369 0 discriminator 2
  54 0016 054C     		ldr	r4, .L4
  55 0018 0A22     		movs	r2, #10
  56 001a 0549     		ldr	r1, .L4+4
  57 001c 2000     		movs	r0, r4
  58 001e FFF7FEFF 		bl	memcpy
  59              	.LVL5:
  60 0022 2000     		movs	r0, r4
  61 0024 FFF7FEFF 		bl	USBUART_PutString
  62              	.LVL6:
  63              	.L2:
 370:TkShell.c     ****     
 371:TkShell.c     ****     return 0;
 372:TkShell.c     **** }
  64              		.loc 1 372 0 is_stmt 1
  65 0028 0020     		movs	r0, #0
  66              		@ sp needed
  67 002a 10BD     		pop	{r4, pc}
  68              	.L5:
  69              		.align	2
  70              	.L4:
  71 002c 00000000 		.word	gbuf
  72 0030 00000000 		.word	.LC1
  73              		.cfi_endproc
  74              	.LFE14:
  75              		.size	__tk_shell_sys_crash, .-__tk_shell_sys_crash
  76              		.section	.text.__tk_shell_gpio_config,"ax",%progbits
  77              		.align	2
  78              		.global	__tk_shell_gpio_config
  79              		.code	16
  80              		.thumb_func
  81              		.type	__tk_shell_gpio_config, %function
  82              	__tk_shell_gpio_config:
  83              	.LFB4:
 207:TkShell.c     ****     uint32_t port, pin, mode;
ARM GAS  C:\Users\TERENC~1\AppData\Local\Temp\ccVObDgl.s 			page 9


  84              		.loc 1 207 0
  85              		.cfi_startproc
  86              		@ args = 0, pretend = 0, frame = 0
  87              		@ frame_needed = 0, uses_anonymous_args = 0
  88              	.LVL7:
  89 0000 70B5     		push	{r4, r5, r6, lr}
  90              		.cfi_def_cfa_offset 16
  91              		.cfi_offset 4, -16
  92              		.cfi_offset 5, -12
  93              		.cfi_offset 6, -8
  94              		.cfi_offset 14, -4
  95 0002 0C00     		movs	r4, r1
  96              	.LVL8:
 213:TkShell.c     ****     {
  97              		.loc 1 213 0
  98 0004 0528     		cmp	r0, #5
  99 0006 13D0     		beq	.L7
 215:TkShell.c     ****         return -1;
 100              		.loc 1 215 0
 101 0008 FFF7FEFF 		bl	USBUART_GetConfiguration
 102              	.LVL9:
 103 000c 0028     		cmp	r0, #0
 104 000e 28D0     		beq	.L10
 105              	.L9:
 215:TkShell.c     ****         return -1;
 106              		.loc 1 215 0 is_stmt 0 discriminator 1
 107 0010 FFF7FEFF 		bl	USBUART_CDCIsReady
 108              	.LVL10:
 109 0014 0028     		cmp	r0, #0
 110 0016 FBD0     		beq	.L9
 215:TkShell.c     ****         return -1;
 111              		.loc 1 215 0 discriminator 2
 112 0018 134C     		ldr	r4, .L11
 113              	.LVL11:
 114 001a 1E22     		movs	r2, #30
 115 001c 1349     		ldr	r1, .L11+4
 116 001e 2000     		movs	r0, r4
 117 0020 FFF7FEFF 		bl	memcpy
 118              	.LVL12:
 119 0024 2000     		movs	r0, r4
 120 0026 FFF7FEFF 		bl	USBUART_PutString
 121              	.LVL13:
 216:TkShell.c     ****     }
 122              		.loc 1 216 0 is_stmt 1 discriminator 2
 123 002a 0120     		movs	r0, #1
 124 002c 4042     		rsbs	r0, r0, #0
 125 002e 1AE0     		b	.L8
 126              	.LVL14:
 127              	.L7:
 219:TkShell.c     ****     pin = atoi(argv[i++]);
 128              		.loc 1 219 0
 129 0030 8868     		ldr	r0, [r1, #8]
 130              	.LVL15:
 131 0032 FFF7FEFF 		bl	atoi
 132              	.LVL16:
 133 0036 0600     		movs	r6, r0
 134              	.LVL17:
ARM GAS  C:\Users\TERENC~1\AppData\Local\Temp\ccVObDgl.s 			page 10


 220:TkShell.c     ****     mode = atoi(argv[i]);
 135              		.loc 1 220 0
 136 0038 E068     		ldr	r0, [r4, #12]
 137              	.LVL18:
 138 003a FFF7FEFF 		bl	atoi
 139              	.LVL19:
 140 003e 0500     		movs	r5, r0
 141              	.LVL20:
 221:TkShell.c     ****     
 142              		.loc 1 221 0
 143 0040 2069     		ldr	r0, [r4, #16]
 144              	.LVL21:
 145 0042 FFF7FEFF 		bl	atoi
 146              	.LVL22:
 223:TkShell.c     ****     
 147              		.loc 1 223 0
 148 0046 B600     		lsls	r6, r6, #2
 149              	.LVL23:
 150 0048 094B     		ldr	r3, .L11+8
 151 004a F158     		ldr	r1, [r6, r3]
 152 004c 0B68     		ldr	r3, [r1]
 153 004e 6A00     		lsls	r2, r5, #1
 154 0050 5519     		adds	r5, r2, r5
 155              	.LVL24:
 156 0052 0722     		movs	r2, #7
 157 0054 AA40     		lsls	r2, r2, r5
 158 0056 9343     		bics	r3, r2
 159 0058 A840     		lsls	r0, r0, r5
 160              	.LVL25:
 161 005a 1843     		orrs	r0, r3
 162 005c 0860     		str	r0, [r1]
 225:TkShell.c     **** }
 163              		.loc 1 225 0
 164 005e 0020     		movs	r0, #0
 165 0060 01E0     		b	.L8
 166              	.LVL26:
 167              	.L10:
 216:TkShell.c     ****     }
 168              		.loc 1 216 0
 169 0062 0120     		movs	r0, #1
 170 0064 4042     		rsbs	r0, r0, #0
 171              	.LVL27:
 172              	.L8:
 226:TkShell.c     **** 
 173              		.loc 1 226 0
 174              		@ sp needed
 175 0066 70BD     		pop	{r4, r5, r6, pc}
 176              	.L12:
 177              		.align	2
 178              	.L11:
 179 0068 00000000 		.word	gbuf
 180 006c 0C000000 		.word	.LC4
 181 0070 00000000 		.word	.LANCHOR0
 182              		.cfi_endproc
 183              	.LFE4:
 184              		.size	__tk_shell_gpio_config, .-__tk_shell_gpio_config
 185              		.section	.text.__tk_shell_gpio_set,"ax",%progbits
ARM GAS  C:\Users\TERENC~1\AppData\Local\Temp\ccVObDgl.s 			page 11


 186              		.align	2
 187              		.global	__tk_shell_gpio_set
 188              		.code	16
 189              		.thumb_func
 190              		.type	__tk_shell_gpio_set, %function
 191              	__tk_shell_gpio_set:
 192              	.LFB3:
 175:TkShell.c     ****     uint32_t port, pin, state;
 193              		.loc 1 175 0
 194              		.cfi_startproc
 195              		@ args = 0, pretend = 0, frame = 0
 196              		@ frame_needed = 0, uses_anonymous_args = 0
 197              	.LVL28:
 198 0000 70B5     		push	{r4, r5, r6, lr}
 199              		.cfi_def_cfa_offset 16
 200              		.cfi_offset 4, -16
 201              		.cfi_offset 5, -12
 202              		.cfi_offset 6, -8
 203              		.cfi_offset 14, -4
 204 0002 0C00     		movs	r4, r1
 205              	.LVL29:
 181:TkShell.c     ****     {
 206              		.loc 1 181 0
 207 0004 0528     		cmp	r0, #5
 208 0006 13D0     		beq	.L14
 183:TkShell.c     ****         return -1;
 209              		.loc 1 183 0
 210 0008 FFF7FEFF 		bl	USBUART_GetConfiguration
 211              	.LVL30:
 212 000c 0028     		cmp	r0, #0
 213 000e 4BD0     		beq	.L20
 214              	.L16:
 183:TkShell.c     ****         return -1;
 215              		.loc 1 183 0 is_stmt 0 discriminator 1
 216 0010 FFF7FEFF 		bl	USBUART_CDCIsReady
 217              	.LVL31:
 218 0014 0028     		cmp	r0, #0
 219 0016 FBD0     		beq	.L16
 183:TkShell.c     ****         return -1;
 220              		.loc 1 183 0 discriminator 2
 221 0018 264C     		ldr	r4, .L22
 222              	.LVL32:
 223 001a 1E22     		movs	r2, #30
 224 001c 2649     		ldr	r1, .L22+4
 225 001e 2000     		movs	r0, r4
 226 0020 FFF7FEFF 		bl	memcpy
 227              	.LVL33:
 228 0024 2000     		movs	r0, r4
 229 0026 FFF7FEFF 		bl	USBUART_PutString
 230              	.LVL34:
 184:TkShell.c     ****     }
 231              		.loc 1 184 0 is_stmt 1 discriminator 2
 232 002a 0120     		movs	r0, #1
 233 002c 4042     		rsbs	r0, r0, #0
 234 002e 3FE0     		b	.L15
 235              	.LVL35:
 236              	.L14:
ARM GAS  C:\Users\TERENC~1\AppData\Local\Temp\ccVObDgl.s 			page 12


 187:TkShell.c     ****     pin = atoi(argv[i++]);
 237              		.loc 1 187 0
 238 0030 8868     		ldr	r0, [r1, #8]
 239              	.LVL36:
 240 0032 FFF7FEFF 		bl	atoi
 241              	.LVL37:
 242 0036 0600     		movs	r6, r0
 243              	.LVL38:
 188:TkShell.c     ****     state = atoi(argv[i]);
 244              		.loc 1 188 0
 245 0038 E068     		ldr	r0, [r4, #12]
 246              	.LVL39:
 247 003a FFF7FEFF 		bl	atoi
 248              	.LVL40:
 249 003e 0500     		movs	r5, r0
 250              	.LVL41:
 189:TkShell.c     ****     
 251              		.loc 1 189 0
 252 0040 2069     		ldr	r0, [r4, #16]
 253              	.LVL42:
 254 0042 FFF7FEFF 		bl	atoi
 255              	.LVL43:
 191:TkShell.c     **** 
 256              		.loc 1 191 0
 257 0046 B600     		lsls	r6, r6, #2
 258              	.LVL44:
 259 0048 1C4B     		ldr	r3, .L22+8
 260 004a F458     		ldr	r4, [r6, r3]
 261              	.LVL45:
 262 004c 2368     		ldr	r3, [r4]
 263 004e 6A00     		lsls	r2, r5, #1
 264 0050 5219     		adds	r2, r2, r5
 265 0052 0721     		movs	r1, #7
 266 0054 9140     		lsls	r1, r1, r2
 267 0056 8B43     		bics	r3, r1
 268 0058 1900     		movs	r1, r3
 269 005a 0623     		movs	r3, #6
 270 005c 9340     		lsls	r3, r3, r2
 271 005e 0B43     		orrs	r3, r1
 272 0060 2360     		str	r3, [r4]
 193:TkShell.c     ****     {
 273              		.loc 1 193 0
 274 0062 0028     		cmp	r0, #0
 275 0064 05D0     		beq	.L17
 195:TkShell.c     ****     }
 276              		.loc 1 195 0
 277 0066 2268     		ldr	r2, [r4]
 278 0068 0123     		movs	r3, #1
 279 006a AB40     		lsls	r3, r3, r5
 280 006c 1343     		orrs	r3, r2
 281 006e 2360     		str	r3, [r4]
 282 0070 04E0     		b	.L18
 283              	.L17:
 199:TkShell.c     ****     }
 284              		.loc 1 199 0
 285 0072 2368     		ldr	r3, [r4]
 286 0074 0122     		movs	r2, #1
ARM GAS  C:\Users\TERENC~1\AppData\Local\Temp\ccVObDgl.s 			page 13


 287 0076 AA40     		lsls	r2, r2, r5
 288 0078 9343     		bics	r3, r2
 289 007a 2360     		str	r3, [r4]
 290              	.L18:
 202:TkShell.c     ****     return 0;
 291              		.loc 1 202 0
 292 007c FFF7FEFF 		bl	USBUART_GetConfiguration
 293              	.LVL46:
 294 0080 0028     		cmp	r0, #0
 295 0082 14D0     		beq	.L21
 296              	.L19:
 202:TkShell.c     ****     return 0;
 297              		.loc 1 202 0 is_stmt 0 discriminator 1
 298 0084 FFF7FEFF 		bl	USBUART_CDCIsReady
 299              	.LVL47:
 300 0088 0028     		cmp	r0, #0
 301 008a FBD0     		beq	.L19
 202:TkShell.c     ****     return 0;
 302              		.loc 1 202 0 discriminator 2
 303 008c 2268     		ldr	r2, [r4]
 304 008e EA40     		lsrs	r2, r2, r5
 305 0090 0123     		movs	r3, #1
 306 0092 1A40     		ands	r2, r3
 307 0094 074C     		ldr	r4, .L22
 308 0096 0A49     		ldr	r1, .L22+12
 309 0098 2000     		movs	r0, r4
 310 009a FFF7FEFF 		bl	sprintf
 311              	.LVL48:
 312 009e 2000     		movs	r0, r4
 313 00a0 FFF7FEFF 		bl	USBUART_PutString
 314              	.LVL49:
 203:TkShell.c     **** }
 315              		.loc 1 203 0 is_stmt 1 discriminator 2
 316 00a4 0020     		movs	r0, #0
 317 00a6 03E0     		b	.L15
 318              	.LVL50:
 319              	.L20:
 184:TkShell.c     ****     }
 320              		.loc 1 184 0
 321 00a8 0120     		movs	r0, #1
 322 00aa 4042     		rsbs	r0, r0, #0
 323 00ac 00E0     		b	.L15
 324              	.LVL51:
 325              	.L21:
 203:TkShell.c     **** }
 326              		.loc 1 203 0
 327 00ae 0020     		movs	r0, #0
 328              	.LVL52:
 329              	.L15:
 204:TkShell.c     **** 
 330              		.loc 1 204 0
 331              		@ sp needed
 332 00b0 70BD     		pop	{r4, r5, r6, pc}
 333              	.L23:
 334 00b2 C046     		.align	2
 335              	.L22:
 336 00b4 00000000 		.word	gbuf
ARM GAS  C:\Users\TERENC~1\AppData\Local\Temp\ccVObDgl.s 			page 14


 337 00b8 0C000000 		.word	.LC4
 338 00bc 00000000 		.word	.LANCHOR0
 339 00c0 2C000000 		.word	.LC10
 340              		.cfi_endproc
 341              	.LFE3:
 342              		.size	__tk_shell_gpio_set, .-__tk_shell_gpio_set
 343              		.section	.text.__tk_shell_gpio_get,"ax",%progbits
 344              		.align	2
 345              		.global	__tk_shell_gpio_get
 346              		.code	16
 347              		.thumb_func
 348              		.type	__tk_shell_gpio_get, %function
 349              	__tk_shell_gpio_get:
 350              	.LFB5:
 229:TkShell.c     ****     uint32_t port, pin;
 351              		.loc 1 229 0
 352              		.cfi_startproc
 353              		@ args = 0, pretend = 0, frame = 0
 354              		@ frame_needed = 0, uses_anonymous_args = 0
 355              	.LVL53:
 356 0000 70B5     		push	{r4, r5, r6, lr}
 357              		.cfi_def_cfa_offset 16
 358              		.cfi_offset 4, -16
 359              		.cfi_offset 5, -12
 360              		.cfi_offset 6, -8
 361              		.cfi_offset 14, -4
 362 0002 0C00     		movs	r4, r1
 363              	.LVL54:
 235:TkShell.c     ****     {
 364              		.loc 1 235 0
 365 0004 0428     		cmp	r0, #4
 366 0006 13D0     		beq	.L25
 237:TkShell.c     ****         return -1;
 367              		.loc 1 237 0
 368 0008 FFF7FEFF 		bl	USBUART_GetConfiguration
 369              	.LVL55:
 370 000c 0028     		cmp	r0, #0
 371 000e 30D0     		beq	.L29
 372              	.L27:
 237:TkShell.c     ****         return -1;
 373              		.loc 1 237 0 is_stmt 0 discriminator 1
 374 0010 FFF7FEFF 		bl	USBUART_CDCIsReady
 375              	.LVL56:
 376 0014 0028     		cmp	r0, #0
 377 0016 FBD0     		beq	.L27
 237:TkShell.c     ****         return -1;
 378              		.loc 1 237 0 discriminator 2
 379 0018 184C     		ldr	r4, .L31
 380              	.LVL57:
 381 001a 1E22     		movs	r2, #30
 382 001c 1849     		ldr	r1, .L31+4
 383 001e 2000     		movs	r0, r4
 384 0020 FFF7FEFF 		bl	memcpy
 385              	.LVL58:
 386 0024 2000     		movs	r0, r4
 387 0026 FFF7FEFF 		bl	USBUART_PutString
 388              	.LVL59:
ARM GAS  C:\Users\TERENC~1\AppData\Local\Temp\ccVObDgl.s 			page 15


 238:TkShell.c     ****     }
 389              		.loc 1 238 0 is_stmt 1 discriminator 2
 390 002a 0120     		movs	r0, #1
 391 002c 4042     		rsbs	r0, r0, #0
 392 002e 24E0     		b	.L26
 393              	.LVL60:
 394              	.L25:
 241:TkShell.c     ****     pin = atoi(argv[i]);
 395              		.loc 1 241 0
 396 0030 8868     		ldr	r0, [r1, #8]
 397              	.LVL61:
 398 0032 FFF7FEFF 		bl	atoi
 399              	.LVL62:
 400 0036 0500     		movs	r5, r0
 401              	.LVL63:
 242:TkShell.c     ****     
 402              		.loc 1 242 0
 403 0038 E068     		ldr	r0, [r4, #12]
 404              	.LVL64:
 405 003a FFF7FEFF 		bl	atoi
 406              	.LVL65:
 407 003e 0400     		movs	r4, r0
 408              	.LVL66:
 244:TkShell.c     ****     
 409              		.loc 1 244 0
 410 0040 FFF7FEFF 		bl	USBUART_GetConfiguration
 411              	.LVL67:
 412 0044 0028     		cmp	r0, #0
 413 0046 17D0     		beq	.L30
 414              	.L28:
 244:TkShell.c     ****     
 415              		.loc 1 244 0 is_stmt 0 discriminator 1
 416 0048 FFF7FEFF 		bl	USBUART_CDCIsReady
 417              	.LVL68:
 418 004c 0028     		cmp	r0, #0
 419 004e FBD0     		beq	.L28
 244:TkShell.c     ****     
 420              		.loc 1 244 0 discriminator 2
 421 0050 AD00     		lsls	r5, r5, #2
 422              	.LVL69:
 423 0052 0C4B     		ldr	r3, .L31+8
 424 0054 EB58     		ldr	r3, [r5, r3]
 425 0056 1A68     		ldr	r2, [r3]
 426 0058 E240     		lsrs	r2, r2, r4
 427 005a 0123     		movs	r3, #1
 428 005c 1A40     		ands	r2, r3
 429 005e 074C     		ldr	r4, .L31
 430              	.LVL70:
 431 0060 0949     		ldr	r1, .L31+12
 432 0062 2000     		movs	r0, r4
 433 0064 FFF7FEFF 		bl	sprintf
 434              	.LVL71:
 435 0068 2000     		movs	r0, r4
 436 006a FFF7FEFF 		bl	USBUART_PutString
 437              	.LVL72:
 246:TkShell.c     **** }
 438              		.loc 1 246 0 is_stmt 1 discriminator 2
ARM GAS  C:\Users\TERENC~1\AppData\Local\Temp\ccVObDgl.s 			page 16


 439 006e 0020     		movs	r0, #0
 440 0070 03E0     		b	.L26
 441              	.LVL73:
 442              	.L29:
 238:TkShell.c     ****     }
 443              		.loc 1 238 0
 444 0072 0120     		movs	r0, #1
 445 0074 4042     		rsbs	r0, r0, #0
 446 0076 00E0     		b	.L26
 447              	.LVL74:
 448              	.L30:
 246:TkShell.c     **** }
 449              		.loc 1 246 0
 450 0078 0020     		movs	r0, #0
 451              	.LVL75:
 452              	.L26:
 247:TkShell.c     **** 
 453              		.loc 1 247 0
 454              		@ sp needed
 455 007a 70BD     		pop	{r4, r5, r6, pc}
 456              	.L32:
 457              		.align	2
 458              	.L31:
 459 007c 00000000 		.word	gbuf
 460 0080 0C000000 		.word	.LC4
 461 0084 00000000 		.word	.LANCHOR0
 462 0088 2C000000 		.word	.LC10
 463              		.cfi_endproc
 464              	.LFE5:
 465              		.size	__tk_shell_gpio_get, .-__tk_shell_gpio_get
 466              		.section	.text.__tk_shell_sys_info,"ax",%progbits
 467              		.align	2
 468              		.global	__tk_shell_sys_info
 469              		.code	16
 470              		.thumb_func
 471              		.type	__tk_shell_sys_info, %function
 472              	__tk_shell_sys_info:
 473              	.LFB15:
 373:TkShell.c     **** 
 374:TkShell.c     **** TK_SHELL_METHOD(sys, info)
 375:TkShell.c     **** {
 474              		.loc 1 375 0
 475              		.cfi_startproc
 476              		@ args = 0, pretend = 0, frame = 0
 477              		@ frame_needed = 0, uses_anonymous_args = 0
 478              	.LVL76:
 479 0000 10B5     		push	{r4, lr}
 480              		.cfi_def_cfa_offset 8
 481              		.cfi_offset 4, -8
 482              		.cfi_offset 14, -4
 376:TkShell.c     ****     PRINTF("> sys:ok %08lu\n", (unsigned long)tmrGetCounter_ms());
 483              		.loc 1 376 0
 484 0002 FFF7FEFF 		bl	USBUART_GetConfiguration
 485              	.LVL77:
 486 0006 0028     		cmp	r0, #0
 487 0008 0DD0     		beq	.L34
 488              	.L35:
ARM GAS  C:\Users\TERENC~1\AppData\Local\Temp\ccVObDgl.s 			page 17


 489              		.loc 1 376 0 is_stmt 0 discriminator 1
 490 000a FFF7FEFF 		bl	USBUART_CDCIsReady
 491              	.LVL78:
 492 000e 0028     		cmp	r0, #0
 493 0010 FBD0     		beq	.L35
 494              		.loc 1 376 0 discriminator 2
 495 0012 064B     		ldr	r3, .L36
 496 0014 1A68     		ldr	r2, [r3]
 497 0016 064C     		ldr	r4, .L36+4
 498 0018 0649     		ldr	r1, .L36+8
 499 001a 2000     		movs	r0, r4
 500 001c FFF7FEFF 		bl	sprintf
 501              	.LVL79:
 502 0020 2000     		movs	r0, r4
 503 0022 FFF7FEFF 		bl	USBUART_PutString
 504              	.LVL80:
 505              	.L34:
 377:TkShell.c     **** 
 378:TkShell.c     ****     return 0;
 379:TkShell.c     **** }
 506              		.loc 1 379 0 is_stmt 1
 507 0026 0020     		movs	r0, #0
 508              		@ sp needed
 509 0028 10BD     		pop	{r4, pc}
 510              	.L37:
 511 002a C046     		.align	2
 512              	.L36:
 513 002c 00000000 		.word	tmrCounter_ms
 514 0030 00000000 		.word	gbuf
 515 0034 3C000000 		.word	.LC17
 516              		.cfi_endproc
 517              	.LFE15:
 518              		.size	__tk_shell_sys_info, .-__tk_shell_sys_info
 519              		.section	.text.__tk_shell_sys_adc,"ax",%progbits
 520              		.align	2
 521              		.global	__tk_shell_sys_adc
 522              		.code	16
 523              		.thumb_func
 524              		.type	__tk_shell_sys_adc, %function
 525              	__tk_shell_sys_adc:
 526              	.LFB17:
 380:TkShell.c     **** 
 381:TkShell.c     **** TK_SHELL_METHOD(sys, reset)
 382:TkShell.c     **** {
 383:TkShell.c     ****     CySoftwareReset();
 384:TkShell.c     ****     
 385:TkShell.c     ****     return 0;
 386:TkShell.c     **** }
 387:TkShell.c     **** 
 388:TkShell.c     **** TK_SHELL_METHOD(sys, adc)
 389:TkShell.c     **** {
 527              		.loc 1 389 0
 528              		.cfi_startproc
 529              		@ args = 0, pretend = 0, frame = 0
 530              		@ frame_needed = 0, uses_anonymous_args = 0
 531              	.LVL81:
 532 0000 10B5     		push	{r4, lr}
ARM GAS  C:\Users\TERENC~1\AppData\Local\Temp\ccVObDgl.s 			page 18


 533              		.cfi_def_cfa_offset 8
 534              		.cfi_offset 4, -8
 535              		.cfi_offset 14, -4
 390:TkShell.c     ****     PRINTF("> sys:ok %d,%d\n", adcSample[vol_ctrl_left], adcSample[vol_ctrl_right]);
 536              		.loc 1 390 0
 537 0002 FFF7FEFF 		bl	USBUART_GetConfiguration
 538              	.LVL82:
 539 0006 0028     		cmp	r0, #0
 540 0008 10D0     		beq	.L39
 541              	.L40:
 542              		.loc 1 390 0 is_stmt 0 discriminator 1
 543 000a FFF7FEFF 		bl	USBUART_CDCIsReady
 544              	.LVL83:
 545 000e 0028     		cmp	r0, #0
 546 0010 FBD0     		beq	.L40
 547              		.loc 1 390 0 discriminator 2
 548 0012 074B     		ldr	r3, .L41
 549 0014 0221     		movs	r1, #2
 550 0016 5A5E     		ldrsh	r2, [r3, r1]
 551 0018 0021     		movs	r1, #0
 552 001a 5B5E     		ldrsh	r3, [r3, r1]
 553 001c 054C     		ldr	r4, .L41+4
 554 001e 0649     		ldr	r1, .L41+8
 555 0020 2000     		movs	r0, r4
 556 0022 FFF7FEFF 		bl	sprintf
 557              	.LVL84:
 558 0026 2000     		movs	r0, r4
 559 0028 FFF7FEFF 		bl	USBUART_PutString
 560              	.LVL85:
 561              	.L39:
 391:TkShell.c     ****     
 392:TkShell.c     ****     return 0;
 393:TkShell.c     **** }
 562              		.loc 1 393 0 is_stmt 1
 563 002c 0020     		movs	r0, #0
 564              		@ sp needed
 565 002e 10BD     		pop	{r4, pc}
 566              	.L42:
 567              		.align	2
 568              	.L41:
 569 0030 00000000 		.word	adcSample
 570 0034 00000000 		.word	gbuf
 571 0038 4C000000 		.word	.LC21
 572              		.cfi_endproc
 573              	.LFE17:
 574              		.size	__tk_shell_sys_adc, .-__tk_shell_sys_adc
 575              		.section	.text.__tk_shell_cal_print,"ax",%progbits
 576              		.align	2
 577              		.global	__tk_shell_cal_print
 578              		.code	16
 579              		.thumb_func
 580              		.type	__tk_shell_cal_print, %function
 581              	__tk_shell_cal_print:
 582              	.LFB20:
 394:TkShell.c     **** 
 395:TkShell.c     **** TK_SHELL_METHOD(led, start)
 396:TkShell.c     **** {
ARM GAS  C:\Users\TERENC~1\AppData\Local\Temp\ccVObDgl.s 			page 19


 397:TkShell.c     ****     int i = 2;
 398:TkShell.c     ****     LM_LED_e ledIdx = LM_LED_MAX;
 399:TkShell.c     ****     uint32_t pwmPeriod, pwmCompare, pwmCounter;
 400:TkShell.c     ****     
 401:TkShell.c     ****     argc -= i;
 402:TkShell.c     ****     
 403:TkShell.c     ****     if (argc != 4)
 404:TkShell.c     ****     {
 405:TkShell.c     ****         PRINTF("Invalid number of arguments: %d\n", argc);
 406:TkShell.c     ****         return -1;
 407:TkShell.c     ****     }
 408:TkShell.c     ****     
 409:TkShell.c     ****     if (strcicmp(argv[i], "red") == 0)
 410:TkShell.c     ****     {
 411:TkShell.c     ****         ledIdx = LM_LED_RED;
 412:TkShell.c     ****     }
 413:TkShell.c     ****     else if (strcicmp(argv[i], "green") == 0)
 414:TkShell.c     ****     {
 415:TkShell.c     ****         ledIdx = LM_LED_GREEN;
 416:TkShell.c     ****     }
 417:TkShell.c     ****     else if (strcicmp(argv[i], "blue") == 0)
 418:TkShell.c     ****     {
 419:TkShell.c     ****         ledIdx = LM_LED_BLUE;
 420:TkShell.c     ****     }
 421:TkShell.c     ****     else
 422:TkShell.c     ****     {
 423:TkShell.c     ****         PRINTF("Invalid color %s, must be red|green|blue\n", argv[i]);
 424:TkShell.c     ****         return -2;
 425:TkShell.c     ****     }
 426:TkShell.c     ****     
 427:TkShell.c     ****     pwmPeriod = atoi(argv[i + 1]);
 428:TkShell.c     ****     pwmCompare = atoi(argv[i + 2]);
 429:TkShell.c     ****     pwmCounter = atoi(argv[i + 3]);
 430:TkShell.c     ****     
 431:TkShell.c     ****     LedManagerStartOverride(ledIdx, pwmPeriod, pwmCompare, pwmCounter);
 432:TkShell.c     ****     
 433:TkShell.c     ****     PRINTF("> led:ok\n");
 434:TkShell.c     **** 
 435:TkShell.c     ****     return 0;
 436:TkShell.c     **** }
 437:TkShell.c     **** 
 438:TkShell.c     **** TK_SHELL_METHOD(led, stop)
 439:TkShell.c     **** {
 440:TkShell.c     ****     int i = 2;
 441:TkShell.c     ****     LM_LED_e ledIdx = LM_LED_MAX;
 442:TkShell.c     ****     
 443:TkShell.c     ****     argc -= i;
 444:TkShell.c     ****     
 445:TkShell.c     ****     if (argc != 1)
 446:TkShell.c     ****     {
 447:TkShell.c     ****         PRINTF("Invalid number of arguments: %d\n", argc);
 448:TkShell.c     ****         return -1;
 449:TkShell.c     ****     }
 450:TkShell.c     ****     
 451:TkShell.c     ****     if (strcicmp(argv[i], "red") == 0)
 452:TkShell.c     ****     {
 453:TkShell.c     ****         ledIdx = LM_LED_RED;
ARM GAS  C:\Users\TERENC~1\AppData\Local\Temp\ccVObDgl.s 			page 20


 454:TkShell.c     ****     }
 455:TkShell.c     ****     else if (strcicmp(argv[i], "green") == 0)
 456:TkShell.c     ****     {
 457:TkShell.c     ****         ledIdx = LM_LED_GREEN;
 458:TkShell.c     ****     }
 459:TkShell.c     ****     else if (strcicmp(argv[i], "blue") == 0)
 460:TkShell.c     ****     {
 461:TkShell.c     ****         ledIdx = LM_LED_BLUE;
 462:TkShell.c     ****     }
 463:TkShell.c     ****     else
 464:TkShell.c     ****     {
 465:TkShell.c     ****         PRINTF("Invalid color %s, must be red|green|blue\n", argv[i]);
 466:TkShell.c     ****         return -2;
 467:TkShell.c     ****     }
 468:TkShell.c     ****     LedManagerStopOverride(ledIdx);
 469:TkShell.c     ****     
 470:TkShell.c     ****     PRINTF("> led:ok\n");
 471:TkShell.c     **** 
 472:TkShell.c     ****     return 0;
 473:TkShell.c     **** }
 474:TkShell.c     **** 
 475:TkShell.c     **** TK_SHELL_METHOD(cal, print)
 476:TkShell.c     **** {
 583              		.loc 1 476 0
 584              		.cfi_startproc
 585              		@ args = 0, pretend = 0, frame = 0
 586              		@ frame_needed = 0, uses_anonymous_args = 0
 587              	.LVL86:
 588 0000 10B5     		push	{r4, lr}
 589              		.cfi_def_cfa_offset 8
 590              		.cfi_offset 4, -8
 591              		.cfi_offset 14, -4
 477:TkShell.c     ****     PRINTF("sign = 0x%08X\n", (unsigned int)cal_data->signature);
 592              		.loc 1 477 0
 593 0002 FFF7FEFF 		bl	USBUART_GetConfiguration
 594              	.LVL87:
 595 0006 0028     		cmp	r0, #0
 596 0008 0ED0     		beq	.L44
 597              	.L45:
 598              		.loc 1 477 0 is_stmt 0 discriminator 1
 599 000a FFF7FEFF 		bl	USBUART_CDCIsReady
 600              	.LVL88:
 601 000e 0028     		cmp	r0, #0
 602 0010 FBD0     		beq	.L45
 603              		.loc 1 477 0 discriminator 2
 604 0012 534B     		ldr	r3, .L62
 605 0014 1B68     		ldr	r3, [r3]
 606 0016 1A68     		ldr	r2, [r3]
 607 0018 524C     		ldr	r4, .L62+4
 608 001a 5349     		ldr	r1, .L62+8
 609 001c 2000     		movs	r0, r4
 610 001e FFF7FEFF 		bl	sprintf
 611              	.LVL89:
 612 0022 2000     		movs	r0, r4
 613 0024 FFF7FEFF 		bl	USBUART_PutString
 614              	.LVL90:
 615              	.L44:
ARM GAS  C:\Users\TERENC~1\AppData\Local\Temp\ccVObDgl.s 			page 21


 478:TkShell.c     ****     PRINTF("ctr = %lu\n", cal_data->counter);
 616              		.loc 1 478 0 is_stmt 1
 617 0028 FFF7FEFF 		bl	USBUART_GetConfiguration
 618              	.LVL91:
 619 002c 0028     		cmp	r0, #0
 620 002e 0ED0     		beq	.L46
 621              	.L47:
 622              		.loc 1 478 0 is_stmt 0 discriminator 1
 623 0030 FFF7FEFF 		bl	USBUART_CDCIsReady
 624              	.LVL92:
 625 0034 0028     		cmp	r0, #0
 626 0036 FBD0     		beq	.L47
 627              		.loc 1 478 0 discriminator 2
 628 0038 494B     		ldr	r3, .L62
 629 003a 1B68     		ldr	r3, [r3]
 630 003c 5A68     		ldr	r2, [r3, #4]
 631 003e 494C     		ldr	r4, .L62+4
 632 0040 4A49     		ldr	r1, .L62+12
 633 0042 2000     		movs	r0, r4
 634 0044 FFF7FEFF 		bl	sprintf
 635              	.LVL93:
 636 0048 2000     		movs	r0, r4
 637 004a FFF7FEFF 		bl	USBUART_PutString
 638              	.LVL94:
 639              	.L46:
 479:TkShell.c     ****     PRINTF("adc_min[R] = %d\n", cal_data->adc_min[vol_ctrl_right]);
 640              		.loc 1 479 0 is_stmt 1
 641 004e FFF7FEFF 		bl	USBUART_GetConfiguration
 642              	.LVL95:
 643 0052 0028     		cmp	r0, #0
 644 0054 0FD0     		beq	.L48
 645              	.L49:
 646              		.loc 1 479 0 is_stmt 0 discriminator 1
 647 0056 FFF7FEFF 		bl	USBUART_CDCIsReady
 648              	.LVL96:
 649 005a 0028     		cmp	r0, #0
 650 005c FBD0     		beq	.L49
 651              		.loc 1 479 0 discriminator 2
 652 005e 404B     		ldr	r3, .L62
 653 0060 1B68     		ldr	r3, [r3]
 654 0062 0822     		movs	r2, #8
 655 0064 9A5E     		ldrsh	r2, [r3, r2]
 656 0066 3F4C     		ldr	r4, .L62+4
 657 0068 4149     		ldr	r1, .L62+16
 658 006a 2000     		movs	r0, r4
 659 006c FFF7FEFF 		bl	sprintf
 660              	.LVL97:
 661 0070 2000     		movs	r0, r4
 662 0072 FFF7FEFF 		bl	USBUART_PutString
 663              	.LVL98:
 664              	.L48:
 480:TkShell.c     ****     PRINTF("adc_max[R] = %d\n", cal_data->adc_max[vol_ctrl_right]);
 665              		.loc 1 480 0 is_stmt 1
 666 0076 FFF7FEFF 		bl	USBUART_GetConfiguration
 667              	.LVL99:
 668 007a 0028     		cmp	r0, #0
 669 007c 0FD0     		beq	.L50
ARM GAS  C:\Users\TERENC~1\AppData\Local\Temp\ccVObDgl.s 			page 22


 670              	.L51:
 671              		.loc 1 480 0 is_stmt 0 discriminator 1
 672 007e FFF7FEFF 		bl	USBUART_CDCIsReady
 673              	.LVL100:
 674 0082 0028     		cmp	r0, #0
 675 0084 FBD0     		beq	.L51
 676              		.loc 1 480 0 discriminator 2
 677 0086 364B     		ldr	r3, .L62
 678 0088 1B68     		ldr	r3, [r3]
 679 008a 0C22     		movs	r2, #12
 680 008c 9A5E     		ldrsh	r2, [r3, r2]
 681 008e 354C     		ldr	r4, .L62+4
 682 0090 3849     		ldr	r1, .L62+20
 683 0092 2000     		movs	r0, r4
 684 0094 FFF7FEFF 		bl	sprintf
 685              	.LVL101:
 686 0098 2000     		movs	r0, r4
 687 009a FFF7FEFF 		bl	USBUART_PutString
 688              	.LVL102:
 689              	.L50:
 481:TkShell.c     ****     PRINTF("adc_min[L] = %d\n", cal_data->adc_min[vol_ctrl_left]);
 690              		.loc 1 481 0 is_stmt 1
 691 009e FFF7FEFF 		bl	USBUART_GetConfiguration
 692              	.LVL103:
 693 00a2 0028     		cmp	r0, #0
 694 00a4 0FD0     		beq	.L52
 695              	.L53:
 696              		.loc 1 481 0 is_stmt 0 discriminator 1
 697 00a6 FFF7FEFF 		bl	USBUART_CDCIsReady
 698              	.LVL104:
 699 00aa 0028     		cmp	r0, #0
 700 00ac FBD0     		beq	.L53
 701              		.loc 1 481 0 discriminator 2
 702 00ae 2C4B     		ldr	r3, .L62
 703 00b0 1B68     		ldr	r3, [r3]
 704 00b2 0A22     		movs	r2, #10
 705 00b4 9A5E     		ldrsh	r2, [r3, r2]
 706 00b6 2B4C     		ldr	r4, .L62+4
 707 00b8 2F49     		ldr	r1, .L62+24
 708 00ba 2000     		movs	r0, r4
 709 00bc FFF7FEFF 		bl	sprintf
 710              	.LVL105:
 711 00c0 2000     		movs	r0, r4
 712 00c2 FFF7FEFF 		bl	USBUART_PutString
 713              	.LVL106:
 714              	.L52:
 482:TkShell.c     ****     PRINTF("adc_max[L] = %d\n", cal_data->adc_max[vol_ctrl_left]);
 715              		.loc 1 482 0 is_stmt 1
 716 00c6 FFF7FEFF 		bl	USBUART_GetConfiguration
 717              	.LVL107:
 718 00ca 0028     		cmp	r0, #0
 719 00cc 0FD0     		beq	.L54
 720              	.L55:
 721              		.loc 1 482 0 is_stmt 0 discriminator 1
 722 00ce FFF7FEFF 		bl	USBUART_CDCIsReady
 723              	.LVL108:
 724 00d2 0028     		cmp	r0, #0
ARM GAS  C:\Users\TERENC~1\AppData\Local\Temp\ccVObDgl.s 			page 23


 725 00d4 FBD0     		beq	.L55
 726              		.loc 1 482 0 discriminator 2
 727 00d6 224B     		ldr	r3, .L62
 728 00d8 1B68     		ldr	r3, [r3]
 729 00da 0E22     		movs	r2, #14
 730 00dc 9A5E     		ldrsh	r2, [r3, r2]
 731 00de 214C     		ldr	r4, .L62+4
 732 00e0 2649     		ldr	r1, .L62+28
 733 00e2 2000     		movs	r0, r4
 734 00e4 FFF7FEFF 		bl	sprintf
 735              	.LVL109:
 736 00e8 2000     		movs	r0, r4
 737 00ea FFF7FEFF 		bl	USBUART_PutString
 738              	.LVL110:
 739              	.L54:
 483:TkShell.c     **** 
 484:TkShell.c     ****     PRINTF("led_max_brightness = %d\n", cal_data->led_max_brightness);
 740              		.loc 1 484 0 is_stmt 1
 741 00ee FFF7FEFF 		bl	USBUART_GetConfiguration
 742              	.LVL111:
 743 00f2 0028     		cmp	r0, #0
 744 00f4 0ED0     		beq	.L56
 745              	.L57:
 746              		.loc 1 484 0 is_stmt 0 discriminator 1
 747 00f6 FFF7FEFF 		bl	USBUART_CDCIsReady
 748              	.LVL112:
 749 00fa 0028     		cmp	r0, #0
 750 00fc FBD0     		beq	.L57
 751              		.loc 1 484 0 discriminator 2
 752 00fe 184B     		ldr	r3, .L62
 753 0100 1B68     		ldr	r3, [r3]
 754 0102 1A7C     		ldrb	r2, [r3, #16]
 755 0104 174C     		ldr	r4, .L62+4
 756 0106 1E49     		ldr	r1, .L62+32
 757 0108 2000     		movs	r0, r4
 758 010a FFF7FEFF 		bl	sprintf
 759              	.LVL113:
 760 010e 2000     		movs	r0, r4
 761 0110 FFF7FEFF 		bl	USBUART_PutString
 762              	.LVL114:
 763              	.L56:
 485:TkShell.c     ****     PRINTF("debug_mask = 0x%02X\n", (unsigned int)cal_data->debug_mask);
 764              		.loc 1 485 0 is_stmt 1
 765 0114 FFF7FEFF 		bl	USBUART_GetConfiguration
 766              	.LVL115:
 767 0118 0028     		cmp	r0, #0
 768 011a 0ED0     		beq	.L58
 769              	.L59:
 770              		.loc 1 485 0 is_stmt 0 discriminator 1
 771 011c FFF7FEFF 		bl	USBUART_CDCIsReady
 772              	.LVL116:
 773 0120 0028     		cmp	r0, #0
 774 0122 FBD0     		beq	.L59
 775              		.loc 1 485 0 discriminator 2
 776 0124 0E4B     		ldr	r3, .L62
 777 0126 1B68     		ldr	r3, [r3]
 778 0128 5A7C     		ldrb	r2, [r3, #17]
ARM GAS  C:\Users\TERENC~1\AppData\Local\Temp\ccVObDgl.s 			page 24


 779 012a 0E4C     		ldr	r4, .L62+4
 780 012c 1549     		ldr	r1, .L62+36
 781 012e 2000     		movs	r0, r4
 782 0130 FFF7FEFF 		bl	sprintf
 783              	.LVL117:
 784 0134 2000     		movs	r0, r4
 785 0136 FFF7FEFF 		bl	USBUART_PutString
 786              	.LVL118:
 787              	.L58:
 486:TkShell.c     ****     PRINTF("> cal:ok\n");
 788              		.loc 1 486 0 is_stmt 1
 789 013a FFF7FEFF 		bl	USBUART_GetConfiguration
 790              	.LVL119:
 791 013e 0028     		cmp	r0, #0
 792 0140 0CD0     		beq	.L60
 793              	.L61:
 794              		.loc 1 486 0 is_stmt 0 discriminator 1
 795 0142 FFF7FEFF 		bl	USBUART_CDCIsReady
 796              	.LVL120:
 797 0146 0028     		cmp	r0, #0
 798 0148 FBD0     		beq	.L61
 799              		.loc 1 486 0 discriminator 2
 800 014a 064C     		ldr	r4, .L62+4
 801 014c 0A22     		movs	r2, #10
 802 014e 0E49     		ldr	r1, .L62+40
 803 0150 2000     		movs	r0, r4
 804 0152 FFF7FEFF 		bl	memcpy
 805              	.LVL121:
 806 0156 2000     		movs	r0, r4
 807 0158 FFF7FEFF 		bl	USBUART_PutString
 808              	.LVL122:
 809              	.L60:
 487:TkShell.c     **** 
 488:TkShell.c     ****     return 0;    
 489:TkShell.c     **** }
 810              		.loc 1 489 0 is_stmt 1
 811 015c 0020     		movs	r0, #0
 812              		@ sp needed
 813 015e 10BD     		pop	{r4, pc}
 814              	.L63:
 815              		.align	2
 816              	.L62:
 817 0160 00000000 		.word	cal_data
 818 0164 00000000 		.word	gbuf
 819 0168 5C000000 		.word	.LC25
 820 016c 6C000000 		.word	.LC28
 821 0170 78000000 		.word	.LC30
 822 0174 8C000000 		.word	.LC32
 823 0178 A0000000 		.word	.LC34
 824 017c B4000000 		.word	.LC36
 825 0180 C8000000 		.word	.LC38
 826 0184 E4000000 		.word	.LC40
 827 0188 FC000000 		.word	.LC42
 828              		.cfi_endproc
 829              	.LFE20:
 830              		.size	__tk_shell_cal_print, .-__tk_shell_cal_print
 831              		.section	.text.__tk_shell_wm_vol_set,"ax",%progbits
ARM GAS  C:\Users\TERENC~1\AppData\Local\Temp\ccVObDgl.s 			page 25


 832              		.align	2
 833              		.global	__tk_shell_wm_vol_set
 834              		.code	16
 835              		.thumb_func
 836              		.type	__tk_shell_wm_vol_set, %function
 837              	__tk_shell_wm_vol_set:
 838              	.LFB6:
 250:TkShell.c     ****     int vol;
 839              		.loc 1 250 0
 840              		.cfi_startproc
 841              		@ args = 0, pretend = 0, frame = 0
 842              		@ frame_needed = 0, uses_anonymous_args = 0
 843              	.LVL123:
 844 0000 70B5     		push	{r4, r5, r6, lr}
 845              		.cfi_def_cfa_offset 16
 846              		.cfi_offset 4, -16
 847              		.cfi_offset 5, -12
 848              		.cfi_offset 6, -8
 849              		.cfi_offset 14, -4
 850              	.LVL124:
 257:TkShell.c     ****     {
 851              		.loc 1 257 0
 852 0002 0328     		cmp	r0, #3
 853 0004 13D0     		beq	.L65
 259:TkShell.c     ****         return -1;
 854              		.loc 1 259 0
 855 0006 FFF7FEFF 		bl	USBUART_GetConfiguration
 856              	.LVL125:
 857 000a 0028     		cmp	r0, #0
 858 000c 3ED0     		beq	.L71
 859              	.L67:
 259:TkShell.c     ****         return -1;
 860              		.loc 1 259 0 is_stmt 0 discriminator 1
 861 000e FFF7FEFF 		bl	USBUART_CDCIsReady
 862              	.LVL126:
 863 0012 0028     		cmp	r0, #0
 864 0014 FBD0     		beq	.L67
 259:TkShell.c     ****         return -1;
 865              		.loc 1 259 0 discriminator 2
 866 0016 214C     		ldr	r4, .L74
 867 0018 1E22     		movs	r2, #30
 868 001a 2149     		ldr	r1, .L74+4
 869 001c 2000     		movs	r0, r4
 870 001e FFF7FEFF 		bl	memcpy
 871              	.LVL127:
 872 0022 2000     		movs	r0, r4
 873 0024 FFF7FEFF 		bl	USBUART_PutString
 874              	.LVL128:
 260:TkShell.c     ****     }
 875              		.loc 1 260 0 is_stmt 1 discriminator 2
 876 0028 0120     		movs	r0, #1
 877 002a 4042     		rsbs	r0, r0, #0
 878 002c 35E0     		b	.L66
 879              	.LVL129:
 880              	.L65:
 263:TkShell.c     **** 
 881              		.loc 1 263 0
ARM GAS  C:\Users\TERENC~1\AppData\Local\Temp\ccVObDgl.s 			page 26


 882 002e 8868     		ldr	r0, [r1, #8]
 883              	.LVL130:
 884 0030 FFF7FEFF 		bl	atoi
 885              	.LVL131:
 265:TkShell.c     ****     {
 886              		.loc 1 265 0
 887 0034 C0B2     		uxtb	r0, r0
 888              	.LVL132:
 889 0036 FFF7FEFF 		bl	Codec_AdjustBothHeadphoneVolume
 890              	.LVL133:
 891 003a 041E     		subs	r4, r0, #0
 892              	.LVL134:
 893 003c 12D1     		bne	.L68
 267:TkShell.c     ****     }
 894              		.loc 1 267 0
 895 003e FFF7FEFF 		bl	USBUART_GetConfiguration
 896              	.LVL135:
 897 0042 0028     		cmp	r0, #0
 898 0044 25D0     		beq	.L72
 899              	.L69:
 267:TkShell.c     ****     }
 900              		.loc 1 267 0 is_stmt 0 discriminator 1
 901 0046 FFF7FEFF 		bl	USBUART_CDCIsReady
 902              	.LVL136:
 903 004a 0028     		cmp	r0, #0
 904 004c FBD0     		beq	.L69
 267:TkShell.c     ****     }
 905              		.loc 1 267 0 discriminator 2
 906 004e 134C     		ldr	r4, .L74
 907 0050 0922     		movs	r2, #9
 908 0052 1449     		ldr	r1, .L74+8
 909 0054 2000     		movs	r0, r4
 910 0056 FFF7FEFF 		bl	memcpy
 911              	.LVL137:
 912 005a 2000     		movs	r0, r4
 913 005c FFF7FEFF 		bl	USBUART_PutString
 914              	.LVL138:
 275:TkShell.c     **** }
 915              		.loc 1 275 0 is_stmt 1 discriminator 2
 916 0060 0020     		movs	r0, #0
 917 0062 1AE0     		b	.L66
 918              	.LVL139:
 919              	.L68:
 271:TkShell.c     ****         return -2;
 920              		.loc 1 271 0
 921 0064 FFF7FEFF 		bl	USBUART_GetConfiguration
 922              	.LVL140:
 923 0068 0028     		cmp	r0, #0
 924 006a 14D0     		beq	.L73
 925              	.L70:
 271:TkShell.c     ****         return -2;
 926              		.loc 1 271 0 is_stmt 0 discriminator 1
 927 006c FFF7FEFF 		bl	USBUART_CDCIsReady
 928              	.LVL141:
 929 0070 0028     		cmp	r0, #0
 930 0072 FBD0     		beq	.L70
 271:TkShell.c     ****         return -2;
ARM GAS  C:\Users\TERENC~1\AppData\Local\Temp\ccVObDgl.s 			page 27


 931              		.loc 1 271 0 discriminator 2
 932 0074 094D     		ldr	r5, .L74
 933 0076 2200     		movs	r2, r4
 934 0078 0B49     		ldr	r1, .L74+12
 935 007a 2800     		movs	r0, r5
 936 007c FFF7FEFF 		bl	sprintf
 937              	.LVL142:
 938 0080 2800     		movs	r0, r5
 939 0082 FFF7FEFF 		bl	USBUART_PutString
 940              	.LVL143:
 272:TkShell.c     ****     }
 941              		.loc 1 272 0 is_stmt 1 discriminator 2
 942 0086 0220     		movs	r0, #2
 943 0088 4042     		rsbs	r0, r0, #0
 944 008a 06E0     		b	.L66
 945              	.LVL144:
 946              	.L71:
 260:TkShell.c     ****     }
 947              		.loc 1 260 0
 948 008c 0120     		movs	r0, #1
 949 008e 4042     		rsbs	r0, r0, #0
 950 0090 03E0     		b	.L66
 951              	.LVL145:
 952              	.L72:
 275:TkShell.c     **** }
 953              		.loc 1 275 0
 954 0092 0020     		movs	r0, #0
 955 0094 01E0     		b	.L66
 956              	.L73:
 272:TkShell.c     ****     }
 957              		.loc 1 272 0
 958 0096 0220     		movs	r0, #2
 959 0098 4042     		rsbs	r0, r0, #0
 960              	.LVL146:
 961              	.L66:
 276:TkShell.c     **** 
 962              		.loc 1 276 0
 963              		@ sp needed
 964 009a 70BD     		pop	{r4, r5, r6, pc}
 965              	.L75:
 966              		.align	2
 967              	.L74:
 968 009c 00000000 		.word	gbuf
 969 00a0 0C000000 		.word	.LC4
 970 00a4 08010000 		.word	.LC46
 971 00a8 14010000 		.word	.LC48
 972              		.cfi_endproc
 973              	.LFE6:
 974              		.size	__tk_shell_wm_vol_set, .-__tk_shell_wm_vol_set
 975              		.section	.text.__tk_shell_wm_vol_get,"ax",%progbits
 976              		.align	2
 977              		.global	__tk_shell_wm_vol_get
 978              		.code	16
 979              		.thumb_func
 980              		.type	__tk_shell_wm_vol_get, %function
 981              	__tk_shell_wm_vol_get:
 982              	.LFB7:
ARM GAS  C:\Users\TERENC~1\AppData\Local\Temp\ccVObDgl.s 			page 28


 279:TkShell.c     ****     PRINTF("> wm:ok %d\n", (int)Codec_GetHeadphoneVolume());
 983              		.loc 1 279 0
 984              		.cfi_startproc
 985              		@ args = 0, pretend = 0, frame = 0
 986              		@ frame_needed = 0, uses_anonymous_args = 0
 987              	.LVL147:
 988 0000 10B5     		push	{r4, lr}
 989              		.cfi_def_cfa_offset 8
 990              		.cfi_offset 4, -8
 991              		.cfi_offset 14, -4
 280:TkShell.c     **** 
 992              		.loc 1 280 0
 993 0002 FFF7FEFF 		bl	USBUART_GetConfiguration
 994              	.LVL148:
 995 0006 0028     		cmp	r0, #0
 996 0008 0ED0     		beq	.L77
 997              	.L78:
 280:TkShell.c     **** 
 998              		.loc 1 280 0 is_stmt 0 discriminator 1
 999 000a FFF7FEFF 		bl	USBUART_CDCIsReady
 1000              	.LVL149:
 1001 000e 0028     		cmp	r0, #0
 1002 0010 FBD0     		beq	.L78
 280:TkShell.c     **** 
 1003              		.loc 1 280 0 discriminator 2
 1004 0012 FFF7FEFF 		bl	Codec_GetHeadphoneVolume
 1005              	.LVL150:
 1006 0016 0200     		movs	r2, r0
 1007 0018 044C     		ldr	r4, .L79
 1008 001a 0549     		ldr	r1, .L79+4
 1009 001c 2000     		movs	r0, r4
 1010 001e FFF7FEFF 		bl	sprintf
 1011              	.LVL151:
 1012 0022 2000     		movs	r0, r4
 1013 0024 FFF7FEFF 		bl	USBUART_PutString
 1014              	.LVL152:
 1015              	.L77:
 283:TkShell.c     **** 
 1016              		.loc 1 283 0 is_stmt 1
 1017 0028 0020     		movs	r0, #0
 1018              		@ sp needed
 1019 002a 10BD     		pop	{r4, pc}
 1020              	.L80:
 1021              		.align	2
 1022              	.L79:
 1023 002c 00000000 		.word	gbuf
 1024 0030 20010000 		.word	.LC50
 1025              		.cfi_endproc
 1026              	.LFE7:
 1027              		.size	__tk_shell_wm_vol_get, .-__tk_shell_wm_vol_get
 1028              		.section	.text.__tk_shell_wm_reg_wr,"ax",%progbits
 1029              		.align	2
 1030              		.global	__tk_shell_wm_reg_wr
 1031              		.code	16
 1032              		.thumb_func
 1033              		.type	__tk_shell_wm_reg_wr, %function
 1034              	__tk_shell_wm_reg_wr:
ARM GAS  C:\Users\TERENC~1\AppData\Local\Temp\ccVObDgl.s 			page 29


 1035              	.LFB8:
 286:TkShell.c     ****     int i = 2;
 1036              		.loc 1 286 0
 1037              		.cfi_startproc
 1038              		@ args = 0, pretend = 0, frame = 0
 1039              		@ frame_needed = 0, uses_anonymous_args = 0
 1040              	.LVL153:
 1041 0000 70B5     		push	{r4, r5, r6, lr}
 1042              		.cfi_def_cfa_offset 16
 1043              		.cfi_offset 4, -16
 1044              		.cfi_offset 5, -12
 1045              		.cfi_offset 6, -8
 1046              		.cfi_offset 14, -4
 1047 0002 0C00     		movs	r4, r1
 1048              	.LVL154:
 294:TkShell.c     ****     {
 1049              		.loc 1 294 0
 1050 0004 0428     		cmp	r0, #4
 1051 0006 13D0     		beq	.L82
 296:TkShell.c     ****         return -1;
 1052              		.loc 1 296 0
 1053 0008 FFF7FEFF 		bl	USBUART_GetConfiguration
 1054              	.LVL155:
 1055 000c 0028     		cmp	r0, #0
 1056 000e 45D0     		beq	.L88
 1057              	.L84:
 296:TkShell.c     ****         return -1;
 1058              		.loc 1 296 0 is_stmt 0 discriminator 1
 1059 0010 FFF7FEFF 		bl	USBUART_CDCIsReady
 1060              	.LVL156:
 1061 0014 0028     		cmp	r0, #0
 1062 0016 FBD0     		beq	.L84
 296:TkShell.c     ****         return -1;
 1063              		.loc 1 296 0 discriminator 2
 1064 0018 244C     		ldr	r4, .L91
 1065              	.LVL157:
 1066 001a 1E22     		movs	r2, #30
 1067 001c 2449     		ldr	r1, .L91+4
 1068 001e 2000     		movs	r0, r4
 1069 0020 FFF7FEFF 		bl	memcpy
 1070              	.LVL158:
 1071 0024 2000     		movs	r0, r4
 1072 0026 FFF7FEFF 		bl	USBUART_PutString
 1073              	.LVL159:
 297:TkShell.c     ****     }
 1074              		.loc 1 297 0 is_stmt 1 discriminator 2
 1075 002a 0120     		movs	r0, #1
 1076 002c 4042     		rsbs	r0, r0, #0
 1077 002e 3CE0     		b	.L83
 1078              	.LVL160:
 1079              	.L82:
 300:TkShell.c     ****     data = strtoul(argv[i++], NULL, 16);
 1080              		.loc 1 300 0
 1081 0030 8868     		ldr	r0, [r1, #8]
 1082              	.LVL161:
 1083 0032 FFF7FEFF 		bl	atoi
 1084              	.LVL162:
ARM GAS  C:\Users\TERENC~1\AppData\Local\Temp\ccVObDgl.s 			page 30


 1085 0036 C5B2     		uxtb	r5, r0
 1086              	.LVL163:
 301:TkShell.c     ****     
 1087              		.loc 1 301 0
 1088 0038 E068     		ldr	r0, [r4, #12]
 1089 003a 1022     		movs	r2, #16
 1090 003c 0021     		movs	r1, #0
 1091 003e FFF7FEFF 		bl	strtoul
 1092              	.LVL164:
 1093 0042 81B2     		uxth	r1, r0
 1094              	.LVL165:
 303:TkShell.c     ****     {
 1095              		.loc 1 303 0
 1096 0044 2800     		movs	r0, r5
 1097 0046 FFF7FEFF 		bl	Codec_SendData
 1098              	.LVL166:
 1099 004a 041E     		subs	r4, r0, #0
 1100              	.LVL167:
 1101 004c 12D1     		bne	.L85
 305:TkShell.c     ****     }
 1102              		.loc 1 305 0
 1103 004e FFF7FEFF 		bl	USBUART_GetConfiguration
 1104              	.LVL168:
 1105 0052 0028     		cmp	r0, #0
 1106 0054 25D0     		beq	.L89
 1107              	.L86:
 305:TkShell.c     ****     }
 1108              		.loc 1 305 0 is_stmt 0 discriminator 1
 1109 0056 FFF7FEFF 		bl	USBUART_CDCIsReady
 1110              	.LVL169:
 1111 005a 0028     		cmp	r0, #0
 1112 005c FBD0     		beq	.L86
 305:TkShell.c     ****     }
 1113              		.loc 1 305 0 discriminator 2
 1114 005e 134C     		ldr	r4, .L91
 1115              	.LVL170:
 1116 0060 0922     		movs	r2, #9
 1117 0062 1449     		ldr	r1, .L91+8
 1118 0064 2000     		movs	r0, r4
 1119 0066 FFF7FEFF 		bl	memcpy
 1120              	.LVL171:
 1121 006a 2000     		movs	r0, r4
 1122 006c FFF7FEFF 		bl	USBUART_PutString
 1123              	.LVL172:
 313:TkShell.c     **** }
 1124              		.loc 1 313 0 is_stmt 1 discriminator 2
 1125 0070 0020     		movs	r0, #0
 1126 0072 1AE0     		b	.L83
 1127              	.LVL173:
 1128              	.L85:
 309:TkShell.c     ****         return -2;
 1129              		.loc 1 309 0
 1130 0074 FFF7FEFF 		bl	USBUART_GetConfiguration
 1131              	.LVL174:
 1132 0078 0028     		cmp	r0, #0
 1133 007a 14D0     		beq	.L90
 1134              	.L87:
ARM GAS  C:\Users\TERENC~1\AppData\Local\Temp\ccVObDgl.s 			page 31


 309:TkShell.c     ****         return -2;
 1135              		.loc 1 309 0 is_stmt 0 discriminator 1
 1136 007c FFF7FEFF 		bl	USBUART_CDCIsReady
 1137              	.LVL175:
 1138 0080 0028     		cmp	r0, #0
 1139 0082 FBD0     		beq	.L87
 309:TkShell.c     ****         return -2;
 1140              		.loc 1 309 0 discriminator 2
 1141 0084 094D     		ldr	r5, .L91
 1142              	.LVL176:
 1143 0086 2200     		movs	r2, r4
 1144 0088 0B49     		ldr	r1, .L91+12
 1145 008a 2800     		movs	r0, r5
 1146 008c FFF7FEFF 		bl	sprintf
 1147              	.LVL177:
 1148 0090 2800     		movs	r0, r5
 1149 0092 FFF7FEFF 		bl	USBUART_PutString
 1150              	.LVL178:
 310:TkShell.c     ****     }
 1151              		.loc 1 310 0 is_stmt 1 discriminator 2
 1152 0096 0220     		movs	r0, #2
 1153 0098 4042     		rsbs	r0, r0, #0
 1154 009a 06E0     		b	.L83
 1155              	.LVL179:
 1156              	.L88:
 297:TkShell.c     ****     }
 1157              		.loc 1 297 0
 1158 009c 0120     		movs	r0, #1
 1159 009e 4042     		rsbs	r0, r0, #0
 1160 00a0 03E0     		b	.L83
 1161              	.LVL180:
 1162              	.L89:
 313:TkShell.c     **** }
 1163              		.loc 1 313 0
 1164 00a2 0020     		movs	r0, #0
 1165 00a4 01E0     		b	.L83
 1166              	.L90:
 310:TkShell.c     ****     }
 1167              		.loc 1 310 0
 1168 00a6 0220     		movs	r0, #2
 1169 00a8 4042     		rsbs	r0, r0, #0
 1170              	.LVL181:
 1171              	.L83:
 314:TkShell.c     **** 
 1172              		.loc 1 314 0
 1173              		@ sp needed
 1174 00aa 70BD     		pop	{r4, r5, r6, pc}
 1175              	.L92:
 1176              		.align	2
 1177              	.L91:
 1178 00ac 00000000 		.word	gbuf
 1179 00b0 0C000000 		.word	.LC4
 1180 00b4 08010000 		.word	.LC46
 1181 00b8 14010000 		.word	.LC48
 1182              		.cfi_endproc
 1183              	.LFE8:
 1184              		.size	__tk_shell_wm_reg_wr, .-__tk_shell_wm_reg_wr
ARM GAS  C:\Users\TERENC~1\AppData\Local\Temp\ccVObDgl.s 			page 32


 1185              		.section	.text.__tk_shell_wm_reg_rd,"ax",%progbits
 1186              		.align	2
 1187              		.global	__tk_shell_wm_reg_rd
 1188              		.code	16
 1189              		.thumb_func
 1190              		.type	__tk_shell_wm_reg_rd, %function
 1191              	__tk_shell_wm_reg_rd:
 1192              	.LFB9:
 317:TkShell.c     ****     int i = 2;
 1193              		.loc 1 317 0
 1194              		.cfi_startproc
 1195              		@ args = 0, pretend = 0, frame = 0
 1196              		@ frame_needed = 0, uses_anonymous_args = 0
 1197              	.LVL182:
 1198 0000 10B5     		push	{r4, lr}
 1199              		.cfi_def_cfa_offset 8
 1200              		.cfi_offset 4, -8
 1201              		.cfi_offset 14, -4
 1202              	.LVL183:
 323:TkShell.c     ****     {
 1203              		.loc 1 323 0
 1204 0002 0328     		cmp	r0, #3
 1205 0004 13D0     		beq	.L94
 325:TkShell.c     ****         return -1;
 1206              		.loc 1 325 0
 1207 0006 FFF7FEFF 		bl	USBUART_GetConfiguration
 1208              	.LVL184:
 1209 000a 0028     		cmp	r0, #0
 1210 000c 29D0     		beq	.L98
 1211              	.L96:
 325:TkShell.c     ****         return -1;
 1212              		.loc 1 325 0 is_stmt 0 discriminator 1
 1213 000e FFF7FEFF 		bl	USBUART_CDCIsReady
 1214              	.LVL185:
 1215 0012 0028     		cmp	r0, #0
 1216 0014 FBD0     		beq	.L96
 325:TkShell.c     ****         return -1;
 1217              		.loc 1 325 0 discriminator 2
 1218 0016 154C     		ldr	r4, .L100
 1219 0018 1E22     		movs	r2, #30
 1220 001a 1549     		ldr	r1, .L100+4
 1221 001c 2000     		movs	r0, r4
 1222 001e FFF7FEFF 		bl	memcpy
 1223              	.LVL186:
 1224 0022 2000     		movs	r0, r4
 1225 0024 FFF7FEFF 		bl	USBUART_PutString
 1226              	.LVL187:
 326:TkShell.c     ****     }
 1227              		.loc 1 326 0 is_stmt 1 discriminator 2
 1228 0028 0120     		movs	r0, #1
 1229 002a 4042     		rsbs	r0, r0, #0
 1230 002c 1DE0     		b	.L95
 1231              	.LVL188:
 1232              	.L94:
 329:TkShell.c     ****     
 1233              		.loc 1 329 0
 1234 002e 8868     		ldr	r0, [r1, #8]
ARM GAS  C:\Users\TERENC~1\AppData\Local\Temp\ccVObDgl.s 			page 33


 1235              	.LVL189:
 1236 0030 FFF7FEFF 		bl	atoi
 1237              	.LVL190:
 1238 0034 C4B2     		uxtb	r4, r0
 1239              	.LVL191:
 331:TkShell.c     ****     
 1240              		.loc 1 331 0
 1241 0036 FFF7FEFF 		bl	USBUART_GetConfiguration
 1242              	.LVL192:
 1243 003a 0028     		cmp	r0, #0
 1244 003c 14D0     		beq	.L99
 1245              	.L97:
 331:TkShell.c     ****     
 1246              		.loc 1 331 0 is_stmt 0 discriminator 1
 1247 003e FFF7FEFF 		bl	USBUART_CDCIsReady
 1248              	.LVL193:
 1249 0042 0028     		cmp	r0, #0
 1250 0044 FBD0     		beq	.L97
 331:TkShell.c     ****     
 1251              		.loc 1 331 0 discriminator 2
 1252 0046 2000     		movs	r0, r4
 1253 0048 FFF7FEFF 		bl	Codec_GetData
 1254              	.LVL194:
 1255 004c 0200     		movs	r2, r0
 1256 004e 074C     		ldr	r4, .L100
 1257              	.LVL195:
 1258 0050 0849     		ldr	r1, .L100+8
 1259 0052 2000     		movs	r0, r4
 1260 0054 FFF7FEFF 		bl	sprintf
 1261              	.LVL196:
 1262 0058 2000     		movs	r0, r4
 1263 005a FFF7FEFF 		bl	USBUART_PutString
 1264              	.LVL197:
 333:TkShell.c     **** }
 1265              		.loc 1 333 0 is_stmt 1 discriminator 2
 1266 005e 0020     		movs	r0, #0
 1267 0060 03E0     		b	.L95
 1268              	.LVL198:
 1269              	.L98:
 326:TkShell.c     ****     }
 1270              		.loc 1 326 0
 1271 0062 0120     		movs	r0, #1
 1272 0064 4042     		rsbs	r0, r0, #0
 1273 0066 00E0     		b	.L95
 1274              	.LVL199:
 1275              	.L99:
 333:TkShell.c     **** }
 1276              		.loc 1 333 0
 1277 0068 0020     		movs	r0, #0
 1278              	.LVL200:
 1279              	.L95:
 334:TkShell.c     **** 
 1280              		.loc 1 334 0
 1281              		@ sp needed
 1282 006a 10BD     		pop	{r4, pc}
 1283              	.L101:
 1284              		.align	2
ARM GAS  C:\Users\TERENC~1\AppData\Local\Temp\ccVObDgl.s 			page 34


 1285              	.L100:
 1286 006c 00000000 		.word	gbuf
 1287 0070 0C000000 		.word	.LC4
 1288 0074 2C010000 		.word	.LC59
 1289              		.cfi_endproc
 1290              	.LFE9:
 1291              		.size	__tk_shell_wm_reg_rd, .-__tk_shell_wm_reg_rd
 1292              		.section	.text.__tk_shell_rf_init,"ax",%progbits
 1293              		.align	2
 1294              		.global	__tk_shell_rf_init
 1295              		.code	16
 1296              		.thumb_func
 1297              		.type	__tk_shell_rf_init, %function
 1298              	__tk_shell_rf_init:
 1299              	.LFB10:
 337:TkShell.c     ****   cc85xx_init();
 1300              		.loc 1 337 0
 1301              		.cfi_startproc
 1302              		@ args = 0, pretend = 0, frame = 0
 1303              		@ frame_needed = 0, uses_anonymous_args = 0
 1304              	.LVL201:
 1305 0000 10B5     		push	{r4, lr}
 1306              		.cfi_def_cfa_offset 8
 1307              		.cfi_offset 4, -8
 1308              		.cfi_offset 14, -4
 338:TkShell.c     ****   PRINTF("> rf:ok\n");
 1309              		.loc 1 338 0
 1310 0002 FFF7FEFF 		bl	cc85xx_init
 1311              	.LVL202:
 339:TkShell.c     ****   return 0;
 1312              		.loc 1 339 0
 1313 0006 FFF7FEFF 		bl	USBUART_GetConfiguration
 1314              	.LVL203:
 1315 000a 0028     		cmp	r0, #0
 1316 000c 0CD0     		beq	.L103
 1317              	.L104:
 339:TkShell.c     ****   return 0;
 1318              		.loc 1 339 0 is_stmt 0 discriminator 1
 1319 000e FFF7FEFF 		bl	USBUART_CDCIsReady
 1320              	.LVL204:
 1321 0012 0028     		cmp	r0, #0
 1322 0014 FBD0     		beq	.L104
 339:TkShell.c     ****   return 0;
 1323              		.loc 1 339 0 discriminator 2
 1324 0016 054C     		ldr	r4, .L105
 1325 0018 0922     		movs	r2, #9
 1326 001a 0549     		ldr	r1, .L105+4
 1327 001c 2000     		movs	r0, r4
 1328 001e FFF7FEFF 		bl	memcpy
 1329              	.LVL205:
 1330 0022 2000     		movs	r0, r4
 1331 0024 FFF7FEFF 		bl	USBUART_PutString
 1332              	.LVL206:
 1333              	.L103:
 341:TkShell.c     **** 
 1334              		.loc 1 341 0 is_stmt 1
 1335 0028 0020     		movs	r0, #0
ARM GAS  C:\Users\TERENC~1\AppData\Local\Temp\ccVObDgl.s 			page 35


 1336              		@ sp needed
 1337 002a 10BD     		pop	{r4, pc}
 1338              	.L106:
 1339              		.align	2
 1340              	.L105:
 1341 002c 00000000 		.word	gbuf
 1342 0030 3C010000 		.word	.LC62
 1343              		.cfi_endproc
 1344              	.LFE10:
 1345              		.size	__tk_shell_rf_init, .-__tk_shell_rf_init
 1346              		.section	.text.__tk_shell_rf_bl_unlock,"ax",%progbits
 1347              		.align	2
 1348              		.global	__tk_shell_rf_bl_unlock
 1349              		.code	16
 1350              		.thumb_func
 1351              		.type	__tk_shell_rf_bl_unlock, %function
 1352              	__tk_shell_rf_bl_unlock:
 1353              	.LFB11:
 344:TkShell.c     ****   cc85xx_bl_unlock_spi();
 1354              		.loc 1 344 0
 1355              		.cfi_startproc
 1356              		@ args = 0, pretend = 0, frame = 0
 1357              		@ frame_needed = 0, uses_anonymous_args = 0
 1358              	.LVL207:
 1359 0000 10B5     		push	{r4, lr}
 1360              		.cfi_def_cfa_offset 8
 1361              		.cfi_offset 4, -8
 1362              		.cfi_offset 14, -4
 345:TkShell.c     ****   PRINTF("> rf:ok\n");
 1363              		.loc 1 345 0
 1364 0002 FFF7FEFF 		bl	cc85xx_bl_unlock_spi
 1365              	.LVL208:
 346:TkShell.c     ****   return 0;
 1366              		.loc 1 346 0
 1367 0006 FFF7FEFF 		bl	USBUART_GetConfiguration
 1368              	.LVL209:
 1369 000a 0028     		cmp	r0, #0
 1370 000c 0CD0     		beq	.L108
 1371              	.L109:
 346:TkShell.c     ****   return 0;
 1372              		.loc 1 346 0 is_stmt 0 discriminator 1
 1373 000e FFF7FEFF 		bl	USBUART_CDCIsReady
 1374              	.LVL210:
 1375 0012 0028     		cmp	r0, #0
 1376 0014 FBD0     		beq	.L109
 346:TkShell.c     ****   return 0;
 1377              		.loc 1 346 0 discriminator 2
 1378 0016 054C     		ldr	r4, .L110
 1379 0018 0922     		movs	r2, #9
 1380 001a 0549     		ldr	r1, .L110+4
 1381 001c 2000     		movs	r0, r4
 1382 001e FFF7FEFF 		bl	memcpy
 1383              	.LVL211:
 1384 0022 2000     		movs	r0, r4
 1385 0024 FFF7FEFF 		bl	USBUART_PutString
 1386              	.LVL212:
 1387              	.L108:
ARM GAS  C:\Users\TERENC~1\AppData\Local\Temp\ccVObDgl.s 			page 36


 348:TkShell.c     **** 
 1388              		.loc 1 348 0 is_stmt 1
 1389 0028 0020     		movs	r0, #0
 1390              		@ sp needed
 1391 002a 10BD     		pop	{r4, pc}
 1392              	.L111:
 1393              		.align	2
 1394              	.L110:
 1395 002c 00000000 		.word	gbuf
 1396 0030 3C010000 		.word	.LC62
 1397              		.cfi_endproc
 1398              	.LFE11:
 1399              		.size	__tk_shell_rf_bl_unlock, .-__tk_shell_rf_bl_unlock
 1400              		.section	.text.__tk_shell_rf_status,"ax",%progbits
 1401              		.align	2
 1402              		.global	__tk_shell_rf_status
 1403              		.code	16
 1404              		.thumb_func
 1405              		.type	__tk_shell_rf_status, %function
 1406              	__tk_shell_rf_status:
 1407              	.LFB12:
 351:TkShell.c     ****   PRINTF("> rf:ok 0x%04X\n", cc85xx_get_status());
 1408              		.loc 1 351 0
 1409              		.cfi_startproc
 1410              		@ args = 0, pretend = 0, frame = 0
 1411              		@ frame_needed = 0, uses_anonymous_args = 0
 1412              	.LVL213:
 1413 0000 10B5     		push	{r4, lr}
 1414              		.cfi_def_cfa_offset 8
 1415              		.cfi_offset 4, -8
 1416              		.cfi_offset 14, -4
 352:TkShell.c     ****   return 0;
 1417              		.loc 1 352 0
 1418 0002 FFF7FEFF 		bl	USBUART_GetConfiguration
 1419              	.LVL214:
 1420 0006 0028     		cmp	r0, #0
 1421 0008 0ED0     		beq	.L113
 1422              	.L114:
 352:TkShell.c     ****   return 0;
 1423              		.loc 1 352 0 is_stmt 0 discriminator 1
 1424 000a FFF7FEFF 		bl	USBUART_CDCIsReady
 1425              	.LVL215:
 1426 000e 0028     		cmp	r0, #0
 1427 0010 FBD0     		beq	.L114
 352:TkShell.c     ****   return 0;
 1428              		.loc 1 352 0 discriminator 2
 1429 0012 FFF7FEFF 		bl	cc85xx_get_status
 1430              	.LVL216:
 1431 0016 0200     		movs	r2, r0
 1432 0018 044C     		ldr	r4, .L115
 1433 001a 0549     		ldr	r1, .L115+4
 1434 001c 2000     		movs	r0, r4
 1435 001e FFF7FEFF 		bl	sprintf
 1436              	.LVL217:
 1437 0022 2000     		movs	r0, r4
 1438 0024 FFF7FEFF 		bl	USBUART_PutString
 1439              	.LVL218:
ARM GAS  C:\Users\TERENC~1\AppData\Local\Temp\ccVObDgl.s 			page 37


 1440              	.L113:
 354:TkShell.c     **** 
 1441              		.loc 1 354 0 is_stmt 1
 1442 0028 0020     		movs	r0, #0
 1443              		@ sp needed
 1444 002a 10BD     		pop	{r4, pc}
 1445              	.L116:
 1446              		.align	2
 1447              	.L115:
 1448 002c 00000000 		.word	gbuf
 1449 0030 48010000 		.word	.LC66
 1450              		.cfi_endproc
 1451              	.LFE12:
 1452              		.size	__tk_shell_rf_status, .-__tk_shell_rf_status
 1453              		.section	.text.__tk_shell_rf_info,"ax",%progbits
 1454              		.align	2
 1455              		.global	__tk_shell_rf_info
 1456              		.code	16
 1457              		.thumb_func
 1458              		.type	__tk_shell_rf_info, %function
 1459              	__tk_shell_rf_info:
 1460              	.LFB13:
 357:TkShell.c     ****   cc85xx_print_info();
 1461              		.loc 1 357 0
 1462              		.cfi_startproc
 1463              		@ args = 0, pretend = 0, frame = 0
 1464              		@ frame_needed = 0, uses_anonymous_args = 0
 1465              	.LVL219:
 1466 0000 10B5     		push	{r4, lr}
 1467              		.cfi_def_cfa_offset 8
 1468              		.cfi_offset 4, -8
 1469              		.cfi_offset 14, -4
 358:TkShell.c     ****   PRINTF("> rf:ok\n");
 1470              		.loc 1 358 0
 1471 0002 FFF7FEFF 		bl	cc85xx_print_info
 1472              	.LVL220:
 359:TkShell.c     ****   return 0;
 1473              		.loc 1 359 0
 1474 0006 FFF7FEFF 		bl	USBUART_GetConfiguration
 1475              	.LVL221:
 1476 000a 0028     		cmp	r0, #0
 1477 000c 0CD0     		beq	.L118
 1478              	.L119:
 359:TkShell.c     ****   return 0;
 1479              		.loc 1 359 0 is_stmt 0 discriminator 1
 1480 000e FFF7FEFF 		bl	USBUART_CDCIsReady
 1481              	.LVL222:
 1482 0012 0028     		cmp	r0, #0
 1483 0014 FBD0     		beq	.L119
 359:TkShell.c     ****   return 0;
 1484              		.loc 1 359 0 discriminator 2
 1485 0016 054C     		ldr	r4, .L120
 1486 0018 0922     		movs	r2, #9
 1487 001a 0549     		ldr	r1, .L120+4
 1488 001c 2000     		movs	r0, r4
 1489 001e FFF7FEFF 		bl	memcpy
 1490              	.LVL223:
ARM GAS  C:\Users\TERENC~1\AppData\Local\Temp\ccVObDgl.s 			page 38


 1491 0022 2000     		movs	r0, r4
 1492 0024 FFF7FEFF 		bl	USBUART_PutString
 1493              	.LVL224:
 1494              	.L118:
 361:TkShell.c     **** 
 1495              		.loc 1 361 0 is_stmt 1
 1496 0028 0020     		movs	r0, #0
 1497              		@ sp needed
 1498 002a 10BD     		pop	{r4, pc}
 1499              	.L121:
 1500              		.align	2
 1501              	.L120:
 1502 002c 00000000 		.word	gbuf
 1503 0030 3C010000 		.word	.LC62
 1504              		.cfi_endproc
 1505              	.LFE13:
 1506              		.size	__tk_shell_rf_info, .-__tk_shell_rf_info
 1507              		.section	.text.__tk_shell_sys_reset,"ax",%progbits
 1508              		.align	2
 1509              		.global	__tk_shell_sys_reset
 1510              		.code	16
 1511              		.thumb_func
 1512              		.type	__tk_shell_sys_reset, %function
 1513              	__tk_shell_sys_reset:
 1514              	.LFB16:
 382:TkShell.c     ****     CySoftwareReset();
 1515              		.loc 1 382 0
 1516              		.cfi_startproc
 1517              		@ args = 0, pretend = 0, frame = 0
 1518              		@ frame_needed = 0, uses_anonymous_args = 0
 1519              	.LVL225:
 1520 0000 10B5     		push	{r4, lr}
 1521              		.cfi_def_cfa_offset 8
 1522              		.cfi_offset 4, -8
 1523              		.cfi_offset 14, -4
 383:TkShell.c     ****     
 1524              		.loc 1 383 0
 1525 0002 FFF7FEFF 		bl	CySoftwareReset
 1526              	.LVL226:
 386:TkShell.c     **** 
 1527              		.loc 1 386 0
 1528 0006 0020     		movs	r0, #0
 1529              		@ sp needed
 1530 0008 10BD     		pop	{r4, pc}
 1531              		.cfi_endproc
 1532              	.LFE16:
 1533              		.size	__tk_shell_sys_reset, .-__tk_shell_sys_reset
 1534 000a C046     		.section	.text.__tk_shell_cal_save,"ax",%progbits
 1535              		.align	2
 1536              		.global	__tk_shell_cal_save
 1537              		.code	16
 1538              		.thumb_func
 1539              		.type	__tk_shell_cal_save, %function
 1540              	__tk_shell_cal_save:
 1541              	.LFB22:
 490:TkShell.c     **** 
 491:TkShell.c     **** TK_SHELL_METHOD(cal, set)
ARM GAS  C:\Users\TERENC~1\AppData\Local\Temp\ccVObDgl.s 			page 39


 492:TkShell.c     **** {
 493:TkShell.c     ****     int i = 2;
 494:TkShell.c     ****     
 495:TkShell.c     ****     argc -= i;
 496:TkShell.c     ****     
 497:TkShell.c     ****     if (argc == 0)
 498:TkShell.c     ****     {
 499:TkShell.c     ****         PRINTF("Invalid number of arguments!\n");
 500:TkShell.c     ****         return -1;
 501:TkShell.c     ****     }
 502:TkShell.c     ****     
 503:TkShell.c     ****     if (strcicmp(argv[i], "led_max_brightness") == 0)
 504:TkShell.c     ****     {
 505:TkShell.c     ****         cal_data->led_max_brightness = atoi(argv[++i]);
 506:TkShell.c     ****     }
 507:TkShell.c     ****     else if (strcicmp(argv[i], "adc_min_l") == 0)
 508:TkShell.c     ****     {
 509:TkShell.c     ****         cal_data->adc_min[vol_ctrl_left] = atoi(argv[++i]);
 510:TkShell.c     ****     }
 511:TkShell.c     ****     else if (strcicmp(argv[i], "debug_mask") == 0)
 512:TkShell.c     ****     {
 513:TkShell.c     ****         cal_data->debug_mask = strtoul(argv[++i], NULL, 16);
 514:TkShell.c     ****     }
 515:TkShell.c     ****     return 0;
 516:TkShell.c     **** }
 517:TkShell.c     **** 
 518:TkShell.c     **** TK_SHELL_METHOD(cal, save)
 519:TkShell.c     **** {
 1542              		.loc 1 519 0
 1543              		.cfi_startproc
 1544              		@ args = 0, pretend = 0, frame = 0
 1545              		@ frame_needed = 0, uses_anonymous_args = 0
 1546              	.LVL227:
 1547 0000 10B5     		push	{r4, lr}
 1548              		.cfi_def_cfa_offset 8
 1549              		.cfi_offset 4, -8
 1550              		.cfi_offset 14, -4
 520:TkShell.c     ****     PRINTF("> cal:ok %d\n", CalibrationSave());
 1551              		.loc 1 520 0
 1552 0002 FFF7FEFF 		bl	USBUART_GetConfiguration
 1553              	.LVL228:
 1554 0006 0028     		cmp	r0, #0
 1555 0008 0ED0     		beq	.L124
 1556              	.L125:
 1557              		.loc 1 520 0 is_stmt 0 discriminator 1
 1558 000a FFF7FEFF 		bl	USBUART_CDCIsReady
 1559              	.LVL229:
 1560 000e 0028     		cmp	r0, #0
 1561 0010 FBD0     		beq	.L125
 1562              		.loc 1 520 0 discriminator 2
 1563 0012 FFF7FEFF 		bl	CalibrationSave
 1564              	.LVL230:
 1565 0016 0200     		movs	r2, r0
 1566 0018 044C     		ldr	r4, .L126
 1567 001a 0549     		ldr	r1, .L126+4
 1568 001c 2000     		movs	r0, r4
 1569 001e FFF7FEFF 		bl	sprintf
ARM GAS  C:\Users\TERENC~1\AppData\Local\Temp\ccVObDgl.s 			page 40


 1570              	.LVL231:
 1571 0022 2000     		movs	r0, r4
 1572 0024 FFF7FEFF 		bl	USBUART_PutString
 1573              	.LVL232:
 1574              	.L124:
 521:TkShell.c     ****     return 0;
 522:TkShell.c     **** }
 1575              		.loc 1 522 0 is_stmt 1
 1576 0028 0020     		movs	r0, #0
 1577              		@ sp needed
 1578 002a 10BD     		pop	{r4, pc}
 1579              	.L127:
 1580              		.align	2
 1581              	.L126:
 1582 002c 00000000 		.word	gbuf
 1583 0030 58010000 		.word	.LC71
 1584              		.cfi_endproc
 1585              	.LFE22:
 1586              		.size	__tk_shell_cal_save, .-__tk_shell_cal_save
 1587              		.section	.text.__tk_shell_audio_play_tone,"ax",%progbits
 1588              		.align	2
 1589              		.global	__tk_shell_audio_play_tone
 1590              		.code	16
 1591              		.thumb_func
 1592              		.type	__tk_shell_audio_play_tone, %function
 1593              	__tk_shell_audio_play_tone:
 1594              	.LFB23:
 523:TkShell.c     **** 
 524:TkShell.c     **** TK_SHELL_METHOD(audio, play_tone)
 525:TkShell.c     **** {
 1595              		.loc 1 525 0
 1596              		.cfi_startproc
 1597              		@ args = 0, pretend = 0, frame = 0
 1598              		@ frame_needed = 0, uses_anonymous_args = 0
 1599              	.LVL233:
 1600 0000 10B5     		push	{r4, lr}
 1601              		.cfi_def_cfa_offset 8
 1602              		.cfi_offset 4, -8
 1603              		.cfi_offset 14, -4
 526:TkShell.c     ****   AudioManagerToneStart(strtoul(argv[2], NULL, 16));
 1604              		.loc 1 526 0
 1605 0002 8868     		ldr	r0, [r1, #8]
 1606              	.LVL234:
 1607 0004 1022     		movs	r2, #16
 1608 0006 0021     		movs	r1, #0
 1609              	.LVL235:
 1610 0008 FFF7FEFF 		bl	strtoul
 1611              	.LVL236:
 1612 000c FFF7FEFF 		bl	AudioManagerToneStart
 1613              	.LVL237:
 527:TkShell.c     ****   
 528:TkShell.c     ****   PRINTF("> audio:ok\n");
 1614              		.loc 1 528 0
 1615 0010 FFF7FEFF 		bl	USBUART_GetConfiguration
 1616              	.LVL238:
 1617 0014 0028     		cmp	r0, #0
 1618 0016 0CD0     		beq	.L129
ARM GAS  C:\Users\TERENC~1\AppData\Local\Temp\ccVObDgl.s 			page 41


 1619              	.L130:
 1620              		.loc 1 528 0 is_stmt 0 discriminator 1
 1621 0018 FFF7FEFF 		bl	USBUART_CDCIsReady
 1622              	.LVL239:
 1623 001c 0028     		cmp	r0, #0
 1624 001e FBD0     		beq	.L130
 1625              		.loc 1 528 0 discriminator 2
 1626 0020 054C     		ldr	r4, .L131
 1627 0022 0C22     		movs	r2, #12
 1628 0024 0549     		ldr	r1, .L131+4
 1629 0026 2000     		movs	r0, r4
 1630 0028 FFF7FEFF 		bl	memcpy
 1631              	.LVL240:
 1632 002c 2000     		movs	r0, r4
 1633 002e FFF7FEFF 		bl	USBUART_PutString
 1634              	.LVL241:
 1635              	.L129:
 529:TkShell.c     **** 
 530:TkShell.c     ****   return 0;
 531:TkShell.c     **** }
 1636              		.loc 1 531 0 is_stmt 1
 1637 0032 0020     		movs	r0, #0
 1638              		@ sp needed
 1639 0034 10BD     		pop	{r4, pc}
 1640              	.L132:
 1641 0036 C046     		.align	2
 1642              	.L131:
 1643 0038 00000000 		.word	gbuf
 1644 003c 68010000 		.word	.LC75
 1645              		.cfi_endproc
 1646              	.LFE23:
 1647              		.size	__tk_shell_audio_play_tone, .-__tk_shell_audio_play_tone
 1648              		.section	.text.__tk_shell_audio_stop_tone,"ax",%progbits
 1649              		.align	2
 1650              		.global	__tk_shell_audio_stop_tone
 1651              		.code	16
 1652              		.thumb_func
 1653              		.type	__tk_shell_audio_stop_tone, %function
 1654              	__tk_shell_audio_stop_tone:
 1655              	.LFB24:
 532:TkShell.c     **** 
 533:TkShell.c     **** TK_SHELL_METHOD(audio, stop_tone)
 534:TkShell.c     **** {
 1656              		.loc 1 534 0
 1657              		.cfi_startproc
 1658              		@ args = 0, pretend = 0, frame = 0
 1659              		@ frame_needed = 0, uses_anonymous_args = 0
 1660              	.LVL242:
 1661 0000 10B5     		push	{r4, lr}
 1662              		.cfi_def_cfa_offset 8
 1663              		.cfi_offset 4, -8
 1664              		.cfi_offset 14, -4
 535:TkShell.c     ****   AudioManagerToneStop();
 1665              		.loc 1 535 0
 1666 0002 FFF7FEFF 		bl	AudioManagerToneStop
 1667              	.LVL243:
 536:TkShell.c     ****   PRINTF("> audio:ok\n");
ARM GAS  C:\Users\TERENC~1\AppData\Local\Temp\ccVObDgl.s 			page 42


 1668              		.loc 1 536 0
 1669 0006 FFF7FEFF 		bl	USBUART_GetConfiguration
 1670              	.LVL244:
 1671 000a 0028     		cmp	r0, #0
 1672 000c 0CD0     		beq	.L134
 1673              	.L135:
 1674              		.loc 1 536 0 is_stmt 0 discriminator 1
 1675 000e FFF7FEFF 		bl	USBUART_CDCIsReady
 1676              	.LVL245:
 1677 0012 0028     		cmp	r0, #0
 1678 0014 FBD0     		beq	.L135
 1679              		.loc 1 536 0 discriminator 2
 1680 0016 054C     		ldr	r4, .L136
 1681 0018 0C22     		movs	r2, #12
 1682 001a 0549     		ldr	r1, .L136+4
 1683 001c 2000     		movs	r0, r4
 1684 001e FFF7FEFF 		bl	memcpy
 1685              	.LVL246:
 1686 0022 2000     		movs	r0, r4
 1687 0024 FFF7FEFF 		bl	USBUART_PutString
 1688              	.LVL247:
 1689              	.L134:
 537:TkShell.c     ****   return 0;
 538:TkShell.c     **** }
 1690              		.loc 1 538 0 is_stmt 1
 1691 0028 0020     		movs	r0, #0
 1692              		@ sp needed
 1693 002a 10BD     		pop	{r4, pc}
 1694              	.L137:
 1695              		.align	2
 1696              	.L136:
 1697 002c 00000000 		.word	gbuf
 1698 0030 68010000 		.word	.LC75
 1699              		.cfi_endproc
 1700              	.LFE24:
 1701              		.size	__tk_shell_audio_stop_tone, .-__tk_shell_audio_stop_tone
 1702              		.section	.text.strcicmp,"ax",%progbits
 1703              		.align	2
 1704              		.global	strcicmp
 1705              		.code	16
 1706              		.thumb_func
 1707              		.type	strcicmp, %function
 1708              	strcicmp:
 1709              	.LFB2:
 165:TkShell.c     ****     for (;; a++, b++)
 1710              		.loc 1 165 0
 1711              		.cfi_startproc
 1712              		@ args = 0, pretend = 0, frame = 0
 1713              		@ frame_needed = 0, uses_anonymous_args = 0
 1714              	.LVL248:
 1715 0000 70B5     		push	{r4, r5, r6, lr}
 1716              		.cfi_def_cfa_offset 16
 1717              		.cfi_offset 4, -16
 1718              		.cfi_offset 5, -12
 1719              		.cfi_offset 6, -8
 1720              		.cfi_offset 14, -4
 1721              	.L145:
ARM GAS  C:\Users\TERENC~1\AppData\Local\Temp\ccVObDgl.s 			page 43


 1722              	.LBB2:
 1723              	.LBB3:
 168:TkShell.c     ****         if (d != 0 || !*a)
 1724              		.loc 1 168 0
 1725 0002 0578     		ldrb	r5, [r0]
 1726              	.LVL249:
 1727 0004 0E4B     		ldr	r3, .L147
 1728 0006 1A68     		ldr	r2, [r3]
 1729 0008 5319     		adds	r3, r2, r5
 1730 000a 5B78     		ldrb	r3, [r3, #1]
 1731 000c 0324     		movs	r4, #3
 1732 000e 2340     		ands	r3, r4
 1733 0010 012B     		cmp	r3, #1
 1734 0012 02D1     		bne	.L139
 168:TkShell.c     ****         if (d != 0 || !*a)
 1735              		.loc 1 168 0 is_stmt 0 discriminator 1
 1736 0014 2C00     		movs	r4, r5
 1737 0016 2034     		adds	r4, r4, #32
 1738 0018 00E0     		b	.L140
 1739              	.L139:
 168:TkShell.c     ****         if (d != 0 || !*a)
 1740              		.loc 1 168 0 discriminator 2
 1741 001a 2C00     		movs	r4, r5
 1742              	.L140:
 1743              	.LBE3:
 1744              	.LBB4:
 168:TkShell.c     ****         if (d != 0 || !*a)
 1745              		.loc 1 168 0 discriminator 4
 1746 001c 0B78     		ldrb	r3, [r1]
 1747              	.LVL250:
 1748 001e D218     		adds	r2, r2, r3
 1749 0020 5278     		ldrb	r2, [r2, #1]
 1750 0022 0326     		movs	r6, #3
 1751 0024 3240     		ands	r2, r6
 1752 0026 012A     		cmp	r2, #1
 1753 0028 00D1     		bne	.L142
 168:TkShell.c     ****         if (d != 0 || !*a)
 1754              		.loc 1 168 0 discriminator 5
 1755 002a 2033     		adds	r3, r3, #32
 1756              	.LVL251:
 1757              	.L142:
 1758              	.LBE4:
 168:TkShell.c     ****         if (d != 0 || !*a)
 1759              		.loc 1 168 0 discriminator 8
 1760 002c E31A     		subs	r3, r4, r3
 1761              	.LVL252:
 169:TkShell.c     ****             return d;
 1762              		.loc 1 169 0 is_stmt 1 discriminator 8
 1763 002e 04D1     		bne	.L146
 169:TkShell.c     ****             return d;
 1764              		.loc 1 169 0 is_stmt 0 discriminator 1
 1765 0030 002D     		cmp	r5, #0
 1766 0032 02D0     		beq	.L146
 1767              	.LBE2:
 166:TkShell.c     ****     {
 1768              		.loc 1 166 0 is_stmt 1
 1769 0034 0130     		adds	r0, r0, #1
ARM GAS  C:\Users\TERENC~1\AppData\Local\Temp\ccVObDgl.s 			page 44


 1770              	.LVL253:
 1771 0036 0131     		adds	r1, r1, #1
 1772              	.LVL254:
 171:TkShell.c     **** }
 1773              		.loc 1 171 0
 1774 0038 E3E7     		b	.L145
 1775              	.LVL255:
 1776              	.L146:
 172:TkShell.c     **** 
 1777              		.loc 1 172 0
 1778 003a 1800     		movs	r0, r3
 1779              	.LVL256:
 1780              		@ sp needed
 1781              	.LVL257:
 1782 003c 70BD     		pop	{r4, r5, r6, pc}
 1783              	.L148:
 1784 003e C046     		.align	2
 1785              	.L147:
 1786 0040 00000000 		.word	__ctype_ptr__
 1787              		.cfi_endproc
 1788              	.LFE2:
 1789              		.size	strcicmp, .-strcicmp
 1790              		.section	.text.__tk_shell_led_start,"ax",%progbits
 1791              		.align	2
 1792              		.global	__tk_shell_led_start
 1793              		.code	16
 1794              		.thumb_func
 1795              		.type	__tk_shell_led_start, %function
 1796              	__tk_shell_led_start:
 1797              	.LFB18:
 396:TkShell.c     ****     int i = 2;
 1798              		.loc 1 396 0
 1799              		.cfi_startproc
 1800              		@ args = 0, pretend = 0, frame = 0
 1801              		@ frame_needed = 0, uses_anonymous_args = 0
 1802              	.LVL258:
 1803 0000 F8B5     		push	{r3, r4, r5, r6, r7, lr}
 1804              		.cfi_def_cfa_offset 24
 1805              		.cfi_offset 3, -24
 1806              		.cfi_offset 4, -20
 1807              		.cfi_offset 5, -16
 1808              		.cfi_offset 6, -12
 1809              		.cfi_offset 7, -8
 1810              		.cfi_offset 14, -4
 1811 0002 0D00     		movs	r5, r1
 1812              	.LVL259:
 401:TkShell.c     ****     
 1813              		.loc 1 401 0
 1814 0004 841E     		subs	r4, r0, #2
 1815              	.LVL260:
 403:TkShell.c     ****     {
 1816              		.loc 1 403 0
 1817 0006 042C     		cmp	r4, #4
 1818 0008 13D0     		beq	.L150
 405:TkShell.c     ****         return -1;
 1819              		.loc 1 405 0
 1820 000a FFF7FEFF 		bl	USBUART_GetConfiguration
ARM GAS  C:\Users\TERENC~1\AppData\Local\Temp\ccVObDgl.s 			page 45


 1821              	.LVL261:
 1822 000e 0028     		cmp	r0, #0
 1823 0010 5FD0     		beq	.L156
 1824              	.L152:
 405:TkShell.c     ****         return -1;
 1825              		.loc 1 405 0 is_stmt 0 discriminator 1
 1826 0012 FFF7FEFF 		bl	USBUART_CDCIsReady
 1827              	.LVL262:
 1828 0016 0028     		cmp	r0, #0
 1829 0018 FBD0     		beq	.L152
 405:TkShell.c     ****         return -1;
 1830              		.loc 1 405 0 discriminator 2
 1831 001a 324D     		ldr	r5, .L162
 1832              	.LVL263:
 1833 001c 2200     		movs	r2, r4
 1834 001e 3249     		ldr	r1, .L162+4
 1835 0020 2800     		movs	r0, r5
 1836 0022 FFF7FEFF 		bl	sprintf
 1837              	.LVL264:
 1838 0026 2800     		movs	r0, r5
 1839 0028 FFF7FEFF 		bl	USBUART_PutString
 1840              	.LVL265:
 406:TkShell.c     ****     }
 1841              		.loc 1 406 0 is_stmt 1 discriminator 2
 1842 002c 0120     		movs	r0, #1
 1843 002e 4042     		rsbs	r0, r0, #0
 1844 0030 56E0     		b	.L151
 1845              	.LVL266:
 1846              	.L150:
 409:TkShell.c     ****     {
 1847              		.loc 1 409 0
 1848 0032 8C68     		ldr	r4, [r1, #8]
 1849              	.LVL267:
 1850 0034 2D49     		ldr	r1, .L162+8
 1851              	.LVL268:
 1852 0036 2000     		movs	r0, r4
 1853              	.LVL269:
 1854 0038 FFF7FEFF 		bl	strcicmp
 1855              	.LVL270:
 1856 003c 0028     		cmp	r0, #0
 1857 003e 1FD0     		beq	.L157
 413:TkShell.c     ****     {
 1858              		.loc 1 413 0
 1859 0040 2B49     		ldr	r1, .L162+12
 1860 0042 2000     		movs	r0, r4
 1861 0044 FFF7FEFF 		bl	strcicmp
 1862              	.LVL271:
 1863 0048 0028     		cmp	r0, #0
 1864 004a 1BD0     		beq	.L158
 417:TkShell.c     ****     {
 1865              		.loc 1 417 0
 1866 004c 2949     		ldr	r1, .L162+16
 1867 004e 2000     		movs	r0, r4
 1868 0050 FFF7FEFF 		bl	strcicmp
 1869              	.LVL272:
 1870 0054 0028     		cmp	r0, #0
 1871 0056 17D0     		beq	.L159
ARM GAS  C:\Users\TERENC~1\AppData\Local\Temp\ccVObDgl.s 			page 46


 423:TkShell.c     ****         return -2;
 1872              		.loc 1 423 0
 1873 0058 FFF7FEFF 		bl	USBUART_GetConfiguration
 1874              	.LVL273:
 1875 005c 0028     		cmp	r0, #0
 1876 005e 3BD0     		beq	.L160
 1877              	.L154:
 423:TkShell.c     ****         return -2;
 1878              		.loc 1 423 0 is_stmt 0 discriminator 1
 1879 0060 FFF7FEFF 		bl	USBUART_CDCIsReady
 1880              	.LVL274:
 1881 0064 0028     		cmp	r0, #0
 1882 0066 FBD0     		beq	.L154
 423:TkShell.c     ****         return -2;
 1883              		.loc 1 423 0 discriminator 2
 1884 0068 AA68     		ldr	r2, [r5, #8]
 1885 006a 1E4C     		ldr	r4, .L162
 1886 006c 2249     		ldr	r1, .L162+20
 1887 006e 2000     		movs	r0, r4
 1888 0070 FFF7FEFF 		bl	sprintf
 1889              	.LVL275:
 1890 0074 2000     		movs	r0, r4
 1891 0076 FFF7FEFF 		bl	USBUART_PutString
 1892              	.LVL276:
 424:TkShell.c     ****     }
 1893              		.loc 1 424 0 is_stmt 1 discriminator 2
 1894 007a 0220     		movs	r0, #2
 1895 007c 4042     		rsbs	r0, r0, #0
 1896 007e 2FE0     		b	.L151
 1897              	.L157:
 411:TkShell.c     ****     }
 1898              		.loc 1 411 0
 1899 0080 0027     		movs	r7, #0
 1900 0082 02E0     		b	.L153
 1901              	.L158:
 415:TkShell.c     ****     }
 1902              		.loc 1 415 0
 1903 0084 0127     		movs	r7, #1
 1904 0086 00E0     		b	.L153
 1905              	.L159:
 419:TkShell.c     ****     }
 1906              		.loc 1 419 0
 1907 0088 0227     		movs	r7, #2
 1908              	.L153:
 1909              	.LVL277:
 427:TkShell.c     ****     pwmCompare = atoi(argv[i + 2]);
 1910              		.loc 1 427 0
 1911 008a E868     		ldr	r0, [r5, #12]
 1912 008c FFF7FEFF 		bl	atoi
 1913              	.LVL278:
 1914 0090 0400     		movs	r4, r0
 1915              	.LVL279:
 428:TkShell.c     ****     pwmCounter = atoi(argv[i + 3]);
 1916              		.loc 1 428 0
 1917 0092 2869     		ldr	r0, [r5, #16]
 1918              	.LVL280:
 1919 0094 FFF7FEFF 		bl	atoi
ARM GAS  C:\Users\TERENC~1\AppData\Local\Temp\ccVObDgl.s 			page 47


 1920              	.LVL281:
 1921 0098 0600     		movs	r6, r0
 1922              	.LVL282:
 429:TkShell.c     ****     
 1923              		.loc 1 429 0
 1924 009a 6869     		ldr	r0, [r5, #20]
 1925              	.LVL283:
 1926 009c FFF7FEFF 		bl	atoi
 1927              	.LVL284:
 1928 00a0 0300     		movs	r3, r0
 1929              	.LVL285:
 431:TkShell.c     ****     
 1930              		.loc 1 431 0
 1931 00a2 3200     		movs	r2, r6
 1932 00a4 2100     		movs	r1, r4
 1933 00a6 3800     		movs	r0, r7
 1934              	.LVL286:
 1935 00a8 FFF7FEFF 		bl	LedManagerStartOverride
 1936              	.LVL287:
 433:TkShell.c     **** 
 1937              		.loc 1 433 0
 1938 00ac FFF7FEFF 		bl	USBUART_GetConfiguration
 1939              	.LVL288:
 1940 00b0 0028     		cmp	r0, #0
 1941 00b2 14D0     		beq	.L161
 1942              	.L155:
 433:TkShell.c     **** 
 1943              		.loc 1 433 0 is_stmt 0 discriminator 1
 1944 00b4 FFF7FEFF 		bl	USBUART_CDCIsReady
 1945              	.LVL289:
 1946 00b8 0028     		cmp	r0, #0
 1947 00ba FBD0     		beq	.L155
 433:TkShell.c     **** 
 1948              		.loc 1 433 0 discriminator 2
 1949 00bc 094C     		ldr	r4, .L162
 1950              	.LVL290:
 1951 00be 0A22     		movs	r2, #10
 1952 00c0 0E49     		ldr	r1, .L162+24
 1953 00c2 2000     		movs	r0, r4
 1954 00c4 FFF7FEFF 		bl	memcpy
 1955              	.LVL291:
 1956 00c8 2000     		movs	r0, r4
 1957 00ca FFF7FEFF 		bl	USBUART_PutString
 1958              	.LVL292:
 435:TkShell.c     **** }
 1959              		.loc 1 435 0 is_stmt 1 discriminator 2
 1960 00ce 0020     		movs	r0, #0
 1961 00d0 06E0     		b	.L151
 1962              	.LVL293:
 1963              	.L156:
 406:TkShell.c     ****     }
 1964              		.loc 1 406 0
 1965 00d2 0120     		movs	r0, #1
 1966 00d4 4042     		rsbs	r0, r0, #0
 1967 00d6 03E0     		b	.L151
 1968              	.LVL294:
 1969              	.L160:
ARM GAS  C:\Users\TERENC~1\AppData\Local\Temp\ccVObDgl.s 			page 48


 424:TkShell.c     ****     }
 1970              		.loc 1 424 0
 1971 00d8 0220     		movs	r0, #2
 1972 00da 4042     		rsbs	r0, r0, #0
 1973 00dc 00E0     		b	.L151
 1974              	.LVL295:
 1975              	.L161:
 435:TkShell.c     **** }
 1976              		.loc 1 435 0
 1977 00de 0020     		movs	r0, #0
 1978              	.LVL296:
 1979              	.L151:
 436:TkShell.c     **** 
 1980              		.loc 1 436 0
 1981              		@ sp needed
 1982 00e0 F8BD     		pop	{r3, r4, r5, r6, r7, pc}
 1983              	.L163:
 1984 00e2 C046     		.align	2
 1985              	.L162:
 1986 00e4 00000000 		.word	gbuf
 1987 00e8 74010000 		.word	.LC80
 1988 00ec 98010000 		.word	.LC83
 1989 00f0 9C010000 		.word	.LC85
 1990 00f4 A4010000 		.word	.LC87
 1991 00f8 AC010000 		.word	.LC89
 1992 00fc D8010000 		.word	.LC91
 1993              		.cfi_endproc
 1994              	.LFE18:
 1995              		.size	__tk_shell_led_start, .-__tk_shell_led_start
 1996              		.section	.text.__tk_shell_led_stop,"ax",%progbits
 1997              		.align	2
 1998              		.global	__tk_shell_led_stop
 1999              		.code	16
 2000              		.thumb_func
 2001              		.type	__tk_shell_led_stop, %function
 2002              	__tk_shell_led_stop:
 2003              	.LFB19:
 439:TkShell.c     ****     int i = 2;
 2004              		.loc 1 439 0
 2005              		.cfi_startproc
 2006              		@ args = 0, pretend = 0, frame = 0
 2007              		@ frame_needed = 0, uses_anonymous_args = 0
 2008              	.LVL297:
 2009 0000 70B5     		push	{r4, r5, r6, lr}
 2010              		.cfi_def_cfa_offset 16
 2011              		.cfi_offset 4, -16
 2012              		.cfi_offset 5, -12
 2013              		.cfi_offset 6, -8
 2014              		.cfi_offset 14, -4
 2015 0002 0D00     		movs	r5, r1
 2016              	.LVL298:
 443:TkShell.c     ****     
 2017              		.loc 1 443 0
 2018 0004 841E     		subs	r4, r0, #2
 2019              	.LVL299:
 445:TkShell.c     ****     {
 2020              		.loc 1 445 0
ARM GAS  C:\Users\TERENC~1\AppData\Local\Temp\ccVObDgl.s 			page 49


 2021 0006 012C     		cmp	r4, #1
 2022 0008 13D0     		beq	.L165
 447:TkShell.c     ****         return -1;
 2023              		.loc 1 447 0
 2024 000a FFF7FEFF 		bl	USBUART_GetConfiguration
 2025              	.LVL300:
 2026 000e 0028     		cmp	r0, #0
 2027 0010 50D0     		beq	.L171
 2028              	.L167:
 447:TkShell.c     ****         return -1;
 2029              		.loc 1 447 0 is_stmt 0 discriminator 1
 2030 0012 FFF7FEFF 		bl	USBUART_CDCIsReady
 2031              	.LVL301:
 2032 0016 0028     		cmp	r0, #0
 2033 0018 FBD0     		beq	.L167
 447:TkShell.c     ****         return -1;
 2034              		.loc 1 447 0 discriminator 2
 2035 001a 2A4D     		ldr	r5, .L177
 2036              	.LVL302:
 2037 001c 2200     		movs	r2, r4
 2038 001e 2A49     		ldr	r1, .L177+4
 2039 0020 2800     		movs	r0, r5
 2040 0022 FFF7FEFF 		bl	sprintf
 2041              	.LVL303:
 2042 0026 2800     		movs	r0, r5
 2043 0028 FFF7FEFF 		bl	USBUART_PutString
 2044              	.LVL304:
 448:TkShell.c     ****     }
 2045              		.loc 1 448 0 is_stmt 1 discriminator 2
 2046 002c 0120     		movs	r0, #1
 2047 002e 4042     		rsbs	r0, r0, #0
 2048 0030 47E0     		b	.L166
 2049              	.LVL305:
 2050              	.L165:
 451:TkShell.c     ****     {
 2051              		.loc 1 451 0
 2052 0032 8C68     		ldr	r4, [r1, #8]
 2053              	.LVL306:
 2054 0034 2549     		ldr	r1, .L177+8
 2055              	.LVL307:
 2056 0036 2000     		movs	r0, r4
 2057              	.LVL308:
 2058 0038 FFF7FEFF 		bl	strcicmp
 2059              	.LVL309:
 2060 003c 0028     		cmp	r0, #0
 2061 003e 1FD0     		beq	.L172
 455:TkShell.c     ****     {
 2062              		.loc 1 455 0
 2063 0040 2349     		ldr	r1, .L177+12
 2064 0042 2000     		movs	r0, r4
 2065 0044 FFF7FEFF 		bl	strcicmp
 2066              	.LVL310:
 2067 0048 0028     		cmp	r0, #0
 2068 004a 1BD0     		beq	.L173
 459:TkShell.c     ****     {
 2069              		.loc 1 459 0
 2070 004c 2149     		ldr	r1, .L177+16
ARM GAS  C:\Users\TERENC~1\AppData\Local\Temp\ccVObDgl.s 			page 50


 2071 004e 2000     		movs	r0, r4
 2072 0050 FFF7FEFF 		bl	strcicmp
 2073              	.LVL311:
 2074 0054 0028     		cmp	r0, #0
 2075 0056 17D0     		beq	.L174
 465:TkShell.c     ****         return -2;
 2076              		.loc 1 465 0
 2077 0058 FFF7FEFF 		bl	USBUART_GetConfiguration
 2078              	.LVL312:
 2079 005c 0028     		cmp	r0, #0
 2080 005e 2CD0     		beq	.L175
 2081              	.L169:
 465:TkShell.c     ****         return -2;
 2082              		.loc 1 465 0 is_stmt 0 discriminator 1
 2083 0060 FFF7FEFF 		bl	USBUART_CDCIsReady
 2084              	.LVL313:
 2085 0064 0028     		cmp	r0, #0
 2086 0066 FBD0     		beq	.L169
 465:TkShell.c     ****         return -2;
 2087              		.loc 1 465 0 discriminator 2
 2088 0068 AA68     		ldr	r2, [r5, #8]
 2089 006a 164C     		ldr	r4, .L177
 2090 006c 1A49     		ldr	r1, .L177+20
 2091 006e 2000     		movs	r0, r4
 2092 0070 FFF7FEFF 		bl	sprintf
 2093              	.LVL314:
 2094 0074 2000     		movs	r0, r4
 2095 0076 FFF7FEFF 		bl	USBUART_PutString
 2096              	.LVL315:
 466:TkShell.c     ****     }
 2097              		.loc 1 466 0 is_stmt 1 discriminator 2
 2098 007a 0220     		movs	r0, #2
 2099 007c 4042     		rsbs	r0, r0, #0
 2100 007e 20E0     		b	.L166
 2101              	.L172:
 453:TkShell.c     ****     }
 2102              		.loc 1 453 0
 2103 0080 0020     		movs	r0, #0
 2104 0082 02E0     		b	.L168
 2105              	.L173:
 457:TkShell.c     ****     }
 2106              		.loc 1 457 0
 2107 0084 0120     		movs	r0, #1
 2108 0086 00E0     		b	.L168
 2109              	.L174:
 461:TkShell.c     ****     }
 2110              		.loc 1 461 0
 2111 0088 0220     		movs	r0, #2
 2112              	.L168:
 2113              	.LVL316:
 468:TkShell.c     ****     
 2114              		.loc 1 468 0
 2115 008a FFF7FEFF 		bl	LedManagerStopOverride
 2116              	.LVL317:
 470:TkShell.c     **** 
 2117              		.loc 1 470 0
 2118 008e FFF7FEFF 		bl	USBUART_GetConfiguration
ARM GAS  C:\Users\TERENC~1\AppData\Local\Temp\ccVObDgl.s 			page 51


 2119              	.LVL318:
 2120 0092 0028     		cmp	r0, #0
 2121 0094 14D0     		beq	.L176
 2122              	.L170:
 470:TkShell.c     **** 
 2123              		.loc 1 470 0 is_stmt 0 discriminator 1
 2124 0096 FFF7FEFF 		bl	USBUART_CDCIsReady
 2125              	.LVL319:
 2126 009a 0028     		cmp	r0, #0
 2127 009c FBD0     		beq	.L170
 470:TkShell.c     **** 
 2128              		.loc 1 470 0 discriminator 2
 2129 009e 094C     		ldr	r4, .L177
 2130 00a0 0A22     		movs	r2, #10
 2131 00a2 0E49     		ldr	r1, .L177+24
 2132 00a4 2000     		movs	r0, r4
 2133 00a6 FFF7FEFF 		bl	memcpy
 2134              	.LVL320:
 2135 00aa 2000     		movs	r0, r4
 2136 00ac FFF7FEFF 		bl	USBUART_PutString
 2137              	.LVL321:
 472:TkShell.c     **** }
 2138              		.loc 1 472 0 is_stmt 1 discriminator 2
 2139 00b0 0020     		movs	r0, #0
 2140 00b2 06E0     		b	.L166
 2141              	.LVL322:
 2142              	.L171:
 448:TkShell.c     ****     }
 2143              		.loc 1 448 0
 2144 00b4 0120     		movs	r0, #1
 2145 00b6 4042     		rsbs	r0, r0, #0
 2146 00b8 03E0     		b	.L166
 2147              	.LVL323:
 2148              	.L175:
 466:TkShell.c     ****     }
 2149              		.loc 1 466 0
 2150 00ba 0220     		movs	r0, #2
 2151 00bc 4042     		rsbs	r0, r0, #0
 2152 00be 00E0     		b	.L166
 2153              	.LVL324:
 2154              	.L176:
 472:TkShell.c     **** }
 2155              		.loc 1 472 0
 2156 00c0 0020     		movs	r0, #0
 2157              	.LVL325:
 2158              	.L166:
 473:TkShell.c     **** 
 2159              		.loc 1 473 0
 2160              		@ sp needed
 2161 00c2 70BD     		pop	{r4, r5, r6, pc}
 2162              	.L178:
 2163              		.align	2
 2164              	.L177:
 2165 00c4 00000000 		.word	gbuf
 2166 00c8 74010000 		.word	.LC80
 2167 00cc 98010000 		.word	.LC83
 2168 00d0 9C010000 		.word	.LC85
ARM GAS  C:\Users\TERENC~1\AppData\Local\Temp\ccVObDgl.s 			page 52


 2169 00d4 A4010000 		.word	.LC87
 2170 00d8 AC010000 		.word	.LC89
 2171 00dc D8010000 		.word	.LC91
 2172              		.cfi_endproc
 2173              	.LFE19:
 2174              		.size	__tk_shell_led_stop, .-__tk_shell_led_stop
 2175              		.section	.text.__tk_shell_cal_set,"ax",%progbits
 2176              		.align	2
 2177              		.global	__tk_shell_cal_set
 2178              		.code	16
 2179              		.thumb_func
 2180              		.type	__tk_shell_cal_set, %function
 2181              	__tk_shell_cal_set:
 2182              	.LFB21:
 492:TkShell.c     ****     int i = 2;
 2183              		.loc 1 492 0
 2184              		.cfi_startproc
 2185              		@ args = 0, pretend = 0, frame = 0
 2186              		@ frame_needed = 0, uses_anonymous_args = 0
 2187              	.LVL326:
 2188 0000 70B5     		push	{r4, r5, r6, lr}
 2189              		.cfi_def_cfa_offset 16
 2190              		.cfi_offset 4, -16
 2191              		.cfi_offset 5, -12
 2192              		.cfi_offset 6, -8
 2193              		.cfi_offset 14, -4
 2194 0002 0D00     		movs	r5, r1
 2195              	.LVL327:
 497:TkShell.c     ****     {
 2196              		.loc 1 497 0
 2197 0004 0228     		cmp	r0, #2
 2198 0006 13D1     		bne	.L180
 499:TkShell.c     ****         return -1;
 2199              		.loc 1 499 0
 2200 0008 FFF7FEFF 		bl	USBUART_GetConfiguration
 2201              	.LVL328:
 2202 000c 0028     		cmp	r0, #0
 2203 000e 39D0     		beq	.L185
 2204              	.L182:
 499:TkShell.c     ****         return -1;
 2205              		.loc 1 499 0 is_stmt 0 discriminator 1
 2206 0010 FFF7FEFF 		bl	USBUART_CDCIsReady
 2207              	.LVL329:
 2208 0014 0028     		cmp	r0, #0
 2209 0016 FBD0     		beq	.L182
 499:TkShell.c     ****         return -1;
 2210              		.loc 1 499 0 discriminator 2
 2211 0018 1D4C     		ldr	r4, .L187
 2212 001a 1E22     		movs	r2, #30
 2213 001c 1D49     		ldr	r1, .L187+4
 2214 001e 2000     		movs	r0, r4
 2215 0020 FFF7FEFF 		bl	memcpy
 2216              	.LVL330:
 2217 0024 2000     		movs	r0, r4
 2218 0026 FFF7FEFF 		bl	USBUART_PutString
 2219              	.LVL331:
 500:TkShell.c     ****     }
ARM GAS  C:\Users\TERENC~1\AppData\Local\Temp\ccVObDgl.s 			page 53


 2220              		.loc 1 500 0 is_stmt 1 discriminator 2
 2221 002a 0124     		movs	r4, #1
 2222 002c 6442     		rsbs	r4, r4, #0
 2223 002e 2DE0     		b	.L181
 2224              	.LVL332:
 2225              	.L180:
 503:TkShell.c     ****     {
 2226              		.loc 1 503 0
 2227 0030 8E68     		ldr	r6, [r1, #8]
 2228 0032 1949     		ldr	r1, .L187+8
 2229              	.LVL333:
 2230 0034 3000     		movs	r0, r6
 2231              	.LVL334:
 2232 0036 FFF7FEFF 		bl	strcicmp
 2233              	.LVL335:
 2234 003a 041E     		subs	r4, r0, #0
 2235 003c 06D1     		bne	.L183
 505:TkShell.c     ****     }
 2236              		.loc 1 505 0
 2237 003e 174B     		ldr	r3, .L187+12
 2238 0040 1E68     		ldr	r6, [r3]
 2239              	.LVL336:
 2240 0042 E868     		ldr	r0, [r5, #12]
 2241 0044 FFF7FEFF 		bl	atoi
 2242              	.LVL337:
 2243 0048 3074     		strb	r0, [r6, #16]
 2244 004a 1FE0     		b	.L181
 2245              	.LVL338:
 2246              	.L183:
 507:TkShell.c     ****     {
 2247              		.loc 1 507 0
 2248 004c 1449     		ldr	r1, .L187+16
 2249 004e 3000     		movs	r0, r6
 2250 0050 FFF7FEFF 		bl	strcicmp
 2251              	.LVL339:
 2252 0054 041E     		subs	r4, r0, #0
 2253 0056 06D1     		bne	.L184
 509:TkShell.c     ****     }
 2254              		.loc 1 509 0
 2255 0058 104B     		ldr	r3, .L187+12
 2256 005a 1E68     		ldr	r6, [r3]
 2257              	.LVL340:
 2258 005c E868     		ldr	r0, [r5, #12]
 2259 005e FFF7FEFF 		bl	atoi
 2260              	.LVL341:
 2261 0062 7081     		strh	r0, [r6, #10]
 2262 0064 12E0     		b	.L181
 2263              	.LVL342:
 2264              	.L184:
 511:TkShell.c     ****     {
 2265              		.loc 1 511 0
 2266 0066 0F49     		ldr	r1, .L187+20
 2267 0068 3000     		movs	r0, r6
 2268 006a FFF7FEFF 		bl	strcicmp
 2269              	.LVL343:
 2270 006e 041E     		subs	r4, r0, #0
 2271 0070 0BD1     		bne	.L186
ARM GAS  C:\Users\TERENC~1\AppData\Local\Temp\ccVObDgl.s 			page 54


 513:TkShell.c     ****     }
 2272              		.loc 1 513 0
 2273 0072 0A4B     		ldr	r3, .L187+12
 2274 0074 1E68     		ldr	r6, [r3]
 2275              	.LVL344:
 2276 0076 E868     		ldr	r0, [r5, #12]
 2277 0078 1022     		movs	r2, #16
 2278 007a 0021     		movs	r1, #0
 2279 007c FFF7FEFF 		bl	strtoul
 2280              	.LVL345:
 2281 0080 7074     		strb	r0, [r6, #17]
 2282 0082 03E0     		b	.L181
 2283              	.LVL346:
 2284              	.L185:
 500:TkShell.c     ****     }
 2285              		.loc 1 500 0
 2286 0084 0124     		movs	r4, #1
 2287 0086 6442     		rsbs	r4, r4, #0
 2288 0088 00E0     		b	.L181
 2289              	.L186:
 515:TkShell.c     **** }
 2290              		.loc 1 515 0
 2291 008a 0024     		movs	r4, #0
 2292              	.LVL347:
 2293              	.L181:
 516:TkShell.c     **** 
 2294              		.loc 1 516 0
 2295 008c 2000     		movs	r0, r4
 2296              		@ sp needed
 2297              	.LVL348:
 2298 008e 70BD     		pop	{r4, r5, r6, pc}
 2299              	.L188:
 2300              		.align	2
 2301              	.L187:
 2302 0090 00000000 		.word	gbuf
 2303 0094 0C000000 		.word	.LC4
 2304 0098 E4010000 		.word	.LC102
 2305 009c 00000000 		.word	cal_data
 2306 00a0 F8010000 		.word	.LC105
 2307 00a4 04020000 		.word	.LC107
 2308              		.cfi_endproc
 2309              	.LFE21:
 2310              		.size	__tk_shell_cal_set, .-__tk_shell_cal_set
 2311              		.section	.text.TkShellProcessCommand,"ax",%progbits
 2312              		.align	2
 2313              		.code	16
 2314              		.thumb_func
 2315              		.type	TkShellProcessCommand, %function
 2316              	TkShellProcessCommand:
 2317              	.LFB25:
 539:TkShell.c     **** 
 540:TkShell.c     **** static int TkShellProcessCommand(void)
 541:TkShell.c     **** {
 2318              		.loc 1 541 0
 2319              		.cfi_startproc
 2320              		@ args = 0, pretend = 0, frame = 48
 2321              		@ frame_needed = 0, uses_anonymous_args = 0
ARM GAS  C:\Users\TERENC~1\AppData\Local\Temp\ccVObDgl.s 			page 55


 2322 0000 F0B5     		push	{r4, r5, r6, r7, lr}
 2323              		.cfi_def_cfa_offset 20
 2324              		.cfi_offset 4, -20
 2325              		.cfi_offset 5, -16
 2326              		.cfi_offset 6, -12
 2327              		.cfi_offset 7, -8
 2328              		.cfi_offset 14, -4
 2329 0002 5F46     		mov	r7, fp
 2330 0004 5646     		mov	r6, r10
 2331 0006 4D46     		mov	r5, r9
 2332 0008 4446     		mov	r4, r8
 2333 000a F0B4     		push	{r4, r5, r6, r7}
 2334              		.cfi_def_cfa_offset 36
 2335              		.cfi_offset 8, -36
 2336              		.cfi_offset 9, -32
 2337              		.cfi_offset 10, -28
 2338              		.cfi_offset 11, -24
 2339 000c 8FB0     		sub	sp, sp, #60
 2340              		.cfi_def_cfa_offset 96
 2341              	.LVL349:
 542:TkShell.c     ****     int retval = -1;
 543:TkShell.c     ****     char *buf = cmd_buf;
 544:TkShell.c     ****     bool found = false;
 545:TkShell.c     ****     char *argv[TK_SHELL_MAX_ARGS];
 546:TkShell.c     ****     int argc = 0;
 2342              		.loc 1 546 0
 2343 000e 0023     		movs	r3, #0
 2344 0010 9946     		mov	r9, r3
 543:TkShell.c     ****     bool found = false;
 2345              		.loc 1 543 0
 2346 0012 8E4A     		ldr	r2, .L228
 2347 0014 02E0     		b	.L190
 2348              	.LVL350:
 2349              	.L192:
 547:TkShell.c     ****     int i = 0, j = 0, k = 0;
 548:TkShell.c     ****     
 549:TkShell.c     ****     while (1)
 550:TkShell.c     ****     {
 551:TkShell.c     ****         // skip over whitespace
 552:TkShell.c     ****         while (*buf && isspace(*buf))
 553:TkShell.c     ****         {
 554:TkShell.c     ****           *buf = '\0';
 2350              		.loc 1 554 0
 2351 0016 0023     		movs	r3, #0
 2352 0018 1370     		strb	r3, [r2]
 555:TkShell.c     ****           ++buf;
 2353              		.loc 1 555 0
 2354 001a 0132     		adds	r2, r2, #1
 2355              	.LVL351:
 2356              	.L190:
 552:TkShell.c     ****         {
 2357              		.loc 1 552 0
 2358 001c 1378     		ldrb	r3, [r2]
 2359 001e 002B     		cmp	r3, #0
 2360 0020 05D0     		beq	.L191
 552:TkShell.c     ****         {
 2361              		.loc 1 552 0 is_stmt 0 discriminator 1
ARM GAS  C:\Users\TERENC~1\AppData\Local\Temp\ccVObDgl.s 			page 56


 2362 0022 8B49     		ldr	r1, .L228+4
 2363 0024 0968     		ldr	r1, [r1]
 2364 0026 C918     		adds	r1, r1, r3
 2365 0028 4978     		ldrb	r1, [r1, #1]
 2366 002a 0907     		lsls	r1, r1, #28
 2367 002c F3D4     		bmi	.L192
 2368              	.L191:
 556:TkShell.c     ****         }
 557:TkShell.c     **** 
 558:TkShell.c     ****         if (*buf == '\0')
 2369              		.loc 1 558 0 is_stmt 1
 2370 002e 002B     		cmp	r3, #0
 2371 0030 29D0     		beq	.L193
 559:TkShell.c     ****         {
 560:TkShell.c     ****           break;
 561:TkShell.c     ****         }
 562:TkShell.c     ****         
 563:TkShell.c     ****         argv[argc] = buf;
 2372              		.loc 1 563 0
 2373 0032 4B46     		mov	r3, r9
 2374 0034 9B00     		lsls	r3, r3, #2
 2375 0036 04A9     		add	r1, sp, #16
 2376 0038 5A50     		str	r2, [r3, r1]
 564:TkShell.c     ****         
 565:TkShell.c     ****         // skip over the rest of arg until whitespace again
 566:TkShell.c     ****         while (*buf && !isspace(*buf))
 2377              		.loc 1 566 0
 2378 003a 00E0     		b	.L194
 2379              	.L196:
 567:TkShell.c     ****         {
 568:TkShell.c     ****             buf++;
 2380              		.loc 1 568 0
 2381 003c 0132     		adds	r2, r2, #1
 2382              	.LVL352:
 2383              	.L194:
 566:TkShell.c     ****         {
 2384              		.loc 1 566 0
 2385 003e 1378     		ldrb	r3, [r2]
 2386 0040 002B     		cmp	r3, #0
 2387 0042 05D0     		beq	.L195
 566:TkShell.c     ****         {
 2388              		.loc 1 566 0 is_stmt 0 discriminator 1
 2389 0044 8249     		ldr	r1, .L228+4
 2390 0046 0968     		ldr	r1, [r1]
 2391 0048 CB18     		adds	r3, r1, r3
 2392 004a 5B78     		ldrb	r3, [r3, #1]
 2393 004c 1B07     		lsls	r3, r3, #28
 2394 004e F5D5     		bpl	.L196
 2395              	.L195:
 569:TkShell.c     ****         }
 570:TkShell.c     ****         ++argc;
 2396              		.loc 1 570 0 is_stmt 1
 2397 0050 0123     		movs	r3, #1
 2398 0052 9C46     		mov	ip, r3
 2399 0054 E144     		add	r9, r9, ip
 2400              	.LVL353:
 571:TkShell.c     ****         
ARM GAS  C:\Users\TERENC~1\AppData\Local\Temp\ccVObDgl.s 			page 57


 572:TkShell.c     ****         if (argc > TK_SHELL_MAX_ARGS)
 2401              		.loc 1 572 0
 2402 0056 4B46     		mov	r3, r9
 2403 0058 0A2B     		cmp	r3, #10
 2404 005a DFDD     		ble	.L190
 573:TkShell.c     ****         {
 574:TkShell.c     ****             PRINTF("Too many arguments!\n");
 2405              		.loc 1 574 0
 2406 005c FFF7FEFF 		bl	USBUART_GetConfiguration
 2407              	.LVL354:
 2408 0060 0028     		cmp	r0, #0
 2409 0062 00D1     		bne	.LCB2401
 2410 0064 E4E0     		b	.L223	@long jump
 2411              	.LCB2401:
 2412              	.L199:
 2413              		.loc 1 574 0 is_stmt 0 discriminator 1
 2414 0066 FFF7FEFF 		bl	USBUART_CDCIsReady
 2415              	.LVL355:
 2416 006a 0028     		cmp	r0, #0
 2417 006c FBD0     		beq	.L199
 2418              		.loc 1 574 0 discriminator 2
 2419 006e 794C     		ldr	r4, .L228+8
 2420 0070 1522     		movs	r2, #21
 2421 0072 7949     		ldr	r1, .L228+12
 2422 0074 2000     		movs	r0, r4
 2423 0076 FFF7FEFF 		bl	memcpy
 2424              	.LVL356:
 2425 007a 2000     		movs	r0, r4
 2426 007c FFF7FEFF 		bl	USBUART_PutString
 2427              	.LVL357:
 575:TkShell.c     ****             return -2;
 2428              		.loc 1 575 0 is_stmt 1 discriminator 2
 2429 0080 0220     		movs	r0, #2
 2430 0082 4042     		rsbs	r0, r0, #0
 2431 0084 DAE0     		b	.L198
 2432              	.LVL358:
 2433              	.L193:
 576:TkShell.c     ****         }
 577:TkShell.c     ****     }
 578:TkShell.c     ****     
 579:TkShell.c     ****     if (argc > 0)
 2434              		.loc 1 579 0
 2435 0086 4B46     		mov	r3, r9
 2436 0088 002B     		cmp	r3, #0
 2437 008a 00DD     		ble	.LCB2427
 2438 008c A8E0     		b	.L224	@long jump
 2439              	.LCB2427:
 2440              	.LVL359:
 544:TkShell.c     ****     char *argv[TK_SHELL_MAX_ARGS];
 2441              		.loc 1 544 0
 2442 008e 0023     		movs	r3, #0
 2443              	.LVL360:
 2444 0090 9A46     		mov	r10, r3
 542:TkShell.c     ****     char *buf = cmd_buf;
 2445              		.loc 1 542 0
 2446 0092 013B     		subs	r3, r3, #1
 2447 0094 0393     		str	r3, [sp, #12]
ARM GAS  C:\Users\TERENC~1\AppData\Local\Temp\ccVObDgl.s 			page 58


 2448 0096 B5E0     		b	.L201
 2449              	.LVL361:
 2450              	.L221:
 580:TkShell.c     ****     {
 581:TkShell.c     ****         i = j = k = 0;
 582:TkShell.c     ****         while (strcmp(commands[i].name, "") != 0)
 583:TkShell.c     ****         {
 584:TkShell.c     ****             if (strcicmp(argv[0], commands[i].name) == 0)
 2451              		.loc 1 584 0
 2452 0098 049D     		ldr	r5, [sp, #16]
 2453 009a 0299     		ldr	r1, [sp, #8]
 2454 009c 2800     		movs	r0, r5
 2455 009e FFF7FEFF 		bl	strcicmp
 2456              	.LVL362:
 2457 00a2 0028     		cmp	r0, #0
 2458 00a4 4AD0     		beq	.L202
 2459 00a6 5DE0     		b	.L227
 2460              	.L213:
 585:TkShell.c     ****             {
 586:TkShell.c     ****                 while (strcmp(commands[i].verbs[j].name, "") != 0)
 587:TkShell.c     ****                 {
 588:TkShell.c     ****                     if (strcicmp(argv[1], commands[i].verbs[j].name) == 0)
 2461              		.loc 1 588 0
 2462 00a8 059D     		ldr	r5, [sp, #20]
 2463 00aa 2800     		movs	r0, r5
 2464 00ac FFF7FEFF 		bl	strcicmp
 2465              	.LVL363:
 2466 00b0 0028     		cmp	r0, #0
 2467 00b2 08D1     		bne	.L204
 589:TkShell.c     ****                     {
 590:TkShell.c     ****                         retval = commands[i].verbs[j].func(argc, argv);
 2468              		.loc 1 590 0
 2469 00b4 5B46     		mov	r3, fp
 2470 00b6 5B68     		ldr	r3, [r3, #4]
 2471 00b8 04A9     		add	r1, sp, #16
 2472 00ba 4846     		mov	r0, r9
 2473 00bc 9847     		blx	r3
 2474              	.LVL364:
 2475 00be 0390     		str	r0, [sp, #12]
 2476              	.LVL365:
 591:TkShell.c     ****                         found = true;
 2477              		.loc 1 591 0
 2478 00c0 0123     		movs	r3, #1
 2479 00c2 9A46     		mov	r10, r3
 592:TkShell.c     ****                         break;
 2480              		.loc 1 592 0
 2481 00c4 4AE0     		b	.L205
 2482              	.LVL366:
 2483              	.L204:
 593:TkShell.c     ****                     }
 594:TkShell.c     ****                     else if (strcicmp(argv[1], "help") == 0)
 2484              		.loc 1 594 0
 2485 00c6 6549     		ldr	r1, .L228+16
 2486 00c8 2800     		movs	r0, r5
 2487 00ca FFF7FEFF 		bl	strcicmp
 2488              	.LVL367:
 2489 00ce 0028     		cmp	r0, #0
ARM GAS  C:\Users\TERENC~1\AppData\Local\Temp\ccVObDgl.s 			page 59


 2490 00d0 33D1     		bne	.L206
 2491              	.LVL368:
 595:TkShell.c     ****                     {
 596:TkShell.c     ****                         found = true;
 597:TkShell.c     ****                         PRINTF("Displaying list of %s commands:\n", commands[i].name);
 2492              		.loc 1 597 0
 2493 00d2 FFF7FEFF 		bl	USBUART_GetConfiguration
 2494              	.LVL369:
 2495 00d6 0028     		cmp	r0, #0
 2496 00d8 23D0     		beq	.L209
 2497              	.L208:
 2498              		.loc 1 597 0 is_stmt 0 discriminator 1
 2499 00da FFF7FEFF 		bl	USBUART_CDCIsReady
 2500              	.LVL370:
 2501 00de 0028     		cmp	r0, #0
 2502 00e0 FBD0     		beq	.L208
 2503              		.loc 1 597 0 discriminator 2
 2504 00e2 5C4D     		ldr	r5, .L228+8
 2505 00e4 029A     		ldr	r2, [sp, #8]
 2506 00e6 5E49     		ldr	r1, .L228+20
 2507 00e8 2800     		movs	r0, r5
 2508 00ea FFF7FEFF 		bl	sprintf
 2509              	.LVL371:
 2510 00ee 2800     		movs	r0, r5
 2511 00f0 FFF7FEFF 		bl	USBUART_PutString
 2512              	.LVL372:
 2513 00f4 15E0     		b	.L209
 2514              	.L212:
 598:TkShell.c     ****                         while (strcmp(commands[i].verbs[k].name, "") != 0)
 599:TkShell.c     ****                         {
 600:TkShell.c     ****                             PRINTF("\t%s %s: %s\n", commands[i].name, commands[i].verbs[k].name, co
 2515              		.loc 1 600 0 is_stmt 1
 2516 00f6 FFF7FEFF 		bl	USBUART_GetConfiguration
 2517              	.LVL373:
 2518 00fa 0028     		cmp	r0, #0
 2519 00fc 0ED0     		beq	.L210
 2520              	.L211:
 2521              		.loc 1 600 0 is_stmt 0 discriminator 1
 2522 00fe FFF7FEFF 		bl	USBUART_CDCIsReady
 2523              	.LVL374:
 2524 0102 0028     		cmp	r0, #0
 2525 0104 FBD0     		beq	.L211
 2526              		.loc 1 600 0 discriminator 2
 2527 0106 2B68     		ldr	r3, [r5]
 2528 0108 AA68     		ldr	r2, [r5, #8]
 2529 010a 0092     		str	r2, [sp]
 2530 010c 029A     		ldr	r2, [sp, #8]
 2531 010e 5549     		ldr	r1, .L228+24
 2532 0110 5048     		ldr	r0, .L228+8
 2533 0112 FFF7FEFF 		bl	sprintf
 2534              	.LVL375:
 2535 0116 4F48     		ldr	r0, .L228+8
 2536 0118 FFF7FEFF 		bl	USBUART_PutString
 2537              	.LVL376:
 2538              	.L210:
 601:TkShell.c     ****                             k++;
 2539              		.loc 1 601 0 is_stmt 1
ARM GAS  C:\Users\TERENC~1\AppData\Local\Temp\ccVObDgl.s 			page 60


 2540 011c 0123     		movs	r3, #1
 2541 011e 9C46     		mov	ip, r3
 2542 0120 E044     		add	r8, r8, ip
 2543              	.LVL377:
 2544              	.L209:
 598:TkShell.c     ****                         while (strcmp(commands[i].verbs[k].name, "") != 0)
 2545              		.loc 1 598 0
 2546 0122 4346     		mov	r3, r8
 2547 0124 5B00     		lsls	r3, r3, #1
 2548 0126 4344     		add	r3, r3, r8
 2549 0128 9A00     		lsls	r2, r3, #2
 2550 012a BD18     		adds	r5, r7, r2
 2551 012c 2B68     		ldr	r3, [r5]
 2552 012e 1B78     		ldrb	r3, [r3]
 2553 0130 002B     		cmp	r3, #0
 2554 0132 E0D1     		bne	.L212
 596:TkShell.c     ****                         PRINTF("Displaying list of %s commands:\n", commands[i].name);
 2555              		.loc 1 596 0
 2556 0134 0133     		adds	r3, r3, #1
 2557 0136 9A46     		mov	r10, r3
 2558 0138 10E0     		b	.L205
 2559              	.LVL378:
 2560              	.L206:
 602:TkShell.c     ****                         }
 603:TkShell.c     ****                         break;
 604:TkShell.c     ****                     }
 605:TkShell.c     ****                     j++;
 2561              		.loc 1 605 0
 2562 013a 0134     		adds	r4, r4, #1
 2563              	.LVL379:
 2564              	.L202:
 586:TkShell.c     ****                 {
 2565              		.loc 1 586 0
 2566 013c 7200     		lsls	r2, r6, #1
 2567 013e 9219     		adds	r2, r2, r6
 2568 0140 9300     		lsls	r3, r2, #2
 2569 0142 494A     		ldr	r2, .L228+28
 2570 0144 D318     		adds	r3, r2, r3
 2571 0146 DF6B     		ldr	r7, [r3, #60]
 2572 0148 6300     		lsls	r3, r4, #1
 2573 014a 1B19     		adds	r3, r3, r4
 2574 014c 9A00     		lsls	r2, r3, #2
 2575 014e 9346     		mov	fp, r2
 2576 0150 BB44     		add	fp, fp, r7
 2577 0152 5B46     		mov	r3, fp
 2578 0154 1968     		ldr	r1, [r3]
 2579 0156 0B78     		ldrb	r3, [r1]
 2580 0158 002B     		cmp	r3, #0
 2581 015a A5D1     		bne	.L213
 2582              	.LVL380:
 2583              	.L205:
 606:TkShell.c     ****                 }
 607:TkShell.c     **** 
 608:TkShell.c     ****                 if (found)
 2584              		.loc 1 608 0
 2585 015c 5346     		mov	r3, r10
 2586 015e 002B     		cmp	r3, #0
ARM GAS  C:\Users\TERENC~1\AppData\Local\Temp\ccVObDgl.s 			page 61


 2587 0160 3CD0     		beq	.L214
 2588 0162 4FE0     		b	.L201
 2589              	.L227:
 609:TkShell.c     ****                 {
 610:TkShell.c     ****                     break;
 611:TkShell.c     ****                 }
 612:TkShell.c     ****             }
 613:TkShell.c     ****             else if (strcicmp(argv[0], "help") == 0)
 2590              		.loc 1 613 0
 2591 0164 3D49     		ldr	r1, .L228+16
 2592 0166 2800     		movs	r0, r5
 2593 0168 FFF7FEFF 		bl	strcicmp
 2594              	.LVL381:
 2595 016c 0028     		cmp	r0, #0
 2596 016e 35D1     		bne	.L214
 2597              	.LVL382:
 614:TkShell.c     ****             {
 615:TkShell.c     ****                 found = true;
 616:TkShell.c     ****                 PRINTF("Displaying list of commands:\n");
 2598              		.loc 1 616 0
 2599 0170 FFF7FEFF 		bl	USBUART_GetConfiguration
 2600              	.LVL383:
 2601 0174 0028     		cmp	r0, #0
 2602 0176 25D0     		beq	.L217
 2603              	.L216:
 2604              		.loc 1 616 0 is_stmt 0 discriminator 1
 2605 0178 FFF7FEFF 		bl	USBUART_CDCIsReady
 2606              	.LVL384:
 2607 017c 0028     		cmp	r0, #0
 2608 017e FBD0     		beq	.L216
 2609              		.loc 1 616 0 discriminator 2
 2610 0180 344D     		ldr	r5, .L228+8
 2611 0182 1E22     		movs	r2, #30
 2612 0184 3949     		ldr	r1, .L228+32
 2613 0186 2800     		movs	r0, r5
 2614 0188 FFF7FEFF 		bl	memcpy
 2615              	.LVL385:
 2616 018c 2800     		movs	r0, r5
 2617 018e FFF7FEFF 		bl	USBUART_PutString
 2618              	.LVL386:
 2619 0192 17E0     		b	.L217
 2620              	.LVL387:
 2621              	.L220:
 617:TkShell.c     ****                 while (strcmp(commands[j].name, "") != 0)
 618:TkShell.c     ****                 {
 619:TkShell.c     ****                     PRINTF("\t%s: %s\n", commands[j].name, commands[j].desc);
 2622              		.loc 1 619 0 is_stmt 1
 2623 0194 FFF7FEFF 		bl	USBUART_GetConfiguration
 2624              	.LVL388:
 2625 0198 0028     		cmp	r0, #0
 2626 019a 12D0     		beq	.L218
 2627              	.L219:
 2628              		.loc 1 619 0 is_stmt 0 discriminator 1
 2629 019c FFF7FEFF 		bl	USBUART_CDCIsReady
 2630              	.LVL389:
 2631 01a0 0028     		cmp	r0, #0
 2632 01a2 FBD0     		beq	.L219
ARM GAS  C:\Users\TERENC~1\AppData\Local\Temp\ccVObDgl.s 			page 62


 2633              		.loc 1 619 0 discriminator 2
 2634 01a4 6200     		lsls	r2, r4, #1
 2635 01a6 1219     		adds	r2, r2, r4
 2636 01a8 9300     		lsls	r3, r2, #2
 2637 01aa 2F4A     		ldr	r2, .L228+28
 2638 01ac D318     		adds	r3, r2, r3
 2639 01ae 1B6C     		ldr	r3, [r3, #64]
 2640 01b0 284E     		ldr	r6, .L228+8
 2641 01b2 2A00     		movs	r2, r5
 2642 01b4 2E49     		ldr	r1, .L228+36
 2643 01b6 3000     		movs	r0, r6
 2644 01b8 FFF7FEFF 		bl	sprintf
 2645              	.LVL390:
 2646 01bc 3000     		movs	r0, r6
 2647 01be FFF7FEFF 		bl	USBUART_PutString
 2648              	.LVL391:
 2649              	.L218:
 620:TkShell.c     ****                     j++;
 2650              		.loc 1 620 0 is_stmt 1
 2651 01c2 0134     		adds	r4, r4, #1
 2652              	.LVL392:
 2653              	.L217:
 617:TkShell.c     ****                 while (strcmp(commands[j].name, "") != 0)
 2654              		.loc 1 617 0
 2655 01c4 6200     		lsls	r2, r4, #1
 2656 01c6 1219     		adds	r2, r2, r4
 2657 01c8 9300     		lsls	r3, r2, #2
 2658 01ca 274A     		ldr	r2, .L228+28
 2659 01cc D318     		adds	r3, r2, r3
 2660 01ce 9D6B     		ldr	r5, [r3, #56]
 2661 01d0 2B78     		ldrb	r3, [r5]
 2662 01d2 002B     		cmp	r3, #0
 2663 01d4 DED1     		bne	.L220
 615:TkShell.c     ****                 PRINTF("Displaying list of commands:\n");
 2664              		.loc 1 615 0
 2665 01d6 0133     		adds	r3, r3, #1
 2666 01d8 9A46     		mov	r10, r3
 2667 01da 13E0     		b	.L201
 2668              	.LVL393:
 2669              	.L214:
 621:TkShell.c     ****                 }
 622:TkShell.c     ****                 break;
 623:TkShell.c     ****             }
 624:TkShell.c     ****             i++;
 2670              		.loc 1 624 0
 2671 01dc 0136     		adds	r6, r6, #1
 2672              	.LVL394:
 2673 01de 06E0     		b	.L200
 2674              	.LVL395:
 2675              	.L224:
 2676 01e0 0023     		movs	r3, #0
 2677              	.LVL396:
 2678 01e2 9846     		mov	r8, r3
 2679 01e4 0024     		movs	r4, #0
 2680 01e6 0026     		movs	r6, #0
 2681 01e8 9A46     		mov	r10, r3
 2682 01ea 013B     		subs	r3, r3, #1
ARM GAS  C:\Users\TERENC~1\AppData\Local\Temp\ccVObDgl.s 			page 63


 2683 01ec 0393     		str	r3, [sp, #12]
 2684              	.LVL397:
 2685              	.L200:
 582:TkShell.c     ****         {
 2686              		.loc 1 582 0
 2687 01ee 7200     		lsls	r2, r6, #1
 2688 01f0 9219     		adds	r2, r2, r6
 2689 01f2 9300     		lsls	r3, r2, #2
 2690 01f4 1C4A     		ldr	r2, .L228+28
 2691 01f6 D318     		adds	r3, r2, r3
 2692 01f8 9B6B     		ldr	r3, [r3, #56]
 2693 01fa 0293     		str	r3, [sp, #8]
 2694 01fc 1B78     		ldrb	r3, [r3]
 2695 01fe 002B     		cmp	r3, #0
 2696 0200 00D0     		beq	.LCB2751
 2697 0202 49E7     		b	.L221	@long jump
 2698              	.LCB2751:
 2699              	.LVL398:
 2700              	.L201:
 625:TkShell.c     ****         }
 626:TkShell.c     ****     }
 627:TkShell.c     ****     
 628:TkShell.c     ****     if (!found)
 2701              		.loc 1 628 0
 2702 0204 5346     		mov	r3, r10
 2703 0206 002B     		cmp	r3, #0
 2704 0208 15D1     		bne	.L225
 629:TkShell.c     ****     {
 630:TkShell.c     ****         PRINTF("unknown command: %s\n", argv[0]);
 2705              		.loc 1 630 0
 2706 020a FFF7FEFF 		bl	USBUART_GetConfiguration
 2707              	.LVL399:
 2708 020e 0028     		cmp	r0, #0
 2709 0210 13D0     		beq	.L226
 2710              	.L222:
 2711              		.loc 1 630 0 is_stmt 0 discriminator 1
 2712 0212 FFF7FEFF 		bl	USBUART_CDCIsReady
 2713              	.LVL400:
 2714 0216 0028     		cmp	r0, #0
 2715 0218 FBD0     		beq	.L222
 2716              		.loc 1 630 0 discriminator 2
 2717 021a 0E4C     		ldr	r4, .L228+8
 2718 021c 049A     		ldr	r2, [sp, #16]
 2719 021e 1549     		ldr	r1, .L228+40
 2720 0220 2000     		movs	r0, r4
 2721 0222 FFF7FEFF 		bl	sprintf
 2722              	.LVL401:
 2723 0226 2000     		movs	r0, r4
 2724 0228 FFF7FEFF 		bl	USBUART_PutString
 2725              	.LVL402:
 631:TkShell.c     ****     }
 632:TkShell.c     ****     
 633:TkShell.c     ****     return retval;
 2726              		.loc 1 633 0 is_stmt 1 discriminator 2
 2727 022c 0398     		ldr	r0, [sp, #12]
 2728 022e 05E0     		b	.L198
 2729              	.LVL403:
ARM GAS  C:\Users\TERENC~1\AppData\Local\Temp\ccVObDgl.s 			page 64


 2730              	.L223:
 575:TkShell.c     ****         }
 2731              		.loc 1 575 0
 2732 0230 0220     		movs	r0, #2
 2733 0232 4042     		rsbs	r0, r0, #0
 2734 0234 02E0     		b	.L198
 2735              	.LVL404:
 2736              	.L225:
 2737              		.loc 1 633 0
 2738 0236 0398     		ldr	r0, [sp, #12]
 2739 0238 00E0     		b	.L198
 2740              	.L226:
 2741 023a 0398     		ldr	r0, [sp, #12]
 2742              	.LVL405:
 2743              	.L198:
 634:TkShell.c     **** }
 2744              		.loc 1 634 0
 2745 023c 0FB0     		add	sp, sp, #60
 2746              		@ sp needed
 2747              	.LVL406:
 2748 023e 3CBC     		pop	{r2, r3, r4, r5}
 2749 0240 9046     		mov	r8, r2
 2750 0242 9946     		mov	r9, r3
 2751 0244 A246     		mov	r10, r4
 2752 0246 AB46     		mov	fp, r5
 2753 0248 F0BD     		pop	{r4, r5, r6, r7, pc}
 2754              	.L229:
 2755 024a C046     		.align	2
 2756              	.L228:
 2757 024c 00000000 		.word	.LANCHOR1
 2758 0250 00000000 		.word	__ctype_ptr__
 2759 0254 00000000 		.word	gbuf
 2760 0258 10020000 		.word	.LC112
 2761 025c 28020000 		.word	.LC114
 2762 0260 30020000 		.word	.LC116
 2763 0264 54020000 		.word	.LC118
 2764 0268 00000000 		.word	.LANCHOR0
 2765 026c 60020000 		.word	.LC121
 2766 0270 80020000 		.word	.LC123
 2767 0274 8C020000 		.word	.LC125
 2768              		.cfi_endproc
 2769              	.LFE25:
 2770              		.size	TkShellProcessCommand, .-TkShellProcessCommand
 2771              		.section	.text.TkShellInit,"ax",%progbits
 2772              		.align	2
 2773              		.global	TkShellInit
 2774              		.code	16
 2775              		.thumb_func
 2776              		.type	TkShellInit, %function
 2777              	TkShellInit:
 2778              	.LFB26:
 635:TkShell.c     **** 
 636:TkShell.c     **** void TkShellInit(void)
 637:TkShell.c     **** {
 2779              		.loc 1 637 0
 2780              		.cfi_startproc
 2781              		@ args = 0, pretend = 0, frame = 0
ARM GAS  C:\Users\TERENC~1\AppData\Local\Temp\ccVObDgl.s 			page 65


 2782              		@ frame_needed = 0, uses_anonymous_args = 0
 2783 0000 10B5     		push	{r4, lr}
 2784              		.cfi_def_cfa_offset 8
 2785              		.cfi_offset 4, -8
 2786              		.cfi_offset 14, -4
 638:TkShell.c     ****     memset((void *)cmd_buf, 0, CMD_BUF_LEN);
 2787              		.loc 1 638 0
 2788 0002 054C     		ldr	r4, .L231
 2789 0004 4022     		movs	r2, #64
 2790 0006 0021     		movs	r1, #0
 2791 0008 2000     		movs	r0, r4
 2792 000a FFF7FEFF 		bl	memset
 2793              	.LVL407:
 639:TkShell.c     ****     cmd_char_count = 0;
 2794              		.loc 1 639 0
 2795 000e 0022     		movs	r2, #0
 2796 0010 4023     		movs	r3, #64
 2797 0012 E254     		strb	r2, [r4, r3]
 640:TkShell.c     **** }
 2798              		.loc 1 640 0
 2799              		@ sp needed
 2800 0014 10BD     		pop	{r4, pc}
 2801              	.L232:
 2802 0016 C046     		.align	2
 2803              	.L231:
 2804 0018 00000000 		.word	.LANCHOR1
 2805              		.cfi_endproc
 2806              	.LFE26:
 2807              		.size	TkShellInit, .-TkShellInit
 2808              		.section	.text.TkShellService,"ax",%progbits
 2809              		.align	2
 2810              		.global	TkShellService
 2811              		.code	16
 2812              		.thumb_func
 2813              		.type	TkShellService, %function
 2814              	TkShellService:
 2815              	.LFB27:
 641:TkShell.c     **** 
 642:TkShell.c     **** void TkShellService(void)
 643:TkShell.c     **** {
 2816              		.loc 1 643 0
 2817              		.cfi_startproc
 2818              		@ args = 0, pretend = 0, frame = 64
 2819              		@ frame_needed = 0, uses_anonymous_args = 0
 2820 0000 F0B5     		push	{r4, r5, r6, r7, lr}
 2821              		.cfi_def_cfa_offset 20
 2822              		.cfi_offset 4, -20
 2823              		.cfi_offset 5, -16
 2824              		.cfi_offset 6, -12
 2825              		.cfi_offset 7, -8
 2826              		.cfi_offset 14, -4
 2827 0002 91B0     		sub	sp, sp, #68
 2828              		.cfi_def_cfa_offset 88
 2829              	.LVL408:
 644:TkShell.c     ****     char c;
 645:TkShell.c     ****     uint8 i = 0;
 646:TkShell.c     ****     uint16 count;
ARM GAS  C:\Users\TERENC~1\AppData\Local\Temp\ccVObDgl.s 			page 66


 647:TkShell.c     ****     uint8 buffer[USBUART_BUFFER_SIZE];
 648:TkShell.c     **** //    
 649:TkShell.c     ****     /* Read received data and re-enable OUT endpoint. */
 650:TkShell.c     ****     count = USBUART_GetAll(buffer);
 2830              		.loc 1 650 0
 2831 0004 6846     		mov	r0, sp
 2832 0006 FFF7FEFF 		bl	USBUART_GetAll
 2833              	.LVL409:
 2834 000a 0600     		movs	r6, r0
 2835              	.LVL410:
 645:TkShell.c     ****     uint16 count;
 2836              		.loc 1 645 0
 2837 000c 0025     		movs	r5, #0
 651:TkShell.c     **** //
 652:TkShell.c     **** //                if (0u != count)
 653:TkShell.c     **** //                {
 654:TkShell.c     **** //                    /* Wait until component is ready to send data to host. */
 655:TkShell.c     **** //                    while (0u == USBUART_CDCIsReady())
 656:TkShell.c     **** //                    {
 657:TkShell.c     **** //                    }
 658:TkShell.c     **** //
 659:TkShell.c     **** //                    /* Send data back to host. */
 660:TkShell.c     **** //                    USBUART_PutData(buffer, count);
 661:TkShell.c     **** //
 662:TkShell.c     **** //                    /* If the last sent packet is exactly the maximum packet 
 663:TkShell.c     **** //                    *  size, it is followed by a zero-length packet to assure
 664:TkShell.c     **** //                    *  that the end of the segment is properly identified by 
 665:TkShell.c     **** //                    *  the terminal.
 666:TkShell.c     **** //                    */
 667:TkShell.c     **** //                    if (USBUART_BUFFER_SIZE == count)
 668:TkShell.c     **** //                    {
 669:TkShell.c     **** //                        /* Wait until component is ready to send data to PC. */
 670:TkShell.c     **** //                        while (0u == USBUART_CDCIsReady())
 671:TkShell.c     **** //                        {
 672:TkShell.c     **** //                        }
 673:TkShell.c     **** //
 674:TkShell.c     **** //                        /* Send zero-length packet to PC. */
 675:TkShell.c     **** //                        USBUART_PutData(NULL, 0u);
 676:TkShell.c     **** //                    }
 677:TkShell.c     **** //                }
 678:TkShell.c     **** //
 679:TkShell.c     ****     while ((c = buffer[i]) != 0 && i < count)
 2838              		.loc 1 679 0
 2839 000e 74E0     		b	.L234
 2840              	.LVL411:
 2841              	.L249:
 680:TkShell.c     ****     {
 681:TkShell.c     ****         i++;
 2842              		.loc 1 681 0
 2843 0010 0135     		adds	r5, r5, #1
 2844              	.LVL412:
 2845 0012 EDB2     		uxtb	r5, r5
 2846              	.LVL413:
 682:TkShell.c     ****         switch (c)
 2847              		.loc 1 682 0
 2848 0014 0A2C     		cmp	r4, #10
 2849 0016 0AD0     		beq	.L236
ARM GAS  C:\Users\TERENC~1\AppData\Local\Temp\ccVObDgl.s 			page 67


 2850 0018 04D8     		bhi	.L237
 2851 001a 032C     		cmp	r4, #3
 2852 001c 07D0     		beq	.L236
 2853 001e 082C     		cmp	r4, #8
 2854 0020 34D0     		beq	.L238
 2855 0022 50E0     		b	.L235
 2856              	.L237:
 2857 0024 0D2C     		cmp	r4, #13
 2858 0026 02D0     		beq	.L236
 2859 0028 7F2C     		cmp	r4, #127
 2860 002a 2FD0     		beq	.L238
 2861 002c 4BE0     		b	.L235
 2862              	.L236:
 683:TkShell.c     ****         {
 684:TkShell.c     ****             case '\r':
 685:TkShell.c     ****             case '\n':
 686:TkShell.c     ****             case 0x03:
 687:TkShell.c     ****                 PRINTF("%c", c);
 2863              		.loc 1 687 0
 2864 002e FFF7FEFF 		bl	USBUART_GetConfiguration
 2865              	.LVL414:
 2866 0032 0028     		cmp	r0, #0
 2867 0034 0CD0     		beq	.L239
 2868              	.L240:
 2869              		.loc 1 687 0 is_stmt 0 discriminator 1
 2870 0036 FFF7FEFF 		bl	USBUART_CDCIsReady
 2871              	.LVL415:
 2872 003a 0028     		cmp	r0, #0
 2873 003c FBD0     		beq	.L240
 2874              		.loc 1 687 0 discriminator 2
 2875 003e 334F     		ldr	r7, .L250
 2876 0040 2200     		movs	r2, r4
 2877 0042 3349     		ldr	r1, .L250+4
 2878 0044 3800     		movs	r0, r7
 2879 0046 FFF7FEFF 		bl	sprintf
 2880              	.LVL416:
 2881 004a 3800     		movs	r0, r7
 2882 004c FFF7FEFF 		bl	USBUART_PutString
 2883              	.LVL417:
 2884              	.L239:
 688:TkShell.c     ****                 if (cmd_char_count > 0)
 2885              		.loc 1 688 0 is_stmt 1
 2886 0050 4023     		movs	r3, #64
 2887 0052 304A     		ldr	r2, .L250+8
 2888 0054 D35C     		ldrb	r3, [r2, r3]
 2889 0056 002B     		cmp	r3, #0
 2890 0058 01D0     		beq	.L241
 689:TkShell.c     ****                 {
 690:TkShell.c     ****                     TkShellProcessCommand();
 2891              		.loc 1 690 0
 2892 005a FFF7FEFF 		bl	TkShellProcessCommand
 2893              	.LVL418:
 2894              	.L241:
 691:TkShell.c     ****                 }
 692:TkShell.c     ****                 PRINTF("\U00002744 ] ");
 2895              		.loc 1 692 0
 2896 005e FFF7FEFF 		bl	USBUART_GetConfiguration
ARM GAS  C:\Users\TERENC~1\AppData\Local\Temp\ccVObDgl.s 			page 68


 2897              	.LVL419:
 2898 0062 0028     		cmp	r0, #0
 2899 0064 0CD0     		beq	.L242
 2900              	.L243:
 2901              		.loc 1 692 0 is_stmt 0 discriminator 1
 2902 0066 FFF7FEFF 		bl	USBUART_CDCIsReady
 2903              	.LVL420:
 2904 006a 0028     		cmp	r0, #0
 2905 006c FBD0     		beq	.L243
 2906              		.loc 1 692 0 discriminator 2
 2907 006e 274C     		ldr	r4, .L250
 2908              	.LVL421:
 2909 0070 0722     		movs	r2, #7
 2910 0072 2949     		ldr	r1, .L250+12
 2911 0074 2000     		movs	r0, r4
 2912 0076 FFF7FEFF 		bl	memcpy
 2913              	.LVL422:
 2914 007a 2000     		movs	r0, r4
 2915 007c FFF7FEFF 		bl	USBUART_PutString
 2916              	.LVL423:
 2917              	.L242:
 693:TkShell.c     ****                 cmd_char_count = 0;
 2918              		.loc 1 693 0 is_stmt 1
 2919 0080 244B     		ldr	r3, .L250+8
 2920 0082 0022     		movs	r2, #0
 2921 0084 4021     		movs	r1, #64
 2922 0086 5A54     		strb	r2, [r3, r1]
 694:TkShell.c     ****                 cmd_buf[0] = '\0';
 2923              		.loc 1 694 0
 2924 0088 1A70     		strb	r2, [r3]
 695:TkShell.c     ****                 break;
 2925              		.loc 1 695 0
 2926 008a 36E0     		b	.L234
 2927              	.LVL424:
 2928              	.L238:
 696:TkShell.c     ****                 
 697:TkShell.c     ****             case 127:
 698:TkShell.c     ****             case '\b':
 699:TkShell.c     ****                 if (cmd_char_count == 0)
 2929              		.loc 1 699 0
 2930 008c 4023     		movs	r3, #64
 2931 008e 214A     		ldr	r2, .L250+8
 2932 0090 D35C     		ldrb	r3, [r2, r3]
 2933 0092 002B     		cmp	r3, #0
 2934 0094 31D0     		beq	.L234
 700:TkShell.c     ****                 {
 701:TkShell.c     ****                     break;
 702:TkShell.c     ****                 }
 703:TkShell.c     ****                 cmd_buf[--cmd_char_count] = '\0';
 2935              		.loc 1 703 0
 2936 0096 013B     		subs	r3, r3, #1
 2937 0098 DBB2     		uxtb	r3, r3
 2938 009a 4021     		movs	r1, #64
 2939 009c 5354     		strb	r3, [r2, r1]
 2940 009e 0021     		movs	r1, #0
 2941 00a0 D154     		strb	r1, [r2, r3]
 704:TkShell.c     ****                 PRINTF("\b \b");
ARM GAS  C:\Users\TERENC~1\AppData\Local\Temp\ccVObDgl.s 			page 69


 2942              		.loc 1 704 0
 2943 00a2 FFF7FEFF 		bl	USBUART_GetConfiguration
 2944              	.LVL425:
 2945 00a6 0028     		cmp	r0, #0
 2946 00a8 27D0     		beq	.L234
 2947              	.L245:
 2948              		.loc 1 704 0 is_stmt 0 discriminator 1
 2949 00aa FFF7FEFF 		bl	USBUART_CDCIsReady
 2950              	.LVL426:
 2951 00ae 0028     		cmp	r0, #0
 2952 00b0 FBD0     		beq	.L245
 2953              		.loc 1 704 0 discriminator 2
 2954 00b2 164C     		ldr	r4, .L250
 2955              	.LVL427:
 2956 00b4 0422     		movs	r2, #4
 2957 00b6 1949     		ldr	r1, .L250+16
 2958 00b8 2000     		movs	r0, r4
 2959 00ba FFF7FEFF 		bl	memcpy
 2960              	.LVL428:
 2961 00be 2000     		movs	r0, r4
 2962 00c0 FFF7FEFF 		bl	USBUART_PutString
 2963              	.LVL429:
 2964 00c4 19E0     		b	.L234
 2965              	.LVL430:
 2966              	.L235:
 705:TkShell.c     ****                 break;
 706:TkShell.c     **** 
 707:TkShell.c     ****             default:
 708:TkShell.c     ****                 PRINTF("%c", c);
 2967              		.loc 1 708 0 is_stmt 1
 2968 00c6 FFF7FEFF 		bl	USBUART_GetConfiguration
 2969              	.LVL431:
 2970 00ca 0028     		cmp	r0, #0
 2971 00cc 0CD0     		beq	.L246
 2972              	.L247:
 2973              		.loc 1 708 0 is_stmt 0 discriminator 1
 2974 00ce FFF7FEFF 		bl	USBUART_CDCIsReady
 2975              	.LVL432:
 2976 00d2 0028     		cmp	r0, #0
 2977 00d4 FBD0     		beq	.L247
 2978              		.loc 1 708 0 discriminator 2
 2979 00d6 0D4F     		ldr	r7, .L250
 2980 00d8 2200     		movs	r2, r4
 2981 00da 0D49     		ldr	r1, .L250+4
 2982 00dc 3800     		movs	r0, r7
 2983 00de FFF7FEFF 		bl	sprintf
 2984              	.LVL433:
 2985 00e2 3800     		movs	r0, r7
 2986 00e4 FFF7FEFF 		bl	USBUART_PutString
 2987              	.LVL434:
 2988              	.L246:
 709:TkShell.c     ****                 cmd_buf[cmd_char_count++] = c;
 2989              		.loc 1 709 0 is_stmt 1
 2990 00e8 0A4A     		ldr	r2, .L250+8
 2991 00ea 4020     		movs	r0, #64
 2992 00ec 115C     		ldrb	r1, [r2, r0]
 2993 00ee 4B1C     		adds	r3, r1, #1
ARM GAS  C:\Users\TERENC~1\AppData\Local\Temp\ccVObDgl.s 			page 70


 2994 00f0 DBB2     		uxtb	r3, r3
 2995 00f2 1354     		strb	r3, [r2, r0]
 2996 00f4 5454     		strb	r4, [r2, r1]
 710:TkShell.c     ****                 cmd_buf[cmd_char_count] = '\0';
 2997              		.loc 1 710 0
 2998 00f6 0021     		movs	r1, #0
 2999 00f8 D154     		strb	r1, [r2, r3]
 3000              	.LVL435:
 3001              	.L234:
 679:TkShell.c     ****     {
 3002              		.loc 1 679 0
 3003 00fa 6B46     		mov	r3, sp
 3004 00fc 5C5D     		ldrb	r4, [r3, r5]
 3005              	.LVL436:
 3006 00fe 002C     		cmp	r4, #0
 3007 0100 02D0     		beq	.L233
 679:TkShell.c     ****     {
 3008              		.loc 1 679 0 is_stmt 0 discriminator 1
 3009 0102 ABB2     		uxth	r3, r5
 3010 0104 9E42     		cmp	r6, r3
 3011 0106 83D8     		bhi	.L249
 3012              	.L233:
 711:TkShell.c     ****                 break;
 712:TkShell.c     ****         }
 713:TkShell.c     ****     }
 714:TkShell.c     **** }
 3013              		.loc 1 714 0 is_stmt 1
 3014 0108 11B0     		add	sp, sp, #68
 3015              		@ sp needed
 3016              	.LVL437:
 3017              	.LVL438:
 3018              	.LVL439:
 3019 010a F0BD     		pop	{r4, r5, r6, r7, pc}
 3020              	.L251:
 3021              		.align	2
 3022              	.L250:
 3023 010c 00000000 		.word	gbuf
 3024 0110 A4020000 		.word	.LC128
 3025 0114 00000000 		.word	.LANCHOR1
 3026 0118 A8020000 		.word	.LC132
 3027 011c B0020000 		.word	.LC134
 3028              		.cfi_endproc
 3029              	.LFE27:
 3030              		.size	TkShellService, .-TkShellService
 3031              		.section	.rodata
 3032              		.align	2
 3033              		.set	.LANCHOR0,. + 0
 3034              		.type	reg_lookup, %object
 3035              		.size	reg_lookup, 56
 3036              	reg_lookup:
 3037 0000 00000440 		.word	1074003968
 3038 0004 00010440 		.word	1074004224
 3039 0008 00020440 		.word	1074004480
 3040 000c 00030440 		.word	1074004736
 3041 0010 00040440 		.word	1074004992
 3042 0014 00050440 		.word	1074005248
 3043 0018 00060440 		.word	1074005504
ARM GAS  C:\Users\TERENC~1\AppData\Local\Temp\ccVObDgl.s 			page 71


 3044 001c 00070440 		.word	1074005760
 3045 0020 00080440 		.word	1074006016
 3046 0024 00090440 		.word	1074006272
 3047 0028 000A0440 		.word	1074006528
 3048 002c 000B0440 		.word	1074006784
 3049 0030 000C0440 		.word	1074007040
 3050 0034 000D0440 		.word	1074007296
 3051              		.type	commands, %object
 3052              		.size	commands, 96
 3053              	commands:
 3054 0038 B4020000 		.word	.LC136
 3055 003c C4010000 		.word	__tk_shell_verbs_gpio
 3056 0040 BC020000 		.word	.LC137
 3057 0044 CC020000 		.word	.LC138
 3058 0048 88010000 		.word	__tk_shell_verbs_wm
 3059 004c D0020000 		.word	.LC139
 3060 0050 E8020000 		.word	.LC140
 3061 0054 4C010000 		.word	__tk_shell_verbs_rf
 3062 0058 EC020000 		.word	.LC141
 3063 005c 00030000 		.word	.LC142
 3064 0060 10010000 		.word	__tk_shell_verbs_sys
 3065 0064 04030000 		.word	.LC143
 3066 0068 14030000 		.word	.LC144
 3067 006c EC000000 		.word	__tk_shell_verbs_led
 3068 0070 18030000 		.word	.LC145
 3069 0074 28030000 		.word	.LC146
 3070 0078 BC000000 		.word	__tk_shell_verbs_cal
 3071 007c 2C030000 		.word	.LC147
 3072 0080 48030000 		.word	.LC148
 3073 0084 98000000 		.word	__tk_shell_verbs_audio
 3074 0088 50030000 		.word	.LC149
 3075 008c 60030000 		.word	.LC150
 3076 0090 00000000 		.word	0
 3077 0094 60030000 		.word	.LC150
 3078              		.type	__tk_shell_verbs_audio, %object
 3079              		.size	__tk_shell_verbs_audio, 36
 3080              	__tk_shell_verbs_audio:
 3081 0098 64030000 		.word	.LC151
 3082 009c 00000000 		.word	__tk_shell_audio_play_tone
 3083 00a0 70030000 		.word	.LC152
 3084 00a4 7C030000 		.word	.LC153
 3085 00a8 00000000 		.word	__tk_shell_audio_stop_tone
 3086 00ac 88030000 		.word	.LC154
 3087 00b0 60030000 		.word	.LC150
 3088 00b4 00000000 		.word	0
 3089 00b8 60030000 		.word	.LC150
 3090              		.type	__tk_shell_verbs_cal, %object
 3091              		.size	__tk_shell_verbs_cal, 48
 3092              	__tk_shell_verbs_cal:
 3093 00bc 94030000 		.word	.LC155
 3094 00c0 00000000 		.word	__tk_shell_cal_print
 3095 00c4 9C030000 		.word	.LC156
 3096 00c8 AC030000 		.word	.LC157
 3097 00cc 00000000 		.word	__tk_shell_cal_set
 3098 00d0 B0030000 		.word	.LC158
 3099 00d4 C0030000 		.word	.LC159
 3100 00d8 00000000 		.word	__tk_shell_cal_save
ARM GAS  C:\Users\TERENC~1\AppData\Local\Temp\ccVObDgl.s 			page 72


 3101 00dc C8030000 		.word	.LC160
 3102 00e0 60030000 		.word	.LC150
 3103 00e4 00000000 		.word	0
 3104 00e8 60030000 		.word	.LC150
 3105              		.type	__tk_shell_verbs_led, %object
 3106              		.size	__tk_shell_verbs_led, 36
 3107              	__tk_shell_verbs_led:
 3108 00ec E4030000 		.word	.LC161
 3109 00f0 00000000 		.word	__tk_shell_led_start
 3110 00f4 EC030000 		.word	.LC162
 3111 00f8 48040000 		.word	.LC163
 3112 00fc 00000000 		.word	__tk_shell_led_stop
 3113 0100 50040000 		.word	.LC164
 3114 0104 60030000 		.word	.LC150
 3115 0108 00000000 		.word	0
 3116 010c 60030000 		.word	.LC150
 3117              		.type	__tk_shell_verbs_sys, %object
 3118              		.size	__tk_shell_verbs_sys, 60
 3119              	__tk_shell_verbs_sys:
 3120 0110 78040000 		.word	.LC165
 3121 0114 00000000 		.word	__tk_shell_sys_crash
 3122 0118 80040000 		.word	.LC166
 3123 011c 98040000 		.word	.LC167
 3124 0120 00000000 		.word	__tk_shell_sys_info
 3125 0124 A0040000 		.word	.LC168
 3126 0128 AC040000 		.word	.LC169
 3127 012c 00000000 		.word	__tk_shell_sys_reset
 3128 0130 B4040000 		.word	.LC170
 3129 0134 C8040000 		.word	.LC171
 3130 0138 00000000 		.word	__tk_shell_sys_adc
 3131 013c CC040000 		.word	.LC172
 3132 0140 60030000 		.word	.LC150
 3133 0144 00000000 		.word	0
 3134 0148 60030000 		.word	.LC150
 3135              		.type	__tk_shell_verbs_rf, %object
 3136              		.size	__tk_shell_verbs_rf, 60
 3137              	__tk_shell_verbs_rf:
 3138 014c E0040000 		.word	.LC173
 3139 0150 00000000 		.word	__tk_shell_rf_init
 3140 0154 E8040000 		.word	.LC174
 3141 0158 FC040000 		.word	.LC175
 3142 015c 00000000 		.word	__tk_shell_rf_bl_unlock
 3143 0160 08050000 		.word	.LC176
 3144 0164 20050000 		.word	.LC177
 3145 0168 00000000 		.word	__tk_shell_rf_status
 3146 016c 28050000 		.word	.LC178
 3147 0170 98040000 		.word	.LC167
 3148 0174 00000000 		.word	__tk_shell_rf_info
 3149 0178 34050000 		.word	.LC179
 3150 017c 60030000 		.word	.LC150
 3151 0180 00000000 		.word	0
 3152 0184 60030000 		.word	.LC150
 3153              		.type	__tk_shell_verbs_wm, %object
 3154              		.size	__tk_shell_verbs_wm, 60
 3155              	__tk_shell_verbs_wm:
 3156 0188 48050000 		.word	.LC180
 3157 018c 00000000 		.word	__tk_shell_wm_vol_set
ARM GAS  C:\Users\TERENC~1\AppData\Local\Temp\ccVObDgl.s 			page 73


 3158 0190 50050000 		.word	.LC181
 3159 0194 70050000 		.word	.LC182
 3160 0198 00000000 		.word	__tk_shell_wm_vol_get
 3161 019c 78050000 		.word	.LC183
 3162 01a0 8C050000 		.word	.LC184
 3163 01a4 00000000 		.word	__tk_shell_wm_reg_wr
 3164 01a8 94050000 		.word	.LC185
 3165 01ac BC050000 		.word	.LC186
 3166 01b0 00000000 		.word	__tk_shell_wm_reg_rd
 3167 01b4 C4050000 		.word	.LC187
 3168 01b8 60030000 		.word	.LC150
 3169 01bc 00000000 		.word	0
 3170 01c0 60030000 		.word	.LC150
 3171              		.type	__tk_shell_verbs_gpio, %object
 3172              		.size	__tk_shell_verbs_gpio, 48
 3173              	__tk_shell_verbs_gpio:
 3174 01c4 AC030000 		.word	.LC157
 3175 01c8 00000000 		.word	__tk_shell_gpio_set
 3176 01cc E0050000 		.word	.LC188
 3177 01d0 F0050000 		.word	.LC189
 3178 01d4 00000000 		.word	__tk_shell_gpio_config
 3179 01d8 F8050000 		.word	.LC190
 3180 01dc 08060000 		.word	.LC191
 3181 01e0 00000000 		.word	__tk_shell_gpio_get
 3182 01e4 0C060000 		.word	.LC192
 3183 01e8 60030000 		.word	.LC150
 3184 01ec 00000000 		.word	0
 3185 01f0 60030000 		.word	.LC150
 3186              		.section	.rodata.str1.4,"aMS",%progbits,1
 3187              		.align	2
 3188              	.LC1:
 3189 0000 3E207379 		.ascii	"> sys:er\012\000"
 3189      733A6572 
 3189      0A00
 3190 000a 0000     		.space	2
 3191              	.LC4:
 3192 000c 496E7661 		.ascii	"Invalid number of arguments!\012\000"
 3192      6C696420 
 3192      6E756D62 
 3192      6572206F 
 3192      66206172 
 3193 002a 0000     		.space	2
 3194              	.LC10:
 3195 002c 3E206770 		.ascii	"> gpio:ok %d\012\000"
 3195      696F3A6F 
 3195      6B202564 
 3195      0A00
 3196 003a 0000     		.space	2
 3197              	.LC17:
 3198 003c 3E207379 		.ascii	"> sys:ok %08lu\012\000"
 3198      733A6F6B 
 3198      20253038 
 3198      6C750A00 
 3199              	.LC21:
 3200 004c 3E207379 		.ascii	"> sys:ok %d,%d\012\000"
 3200      733A6F6B 
 3200      2025642C 
ARM GAS  C:\Users\TERENC~1\AppData\Local\Temp\ccVObDgl.s 			page 74


 3200      25640A00 
 3201              	.LC25:
 3202 005c 7369676E 		.ascii	"sign = 0x%08X\012\000"
 3202      203D2030 
 3202      78253038 
 3202      580A00
 3203 006b 00       		.space	1
 3204              	.LC28:
 3205 006c 63747220 		.ascii	"ctr = %lu\012\000"
 3205      3D20256C 
 3205      750A00
 3206 0077 00       		.space	1
 3207              	.LC30:
 3208 0078 6164635F 		.ascii	"adc_min[R] = %d\012\000"
 3208      6D696E5B 
 3208      525D203D 
 3208      2025640A 
 3208      00
 3209 0089 000000   		.space	3
 3210              	.LC32:
 3211 008c 6164635F 		.ascii	"adc_max[R] = %d\012\000"
 3211      6D61785B 
 3211      525D203D 
 3211      2025640A 
 3211      00
 3212 009d 000000   		.space	3
 3213              	.LC34:
 3214 00a0 6164635F 		.ascii	"adc_min[L] = %d\012\000"
 3214      6D696E5B 
 3214      4C5D203D 
 3214      2025640A 
 3214      00
 3215 00b1 000000   		.space	3
 3216              	.LC36:
 3217 00b4 6164635F 		.ascii	"adc_max[L] = %d\012\000"
 3217      6D61785B 
 3217      4C5D203D 
 3217      2025640A 
 3217      00
 3218 00c5 000000   		.space	3
 3219              	.LC38:
 3220 00c8 6C65645F 		.ascii	"led_max_brightness = %d\012\000"
 3220      6D61785F 
 3220      62726967 
 3220      68746E65 
 3220      7373203D 
 3221 00e1 000000   		.space	3
 3222              	.LC40:
 3223 00e4 64656275 		.ascii	"debug_mask = 0x%02X\012\000"
 3223      675F6D61 
 3223      736B203D 
 3223      20307825 
 3223      3032580A 
 3224 00f9 000000   		.space	3
 3225              	.LC42:
 3226 00fc 3E206361 		.ascii	"> cal:ok\012\000"
 3226      6C3A6F6B 
ARM GAS  C:\Users\TERENC~1\AppData\Local\Temp\ccVObDgl.s 			page 75


 3226      0A00
 3227 0106 0000     		.space	2
 3228              	.LC46:
 3229 0108 3E20776D 		.ascii	"> wm:ok\012\000"
 3229      3A6F6B0A 
 3229      00
 3230 0111 000000   		.space	3
 3231              	.LC48:
 3232 0114 3E20776D 		.ascii	"> wm:er %d\012\000"
 3232      3A657220 
 3232      25640A00 
 3233              	.LC50:
 3234 0120 3E20776D 		.ascii	"> wm:ok %d\012\000"
 3234      3A6F6B20 
 3234      25640A00 
 3235              	.LC59:
 3236 012c 3E20776D 		.ascii	"> wm:ok 0x%04X\012\000"
 3236      3A6F6B20 
 3236      30782530 
 3236      34580A00 
 3237              	.LC62:
 3238 013c 3E207266 		.ascii	"> rf:ok\012\000"
 3238      3A6F6B0A 
 3238      00
 3239 0145 000000   		.space	3
 3240              	.LC66:
 3241 0148 3E207266 		.ascii	"> rf:ok 0x%04X\012\000"
 3241      3A6F6B20 
 3241      30782530 
 3241      34580A00 
 3242              	.LC71:
 3243 0158 3E206361 		.ascii	"> cal:ok %d\012\000"
 3243      6C3A6F6B 
 3243      2025640A 
 3243      00
 3244 0165 000000   		.space	3
 3245              	.LC75:
 3246 0168 3E206175 		.ascii	"> audio:ok\012\000"
 3246      64696F3A 
 3246      6F6B0A00 
 3247              	.LC80:
 3248 0174 496E7661 		.ascii	"Invalid number of arguments: %d\012\000"
 3248      6C696420 
 3248      6E756D62 
 3248      6572206F 
 3248      66206172 
 3249 0195 000000   		.space	3
 3250              	.LC83:
 3251 0198 72656400 		.ascii	"red\000"
 3252              	.LC85:
 3253 019c 67726565 		.ascii	"green\000"
 3253      6E00
 3254 01a2 0000     		.space	2
 3255              	.LC87:
 3256 01a4 626C7565 		.ascii	"blue\000"
 3256      00
 3257 01a9 000000   		.space	3
ARM GAS  C:\Users\TERENC~1\AppData\Local\Temp\ccVObDgl.s 			page 76


 3258              	.LC89:
 3259 01ac 496E7661 		.ascii	"Invalid color %s, must be red|green|blue\012\000"
 3259      6C696420 
 3259      636F6C6F 
 3259      72202573 
 3259      2C206D75 
 3260 01d6 0000     		.space	2
 3261              	.LC91:
 3262 01d8 3E206C65 		.ascii	"> led:ok\012\000"
 3262      643A6F6B 
 3262      0A00
 3263 01e2 0000     		.space	2
 3264              	.LC102:
 3265 01e4 6C65645F 		.ascii	"led_max_brightness\000"
 3265      6D61785F 
 3265      62726967 
 3265      68746E65 
 3265      737300
 3266 01f7 00       		.space	1
 3267              	.LC105:
 3268 01f8 6164635F 		.ascii	"adc_min_l\000"
 3268      6D696E5F 
 3268      6C00
 3269 0202 0000     		.space	2
 3270              	.LC107:
 3271 0204 64656275 		.ascii	"debug_mask\000"
 3271      675F6D61 
 3271      736B00
 3272 020f 00       		.space	1
 3273              	.LC112:
 3274 0210 546F6F20 		.ascii	"Too many arguments!\012\000"
 3274      6D616E79 
 3274      20617267 
 3274      756D656E 
 3274      7473210A 
 3275 0225 000000   		.space	3
 3276              	.LC114:
 3277 0228 68656C70 		.ascii	"help\000"
 3277      00
 3278 022d 000000   		.space	3
 3279              	.LC116:
 3280 0230 44697370 		.ascii	"Displaying list of %s commands:\012\000"
 3280      6C617969 
 3280      6E67206C 
 3280      69737420 
 3280      6F662025 
 3281 0251 000000   		.space	3
 3282              	.LC118:
 3283 0254 09257320 		.ascii	"\011%s %s: %s\012\000"
 3283      25733A20 
 3283      25730A00 
 3284              	.LC121:
 3285 0260 44697370 		.ascii	"Displaying list of commands:\012\000"
 3285      6C617969 
 3285      6E67206C 
 3285      69737420 
 3285      6F662063 
ARM GAS  C:\Users\TERENC~1\AppData\Local\Temp\ccVObDgl.s 			page 77


 3286 027e 0000     		.space	2
 3287              	.LC123:
 3288 0280 0925733A 		.ascii	"\011%s: %s\012\000"
 3288      2025730A 
 3288      00
 3289 0289 000000   		.space	3
 3290              	.LC125:
 3291 028c 756E6B6E 		.ascii	"unknown command: %s\012\000"
 3291      6F776E20 
 3291      636F6D6D 
 3291      616E643A 
 3291      2025730A 
 3292 02a1 000000   		.space	3
 3293              	.LC128:
 3294 02a4 256300   		.ascii	"%c\000"
 3295 02a7 00       		.space	1
 3296              	.LC132:
 3297 02a8 E29D8420 		.ascii	"\342\235\204 ] \000"
 3297      5D2000
 3298 02af 00       		.space	1
 3299              	.LC134:
 3300 02b0 08200800 		.ascii	"\010 \010\000"
 3301              	.LC136:
 3302 02b4 6770696F 		.ascii	"gpio\000"
 3302      00
 3303 02b9 000000   		.space	3
 3304              	.LC137:
 3305 02bc 4750494F 		.ascii	"GPIO commands\000"
 3305      20636F6D 
 3305      6D616E64 
 3305      7300
 3306 02ca 0000     		.space	2
 3307              	.LC138:
 3308 02cc 776D00   		.ascii	"wm\000"
 3309 02cf 00       		.space	1
 3310              	.LC139:
 3311 02d0 576F6C66 		.ascii	"Wolfson Codec commands\000"
 3311      736F6E20 
 3311      436F6465 
 3311      6320636F 
 3311      6D6D616E 
 3312 02e7 00       		.space	1
 3313              	.LC140:
 3314 02e8 726600   		.ascii	"rf\000"
 3315 02eb 00       		.space	1
 3316              	.LC141:
 3317 02ec 52462063 		.ascii	"RF chip commands\000"
 3317      68697020 
 3317      636F6D6D 
 3317      616E6473 
 3317      00
 3318 02fd 000000   		.space	3
 3319              	.LC142:
 3320 0300 73797300 		.ascii	"sys\000"
 3321              	.LC143:
 3322 0304 53797374 		.ascii	"System commands\000"
 3322      656D2063 
ARM GAS  C:\Users\TERENC~1\AppData\Local\Temp\ccVObDgl.s 			page 78


 3322      6F6D6D61 
 3322      6E647300 
 3323              	.LC144:
 3324 0314 6C656400 		.ascii	"led\000"
 3325              	.LC145:
 3326 0318 4C454420 		.ascii	"LED commands\000"
 3326      636F6D6D 
 3326      616E6473 
 3326      00
 3327 0325 000000   		.space	3
 3328              	.LC146:
 3329 0328 63616C00 		.ascii	"cal\000"
 3330              	.LC147:
 3331 032c 43616C69 		.ascii	"Calibration data commands\000"
 3331      62726174 
 3331      696F6E20 
 3331      64617461 
 3331      20636F6D 
 3332 0346 0000     		.space	2
 3333              	.LC148:
 3334 0348 61756469 		.ascii	"audio\000"
 3334      6F00
 3335 034e 0000     		.space	2
 3336              	.LC149:
 3337 0350 41756469 		.ascii	"Audio commands\000"
 3337      6F20636F 
 3337      6D6D616E 
 3337      647300
 3338 035f 00       		.space	1
 3339              	.LC150:
 3340 0360 00       		.ascii	"\000"
 3341 0361 000000   		.space	3
 3342              	.LC151:
 3343 0364 706C6179 		.ascii	"play_tone\000"
 3343      5F746F6E 
 3343      6500
 3344 036e 0000     		.space	2
 3345              	.LC152:
 3346 0370 706C6179 		.ascii	"play tone\000"
 3346      20746F6E 
 3346      6500
 3347 037a 0000     		.space	2
 3348              	.LC153:
 3349 037c 73746F70 		.ascii	"stop_tone\000"
 3349      5F746F6E 
 3349      6500
 3350 0386 0000     		.space	2
 3351              	.LC154:
 3352 0388 73746F70 		.ascii	"stop tone\000"
 3352      20746F6E 
 3352      6500
 3353 0392 0000     		.space	2
 3354              	.LC155:
 3355 0394 7072696E 		.ascii	"print\000"
 3355      7400
 3356 039a 0000     		.space	2
 3357              	.LC156:
ARM GAS  C:\Users\TERENC~1\AppData\Local\Temp\ccVObDgl.s 			page 79


 3358 039c 7072696E 		.ascii	"print cal data\000"
 3358      74206361 
 3358      6C206461 
 3358      746100
 3359 03ab 00       		.space	1
 3360              	.LC157:
 3361 03ac 73657400 		.ascii	"set\000"
 3362              	.LC158:
 3363 03b0 73657420 		.ascii	"set cal data\000"
 3363      63616C20 
 3363      64617461 
 3363      00
 3364 03bd 000000   		.space	3
 3365              	.LC159:
 3366 03c0 73617665 		.ascii	"save\000"
 3366      00
 3367 03c5 000000   		.space	3
 3368              	.LC160:
 3369 03c8 636F6D6D 		.ascii	"commit cal data to flash\000"
 3369      69742063 
 3369      616C2064 
 3369      61746120 
 3369      746F2066 
 3370 03e1 000000   		.space	3
 3371              	.LC161:
 3372 03e4 73746172 		.ascii	"start\000"
 3372      7400
 3373 03ea 0000     		.space	2
 3374              	.LC162:
 3375 03ec 73746172 		.ascii	"start LED animation <led:red|green|blue> <period:ui"
 3375      74204C45 
 3375      4420616E 
 3375      696D6174 
 3375      696F6E20 
 3376 041f 6E743332 		.ascii	"nt32> <compare:uint32> <counter:uint32>\000"
 3376      3E203C63 
 3376      6F6D7061 
 3376      72653A75 
 3376      696E7433 
 3377 0447 00       		.space	1
 3378              	.LC163:
 3379 0448 73746F70 		.ascii	"stop\000"
 3379      00
 3380 044d 000000   		.space	3
 3381              	.LC164:
 3382 0450 73746F70 		.ascii	"stop LED animation <led:red|green|blue>\000"
 3382      204C4544 
 3382      20616E69 
 3382      6D617469 
 3382      6F6E203C 
 3383              	.LC165:
 3384 0478 63726173 		.ascii	"crash\000"
 3384      6800
 3385 047e 0000     		.space	2
 3386              	.LC166:
 3387 0480 74726967 		.ascii	"trigger a hard fault\000"
 3387      67657220 
ARM GAS  C:\Users\TERENC~1\AppData\Local\Temp\ccVObDgl.s 			page 80


 3387      61206861 
 3387      72642066 
 3387      61756C74 
 3388 0495 000000   		.space	3
 3389              	.LC167:
 3390 0498 696E666F 		.ascii	"info\000"
 3390      00
 3391 049d 000000   		.space	3
 3392              	.LC168:
 3393 04a0 7072696E 		.ascii	"print info\000"
 3393      7420696E 
 3393      666F00
 3394 04ab 00       		.space	1
 3395              	.LC169:
 3396 04ac 72657365 		.ascii	"reset\000"
 3396      7400
 3397 04b2 0000     		.space	2
 3398              	.LC170:
 3399 04b4 74726967 		.ascii	"trigger a SW reset\000"
 3399      67657220 
 3399      61205357 
 3399      20726573 
 3399      657400
 3400 04c7 00       		.space	1
 3401              	.LC171:
 3402 04c8 61646300 		.ascii	"adc\000"
 3403              	.LC172:
 3404 04cc 7072696E 		.ascii	"print ADC values\000"
 3404      74204144 
 3404      43207661 
 3404      6C756573 
 3404      00
 3405 04dd 000000   		.space	3
 3406              	.LC173:
 3407 04e0 696E6974 		.ascii	"init\000"
 3407      00
 3408 04e5 000000   		.space	3
 3409              	.LC174:
 3410 04e8 696E6974 		.ascii	"initialize RF chip\000"
 3410      69616C69 
 3410      7A652052 
 3410      46206368 
 3410      697000
 3411 04fb 00       		.space	1
 3412              	.LC175:
 3413 04fc 626C5F75 		.ascii	"bl_unlock\000"
 3413      6E6C6F63 
 3413      6B00
 3414 0506 0000     		.space	2
 3415              	.LC176:
 3416 0508 756E6C6F 		.ascii	"unlock bootloader SPI\000"
 3416      636B2062 
 3416      6F6F746C 
 3416      6F616465 
 3416      72205350 
 3417 051e 0000     		.space	2
 3418              	.LC177:
ARM GAS  C:\Users\TERENC~1\AppData\Local\Temp\ccVObDgl.s 			page 81


 3419 0520 73746174 		.ascii	"status\000"
 3419      757300
 3420 0527 00       		.space	1
 3421              	.LC178:
 3422 0528 67657420 		.ascii	"get status\000"
 3422      73746174 
 3422      757300
 3423 0533 00       		.space	1
 3424              	.LC179:
 3425 0534 7072696E 		.ascii	"print dev_chip_info\000"
 3425      74206465 
 3425      765F6368 
 3425      69705F69 
 3425      6E666F00 
 3426              	.LC180:
 3427 0548 766F6C5F 		.ascii	"vol_set\000"
 3427      73657400 
 3428              	.LC181:
 3429 0550 73657420 		.ascii	"set volume level <vol:uint8>\000"
 3429      766F6C75 
 3429      6D65206C 
 3429      6576656C 
 3429      203C766F 
 3430 056d 000000   		.space	3
 3431              	.LC182:
 3432 0570 766F6C5F 		.ascii	"vol_get\000"
 3432      67657400 
 3433              	.LC183:
 3434 0578 67657420 		.ascii	"get volume level\000"
 3434      766F6C75 
 3434      6D65206C 
 3434      6576656C 
 3434      00
 3435 0589 000000   		.space	3
 3436              	.LC184:
 3437 058c 7265675F 		.ascii	"reg_wr\000"
 3437      777200
 3438 0593 00       		.space	1
 3439              	.LC185:
 3440 0594 77726974 		.ascii	"write register <reg:uint8,data:uint16>)\000"
 3440      65207265 
 3440      67697374 
 3440      6572203C 
 3440      7265673A 
 3441              	.LC186:
 3442 05bc 7265675F 		.ascii	"reg_rd\000"
 3442      726400
 3443 05c3 00       		.space	1
 3444              	.LC187:
 3445 05c4 72656164 		.ascii	"read register <reg:uint8>\000"
 3445      20726567 
 3445      69737465 
 3445      72203C72 
 3445      65673A75 
 3446 05de 0000     		.space	2
 3447              	.LC188:
 3448 05e0 73657420 		.ascii	"set GPIO state\000"
ARM GAS  C:\Users\TERENC~1\AppData\Local\Temp\ccVObDgl.s 			page 82


 3448      4750494F 
 3448      20737461 
 3448      746500
 3449 05ef 00       		.space	1
 3450              	.LC189:
 3451 05f0 636F6E66 		.ascii	"config\000"
 3451      696700
 3452 05f7 00       		.space	1
 3453              	.LC190:
 3454 05f8 636F6E66 		.ascii	"configure GPIO\000"
 3454      69677572 
 3454      65204750 
 3454      494F00
 3455 0607 00       		.space	1
 3456              	.LC191:
 3457 0608 67657400 		.ascii	"get\000"
 3458              	.LC192:
 3459 060c 67657420 		.ascii	"get GPIO state\000"
 3459      4750494F 
 3459      20737461 
 3459      746500
 3460              		.bss
 3461              		.align	2
 3462              		.set	.LANCHOR1,. + 0
 3463              		.type	cmd_buf, %object
 3464              		.size	cmd_buf, 64
 3465              	cmd_buf:
 3466 0000 00000000 		.space	64
 3466      00000000 
 3466      00000000 
 3466      00000000 
 3466      00000000 
 3467              		.type	cmd_char_count, %object
 3468              		.size	cmd_char_count, 1
 3469              	cmd_char_count:
 3470 0040 00       		.space	1
 3471              		.text
 3472              	.Letext0:
 3473              		.file 2 "c:\\program files (x86)\\cypress\\psoc creator\\4.2\\psoc creator\\import\\gnu\\arm\\5.4.
 3474              		.file 3 "c:\\program files (x86)\\cypress\\psoc creator\\4.2\\psoc creator\\import\\gnu\\arm\\5.4.
 3475              		.file 4 "Generated_Source\\PSoC4/cytypes.h"
 3476              		.file 5 "./Calibration.h"
 3477              		.file 6 "./VolumeControl.h"
 3478              		.file 7 "./LedManager.h"
 3479              		.file 8 "c:\\program files (x86)\\cypress\\psoc creator\\4.2\\psoc creator\\import\\gnu\\arm\\5.4.
 3480              		.file 9 "./timers.h"
 3481              		.file 10 "./Application.h"
 3482              		.file 11 "Generated_Source\\PSoC4/USBUART.h"
 3483              		.file 12 "Generated_Source\\PSoC4/USBUART_cdc.h"
 3484              		.file 13 "c:\\program files (x86)\\cypress\\psoc creator\\4.2\\psoc creator\\import\\gnu\\arm\\5.4
 3485              		.file 14 "c:\\program files (x86)\\cypress\\psoc creator\\4.2\\psoc creator\\import\\gnu\\arm\\5.4
 3486              		.file 15 "./Codec.h"
 3487              		.file 16 "./cc85xx.h"
 3488              		.file 17 "Generated_Source\\PSoC4/CyLib.h"
 3489              		.file 18 "./AudioManager.h"
 3490              		.section	.debug_info,"",%progbits
 3491              	.Ldebug_info0:
ARM GAS  C:\Users\TERENC~1\AppData\Local\Temp\ccVObDgl.s 			page 83


 3492 0000 201E0000 		.4byte	0x1e20
 3493 0004 0400     		.2byte	0x4
 3494 0006 00000000 		.4byte	.Ldebug_abbrev0
 3495 000a 04       		.byte	0x4
 3496 000b 01       		.uleb128 0x1
 3497 000c DF010000 		.4byte	.LASF125
 3498 0010 0C       		.byte	0xc
 3499 0011 AA010000 		.4byte	.LASF126
 3500 0015 6D020000 		.4byte	.LASF127
 3501 0019 00000000 		.4byte	.Ldebug_ranges0+0
 3502 001d 00000000 		.4byte	0
 3503 0021 00000000 		.4byte	.Ldebug_line0
 3504 0025 02       		.uleb128 0x2
 3505 0026 04       		.byte	0x4
 3506 0027 05       		.byte	0x5
 3507 0028 696E7400 		.ascii	"int\000"
 3508 002c 03       		.uleb128 0x3
 3509 002d 04       		.byte	0x4
 3510 002e 07       		.byte	0x7
 3511 002f 63000000 		.4byte	.LASF0
 3512 0033 03       		.uleb128 0x3
 3513 0034 08       		.byte	0x8
 3514 0035 05       		.byte	0x5
 3515 0036 A7030000 		.4byte	.LASF1
 3516 003a 03       		.uleb128 0x3
 3517 003b 08       		.byte	0x8
 3518 003c 04       		.byte	0x4
 3519 003d 5F040000 		.4byte	.LASF2
 3520 0041 03       		.uleb128 0x3
 3521 0042 01       		.byte	0x1
 3522 0043 06       		.byte	0x6
 3523 0044 F0060000 		.4byte	.LASF3
 3524 0048 04       		.uleb128 0x4
 3525 0049 3D050000 		.4byte	.LASF6
 3526 004d 02       		.byte	0x2
 3527 004e 1D       		.byte	0x1d
 3528 004f 53000000 		.4byte	0x53
 3529 0053 03       		.uleb128 0x3
 3530 0054 01       		.byte	0x1
 3531 0055 08       		.byte	0x8
 3532 0056 06060000 		.4byte	.LASF4
 3533 005a 03       		.uleb128 0x3
 3534 005b 02       		.byte	0x2
 3535 005c 05       		.byte	0x5
 3536 005d CC040000 		.4byte	.LASF5
 3537 0061 04       		.uleb128 0x4
 3538 0062 75010000 		.4byte	.LASF7
 3539 0066 02       		.byte	0x2
 3540 0067 2B       		.byte	0x2b
 3541 0068 6C000000 		.4byte	0x6c
 3542 006c 03       		.uleb128 0x3
 3543 006d 02       		.byte	0x2
 3544 006e 07       		.byte	0x7
 3545 006f 12070000 		.4byte	.LASF8
 3546 0073 03       		.uleb128 0x3
 3547 0074 04       		.byte	0x4
 3548 0075 05       		.byte	0x5
ARM GAS  C:\Users\TERENC~1\AppData\Local\Temp\ccVObDgl.s 			page 84


 3549 0076 EA040000 		.4byte	.LASF9
 3550 007a 04       		.uleb128 0x4
 3551 007b 2C060000 		.4byte	.LASF10
 3552 007f 02       		.byte	0x2
 3553 0080 41       		.byte	0x41
 3554 0081 85000000 		.4byte	0x85
 3555 0085 03       		.uleb128 0x3
 3556 0086 04       		.byte	0x4
 3557 0087 07       		.byte	0x7
 3558 0088 75050000 		.4byte	.LASF11
 3559 008c 03       		.uleb128 0x3
 3560 008d 08       		.byte	0x8
 3561 008e 07       		.byte	0x7
 3562 008f 5E010000 		.4byte	.LASF12
 3563 0093 03       		.uleb128 0x3
 3564 0094 04       		.byte	0x4
 3565 0095 07       		.byte	0x7
 3566 0096 64050000 		.4byte	.LASF13
 3567 009a 05       		.uleb128 0x5
 3568 009b 04       		.byte	0x4
 3569 009c A0000000 		.4byte	0xa0
 3570 00a0 03       		.uleb128 0x3
 3571 00a1 01       		.byte	0x1
 3572 00a2 08       		.byte	0x8
 3573 00a3 4A030000 		.4byte	.LASF14
 3574 00a7 05       		.uleb128 0x5
 3575 00a8 04       		.byte	0x4
 3576 00a9 AD000000 		.4byte	0xad
 3577 00ad 06       		.uleb128 0x6
 3578 00ae 05       		.uleb128 0x5
 3579 00af 04       		.byte	0x4
 3580 00b0 B4000000 		.4byte	0xb4
 3581 00b4 07       		.uleb128 0x7
 3582 00b5 A0000000 		.4byte	0xa0
 3583 00b9 04       		.uleb128 0x4
 3584 00ba 8D030000 		.4byte	.LASF15
 3585 00be 03       		.byte	0x3
 3586 00bf 18       		.byte	0x18
 3587 00c0 48000000 		.4byte	0x48
 3588 00c4 04       		.uleb128 0x4
 3589 00c5 73040000 		.4byte	.LASF16
 3590 00c9 03       		.byte	0x3
 3591 00ca 24       		.byte	0x24
 3592 00cb 61000000 		.4byte	0x61
 3593 00cf 04       		.uleb128 0x4
 3594 00d0 3D010000 		.4byte	.LASF17
 3595 00d4 03       		.byte	0x3
 3596 00d5 30       		.byte	0x30
 3597 00d6 7A000000 		.4byte	0x7a
 3598 00da 08       		.uleb128 0x8
 3599 00db 40070000 		.4byte	.LASF18
 3600 00df 04       		.byte	0x4
 3601 00e0 E401     		.2byte	0x1e4
 3602 00e2 53000000 		.4byte	0x53
 3603 00e6 08       		.uleb128 0x8
 3604 00e7 73030000 		.4byte	.LASF19
 3605 00eb 04       		.byte	0x4
ARM GAS  C:\Users\TERENC~1\AppData\Local\Temp\ccVObDgl.s 			page 85


 3606 00ec E501     		.2byte	0x1e5
 3607 00ee 6C000000 		.4byte	0x6c
 3608 00f2 08       		.uleb128 0x8
 3609 00f3 22040000 		.4byte	.LASF20
 3610 00f7 04       		.byte	0x4
 3611 00f8 E601     		.2byte	0x1e6
 3612 00fa 85000000 		.4byte	0x85
 3613 00fe 08       		.uleb128 0x8
 3614 00ff 8E000000 		.4byte	.LASF21
 3615 0103 04       		.byte	0x4
 3616 0104 E801     		.2byte	0x1e8
 3617 0106 5A000000 		.4byte	0x5a
 3618 010a 03       		.uleb128 0x3
 3619 010b 04       		.byte	0x4
 3620 010c 04       		.byte	0x4
 3621 010d 52010000 		.4byte	.LASF22
 3622 0111 03       		.uleb128 0x3
 3623 0112 08       		.byte	0x8
 3624 0113 04       		.byte	0x4
 3625 0114 46070000 		.4byte	.LASF23
 3626 0118 08       		.uleb128 0x8
 3627 0119 7C040000 		.4byte	.LASF24
 3628 011d 04       		.byte	0x4
 3629 011e 9002     		.2byte	0x290
 3630 0120 24010000 		.4byte	0x124
 3631 0124 09       		.uleb128 0x9
 3632 0125 F2000000 		.4byte	0xf2
 3633 0129 0A       		.uleb128 0xa
 3634 012a 01       		.byte	0x1
 3635 012b 53000000 		.4byte	0x53
 3636 012f 06       		.byte	0x6
 3637 0130 14       		.byte	0x14
 3638 0131 48010000 		.4byte	0x148
 3639 0135 0B       		.uleb128 0xb
 3640 0136 27000000 		.4byte	.LASF25
 3641 013a 00       		.byte	0
 3642 013b 0B       		.uleb128 0xb
 3643 013c 98070000 		.4byte	.LASF26
 3644 0140 01       		.byte	0x1
 3645 0141 0B       		.uleb128 0xb
 3646 0142 A9000000 		.4byte	.LASF27
 3647 0146 02       		.byte	0x2
 3648 0147 00       		.byte	0
 3649 0148 0C       		.uleb128 0xc
 3650 0149 14       		.byte	0x14
 3651 014a 05       		.byte	0x5
 3652 014b 12       		.byte	0x12
 3653 014c 99010000 		.4byte	0x199
 3654 0150 0D       		.uleb128 0xd
 3655 0151 A0010000 		.4byte	.LASF28
 3656 0155 05       		.byte	0x5
 3657 0156 14       		.byte	0x14
 3658 0157 F2000000 		.4byte	0xf2
 3659 015b 00       		.byte	0
 3660 015c 0D       		.uleb128 0xd
 3661 015d B4020000 		.4byte	.LASF29
 3662 0161 05       		.byte	0x5
ARM GAS  C:\Users\TERENC~1\AppData\Local\Temp\ccVObDgl.s 			page 86


 3663 0162 15       		.byte	0x15
 3664 0163 F2000000 		.4byte	0xf2
 3665 0167 04       		.byte	0x4
 3666 0168 0D       		.uleb128 0xd
 3667 0169 08050000 		.4byte	.LASF30
 3668 016d 05       		.byte	0x5
 3669 016e 16       		.byte	0x16
 3670 016f 99010000 		.4byte	0x199
 3671 0173 08       		.byte	0x8
 3672 0174 0D       		.uleb128 0xd
 3673 0175 15010000 		.4byte	.LASF31
 3674 0179 05       		.byte	0x5
 3675 017a 17       		.byte	0x17
 3676 017b 99010000 		.4byte	0x199
 3677 017f 0C       		.byte	0xc
 3678 0180 0D       		.uleb128 0xd
 3679 0181 70000000 		.4byte	.LASF32
 3680 0185 05       		.byte	0x5
 3681 0186 19       		.byte	0x19
 3682 0187 DA000000 		.4byte	0xda
 3683 018b 10       		.byte	0x10
 3684 018c 0D       		.uleb128 0xd
 3685 018d 0C000000 		.4byte	.LASF33
 3686 0191 05       		.byte	0x5
 3687 0192 1A       		.byte	0x1a
 3688 0193 DA000000 		.4byte	0xda
 3689 0197 11       		.byte	0x11
 3690 0198 00       		.byte	0
 3691 0199 0E       		.uleb128 0xe
 3692 019a FE000000 		.4byte	0xfe
 3693 019e A9010000 		.4byte	0x1a9
 3694 01a2 0F       		.uleb128 0xf
 3695 01a3 93000000 		.4byte	0x93
 3696 01a7 01       		.byte	0x1
 3697 01a8 00       		.byte	0
 3698 01a9 04       		.uleb128 0x4
 3699 01aa 59070000 		.4byte	.LASF34
 3700 01ae 05       		.byte	0x5
 3701 01af 1B       		.byte	0x1b
 3702 01b0 48010000 		.4byte	0x148
 3703 01b4 0A       		.uleb128 0xa
 3704 01b5 01       		.byte	0x1
 3705 01b6 53000000 		.4byte	0x53
 3706 01ba 07       		.byte	0x7
 3707 01bb 12       		.byte	0x12
 3708 01bc D9010000 		.4byte	0x1d9
 3709 01c0 0B       		.uleb128 0xb
 3710 01c1 A9020000 		.4byte	.LASF35
 3711 01c5 00       		.byte	0
 3712 01c6 0B       		.uleb128 0xb
 3713 01c7 9F060000 		.4byte	.LASF36
 3714 01cb 01       		.byte	0x1
 3715 01cc 0B       		.uleb128 0xb
 3716 01cd 46010000 		.4byte	.LASF37
 3717 01d1 02       		.byte	0x2
 3718 01d2 0B       		.uleb128 0xb
 3719 01d3 83000000 		.4byte	.LASF38
ARM GAS  C:\Users\TERENC~1\AppData\Local\Temp\ccVObDgl.s 			page 87


 3720 01d7 03       		.byte	0x3
 3721 01d8 00       		.byte	0
 3722 01d9 04       		.uleb128 0x4
 3723 01da 0C010000 		.4byte	.LASF39
 3724 01de 07       		.byte	0x7
 3725 01df 17       		.byte	0x17
 3726 01e0 B4010000 		.4byte	0x1b4
 3727 01e4 0C       		.uleb128 0xc
 3728 01e5 0C       		.byte	0xc
 3729 01e6 01       		.byte	0x1
 3730 01e7 24       		.byte	0x24
 3731 01e8 11020000 		.4byte	0x211
 3732 01ec 0D       		.uleb128 0xd
 3733 01ed 5F050000 		.4byte	.LASF40
 3734 01f1 01       		.byte	0x1
 3735 01f2 26       		.byte	0x26
 3736 01f3 AE000000 		.4byte	0xae
 3737 01f7 00       		.byte	0
 3738 01f8 0D       		.uleb128 0xd
 3739 01f9 F0000000 		.4byte	.LASF41
 3740 01fd 01       		.byte	0x1
 3741 01fe 27       		.byte	0x27
 3742 01ff 2B020000 		.4byte	0x22b
 3743 0203 04       		.byte	0x4
 3744 0204 0D       		.uleb128 0xd
 3745 0205 4D070000 		.4byte	.LASF42
 3746 0209 01       		.byte	0x1
 3747 020a 28       		.byte	0x28
 3748 020b AE000000 		.4byte	0xae
 3749 020f 08       		.byte	0x8
 3750 0210 00       		.byte	0
 3751 0211 10       		.uleb128 0x10
 3752 0212 25000000 		.4byte	0x25
 3753 0216 25020000 		.4byte	0x225
 3754 021a 11       		.uleb128 0x11
 3755 021b 25000000 		.4byte	0x25
 3756 021f 11       		.uleb128 0x11
 3757 0220 25020000 		.4byte	0x225
 3758 0224 00       		.byte	0
 3759 0225 05       		.uleb128 0x5
 3760 0226 04       		.byte	0x4
 3761 0227 9A000000 		.4byte	0x9a
 3762 022b 05       		.uleb128 0x5
 3763 022c 04       		.byte	0x4
 3764 022d 11020000 		.4byte	0x211
 3765 0231 04       		.uleb128 0x4
 3766 0232 14060000 		.4byte	.LASF43
 3767 0236 01       		.byte	0x1
 3768 0237 29       		.byte	0x29
 3769 0238 E4010000 		.4byte	0x1e4
 3770 023c 0C       		.uleb128 0xc
 3771 023d 0C       		.byte	0xc
 3772 023e 01       		.byte	0x1
 3773 023f 2B       		.byte	0x2b
 3774 0240 69020000 		.4byte	0x269
 3775 0244 0D       		.uleb128 0xd
 3776 0245 5F050000 		.4byte	.LASF40
ARM GAS  C:\Users\TERENC~1\AppData\Local\Temp\ccVObDgl.s 			page 88


 3777 0249 01       		.byte	0x1
 3778 024a 2D       		.byte	0x2d
 3779 024b AE000000 		.4byte	0xae
 3780 024f 00       		.byte	0
 3781 0250 0D       		.uleb128 0xd
 3782 0251 47050000 		.4byte	.LASF44
 3783 0255 01       		.byte	0x1
 3784 0256 2E       		.byte	0x2e
 3785 0257 69020000 		.4byte	0x269
 3786 025b 04       		.byte	0x4
 3787 025c 0D       		.uleb128 0xd
 3788 025d 4D070000 		.4byte	.LASF42
 3789 0261 01       		.byte	0x1
 3790 0262 2F       		.byte	0x2f
 3791 0263 AE000000 		.4byte	0xae
 3792 0267 08       		.byte	0x8
 3793 0268 00       		.byte	0
 3794 0269 05       		.uleb128 0x5
 3795 026a 04       		.byte	0x4
 3796 026b 31020000 		.4byte	0x231
 3797 026f 04       		.uleb128 0x4
 3798 0270 B9040000 		.4byte	.LASF45
 3799 0274 01       		.byte	0x1
 3800 0275 30       		.byte	0x30
 3801 0276 3C020000 		.4byte	0x23c
 3802 027a 12       		.uleb128 0x12
 3803 027b B5050000 		.4byte	.LASF48
 3804 027f 01       		.byte	0x1
 3805 0280 6B01     		.2byte	0x16b
 3806 0282 25000000 		.4byte	0x25
 3807 0286 00000000 		.4byte	.LFB14
 3808 028a 34000000 		.4byte	.LFE14-.LFB14
 3809 028e 01       		.uleb128 0x1
 3810 028f 9C       		.byte	0x9c
 3811 0290 0C030000 		.4byte	0x30c
 3812 0294 13       		.uleb128 0x13
 3813 0295 29040000 		.4byte	.LASF46
 3814 0299 01       		.byte	0x1
 3815 029a 6B01     		.2byte	0x16b
 3816 029c 25000000 		.4byte	0x25
 3817 02a0 00000000 		.4byte	.LLST0
 3818 02a4 13       		.uleb128 0x13
 3819 02a5 5A040000 		.4byte	.LASF47
 3820 02a9 01       		.byte	0x1
 3821 02aa 6B01     		.2byte	0x16b
 3822 02ac 25020000 		.4byte	0x225
 3823 02b0 21000000 		.4byte	.LLST1
 3824 02b4 14       		.uleb128 0x14
 3825 02b5 667000   		.ascii	"fp\000"
 3826 02b8 01       		.byte	0x1
 3827 02b9 6D01     		.2byte	0x16d
 3828 02bb A7000000 		.4byte	0xa7
 3829 02bf 00       		.byte	0
 3830 02c0 15       		.uleb128 0x15
 3831 02c1 06000000 		.4byte	.LVL2
 3832 02c5 01       		.uleb128 0x1
 3833 02c6 30       		.byte	0x30
ARM GAS  C:\Users\TERENC~1\AppData\Local\Temp\ccVObDgl.s 			page 89


 3834 02c7 16       		.uleb128 0x16
 3835 02c8 0A000000 		.4byte	.LVL3
 3836 02cc 291D0000 		.4byte	0x1d29
 3837 02d0 16       		.uleb128 0x16
 3838 02d1 12000000 		.4byte	.LVL4
 3839 02d5 351D0000 		.4byte	0x1d35
 3840 02d9 17       		.uleb128 0x17
 3841 02da 22000000 		.4byte	.LVL5
 3842 02de 401D0000 		.4byte	0x1d40
 3843 02e2 FB020000 		.4byte	0x2fb
 3844 02e6 18       		.uleb128 0x18
 3845 02e7 01       		.uleb128 0x1
 3846 02e8 50       		.byte	0x50
 3847 02e9 02       		.uleb128 0x2
 3848 02ea 74       		.byte	0x74
 3849 02eb 00       		.sleb128 0
 3850 02ec 18       		.uleb128 0x18
 3851 02ed 01       		.uleb128 0x1
 3852 02ee 51       		.byte	0x51
 3853 02ef 05       		.uleb128 0x5
 3854 02f0 03       		.byte	0x3
 3855 02f1 00000000 		.4byte	.LC1
 3856 02f5 18       		.uleb128 0x18
 3857 02f6 01       		.uleb128 0x1
 3858 02f7 52       		.byte	0x52
 3859 02f8 01       		.uleb128 0x1
 3860 02f9 3A       		.byte	0x3a
 3861 02fa 00       		.byte	0
 3862 02fb 19       		.uleb128 0x19
 3863 02fc 28000000 		.4byte	.LVL6
 3864 0300 491D0000 		.4byte	0x1d49
 3865 0304 18       		.uleb128 0x18
 3866 0305 01       		.uleb128 0x1
 3867 0306 50       		.byte	0x50
 3868 0307 02       		.uleb128 0x2
 3869 0308 74       		.byte	0x74
 3870 0309 00       		.sleb128 0
 3871 030a 00       		.byte	0
 3872 030b 00       		.byte	0
 3873 030c 1A       		.uleb128 0x1a
 3874 030d DC020000 		.4byte	.LASF49
 3875 0311 01       		.byte	0x1
 3876 0312 CE       		.byte	0xce
 3877 0313 25000000 		.4byte	0x25
 3878 0317 00000000 		.4byte	.LFB4
 3879 031b 74000000 		.4byte	.LFE4-.LFB4
 3880 031f 01       		.uleb128 0x1
 3881 0320 9C       		.byte	0x9c
 3882 0321 E1030000 		.4byte	0x3e1
 3883 0325 1B       		.uleb128 0x1b
 3884 0326 29040000 		.4byte	.LASF46
 3885 032a 01       		.byte	0x1
 3886 032b CE       		.byte	0xce
 3887 032c 25000000 		.4byte	0x25
 3888 0330 42000000 		.4byte	.LLST2
 3889 0334 1B       		.uleb128 0x1b
 3890 0335 5A040000 		.4byte	.LASF47
ARM GAS  C:\Users\TERENC~1\AppData\Local\Temp\ccVObDgl.s 			page 90


 3891 0339 01       		.byte	0x1
 3892 033a CE       		.byte	0xce
 3893 033b 25020000 		.4byte	0x225
 3894 033f 8F000000 		.4byte	.LLST3
 3895 0343 1C       		.uleb128 0x1c
 3896 0344 CA050000 		.4byte	.LASF50
 3897 0348 01       		.byte	0x1
 3898 0349 D0       		.byte	0xd0
 3899 034a CF000000 		.4byte	0xcf
 3900 034e DF000000 		.4byte	.LLST4
 3901 0352 1D       		.uleb128 0x1d
 3902 0353 70696E00 		.ascii	"pin\000"
 3903 0357 01       		.byte	0x1
 3904 0358 D0       		.byte	0xd0
 3905 0359 CF000000 		.4byte	0xcf
 3906 035d FD000000 		.4byte	.LLST5
 3907 0361 1C       		.uleb128 0x1c
 3908 0362 F5000000 		.4byte	.LASF51
 3909 0366 01       		.byte	0x1
 3910 0367 D0       		.byte	0xd0
 3911 0368 CF000000 		.4byte	0xcf
 3912 036c 1B010000 		.4byte	.LLST6
 3913 0370 1D       		.uleb128 0x1d
 3914 0371 6900     		.ascii	"i\000"
 3915 0373 01       		.byte	0x1
 3916 0374 D1       		.byte	0xd1
 3917 0375 25000000 		.4byte	0x25
 3918 0379 2E010000 		.4byte	.LLST7
 3919 037d 16       		.uleb128 0x16
 3920 037e 0C000000 		.4byte	.LVL9
 3921 0382 291D0000 		.4byte	0x1d29
 3922 0386 16       		.uleb128 0x16
 3923 0387 14000000 		.4byte	.LVL10
 3924 038b 351D0000 		.4byte	0x1d35
 3925 038f 17       		.uleb128 0x17
 3926 0390 24000000 		.4byte	.LVL12
 3927 0394 401D0000 		.4byte	0x1d40
 3928 0398 B1030000 		.4byte	0x3b1
 3929 039c 18       		.uleb128 0x18
 3930 039d 01       		.uleb128 0x1
 3931 039e 50       		.byte	0x50
 3932 039f 02       		.uleb128 0x2
 3933 03a0 74       		.byte	0x74
 3934 03a1 00       		.sleb128 0
 3935 03a2 18       		.uleb128 0x18
 3936 03a3 01       		.uleb128 0x1
 3937 03a4 51       		.byte	0x51
 3938 03a5 05       		.uleb128 0x5
 3939 03a6 03       		.byte	0x3
 3940 03a7 0C000000 		.4byte	.LC4
 3941 03ab 18       		.uleb128 0x18
 3942 03ac 01       		.uleb128 0x1
 3943 03ad 52       		.byte	0x52
 3944 03ae 01       		.uleb128 0x1
 3945 03af 4E       		.byte	0x4e
 3946 03b0 00       		.byte	0
 3947 03b1 17       		.uleb128 0x17
ARM GAS  C:\Users\TERENC~1\AppData\Local\Temp\ccVObDgl.s 			page 91


 3948 03b2 2A000000 		.4byte	.LVL13
 3949 03b6 491D0000 		.4byte	0x1d49
 3950 03ba C5030000 		.4byte	0x3c5
 3951 03be 18       		.uleb128 0x18
 3952 03bf 01       		.uleb128 0x1
 3953 03c0 50       		.byte	0x50
 3954 03c1 02       		.uleb128 0x2
 3955 03c2 74       		.byte	0x74
 3956 03c3 00       		.sleb128 0
 3957 03c4 00       		.byte	0
 3958 03c5 16       		.uleb128 0x16
 3959 03c6 36000000 		.4byte	.LVL16
 3960 03ca 541D0000 		.4byte	0x1d54
 3961 03ce 16       		.uleb128 0x16
 3962 03cf 3E000000 		.4byte	.LVL19
 3963 03d3 541D0000 		.4byte	0x1d54
 3964 03d7 16       		.uleb128 0x16
 3965 03d8 46000000 		.4byte	.LVL22
 3966 03dc 541D0000 		.4byte	0x1d54
 3967 03e0 00       		.byte	0
 3968 03e1 1A       		.uleb128 0x1a
 3969 03e2 87040000 		.4byte	.LASF52
 3970 03e6 01       		.byte	0x1
 3971 03e7 AE       		.byte	0xae
 3972 03e8 25000000 		.4byte	0x25
 3973 03ec 00000000 		.4byte	.LFB3
 3974 03f0 C4000000 		.4byte	.LFE3-.LFB3
 3975 03f4 01       		.uleb128 0x1
 3976 03f5 9C       		.byte	0x9c
 3977 03f6 F5040000 		.4byte	0x4f5
 3978 03fa 1B       		.uleb128 0x1b
 3979 03fb 29040000 		.4byte	.LASF46
 3980 03ff 01       		.byte	0x1
 3981 0400 AE       		.byte	0xae
 3982 0401 25000000 		.4byte	0x25
 3983 0405 66010000 		.4byte	.LLST8
 3984 0409 1B       		.uleb128 0x1b
 3985 040a 5A040000 		.4byte	.LASF47
 3986 040e 01       		.byte	0x1
 3987 040f AE       		.byte	0xae
 3988 0410 25020000 		.4byte	0x225
 3989 0414 B3010000 		.4byte	.LLST9
 3990 0418 1C       		.uleb128 0x1c
 3991 0419 CA050000 		.4byte	.LASF50
 3992 041d 01       		.byte	0x1
 3993 041e B0       		.byte	0xb0
 3994 041f CF000000 		.4byte	0xcf
 3995 0423 1C020000 		.4byte	.LLST10
 3996 0427 1D       		.uleb128 0x1d
 3997 0428 70696E00 		.ascii	"pin\000"
 3998 042c 01       		.byte	0x1
 3999 042d B0       		.byte	0xb0
 4000 042e CF000000 		.4byte	0xcf
 4001 0432 3A020000 		.4byte	.LLST11
 4002 0436 1C       		.uleb128 0x1c
 4003 0437 6F060000 		.4byte	.LASF53
 4004 043b 01       		.byte	0x1
ARM GAS  C:\Users\TERENC~1\AppData\Local\Temp\ccVObDgl.s 			page 92


 4005 043c B0       		.byte	0xb0
 4006 043d CF000000 		.4byte	0xcf
 4007 0441 63020000 		.4byte	.LLST12
 4008 0445 1D       		.uleb128 0x1d
 4009 0446 6900     		.ascii	"i\000"
 4010 0448 01       		.byte	0x1
 4011 0449 B1       		.byte	0xb1
 4012 044a 25000000 		.4byte	0x25
 4013 044e 76020000 		.4byte	.LLST13
 4014 0452 16       		.uleb128 0x16
 4015 0453 0C000000 		.4byte	.LVL30
 4016 0457 291D0000 		.4byte	0x1d29
 4017 045b 16       		.uleb128 0x16
 4018 045c 14000000 		.4byte	.LVL31
 4019 0460 351D0000 		.4byte	0x1d35
 4020 0464 17       		.uleb128 0x17
 4021 0465 24000000 		.4byte	.LVL33
 4022 0469 401D0000 		.4byte	0x1d40
 4023 046d 86040000 		.4byte	0x486
 4024 0471 18       		.uleb128 0x18
 4025 0472 01       		.uleb128 0x1
 4026 0473 50       		.byte	0x50
 4027 0474 02       		.uleb128 0x2
 4028 0475 74       		.byte	0x74
 4029 0476 00       		.sleb128 0
 4030 0477 18       		.uleb128 0x18
 4031 0478 01       		.uleb128 0x1
 4032 0479 51       		.byte	0x51
 4033 047a 05       		.uleb128 0x5
 4034 047b 03       		.byte	0x3
 4035 047c 0C000000 		.4byte	.LC4
 4036 0480 18       		.uleb128 0x18
 4037 0481 01       		.uleb128 0x1
 4038 0482 52       		.byte	0x52
 4039 0483 01       		.uleb128 0x1
 4040 0484 4E       		.byte	0x4e
 4041 0485 00       		.byte	0
 4042 0486 17       		.uleb128 0x17
 4043 0487 2A000000 		.4byte	.LVL34
 4044 048b 491D0000 		.4byte	0x1d49
 4045 048f 9A040000 		.4byte	0x49a
 4046 0493 18       		.uleb128 0x18
 4047 0494 01       		.uleb128 0x1
 4048 0495 50       		.byte	0x50
 4049 0496 02       		.uleb128 0x2
 4050 0497 74       		.byte	0x74
 4051 0498 00       		.sleb128 0
 4052 0499 00       		.byte	0
 4053 049a 16       		.uleb128 0x16
 4054 049b 36000000 		.4byte	.LVL37
 4055 049f 541D0000 		.4byte	0x1d54
 4056 04a3 16       		.uleb128 0x16
 4057 04a4 3E000000 		.4byte	.LVL40
 4058 04a8 541D0000 		.4byte	0x1d54
 4059 04ac 16       		.uleb128 0x16
 4060 04ad 46000000 		.4byte	.LVL43
 4061 04b1 541D0000 		.4byte	0x1d54
ARM GAS  C:\Users\TERENC~1\AppData\Local\Temp\ccVObDgl.s 			page 93


 4062 04b5 16       		.uleb128 0x16
 4063 04b6 80000000 		.4byte	.LVL46
 4064 04ba 291D0000 		.4byte	0x1d29
 4065 04be 16       		.uleb128 0x16
 4066 04bf 88000000 		.4byte	.LVL47
 4067 04c3 351D0000 		.4byte	0x1d35
 4068 04c7 17       		.uleb128 0x17
 4069 04c8 9E000000 		.4byte	.LVL48
 4070 04cc 5F1D0000 		.4byte	0x1d5f
 4071 04d0 E4040000 		.4byte	0x4e4
 4072 04d4 18       		.uleb128 0x18
 4073 04d5 01       		.uleb128 0x1
 4074 04d6 50       		.byte	0x50
 4075 04d7 02       		.uleb128 0x2
 4076 04d8 74       		.byte	0x74
 4077 04d9 00       		.sleb128 0
 4078 04da 18       		.uleb128 0x18
 4079 04db 01       		.uleb128 0x1
 4080 04dc 51       		.byte	0x51
 4081 04dd 05       		.uleb128 0x5
 4082 04de 03       		.byte	0x3
 4083 04df 2C000000 		.4byte	.LC10
 4084 04e3 00       		.byte	0
 4085 04e4 19       		.uleb128 0x19
 4086 04e5 A4000000 		.4byte	.LVL49
 4087 04e9 491D0000 		.4byte	0x1d49
 4088 04ed 18       		.uleb128 0x18
 4089 04ee 01       		.uleb128 0x1
 4090 04ef 50       		.byte	0x50
 4091 04f0 02       		.uleb128 0x2
 4092 04f1 74       		.byte	0x74
 4093 04f2 00       		.sleb128 0
 4094 04f3 00       		.byte	0
 4095 04f4 00       		.byte	0
 4096 04f5 1A       		.uleb128 0x1a
 4097 04f6 AC060000 		.4byte	.LASF54
 4098 04fa 01       		.byte	0x1
 4099 04fb E4       		.byte	0xe4
 4100 04fc 25000000 		.4byte	0x25
 4101 0500 00000000 		.4byte	.LFB5
 4102 0504 8C000000 		.4byte	.LFE5-.LFB5
 4103 0508 01       		.uleb128 0x1
 4104 0509 9C       		.byte	0x9c
 4105 050a F1050000 		.4byte	0x5f1
 4106 050e 1B       		.uleb128 0x1b
 4107 050f 29040000 		.4byte	.LASF46
 4108 0513 01       		.byte	0x1
 4109 0514 E4       		.byte	0xe4
 4110 0515 25000000 		.4byte	0x25
 4111 0519 BA020000 		.4byte	.LLST14
 4112 051d 1B       		.uleb128 0x1b
 4113 051e 5A040000 		.4byte	.LASF47
 4114 0522 01       		.byte	0x1
 4115 0523 E4       		.byte	0xe4
 4116 0524 25020000 		.4byte	0x225
 4117 0528 07030000 		.4byte	.LLST15
 4118 052c 1C       		.uleb128 0x1c
ARM GAS  C:\Users\TERENC~1\AppData\Local\Temp\ccVObDgl.s 			page 94


 4119 052d CA050000 		.4byte	.LASF50
 4120 0531 01       		.byte	0x1
 4121 0532 E6       		.byte	0xe6
 4122 0533 CF000000 		.4byte	0xcf
 4123 0537 70030000 		.4byte	.LLST16
 4124 053b 1D       		.uleb128 0x1d
 4125 053c 70696E00 		.ascii	"pin\000"
 4126 0540 01       		.byte	0x1
 4127 0541 E6       		.byte	0xe6
 4128 0542 CF000000 		.4byte	0xcf
 4129 0546 99030000 		.4byte	.LLST17
 4130 054a 1D       		.uleb128 0x1d
 4131 054b 6900     		.ascii	"i\000"
 4132 054d 01       		.byte	0x1
 4133 054e E7       		.byte	0xe7
 4134 054f 25000000 		.4byte	0x25
 4135 0553 C2030000 		.4byte	.LLST18
 4136 0557 16       		.uleb128 0x16
 4137 0558 0C000000 		.4byte	.LVL55
 4138 055c 291D0000 		.4byte	0x1d29
 4139 0560 16       		.uleb128 0x16
 4140 0561 14000000 		.4byte	.LVL56
 4141 0565 351D0000 		.4byte	0x1d35
 4142 0569 17       		.uleb128 0x17
 4143 056a 24000000 		.4byte	.LVL58
 4144 056e 401D0000 		.4byte	0x1d40
 4145 0572 8B050000 		.4byte	0x58b
 4146 0576 18       		.uleb128 0x18
 4147 0577 01       		.uleb128 0x1
 4148 0578 50       		.byte	0x50
 4149 0579 02       		.uleb128 0x2
 4150 057a 74       		.byte	0x74
 4151 057b 00       		.sleb128 0
 4152 057c 18       		.uleb128 0x18
 4153 057d 01       		.uleb128 0x1
 4154 057e 51       		.byte	0x51
 4155 057f 05       		.uleb128 0x5
 4156 0580 03       		.byte	0x3
 4157 0581 0C000000 		.4byte	.LC4
 4158 0585 18       		.uleb128 0x18
 4159 0586 01       		.uleb128 0x1
 4160 0587 52       		.byte	0x52
 4161 0588 01       		.uleb128 0x1
 4162 0589 4E       		.byte	0x4e
 4163 058a 00       		.byte	0
 4164 058b 17       		.uleb128 0x17
 4165 058c 2A000000 		.4byte	.LVL59
 4166 0590 491D0000 		.4byte	0x1d49
 4167 0594 9F050000 		.4byte	0x59f
 4168 0598 18       		.uleb128 0x18
 4169 0599 01       		.uleb128 0x1
 4170 059a 50       		.byte	0x50
 4171 059b 02       		.uleb128 0x2
 4172 059c 74       		.byte	0x74
 4173 059d 00       		.sleb128 0
 4174 059e 00       		.byte	0
 4175 059f 16       		.uleb128 0x16
ARM GAS  C:\Users\TERENC~1\AppData\Local\Temp\ccVObDgl.s 			page 95


 4176 05a0 36000000 		.4byte	.LVL62
 4177 05a4 541D0000 		.4byte	0x1d54
 4178 05a8 16       		.uleb128 0x16
 4179 05a9 3E000000 		.4byte	.LVL65
 4180 05ad 541D0000 		.4byte	0x1d54
 4181 05b1 16       		.uleb128 0x16
 4182 05b2 44000000 		.4byte	.LVL67
 4183 05b6 291D0000 		.4byte	0x1d29
 4184 05ba 16       		.uleb128 0x16
 4185 05bb 4C000000 		.4byte	.LVL68
 4186 05bf 351D0000 		.4byte	0x1d35
 4187 05c3 17       		.uleb128 0x17
 4188 05c4 68000000 		.4byte	.LVL71
 4189 05c8 5F1D0000 		.4byte	0x1d5f
 4190 05cc E0050000 		.4byte	0x5e0
 4191 05d0 18       		.uleb128 0x18
 4192 05d1 01       		.uleb128 0x1
 4193 05d2 50       		.byte	0x50
 4194 05d3 02       		.uleb128 0x2
 4195 05d4 74       		.byte	0x74
 4196 05d5 00       		.sleb128 0
 4197 05d6 18       		.uleb128 0x18
 4198 05d7 01       		.uleb128 0x1
 4199 05d8 51       		.byte	0x51
 4200 05d9 05       		.uleb128 0x5
 4201 05da 03       		.byte	0x3
 4202 05db 2C000000 		.4byte	.LC10
 4203 05df 00       		.byte	0
 4204 05e0 19       		.uleb128 0x19
 4205 05e1 6E000000 		.4byte	.LVL72
 4206 05e5 491D0000 		.4byte	0x1d49
 4207 05e9 18       		.uleb128 0x18
 4208 05ea 01       		.uleb128 0x1
 4209 05eb 50       		.byte	0x50
 4210 05ec 02       		.uleb128 0x2
 4211 05ed 74       		.byte	0x74
 4212 05ee 00       		.sleb128 0
 4213 05ef 00       		.byte	0
 4214 05f0 00       		.byte	0
 4215 05f1 12       		.uleb128 0x12
 4216 05f2 DE030000 		.4byte	.LASF55
 4217 05f6 01       		.byte	0x1
 4218 05f7 7601     		.2byte	0x176
 4219 05f9 25000000 		.4byte	0x25
 4220 05fd 00000000 		.4byte	.LFB15
 4221 0601 38000000 		.4byte	.LFE15-.LFB15
 4222 0605 01       		.uleb128 0x1
 4223 0606 9C       		.byte	0x9c
 4224 0607 6B060000 		.4byte	0x66b
 4225 060b 13       		.uleb128 0x13
 4226 060c 29040000 		.4byte	.LASF46
 4227 0610 01       		.byte	0x1
 4228 0611 7601     		.2byte	0x176
 4229 0613 25000000 		.4byte	0x25
 4230 0617 FA030000 		.4byte	.LLST19
 4231 061b 13       		.uleb128 0x13
 4232 061c 5A040000 		.4byte	.LASF47
ARM GAS  C:\Users\TERENC~1\AppData\Local\Temp\ccVObDgl.s 			page 96


 4233 0620 01       		.byte	0x1
 4234 0621 7601     		.2byte	0x176
 4235 0623 25020000 		.4byte	0x225
 4236 0627 1B040000 		.4byte	.LLST20
 4237 062b 16       		.uleb128 0x16
 4238 062c 06000000 		.4byte	.LVL77
 4239 0630 291D0000 		.4byte	0x1d29
 4240 0634 16       		.uleb128 0x16
 4241 0635 0E000000 		.4byte	.LVL78
 4242 0639 351D0000 		.4byte	0x1d35
 4243 063d 17       		.uleb128 0x17
 4244 063e 20000000 		.4byte	.LVL79
 4245 0642 5F1D0000 		.4byte	0x1d5f
 4246 0646 5A060000 		.4byte	0x65a
 4247 064a 18       		.uleb128 0x18
 4248 064b 01       		.uleb128 0x1
 4249 064c 50       		.byte	0x50
 4250 064d 02       		.uleb128 0x2
 4251 064e 74       		.byte	0x74
 4252 064f 00       		.sleb128 0
 4253 0650 18       		.uleb128 0x18
 4254 0651 01       		.uleb128 0x1
 4255 0652 51       		.byte	0x51
 4256 0653 05       		.uleb128 0x5
 4257 0654 03       		.byte	0x3
 4258 0655 3C000000 		.4byte	.LC17
 4259 0659 00       		.byte	0
 4260 065a 19       		.uleb128 0x19
 4261 065b 26000000 		.4byte	.LVL80
 4262 065f 491D0000 		.4byte	0x1d49
 4263 0663 18       		.uleb128 0x18
 4264 0664 01       		.uleb128 0x1
 4265 0665 50       		.byte	0x50
 4266 0666 02       		.uleb128 0x2
 4267 0667 74       		.byte	0x74
 4268 0668 00       		.sleb128 0
 4269 0669 00       		.byte	0
 4270 066a 00       		.byte	0
 4271 066b 12       		.uleb128 0x12
 4272 066c 8C060000 		.4byte	.LASF56
 4273 0670 01       		.byte	0x1
 4274 0671 8401     		.2byte	0x184
 4275 0673 25000000 		.4byte	0x25
 4276 0677 00000000 		.4byte	.LFB17
 4277 067b 3C000000 		.4byte	.LFE17-.LFB17
 4278 067f 01       		.uleb128 0x1
 4279 0680 9C       		.byte	0x9c
 4280 0681 E5060000 		.4byte	0x6e5
 4281 0685 13       		.uleb128 0x13
 4282 0686 29040000 		.4byte	.LASF46
 4283 068a 01       		.byte	0x1
 4284 068b 8401     		.2byte	0x184
 4285 068d 25000000 		.4byte	0x25
 4286 0691 3C040000 		.4byte	.LLST21
 4287 0695 13       		.uleb128 0x13
 4288 0696 5A040000 		.4byte	.LASF47
 4289 069a 01       		.byte	0x1
ARM GAS  C:\Users\TERENC~1\AppData\Local\Temp\ccVObDgl.s 			page 97


 4290 069b 8401     		.2byte	0x184
 4291 069d 25020000 		.4byte	0x225
 4292 06a1 5D040000 		.4byte	.LLST22
 4293 06a5 16       		.uleb128 0x16
 4294 06a6 06000000 		.4byte	.LVL82
 4295 06aa 291D0000 		.4byte	0x1d29
 4296 06ae 16       		.uleb128 0x16
 4297 06af 0E000000 		.4byte	.LVL83
 4298 06b3 351D0000 		.4byte	0x1d35
 4299 06b7 17       		.uleb128 0x17
 4300 06b8 26000000 		.4byte	.LVL84
 4301 06bc 5F1D0000 		.4byte	0x1d5f
 4302 06c0 D4060000 		.4byte	0x6d4
 4303 06c4 18       		.uleb128 0x18
 4304 06c5 01       		.uleb128 0x1
 4305 06c6 50       		.byte	0x50
 4306 06c7 02       		.uleb128 0x2
 4307 06c8 74       		.byte	0x74
 4308 06c9 00       		.sleb128 0
 4309 06ca 18       		.uleb128 0x18
 4310 06cb 01       		.uleb128 0x1
 4311 06cc 51       		.byte	0x51
 4312 06cd 05       		.uleb128 0x5
 4313 06ce 03       		.byte	0x3
 4314 06cf 4C000000 		.4byte	.LC21
 4315 06d3 00       		.byte	0
 4316 06d4 19       		.uleb128 0x19
 4317 06d5 2C000000 		.4byte	.LVL85
 4318 06d9 491D0000 		.4byte	0x1d49
 4319 06dd 18       		.uleb128 0x18
 4320 06de 01       		.uleb128 0x1
 4321 06df 50       		.byte	0x50
 4322 06e0 02       		.uleb128 0x2
 4323 06e1 74       		.byte	0x74
 4324 06e2 00       		.sleb128 0
 4325 06e3 00       		.byte	0
 4326 06e4 00       		.byte	0
 4327 06e5 12       		.uleb128 0x12
 4328 06e6 C0060000 		.4byte	.LASF57
 4329 06ea 01       		.byte	0x1
 4330 06eb DB01     		.2byte	0x1db
 4331 06ed 25000000 		.4byte	0x25
 4332 06f1 00000000 		.4byte	.LFB20
 4333 06f5 8C010000 		.4byte	.LFE20-.LFB20
 4334 06f9 01       		.uleb128 0x1
 4335 06fa 9C       		.byte	0x9c
 4336 06fb 7C090000 		.4byte	0x97c
 4337 06ff 13       		.uleb128 0x13
 4338 0700 29040000 		.4byte	.LASF46
 4339 0704 01       		.byte	0x1
 4340 0705 DB01     		.2byte	0x1db
 4341 0707 25000000 		.4byte	0x25
 4342 070b 7E040000 		.4byte	.LLST23
 4343 070f 13       		.uleb128 0x13
 4344 0710 5A040000 		.4byte	.LASF47
 4345 0714 01       		.byte	0x1
 4346 0715 DB01     		.2byte	0x1db
ARM GAS  C:\Users\TERENC~1\AppData\Local\Temp\ccVObDgl.s 			page 98


 4347 0717 25020000 		.4byte	0x225
 4348 071b 9F040000 		.4byte	.LLST24
 4349 071f 16       		.uleb128 0x16
 4350 0720 06000000 		.4byte	.LVL87
 4351 0724 291D0000 		.4byte	0x1d29
 4352 0728 16       		.uleb128 0x16
 4353 0729 0E000000 		.4byte	.LVL88
 4354 072d 351D0000 		.4byte	0x1d35
 4355 0731 17       		.uleb128 0x17
 4356 0732 22000000 		.4byte	.LVL89
 4357 0736 5F1D0000 		.4byte	0x1d5f
 4358 073a 4E070000 		.4byte	0x74e
 4359 073e 18       		.uleb128 0x18
 4360 073f 01       		.uleb128 0x1
 4361 0740 50       		.byte	0x50
 4362 0741 02       		.uleb128 0x2
 4363 0742 74       		.byte	0x74
 4364 0743 00       		.sleb128 0
 4365 0744 18       		.uleb128 0x18
 4366 0745 01       		.uleb128 0x1
 4367 0746 51       		.byte	0x51
 4368 0747 05       		.uleb128 0x5
 4369 0748 03       		.byte	0x3
 4370 0749 5C000000 		.4byte	.LC25
 4371 074d 00       		.byte	0
 4372 074e 17       		.uleb128 0x17
 4373 074f 28000000 		.4byte	.LVL90
 4374 0753 491D0000 		.4byte	0x1d49
 4375 0757 62070000 		.4byte	0x762
 4376 075b 18       		.uleb128 0x18
 4377 075c 01       		.uleb128 0x1
 4378 075d 50       		.byte	0x50
 4379 075e 02       		.uleb128 0x2
 4380 075f 74       		.byte	0x74
 4381 0760 00       		.sleb128 0
 4382 0761 00       		.byte	0
 4383 0762 16       		.uleb128 0x16
 4384 0763 2C000000 		.4byte	.LVL91
 4385 0767 291D0000 		.4byte	0x1d29
 4386 076b 16       		.uleb128 0x16
 4387 076c 34000000 		.4byte	.LVL92
 4388 0770 351D0000 		.4byte	0x1d35
 4389 0774 17       		.uleb128 0x17
 4390 0775 48000000 		.4byte	.LVL93
 4391 0779 5F1D0000 		.4byte	0x1d5f
 4392 077d 91070000 		.4byte	0x791
 4393 0781 18       		.uleb128 0x18
 4394 0782 01       		.uleb128 0x1
 4395 0783 50       		.byte	0x50
 4396 0784 02       		.uleb128 0x2
 4397 0785 74       		.byte	0x74
 4398 0786 00       		.sleb128 0
 4399 0787 18       		.uleb128 0x18
 4400 0788 01       		.uleb128 0x1
 4401 0789 51       		.byte	0x51
 4402 078a 05       		.uleb128 0x5
 4403 078b 03       		.byte	0x3
ARM GAS  C:\Users\TERENC~1\AppData\Local\Temp\ccVObDgl.s 			page 99


 4404 078c 6C000000 		.4byte	.LC28
 4405 0790 00       		.byte	0
 4406 0791 17       		.uleb128 0x17
 4407 0792 4E000000 		.4byte	.LVL94
 4408 0796 491D0000 		.4byte	0x1d49
 4409 079a A5070000 		.4byte	0x7a5
 4410 079e 18       		.uleb128 0x18
 4411 079f 01       		.uleb128 0x1
 4412 07a0 50       		.byte	0x50
 4413 07a1 02       		.uleb128 0x2
 4414 07a2 74       		.byte	0x74
 4415 07a3 00       		.sleb128 0
 4416 07a4 00       		.byte	0
 4417 07a5 16       		.uleb128 0x16
 4418 07a6 52000000 		.4byte	.LVL95
 4419 07aa 291D0000 		.4byte	0x1d29
 4420 07ae 16       		.uleb128 0x16
 4421 07af 5A000000 		.4byte	.LVL96
 4422 07b3 351D0000 		.4byte	0x1d35
 4423 07b7 17       		.uleb128 0x17
 4424 07b8 70000000 		.4byte	.LVL97
 4425 07bc 5F1D0000 		.4byte	0x1d5f
 4426 07c0 D4070000 		.4byte	0x7d4
 4427 07c4 18       		.uleb128 0x18
 4428 07c5 01       		.uleb128 0x1
 4429 07c6 50       		.byte	0x50
 4430 07c7 02       		.uleb128 0x2
 4431 07c8 74       		.byte	0x74
 4432 07c9 00       		.sleb128 0
 4433 07ca 18       		.uleb128 0x18
 4434 07cb 01       		.uleb128 0x1
 4435 07cc 51       		.byte	0x51
 4436 07cd 05       		.uleb128 0x5
 4437 07ce 03       		.byte	0x3
 4438 07cf 78000000 		.4byte	.LC30
 4439 07d3 00       		.byte	0
 4440 07d4 17       		.uleb128 0x17
 4441 07d5 76000000 		.4byte	.LVL98
 4442 07d9 491D0000 		.4byte	0x1d49
 4443 07dd E8070000 		.4byte	0x7e8
 4444 07e1 18       		.uleb128 0x18
 4445 07e2 01       		.uleb128 0x1
 4446 07e3 50       		.byte	0x50
 4447 07e4 02       		.uleb128 0x2
 4448 07e5 74       		.byte	0x74
 4449 07e6 00       		.sleb128 0
 4450 07e7 00       		.byte	0
 4451 07e8 16       		.uleb128 0x16
 4452 07e9 7A000000 		.4byte	.LVL99
 4453 07ed 291D0000 		.4byte	0x1d29
 4454 07f1 16       		.uleb128 0x16
 4455 07f2 82000000 		.4byte	.LVL100
 4456 07f6 351D0000 		.4byte	0x1d35
 4457 07fa 17       		.uleb128 0x17
 4458 07fb 98000000 		.4byte	.LVL101
 4459 07ff 5F1D0000 		.4byte	0x1d5f
 4460 0803 17080000 		.4byte	0x817
ARM GAS  C:\Users\TERENC~1\AppData\Local\Temp\ccVObDgl.s 			page 100


 4461 0807 18       		.uleb128 0x18
 4462 0808 01       		.uleb128 0x1
 4463 0809 50       		.byte	0x50
 4464 080a 02       		.uleb128 0x2
 4465 080b 74       		.byte	0x74
 4466 080c 00       		.sleb128 0
 4467 080d 18       		.uleb128 0x18
 4468 080e 01       		.uleb128 0x1
 4469 080f 51       		.byte	0x51
 4470 0810 05       		.uleb128 0x5
 4471 0811 03       		.byte	0x3
 4472 0812 8C000000 		.4byte	.LC32
 4473 0816 00       		.byte	0
 4474 0817 17       		.uleb128 0x17
 4475 0818 9E000000 		.4byte	.LVL102
 4476 081c 491D0000 		.4byte	0x1d49
 4477 0820 2B080000 		.4byte	0x82b
 4478 0824 18       		.uleb128 0x18
 4479 0825 01       		.uleb128 0x1
 4480 0826 50       		.byte	0x50
 4481 0827 02       		.uleb128 0x2
 4482 0828 74       		.byte	0x74
 4483 0829 00       		.sleb128 0
 4484 082a 00       		.byte	0
 4485 082b 16       		.uleb128 0x16
 4486 082c A2000000 		.4byte	.LVL103
 4487 0830 291D0000 		.4byte	0x1d29
 4488 0834 16       		.uleb128 0x16
 4489 0835 AA000000 		.4byte	.LVL104
 4490 0839 351D0000 		.4byte	0x1d35
 4491 083d 17       		.uleb128 0x17
 4492 083e C0000000 		.4byte	.LVL105
 4493 0842 5F1D0000 		.4byte	0x1d5f
 4494 0846 5A080000 		.4byte	0x85a
 4495 084a 18       		.uleb128 0x18
 4496 084b 01       		.uleb128 0x1
 4497 084c 50       		.byte	0x50
 4498 084d 02       		.uleb128 0x2
 4499 084e 74       		.byte	0x74
 4500 084f 00       		.sleb128 0
 4501 0850 18       		.uleb128 0x18
 4502 0851 01       		.uleb128 0x1
 4503 0852 51       		.byte	0x51
 4504 0853 05       		.uleb128 0x5
 4505 0854 03       		.byte	0x3
 4506 0855 A0000000 		.4byte	.LC34
 4507 0859 00       		.byte	0
 4508 085a 17       		.uleb128 0x17
 4509 085b C6000000 		.4byte	.LVL106
 4510 085f 491D0000 		.4byte	0x1d49
 4511 0863 6E080000 		.4byte	0x86e
 4512 0867 18       		.uleb128 0x18
 4513 0868 01       		.uleb128 0x1
 4514 0869 50       		.byte	0x50
 4515 086a 02       		.uleb128 0x2
 4516 086b 74       		.byte	0x74
 4517 086c 00       		.sleb128 0
ARM GAS  C:\Users\TERENC~1\AppData\Local\Temp\ccVObDgl.s 			page 101


 4518 086d 00       		.byte	0
 4519 086e 16       		.uleb128 0x16
 4520 086f CA000000 		.4byte	.LVL107
 4521 0873 291D0000 		.4byte	0x1d29
 4522 0877 16       		.uleb128 0x16
 4523 0878 D2000000 		.4byte	.LVL108
 4524 087c 351D0000 		.4byte	0x1d35
 4525 0880 17       		.uleb128 0x17
 4526 0881 E8000000 		.4byte	.LVL109
 4527 0885 5F1D0000 		.4byte	0x1d5f
 4528 0889 9D080000 		.4byte	0x89d
 4529 088d 18       		.uleb128 0x18
 4530 088e 01       		.uleb128 0x1
 4531 088f 50       		.byte	0x50
 4532 0890 02       		.uleb128 0x2
 4533 0891 74       		.byte	0x74
 4534 0892 00       		.sleb128 0
 4535 0893 18       		.uleb128 0x18
 4536 0894 01       		.uleb128 0x1
 4537 0895 51       		.byte	0x51
 4538 0896 05       		.uleb128 0x5
 4539 0897 03       		.byte	0x3
 4540 0898 B4000000 		.4byte	.LC36
 4541 089c 00       		.byte	0
 4542 089d 17       		.uleb128 0x17
 4543 089e EE000000 		.4byte	.LVL110
 4544 08a2 491D0000 		.4byte	0x1d49
 4545 08a6 B1080000 		.4byte	0x8b1
 4546 08aa 18       		.uleb128 0x18
 4547 08ab 01       		.uleb128 0x1
 4548 08ac 50       		.byte	0x50
 4549 08ad 02       		.uleb128 0x2
 4550 08ae 74       		.byte	0x74
 4551 08af 00       		.sleb128 0
 4552 08b0 00       		.byte	0
 4553 08b1 16       		.uleb128 0x16
 4554 08b2 F2000000 		.4byte	.LVL111
 4555 08b6 291D0000 		.4byte	0x1d29
 4556 08ba 16       		.uleb128 0x16
 4557 08bb FA000000 		.4byte	.LVL112
 4558 08bf 351D0000 		.4byte	0x1d35
 4559 08c3 17       		.uleb128 0x17
 4560 08c4 0E010000 		.4byte	.LVL113
 4561 08c8 5F1D0000 		.4byte	0x1d5f
 4562 08cc E0080000 		.4byte	0x8e0
 4563 08d0 18       		.uleb128 0x18
 4564 08d1 01       		.uleb128 0x1
 4565 08d2 50       		.byte	0x50
 4566 08d3 02       		.uleb128 0x2
 4567 08d4 74       		.byte	0x74
 4568 08d5 00       		.sleb128 0
 4569 08d6 18       		.uleb128 0x18
 4570 08d7 01       		.uleb128 0x1
 4571 08d8 51       		.byte	0x51
 4572 08d9 05       		.uleb128 0x5
 4573 08da 03       		.byte	0x3
 4574 08db C8000000 		.4byte	.LC38
ARM GAS  C:\Users\TERENC~1\AppData\Local\Temp\ccVObDgl.s 			page 102


 4575 08df 00       		.byte	0
 4576 08e0 17       		.uleb128 0x17
 4577 08e1 14010000 		.4byte	.LVL114
 4578 08e5 491D0000 		.4byte	0x1d49
 4579 08e9 F4080000 		.4byte	0x8f4
 4580 08ed 18       		.uleb128 0x18
 4581 08ee 01       		.uleb128 0x1
 4582 08ef 50       		.byte	0x50
 4583 08f0 02       		.uleb128 0x2
 4584 08f1 74       		.byte	0x74
 4585 08f2 00       		.sleb128 0
 4586 08f3 00       		.byte	0
 4587 08f4 16       		.uleb128 0x16
 4588 08f5 18010000 		.4byte	.LVL115
 4589 08f9 291D0000 		.4byte	0x1d29
 4590 08fd 16       		.uleb128 0x16
 4591 08fe 20010000 		.4byte	.LVL116
 4592 0902 351D0000 		.4byte	0x1d35
 4593 0906 17       		.uleb128 0x17
 4594 0907 34010000 		.4byte	.LVL117
 4595 090b 5F1D0000 		.4byte	0x1d5f
 4596 090f 23090000 		.4byte	0x923
 4597 0913 18       		.uleb128 0x18
 4598 0914 01       		.uleb128 0x1
 4599 0915 50       		.byte	0x50
 4600 0916 02       		.uleb128 0x2
 4601 0917 74       		.byte	0x74
 4602 0918 00       		.sleb128 0
 4603 0919 18       		.uleb128 0x18
 4604 091a 01       		.uleb128 0x1
 4605 091b 51       		.byte	0x51
 4606 091c 05       		.uleb128 0x5
 4607 091d 03       		.byte	0x3
 4608 091e E4000000 		.4byte	.LC40
 4609 0922 00       		.byte	0
 4610 0923 17       		.uleb128 0x17
 4611 0924 3A010000 		.4byte	.LVL118
 4612 0928 491D0000 		.4byte	0x1d49
 4613 092c 37090000 		.4byte	0x937
 4614 0930 18       		.uleb128 0x18
 4615 0931 01       		.uleb128 0x1
 4616 0932 50       		.byte	0x50
 4617 0933 02       		.uleb128 0x2
 4618 0934 74       		.byte	0x74
 4619 0935 00       		.sleb128 0
 4620 0936 00       		.byte	0
 4621 0937 16       		.uleb128 0x16
 4622 0938 3E010000 		.4byte	.LVL119
 4623 093c 291D0000 		.4byte	0x1d29
 4624 0940 16       		.uleb128 0x16
 4625 0941 46010000 		.4byte	.LVL120
 4626 0945 351D0000 		.4byte	0x1d35
 4627 0949 17       		.uleb128 0x17
 4628 094a 56010000 		.4byte	.LVL121
 4629 094e 401D0000 		.4byte	0x1d40
 4630 0952 6B090000 		.4byte	0x96b
 4631 0956 18       		.uleb128 0x18
ARM GAS  C:\Users\TERENC~1\AppData\Local\Temp\ccVObDgl.s 			page 103


 4632 0957 01       		.uleb128 0x1
 4633 0958 50       		.byte	0x50
 4634 0959 02       		.uleb128 0x2
 4635 095a 74       		.byte	0x74
 4636 095b 00       		.sleb128 0
 4637 095c 18       		.uleb128 0x18
 4638 095d 01       		.uleb128 0x1
 4639 095e 51       		.byte	0x51
 4640 095f 05       		.uleb128 0x5
 4641 0960 03       		.byte	0x3
 4642 0961 FC000000 		.4byte	.LC42
 4643 0965 18       		.uleb128 0x18
 4644 0966 01       		.uleb128 0x1
 4645 0967 52       		.byte	0x52
 4646 0968 01       		.uleb128 0x1
 4647 0969 3A       		.byte	0x3a
 4648 096a 00       		.byte	0
 4649 096b 19       		.uleb128 0x19
 4650 096c 5C010000 		.4byte	.LVL122
 4651 0970 491D0000 		.4byte	0x1d49
 4652 0974 18       		.uleb128 0x18
 4653 0975 01       		.uleb128 0x1
 4654 0976 50       		.byte	0x50
 4655 0977 02       		.uleb128 0x2
 4656 0978 74       		.byte	0x74
 4657 0979 00       		.sleb128 0
 4658 097a 00       		.byte	0
 4659 097b 00       		.byte	0
 4660 097c 1A       		.uleb128 0x1a
 4661 097d 37060000 		.4byte	.LASF58
 4662 0981 01       		.byte	0x1
 4663 0982 F9       		.byte	0xf9
 4664 0983 25000000 		.4byte	0x25
 4665 0987 00000000 		.4byte	.LFB6
 4666 098b AC000000 		.4byte	.LFE6-.LFB6
 4667 098f 01       		.uleb128 0x1
 4668 0990 9C       		.byte	0x9c
 4669 0991 C50A0000 		.4byte	0xac5
 4670 0995 1B       		.uleb128 0x1b
 4671 0996 29040000 		.4byte	.LASF46
 4672 099a 01       		.byte	0x1
 4673 099b F9       		.byte	0xf9
 4674 099c 25000000 		.4byte	0x25
 4675 09a0 C0040000 		.4byte	.LLST25
 4676 09a4 1B       		.uleb128 0x1b
 4677 09a5 5A040000 		.4byte	.LASF47
 4678 09a9 01       		.byte	0x1
 4679 09aa F9       		.byte	0xf9
 4680 09ab 25020000 		.4byte	0x225
 4681 09af 0D050000 		.4byte	.LLST26
 4682 09b3 1D       		.uleb128 0x1d
 4683 09b4 766F6C00 		.ascii	"vol\000"
 4684 09b8 01       		.byte	0x1
 4685 09b9 FB       		.byte	0xfb
 4686 09ba 25000000 		.4byte	0x25
 4687 09be 47050000 		.4byte	.LLST27
 4688 09c2 1D       		.uleb128 0x1d
ARM GAS  C:\Users\TERENC~1\AppData\Local\Temp\ccVObDgl.s 			page 104


 4689 09c3 6900     		.ascii	"i\000"
 4690 09c5 01       		.byte	0x1
 4691 09c6 FC       		.byte	0xfc
 4692 09c7 25000000 		.4byte	0x25
 4693 09cb 5A050000 		.4byte	.LLST28
 4694 09cf 1D       		.uleb128 0x1d
 4695 09d0 727600   		.ascii	"rv\000"
 4696 09d3 01       		.byte	0x1
 4697 09d4 FD       		.byte	0xfd
 4698 09d5 B9000000 		.4byte	0xb9
 4699 09d9 92050000 		.4byte	.LLST29
 4700 09dd 16       		.uleb128 0x16
 4701 09de 0A000000 		.4byte	.LVL125
 4702 09e2 291D0000 		.4byte	0x1d29
 4703 09e6 16       		.uleb128 0x16
 4704 09e7 12000000 		.4byte	.LVL126
 4705 09eb 351D0000 		.4byte	0x1d35
 4706 09ef 17       		.uleb128 0x17
 4707 09f0 22000000 		.4byte	.LVL127
 4708 09f4 401D0000 		.4byte	0x1d40
 4709 09f8 110A0000 		.4byte	0xa11
 4710 09fc 18       		.uleb128 0x18
 4711 09fd 01       		.uleb128 0x1
 4712 09fe 50       		.byte	0x50
 4713 09ff 02       		.uleb128 0x2
 4714 0a00 74       		.byte	0x74
 4715 0a01 00       		.sleb128 0
 4716 0a02 18       		.uleb128 0x18
 4717 0a03 01       		.uleb128 0x1
 4718 0a04 51       		.byte	0x51
 4719 0a05 05       		.uleb128 0x5
 4720 0a06 03       		.byte	0x3
 4721 0a07 0C000000 		.4byte	.LC4
 4722 0a0b 18       		.uleb128 0x18
 4723 0a0c 01       		.uleb128 0x1
 4724 0a0d 52       		.byte	0x52
 4725 0a0e 01       		.uleb128 0x1
 4726 0a0f 4E       		.byte	0x4e
 4727 0a10 00       		.byte	0
 4728 0a11 17       		.uleb128 0x17
 4729 0a12 28000000 		.4byte	.LVL128
 4730 0a16 491D0000 		.4byte	0x1d49
 4731 0a1a 250A0000 		.4byte	0xa25
 4732 0a1e 18       		.uleb128 0x18
 4733 0a1f 01       		.uleb128 0x1
 4734 0a20 50       		.byte	0x50
 4735 0a21 02       		.uleb128 0x2
 4736 0a22 74       		.byte	0x74
 4737 0a23 00       		.sleb128 0
 4738 0a24 00       		.byte	0
 4739 0a25 16       		.uleb128 0x16
 4740 0a26 34000000 		.4byte	.LVL131
 4741 0a2a 541D0000 		.4byte	0x1d54
 4742 0a2e 16       		.uleb128 0x16
 4743 0a2f 3A000000 		.4byte	.LVL133
 4744 0a33 6A1D0000 		.4byte	0x1d6a
 4745 0a37 16       		.uleb128 0x16
ARM GAS  C:\Users\TERENC~1\AppData\Local\Temp\ccVObDgl.s 			page 105


 4746 0a38 42000000 		.4byte	.LVL135
 4747 0a3c 291D0000 		.4byte	0x1d29
 4748 0a40 16       		.uleb128 0x16
 4749 0a41 4A000000 		.4byte	.LVL136
 4750 0a45 351D0000 		.4byte	0x1d35
 4751 0a49 17       		.uleb128 0x17
 4752 0a4a 5A000000 		.4byte	.LVL137
 4753 0a4e 401D0000 		.4byte	0x1d40
 4754 0a52 6B0A0000 		.4byte	0xa6b
 4755 0a56 18       		.uleb128 0x18
 4756 0a57 01       		.uleb128 0x1
 4757 0a58 50       		.byte	0x50
 4758 0a59 02       		.uleb128 0x2
 4759 0a5a 74       		.byte	0x74
 4760 0a5b 00       		.sleb128 0
 4761 0a5c 18       		.uleb128 0x18
 4762 0a5d 01       		.uleb128 0x1
 4763 0a5e 51       		.byte	0x51
 4764 0a5f 05       		.uleb128 0x5
 4765 0a60 03       		.byte	0x3
 4766 0a61 08010000 		.4byte	.LC46
 4767 0a65 18       		.uleb128 0x18
 4768 0a66 01       		.uleb128 0x1
 4769 0a67 52       		.byte	0x52
 4770 0a68 01       		.uleb128 0x1
 4771 0a69 39       		.byte	0x39
 4772 0a6a 00       		.byte	0
 4773 0a6b 17       		.uleb128 0x17
 4774 0a6c 60000000 		.4byte	.LVL138
 4775 0a70 491D0000 		.4byte	0x1d49
 4776 0a74 7F0A0000 		.4byte	0xa7f
 4777 0a78 18       		.uleb128 0x18
 4778 0a79 01       		.uleb128 0x1
 4779 0a7a 50       		.byte	0x50
 4780 0a7b 02       		.uleb128 0x2
 4781 0a7c 74       		.byte	0x74
 4782 0a7d 00       		.sleb128 0
 4783 0a7e 00       		.byte	0
 4784 0a7f 16       		.uleb128 0x16
 4785 0a80 68000000 		.4byte	.LVL140
 4786 0a84 291D0000 		.4byte	0x1d29
 4787 0a88 16       		.uleb128 0x16
 4788 0a89 70000000 		.4byte	.LVL141
 4789 0a8d 351D0000 		.4byte	0x1d35
 4790 0a91 17       		.uleb128 0x17
 4791 0a92 80000000 		.4byte	.LVL142
 4792 0a96 5F1D0000 		.4byte	0x1d5f
 4793 0a9a B40A0000 		.4byte	0xab4
 4794 0a9e 18       		.uleb128 0x18
 4795 0a9f 01       		.uleb128 0x1
 4796 0aa0 50       		.byte	0x50
 4797 0aa1 02       		.uleb128 0x2
 4798 0aa2 75       		.byte	0x75
 4799 0aa3 00       		.sleb128 0
 4800 0aa4 18       		.uleb128 0x18
 4801 0aa5 01       		.uleb128 0x1
 4802 0aa6 51       		.byte	0x51
ARM GAS  C:\Users\TERENC~1\AppData\Local\Temp\ccVObDgl.s 			page 106


 4803 0aa7 05       		.uleb128 0x5
 4804 0aa8 03       		.byte	0x3
 4805 0aa9 14010000 		.4byte	.LC48
 4806 0aad 18       		.uleb128 0x18
 4807 0aae 01       		.uleb128 0x1
 4808 0aaf 52       		.byte	0x52
 4809 0ab0 02       		.uleb128 0x2
 4810 0ab1 74       		.byte	0x74
 4811 0ab2 00       		.sleb128 0
 4812 0ab3 00       		.byte	0
 4813 0ab4 19       		.uleb128 0x19
 4814 0ab5 86000000 		.4byte	.LVL143
 4815 0ab9 491D0000 		.4byte	0x1d49
 4816 0abd 18       		.uleb128 0x18
 4817 0abe 01       		.uleb128 0x1
 4818 0abf 50       		.byte	0x50
 4819 0ac0 02       		.uleb128 0x2
 4820 0ac1 75       		.byte	0x75
 4821 0ac2 00       		.sleb128 0
 4822 0ac3 00       		.byte	0
 4823 0ac4 00       		.byte	0
 4824 0ac5 12       		.uleb128 0x12
 4825 0ac6 80010000 		.4byte	.LASF59
 4826 0aca 01       		.byte	0x1
 4827 0acb 1601     		.2byte	0x116
 4828 0acd 25000000 		.4byte	0x25
 4829 0ad1 00000000 		.4byte	.LFB7
 4830 0ad5 34000000 		.4byte	.LFE7-.LFB7
 4831 0ad9 01       		.uleb128 0x1
 4832 0ada 9C       		.byte	0x9c
 4833 0adb 480B0000 		.4byte	0xb48
 4834 0adf 13       		.uleb128 0x13
 4835 0ae0 29040000 		.4byte	.LASF46
 4836 0ae4 01       		.byte	0x1
 4837 0ae5 1601     		.2byte	0x116
 4838 0ae7 25000000 		.4byte	0x25
 4839 0aeb B0050000 		.4byte	.LLST30
 4840 0aef 13       		.uleb128 0x13
 4841 0af0 5A040000 		.4byte	.LASF47
 4842 0af4 01       		.byte	0x1
 4843 0af5 1601     		.2byte	0x116
 4844 0af7 25020000 		.4byte	0x225
 4845 0afb D1050000 		.4byte	.LLST31
 4846 0aff 16       		.uleb128 0x16
 4847 0b00 06000000 		.4byte	.LVL148
 4848 0b04 291D0000 		.4byte	0x1d29
 4849 0b08 16       		.uleb128 0x16
 4850 0b09 0E000000 		.4byte	.LVL149
 4851 0b0d 351D0000 		.4byte	0x1d35
 4852 0b11 16       		.uleb128 0x16
 4853 0b12 16000000 		.4byte	.LVL150
 4854 0b16 751D0000 		.4byte	0x1d75
 4855 0b1a 17       		.uleb128 0x17
 4856 0b1b 22000000 		.4byte	.LVL151
 4857 0b1f 5F1D0000 		.4byte	0x1d5f
 4858 0b23 370B0000 		.4byte	0xb37
 4859 0b27 18       		.uleb128 0x18
ARM GAS  C:\Users\TERENC~1\AppData\Local\Temp\ccVObDgl.s 			page 107


 4860 0b28 01       		.uleb128 0x1
 4861 0b29 50       		.byte	0x50
 4862 0b2a 02       		.uleb128 0x2
 4863 0b2b 74       		.byte	0x74
 4864 0b2c 00       		.sleb128 0
 4865 0b2d 18       		.uleb128 0x18
 4866 0b2e 01       		.uleb128 0x1
 4867 0b2f 51       		.byte	0x51
 4868 0b30 05       		.uleb128 0x5
 4869 0b31 03       		.byte	0x3
 4870 0b32 20010000 		.4byte	.LC50
 4871 0b36 00       		.byte	0
 4872 0b37 19       		.uleb128 0x19
 4873 0b38 28000000 		.4byte	.LVL152
 4874 0b3c 491D0000 		.4byte	0x1d49
 4875 0b40 18       		.uleb128 0x18
 4876 0b41 01       		.uleb128 0x1
 4877 0b42 50       		.byte	0x50
 4878 0b43 02       		.uleb128 0x2
 4879 0b44 74       		.byte	0x74
 4880 0b45 00       		.sleb128 0
 4881 0b46 00       		.byte	0
 4882 0b47 00       		.byte	0
 4883 0b48 12       		.uleb128 0x12
 4884 0b49 94020000 		.4byte	.LASF60
 4885 0b4d 01       		.byte	0x1
 4886 0b4e 1D01     		.2byte	0x11d
 4887 0b50 25000000 		.4byte	0x25
 4888 0b54 00000000 		.4byte	.LFB8
 4889 0b58 BC000000 		.4byte	.LFE8-.LFB8
 4890 0b5c 01       		.uleb128 0x1
 4891 0b5d 9C       		.byte	0x9c
 4892 0b5e CA0C0000 		.4byte	0xcca
 4893 0b62 13       		.uleb128 0x13
 4894 0b63 29040000 		.4byte	.LASF46
 4895 0b67 01       		.byte	0x1
 4896 0b68 1D01     		.2byte	0x11d
 4897 0b6a 25000000 		.4byte	0x25
 4898 0b6e F2050000 		.4byte	.LLST32
 4899 0b72 13       		.uleb128 0x13
 4900 0b73 5A040000 		.4byte	.LASF47
 4901 0b77 01       		.byte	0x1
 4902 0b78 1D01     		.2byte	0x11d
 4903 0b7a 25020000 		.4byte	0x225
 4904 0b7e 3F060000 		.4byte	.LLST33
 4905 0b82 1E       		.uleb128 0x1e
 4906 0b83 6900     		.ascii	"i\000"
 4907 0b85 01       		.byte	0x1
 4908 0b86 1F01     		.2byte	0x11f
 4909 0b88 25000000 		.4byte	0x25
 4910 0b8c A8060000 		.4byte	.LLST34
 4911 0b90 1E       		.uleb128 0x1e
 4912 0b91 72656700 		.ascii	"reg\000"
 4913 0b95 01       		.byte	0x1
 4914 0b96 2001     		.2byte	0x120
 4915 0b98 B9000000 		.4byte	0xb9
 4916 0b9c EC060000 		.4byte	.LLST35
ARM GAS  C:\Users\TERENC~1\AppData\Local\Temp\ccVObDgl.s 			page 108


 4917 0ba0 1F       		.uleb128 0x1f
 4918 0ba1 7A030000 		.4byte	.LASF61
 4919 0ba5 01       		.byte	0x1
 4920 0ba6 2101     		.2byte	0x121
 4921 0ba8 C4000000 		.4byte	0xc4
 4922 0bac 0A070000 		.4byte	.LLST36
 4923 0bb0 1E       		.uleb128 0x1e
 4924 0bb1 727600   		.ascii	"rv\000"
 4925 0bb4 01       		.byte	0x1
 4926 0bb5 2201     		.2byte	0x122
 4927 0bb7 25000000 		.4byte	0x25
 4928 0bbb 1D070000 		.4byte	.LLST37
 4929 0bbf 16       		.uleb128 0x16
 4930 0bc0 0C000000 		.4byte	.LVL155
 4931 0bc4 291D0000 		.4byte	0x1d29
 4932 0bc8 16       		.uleb128 0x16
 4933 0bc9 14000000 		.4byte	.LVL156
 4934 0bcd 351D0000 		.4byte	0x1d35
 4935 0bd1 17       		.uleb128 0x17
 4936 0bd2 24000000 		.4byte	.LVL158
 4937 0bd6 401D0000 		.4byte	0x1d40
 4938 0bda F30B0000 		.4byte	0xbf3
 4939 0bde 18       		.uleb128 0x18
 4940 0bdf 01       		.uleb128 0x1
 4941 0be0 50       		.byte	0x50
 4942 0be1 02       		.uleb128 0x2
 4943 0be2 74       		.byte	0x74
 4944 0be3 00       		.sleb128 0
 4945 0be4 18       		.uleb128 0x18
 4946 0be5 01       		.uleb128 0x1
 4947 0be6 51       		.byte	0x51
 4948 0be7 05       		.uleb128 0x5
 4949 0be8 03       		.byte	0x3
 4950 0be9 0C000000 		.4byte	.LC4
 4951 0bed 18       		.uleb128 0x18
 4952 0bee 01       		.uleb128 0x1
 4953 0bef 52       		.byte	0x52
 4954 0bf0 01       		.uleb128 0x1
 4955 0bf1 4E       		.byte	0x4e
 4956 0bf2 00       		.byte	0
 4957 0bf3 17       		.uleb128 0x17
 4958 0bf4 2A000000 		.4byte	.LVL159
 4959 0bf8 491D0000 		.4byte	0x1d49
 4960 0bfc 070C0000 		.4byte	0xc07
 4961 0c00 18       		.uleb128 0x18
 4962 0c01 01       		.uleb128 0x1
 4963 0c02 50       		.byte	0x50
 4964 0c03 02       		.uleb128 0x2
 4965 0c04 74       		.byte	0x74
 4966 0c05 00       		.sleb128 0
 4967 0c06 00       		.byte	0
 4968 0c07 16       		.uleb128 0x16
 4969 0c08 36000000 		.4byte	.LVL162
 4970 0c0c 541D0000 		.4byte	0x1d54
 4971 0c10 17       		.uleb128 0x17
 4972 0c11 42000000 		.4byte	.LVL164
 4973 0c15 801D0000 		.4byte	0x1d80
ARM GAS  C:\Users\TERENC~1\AppData\Local\Temp\ccVObDgl.s 			page 109


 4974 0c19 280C0000 		.4byte	0xc28
 4975 0c1d 18       		.uleb128 0x18
 4976 0c1e 01       		.uleb128 0x1
 4977 0c1f 51       		.byte	0x51
 4978 0c20 01       		.uleb128 0x1
 4979 0c21 30       		.byte	0x30
 4980 0c22 18       		.uleb128 0x18
 4981 0c23 01       		.uleb128 0x1
 4982 0c24 52       		.byte	0x52
 4983 0c25 01       		.uleb128 0x1
 4984 0c26 40       		.byte	0x40
 4985 0c27 00       		.byte	0
 4986 0c28 17       		.uleb128 0x17
 4987 0c29 4A000000 		.4byte	.LVL166
 4988 0c2d 8B1D0000 		.4byte	0x1d8b
 4989 0c31 3C0C0000 		.4byte	0xc3c
 4990 0c35 18       		.uleb128 0x18
 4991 0c36 01       		.uleb128 0x1
 4992 0c37 50       		.byte	0x50
 4993 0c38 02       		.uleb128 0x2
 4994 0c39 75       		.byte	0x75
 4995 0c3a 00       		.sleb128 0
 4996 0c3b 00       		.byte	0
 4997 0c3c 16       		.uleb128 0x16
 4998 0c3d 52000000 		.4byte	.LVL168
 4999 0c41 291D0000 		.4byte	0x1d29
 5000 0c45 16       		.uleb128 0x16
 5001 0c46 5A000000 		.4byte	.LVL169
 5002 0c4a 351D0000 		.4byte	0x1d35
 5003 0c4e 17       		.uleb128 0x17
 5004 0c4f 6A000000 		.4byte	.LVL171
 5005 0c53 401D0000 		.4byte	0x1d40
 5006 0c57 700C0000 		.4byte	0xc70
 5007 0c5b 18       		.uleb128 0x18
 5008 0c5c 01       		.uleb128 0x1
 5009 0c5d 50       		.byte	0x50
 5010 0c5e 02       		.uleb128 0x2
 5011 0c5f 74       		.byte	0x74
 5012 0c60 00       		.sleb128 0
 5013 0c61 18       		.uleb128 0x18
 5014 0c62 01       		.uleb128 0x1
 5015 0c63 51       		.byte	0x51
 5016 0c64 05       		.uleb128 0x5
 5017 0c65 03       		.byte	0x3
 5018 0c66 08010000 		.4byte	.LC46
 5019 0c6a 18       		.uleb128 0x18
 5020 0c6b 01       		.uleb128 0x1
 5021 0c6c 52       		.byte	0x52
 5022 0c6d 01       		.uleb128 0x1
 5023 0c6e 39       		.byte	0x39
 5024 0c6f 00       		.byte	0
 5025 0c70 17       		.uleb128 0x17
 5026 0c71 70000000 		.4byte	.LVL172
 5027 0c75 491D0000 		.4byte	0x1d49
 5028 0c79 840C0000 		.4byte	0xc84
 5029 0c7d 18       		.uleb128 0x18
 5030 0c7e 01       		.uleb128 0x1
ARM GAS  C:\Users\TERENC~1\AppData\Local\Temp\ccVObDgl.s 			page 110


 5031 0c7f 50       		.byte	0x50
 5032 0c80 02       		.uleb128 0x2
 5033 0c81 74       		.byte	0x74
 5034 0c82 00       		.sleb128 0
 5035 0c83 00       		.byte	0
 5036 0c84 16       		.uleb128 0x16
 5037 0c85 78000000 		.4byte	.LVL174
 5038 0c89 291D0000 		.4byte	0x1d29
 5039 0c8d 16       		.uleb128 0x16
 5040 0c8e 80000000 		.4byte	.LVL175
 5041 0c92 351D0000 		.4byte	0x1d35
 5042 0c96 17       		.uleb128 0x17
 5043 0c97 90000000 		.4byte	.LVL177
 5044 0c9b 5F1D0000 		.4byte	0x1d5f
 5045 0c9f B90C0000 		.4byte	0xcb9
 5046 0ca3 18       		.uleb128 0x18
 5047 0ca4 01       		.uleb128 0x1
 5048 0ca5 50       		.byte	0x50
 5049 0ca6 02       		.uleb128 0x2
 5050 0ca7 75       		.byte	0x75
 5051 0ca8 00       		.sleb128 0
 5052 0ca9 18       		.uleb128 0x18
 5053 0caa 01       		.uleb128 0x1
 5054 0cab 51       		.byte	0x51
 5055 0cac 05       		.uleb128 0x5
 5056 0cad 03       		.byte	0x3
 5057 0cae 14010000 		.4byte	.LC48
 5058 0cb2 18       		.uleb128 0x18
 5059 0cb3 01       		.uleb128 0x1
 5060 0cb4 52       		.byte	0x52
 5061 0cb5 02       		.uleb128 0x2
 5062 0cb6 74       		.byte	0x74
 5063 0cb7 00       		.sleb128 0
 5064 0cb8 00       		.byte	0
 5065 0cb9 19       		.uleb128 0x19
 5066 0cba 96000000 		.4byte	.LVL178
 5067 0cbe 491D0000 		.4byte	0x1d49
 5068 0cc2 18       		.uleb128 0x18
 5069 0cc3 01       		.uleb128 0x1
 5070 0cc4 50       		.byte	0x50
 5071 0cc5 02       		.uleb128 0x2
 5072 0cc6 75       		.byte	0x75
 5073 0cc7 00       		.sleb128 0
 5074 0cc8 00       		.byte	0
 5075 0cc9 00       		.byte	0
 5076 0cca 12       		.uleb128 0x12
 5077 0ccb 94000000 		.4byte	.LASF62
 5078 0ccf 01       		.byte	0x1
 5079 0cd0 3C01     		.2byte	0x13c
 5080 0cd2 25000000 		.4byte	0x25
 5081 0cd6 00000000 		.4byte	.LFB9
 5082 0cda 78000000 		.4byte	.LFE9-.LFB9
 5083 0cde 01       		.uleb128 0x1
 5084 0cdf 9C       		.byte	0x9c
 5085 0ce0 C70D0000 		.4byte	0xdc7
 5086 0ce4 13       		.uleb128 0x13
 5087 0ce5 29040000 		.4byte	.LASF46
ARM GAS  C:\Users\TERENC~1\AppData\Local\Temp\ccVObDgl.s 			page 111


 5088 0ce9 01       		.byte	0x1
 5089 0cea 3C01     		.2byte	0x13c
 5090 0cec 25000000 		.4byte	0x25
 5091 0cf0 5C070000 		.4byte	.LLST38
 5092 0cf4 13       		.uleb128 0x13
 5093 0cf5 5A040000 		.4byte	.LASF47
 5094 0cf9 01       		.byte	0x1
 5095 0cfa 3C01     		.2byte	0x13c
 5096 0cfc 25020000 		.4byte	0x225
 5097 0d00 A9070000 		.4byte	.LLST39
 5098 0d04 1E       		.uleb128 0x1e
 5099 0d05 6900     		.ascii	"i\000"
 5100 0d07 01       		.byte	0x1
 5101 0d08 3E01     		.2byte	0x13e
 5102 0d0a 25000000 		.4byte	0x25
 5103 0d0e E3070000 		.4byte	.LLST40
 5104 0d12 1E       		.uleb128 0x1e
 5105 0d13 72656700 		.ascii	"reg\000"
 5106 0d17 01       		.byte	0x1
 5107 0d18 3F01     		.2byte	0x13f
 5108 0d1a B9000000 		.4byte	0xb9
 5109 0d1e 1B080000 		.4byte	.LLST41
 5110 0d22 16       		.uleb128 0x16
 5111 0d23 0A000000 		.4byte	.LVL184
 5112 0d27 291D0000 		.4byte	0x1d29
 5113 0d2b 16       		.uleb128 0x16
 5114 0d2c 12000000 		.4byte	.LVL185
 5115 0d30 351D0000 		.4byte	0x1d35
 5116 0d34 17       		.uleb128 0x17
 5117 0d35 22000000 		.4byte	.LVL186
 5118 0d39 401D0000 		.4byte	0x1d40
 5119 0d3d 560D0000 		.4byte	0xd56
 5120 0d41 18       		.uleb128 0x18
 5121 0d42 01       		.uleb128 0x1
 5122 0d43 50       		.byte	0x50
 5123 0d44 02       		.uleb128 0x2
 5124 0d45 74       		.byte	0x74
 5125 0d46 00       		.sleb128 0
 5126 0d47 18       		.uleb128 0x18
 5127 0d48 01       		.uleb128 0x1
 5128 0d49 51       		.byte	0x51
 5129 0d4a 05       		.uleb128 0x5
 5130 0d4b 03       		.byte	0x3
 5131 0d4c 0C000000 		.4byte	.LC4
 5132 0d50 18       		.uleb128 0x18
 5133 0d51 01       		.uleb128 0x1
 5134 0d52 52       		.byte	0x52
 5135 0d53 01       		.uleb128 0x1
 5136 0d54 4E       		.byte	0x4e
 5137 0d55 00       		.byte	0
 5138 0d56 17       		.uleb128 0x17
 5139 0d57 28000000 		.4byte	.LVL187
 5140 0d5b 491D0000 		.4byte	0x1d49
 5141 0d5f 6A0D0000 		.4byte	0xd6a
 5142 0d63 18       		.uleb128 0x18
 5143 0d64 01       		.uleb128 0x1
 5144 0d65 50       		.byte	0x50
ARM GAS  C:\Users\TERENC~1\AppData\Local\Temp\ccVObDgl.s 			page 112


 5145 0d66 02       		.uleb128 0x2
 5146 0d67 74       		.byte	0x74
 5147 0d68 00       		.sleb128 0
 5148 0d69 00       		.byte	0
 5149 0d6a 16       		.uleb128 0x16
 5150 0d6b 34000000 		.4byte	.LVL190
 5151 0d6f 541D0000 		.4byte	0x1d54
 5152 0d73 16       		.uleb128 0x16
 5153 0d74 3A000000 		.4byte	.LVL192
 5154 0d78 291D0000 		.4byte	0x1d29
 5155 0d7c 16       		.uleb128 0x16
 5156 0d7d 42000000 		.4byte	.LVL193
 5157 0d81 351D0000 		.4byte	0x1d35
 5158 0d85 17       		.uleb128 0x17
 5159 0d86 4C000000 		.4byte	.LVL194
 5160 0d8a 961D0000 		.4byte	0x1d96
 5161 0d8e 990D0000 		.4byte	0xd99
 5162 0d92 18       		.uleb128 0x18
 5163 0d93 01       		.uleb128 0x1
 5164 0d94 50       		.byte	0x50
 5165 0d95 02       		.uleb128 0x2
 5166 0d96 74       		.byte	0x74
 5167 0d97 00       		.sleb128 0
 5168 0d98 00       		.byte	0
 5169 0d99 17       		.uleb128 0x17
 5170 0d9a 58000000 		.4byte	.LVL196
 5171 0d9e 5F1D0000 		.4byte	0x1d5f
 5172 0da2 B60D0000 		.4byte	0xdb6
 5173 0da6 18       		.uleb128 0x18
 5174 0da7 01       		.uleb128 0x1
 5175 0da8 50       		.byte	0x50
 5176 0da9 02       		.uleb128 0x2
 5177 0daa 74       		.byte	0x74
 5178 0dab 00       		.sleb128 0
 5179 0dac 18       		.uleb128 0x18
 5180 0dad 01       		.uleb128 0x1
 5181 0dae 51       		.byte	0x51
 5182 0daf 05       		.uleb128 0x5
 5183 0db0 03       		.byte	0x3
 5184 0db1 2C010000 		.4byte	.LC59
 5185 0db5 00       		.byte	0
 5186 0db6 19       		.uleb128 0x19
 5187 0db7 5E000000 		.4byte	.LVL197
 5188 0dbb 491D0000 		.4byte	0x1d49
 5189 0dbf 18       		.uleb128 0x18
 5190 0dc0 01       		.uleb128 0x1
 5191 0dc1 50       		.byte	0x50
 5192 0dc2 02       		.uleb128 0x2
 5193 0dc3 74       		.byte	0x74
 5194 0dc4 00       		.sleb128 0
 5195 0dc5 00       		.byte	0
 5196 0dc6 00       		.byte	0
 5197 0dc7 12       		.uleb128 0x12
 5198 0dc8 50000000 		.4byte	.LASF63
 5199 0dcc 01       		.byte	0x1
 5200 0dcd 5001     		.2byte	0x150
 5201 0dcf 25000000 		.4byte	0x25
ARM GAS  C:\Users\TERENC~1\AppData\Local\Temp\ccVObDgl.s 			page 113


 5202 0dd3 00000000 		.4byte	.LFB10
 5203 0dd7 34000000 		.4byte	.LFE10-.LFB10
 5204 0ddb 01       		.uleb128 0x1
 5205 0ddc 9C       		.byte	0x9c
 5206 0ddd 4F0E0000 		.4byte	0xe4f
 5207 0de1 13       		.uleb128 0x13
 5208 0de2 29040000 		.4byte	.LASF46
 5209 0de6 01       		.byte	0x1
 5210 0de7 5001     		.2byte	0x150
 5211 0de9 25000000 		.4byte	0x25
 5212 0ded 39080000 		.4byte	.LLST42
 5213 0df1 13       		.uleb128 0x13
 5214 0df2 5A040000 		.4byte	.LASF47
 5215 0df6 01       		.byte	0x1
 5216 0df7 5001     		.2byte	0x150
 5217 0df9 25020000 		.4byte	0x225
 5218 0dfd 5A080000 		.4byte	.LLST43
 5219 0e01 16       		.uleb128 0x16
 5220 0e02 06000000 		.4byte	.LVL202
 5221 0e06 A11D0000 		.4byte	0x1da1
 5222 0e0a 16       		.uleb128 0x16
 5223 0e0b 0A000000 		.4byte	.LVL203
 5224 0e0f 291D0000 		.4byte	0x1d29
 5225 0e13 16       		.uleb128 0x16
 5226 0e14 12000000 		.4byte	.LVL204
 5227 0e18 351D0000 		.4byte	0x1d35
 5228 0e1c 17       		.uleb128 0x17
 5229 0e1d 22000000 		.4byte	.LVL205
 5230 0e21 401D0000 		.4byte	0x1d40
 5231 0e25 3E0E0000 		.4byte	0xe3e
 5232 0e29 18       		.uleb128 0x18
 5233 0e2a 01       		.uleb128 0x1
 5234 0e2b 50       		.byte	0x50
 5235 0e2c 02       		.uleb128 0x2
 5236 0e2d 74       		.byte	0x74
 5237 0e2e 00       		.sleb128 0
 5238 0e2f 18       		.uleb128 0x18
 5239 0e30 01       		.uleb128 0x1
 5240 0e31 51       		.byte	0x51
 5241 0e32 05       		.uleb128 0x5
 5242 0e33 03       		.byte	0x3
 5243 0e34 3C010000 		.4byte	.LC62
 5244 0e38 18       		.uleb128 0x18
 5245 0e39 01       		.uleb128 0x1
 5246 0e3a 52       		.byte	0x52
 5247 0e3b 01       		.uleb128 0x1
 5248 0e3c 39       		.byte	0x39
 5249 0e3d 00       		.byte	0
 5250 0e3e 19       		.uleb128 0x19
 5251 0e3f 28000000 		.4byte	.LVL206
 5252 0e43 491D0000 		.4byte	0x1d49
 5253 0e47 18       		.uleb128 0x18
 5254 0e48 01       		.uleb128 0x1
 5255 0e49 50       		.byte	0x50
 5256 0e4a 02       		.uleb128 0x2
 5257 0e4b 74       		.byte	0x74
 5258 0e4c 00       		.sleb128 0
ARM GAS  C:\Users\TERENC~1\AppData\Local\Temp\ccVObDgl.s 			page 114


 5259 0e4d 00       		.byte	0
 5260 0e4e 00       		.byte	0
 5261 0e4f 12       		.uleb128 0x12
 5262 0e50 05030000 		.4byte	.LASF64
 5263 0e54 01       		.byte	0x1
 5264 0e55 5701     		.2byte	0x157
 5265 0e57 25000000 		.4byte	0x25
 5266 0e5b 00000000 		.4byte	.LFB11
 5267 0e5f 34000000 		.4byte	.LFE11-.LFB11
 5268 0e63 01       		.uleb128 0x1
 5269 0e64 9C       		.byte	0x9c
 5270 0e65 D70E0000 		.4byte	0xed7
 5271 0e69 13       		.uleb128 0x13
 5272 0e6a 29040000 		.4byte	.LASF46
 5273 0e6e 01       		.byte	0x1
 5274 0e6f 5701     		.2byte	0x157
 5275 0e71 25000000 		.4byte	0x25
 5276 0e75 7B080000 		.4byte	.LLST44
 5277 0e79 13       		.uleb128 0x13
 5278 0e7a 5A040000 		.4byte	.LASF47
 5279 0e7e 01       		.byte	0x1
 5280 0e7f 5701     		.2byte	0x157
 5281 0e81 25020000 		.4byte	0x225
 5282 0e85 9C080000 		.4byte	.LLST45
 5283 0e89 16       		.uleb128 0x16
 5284 0e8a 06000000 		.4byte	.LVL208
 5285 0e8e AC1D0000 		.4byte	0x1dac
 5286 0e92 16       		.uleb128 0x16
 5287 0e93 0A000000 		.4byte	.LVL209
 5288 0e97 291D0000 		.4byte	0x1d29
 5289 0e9b 16       		.uleb128 0x16
 5290 0e9c 12000000 		.4byte	.LVL210
 5291 0ea0 351D0000 		.4byte	0x1d35
 5292 0ea4 17       		.uleb128 0x17
 5293 0ea5 22000000 		.4byte	.LVL211
 5294 0ea9 401D0000 		.4byte	0x1d40
 5295 0ead C60E0000 		.4byte	0xec6
 5296 0eb1 18       		.uleb128 0x18
 5297 0eb2 01       		.uleb128 0x1
 5298 0eb3 50       		.byte	0x50
 5299 0eb4 02       		.uleb128 0x2
 5300 0eb5 74       		.byte	0x74
 5301 0eb6 00       		.sleb128 0
 5302 0eb7 18       		.uleb128 0x18
 5303 0eb8 01       		.uleb128 0x1
 5304 0eb9 51       		.byte	0x51
 5305 0eba 05       		.uleb128 0x5
 5306 0ebb 03       		.byte	0x3
 5307 0ebc 3C010000 		.4byte	.LC62
 5308 0ec0 18       		.uleb128 0x18
 5309 0ec1 01       		.uleb128 0x1
 5310 0ec2 52       		.byte	0x52
 5311 0ec3 01       		.uleb128 0x1
 5312 0ec4 39       		.byte	0x39
 5313 0ec5 00       		.byte	0
 5314 0ec6 19       		.uleb128 0x19
 5315 0ec7 28000000 		.4byte	.LVL212
ARM GAS  C:\Users\TERENC~1\AppData\Local\Temp\ccVObDgl.s 			page 115


 5316 0ecb 491D0000 		.4byte	0x1d49
 5317 0ecf 18       		.uleb128 0x18
 5318 0ed0 01       		.uleb128 0x1
 5319 0ed1 50       		.byte	0x50
 5320 0ed2 02       		.uleb128 0x2
 5321 0ed3 74       		.byte	0x74
 5322 0ed4 00       		.sleb128 0
 5323 0ed5 00       		.byte	0
 5324 0ed6 00       		.byte	0
 5325 0ed7 12       		.uleb128 0x12
 5326 0ed8 B5030000 		.4byte	.LASF65
 5327 0edc 01       		.byte	0x1
 5328 0edd 5E01     		.2byte	0x15e
 5329 0edf 25000000 		.4byte	0x25
 5330 0ee3 00000000 		.4byte	.LFB12
 5331 0ee7 34000000 		.4byte	.LFE12-.LFB12
 5332 0eeb 01       		.uleb128 0x1
 5333 0eec 9C       		.byte	0x9c
 5334 0eed 5A0F0000 		.4byte	0xf5a
 5335 0ef1 13       		.uleb128 0x13
 5336 0ef2 29040000 		.4byte	.LASF46
 5337 0ef6 01       		.byte	0x1
 5338 0ef7 5E01     		.2byte	0x15e
 5339 0ef9 25000000 		.4byte	0x25
 5340 0efd BD080000 		.4byte	.LLST46
 5341 0f01 13       		.uleb128 0x13
 5342 0f02 5A040000 		.4byte	.LASF47
 5343 0f06 01       		.byte	0x1
 5344 0f07 5E01     		.2byte	0x15e
 5345 0f09 25020000 		.4byte	0x225
 5346 0f0d DE080000 		.4byte	.LLST47
 5347 0f11 16       		.uleb128 0x16
 5348 0f12 06000000 		.4byte	.LVL214
 5349 0f16 291D0000 		.4byte	0x1d29
 5350 0f1a 16       		.uleb128 0x16
 5351 0f1b 0E000000 		.4byte	.LVL215
 5352 0f1f 351D0000 		.4byte	0x1d35
 5353 0f23 16       		.uleb128 0x16
 5354 0f24 16000000 		.4byte	.LVL216
 5355 0f28 B71D0000 		.4byte	0x1db7
 5356 0f2c 17       		.uleb128 0x17
 5357 0f2d 22000000 		.4byte	.LVL217
 5358 0f31 5F1D0000 		.4byte	0x1d5f
 5359 0f35 490F0000 		.4byte	0xf49
 5360 0f39 18       		.uleb128 0x18
 5361 0f3a 01       		.uleb128 0x1
 5362 0f3b 50       		.byte	0x50
 5363 0f3c 02       		.uleb128 0x2
 5364 0f3d 74       		.byte	0x74
 5365 0f3e 00       		.sleb128 0
 5366 0f3f 18       		.uleb128 0x18
 5367 0f40 01       		.uleb128 0x1
 5368 0f41 51       		.byte	0x51
 5369 0f42 05       		.uleb128 0x5
 5370 0f43 03       		.byte	0x3
 5371 0f44 48010000 		.4byte	.LC66
 5372 0f48 00       		.byte	0
ARM GAS  C:\Users\TERENC~1\AppData\Local\Temp\ccVObDgl.s 			page 116


 5373 0f49 19       		.uleb128 0x19
 5374 0f4a 28000000 		.4byte	.LVL218
 5375 0f4e 491D0000 		.4byte	0x1d49
 5376 0f52 18       		.uleb128 0x18
 5377 0f53 01       		.uleb128 0x1
 5378 0f54 50       		.byte	0x50
 5379 0f55 02       		.uleb128 0x2
 5380 0f56 74       		.byte	0x74
 5381 0f57 00       		.sleb128 0
 5382 0f58 00       		.byte	0
 5383 0f59 00       		.byte	0
 5384 0f5a 12       		.uleb128 0x12
 5385 0f5b 4D060000 		.4byte	.LASF66
 5386 0f5f 01       		.byte	0x1
 5387 0f60 6401     		.2byte	0x164
 5388 0f62 25000000 		.4byte	0x25
 5389 0f66 00000000 		.4byte	.LFB13
 5390 0f6a 34000000 		.4byte	.LFE13-.LFB13
 5391 0f6e 01       		.uleb128 0x1
 5392 0f6f 9C       		.byte	0x9c
 5393 0f70 E20F0000 		.4byte	0xfe2
 5394 0f74 13       		.uleb128 0x13
 5395 0f75 29040000 		.4byte	.LASF46
 5396 0f79 01       		.byte	0x1
 5397 0f7a 6401     		.2byte	0x164
 5398 0f7c 25000000 		.4byte	0x25
 5399 0f80 FF080000 		.4byte	.LLST48
 5400 0f84 13       		.uleb128 0x13
 5401 0f85 5A040000 		.4byte	.LASF47
 5402 0f89 01       		.byte	0x1
 5403 0f8a 6401     		.2byte	0x164
 5404 0f8c 25020000 		.4byte	0x225
 5405 0f90 20090000 		.4byte	.LLST49
 5406 0f94 16       		.uleb128 0x16
 5407 0f95 06000000 		.4byte	.LVL220
 5408 0f99 C21D0000 		.4byte	0x1dc2
 5409 0f9d 16       		.uleb128 0x16
 5410 0f9e 0A000000 		.4byte	.LVL221
 5411 0fa2 291D0000 		.4byte	0x1d29
 5412 0fa6 16       		.uleb128 0x16
 5413 0fa7 12000000 		.4byte	.LVL222
 5414 0fab 351D0000 		.4byte	0x1d35
 5415 0faf 17       		.uleb128 0x17
 5416 0fb0 22000000 		.4byte	.LVL223
 5417 0fb4 401D0000 		.4byte	0x1d40
 5418 0fb8 D10F0000 		.4byte	0xfd1
 5419 0fbc 18       		.uleb128 0x18
 5420 0fbd 01       		.uleb128 0x1
 5421 0fbe 50       		.byte	0x50
 5422 0fbf 02       		.uleb128 0x2
 5423 0fc0 74       		.byte	0x74
 5424 0fc1 00       		.sleb128 0
 5425 0fc2 18       		.uleb128 0x18
 5426 0fc3 01       		.uleb128 0x1
 5427 0fc4 51       		.byte	0x51
 5428 0fc5 05       		.uleb128 0x5
 5429 0fc6 03       		.byte	0x3
ARM GAS  C:\Users\TERENC~1\AppData\Local\Temp\ccVObDgl.s 			page 117


 5430 0fc7 3C010000 		.4byte	.LC62
 5431 0fcb 18       		.uleb128 0x18
 5432 0fcc 01       		.uleb128 0x1
 5433 0fcd 52       		.byte	0x52
 5434 0fce 01       		.uleb128 0x1
 5435 0fcf 39       		.byte	0x39
 5436 0fd0 00       		.byte	0
 5437 0fd1 19       		.uleb128 0x19
 5438 0fd2 28000000 		.4byte	.LVL224
 5439 0fd6 491D0000 		.4byte	0x1d49
 5440 0fda 18       		.uleb128 0x18
 5441 0fdb 01       		.uleb128 0x1
 5442 0fdc 50       		.byte	0x50
 5443 0fdd 02       		.uleb128 0x2
 5444 0fde 74       		.byte	0x74
 5445 0fdf 00       		.sleb128 0
 5446 0fe0 00       		.byte	0
 5447 0fe1 00       		.byte	0
 5448 0fe2 12       		.uleb128 0x12
 5449 0fe3 CA010000 		.4byte	.LASF67
 5450 0fe7 01       		.byte	0x1
 5451 0fe8 7D01     		.2byte	0x17d
 5452 0fea 25000000 		.4byte	0x25
 5453 0fee 00000000 		.4byte	.LFB16
 5454 0ff2 0A000000 		.4byte	.LFE16-.LFB16
 5455 0ff6 01       		.uleb128 0x1
 5456 0ff7 9C       		.byte	0x9c
 5457 0ff8 26100000 		.4byte	0x1026
 5458 0ffc 13       		.uleb128 0x13
 5459 0ffd 29040000 		.4byte	.LASF46
 5460 1001 01       		.byte	0x1
 5461 1002 7D01     		.2byte	0x17d
 5462 1004 25000000 		.4byte	0x25
 5463 1008 41090000 		.4byte	.LLST50
 5464 100c 13       		.uleb128 0x13
 5465 100d 5A040000 		.4byte	.LASF47
 5466 1011 01       		.byte	0x1
 5467 1012 7D01     		.2byte	0x17d
 5468 1014 25020000 		.4byte	0x225
 5469 1018 62090000 		.4byte	.LLST51
 5470 101c 16       		.uleb128 0x16
 5471 101d 06000000 		.4byte	.LVL226
 5472 1021 CD1D0000 		.4byte	0x1dcd
 5473 1025 00       		.byte	0
 5474 1026 12       		.uleb128 0x12
 5475 1027 D6040000 		.4byte	.LASF68
 5476 102b 01       		.byte	0x1
 5477 102c 0602     		.2byte	0x206
 5478 102e 25000000 		.4byte	0x25
 5479 1032 00000000 		.4byte	.LFB22
 5480 1036 34000000 		.4byte	.LFE22-.LFB22
 5481 103a 01       		.uleb128 0x1
 5482 103b 9C       		.byte	0x9c
 5483 103c A9100000 		.4byte	0x10a9
 5484 1040 13       		.uleb128 0x13
 5485 1041 29040000 		.4byte	.LASF46
 5486 1045 01       		.byte	0x1
ARM GAS  C:\Users\TERENC~1\AppData\Local\Temp\ccVObDgl.s 			page 118


 5487 1046 0602     		.2byte	0x206
 5488 1048 25000000 		.4byte	0x25
 5489 104c 83090000 		.4byte	.LLST52
 5490 1050 13       		.uleb128 0x13
 5491 1051 5A040000 		.4byte	.LASF47
 5492 1055 01       		.byte	0x1
 5493 1056 0602     		.2byte	0x206
 5494 1058 25020000 		.4byte	0x225
 5495 105c A4090000 		.4byte	.LLST53
 5496 1060 16       		.uleb128 0x16
 5497 1061 06000000 		.4byte	.LVL228
 5498 1065 291D0000 		.4byte	0x1d29
 5499 1069 16       		.uleb128 0x16
 5500 106a 0E000000 		.4byte	.LVL229
 5501 106e 351D0000 		.4byte	0x1d35
 5502 1072 16       		.uleb128 0x16
 5503 1073 16000000 		.4byte	.LVL230
 5504 1077 D81D0000 		.4byte	0x1dd8
 5505 107b 17       		.uleb128 0x17
 5506 107c 22000000 		.4byte	.LVL231
 5507 1080 5F1D0000 		.4byte	0x1d5f
 5508 1084 98100000 		.4byte	0x1098
 5509 1088 18       		.uleb128 0x18
 5510 1089 01       		.uleb128 0x1
 5511 108a 50       		.byte	0x50
 5512 108b 02       		.uleb128 0x2
 5513 108c 74       		.byte	0x74
 5514 108d 00       		.sleb128 0
 5515 108e 18       		.uleb128 0x18
 5516 108f 01       		.uleb128 0x1
 5517 1090 51       		.byte	0x51
 5518 1091 05       		.uleb128 0x5
 5519 1092 03       		.byte	0x3
 5520 1093 58010000 		.4byte	.LC71
 5521 1097 00       		.byte	0
 5522 1098 19       		.uleb128 0x19
 5523 1099 28000000 		.4byte	.LVL232
 5524 109d 491D0000 		.4byte	0x1d49
 5525 10a1 18       		.uleb128 0x18
 5526 10a2 01       		.uleb128 0x1
 5527 10a3 50       		.byte	0x50
 5528 10a4 02       		.uleb128 0x2
 5529 10a5 74       		.byte	0x74
 5530 10a6 00       		.sleb128 0
 5531 10a7 00       		.byte	0
 5532 10a8 00       		.byte	0
 5533 10a9 12       		.uleb128 0x12
 5534 10aa 87050000 		.4byte	.LASF69
 5535 10ae 01       		.byte	0x1
 5536 10af 0C02     		.2byte	0x20c
 5537 10b1 25000000 		.4byte	0x25
 5538 10b5 00000000 		.4byte	.LFB23
 5539 10b9 40000000 		.4byte	.LFE23-.LFB23
 5540 10bd 01       		.uleb128 0x1
 5541 10be 9C       		.byte	0x9c
 5542 10bf 49110000 		.4byte	0x1149
 5543 10c3 13       		.uleb128 0x13
ARM GAS  C:\Users\TERENC~1\AppData\Local\Temp\ccVObDgl.s 			page 119


 5544 10c4 29040000 		.4byte	.LASF46
 5545 10c8 01       		.byte	0x1
 5546 10c9 0C02     		.2byte	0x20c
 5547 10cb 25000000 		.4byte	0x25
 5548 10cf C5090000 		.4byte	.LLST54
 5549 10d3 13       		.uleb128 0x13
 5550 10d4 5A040000 		.4byte	.LASF47
 5551 10d8 01       		.byte	0x1
 5552 10d9 0C02     		.2byte	0x20c
 5553 10db 25020000 		.4byte	0x225
 5554 10df E6090000 		.4byte	.LLST55
 5555 10e3 17       		.uleb128 0x17
 5556 10e4 0C000000 		.4byte	.LVL236
 5557 10e8 801D0000 		.4byte	0x1d80
 5558 10ec FB100000 		.4byte	0x10fb
 5559 10f0 18       		.uleb128 0x18
 5560 10f1 01       		.uleb128 0x1
 5561 10f2 51       		.byte	0x51
 5562 10f3 01       		.uleb128 0x1
 5563 10f4 30       		.byte	0x30
 5564 10f5 18       		.uleb128 0x18
 5565 10f6 01       		.uleb128 0x1
 5566 10f7 52       		.byte	0x52
 5567 10f8 01       		.uleb128 0x1
 5568 10f9 40       		.byte	0x40
 5569 10fa 00       		.byte	0
 5570 10fb 16       		.uleb128 0x16
 5571 10fc 10000000 		.4byte	.LVL237
 5572 1100 E31D0000 		.4byte	0x1de3
 5573 1104 16       		.uleb128 0x16
 5574 1105 14000000 		.4byte	.LVL238
 5575 1109 291D0000 		.4byte	0x1d29
 5576 110d 16       		.uleb128 0x16
 5577 110e 1C000000 		.4byte	.LVL239
 5578 1112 351D0000 		.4byte	0x1d35
 5579 1116 17       		.uleb128 0x17
 5580 1117 2C000000 		.4byte	.LVL240
 5581 111b 401D0000 		.4byte	0x1d40
 5582 111f 38110000 		.4byte	0x1138
 5583 1123 18       		.uleb128 0x18
 5584 1124 01       		.uleb128 0x1
 5585 1125 50       		.byte	0x50
 5586 1126 02       		.uleb128 0x2
 5587 1127 74       		.byte	0x74
 5588 1128 00       		.sleb128 0
 5589 1129 18       		.uleb128 0x18
 5590 112a 01       		.uleb128 0x1
 5591 112b 51       		.byte	0x51
 5592 112c 05       		.uleb128 0x5
 5593 112d 03       		.byte	0x3
 5594 112e 68010000 		.4byte	.LC75
 5595 1132 18       		.uleb128 0x18
 5596 1133 01       		.uleb128 0x1
 5597 1134 52       		.byte	0x52
 5598 1135 01       		.uleb128 0x1
 5599 1136 3C       		.byte	0x3c
 5600 1137 00       		.byte	0
ARM GAS  C:\Users\TERENC~1\AppData\Local\Temp\ccVObDgl.s 			page 120


 5601 1138 19       		.uleb128 0x19
 5602 1139 32000000 		.4byte	.LVL241
 5603 113d 491D0000 		.4byte	0x1d49
 5604 1141 18       		.uleb128 0x18
 5605 1142 01       		.uleb128 0x1
 5606 1143 50       		.byte	0x50
 5607 1144 02       		.uleb128 0x2
 5608 1145 74       		.byte	0x74
 5609 1146 00       		.sleb128 0
 5610 1147 00       		.byte	0
 5611 1148 00       		.byte	0
 5612 1149 12       		.uleb128 0x12
 5613 114a D5060000 		.4byte	.LASF70
 5614 114e 01       		.byte	0x1
 5615 114f 1502     		.2byte	0x215
 5616 1151 25000000 		.4byte	0x25
 5617 1155 00000000 		.4byte	.LFB24
 5618 1159 34000000 		.4byte	.LFE24-.LFB24
 5619 115d 01       		.uleb128 0x1
 5620 115e 9C       		.byte	0x9c
 5621 115f D1110000 		.4byte	0x11d1
 5622 1163 13       		.uleb128 0x13
 5623 1164 29040000 		.4byte	.LASF46
 5624 1168 01       		.byte	0x1
 5625 1169 1502     		.2byte	0x215
 5626 116b 25000000 		.4byte	0x25
 5627 116f 070A0000 		.4byte	.LLST56
 5628 1173 13       		.uleb128 0x13
 5629 1174 5A040000 		.4byte	.LASF47
 5630 1178 01       		.byte	0x1
 5631 1179 1502     		.2byte	0x215
 5632 117b 25020000 		.4byte	0x225
 5633 117f 280A0000 		.4byte	.LLST57
 5634 1183 16       		.uleb128 0x16
 5635 1184 06000000 		.4byte	.LVL243
 5636 1188 EE1D0000 		.4byte	0x1dee
 5637 118c 16       		.uleb128 0x16
 5638 118d 0A000000 		.4byte	.LVL244
 5639 1191 291D0000 		.4byte	0x1d29
 5640 1195 16       		.uleb128 0x16
 5641 1196 12000000 		.4byte	.LVL245
 5642 119a 351D0000 		.4byte	0x1d35
 5643 119e 17       		.uleb128 0x17
 5644 119f 22000000 		.4byte	.LVL246
 5645 11a3 401D0000 		.4byte	0x1d40
 5646 11a7 C0110000 		.4byte	0x11c0
 5647 11ab 18       		.uleb128 0x18
 5648 11ac 01       		.uleb128 0x1
 5649 11ad 50       		.byte	0x50
 5650 11ae 02       		.uleb128 0x2
 5651 11af 74       		.byte	0x74
 5652 11b0 00       		.sleb128 0
 5653 11b1 18       		.uleb128 0x18
 5654 11b2 01       		.uleb128 0x1
 5655 11b3 51       		.byte	0x51
 5656 11b4 05       		.uleb128 0x5
 5657 11b5 03       		.byte	0x3
ARM GAS  C:\Users\TERENC~1\AppData\Local\Temp\ccVObDgl.s 			page 121


 5658 11b6 68010000 		.4byte	.LC75
 5659 11ba 18       		.uleb128 0x18
 5660 11bb 01       		.uleb128 0x1
 5661 11bc 52       		.byte	0x52
 5662 11bd 01       		.uleb128 0x1
 5663 11be 3C       		.byte	0x3c
 5664 11bf 00       		.byte	0
 5665 11c0 19       		.uleb128 0x19
 5666 11c1 28000000 		.4byte	.LVL247
 5667 11c5 491D0000 		.4byte	0x1d49
 5668 11c9 18       		.uleb128 0x18
 5669 11ca 01       		.uleb128 0x1
 5670 11cb 50       		.byte	0x50
 5671 11cc 02       		.uleb128 0x2
 5672 11cd 74       		.byte	0x74
 5673 11ce 00       		.sleb128 0
 5674 11cf 00       		.byte	0
 5675 11d0 00       		.byte	0
 5676 11d1 1A       		.uleb128 0x1a
 5677 11d2 07040000 		.4byte	.LASF71
 5678 11d6 01       		.byte	0x1
 5679 11d7 A4       		.byte	0xa4
 5680 11d8 25000000 		.4byte	0x25
 5681 11dc 00000000 		.4byte	.LFB2
 5682 11e0 44000000 		.4byte	.LFE2-.LFB2
 5683 11e4 01       		.uleb128 0x1
 5684 11e5 9C       		.byte	0x9c
 5685 11e6 50120000 		.4byte	0x1250
 5686 11ea 20       		.uleb128 0x20
 5687 11eb 6100     		.ascii	"a\000"
 5688 11ed 01       		.byte	0x1
 5689 11ee A4       		.byte	0xa4
 5690 11ef AE000000 		.4byte	0xae
 5691 11f3 490A0000 		.4byte	.LLST58
 5692 11f7 20       		.uleb128 0x20
 5693 11f8 6200     		.ascii	"b\000"
 5694 11fa 01       		.byte	0x1
 5695 11fb A4       		.byte	0xa4
 5696 11fc AE000000 		.4byte	0xae
 5697 1200 670A0000 		.4byte	.LLST59
 5698 1204 21       		.uleb128 0x21
 5699 1205 02000000 		.4byte	.LBB2
 5700 1209 32000000 		.4byte	.LBE2-.LBB2
 5701 120d 22       		.uleb128 0x22
 5702 120e 6400     		.ascii	"d\000"
 5703 1210 01       		.byte	0x1
 5704 1211 A8       		.byte	0xa8
 5705 1212 25000000 		.4byte	0x25
 5706 1216 01       		.uleb128 0x1
 5707 1217 53       		.byte	0x53
 5708 1218 23       		.uleb128 0x23
 5709 1219 02000000 		.4byte	.LBB3
 5710 121d 1A000000 		.4byte	.LBE3-.LBB3
 5711 1221 35120000 		.4byte	0x1235
 5712 1225 1D       		.uleb128 0x1d
 5713 1226 5F5F7800 		.ascii	"__x\000"
 5714 122a 01       		.byte	0x1
ARM GAS  C:\Users\TERENC~1\AppData\Local\Temp\ccVObDgl.s 			page 122


 5715 122b A8       		.byte	0xa8
 5716 122c B4000000 		.4byte	0xb4
 5717 1230 850A0000 		.4byte	.LLST60
 5718 1234 00       		.byte	0
 5719 1235 21       		.uleb128 0x21
 5720 1236 1C000000 		.4byte	.LBB4
 5721 123a 10000000 		.4byte	.LBE4-.LBB4
 5722 123e 1D       		.uleb128 0x1d
 5723 123f 5F5F7800 		.ascii	"__x\000"
 5724 1243 01       		.byte	0x1
 5725 1244 A8       		.byte	0xa8
 5726 1245 B4000000 		.4byte	0xb4
 5727 1249 980A0000 		.4byte	.LLST61
 5728 124d 00       		.byte	0
 5729 124e 00       		.byte	0
 5730 124f 00       		.byte	0
 5731 1250 12       		.uleb128 0x12
 5732 1251 9B040000 		.4byte	.LASF72
 5733 1255 01       		.byte	0x1
 5734 1256 8B01     		.2byte	0x18b
 5735 1258 25000000 		.4byte	0x25
 5736 125c 00000000 		.4byte	.LFB18
 5737 1260 00010000 		.4byte	.LFE18-.LFB18
 5738 1264 01       		.uleb128 0x1
 5739 1265 9C       		.byte	0x9c
 5740 1266 38140000 		.4byte	0x1438
 5741 126a 13       		.uleb128 0x13
 5742 126b 29040000 		.4byte	.LASF46
 5743 126f 01       		.byte	0x1
 5744 1270 8B01     		.2byte	0x18b
 5745 1272 25000000 		.4byte	0x25
 5746 1276 CF0A0000 		.4byte	.LLST62
 5747 127a 13       		.uleb128 0x13
 5748 127b 5A040000 		.4byte	.LASF47
 5749 127f 01       		.byte	0x1
 5750 1280 8B01     		.2byte	0x18b
 5751 1282 25020000 		.4byte	0x225
 5752 1286 250B0000 		.4byte	.LLST63
 5753 128a 14       		.uleb128 0x14
 5754 128b 6900     		.ascii	"i\000"
 5755 128d 01       		.byte	0x1
 5756 128e 8D01     		.2byte	0x18d
 5757 1290 25000000 		.4byte	0x25
 5758 1294 02       		.byte	0x2
 5759 1295 1F       		.uleb128 0x1f
 5760 1296 52070000 		.4byte	.LASF73
 5761 129a 01       		.byte	0x1
 5762 129b 8E01     		.2byte	0x18e
 5763 129d D9010000 		.4byte	0x1d9
 5764 12a1 750B0000 		.4byte	.LLST64
 5765 12a5 1F       		.uleb128 0x1f
 5766 12a6 E6000000 		.4byte	.LASF74
 5767 12aa 01       		.byte	0x1
 5768 12ab 8F01     		.2byte	0x18f
 5769 12ad CF000000 		.4byte	0xcf
 5770 12b1 AB0B0000 		.4byte	.LLST65
 5771 12b5 1F       		.uleb128 0x1f
ARM GAS  C:\Users\TERENC~1\AppData\Local\Temp\ccVObDgl.s 			page 123


 5772 12b6 24050000 		.4byte	.LASF75
 5773 12ba 01       		.byte	0x1
 5774 12bb 8F01     		.2byte	0x18f
 5775 12bd CF000000 		.4byte	0xcf
 5776 12c1 D40B0000 		.4byte	.LLST66
 5777 12c5 1F       		.uleb128 0x1f
 5778 12c6 95030000 		.4byte	.LASF76
 5779 12ca 01       		.byte	0x1
 5780 12cb 8F01     		.2byte	0x18f
 5781 12cd CF000000 		.4byte	0xcf
 5782 12d1 FD0B0000 		.4byte	.LLST67
 5783 12d5 16       		.uleb128 0x16
 5784 12d6 0E000000 		.4byte	.LVL261
 5785 12da 291D0000 		.4byte	0x1d29
 5786 12de 16       		.uleb128 0x16
 5787 12df 16000000 		.4byte	.LVL262
 5788 12e3 351D0000 		.4byte	0x1d35
 5789 12e7 17       		.uleb128 0x17
 5790 12e8 26000000 		.4byte	.LVL264
 5791 12ec 5F1D0000 		.4byte	0x1d5f
 5792 12f0 0A130000 		.4byte	0x130a
 5793 12f4 18       		.uleb128 0x18
 5794 12f5 01       		.uleb128 0x1
 5795 12f6 50       		.byte	0x50
 5796 12f7 02       		.uleb128 0x2
 5797 12f8 75       		.byte	0x75
 5798 12f9 00       		.sleb128 0
 5799 12fa 18       		.uleb128 0x18
 5800 12fb 01       		.uleb128 0x1
 5801 12fc 51       		.byte	0x51
 5802 12fd 05       		.uleb128 0x5
 5803 12fe 03       		.byte	0x3
 5804 12ff 74010000 		.4byte	.LC80
 5805 1303 18       		.uleb128 0x18
 5806 1304 01       		.uleb128 0x1
 5807 1305 52       		.byte	0x52
 5808 1306 02       		.uleb128 0x2
 5809 1307 74       		.byte	0x74
 5810 1308 00       		.sleb128 0
 5811 1309 00       		.byte	0
 5812 130a 17       		.uleb128 0x17
 5813 130b 2C000000 		.4byte	.LVL265
 5814 130f 491D0000 		.4byte	0x1d49
 5815 1313 1E130000 		.4byte	0x131e
 5816 1317 18       		.uleb128 0x18
 5817 1318 01       		.uleb128 0x1
 5818 1319 50       		.byte	0x50
 5819 131a 02       		.uleb128 0x2
 5820 131b 75       		.byte	0x75
 5821 131c 00       		.sleb128 0
 5822 131d 00       		.byte	0
 5823 131e 17       		.uleb128 0x17
 5824 131f 3C000000 		.4byte	.LVL270
 5825 1323 D1110000 		.4byte	0x11d1
 5826 1327 3B130000 		.4byte	0x133b
 5827 132b 18       		.uleb128 0x18
 5828 132c 01       		.uleb128 0x1
ARM GAS  C:\Users\TERENC~1\AppData\Local\Temp\ccVObDgl.s 			page 124


 5829 132d 50       		.byte	0x50
 5830 132e 02       		.uleb128 0x2
 5831 132f 74       		.byte	0x74
 5832 1330 00       		.sleb128 0
 5833 1331 18       		.uleb128 0x18
 5834 1332 01       		.uleb128 0x1
 5835 1333 51       		.byte	0x51
 5836 1334 05       		.uleb128 0x5
 5837 1335 03       		.byte	0x3
 5838 1336 98010000 		.4byte	.LC83
 5839 133a 00       		.byte	0
 5840 133b 17       		.uleb128 0x17
 5841 133c 48000000 		.4byte	.LVL271
 5842 1340 D1110000 		.4byte	0x11d1
 5843 1344 58130000 		.4byte	0x1358
 5844 1348 18       		.uleb128 0x18
 5845 1349 01       		.uleb128 0x1
 5846 134a 50       		.byte	0x50
 5847 134b 02       		.uleb128 0x2
 5848 134c 74       		.byte	0x74
 5849 134d 00       		.sleb128 0
 5850 134e 18       		.uleb128 0x18
 5851 134f 01       		.uleb128 0x1
 5852 1350 51       		.byte	0x51
 5853 1351 05       		.uleb128 0x5
 5854 1352 03       		.byte	0x3
 5855 1353 9C010000 		.4byte	.LC85
 5856 1357 00       		.byte	0
 5857 1358 17       		.uleb128 0x17
 5858 1359 54000000 		.4byte	.LVL272
 5859 135d D1110000 		.4byte	0x11d1
 5860 1361 75130000 		.4byte	0x1375
 5861 1365 18       		.uleb128 0x18
 5862 1366 01       		.uleb128 0x1
 5863 1367 50       		.byte	0x50
 5864 1368 02       		.uleb128 0x2
 5865 1369 74       		.byte	0x74
 5866 136a 00       		.sleb128 0
 5867 136b 18       		.uleb128 0x18
 5868 136c 01       		.uleb128 0x1
 5869 136d 51       		.byte	0x51
 5870 136e 05       		.uleb128 0x5
 5871 136f 03       		.byte	0x3
 5872 1370 A4010000 		.4byte	.LC87
 5873 1374 00       		.byte	0
 5874 1375 16       		.uleb128 0x16
 5875 1376 5C000000 		.4byte	.LVL273
 5876 137a 291D0000 		.4byte	0x1d29
 5877 137e 16       		.uleb128 0x16
 5878 137f 64000000 		.4byte	.LVL274
 5879 1383 351D0000 		.4byte	0x1d35
 5880 1387 17       		.uleb128 0x17
 5881 1388 74000000 		.4byte	.LVL275
 5882 138c 5F1D0000 		.4byte	0x1d5f
 5883 1390 A4130000 		.4byte	0x13a4
 5884 1394 18       		.uleb128 0x18
 5885 1395 01       		.uleb128 0x1
ARM GAS  C:\Users\TERENC~1\AppData\Local\Temp\ccVObDgl.s 			page 125


 5886 1396 50       		.byte	0x50
 5887 1397 02       		.uleb128 0x2
 5888 1398 74       		.byte	0x74
 5889 1399 00       		.sleb128 0
 5890 139a 18       		.uleb128 0x18
 5891 139b 01       		.uleb128 0x1
 5892 139c 51       		.byte	0x51
 5893 139d 05       		.uleb128 0x5
 5894 139e 03       		.byte	0x3
 5895 139f AC010000 		.4byte	.LC89
 5896 13a3 00       		.byte	0
 5897 13a4 17       		.uleb128 0x17
 5898 13a5 7A000000 		.4byte	.LVL276
 5899 13a9 491D0000 		.4byte	0x1d49
 5900 13ad B8130000 		.4byte	0x13b8
 5901 13b1 18       		.uleb128 0x18
 5902 13b2 01       		.uleb128 0x1
 5903 13b3 50       		.byte	0x50
 5904 13b4 02       		.uleb128 0x2
 5905 13b5 74       		.byte	0x74
 5906 13b6 00       		.sleb128 0
 5907 13b7 00       		.byte	0
 5908 13b8 16       		.uleb128 0x16
 5909 13b9 90000000 		.4byte	.LVL278
 5910 13bd 541D0000 		.4byte	0x1d54
 5911 13c1 16       		.uleb128 0x16
 5912 13c2 98000000 		.4byte	.LVL281
 5913 13c6 541D0000 		.4byte	0x1d54
 5914 13ca 16       		.uleb128 0x16
 5915 13cb A0000000 		.4byte	.LVL284
 5916 13cf 541D0000 		.4byte	0x1d54
 5917 13d3 17       		.uleb128 0x17
 5918 13d4 AC000000 		.4byte	.LVL287
 5919 13d8 F91D0000 		.4byte	0x1df9
 5920 13dc F3130000 		.4byte	0x13f3
 5921 13e0 18       		.uleb128 0x18
 5922 13e1 01       		.uleb128 0x1
 5923 13e2 50       		.byte	0x50
 5924 13e3 02       		.uleb128 0x2
 5925 13e4 77       		.byte	0x77
 5926 13e5 00       		.sleb128 0
 5927 13e6 18       		.uleb128 0x18
 5928 13e7 01       		.uleb128 0x1
 5929 13e8 51       		.byte	0x51
 5930 13e9 02       		.uleb128 0x2
 5931 13ea 74       		.byte	0x74
 5932 13eb 00       		.sleb128 0
 5933 13ec 18       		.uleb128 0x18
 5934 13ed 01       		.uleb128 0x1
 5935 13ee 52       		.byte	0x52
 5936 13ef 02       		.uleb128 0x2
 5937 13f0 76       		.byte	0x76
 5938 13f1 00       		.sleb128 0
 5939 13f2 00       		.byte	0
 5940 13f3 16       		.uleb128 0x16
 5941 13f4 B0000000 		.4byte	.LVL288
 5942 13f8 291D0000 		.4byte	0x1d29
ARM GAS  C:\Users\TERENC~1\AppData\Local\Temp\ccVObDgl.s 			page 126


 5943 13fc 16       		.uleb128 0x16
 5944 13fd B8000000 		.4byte	.LVL289
 5945 1401 351D0000 		.4byte	0x1d35
 5946 1405 17       		.uleb128 0x17
 5947 1406 C8000000 		.4byte	.LVL291
 5948 140a 401D0000 		.4byte	0x1d40
 5949 140e 27140000 		.4byte	0x1427
 5950 1412 18       		.uleb128 0x18
 5951 1413 01       		.uleb128 0x1
 5952 1414 50       		.byte	0x50
 5953 1415 02       		.uleb128 0x2
 5954 1416 74       		.byte	0x74
 5955 1417 00       		.sleb128 0
 5956 1418 18       		.uleb128 0x18
 5957 1419 01       		.uleb128 0x1
 5958 141a 51       		.byte	0x51
 5959 141b 05       		.uleb128 0x5
 5960 141c 03       		.byte	0x3
 5961 141d D8010000 		.4byte	.LC91
 5962 1421 18       		.uleb128 0x18
 5963 1422 01       		.uleb128 0x1
 5964 1423 52       		.byte	0x52
 5965 1424 01       		.uleb128 0x1
 5966 1425 3A       		.byte	0x3a
 5967 1426 00       		.byte	0
 5968 1427 19       		.uleb128 0x19
 5969 1428 CE000000 		.4byte	.LVL292
 5970 142c 491D0000 		.4byte	0x1d49
 5971 1430 18       		.uleb128 0x18
 5972 1431 01       		.uleb128 0x1
 5973 1432 50       		.byte	0x50
 5974 1433 02       		.uleb128 0x2
 5975 1434 74       		.byte	0x74
 5976 1435 00       		.sleb128 0
 5977 1436 00       		.byte	0
 5978 1437 00       		.byte	0
 5979 1438 12       		.uleb128 0x12
 5980 1439 CA030000 		.4byte	.LASF77
 5981 143d 01       		.byte	0x1
 5982 143e B601     		.2byte	0x1b6
 5983 1440 25000000 		.4byte	0x25
 5984 1444 00000000 		.4byte	.LFB19
 5985 1448 E0000000 		.4byte	.LFE19-.LFB19
 5986 144c 01       		.uleb128 0x1
 5987 144d 9C       		.byte	0x9c
 5988 144e BE150000 		.4byte	0x15be
 5989 1452 13       		.uleb128 0x13
 5990 1453 29040000 		.4byte	.LASF46
 5991 1457 01       		.byte	0x1
 5992 1458 B601     		.2byte	0x1b6
 5993 145a 25000000 		.4byte	0x25
 5994 145e 1B0C0000 		.4byte	.LLST68
 5995 1462 13       		.uleb128 0x13
 5996 1463 5A040000 		.4byte	.LASF47
 5997 1467 01       		.byte	0x1
 5998 1468 B601     		.2byte	0x1b6
 5999 146a 25020000 		.4byte	0x225
ARM GAS  C:\Users\TERENC~1\AppData\Local\Temp\ccVObDgl.s 			page 127


 6000 146e 710C0000 		.4byte	.LLST69
 6001 1472 14       		.uleb128 0x14
 6002 1473 6900     		.ascii	"i\000"
 6003 1475 01       		.byte	0x1
 6004 1476 B801     		.2byte	0x1b8
 6005 1478 25000000 		.4byte	0x25
 6006 147c 02       		.byte	0x2
 6007 147d 1F       		.uleb128 0x1f
 6008 147e 52070000 		.4byte	.LASF73
 6009 1482 01       		.byte	0x1
 6010 1483 B901     		.2byte	0x1b9
 6011 1485 D9010000 		.4byte	0x1d9
 6012 1489 C10C0000 		.4byte	.LLST70
 6013 148d 16       		.uleb128 0x16
 6014 148e 0E000000 		.4byte	.LVL300
 6015 1492 291D0000 		.4byte	0x1d29
 6016 1496 16       		.uleb128 0x16
 6017 1497 16000000 		.4byte	.LVL301
 6018 149b 351D0000 		.4byte	0x1d35
 6019 149f 17       		.uleb128 0x17
 6020 14a0 26000000 		.4byte	.LVL303
 6021 14a4 5F1D0000 		.4byte	0x1d5f
 6022 14a8 C2140000 		.4byte	0x14c2
 6023 14ac 18       		.uleb128 0x18
 6024 14ad 01       		.uleb128 0x1
 6025 14ae 50       		.byte	0x50
 6026 14af 02       		.uleb128 0x2
 6027 14b0 75       		.byte	0x75
 6028 14b1 00       		.sleb128 0
 6029 14b2 18       		.uleb128 0x18
 6030 14b3 01       		.uleb128 0x1
 6031 14b4 51       		.byte	0x51
 6032 14b5 05       		.uleb128 0x5
 6033 14b6 03       		.byte	0x3
 6034 14b7 74010000 		.4byte	.LC80
 6035 14bb 18       		.uleb128 0x18
 6036 14bc 01       		.uleb128 0x1
 6037 14bd 52       		.byte	0x52
 6038 14be 02       		.uleb128 0x2
 6039 14bf 74       		.byte	0x74
 6040 14c0 00       		.sleb128 0
 6041 14c1 00       		.byte	0
 6042 14c2 17       		.uleb128 0x17
 6043 14c3 2C000000 		.4byte	.LVL304
 6044 14c7 491D0000 		.4byte	0x1d49
 6045 14cb D6140000 		.4byte	0x14d6
 6046 14cf 18       		.uleb128 0x18
 6047 14d0 01       		.uleb128 0x1
 6048 14d1 50       		.byte	0x50
 6049 14d2 02       		.uleb128 0x2
 6050 14d3 75       		.byte	0x75
 6051 14d4 00       		.sleb128 0
 6052 14d5 00       		.byte	0
 6053 14d6 17       		.uleb128 0x17
 6054 14d7 3C000000 		.4byte	.LVL309
 6055 14db D1110000 		.4byte	0x11d1
 6056 14df F3140000 		.4byte	0x14f3
ARM GAS  C:\Users\TERENC~1\AppData\Local\Temp\ccVObDgl.s 			page 128


 6057 14e3 18       		.uleb128 0x18
 6058 14e4 01       		.uleb128 0x1
 6059 14e5 50       		.byte	0x50
 6060 14e6 02       		.uleb128 0x2
 6061 14e7 74       		.byte	0x74
 6062 14e8 00       		.sleb128 0
 6063 14e9 18       		.uleb128 0x18
 6064 14ea 01       		.uleb128 0x1
 6065 14eb 51       		.byte	0x51
 6066 14ec 05       		.uleb128 0x5
 6067 14ed 03       		.byte	0x3
 6068 14ee 98010000 		.4byte	.LC83
 6069 14f2 00       		.byte	0
 6070 14f3 17       		.uleb128 0x17
 6071 14f4 48000000 		.4byte	.LVL310
 6072 14f8 D1110000 		.4byte	0x11d1
 6073 14fc 10150000 		.4byte	0x1510
 6074 1500 18       		.uleb128 0x18
 6075 1501 01       		.uleb128 0x1
 6076 1502 50       		.byte	0x50
 6077 1503 02       		.uleb128 0x2
 6078 1504 74       		.byte	0x74
 6079 1505 00       		.sleb128 0
 6080 1506 18       		.uleb128 0x18
 6081 1507 01       		.uleb128 0x1
 6082 1508 51       		.byte	0x51
 6083 1509 05       		.uleb128 0x5
 6084 150a 03       		.byte	0x3
 6085 150b 9C010000 		.4byte	.LC85
 6086 150f 00       		.byte	0
 6087 1510 17       		.uleb128 0x17
 6088 1511 54000000 		.4byte	.LVL311
 6089 1515 D1110000 		.4byte	0x11d1
 6090 1519 2D150000 		.4byte	0x152d
 6091 151d 18       		.uleb128 0x18
 6092 151e 01       		.uleb128 0x1
 6093 151f 50       		.byte	0x50
 6094 1520 02       		.uleb128 0x2
 6095 1521 74       		.byte	0x74
 6096 1522 00       		.sleb128 0
 6097 1523 18       		.uleb128 0x18
 6098 1524 01       		.uleb128 0x1
 6099 1525 51       		.byte	0x51
 6100 1526 05       		.uleb128 0x5
 6101 1527 03       		.byte	0x3
 6102 1528 A4010000 		.4byte	.LC87
 6103 152c 00       		.byte	0
 6104 152d 16       		.uleb128 0x16
 6105 152e 5C000000 		.4byte	.LVL312
 6106 1532 291D0000 		.4byte	0x1d29
 6107 1536 16       		.uleb128 0x16
 6108 1537 64000000 		.4byte	.LVL313
 6109 153b 351D0000 		.4byte	0x1d35
 6110 153f 17       		.uleb128 0x17
 6111 1540 74000000 		.4byte	.LVL314
 6112 1544 5F1D0000 		.4byte	0x1d5f
 6113 1548 5C150000 		.4byte	0x155c
ARM GAS  C:\Users\TERENC~1\AppData\Local\Temp\ccVObDgl.s 			page 129


 6114 154c 18       		.uleb128 0x18
 6115 154d 01       		.uleb128 0x1
 6116 154e 50       		.byte	0x50
 6117 154f 02       		.uleb128 0x2
 6118 1550 74       		.byte	0x74
 6119 1551 00       		.sleb128 0
 6120 1552 18       		.uleb128 0x18
 6121 1553 01       		.uleb128 0x1
 6122 1554 51       		.byte	0x51
 6123 1555 05       		.uleb128 0x5
 6124 1556 03       		.byte	0x3
 6125 1557 AC010000 		.4byte	.LC89
 6126 155b 00       		.byte	0
 6127 155c 17       		.uleb128 0x17
 6128 155d 7A000000 		.4byte	.LVL315
 6129 1561 491D0000 		.4byte	0x1d49
 6130 1565 70150000 		.4byte	0x1570
 6131 1569 18       		.uleb128 0x18
 6132 156a 01       		.uleb128 0x1
 6133 156b 50       		.byte	0x50
 6134 156c 02       		.uleb128 0x2
 6135 156d 74       		.byte	0x74
 6136 156e 00       		.sleb128 0
 6137 156f 00       		.byte	0
 6138 1570 16       		.uleb128 0x16
 6139 1571 8E000000 		.4byte	.LVL317
 6140 1575 041E0000 		.4byte	0x1e04
 6141 1579 16       		.uleb128 0x16
 6142 157a 92000000 		.4byte	.LVL318
 6143 157e 291D0000 		.4byte	0x1d29
 6144 1582 16       		.uleb128 0x16
 6145 1583 9A000000 		.4byte	.LVL319
 6146 1587 351D0000 		.4byte	0x1d35
 6147 158b 17       		.uleb128 0x17
 6148 158c AA000000 		.4byte	.LVL320
 6149 1590 401D0000 		.4byte	0x1d40
 6150 1594 AD150000 		.4byte	0x15ad
 6151 1598 18       		.uleb128 0x18
 6152 1599 01       		.uleb128 0x1
 6153 159a 50       		.byte	0x50
 6154 159b 02       		.uleb128 0x2
 6155 159c 74       		.byte	0x74
 6156 159d 00       		.sleb128 0
 6157 159e 18       		.uleb128 0x18
 6158 159f 01       		.uleb128 0x1
 6159 15a0 51       		.byte	0x51
 6160 15a1 05       		.uleb128 0x5
 6161 15a2 03       		.byte	0x3
 6162 15a3 D8010000 		.4byte	.LC91
 6163 15a7 18       		.uleb128 0x18
 6164 15a8 01       		.uleb128 0x1
 6165 15a9 52       		.byte	0x52
 6166 15aa 01       		.uleb128 0x1
 6167 15ab 3A       		.byte	0x3a
 6168 15ac 00       		.byte	0
 6169 15ad 19       		.uleb128 0x19
 6170 15ae B0000000 		.4byte	.LVL321
ARM GAS  C:\Users\TERENC~1\AppData\Local\Temp\ccVObDgl.s 			page 130


 6171 15b2 491D0000 		.4byte	0x1d49
 6172 15b6 18       		.uleb128 0x18
 6173 15b7 01       		.uleb128 0x1
 6174 15b8 50       		.byte	0x50
 6175 15b9 02       		.uleb128 0x2
 6176 15ba 74       		.byte	0x74
 6177 15bb 00       		.sleb128 0
 6178 15bc 00       		.byte	0
 6179 15bd 00       		.byte	0
 6180 15be 12       		.uleb128 0x12
 6181 15bf 36000000 		.4byte	.LASF78
 6182 15c3 01       		.byte	0x1
 6183 15c4 EB01     		.2byte	0x1eb
 6184 15c6 25000000 		.4byte	0x25
 6185 15ca 00000000 		.4byte	.LFB21
 6186 15ce A8000000 		.4byte	.LFE21-.LFB21
 6187 15d2 01       		.uleb128 0x1
 6188 15d3 9C       		.byte	0x9c
 6189 15d4 CC160000 		.4byte	0x16cc
 6190 15d8 13       		.uleb128 0x13
 6191 15d9 29040000 		.4byte	.LASF46
 6192 15dd 01       		.byte	0x1
 6193 15de EB01     		.2byte	0x1eb
 6194 15e0 25000000 		.4byte	0x25
 6195 15e4 EC0C0000 		.4byte	.LLST71
 6196 15e8 13       		.uleb128 0x13
 6197 15e9 5A040000 		.4byte	.LASF47
 6198 15ed 01       		.byte	0x1
 6199 15ee EB01     		.2byte	0x1eb
 6200 15f0 25020000 		.4byte	0x225
 6201 15f4 390D0000 		.4byte	.LLST72
 6202 15f8 1E       		.uleb128 0x1e
 6203 15f9 6900     		.ascii	"i\000"
 6204 15fb 01       		.byte	0x1
 6205 15fc ED01     		.2byte	0x1ed
 6206 15fe 25000000 		.4byte	0x25
 6207 1602 7B0D0000 		.4byte	.LLST73
 6208 1606 16       		.uleb128 0x16
 6209 1607 0C000000 		.4byte	.LVL328
 6210 160b 291D0000 		.4byte	0x1d29
 6211 160f 16       		.uleb128 0x16
 6212 1610 14000000 		.4byte	.LVL329
 6213 1614 351D0000 		.4byte	0x1d35
 6214 1618 17       		.uleb128 0x17
 6215 1619 24000000 		.4byte	.LVL330
 6216 161d 401D0000 		.4byte	0x1d40
 6217 1621 3A160000 		.4byte	0x163a
 6218 1625 18       		.uleb128 0x18
 6219 1626 01       		.uleb128 0x1
 6220 1627 50       		.byte	0x50
 6221 1628 02       		.uleb128 0x2
 6222 1629 74       		.byte	0x74
 6223 162a 00       		.sleb128 0
 6224 162b 18       		.uleb128 0x18
 6225 162c 01       		.uleb128 0x1
 6226 162d 51       		.byte	0x51
 6227 162e 05       		.uleb128 0x5
ARM GAS  C:\Users\TERENC~1\AppData\Local\Temp\ccVObDgl.s 			page 131


 6228 162f 03       		.byte	0x3
 6229 1630 0C000000 		.4byte	.LC4
 6230 1634 18       		.uleb128 0x18
 6231 1635 01       		.uleb128 0x1
 6232 1636 52       		.byte	0x52
 6233 1637 01       		.uleb128 0x1
 6234 1638 4E       		.byte	0x4e
 6235 1639 00       		.byte	0
 6236 163a 17       		.uleb128 0x17
 6237 163b 2A000000 		.4byte	.LVL331
 6238 163f 491D0000 		.4byte	0x1d49
 6239 1643 4E160000 		.4byte	0x164e
 6240 1647 18       		.uleb128 0x18
 6241 1648 01       		.uleb128 0x1
 6242 1649 50       		.byte	0x50
 6243 164a 02       		.uleb128 0x2
 6244 164b 74       		.byte	0x74
 6245 164c 00       		.sleb128 0
 6246 164d 00       		.byte	0
 6247 164e 17       		.uleb128 0x17
 6248 164f 3A000000 		.4byte	.LVL335
 6249 1653 D1110000 		.4byte	0x11d1
 6250 1657 6B160000 		.4byte	0x166b
 6251 165b 18       		.uleb128 0x18
 6252 165c 01       		.uleb128 0x1
 6253 165d 50       		.byte	0x50
 6254 165e 02       		.uleb128 0x2
 6255 165f 76       		.byte	0x76
 6256 1660 00       		.sleb128 0
 6257 1661 18       		.uleb128 0x18
 6258 1662 01       		.uleb128 0x1
 6259 1663 51       		.byte	0x51
 6260 1664 05       		.uleb128 0x5
 6261 1665 03       		.byte	0x3
 6262 1666 E4010000 		.4byte	.LC102
 6263 166a 00       		.byte	0
 6264 166b 16       		.uleb128 0x16
 6265 166c 48000000 		.4byte	.LVL337
 6266 1670 541D0000 		.4byte	0x1d54
 6267 1674 17       		.uleb128 0x17
 6268 1675 54000000 		.4byte	.LVL339
 6269 1679 D1110000 		.4byte	0x11d1
 6270 167d 91160000 		.4byte	0x1691
 6271 1681 18       		.uleb128 0x18
 6272 1682 01       		.uleb128 0x1
 6273 1683 50       		.byte	0x50
 6274 1684 02       		.uleb128 0x2
 6275 1685 76       		.byte	0x76
 6276 1686 00       		.sleb128 0
 6277 1687 18       		.uleb128 0x18
 6278 1688 01       		.uleb128 0x1
 6279 1689 51       		.byte	0x51
 6280 168a 05       		.uleb128 0x5
 6281 168b 03       		.byte	0x3
 6282 168c F8010000 		.4byte	.LC105
 6283 1690 00       		.byte	0
 6284 1691 16       		.uleb128 0x16
ARM GAS  C:\Users\TERENC~1\AppData\Local\Temp\ccVObDgl.s 			page 132


 6285 1692 62000000 		.4byte	.LVL341
 6286 1696 541D0000 		.4byte	0x1d54
 6287 169a 17       		.uleb128 0x17
 6288 169b 6E000000 		.4byte	.LVL343
 6289 169f D1110000 		.4byte	0x11d1
 6290 16a3 B7160000 		.4byte	0x16b7
 6291 16a7 18       		.uleb128 0x18
 6292 16a8 01       		.uleb128 0x1
 6293 16a9 50       		.byte	0x50
 6294 16aa 02       		.uleb128 0x2
 6295 16ab 76       		.byte	0x76
 6296 16ac 00       		.sleb128 0
 6297 16ad 18       		.uleb128 0x18
 6298 16ae 01       		.uleb128 0x1
 6299 16af 51       		.byte	0x51
 6300 16b0 05       		.uleb128 0x5
 6301 16b1 03       		.byte	0x3
 6302 16b2 04020000 		.4byte	.LC107
 6303 16b6 00       		.byte	0
 6304 16b7 19       		.uleb128 0x19
 6305 16b8 80000000 		.4byte	.LVL345
 6306 16bc 801D0000 		.4byte	0x1d80
 6307 16c0 18       		.uleb128 0x18
 6308 16c1 01       		.uleb128 0x1
 6309 16c2 51       		.byte	0x51
 6310 16c3 01       		.uleb128 0x1
 6311 16c4 30       		.byte	0x30
 6312 16c5 18       		.uleb128 0x18
 6313 16c6 01       		.uleb128 0x1
 6314 16c7 52       		.byte	0x52
 6315 16c8 01       		.uleb128 0x1
 6316 16c9 40       		.byte	0x40
 6317 16ca 00       		.byte	0
 6318 16cb 00       		.byte	0
 6319 16cc 24       		.uleb128 0x24
 6320 16cd D0000000 		.4byte	.LASF128
 6321 16d1 01       		.byte	0x1
 6322 16d2 1C02     		.2byte	0x21c
 6323 16d4 25000000 		.4byte	0x25
 6324 16d8 00000000 		.4byte	.LFB25
 6325 16dc 78020000 		.4byte	.LFE25-.LFB25
 6326 16e0 01       		.uleb128 0x1
 6327 16e1 9C       		.byte	0x9c
 6328 16e2 93190000 		.4byte	0x1993
 6329 16e6 1F       		.uleb128 0x1f
 6330 16e7 A0030000 		.4byte	.LASF79
 6331 16eb 01       		.byte	0x1
 6332 16ec 1E02     		.2byte	0x21e
 6333 16ee 25000000 		.4byte	0x25
 6334 16f2 D70D0000 		.4byte	.LLST74
 6335 16f6 1E       		.uleb128 0x1e
 6336 16f7 62756600 		.ascii	"buf\000"
 6337 16fb 01       		.byte	0x1
 6338 16fc 1F02     		.2byte	0x21f
 6339 16fe 9A000000 		.4byte	0x9a
 6340 1702 450E0000 		.4byte	.LLST75
 6341 1706 1F       		.uleb128 0x1f
ARM GAS  C:\Users\TERENC~1\AppData\Local\Temp\ccVObDgl.s 			page 133


 6342 1707 06010000 		.4byte	.LASF80
 6343 170b 01       		.byte	0x1
 6344 170c 2002     		.2byte	0x220
 6345 170e 93190000 		.4byte	0x1993
 6346 1712 7E0E0000 		.4byte	.LLST76
 6347 1716 25       		.uleb128 0x25
 6348 1717 5A040000 		.4byte	.LASF47
 6349 171b 01       		.byte	0x1
 6350 171c 2102     		.2byte	0x221
 6351 171e 9A190000 		.4byte	0x199a
 6352 1722 03       		.uleb128 0x3
 6353 1723 91       		.byte	0x91
 6354 1724 B07F     		.sleb128 -80
 6355 1726 1F       		.uleb128 0x1f
 6356 1727 29040000 		.4byte	.LASF46
 6357 172b 01       		.byte	0x1
 6358 172c 2202     		.2byte	0x222
 6359 172e 25000000 		.4byte	0x25
 6360 1732 100F0000 		.4byte	.LLST77
 6361 1736 1E       		.uleb128 0x1e
 6362 1737 6900     		.ascii	"i\000"
 6363 1739 01       		.byte	0x1
 6364 173a 2302     		.2byte	0x223
 6365 173c 25000000 		.4byte	0x25
 6366 1740 5B0F0000 		.4byte	.LLST78
 6367 1744 1E       		.uleb128 0x1e
 6368 1745 6A00     		.ascii	"j\000"
 6369 1747 01       		.byte	0x1
 6370 1748 2302     		.2byte	0x223
 6371 174a 25000000 		.4byte	0x25
 6372 174e A80F0000 		.4byte	.LLST79
 6373 1752 1E       		.uleb128 0x1e
 6374 1753 6B00     		.ascii	"k\000"
 6375 1755 01       		.byte	0x1
 6376 1756 2302     		.2byte	0x223
 6377 1758 25000000 		.4byte	0x25
 6378 175c EA0F0000 		.4byte	.LLST80
 6379 1760 16       		.uleb128 0x16
 6380 1761 60000000 		.4byte	.LVL354
 6381 1765 291D0000 		.4byte	0x1d29
 6382 1769 16       		.uleb128 0x16
 6383 176a 6A000000 		.4byte	.LVL355
 6384 176e 351D0000 		.4byte	0x1d35
 6385 1772 17       		.uleb128 0x17
 6386 1773 7A000000 		.4byte	.LVL356
 6387 1777 401D0000 		.4byte	0x1d40
 6388 177b 94170000 		.4byte	0x1794
 6389 177f 18       		.uleb128 0x18
 6390 1780 01       		.uleb128 0x1
 6391 1781 50       		.byte	0x50
 6392 1782 02       		.uleb128 0x2
 6393 1783 74       		.byte	0x74
 6394 1784 00       		.sleb128 0
 6395 1785 18       		.uleb128 0x18
 6396 1786 01       		.uleb128 0x1
 6397 1787 51       		.byte	0x51
 6398 1788 05       		.uleb128 0x5
ARM GAS  C:\Users\TERENC~1\AppData\Local\Temp\ccVObDgl.s 			page 134


 6399 1789 03       		.byte	0x3
 6400 178a 10020000 		.4byte	.LC112
 6401 178e 18       		.uleb128 0x18
 6402 178f 01       		.uleb128 0x1
 6403 1790 52       		.byte	0x52
 6404 1791 01       		.uleb128 0x1
 6405 1792 45       		.byte	0x45
 6406 1793 00       		.byte	0
 6407 1794 17       		.uleb128 0x17
 6408 1795 80000000 		.4byte	.LVL357
 6409 1799 491D0000 		.4byte	0x1d49
 6410 179d A8170000 		.4byte	0x17a8
 6411 17a1 18       		.uleb128 0x18
 6412 17a2 01       		.uleb128 0x1
 6413 17a3 50       		.byte	0x50
 6414 17a4 02       		.uleb128 0x2
 6415 17a5 74       		.byte	0x74
 6416 17a6 00       		.sleb128 0
 6417 17a7 00       		.byte	0
 6418 17a8 17       		.uleb128 0x17
 6419 17a9 A2000000 		.4byte	.LVL362
 6420 17ad D1110000 		.4byte	0x11d1
 6421 17b1 C4170000 		.4byte	0x17c4
 6422 17b5 18       		.uleb128 0x18
 6423 17b6 01       		.uleb128 0x1
 6424 17b7 50       		.byte	0x50
 6425 17b8 02       		.uleb128 0x2
 6426 17b9 75       		.byte	0x75
 6427 17ba 00       		.sleb128 0
 6428 17bb 18       		.uleb128 0x18
 6429 17bc 01       		.uleb128 0x1
 6430 17bd 51       		.byte	0x51
 6431 17be 04       		.uleb128 0x4
 6432 17bf 91       		.byte	0x91
 6433 17c0 A87F     		.sleb128 -88
 6434 17c2 06       		.byte	0x6
 6435 17c3 00       		.byte	0
 6436 17c4 17       		.uleb128 0x17
 6437 17c5 B0000000 		.4byte	.LVL363
 6438 17c9 D1110000 		.4byte	0x11d1
 6439 17cd D8170000 		.4byte	0x17d8
 6440 17d1 18       		.uleb128 0x18
 6441 17d2 01       		.uleb128 0x1
 6442 17d3 50       		.byte	0x50
 6443 17d4 02       		.uleb128 0x2
 6444 17d5 75       		.byte	0x75
 6445 17d6 00       		.sleb128 0
 6446 17d7 00       		.byte	0
 6447 17d8 26       		.uleb128 0x26
 6448 17d9 BE000000 		.4byte	.LVL364
 6449 17dd EF170000 		.4byte	0x17ef
 6450 17e1 18       		.uleb128 0x18
 6451 17e2 01       		.uleb128 0x1
 6452 17e3 50       		.byte	0x50
 6453 17e4 02       		.uleb128 0x2
 6454 17e5 79       		.byte	0x79
 6455 17e6 00       		.sleb128 0
ARM GAS  C:\Users\TERENC~1\AppData\Local\Temp\ccVObDgl.s 			page 135


 6456 17e7 18       		.uleb128 0x18
 6457 17e8 01       		.uleb128 0x1
 6458 17e9 51       		.byte	0x51
 6459 17ea 03       		.uleb128 0x3
 6460 17eb 91       		.byte	0x91
 6461 17ec B07F     		.sleb128 -80
 6462 17ee 00       		.byte	0
 6463 17ef 17       		.uleb128 0x17
 6464 17f0 CE000000 		.4byte	.LVL367
 6465 17f4 D1110000 		.4byte	0x11d1
 6466 17f8 0C180000 		.4byte	0x180c
 6467 17fc 18       		.uleb128 0x18
 6468 17fd 01       		.uleb128 0x1
 6469 17fe 50       		.byte	0x50
 6470 17ff 02       		.uleb128 0x2
 6471 1800 75       		.byte	0x75
 6472 1801 00       		.sleb128 0
 6473 1802 18       		.uleb128 0x18
 6474 1803 01       		.uleb128 0x1
 6475 1804 51       		.byte	0x51
 6476 1805 05       		.uleb128 0x5
 6477 1806 03       		.byte	0x3
 6478 1807 28020000 		.4byte	.LC114
 6479 180b 00       		.byte	0
 6480 180c 16       		.uleb128 0x16
 6481 180d D6000000 		.4byte	.LVL369
 6482 1811 291D0000 		.4byte	0x1d29
 6483 1815 16       		.uleb128 0x16
 6484 1816 DE000000 		.4byte	.LVL370
 6485 181a 351D0000 		.4byte	0x1d35
 6486 181e 17       		.uleb128 0x17
 6487 181f EE000000 		.4byte	.LVL371
 6488 1823 5F1D0000 		.4byte	0x1d5f
 6489 1827 43180000 		.4byte	0x1843
 6490 182b 18       		.uleb128 0x18
 6491 182c 01       		.uleb128 0x1
 6492 182d 50       		.byte	0x50
 6493 182e 02       		.uleb128 0x2
 6494 182f 75       		.byte	0x75
 6495 1830 00       		.sleb128 0
 6496 1831 18       		.uleb128 0x18
 6497 1832 01       		.uleb128 0x1
 6498 1833 51       		.byte	0x51
 6499 1834 05       		.uleb128 0x5
 6500 1835 03       		.byte	0x3
 6501 1836 30020000 		.4byte	.LC116
 6502 183a 18       		.uleb128 0x18
 6503 183b 01       		.uleb128 0x1
 6504 183c 52       		.byte	0x52
 6505 183d 04       		.uleb128 0x4
 6506 183e 91       		.byte	0x91
 6507 183f A87F     		.sleb128 -88
 6508 1841 06       		.byte	0x6
 6509 1842 00       		.byte	0
 6510 1843 17       		.uleb128 0x17
 6511 1844 F4000000 		.4byte	.LVL372
 6512 1848 491D0000 		.4byte	0x1d49
ARM GAS  C:\Users\TERENC~1\AppData\Local\Temp\ccVObDgl.s 			page 136


 6513 184c 57180000 		.4byte	0x1857
 6514 1850 18       		.uleb128 0x18
 6515 1851 01       		.uleb128 0x1
 6516 1852 50       		.byte	0x50
 6517 1853 02       		.uleb128 0x2
 6518 1854 75       		.byte	0x75
 6519 1855 00       		.sleb128 0
 6520 1856 00       		.byte	0
 6521 1857 16       		.uleb128 0x16
 6522 1858 FA000000 		.4byte	.LVL373
 6523 185c 291D0000 		.4byte	0x1d29
 6524 1860 16       		.uleb128 0x16
 6525 1861 02010000 		.4byte	.LVL374
 6526 1865 351D0000 		.4byte	0x1d35
 6527 1869 17       		.uleb128 0x17
 6528 186a 16010000 		.4byte	.LVL375
 6529 186e 5F1D0000 		.4byte	0x1d5f
 6530 1872 88180000 		.4byte	0x1888
 6531 1876 18       		.uleb128 0x18
 6532 1877 01       		.uleb128 0x1
 6533 1878 51       		.byte	0x51
 6534 1879 05       		.uleb128 0x5
 6535 187a 03       		.byte	0x3
 6536 187b 54020000 		.4byte	.LC118
 6537 187f 18       		.uleb128 0x18
 6538 1880 01       		.uleb128 0x1
 6539 1881 52       		.byte	0x52
 6540 1882 04       		.uleb128 0x4
 6541 1883 91       		.byte	0x91
 6542 1884 A87F     		.sleb128 -88
 6543 1886 06       		.byte	0x6
 6544 1887 00       		.byte	0
 6545 1888 16       		.uleb128 0x16
 6546 1889 1C010000 		.4byte	.LVL376
 6547 188d 491D0000 		.4byte	0x1d49
 6548 1891 17       		.uleb128 0x17
 6549 1892 6C010000 		.4byte	.LVL381
 6550 1896 D1110000 		.4byte	0x11d1
 6551 189a AE180000 		.4byte	0x18ae
 6552 189e 18       		.uleb128 0x18
 6553 189f 01       		.uleb128 0x1
 6554 18a0 50       		.byte	0x50
 6555 18a1 02       		.uleb128 0x2
 6556 18a2 75       		.byte	0x75
 6557 18a3 00       		.sleb128 0
 6558 18a4 18       		.uleb128 0x18
 6559 18a5 01       		.uleb128 0x1
 6560 18a6 51       		.byte	0x51
 6561 18a7 05       		.uleb128 0x5
 6562 18a8 03       		.byte	0x3
 6563 18a9 28020000 		.4byte	.LC114
 6564 18ad 00       		.byte	0
 6565 18ae 16       		.uleb128 0x16
 6566 18af 74010000 		.4byte	.LVL383
 6567 18b3 291D0000 		.4byte	0x1d29
 6568 18b7 16       		.uleb128 0x16
 6569 18b8 7C010000 		.4byte	.LVL384
ARM GAS  C:\Users\TERENC~1\AppData\Local\Temp\ccVObDgl.s 			page 137


 6570 18bc 351D0000 		.4byte	0x1d35
 6571 18c0 17       		.uleb128 0x17
 6572 18c1 8C010000 		.4byte	.LVL385
 6573 18c5 401D0000 		.4byte	0x1d40
 6574 18c9 E2180000 		.4byte	0x18e2
 6575 18cd 18       		.uleb128 0x18
 6576 18ce 01       		.uleb128 0x1
 6577 18cf 50       		.byte	0x50
 6578 18d0 02       		.uleb128 0x2
 6579 18d1 75       		.byte	0x75
 6580 18d2 00       		.sleb128 0
 6581 18d3 18       		.uleb128 0x18
 6582 18d4 01       		.uleb128 0x1
 6583 18d5 51       		.byte	0x51
 6584 18d6 05       		.uleb128 0x5
 6585 18d7 03       		.byte	0x3
 6586 18d8 60020000 		.4byte	.LC121
 6587 18dc 18       		.uleb128 0x18
 6588 18dd 01       		.uleb128 0x1
 6589 18de 52       		.byte	0x52
 6590 18df 01       		.uleb128 0x1
 6591 18e0 4E       		.byte	0x4e
 6592 18e1 00       		.byte	0
 6593 18e2 17       		.uleb128 0x17
 6594 18e3 92010000 		.4byte	.LVL386
 6595 18e7 491D0000 		.4byte	0x1d49
 6596 18eb F6180000 		.4byte	0x18f6
 6597 18ef 18       		.uleb128 0x18
 6598 18f0 01       		.uleb128 0x1
 6599 18f1 50       		.byte	0x50
 6600 18f2 02       		.uleb128 0x2
 6601 18f3 75       		.byte	0x75
 6602 18f4 00       		.sleb128 0
 6603 18f5 00       		.byte	0
 6604 18f6 16       		.uleb128 0x16
 6605 18f7 98010000 		.4byte	.LVL388
 6606 18fb 291D0000 		.4byte	0x1d29
 6607 18ff 16       		.uleb128 0x16
 6608 1900 A0010000 		.4byte	.LVL389
 6609 1904 351D0000 		.4byte	0x1d35
 6610 1908 17       		.uleb128 0x17
 6611 1909 BC010000 		.4byte	.LVL390
 6612 190d 5F1D0000 		.4byte	0x1d5f
 6613 1911 3F190000 		.4byte	0x193f
 6614 1915 18       		.uleb128 0x18
 6615 1916 01       		.uleb128 0x1
 6616 1917 50       		.byte	0x50
 6617 1918 02       		.uleb128 0x2
 6618 1919 76       		.byte	0x76
 6619 191a 00       		.sleb128 0
 6620 191b 18       		.uleb128 0x18
 6621 191c 01       		.uleb128 0x1
 6622 191d 51       		.byte	0x51
 6623 191e 05       		.uleb128 0x5
 6624 191f 03       		.byte	0x3
 6625 1920 80020000 		.4byte	.LC123
 6626 1924 18       		.uleb128 0x18
ARM GAS  C:\Users\TERENC~1\AppData\Local\Temp\ccVObDgl.s 			page 138


 6627 1925 01       		.uleb128 0x1
 6628 1926 52       		.byte	0x52
 6629 1927 02       		.uleb128 0x2
 6630 1928 75       		.byte	0x75
 6631 1929 00       		.sleb128 0
 6632 192a 18       		.uleb128 0x18
 6633 192b 01       		.uleb128 0x1
 6634 192c 53       		.byte	0x53
 6635 192d 10       		.uleb128 0x10
 6636 192e 74       		.byte	0x74
 6637 192f 00       		.sleb128 0
 6638 1930 31       		.byte	0x31
 6639 1931 24       		.byte	0x24
 6640 1932 74       		.byte	0x74
 6641 1933 00       		.sleb128 0
 6642 1934 22       		.byte	0x22
 6643 1935 32       		.byte	0x32
 6644 1936 24       		.byte	0x24
 6645 1937 03       		.byte	0x3
 6646 1938 40000000 		.4byte	.LANCHOR0+64
 6647 193c 22       		.byte	0x22
 6648 193d 06       		.byte	0x6
 6649 193e 00       		.byte	0
 6650 193f 17       		.uleb128 0x17
 6651 1940 C2010000 		.4byte	.LVL391
 6652 1944 491D0000 		.4byte	0x1d49
 6653 1948 53190000 		.4byte	0x1953
 6654 194c 18       		.uleb128 0x18
 6655 194d 01       		.uleb128 0x1
 6656 194e 50       		.byte	0x50
 6657 194f 02       		.uleb128 0x2
 6658 1950 76       		.byte	0x76
 6659 1951 00       		.sleb128 0
 6660 1952 00       		.byte	0
 6661 1953 16       		.uleb128 0x16
 6662 1954 0E020000 		.4byte	.LVL399
 6663 1958 291D0000 		.4byte	0x1d29
 6664 195c 16       		.uleb128 0x16
 6665 195d 16020000 		.4byte	.LVL400
 6666 1961 351D0000 		.4byte	0x1d35
 6667 1965 17       		.uleb128 0x17
 6668 1966 26020000 		.4byte	.LVL401
 6669 196a 5F1D0000 		.4byte	0x1d5f
 6670 196e 82190000 		.4byte	0x1982
 6671 1972 18       		.uleb128 0x18
 6672 1973 01       		.uleb128 0x1
 6673 1974 50       		.byte	0x50
 6674 1975 02       		.uleb128 0x2
 6675 1976 74       		.byte	0x74
 6676 1977 00       		.sleb128 0
 6677 1978 18       		.uleb128 0x18
 6678 1979 01       		.uleb128 0x1
 6679 197a 51       		.byte	0x51
 6680 197b 05       		.uleb128 0x5
 6681 197c 03       		.byte	0x3
 6682 197d 8C020000 		.4byte	.LC125
 6683 1981 00       		.byte	0
ARM GAS  C:\Users\TERENC~1\AppData\Local\Temp\ccVObDgl.s 			page 139


 6684 1982 19       		.uleb128 0x19
 6685 1983 2C020000 		.4byte	.LVL402
 6686 1987 491D0000 		.4byte	0x1d49
 6687 198b 18       		.uleb128 0x18
 6688 198c 01       		.uleb128 0x1
 6689 198d 50       		.byte	0x50
 6690 198e 02       		.uleb128 0x2
 6691 198f 74       		.byte	0x74
 6692 1990 00       		.sleb128 0
 6693 1991 00       		.byte	0
 6694 1992 00       		.byte	0
 6695 1993 03       		.uleb128 0x3
 6696 1994 01       		.byte	0x1
 6697 1995 02       		.byte	0x2
 6698 1996 D6020000 		.4byte	.LASF81
 6699 199a 0E       		.uleb128 0xe
 6700 199b 9A000000 		.4byte	0x9a
 6701 199f AA190000 		.4byte	0x19aa
 6702 19a3 0F       		.uleb128 0xf
 6703 19a4 93000000 		.4byte	0x93
 6704 19a8 09       		.byte	0x9
 6705 19a9 00       		.byte	0
 6706 19aa 27       		.uleb128 0x27
 6707 19ab 00000000 		.4byte	.LASF82
 6708 19af 01       		.byte	0x1
 6709 19b0 7C02     		.2byte	0x27c
 6710 19b2 00000000 		.4byte	.LFB26
 6711 19b6 1C000000 		.4byte	.LFE26-.LFB26
 6712 19ba 01       		.uleb128 0x1
 6713 19bb 9C       		.byte	0x9c
 6714 19bc DC190000 		.4byte	0x19dc
 6715 19c0 19       		.uleb128 0x19
 6716 19c1 0E000000 		.4byte	.LVL407
 6717 19c5 0F1E0000 		.4byte	0x1e0f
 6718 19c9 18       		.uleb128 0x18
 6719 19ca 01       		.uleb128 0x1
 6720 19cb 50       		.byte	0x50
 6721 19cc 02       		.uleb128 0x2
 6722 19cd 74       		.byte	0x74
 6723 19ce 00       		.sleb128 0
 6724 19cf 18       		.uleb128 0x18
 6725 19d0 01       		.uleb128 0x1
 6726 19d1 51       		.byte	0x51
 6727 19d2 01       		.uleb128 0x1
 6728 19d3 30       		.byte	0x30
 6729 19d4 18       		.uleb128 0x18
 6730 19d5 01       		.uleb128 0x1
 6731 19d6 52       		.byte	0x52
 6732 19d7 02       		.uleb128 0x2
 6733 19d8 08       		.byte	0x8
 6734 19d9 40       		.byte	0x40
 6735 19da 00       		.byte	0
 6736 19db 00       		.byte	0
 6737 19dc 27       		.uleb128 0x27
 6738 19dd CF050000 		.4byte	.LASF83
 6739 19e1 01       		.byte	0x1
 6740 19e2 8202     		.2byte	0x282
ARM GAS  C:\Users\TERENC~1\AppData\Local\Temp\ccVObDgl.s 			page 140


 6741 19e4 00000000 		.4byte	.LFB27
 6742 19e8 20010000 		.4byte	.LFE27-.LFB27
 6743 19ec 01       		.uleb128 0x1
 6744 19ed 9C       		.byte	0x9c
 6745 19ee 6A1B0000 		.4byte	0x1b6a
 6746 19f2 1E       		.uleb128 0x1e
 6747 19f3 6300     		.ascii	"c\000"
 6748 19f5 01       		.byte	0x1
 6749 19f6 8402     		.2byte	0x284
 6750 19f8 A0000000 		.4byte	0xa0
 6751 19fc 2C100000 		.4byte	.LLST81
 6752 1a00 1E       		.uleb128 0x1e
 6753 1a01 6900     		.ascii	"i\000"
 6754 1a03 01       		.byte	0x1
 6755 1a04 8502     		.2byte	0x285
 6756 1a06 DA000000 		.4byte	0xda
 6757 1a0a 72100000 		.4byte	.LLST82
 6758 1a0e 1F       		.uleb128 0x1f
 6759 1a0f 58010000 		.4byte	.LASF84
 6760 1a13 01       		.byte	0x1
 6761 1a14 8602     		.2byte	0x286
 6762 1a16 E6000000 		.4byte	0xe6
 6763 1a1a 9C100000 		.4byte	.LLST83
 6764 1a1e 25       		.uleb128 0x25
 6765 1a1f 49000000 		.4byte	.LASF85
 6766 1a23 01       		.byte	0x1
 6767 1a24 8702     		.2byte	0x287
 6768 1a26 6A1B0000 		.4byte	0x1b6a
 6769 1a2a 03       		.uleb128 0x3
 6770 1a2b 91       		.byte	0x91
 6771 1a2c A87F     		.sleb128 -88
 6772 1a2e 17       		.uleb128 0x17
 6773 1a2f 0A000000 		.4byte	.LVL409
 6774 1a33 181E0000 		.4byte	0x1e18
 6775 1a37 421A0000 		.4byte	0x1a42
 6776 1a3b 18       		.uleb128 0x18
 6777 1a3c 01       		.uleb128 0x1
 6778 1a3d 50       		.byte	0x50
 6779 1a3e 02       		.uleb128 0x2
 6780 1a3f 7D       		.byte	0x7d
 6781 1a40 00       		.sleb128 0
 6782 1a41 00       		.byte	0
 6783 1a42 16       		.uleb128 0x16
 6784 1a43 32000000 		.4byte	.LVL414
 6785 1a47 291D0000 		.4byte	0x1d29
 6786 1a4b 16       		.uleb128 0x16
 6787 1a4c 3A000000 		.4byte	.LVL415
 6788 1a50 351D0000 		.4byte	0x1d35
 6789 1a54 17       		.uleb128 0x17
 6790 1a55 4A000000 		.4byte	.LVL416
 6791 1a59 5F1D0000 		.4byte	0x1d5f
 6792 1a5d 771A0000 		.4byte	0x1a77
 6793 1a61 18       		.uleb128 0x18
 6794 1a62 01       		.uleb128 0x1
 6795 1a63 50       		.byte	0x50
 6796 1a64 02       		.uleb128 0x2
 6797 1a65 77       		.byte	0x77
ARM GAS  C:\Users\TERENC~1\AppData\Local\Temp\ccVObDgl.s 			page 141


 6798 1a66 00       		.sleb128 0
 6799 1a67 18       		.uleb128 0x18
 6800 1a68 01       		.uleb128 0x1
 6801 1a69 51       		.byte	0x51
 6802 1a6a 05       		.uleb128 0x5
 6803 1a6b 03       		.byte	0x3
 6804 1a6c A4020000 		.4byte	.LC128
 6805 1a70 18       		.uleb128 0x18
 6806 1a71 01       		.uleb128 0x1
 6807 1a72 52       		.byte	0x52
 6808 1a73 02       		.uleb128 0x2
 6809 1a74 74       		.byte	0x74
 6810 1a75 00       		.sleb128 0
 6811 1a76 00       		.byte	0
 6812 1a77 17       		.uleb128 0x17
 6813 1a78 50000000 		.4byte	.LVL417
 6814 1a7c 491D0000 		.4byte	0x1d49
 6815 1a80 8B1A0000 		.4byte	0x1a8b
 6816 1a84 18       		.uleb128 0x18
 6817 1a85 01       		.uleb128 0x1
 6818 1a86 50       		.byte	0x50
 6819 1a87 02       		.uleb128 0x2
 6820 1a88 77       		.byte	0x77
 6821 1a89 00       		.sleb128 0
 6822 1a8a 00       		.byte	0
 6823 1a8b 16       		.uleb128 0x16
 6824 1a8c 5E000000 		.4byte	.LVL418
 6825 1a90 CC160000 		.4byte	0x16cc
 6826 1a94 16       		.uleb128 0x16
 6827 1a95 62000000 		.4byte	.LVL419
 6828 1a99 291D0000 		.4byte	0x1d29
 6829 1a9d 16       		.uleb128 0x16
 6830 1a9e 6A000000 		.4byte	.LVL420
 6831 1aa2 351D0000 		.4byte	0x1d35
 6832 1aa6 17       		.uleb128 0x17
 6833 1aa7 7A000000 		.4byte	.LVL422
 6834 1aab 401D0000 		.4byte	0x1d40
 6835 1aaf C81A0000 		.4byte	0x1ac8
 6836 1ab3 18       		.uleb128 0x18
 6837 1ab4 01       		.uleb128 0x1
 6838 1ab5 50       		.byte	0x50
 6839 1ab6 02       		.uleb128 0x2
 6840 1ab7 74       		.byte	0x74
 6841 1ab8 00       		.sleb128 0
 6842 1ab9 18       		.uleb128 0x18
 6843 1aba 01       		.uleb128 0x1
 6844 1abb 51       		.byte	0x51
 6845 1abc 05       		.uleb128 0x5
 6846 1abd 03       		.byte	0x3
 6847 1abe A8020000 		.4byte	.LC132
 6848 1ac2 18       		.uleb128 0x18
 6849 1ac3 01       		.uleb128 0x1
 6850 1ac4 52       		.byte	0x52
 6851 1ac5 01       		.uleb128 0x1
 6852 1ac6 37       		.byte	0x37
 6853 1ac7 00       		.byte	0
 6854 1ac8 17       		.uleb128 0x17
ARM GAS  C:\Users\TERENC~1\AppData\Local\Temp\ccVObDgl.s 			page 142


 6855 1ac9 80000000 		.4byte	.LVL423
 6856 1acd 491D0000 		.4byte	0x1d49
 6857 1ad1 DC1A0000 		.4byte	0x1adc
 6858 1ad5 18       		.uleb128 0x18
 6859 1ad6 01       		.uleb128 0x1
 6860 1ad7 50       		.byte	0x50
 6861 1ad8 02       		.uleb128 0x2
 6862 1ad9 74       		.byte	0x74
 6863 1ada 00       		.sleb128 0
 6864 1adb 00       		.byte	0
 6865 1adc 16       		.uleb128 0x16
 6866 1add A6000000 		.4byte	.LVL425
 6867 1ae1 291D0000 		.4byte	0x1d29
 6868 1ae5 16       		.uleb128 0x16
 6869 1ae6 AE000000 		.4byte	.LVL426
 6870 1aea 351D0000 		.4byte	0x1d35
 6871 1aee 17       		.uleb128 0x17
 6872 1aef BE000000 		.4byte	.LVL428
 6873 1af3 401D0000 		.4byte	0x1d40
 6874 1af7 101B0000 		.4byte	0x1b10
 6875 1afb 18       		.uleb128 0x18
 6876 1afc 01       		.uleb128 0x1
 6877 1afd 50       		.byte	0x50
 6878 1afe 02       		.uleb128 0x2
 6879 1aff 74       		.byte	0x74
 6880 1b00 00       		.sleb128 0
 6881 1b01 18       		.uleb128 0x18
 6882 1b02 01       		.uleb128 0x1
 6883 1b03 51       		.byte	0x51
 6884 1b04 05       		.uleb128 0x5
 6885 1b05 03       		.byte	0x3
 6886 1b06 B0020000 		.4byte	.LC134
 6887 1b0a 18       		.uleb128 0x18
 6888 1b0b 01       		.uleb128 0x1
 6889 1b0c 52       		.byte	0x52
 6890 1b0d 01       		.uleb128 0x1
 6891 1b0e 34       		.byte	0x34
 6892 1b0f 00       		.byte	0
 6893 1b10 17       		.uleb128 0x17
 6894 1b11 C4000000 		.4byte	.LVL429
 6895 1b15 491D0000 		.4byte	0x1d49
 6896 1b19 241B0000 		.4byte	0x1b24
 6897 1b1d 18       		.uleb128 0x18
 6898 1b1e 01       		.uleb128 0x1
 6899 1b1f 50       		.byte	0x50
 6900 1b20 02       		.uleb128 0x2
 6901 1b21 74       		.byte	0x74
 6902 1b22 00       		.sleb128 0
 6903 1b23 00       		.byte	0
 6904 1b24 16       		.uleb128 0x16
 6905 1b25 CA000000 		.4byte	.LVL431
 6906 1b29 291D0000 		.4byte	0x1d29
 6907 1b2d 16       		.uleb128 0x16
 6908 1b2e D2000000 		.4byte	.LVL432
 6909 1b32 351D0000 		.4byte	0x1d35
 6910 1b36 17       		.uleb128 0x17
 6911 1b37 E2000000 		.4byte	.LVL433
ARM GAS  C:\Users\TERENC~1\AppData\Local\Temp\ccVObDgl.s 			page 143


 6912 1b3b 5F1D0000 		.4byte	0x1d5f
 6913 1b3f 591B0000 		.4byte	0x1b59
 6914 1b43 18       		.uleb128 0x18
 6915 1b44 01       		.uleb128 0x1
 6916 1b45 50       		.byte	0x50
 6917 1b46 02       		.uleb128 0x2
 6918 1b47 77       		.byte	0x77
 6919 1b48 00       		.sleb128 0
 6920 1b49 18       		.uleb128 0x18
 6921 1b4a 01       		.uleb128 0x1
 6922 1b4b 51       		.byte	0x51
 6923 1b4c 05       		.uleb128 0x5
 6924 1b4d 03       		.byte	0x3
 6925 1b4e A4020000 		.4byte	.LC128
 6926 1b52 18       		.uleb128 0x18
 6927 1b53 01       		.uleb128 0x1
 6928 1b54 52       		.byte	0x52
 6929 1b55 02       		.uleb128 0x2
 6930 1b56 74       		.byte	0x74
 6931 1b57 00       		.sleb128 0
 6932 1b58 00       		.byte	0
 6933 1b59 19       		.uleb128 0x19
 6934 1b5a E8000000 		.4byte	.LVL434
 6935 1b5e 491D0000 		.4byte	0x1d49
 6936 1b62 18       		.uleb128 0x18
 6937 1b63 01       		.uleb128 0x1
 6938 1b64 50       		.byte	0x50
 6939 1b65 02       		.uleb128 0x2
 6940 1b66 77       		.byte	0x77
 6941 1b67 00       		.sleb128 0
 6942 1b68 00       		.byte	0
 6943 1b69 00       		.byte	0
 6944 1b6a 0E       		.uleb128 0xe
 6945 1b6b DA000000 		.4byte	0xda
 6946 1b6f 7A1B0000 		.4byte	0x1b7a
 6947 1b73 0F       		.uleb128 0xf
 6948 1b74 93000000 		.4byte	0x93
 6949 1b78 3F       		.byte	0x3f
 6950 1b79 00       		.byte	0
 6951 1b7a 0E       		.uleb128 0xe
 6952 1b7b 8A1B0000 		.4byte	0x1b8a
 6953 1b7f 8A1B0000 		.4byte	0x1b8a
 6954 1b83 0F       		.uleb128 0xf
 6955 1b84 93000000 		.4byte	0x93
 6956 1b88 0D       		.byte	0xd
 6957 1b89 00       		.byte	0
 6958 1b8a 07       		.uleb128 0x7
 6959 1b8b CF000000 		.4byte	0xcf
 6960 1b8f 28       		.uleb128 0x28
 6961 1b90 10040000 		.4byte	.LASF86
 6962 1b94 01       		.byte	0x1
 6963 1b95 33       		.byte	0x33
 6964 1b96 A01B0000 		.4byte	0x1ba0
 6965 1b9a 05       		.uleb128 0x5
 6966 1b9b 03       		.byte	0x3
 6967 1b9c 00000000 		.4byte	reg_lookup
 6968 1ba0 07       		.uleb128 0x7
ARM GAS  C:\Users\TERENC~1\AppData\Local\Temp\ccVObDgl.s 			page 144


 6969 1ba1 7A1B0000 		.4byte	0x1b7a
 6970 1ba5 0E       		.uleb128 0xe
 6971 1ba6 B51B0000 		.4byte	0x1bb5
 6972 1baa B51B0000 		.4byte	0x1bb5
 6973 1bae 0F       		.uleb128 0xf
 6974 1baf 93000000 		.4byte	0x93
 6975 1bb3 03       		.byte	0x3
 6976 1bb4 00       		.byte	0
 6977 1bb5 07       		.uleb128 0x7
 6978 1bb6 31020000 		.4byte	0x231
 6979 1bba 28       		.uleb128 0x28
 6980 1bbb FC060000 		.4byte	.LASF87
 6981 1bbf 01       		.byte	0x1
 6982 1bc0 47       		.byte	0x47
 6983 1bc1 CB1B0000 		.4byte	0x1bcb
 6984 1bc5 05       		.uleb128 0x5
 6985 1bc6 03       		.byte	0x3
 6986 1bc7 C4010000 		.4byte	__tk_shell_verbs_gpio
 6987 1bcb 07       		.uleb128 0x7
 6988 1bcc A51B0000 		.4byte	0x1ba5
 6989 1bd0 0E       		.uleb128 0xe
 6990 1bd1 B51B0000 		.4byte	0x1bb5
 6991 1bd5 E01B0000 		.4byte	0x1be0
 6992 1bd9 0F       		.uleb128 0xf
 6993 1bda 93000000 		.4byte	0x93
 6994 1bde 04       		.byte	0x4
 6995 1bdf 00       		.byte	0
 6996 1be0 28       		.uleb128 0x28
 6997 1be1 10050000 		.4byte	.LASF88
 6998 1be5 01       		.byte	0x1
 6999 1be6 53       		.byte	0x53
 7000 1be7 F11B0000 		.4byte	0x1bf1
 7001 1beb 05       		.uleb128 0x5
 7002 1bec 03       		.byte	0x3
 7003 1bed 88010000 		.4byte	__tk_shell_verbs_wm
 7004 1bf1 07       		.uleb128 0x7
 7005 1bf2 D01B0000 		.4byte	0x1bd0
 7006 1bf6 28       		.uleb128 0x28
 7007 1bf7 1D030000 		.4byte	.LASF89
 7008 1bfb 01       		.byte	0x1
 7009 1bfc 60       		.byte	0x60
 7010 1bfd 071C0000 		.4byte	0x1c07
 7011 1c01 05       		.uleb128 0x5
 7012 1c02 03       		.byte	0x3
 7013 1c03 4C010000 		.4byte	__tk_shell_verbs_rf
 7014 1c07 07       		.uleb128 0x7
 7015 1c08 D01B0000 		.4byte	0x1bd0
 7016 1c0c 28       		.uleb128 0x28
 7017 1c0d 45040000 		.4byte	.LASF90
 7018 1c11 01       		.byte	0x1
 7019 1c12 6D       		.byte	0x6d
 7020 1c13 1D1C0000 		.4byte	0x1c1d
 7021 1c17 05       		.uleb128 0x5
 7022 1c18 03       		.byte	0x3
 7023 1c19 10010000 		.4byte	__tk_shell_verbs_sys
 7024 1c1d 07       		.uleb128 0x7
 7025 1c1e D01B0000 		.4byte	0x1bd0
ARM GAS  C:\Users\TERENC~1\AppData\Local\Temp\ccVObDgl.s 			page 145


 7026 1c22 0E       		.uleb128 0xe
 7027 1c23 B51B0000 		.4byte	0x1bb5
 7028 1c27 321C0000 		.4byte	0x1c32
 7029 1c2b 0F       		.uleb128 0xf
 7030 1c2c 93000000 		.4byte	0x93
 7031 1c30 02       		.byte	0x2
 7032 1c31 00       		.byte	0
 7033 1c32 28       		.uleb128 0x28
 7034 1c33 F2030000 		.4byte	.LASF91
 7035 1c37 01       		.byte	0x1
 7036 1c38 79       		.byte	0x79
 7037 1c39 431C0000 		.4byte	0x1c43
 7038 1c3d 05       		.uleb128 0x5
 7039 1c3e 03       		.byte	0x3
 7040 1c3f EC000000 		.4byte	__tk_shell_verbs_led
 7041 1c43 07       		.uleb128 0x7
 7042 1c44 221C0000 		.4byte	0x1c22
 7043 1c48 28       		.uleb128 0x28
 7044 1c49 F3040000 		.4byte	.LASF92
 7045 1c4d 01       		.byte	0x1
 7046 1c4e 83       		.byte	0x83
 7047 1c4f 591C0000 		.4byte	0x1c59
 7048 1c53 05       		.uleb128 0x5
 7049 1c54 03       		.byte	0x3
 7050 1c55 BC000000 		.4byte	__tk_shell_verbs_cal
 7051 1c59 07       		.uleb128 0x7
 7052 1c5a A51B0000 		.4byte	0x1ba5
 7053 1c5e 28       		.uleb128 0x28
 7054 1c5f 75060000 		.4byte	.LASF93
 7055 1c63 01       		.byte	0x1
 7056 1c64 8D       		.byte	0x8d
 7057 1c65 6F1C0000 		.4byte	0x1c6f
 7058 1c69 05       		.uleb128 0x5
 7059 1c6a 03       		.byte	0x3
 7060 1c6b 98000000 		.4byte	__tk_shell_verbs_audio
 7061 1c6f 07       		.uleb128 0x7
 7062 1c70 221C0000 		.4byte	0x1c22
 7063 1c74 0E       		.uleb128 0xe
 7064 1c75 841C0000 		.4byte	0x1c84
 7065 1c79 841C0000 		.4byte	0x1c84
 7066 1c7d 0F       		.uleb128 0xf
 7067 1c7e 93000000 		.4byte	0x93
 7068 1c82 07       		.byte	0x7
 7069 1c83 00       		.byte	0
 7070 1c84 07       		.uleb128 0x7
 7071 1c85 6F020000 		.4byte	0x26f
 7072 1c89 28       		.uleb128 0x28
 7073 1c8a 3C040000 		.4byte	.LASF94
 7074 1c8e 01       		.byte	0x1
 7075 1c8f 94       		.byte	0x94
 7076 1c90 9A1C0000 		.4byte	0x1c9a
 7077 1c94 05       		.uleb128 0x5
 7078 1c95 03       		.byte	0x3
 7079 1c96 38000000 		.4byte	commands
 7080 1c9a 07       		.uleb128 0x7
 7081 1c9b 741C0000 		.4byte	0x1c74
 7082 1c9f 0E       		.uleb128 0xe
ARM GAS  C:\Users\TERENC~1\AppData\Local\Temp\ccVObDgl.s 			page 146


 7083 1ca0 A0000000 		.4byte	0xa0
 7084 1ca4 AF1C0000 		.4byte	0x1caf
 7085 1ca8 0F       		.uleb128 0xf
 7086 1ca9 93000000 		.4byte	0x93
 7087 1cad 3F       		.byte	0x3f
 7088 1cae 00       		.byte	0
 7089 1caf 28       		.uleb128 0x28
 7090 1cb0 BC020000 		.4byte	.LASF95
 7091 1cb4 01       		.byte	0x1
 7092 1cb5 A0       		.byte	0xa0
 7093 1cb6 9F1C0000 		.4byte	0x1c9f
 7094 1cba 05       		.uleb128 0x5
 7095 1cbb 03       		.byte	0x3
 7096 1cbc 00000000 		.4byte	cmd_buf
 7097 1cc0 28       		.uleb128 0x28
 7098 1cc1 31070000 		.4byte	.LASF96
 7099 1cc5 01       		.byte	0x1
 7100 1cc6 A1       		.byte	0xa1
 7101 1cc7 B9000000 		.4byte	0xb9
 7102 1ccb 05       		.uleb128 0x5
 7103 1ccc 03       		.byte	0x3
 7104 1ccd 40000000 		.4byte	cmd_char_count
 7105 1cd1 29       		.uleb128 0x29
 7106 1cd2 2E040000 		.4byte	.LASF97
 7107 1cd6 08       		.byte	0x8
 7108 1cd7 2E       		.byte	0x2e
 7109 1cd8 AE000000 		.4byte	0xae
 7110 1cdc 0E       		.uleb128 0xe
 7111 1cdd FE000000 		.4byte	0xfe
 7112 1ce1 E71C0000 		.4byte	0x1ce7
 7113 1ce5 2A       		.uleb128 0x2a
 7114 1ce6 00       		.byte	0
 7115 1ce7 29       		.uleb128 0x29
 7116 1ce8 96010000 		.4byte	.LASF98
 7117 1cec 06       		.byte	0x6
 7118 1ced 1A       		.byte	0x1a
 7119 1cee DC1C0000 		.4byte	0x1cdc
 7120 1cf2 29       		.uleb128 0x29
 7121 1cf3 B0040000 		.4byte	.LASF99
 7122 1cf7 05       		.byte	0x5
 7123 1cf8 1D       		.byte	0x1d
 7124 1cf9 FD1C0000 		.4byte	0x1cfd
 7125 1cfd 05       		.uleb128 0x5
 7126 1cfe 04       		.byte	0x4
 7127 1cff A9010000 		.4byte	0x1a9
 7128 1d03 29       		.uleb128 0x29
 7129 1d04 7F030000 		.4byte	.LASF100
 7130 1d08 09       		.byte	0x9
 7131 1d09 13       		.byte	0x13
 7132 1d0a 0E1D0000 		.4byte	0x1d0e
 7133 1d0e 09       		.uleb128 0x9
 7134 1d0f CF000000 		.4byte	0xcf
 7135 1d13 0E       		.uleb128 0xe
 7136 1d14 A0000000 		.4byte	0xa0
 7137 1d18 1E1D0000 		.4byte	0x1d1e
 7138 1d1c 2A       		.uleb128 0x2a
 7139 1d1d 00       		.byte	0
ARM GAS  C:\Users\TERENC~1\AppData\Local\Temp\ccVObDgl.s 			page 147


 7140 1d1e 29       		.uleb128 0x29
 7141 1d1f 82040000 		.4byte	.LASF101
 7142 1d23 0A       		.byte	0xa
 7143 1d24 3C       		.byte	0x3c
 7144 1d25 131D0000 		.4byte	0x1d13
 7145 1d29 2B       		.uleb128 0x2b
 7146 1d2a B7000000 		.4byte	.LASF102
 7147 1d2e B7000000 		.4byte	.LASF102
 7148 1d32 0B       		.byte	0xb
 7149 1d33 3201     		.2byte	0x132
 7150 1d35 2C       		.uleb128 0x2c
 7151 1d36 A2050000 		.4byte	.LASF103
 7152 1d3a A2050000 		.4byte	.LASF103
 7153 1d3e 0C       		.byte	0xc
 7154 1d3f 28       		.byte	0x28
 7155 1d40 2D       		.uleb128 0x2d
 7156 1d41 25070000 		.4byte	.LASF122
 7157 1d45 25070000 		.4byte	.LASF122
 7158 1d49 2C       		.uleb128 0x2c
 7159 1d4a 4D050000 		.4byte	.LASF104
 7160 1d4e 4D050000 		.4byte	.LASF104
 7161 1d52 0C       		.byte	0xc
 7162 1d53 24       		.byte	0x24
 7163 1d54 2C       		.uleb128 0x2c
 7164 1d55 2C070000 		.4byte	.LASF105
 7165 1d59 2C070000 		.4byte	.LASF105
 7166 1d5d 0D       		.byte	0xd
 7167 1d5e 4D       		.byte	0x4d
 7168 1d5f 2C       		.uleb128 0x2c
 7169 1d60 6B040000 		.4byte	.LASF106
 7170 1d64 6B040000 		.4byte	.LASF106
 7171 1d68 0E       		.byte	0xe
 7172 1d69 E7       		.byte	0xe7
 7173 1d6a 2C       		.uleb128 0x2c
 7174 1d6b 1D010000 		.4byte	.LASF107
 7175 1d6f 1D010000 		.4byte	.LASF107
 7176 1d73 0F       		.byte	0xf
 7177 1d74 AB       		.byte	0xab
 7178 1d75 2C       		.uleb128 0x2c
 7179 1d76 31030000 		.4byte	.LASF108
 7180 1d7a 31030000 		.4byte	.LASF108
 7181 1d7e 0F       		.byte	0xf
 7182 1d7f AD       		.byte	0xad
 7183 1d80 2C       		.uleb128 0x2c
 7184 1d81 6D050000 		.4byte	.LASF109
 7185 1d85 6D050000 		.4byte	.LASF109
 7186 1d89 0D       		.byte	0xd
 7187 1d8a A4       		.byte	0xa4
 7188 1d8b 2C       		.uleb128 0x2c
 7189 1d8c 60060000 		.4byte	.LASF110
 7190 1d90 60060000 		.4byte	.LASF110
 7191 1d94 0F       		.byte	0xf
 7192 1d95 B5       		.byte	0xb5
 7193 1d96 2C       		.uleb128 0x2c
 7194 1d97 2F050000 		.4byte	.LASF111
 7195 1d9b 2F050000 		.4byte	.LASF111
 7196 1d9f 0F       		.byte	0xf
ARM GAS  C:\Users\TERENC~1\AppData\Local\Temp\ccVObDgl.s 			page 148


 7197 1da0 B6       		.byte	0xb6
 7198 1da1 2C       		.uleb128 0x2c
 7199 1da2 FA000000 		.4byte	.LASF112
 7200 1da6 FA000000 		.4byte	.LASF112
 7201 1daa 10       		.byte	0x10
 7202 1dab 38       		.byte	0x38
 7203 1dac 2C       		.uleb128 0x2c
 7204 1dad 6C070000 		.4byte	.LASF113
 7205 1db1 6C070000 		.4byte	.LASF113
 7206 1db5 10       		.byte	0x10
 7207 1db6 39       		.byte	0x39
 7208 1db7 2C       		.uleb128 0x2c
 7209 1db8 F3020000 		.4byte	.LASF114
 7210 1dbc F3020000 		.4byte	.LASF114
 7211 1dc0 10       		.byte	0x10
 7212 1dc1 3A       		.byte	0x3a
 7213 1dc2 2C       		.uleb128 0x2c
 7214 1dc3 C4020000 		.4byte	.LASF115
 7215 1dc7 C4020000 		.4byte	.LASF115
 7216 1dcb 10       		.byte	0x10
 7217 1dcc 3B       		.byte	0x3b
 7218 1dcd 2C       		.uleb128 0x2c
 7219 1dce F6050000 		.4byte	.LASF116
 7220 1dd2 F6050000 		.4byte	.LASF116
 7221 1dd6 11       		.byte	0x11
 7222 1dd7 E4       		.byte	0xe4
 7223 1dd8 2C       		.uleb128 0x2c
 7224 1dd9 17000000 		.4byte	.LASF117
 7225 1ddd 17000000 		.4byte	.LASF117
 7226 1de1 05       		.byte	0x5
 7227 1de2 21       		.byte	0x21
 7228 1de3 2C       		.uleb128 0x2c
 7229 1de4 B4010000 		.4byte	.LASF118
 7230 1de8 B4010000 		.4byte	.LASF118
 7231 1dec 12       		.byte	0x12
 7232 1ded 20       		.byte	0x20
 7233 1dee 2C       		.uleb128 0x2c
 7234 1def 4F030000 		.4byte	.LASF119
 7235 1df3 4F030000 		.4byte	.LASF119
 7236 1df7 12       		.byte	0x12
 7237 1df8 21       		.byte	0x21
 7238 1df9 2C       		.uleb128 0x2c
 7239 1dfa DE050000 		.4byte	.LASF120
 7240 1dfe DE050000 		.4byte	.LASF120
 7241 1e02 07       		.byte	0x7
 7242 1e03 19       		.byte	0x19
 7243 1e04 2C       		.uleb128 0x2c
 7244 1e05 81070000 		.4byte	.LASF121
 7245 1e09 81070000 		.4byte	.LASF121
 7246 1e0d 07       		.byte	0x7
 7247 1e0e 1A       		.byte	0x1a
 7248 1e0f 2D       		.uleb128 0x2d
 7249 1e10 1B040000 		.4byte	.LASF123
 7250 1e14 1B040000 		.4byte	.LASF123
 7251 1e18 2C       		.uleb128 0x2c
 7252 1e19 64030000 		.4byte	.LASF124
 7253 1e1d 64030000 		.4byte	.LASF124
ARM GAS  C:\Users\TERENC~1\AppData\Local\Temp\ccVObDgl.s 			page 149


 7254 1e21 0C       		.byte	0xc
 7255 1e22 2B       		.byte	0x2b
 7256 1e23 00       		.byte	0
 7257              		.section	.debug_abbrev,"",%progbits
 7258              	.Ldebug_abbrev0:
 7259 0000 01       		.uleb128 0x1
 7260 0001 11       		.uleb128 0x11
 7261 0002 01       		.byte	0x1
 7262 0003 25       		.uleb128 0x25
 7263 0004 0E       		.uleb128 0xe
 7264 0005 13       		.uleb128 0x13
 7265 0006 0B       		.uleb128 0xb
 7266 0007 03       		.uleb128 0x3
 7267 0008 0E       		.uleb128 0xe
 7268 0009 1B       		.uleb128 0x1b
 7269 000a 0E       		.uleb128 0xe
 7270 000b 55       		.uleb128 0x55
 7271 000c 17       		.uleb128 0x17
 7272 000d 11       		.uleb128 0x11
 7273 000e 01       		.uleb128 0x1
 7274 000f 10       		.uleb128 0x10
 7275 0010 17       		.uleb128 0x17
 7276 0011 00       		.byte	0
 7277 0012 00       		.byte	0
 7278 0013 02       		.uleb128 0x2
 7279 0014 24       		.uleb128 0x24
 7280 0015 00       		.byte	0
 7281 0016 0B       		.uleb128 0xb
 7282 0017 0B       		.uleb128 0xb
 7283 0018 3E       		.uleb128 0x3e
 7284 0019 0B       		.uleb128 0xb
 7285 001a 03       		.uleb128 0x3
 7286 001b 08       		.uleb128 0x8
 7287 001c 00       		.byte	0
 7288 001d 00       		.byte	0
 7289 001e 03       		.uleb128 0x3
 7290 001f 24       		.uleb128 0x24
 7291 0020 00       		.byte	0
 7292 0021 0B       		.uleb128 0xb
 7293 0022 0B       		.uleb128 0xb
 7294 0023 3E       		.uleb128 0x3e
 7295 0024 0B       		.uleb128 0xb
 7296 0025 03       		.uleb128 0x3
 7297 0026 0E       		.uleb128 0xe
 7298 0027 00       		.byte	0
 7299 0028 00       		.byte	0
 7300 0029 04       		.uleb128 0x4
 7301 002a 16       		.uleb128 0x16
 7302 002b 00       		.byte	0
 7303 002c 03       		.uleb128 0x3
 7304 002d 0E       		.uleb128 0xe
 7305 002e 3A       		.uleb128 0x3a
 7306 002f 0B       		.uleb128 0xb
 7307 0030 3B       		.uleb128 0x3b
 7308 0031 0B       		.uleb128 0xb
 7309 0032 49       		.uleb128 0x49
 7310 0033 13       		.uleb128 0x13
ARM GAS  C:\Users\TERENC~1\AppData\Local\Temp\ccVObDgl.s 			page 150


 7311 0034 00       		.byte	0
 7312 0035 00       		.byte	0
 7313 0036 05       		.uleb128 0x5
 7314 0037 0F       		.uleb128 0xf
 7315 0038 00       		.byte	0
 7316 0039 0B       		.uleb128 0xb
 7317 003a 0B       		.uleb128 0xb
 7318 003b 49       		.uleb128 0x49
 7319 003c 13       		.uleb128 0x13
 7320 003d 00       		.byte	0
 7321 003e 00       		.byte	0
 7322 003f 06       		.uleb128 0x6
 7323 0040 15       		.uleb128 0x15
 7324 0041 00       		.byte	0
 7325 0042 27       		.uleb128 0x27
 7326 0043 19       		.uleb128 0x19
 7327 0044 00       		.byte	0
 7328 0045 00       		.byte	0
 7329 0046 07       		.uleb128 0x7
 7330 0047 26       		.uleb128 0x26
 7331 0048 00       		.byte	0
 7332 0049 49       		.uleb128 0x49
 7333 004a 13       		.uleb128 0x13
 7334 004b 00       		.byte	0
 7335 004c 00       		.byte	0
 7336 004d 08       		.uleb128 0x8
 7337 004e 16       		.uleb128 0x16
 7338 004f 00       		.byte	0
 7339 0050 03       		.uleb128 0x3
 7340 0051 0E       		.uleb128 0xe
 7341 0052 3A       		.uleb128 0x3a
 7342 0053 0B       		.uleb128 0xb
 7343 0054 3B       		.uleb128 0x3b
 7344 0055 05       		.uleb128 0x5
 7345 0056 49       		.uleb128 0x49
 7346 0057 13       		.uleb128 0x13
 7347 0058 00       		.byte	0
 7348 0059 00       		.byte	0
 7349 005a 09       		.uleb128 0x9
 7350 005b 35       		.uleb128 0x35
 7351 005c 00       		.byte	0
 7352 005d 49       		.uleb128 0x49
 7353 005e 13       		.uleb128 0x13
 7354 005f 00       		.byte	0
 7355 0060 00       		.byte	0
 7356 0061 0A       		.uleb128 0xa
 7357 0062 04       		.uleb128 0x4
 7358 0063 01       		.byte	0x1
 7359 0064 0B       		.uleb128 0xb
 7360 0065 0B       		.uleb128 0xb
 7361 0066 49       		.uleb128 0x49
 7362 0067 13       		.uleb128 0x13
 7363 0068 3A       		.uleb128 0x3a
 7364 0069 0B       		.uleb128 0xb
 7365 006a 3B       		.uleb128 0x3b
 7366 006b 0B       		.uleb128 0xb
 7367 006c 01       		.uleb128 0x1
ARM GAS  C:\Users\TERENC~1\AppData\Local\Temp\ccVObDgl.s 			page 151


 7368 006d 13       		.uleb128 0x13
 7369 006e 00       		.byte	0
 7370 006f 00       		.byte	0
 7371 0070 0B       		.uleb128 0xb
 7372 0071 28       		.uleb128 0x28
 7373 0072 00       		.byte	0
 7374 0073 03       		.uleb128 0x3
 7375 0074 0E       		.uleb128 0xe
 7376 0075 1C       		.uleb128 0x1c
 7377 0076 0B       		.uleb128 0xb
 7378 0077 00       		.byte	0
 7379 0078 00       		.byte	0
 7380 0079 0C       		.uleb128 0xc
 7381 007a 13       		.uleb128 0x13
 7382 007b 01       		.byte	0x1
 7383 007c 0B       		.uleb128 0xb
 7384 007d 0B       		.uleb128 0xb
 7385 007e 3A       		.uleb128 0x3a
 7386 007f 0B       		.uleb128 0xb
 7387 0080 3B       		.uleb128 0x3b
 7388 0081 0B       		.uleb128 0xb
 7389 0082 01       		.uleb128 0x1
 7390 0083 13       		.uleb128 0x13
 7391 0084 00       		.byte	0
 7392 0085 00       		.byte	0
 7393 0086 0D       		.uleb128 0xd
 7394 0087 0D       		.uleb128 0xd
 7395 0088 00       		.byte	0
 7396 0089 03       		.uleb128 0x3
 7397 008a 0E       		.uleb128 0xe
 7398 008b 3A       		.uleb128 0x3a
 7399 008c 0B       		.uleb128 0xb
 7400 008d 3B       		.uleb128 0x3b
 7401 008e 0B       		.uleb128 0xb
 7402 008f 49       		.uleb128 0x49
 7403 0090 13       		.uleb128 0x13
 7404 0091 38       		.uleb128 0x38
 7405 0092 0B       		.uleb128 0xb
 7406 0093 00       		.byte	0
 7407 0094 00       		.byte	0
 7408 0095 0E       		.uleb128 0xe
 7409 0096 01       		.uleb128 0x1
 7410 0097 01       		.byte	0x1
 7411 0098 49       		.uleb128 0x49
 7412 0099 13       		.uleb128 0x13
 7413 009a 01       		.uleb128 0x1
 7414 009b 13       		.uleb128 0x13
 7415 009c 00       		.byte	0
 7416 009d 00       		.byte	0
 7417 009e 0F       		.uleb128 0xf
 7418 009f 21       		.uleb128 0x21
 7419 00a0 00       		.byte	0
 7420 00a1 49       		.uleb128 0x49
 7421 00a2 13       		.uleb128 0x13
 7422 00a3 2F       		.uleb128 0x2f
 7423 00a4 0B       		.uleb128 0xb
 7424 00a5 00       		.byte	0
ARM GAS  C:\Users\TERENC~1\AppData\Local\Temp\ccVObDgl.s 			page 152


 7425 00a6 00       		.byte	0
 7426 00a7 10       		.uleb128 0x10
 7427 00a8 15       		.uleb128 0x15
 7428 00a9 01       		.byte	0x1
 7429 00aa 27       		.uleb128 0x27
 7430 00ab 19       		.uleb128 0x19
 7431 00ac 49       		.uleb128 0x49
 7432 00ad 13       		.uleb128 0x13
 7433 00ae 01       		.uleb128 0x1
 7434 00af 13       		.uleb128 0x13
 7435 00b0 00       		.byte	0
 7436 00b1 00       		.byte	0
 7437 00b2 11       		.uleb128 0x11
 7438 00b3 05       		.uleb128 0x5
 7439 00b4 00       		.byte	0
 7440 00b5 49       		.uleb128 0x49
 7441 00b6 13       		.uleb128 0x13
 7442 00b7 00       		.byte	0
 7443 00b8 00       		.byte	0
 7444 00b9 12       		.uleb128 0x12
 7445 00ba 2E       		.uleb128 0x2e
 7446 00bb 01       		.byte	0x1
 7447 00bc 3F       		.uleb128 0x3f
 7448 00bd 19       		.uleb128 0x19
 7449 00be 03       		.uleb128 0x3
 7450 00bf 0E       		.uleb128 0xe
 7451 00c0 3A       		.uleb128 0x3a
 7452 00c1 0B       		.uleb128 0xb
 7453 00c2 3B       		.uleb128 0x3b
 7454 00c3 05       		.uleb128 0x5
 7455 00c4 27       		.uleb128 0x27
 7456 00c5 19       		.uleb128 0x19
 7457 00c6 49       		.uleb128 0x49
 7458 00c7 13       		.uleb128 0x13
 7459 00c8 11       		.uleb128 0x11
 7460 00c9 01       		.uleb128 0x1
 7461 00ca 12       		.uleb128 0x12
 7462 00cb 06       		.uleb128 0x6
 7463 00cc 40       		.uleb128 0x40
 7464 00cd 18       		.uleb128 0x18
 7465 00ce 9742     		.uleb128 0x2117
 7466 00d0 19       		.uleb128 0x19
 7467 00d1 01       		.uleb128 0x1
 7468 00d2 13       		.uleb128 0x13
 7469 00d3 00       		.byte	0
 7470 00d4 00       		.byte	0
 7471 00d5 13       		.uleb128 0x13
 7472 00d6 05       		.uleb128 0x5
 7473 00d7 00       		.byte	0
 7474 00d8 03       		.uleb128 0x3
 7475 00d9 0E       		.uleb128 0xe
 7476 00da 3A       		.uleb128 0x3a
 7477 00db 0B       		.uleb128 0xb
 7478 00dc 3B       		.uleb128 0x3b
 7479 00dd 05       		.uleb128 0x5
 7480 00de 49       		.uleb128 0x49
 7481 00df 13       		.uleb128 0x13
ARM GAS  C:\Users\TERENC~1\AppData\Local\Temp\ccVObDgl.s 			page 153


 7482 00e0 02       		.uleb128 0x2
 7483 00e1 17       		.uleb128 0x17
 7484 00e2 00       		.byte	0
 7485 00e3 00       		.byte	0
 7486 00e4 14       		.uleb128 0x14
 7487 00e5 34       		.uleb128 0x34
 7488 00e6 00       		.byte	0
 7489 00e7 03       		.uleb128 0x3
 7490 00e8 08       		.uleb128 0x8
 7491 00e9 3A       		.uleb128 0x3a
 7492 00ea 0B       		.uleb128 0xb
 7493 00eb 3B       		.uleb128 0x3b
 7494 00ec 05       		.uleb128 0x5
 7495 00ed 49       		.uleb128 0x49
 7496 00ee 13       		.uleb128 0x13
 7497 00ef 1C       		.uleb128 0x1c
 7498 00f0 0B       		.uleb128 0xb
 7499 00f1 00       		.byte	0
 7500 00f2 00       		.byte	0
 7501 00f3 15       		.uleb128 0x15
 7502 00f4 898201   		.uleb128 0x4109
 7503 00f7 00       		.byte	0
 7504 00f8 11       		.uleb128 0x11
 7505 00f9 01       		.uleb128 0x1
 7506 00fa 9342     		.uleb128 0x2113
 7507 00fc 18       		.uleb128 0x18
 7508 00fd 00       		.byte	0
 7509 00fe 00       		.byte	0
 7510 00ff 16       		.uleb128 0x16
 7511 0100 898201   		.uleb128 0x4109
 7512 0103 00       		.byte	0
 7513 0104 11       		.uleb128 0x11
 7514 0105 01       		.uleb128 0x1
 7515 0106 31       		.uleb128 0x31
 7516 0107 13       		.uleb128 0x13
 7517 0108 00       		.byte	0
 7518 0109 00       		.byte	0
 7519 010a 17       		.uleb128 0x17
 7520 010b 898201   		.uleb128 0x4109
 7521 010e 01       		.byte	0x1
 7522 010f 11       		.uleb128 0x11
 7523 0110 01       		.uleb128 0x1
 7524 0111 31       		.uleb128 0x31
 7525 0112 13       		.uleb128 0x13
 7526 0113 01       		.uleb128 0x1
 7527 0114 13       		.uleb128 0x13
 7528 0115 00       		.byte	0
 7529 0116 00       		.byte	0
 7530 0117 18       		.uleb128 0x18
 7531 0118 8A8201   		.uleb128 0x410a
 7532 011b 00       		.byte	0
 7533 011c 02       		.uleb128 0x2
 7534 011d 18       		.uleb128 0x18
 7535 011e 9142     		.uleb128 0x2111
 7536 0120 18       		.uleb128 0x18
 7537 0121 00       		.byte	0
 7538 0122 00       		.byte	0
ARM GAS  C:\Users\TERENC~1\AppData\Local\Temp\ccVObDgl.s 			page 154


 7539 0123 19       		.uleb128 0x19
 7540 0124 898201   		.uleb128 0x4109
 7541 0127 01       		.byte	0x1
 7542 0128 11       		.uleb128 0x11
 7543 0129 01       		.uleb128 0x1
 7544 012a 31       		.uleb128 0x31
 7545 012b 13       		.uleb128 0x13
 7546 012c 00       		.byte	0
 7547 012d 00       		.byte	0
 7548 012e 1A       		.uleb128 0x1a
 7549 012f 2E       		.uleb128 0x2e
 7550 0130 01       		.byte	0x1
 7551 0131 3F       		.uleb128 0x3f
 7552 0132 19       		.uleb128 0x19
 7553 0133 03       		.uleb128 0x3
 7554 0134 0E       		.uleb128 0xe
 7555 0135 3A       		.uleb128 0x3a
 7556 0136 0B       		.uleb128 0xb
 7557 0137 3B       		.uleb128 0x3b
 7558 0138 0B       		.uleb128 0xb
 7559 0139 27       		.uleb128 0x27
 7560 013a 19       		.uleb128 0x19
 7561 013b 49       		.uleb128 0x49
 7562 013c 13       		.uleb128 0x13
 7563 013d 11       		.uleb128 0x11
 7564 013e 01       		.uleb128 0x1
 7565 013f 12       		.uleb128 0x12
 7566 0140 06       		.uleb128 0x6
 7567 0141 40       		.uleb128 0x40
 7568 0142 18       		.uleb128 0x18
 7569 0143 9742     		.uleb128 0x2117
 7570 0145 19       		.uleb128 0x19
 7571 0146 01       		.uleb128 0x1
 7572 0147 13       		.uleb128 0x13
 7573 0148 00       		.byte	0
 7574 0149 00       		.byte	0
 7575 014a 1B       		.uleb128 0x1b
 7576 014b 05       		.uleb128 0x5
 7577 014c 00       		.byte	0
 7578 014d 03       		.uleb128 0x3
 7579 014e 0E       		.uleb128 0xe
 7580 014f 3A       		.uleb128 0x3a
 7581 0150 0B       		.uleb128 0xb
 7582 0151 3B       		.uleb128 0x3b
 7583 0152 0B       		.uleb128 0xb
 7584 0153 49       		.uleb128 0x49
 7585 0154 13       		.uleb128 0x13
 7586 0155 02       		.uleb128 0x2
 7587 0156 17       		.uleb128 0x17
 7588 0157 00       		.byte	0
 7589 0158 00       		.byte	0
 7590 0159 1C       		.uleb128 0x1c
 7591 015a 34       		.uleb128 0x34
 7592 015b 00       		.byte	0
 7593 015c 03       		.uleb128 0x3
 7594 015d 0E       		.uleb128 0xe
 7595 015e 3A       		.uleb128 0x3a
ARM GAS  C:\Users\TERENC~1\AppData\Local\Temp\ccVObDgl.s 			page 155


 7596 015f 0B       		.uleb128 0xb
 7597 0160 3B       		.uleb128 0x3b
 7598 0161 0B       		.uleb128 0xb
 7599 0162 49       		.uleb128 0x49
 7600 0163 13       		.uleb128 0x13
 7601 0164 02       		.uleb128 0x2
 7602 0165 17       		.uleb128 0x17
 7603 0166 00       		.byte	0
 7604 0167 00       		.byte	0
 7605 0168 1D       		.uleb128 0x1d
 7606 0169 34       		.uleb128 0x34
 7607 016a 00       		.byte	0
 7608 016b 03       		.uleb128 0x3
 7609 016c 08       		.uleb128 0x8
 7610 016d 3A       		.uleb128 0x3a
 7611 016e 0B       		.uleb128 0xb
 7612 016f 3B       		.uleb128 0x3b
 7613 0170 0B       		.uleb128 0xb
 7614 0171 49       		.uleb128 0x49
 7615 0172 13       		.uleb128 0x13
 7616 0173 02       		.uleb128 0x2
 7617 0174 17       		.uleb128 0x17
 7618 0175 00       		.byte	0
 7619 0176 00       		.byte	0
 7620 0177 1E       		.uleb128 0x1e
 7621 0178 34       		.uleb128 0x34
 7622 0179 00       		.byte	0
 7623 017a 03       		.uleb128 0x3
 7624 017b 08       		.uleb128 0x8
 7625 017c 3A       		.uleb128 0x3a
 7626 017d 0B       		.uleb128 0xb
 7627 017e 3B       		.uleb128 0x3b
 7628 017f 05       		.uleb128 0x5
 7629 0180 49       		.uleb128 0x49
 7630 0181 13       		.uleb128 0x13
 7631 0182 02       		.uleb128 0x2
 7632 0183 17       		.uleb128 0x17
 7633 0184 00       		.byte	0
 7634 0185 00       		.byte	0
 7635 0186 1F       		.uleb128 0x1f
 7636 0187 34       		.uleb128 0x34
 7637 0188 00       		.byte	0
 7638 0189 03       		.uleb128 0x3
 7639 018a 0E       		.uleb128 0xe
 7640 018b 3A       		.uleb128 0x3a
 7641 018c 0B       		.uleb128 0xb
 7642 018d 3B       		.uleb128 0x3b
 7643 018e 05       		.uleb128 0x5
 7644 018f 49       		.uleb128 0x49
 7645 0190 13       		.uleb128 0x13
 7646 0191 02       		.uleb128 0x2
 7647 0192 17       		.uleb128 0x17
 7648 0193 00       		.byte	0
 7649 0194 00       		.byte	0
 7650 0195 20       		.uleb128 0x20
 7651 0196 05       		.uleb128 0x5
 7652 0197 00       		.byte	0
ARM GAS  C:\Users\TERENC~1\AppData\Local\Temp\ccVObDgl.s 			page 156


 7653 0198 03       		.uleb128 0x3
 7654 0199 08       		.uleb128 0x8
 7655 019a 3A       		.uleb128 0x3a
 7656 019b 0B       		.uleb128 0xb
 7657 019c 3B       		.uleb128 0x3b
 7658 019d 0B       		.uleb128 0xb
 7659 019e 49       		.uleb128 0x49
 7660 019f 13       		.uleb128 0x13
 7661 01a0 02       		.uleb128 0x2
 7662 01a1 17       		.uleb128 0x17
 7663 01a2 00       		.byte	0
 7664 01a3 00       		.byte	0
 7665 01a4 21       		.uleb128 0x21
 7666 01a5 0B       		.uleb128 0xb
 7667 01a6 01       		.byte	0x1
 7668 01a7 11       		.uleb128 0x11
 7669 01a8 01       		.uleb128 0x1
 7670 01a9 12       		.uleb128 0x12
 7671 01aa 06       		.uleb128 0x6
 7672 01ab 00       		.byte	0
 7673 01ac 00       		.byte	0
 7674 01ad 22       		.uleb128 0x22
 7675 01ae 34       		.uleb128 0x34
 7676 01af 00       		.byte	0
 7677 01b0 03       		.uleb128 0x3
 7678 01b1 08       		.uleb128 0x8
 7679 01b2 3A       		.uleb128 0x3a
 7680 01b3 0B       		.uleb128 0xb
 7681 01b4 3B       		.uleb128 0x3b
 7682 01b5 0B       		.uleb128 0xb
 7683 01b6 49       		.uleb128 0x49
 7684 01b7 13       		.uleb128 0x13
 7685 01b8 02       		.uleb128 0x2
 7686 01b9 18       		.uleb128 0x18
 7687 01ba 00       		.byte	0
 7688 01bb 00       		.byte	0
 7689 01bc 23       		.uleb128 0x23
 7690 01bd 0B       		.uleb128 0xb
 7691 01be 01       		.byte	0x1
 7692 01bf 11       		.uleb128 0x11
 7693 01c0 01       		.uleb128 0x1
 7694 01c1 12       		.uleb128 0x12
 7695 01c2 06       		.uleb128 0x6
 7696 01c3 01       		.uleb128 0x1
 7697 01c4 13       		.uleb128 0x13
 7698 01c5 00       		.byte	0
 7699 01c6 00       		.byte	0
 7700 01c7 24       		.uleb128 0x24
 7701 01c8 2E       		.uleb128 0x2e
 7702 01c9 01       		.byte	0x1
 7703 01ca 03       		.uleb128 0x3
 7704 01cb 0E       		.uleb128 0xe
 7705 01cc 3A       		.uleb128 0x3a
 7706 01cd 0B       		.uleb128 0xb
 7707 01ce 3B       		.uleb128 0x3b
 7708 01cf 05       		.uleb128 0x5
 7709 01d0 27       		.uleb128 0x27
ARM GAS  C:\Users\TERENC~1\AppData\Local\Temp\ccVObDgl.s 			page 157


 7710 01d1 19       		.uleb128 0x19
 7711 01d2 49       		.uleb128 0x49
 7712 01d3 13       		.uleb128 0x13
 7713 01d4 11       		.uleb128 0x11
 7714 01d5 01       		.uleb128 0x1
 7715 01d6 12       		.uleb128 0x12
 7716 01d7 06       		.uleb128 0x6
 7717 01d8 40       		.uleb128 0x40
 7718 01d9 18       		.uleb128 0x18
 7719 01da 9742     		.uleb128 0x2117
 7720 01dc 19       		.uleb128 0x19
 7721 01dd 01       		.uleb128 0x1
 7722 01de 13       		.uleb128 0x13
 7723 01df 00       		.byte	0
 7724 01e0 00       		.byte	0
 7725 01e1 25       		.uleb128 0x25
 7726 01e2 34       		.uleb128 0x34
 7727 01e3 00       		.byte	0
 7728 01e4 03       		.uleb128 0x3
 7729 01e5 0E       		.uleb128 0xe
 7730 01e6 3A       		.uleb128 0x3a
 7731 01e7 0B       		.uleb128 0xb
 7732 01e8 3B       		.uleb128 0x3b
 7733 01e9 05       		.uleb128 0x5
 7734 01ea 49       		.uleb128 0x49
 7735 01eb 13       		.uleb128 0x13
 7736 01ec 02       		.uleb128 0x2
 7737 01ed 18       		.uleb128 0x18
 7738 01ee 00       		.byte	0
 7739 01ef 00       		.byte	0
 7740 01f0 26       		.uleb128 0x26
 7741 01f1 898201   		.uleb128 0x4109
 7742 01f4 01       		.byte	0x1
 7743 01f5 11       		.uleb128 0x11
 7744 01f6 01       		.uleb128 0x1
 7745 01f7 01       		.uleb128 0x1
 7746 01f8 13       		.uleb128 0x13
 7747 01f9 00       		.byte	0
 7748 01fa 00       		.byte	0
 7749 01fb 27       		.uleb128 0x27
 7750 01fc 2E       		.uleb128 0x2e
 7751 01fd 01       		.byte	0x1
 7752 01fe 3F       		.uleb128 0x3f
 7753 01ff 19       		.uleb128 0x19
 7754 0200 03       		.uleb128 0x3
 7755 0201 0E       		.uleb128 0xe
 7756 0202 3A       		.uleb128 0x3a
 7757 0203 0B       		.uleb128 0xb
 7758 0204 3B       		.uleb128 0x3b
 7759 0205 05       		.uleb128 0x5
 7760 0206 27       		.uleb128 0x27
 7761 0207 19       		.uleb128 0x19
 7762 0208 11       		.uleb128 0x11
 7763 0209 01       		.uleb128 0x1
 7764 020a 12       		.uleb128 0x12
 7765 020b 06       		.uleb128 0x6
 7766 020c 40       		.uleb128 0x40
ARM GAS  C:\Users\TERENC~1\AppData\Local\Temp\ccVObDgl.s 			page 158


 7767 020d 18       		.uleb128 0x18
 7768 020e 9742     		.uleb128 0x2117
 7769 0210 19       		.uleb128 0x19
 7770 0211 01       		.uleb128 0x1
 7771 0212 13       		.uleb128 0x13
 7772 0213 00       		.byte	0
 7773 0214 00       		.byte	0
 7774 0215 28       		.uleb128 0x28
 7775 0216 34       		.uleb128 0x34
 7776 0217 00       		.byte	0
 7777 0218 03       		.uleb128 0x3
 7778 0219 0E       		.uleb128 0xe
 7779 021a 3A       		.uleb128 0x3a
 7780 021b 0B       		.uleb128 0xb
 7781 021c 3B       		.uleb128 0x3b
 7782 021d 0B       		.uleb128 0xb
 7783 021e 49       		.uleb128 0x49
 7784 021f 13       		.uleb128 0x13
 7785 0220 02       		.uleb128 0x2
 7786 0221 18       		.uleb128 0x18
 7787 0222 00       		.byte	0
 7788 0223 00       		.byte	0
 7789 0224 29       		.uleb128 0x29
 7790 0225 34       		.uleb128 0x34
 7791 0226 00       		.byte	0
 7792 0227 03       		.uleb128 0x3
 7793 0228 0E       		.uleb128 0xe
 7794 0229 3A       		.uleb128 0x3a
 7795 022a 0B       		.uleb128 0xb
 7796 022b 3B       		.uleb128 0x3b
 7797 022c 0B       		.uleb128 0xb
 7798 022d 49       		.uleb128 0x49
 7799 022e 13       		.uleb128 0x13
 7800 022f 3F       		.uleb128 0x3f
 7801 0230 19       		.uleb128 0x19
 7802 0231 3C       		.uleb128 0x3c
 7803 0232 19       		.uleb128 0x19
 7804 0233 00       		.byte	0
 7805 0234 00       		.byte	0
 7806 0235 2A       		.uleb128 0x2a
 7807 0236 21       		.uleb128 0x21
 7808 0237 00       		.byte	0
 7809 0238 00       		.byte	0
 7810 0239 00       		.byte	0
 7811 023a 2B       		.uleb128 0x2b
 7812 023b 2E       		.uleb128 0x2e
 7813 023c 00       		.byte	0
 7814 023d 3F       		.uleb128 0x3f
 7815 023e 19       		.uleb128 0x19
 7816 023f 3C       		.uleb128 0x3c
 7817 0240 19       		.uleb128 0x19
 7818 0241 6E       		.uleb128 0x6e
 7819 0242 0E       		.uleb128 0xe
 7820 0243 03       		.uleb128 0x3
 7821 0244 0E       		.uleb128 0xe
 7822 0245 3A       		.uleb128 0x3a
 7823 0246 0B       		.uleb128 0xb
ARM GAS  C:\Users\TERENC~1\AppData\Local\Temp\ccVObDgl.s 			page 159


 7824 0247 3B       		.uleb128 0x3b
 7825 0248 05       		.uleb128 0x5
 7826 0249 00       		.byte	0
 7827 024a 00       		.byte	0
 7828 024b 2C       		.uleb128 0x2c
 7829 024c 2E       		.uleb128 0x2e
 7830 024d 00       		.byte	0
 7831 024e 3F       		.uleb128 0x3f
 7832 024f 19       		.uleb128 0x19
 7833 0250 3C       		.uleb128 0x3c
 7834 0251 19       		.uleb128 0x19
 7835 0252 6E       		.uleb128 0x6e
 7836 0253 0E       		.uleb128 0xe
 7837 0254 03       		.uleb128 0x3
 7838 0255 0E       		.uleb128 0xe
 7839 0256 3A       		.uleb128 0x3a
 7840 0257 0B       		.uleb128 0xb
 7841 0258 3B       		.uleb128 0x3b
 7842 0259 0B       		.uleb128 0xb
 7843 025a 00       		.byte	0
 7844 025b 00       		.byte	0
 7845 025c 2D       		.uleb128 0x2d
 7846 025d 2E       		.uleb128 0x2e
 7847 025e 00       		.byte	0
 7848 025f 3F       		.uleb128 0x3f
 7849 0260 19       		.uleb128 0x19
 7850 0261 3C       		.uleb128 0x3c
 7851 0262 19       		.uleb128 0x19
 7852 0263 6E       		.uleb128 0x6e
 7853 0264 0E       		.uleb128 0xe
 7854 0265 03       		.uleb128 0x3
 7855 0266 0E       		.uleb128 0xe
 7856 0267 00       		.byte	0
 7857 0268 00       		.byte	0
 7858 0269 00       		.byte	0
 7859              		.section	.debug_loc,"",%progbits
 7860              	.Ldebug_loc0:
 7861              	.LLST0:
 7862 0000 00000000 		.4byte	.LVL0
 7863 0004 05000000 		.4byte	.LVL2-1
 7864 0008 0100     		.2byte	0x1
 7865 000a 50       		.byte	0x50
 7866 000b 05000000 		.4byte	.LVL2-1
 7867 000f 34000000 		.4byte	.LFE14
 7868 0013 0400     		.2byte	0x4
 7869 0015 F3       		.byte	0xf3
 7870 0016 01       		.uleb128 0x1
 7871 0017 50       		.byte	0x50
 7872 0018 9F       		.byte	0x9f
 7873 0019 00000000 		.4byte	0
 7874 001d 00000000 		.4byte	0
 7875              	.LLST1:
 7876 0021 00000000 		.4byte	.LVL0
 7877 0025 05000000 		.4byte	.LVL2-1
 7878 0029 0100     		.2byte	0x1
 7879 002b 51       		.byte	0x51
 7880 002c 05000000 		.4byte	.LVL2-1
ARM GAS  C:\Users\TERENC~1\AppData\Local\Temp\ccVObDgl.s 			page 160


 7881 0030 34000000 		.4byte	.LFE14
 7882 0034 0400     		.2byte	0x4
 7883 0036 F3       		.byte	0xf3
 7884 0037 01       		.uleb128 0x1
 7885 0038 51       		.byte	0x51
 7886 0039 9F       		.byte	0x9f
 7887 003a 00000000 		.4byte	0
 7888 003e 00000000 		.4byte	0
 7889              	.LLST2:
 7890 0042 00000000 		.4byte	.LVL7
 7891 0046 04000000 		.4byte	.LVL8
 7892 004a 0100     		.2byte	0x1
 7893 004c 50       		.byte	0x50
 7894 004d 04000000 		.4byte	.LVL8
 7895 0051 0B000000 		.4byte	.LVL9-1
 7896 0055 0300     		.2byte	0x3
 7897 0057 70       		.byte	0x70
 7898 0058 7E       		.sleb128 -2
 7899 0059 9F       		.byte	0x9f
 7900 005a 0B000000 		.4byte	.LVL9-1
 7901 005e 30000000 		.4byte	.LVL14
 7902 0062 0600     		.2byte	0x6
 7903 0064 F3       		.byte	0xf3
 7904 0065 01       		.uleb128 0x1
 7905 0066 50       		.byte	0x50
 7906 0067 32       		.byte	0x32
 7907 0068 1C       		.byte	0x1c
 7908 0069 9F       		.byte	0x9f
 7909 006a 30000000 		.4byte	.LVL14
 7910 006e 32000000 		.4byte	.LVL15
 7911 0072 0300     		.2byte	0x3
 7912 0074 70       		.byte	0x70
 7913 0075 7E       		.sleb128 -2
 7914 0076 9F       		.byte	0x9f
 7915 0077 32000000 		.4byte	.LVL15
 7916 007b 74000000 		.4byte	.LFE4
 7917 007f 0600     		.2byte	0x6
 7918 0081 F3       		.byte	0xf3
 7919 0082 01       		.uleb128 0x1
 7920 0083 50       		.byte	0x50
 7921 0084 32       		.byte	0x32
 7922 0085 1C       		.byte	0x1c
 7923 0086 9F       		.byte	0x9f
 7924 0087 00000000 		.4byte	0
 7925 008b 00000000 		.4byte	0
 7926              	.LLST3:
 7927 008f 00000000 		.4byte	.LVL7
 7928 0093 0B000000 		.4byte	.LVL9-1
 7929 0097 0100     		.2byte	0x1
 7930 0099 51       		.byte	0x51
 7931 009a 0B000000 		.4byte	.LVL9-1
 7932 009e 1A000000 		.4byte	.LVL11
 7933 00a2 0100     		.2byte	0x1
 7934 00a4 54       		.byte	0x54
 7935 00a5 1A000000 		.4byte	.LVL11
 7936 00a9 30000000 		.4byte	.LVL14
 7937 00ad 0400     		.2byte	0x4
ARM GAS  C:\Users\TERENC~1\AppData\Local\Temp\ccVObDgl.s 			page 161


 7938 00af F3       		.byte	0xf3
 7939 00b0 01       		.uleb128 0x1
 7940 00b1 51       		.byte	0x51
 7941 00b2 9F       		.byte	0x9f
 7942 00b3 30000000 		.4byte	.LVL14
 7943 00b7 35000000 		.4byte	.LVL16-1
 7944 00bb 0100     		.2byte	0x1
 7945 00bd 51       		.byte	0x51
 7946 00be 35000000 		.4byte	.LVL16-1
 7947 00c2 66000000 		.4byte	.LVL27
 7948 00c6 0100     		.2byte	0x1
 7949 00c8 54       		.byte	0x54
 7950 00c9 66000000 		.4byte	.LVL27
 7951 00cd 74000000 		.4byte	.LFE4
 7952 00d1 0400     		.2byte	0x4
 7953 00d3 F3       		.byte	0xf3
 7954 00d4 01       		.uleb128 0x1
 7955 00d5 51       		.byte	0x51
 7956 00d6 9F       		.byte	0x9f
 7957 00d7 00000000 		.4byte	0
 7958 00db 00000000 		.4byte	0
 7959              	.LLST4:
 7960 00df 38000000 		.4byte	.LVL17
 7961 00e3 3A000000 		.4byte	.LVL18
 7962 00e7 0100     		.2byte	0x1
 7963 00e9 50       		.byte	0x50
 7964 00ea 3A000000 		.4byte	.LVL18
 7965 00ee 48000000 		.4byte	.LVL23
 7966 00f2 0100     		.2byte	0x1
 7967 00f4 56       		.byte	0x56
 7968 00f5 00000000 		.4byte	0
 7969 00f9 00000000 		.4byte	0
 7970              	.LLST5:
 7971 00fd 40000000 		.4byte	.LVL20
 7972 0101 42000000 		.4byte	.LVL21
 7973 0105 0100     		.2byte	0x1
 7974 0107 50       		.byte	0x50
 7975 0108 42000000 		.4byte	.LVL21
 7976 010c 52000000 		.4byte	.LVL24
 7977 0110 0100     		.2byte	0x1
 7978 0112 55       		.byte	0x55
 7979 0113 00000000 		.4byte	0
 7980 0117 00000000 		.4byte	0
 7981              	.LLST6:
 7982 011b 46000000 		.4byte	.LVL22
 7983 011f 5A000000 		.4byte	.LVL25
 7984 0123 0100     		.2byte	0x1
 7985 0125 50       		.byte	0x50
 7986 0126 00000000 		.4byte	0
 7987 012a 00000000 		.4byte	0
 7988              	.LLST7:
 7989 012e 04000000 		.4byte	.LVL8
 7990 0132 30000000 		.4byte	.LVL14
 7991 0136 0200     		.2byte	0x2
 7992 0138 32       		.byte	0x32
 7993 0139 9F       		.byte	0x9f
 7994 013a 30000000 		.4byte	.LVL14
ARM GAS  C:\Users\TERENC~1\AppData\Local\Temp\ccVObDgl.s 			page 162


 7995 013e 38000000 		.4byte	.LVL17
 7996 0142 0200     		.2byte	0x2
 7997 0144 33       		.byte	0x33
 7998 0145 9F       		.byte	0x9f
 7999 0146 38000000 		.4byte	.LVL17
 8000 014a 62000000 		.4byte	.LVL26
 8001 014e 0200     		.2byte	0x2
 8002 0150 34       		.byte	0x34
 8003 0151 9F       		.byte	0x9f
 8004 0152 62000000 		.4byte	.LVL26
 8005 0156 66000000 		.4byte	.LVL27
 8006 015a 0200     		.2byte	0x2
 8007 015c 32       		.byte	0x32
 8008 015d 9F       		.byte	0x9f
 8009 015e 00000000 		.4byte	0
 8010 0162 00000000 		.4byte	0
 8011              	.LLST8:
 8012 0166 00000000 		.4byte	.LVL28
 8013 016a 04000000 		.4byte	.LVL29
 8014 016e 0100     		.2byte	0x1
 8015 0170 50       		.byte	0x50
 8016 0171 04000000 		.4byte	.LVL29
 8017 0175 0B000000 		.4byte	.LVL30-1
 8018 0179 0300     		.2byte	0x3
 8019 017b 70       		.byte	0x70
 8020 017c 7E       		.sleb128 -2
 8021 017d 9F       		.byte	0x9f
 8022 017e 0B000000 		.4byte	.LVL30-1
 8023 0182 30000000 		.4byte	.LVL35
 8024 0186 0600     		.2byte	0x6
 8025 0188 F3       		.byte	0xf3
 8026 0189 01       		.uleb128 0x1
 8027 018a 50       		.byte	0x50
 8028 018b 32       		.byte	0x32
 8029 018c 1C       		.byte	0x1c
 8030 018d 9F       		.byte	0x9f
 8031 018e 30000000 		.4byte	.LVL35
 8032 0192 32000000 		.4byte	.LVL36
 8033 0196 0300     		.2byte	0x3
 8034 0198 70       		.byte	0x70
 8035 0199 7E       		.sleb128 -2
 8036 019a 9F       		.byte	0x9f
 8037 019b 32000000 		.4byte	.LVL36
 8038 019f C4000000 		.4byte	.LFE3
 8039 01a3 0600     		.2byte	0x6
 8040 01a5 F3       		.byte	0xf3
 8041 01a6 01       		.uleb128 0x1
 8042 01a7 50       		.byte	0x50
 8043 01a8 32       		.byte	0x32
 8044 01a9 1C       		.byte	0x1c
 8045 01aa 9F       		.byte	0x9f
 8046 01ab 00000000 		.4byte	0
 8047 01af 00000000 		.4byte	0
 8048              	.LLST9:
 8049 01b3 00000000 		.4byte	.LVL28
 8050 01b7 0B000000 		.4byte	.LVL30-1
 8051 01bb 0100     		.2byte	0x1
ARM GAS  C:\Users\TERENC~1\AppData\Local\Temp\ccVObDgl.s 			page 163


 8052 01bd 51       		.byte	0x51
 8053 01be 0B000000 		.4byte	.LVL30-1
 8054 01c2 1A000000 		.4byte	.LVL32
 8055 01c6 0100     		.2byte	0x1
 8056 01c8 54       		.byte	0x54
 8057 01c9 1A000000 		.4byte	.LVL32
 8058 01cd 30000000 		.4byte	.LVL35
 8059 01d1 0400     		.2byte	0x4
 8060 01d3 F3       		.byte	0xf3
 8061 01d4 01       		.uleb128 0x1
 8062 01d5 51       		.byte	0x51
 8063 01d6 9F       		.byte	0x9f
 8064 01d7 30000000 		.4byte	.LVL35
 8065 01db 35000000 		.4byte	.LVL37-1
 8066 01df 0100     		.2byte	0x1
 8067 01e1 51       		.byte	0x51
 8068 01e2 35000000 		.4byte	.LVL37-1
 8069 01e6 4C000000 		.4byte	.LVL45
 8070 01ea 0100     		.2byte	0x1
 8071 01ec 54       		.byte	0x54
 8072 01ed 4C000000 		.4byte	.LVL45
 8073 01f1 A8000000 		.4byte	.LVL50
 8074 01f5 0400     		.2byte	0x4
 8075 01f7 F3       		.byte	0xf3
 8076 01f8 01       		.uleb128 0x1
 8077 01f9 51       		.byte	0x51
 8078 01fa 9F       		.byte	0x9f
 8079 01fb A8000000 		.4byte	.LVL50
 8080 01ff AE000000 		.4byte	.LVL51
 8081 0203 0100     		.2byte	0x1
 8082 0205 54       		.byte	0x54
 8083 0206 AE000000 		.4byte	.LVL51
 8084 020a C4000000 		.4byte	.LFE3
 8085 020e 0400     		.2byte	0x4
 8086 0210 F3       		.byte	0xf3
 8087 0211 01       		.uleb128 0x1
 8088 0212 51       		.byte	0x51
 8089 0213 9F       		.byte	0x9f
 8090 0214 00000000 		.4byte	0
 8091 0218 00000000 		.4byte	0
 8092              	.LLST10:
 8093 021c 38000000 		.4byte	.LVL38
 8094 0220 3A000000 		.4byte	.LVL39
 8095 0224 0100     		.2byte	0x1
 8096 0226 50       		.byte	0x50
 8097 0227 3A000000 		.4byte	.LVL39
 8098 022b 48000000 		.4byte	.LVL44
 8099 022f 0100     		.2byte	0x1
 8100 0231 56       		.byte	0x56
 8101 0232 00000000 		.4byte	0
 8102 0236 00000000 		.4byte	0
 8103              	.LLST11:
 8104 023a 40000000 		.4byte	.LVL41
 8105 023e 42000000 		.4byte	.LVL42
 8106 0242 0100     		.2byte	0x1
 8107 0244 50       		.byte	0x50
 8108 0245 42000000 		.4byte	.LVL42
ARM GAS  C:\Users\TERENC~1\AppData\Local\Temp\ccVObDgl.s 			page 164


 8109 0249 A8000000 		.4byte	.LVL50
 8110 024d 0100     		.2byte	0x1
 8111 024f 55       		.byte	0x55
 8112 0250 AE000000 		.4byte	.LVL51
 8113 0254 B0000000 		.4byte	.LVL52
 8114 0258 0100     		.2byte	0x1
 8115 025a 55       		.byte	0x55
 8116 025b 00000000 		.4byte	0
 8117 025f 00000000 		.4byte	0
 8118              	.LLST12:
 8119 0263 46000000 		.4byte	.LVL43
 8120 0267 7F000000 		.4byte	.LVL46-1
 8121 026b 0100     		.2byte	0x1
 8122 026d 50       		.byte	0x50
 8123 026e 00000000 		.4byte	0
 8124 0272 00000000 		.4byte	0
 8125              	.LLST13:
 8126 0276 04000000 		.4byte	.LVL29
 8127 027a 30000000 		.4byte	.LVL35
 8128 027e 0200     		.2byte	0x2
 8129 0280 32       		.byte	0x32
 8130 0281 9F       		.byte	0x9f
 8131 0282 30000000 		.4byte	.LVL35
 8132 0286 38000000 		.4byte	.LVL38
 8133 028a 0200     		.2byte	0x2
 8134 028c 33       		.byte	0x33
 8135 028d 9F       		.byte	0x9f
 8136 028e 38000000 		.4byte	.LVL38
 8137 0292 A8000000 		.4byte	.LVL50
 8138 0296 0200     		.2byte	0x2
 8139 0298 34       		.byte	0x34
 8140 0299 9F       		.byte	0x9f
 8141 029a A8000000 		.4byte	.LVL50
 8142 029e AE000000 		.4byte	.LVL51
 8143 02a2 0200     		.2byte	0x2
 8144 02a4 32       		.byte	0x32
 8145 02a5 9F       		.byte	0x9f
 8146 02a6 AE000000 		.4byte	.LVL51
 8147 02aa B0000000 		.4byte	.LVL52
 8148 02ae 0200     		.2byte	0x2
 8149 02b0 34       		.byte	0x34
 8150 02b1 9F       		.byte	0x9f
 8151 02b2 00000000 		.4byte	0
 8152 02b6 00000000 		.4byte	0
 8153              	.LLST14:
 8154 02ba 00000000 		.4byte	.LVL53
 8155 02be 04000000 		.4byte	.LVL54
 8156 02c2 0100     		.2byte	0x1
 8157 02c4 50       		.byte	0x50
 8158 02c5 04000000 		.4byte	.LVL54
 8159 02c9 0B000000 		.4byte	.LVL55-1
 8160 02cd 0300     		.2byte	0x3
 8161 02cf 70       		.byte	0x70
 8162 02d0 7E       		.sleb128 -2
 8163 02d1 9F       		.byte	0x9f
 8164 02d2 0B000000 		.4byte	.LVL55-1
 8165 02d6 30000000 		.4byte	.LVL60
ARM GAS  C:\Users\TERENC~1\AppData\Local\Temp\ccVObDgl.s 			page 165


 8166 02da 0600     		.2byte	0x6
 8167 02dc F3       		.byte	0xf3
 8168 02dd 01       		.uleb128 0x1
 8169 02de 50       		.byte	0x50
 8170 02df 32       		.byte	0x32
 8171 02e0 1C       		.byte	0x1c
 8172 02e1 9F       		.byte	0x9f
 8173 02e2 30000000 		.4byte	.LVL60
 8174 02e6 32000000 		.4byte	.LVL61
 8175 02ea 0300     		.2byte	0x3
 8176 02ec 70       		.byte	0x70
 8177 02ed 7E       		.sleb128 -2
 8178 02ee 9F       		.byte	0x9f
 8179 02ef 32000000 		.4byte	.LVL61
 8180 02f3 8C000000 		.4byte	.LFE5
 8181 02f7 0600     		.2byte	0x6
 8182 02f9 F3       		.byte	0xf3
 8183 02fa 01       		.uleb128 0x1
 8184 02fb 50       		.byte	0x50
 8185 02fc 32       		.byte	0x32
 8186 02fd 1C       		.byte	0x1c
 8187 02fe 9F       		.byte	0x9f
 8188 02ff 00000000 		.4byte	0
 8189 0303 00000000 		.4byte	0
 8190              	.LLST15:
 8191 0307 00000000 		.4byte	.LVL53
 8192 030b 0B000000 		.4byte	.LVL55-1
 8193 030f 0100     		.2byte	0x1
 8194 0311 51       		.byte	0x51
 8195 0312 0B000000 		.4byte	.LVL55-1
 8196 0316 1A000000 		.4byte	.LVL57
 8197 031a 0100     		.2byte	0x1
 8198 031c 54       		.byte	0x54
 8199 031d 1A000000 		.4byte	.LVL57
 8200 0321 30000000 		.4byte	.LVL60
 8201 0325 0400     		.2byte	0x4
 8202 0327 F3       		.byte	0xf3
 8203 0328 01       		.uleb128 0x1
 8204 0329 51       		.byte	0x51
 8205 032a 9F       		.byte	0x9f
 8206 032b 30000000 		.4byte	.LVL60
 8207 032f 35000000 		.4byte	.LVL62-1
 8208 0333 0100     		.2byte	0x1
 8209 0335 51       		.byte	0x51
 8210 0336 35000000 		.4byte	.LVL62-1
 8211 033a 40000000 		.4byte	.LVL66
 8212 033e 0100     		.2byte	0x1
 8213 0340 54       		.byte	0x54
 8214 0341 40000000 		.4byte	.LVL66
 8215 0345 72000000 		.4byte	.LVL73
 8216 0349 0400     		.2byte	0x4
 8217 034b F3       		.byte	0xf3
 8218 034c 01       		.uleb128 0x1
 8219 034d 51       		.byte	0x51
 8220 034e 9F       		.byte	0x9f
 8221 034f 72000000 		.4byte	.LVL73
 8222 0353 78000000 		.4byte	.LVL74
ARM GAS  C:\Users\TERENC~1\AppData\Local\Temp\ccVObDgl.s 			page 166


 8223 0357 0100     		.2byte	0x1
 8224 0359 54       		.byte	0x54
 8225 035a 78000000 		.4byte	.LVL74
 8226 035e 8C000000 		.4byte	.LFE5
 8227 0362 0400     		.2byte	0x4
 8228 0364 F3       		.byte	0xf3
 8229 0365 01       		.uleb128 0x1
 8230 0366 51       		.byte	0x51
 8231 0367 9F       		.byte	0x9f
 8232 0368 00000000 		.4byte	0
 8233 036c 00000000 		.4byte	0
 8234              	.LLST16:
 8235 0370 38000000 		.4byte	.LVL63
 8236 0374 3A000000 		.4byte	.LVL64
 8237 0378 0100     		.2byte	0x1
 8238 037a 50       		.byte	0x50
 8239 037b 3A000000 		.4byte	.LVL64
 8240 037f 52000000 		.4byte	.LVL69
 8241 0383 0100     		.2byte	0x1
 8242 0385 55       		.byte	0x55
 8243 0386 78000000 		.4byte	.LVL74
 8244 038a 7A000000 		.4byte	.LVL75
 8245 038e 0100     		.2byte	0x1
 8246 0390 55       		.byte	0x55
 8247 0391 00000000 		.4byte	0
 8248 0395 00000000 		.4byte	0
 8249              	.LLST17:
 8250 0399 40000000 		.4byte	.LVL66
 8251 039d 43000000 		.4byte	.LVL67-1
 8252 03a1 0100     		.2byte	0x1
 8253 03a3 50       		.byte	0x50
 8254 03a4 43000000 		.4byte	.LVL67-1
 8255 03a8 60000000 		.4byte	.LVL70
 8256 03ac 0100     		.2byte	0x1
 8257 03ae 54       		.byte	0x54
 8258 03af 78000000 		.4byte	.LVL74
 8259 03b3 7A000000 		.4byte	.LVL75
 8260 03b7 0100     		.2byte	0x1
 8261 03b9 54       		.byte	0x54
 8262 03ba 00000000 		.4byte	0
 8263 03be 00000000 		.4byte	0
 8264              	.LLST18:
 8265 03c2 04000000 		.4byte	.LVL54
 8266 03c6 30000000 		.4byte	.LVL60
 8267 03ca 0200     		.2byte	0x2
 8268 03cc 32       		.byte	0x32
 8269 03cd 9F       		.byte	0x9f
 8270 03ce 30000000 		.4byte	.LVL60
 8271 03d2 72000000 		.4byte	.LVL73
 8272 03d6 0200     		.2byte	0x2
 8273 03d8 33       		.byte	0x33
 8274 03d9 9F       		.byte	0x9f
 8275 03da 72000000 		.4byte	.LVL73
 8276 03de 78000000 		.4byte	.LVL74
 8277 03e2 0200     		.2byte	0x2
 8278 03e4 32       		.byte	0x32
 8279 03e5 9F       		.byte	0x9f
ARM GAS  C:\Users\TERENC~1\AppData\Local\Temp\ccVObDgl.s 			page 167


 8280 03e6 78000000 		.4byte	.LVL74
 8281 03ea 7A000000 		.4byte	.LVL75
 8282 03ee 0200     		.2byte	0x2
 8283 03f0 33       		.byte	0x33
 8284 03f1 9F       		.byte	0x9f
 8285 03f2 00000000 		.4byte	0
 8286 03f6 00000000 		.4byte	0
 8287              	.LLST19:
 8288 03fa 00000000 		.4byte	.LVL76
 8289 03fe 05000000 		.4byte	.LVL77-1
 8290 0402 0100     		.2byte	0x1
 8291 0404 50       		.byte	0x50
 8292 0405 05000000 		.4byte	.LVL77-1
 8293 0409 38000000 		.4byte	.LFE15
 8294 040d 0400     		.2byte	0x4
 8295 040f F3       		.byte	0xf3
 8296 0410 01       		.uleb128 0x1
 8297 0411 50       		.byte	0x50
 8298 0412 9F       		.byte	0x9f
 8299 0413 00000000 		.4byte	0
 8300 0417 00000000 		.4byte	0
 8301              	.LLST20:
 8302 041b 00000000 		.4byte	.LVL76
 8303 041f 05000000 		.4byte	.LVL77-1
 8304 0423 0100     		.2byte	0x1
 8305 0425 51       		.byte	0x51
 8306 0426 05000000 		.4byte	.LVL77-1
 8307 042a 38000000 		.4byte	.LFE15
 8308 042e 0400     		.2byte	0x4
 8309 0430 F3       		.byte	0xf3
 8310 0431 01       		.uleb128 0x1
 8311 0432 51       		.byte	0x51
 8312 0433 9F       		.byte	0x9f
 8313 0434 00000000 		.4byte	0
 8314 0438 00000000 		.4byte	0
 8315              	.LLST21:
 8316 043c 00000000 		.4byte	.LVL81
 8317 0440 05000000 		.4byte	.LVL82-1
 8318 0444 0100     		.2byte	0x1
 8319 0446 50       		.byte	0x50
 8320 0447 05000000 		.4byte	.LVL82-1
 8321 044b 3C000000 		.4byte	.LFE17
 8322 044f 0400     		.2byte	0x4
 8323 0451 F3       		.byte	0xf3
 8324 0452 01       		.uleb128 0x1
 8325 0453 50       		.byte	0x50
 8326 0454 9F       		.byte	0x9f
 8327 0455 00000000 		.4byte	0
 8328 0459 00000000 		.4byte	0
 8329              	.LLST22:
 8330 045d 00000000 		.4byte	.LVL81
 8331 0461 05000000 		.4byte	.LVL82-1
 8332 0465 0100     		.2byte	0x1
 8333 0467 51       		.byte	0x51
 8334 0468 05000000 		.4byte	.LVL82-1
 8335 046c 3C000000 		.4byte	.LFE17
 8336 0470 0400     		.2byte	0x4
ARM GAS  C:\Users\TERENC~1\AppData\Local\Temp\ccVObDgl.s 			page 168


 8337 0472 F3       		.byte	0xf3
 8338 0473 01       		.uleb128 0x1
 8339 0474 51       		.byte	0x51
 8340 0475 9F       		.byte	0x9f
 8341 0476 00000000 		.4byte	0
 8342 047a 00000000 		.4byte	0
 8343              	.LLST23:
 8344 047e 00000000 		.4byte	.LVL86
 8345 0482 05000000 		.4byte	.LVL87-1
 8346 0486 0100     		.2byte	0x1
 8347 0488 50       		.byte	0x50
 8348 0489 05000000 		.4byte	.LVL87-1
 8349 048d 8C010000 		.4byte	.LFE20
 8350 0491 0400     		.2byte	0x4
 8351 0493 F3       		.byte	0xf3
 8352 0494 01       		.uleb128 0x1
 8353 0495 50       		.byte	0x50
 8354 0496 9F       		.byte	0x9f
 8355 0497 00000000 		.4byte	0
 8356 049b 00000000 		.4byte	0
 8357              	.LLST24:
 8358 049f 00000000 		.4byte	.LVL86
 8359 04a3 05000000 		.4byte	.LVL87-1
 8360 04a7 0100     		.2byte	0x1
 8361 04a9 51       		.byte	0x51
 8362 04aa 05000000 		.4byte	.LVL87-1
 8363 04ae 8C010000 		.4byte	.LFE20
 8364 04b2 0400     		.2byte	0x4
 8365 04b4 F3       		.byte	0xf3
 8366 04b5 01       		.uleb128 0x1
 8367 04b6 51       		.byte	0x51
 8368 04b7 9F       		.byte	0x9f
 8369 04b8 00000000 		.4byte	0
 8370 04bc 00000000 		.4byte	0
 8371              	.LLST25:
 8372 04c0 00000000 		.4byte	.LVL123
 8373 04c4 02000000 		.4byte	.LVL124
 8374 04c8 0100     		.2byte	0x1
 8375 04ca 50       		.byte	0x50
 8376 04cb 02000000 		.4byte	.LVL124
 8377 04cf 09000000 		.4byte	.LVL125-1
 8378 04d3 0300     		.2byte	0x3
 8379 04d5 70       		.byte	0x70
 8380 04d6 7E       		.sleb128 -2
 8381 04d7 9F       		.byte	0x9f
 8382 04d8 09000000 		.4byte	.LVL125-1
 8383 04dc 2E000000 		.4byte	.LVL129
 8384 04e0 0600     		.2byte	0x6
 8385 04e2 F3       		.byte	0xf3
 8386 04e3 01       		.uleb128 0x1
 8387 04e4 50       		.byte	0x50
 8388 04e5 32       		.byte	0x32
 8389 04e6 1C       		.byte	0x1c
 8390 04e7 9F       		.byte	0x9f
 8391 04e8 2E000000 		.4byte	.LVL129
 8392 04ec 30000000 		.4byte	.LVL130
 8393 04f0 0300     		.2byte	0x3
ARM GAS  C:\Users\TERENC~1\AppData\Local\Temp\ccVObDgl.s 			page 169


 8394 04f2 70       		.byte	0x70
 8395 04f3 7E       		.sleb128 -2
 8396 04f4 9F       		.byte	0x9f
 8397 04f5 30000000 		.4byte	.LVL130
 8398 04f9 AC000000 		.4byte	.LFE6
 8399 04fd 0600     		.2byte	0x6
 8400 04ff F3       		.byte	0xf3
 8401 0500 01       		.uleb128 0x1
 8402 0501 50       		.byte	0x50
 8403 0502 32       		.byte	0x32
 8404 0503 1C       		.byte	0x1c
 8405 0504 9F       		.byte	0x9f
 8406 0505 00000000 		.4byte	0
 8407 0509 00000000 		.4byte	0
 8408              	.LLST26:
 8409 050d 00000000 		.4byte	.LVL123
 8410 0511 09000000 		.4byte	.LVL125-1
 8411 0515 0100     		.2byte	0x1
 8412 0517 51       		.byte	0x51
 8413 0518 09000000 		.4byte	.LVL125-1
 8414 051c 2E000000 		.4byte	.LVL129
 8415 0520 0400     		.2byte	0x4
 8416 0522 F3       		.byte	0xf3
 8417 0523 01       		.uleb128 0x1
 8418 0524 51       		.byte	0x51
 8419 0525 9F       		.byte	0x9f
 8420 0526 2E000000 		.4byte	.LVL129
 8421 052a 33000000 		.4byte	.LVL131-1
 8422 052e 0100     		.2byte	0x1
 8423 0530 51       		.byte	0x51
 8424 0531 33000000 		.4byte	.LVL131-1
 8425 0535 AC000000 		.4byte	.LFE6
 8426 0539 0400     		.2byte	0x4
 8427 053b F3       		.byte	0xf3
 8428 053c 01       		.uleb128 0x1
 8429 053d 51       		.byte	0x51
 8430 053e 9F       		.byte	0x9f
 8431 053f 00000000 		.4byte	0
 8432 0543 00000000 		.4byte	0
 8433              	.LLST27:
 8434 0547 34000000 		.4byte	.LVL131
 8435 054b 36000000 		.4byte	.LVL132
 8436 054f 0100     		.2byte	0x1
 8437 0551 50       		.byte	0x50
 8438 0552 00000000 		.4byte	0
 8439 0556 00000000 		.4byte	0
 8440              	.LLST28:
 8441 055a 02000000 		.4byte	.LVL124
 8442 055e 2E000000 		.4byte	.LVL129
 8443 0562 0200     		.2byte	0x2
 8444 0564 32       		.byte	0x32
 8445 0565 9F       		.byte	0x9f
 8446 0566 2E000000 		.4byte	.LVL129
 8447 056a 8C000000 		.4byte	.LVL144
 8448 056e 0200     		.2byte	0x2
 8449 0570 33       		.byte	0x33
 8450 0571 9F       		.byte	0x9f
ARM GAS  C:\Users\TERENC~1\AppData\Local\Temp\ccVObDgl.s 			page 170


 8451 0572 8C000000 		.4byte	.LVL144
 8452 0576 92000000 		.4byte	.LVL145
 8453 057a 0200     		.2byte	0x2
 8454 057c 32       		.byte	0x32
 8455 057d 9F       		.byte	0x9f
 8456 057e 92000000 		.4byte	.LVL145
 8457 0582 9A000000 		.4byte	.LVL146
 8458 0586 0200     		.2byte	0x2
 8459 0588 33       		.byte	0x33
 8460 0589 9F       		.byte	0x9f
 8461 058a 00000000 		.4byte	0
 8462 058e 00000000 		.4byte	0
 8463              	.LLST29:
 8464 0592 3C000000 		.4byte	.LVL134
 8465 0596 41000000 		.4byte	.LVL135-1
 8466 059a 0100     		.2byte	0x1
 8467 059c 50       		.byte	0x50
 8468 059d 64000000 		.4byte	.LVL139
 8469 05a1 67000000 		.4byte	.LVL140-1
 8470 05a5 0100     		.2byte	0x1
 8471 05a7 50       		.byte	0x50
 8472 05a8 00000000 		.4byte	0
 8473 05ac 00000000 		.4byte	0
 8474              	.LLST30:
 8475 05b0 00000000 		.4byte	.LVL147
 8476 05b4 05000000 		.4byte	.LVL148-1
 8477 05b8 0100     		.2byte	0x1
 8478 05ba 50       		.byte	0x50
 8479 05bb 05000000 		.4byte	.LVL148-1
 8480 05bf 34000000 		.4byte	.LFE7
 8481 05c3 0400     		.2byte	0x4
 8482 05c5 F3       		.byte	0xf3
 8483 05c6 01       		.uleb128 0x1
 8484 05c7 50       		.byte	0x50
 8485 05c8 9F       		.byte	0x9f
 8486 05c9 00000000 		.4byte	0
 8487 05cd 00000000 		.4byte	0
 8488              	.LLST31:
 8489 05d1 00000000 		.4byte	.LVL147
 8490 05d5 05000000 		.4byte	.LVL148-1
 8491 05d9 0100     		.2byte	0x1
 8492 05db 51       		.byte	0x51
 8493 05dc 05000000 		.4byte	.LVL148-1
 8494 05e0 34000000 		.4byte	.LFE7
 8495 05e4 0400     		.2byte	0x4
 8496 05e6 F3       		.byte	0xf3
 8497 05e7 01       		.uleb128 0x1
 8498 05e8 51       		.byte	0x51
 8499 05e9 9F       		.byte	0x9f
 8500 05ea 00000000 		.4byte	0
 8501 05ee 00000000 		.4byte	0
 8502              	.LLST32:
 8503 05f2 00000000 		.4byte	.LVL153
 8504 05f6 04000000 		.4byte	.LVL154
 8505 05fa 0100     		.2byte	0x1
 8506 05fc 50       		.byte	0x50
 8507 05fd 04000000 		.4byte	.LVL154
ARM GAS  C:\Users\TERENC~1\AppData\Local\Temp\ccVObDgl.s 			page 171


 8508 0601 0B000000 		.4byte	.LVL155-1
 8509 0605 0300     		.2byte	0x3
 8510 0607 70       		.byte	0x70
 8511 0608 7E       		.sleb128 -2
 8512 0609 9F       		.byte	0x9f
 8513 060a 0B000000 		.4byte	.LVL155-1
 8514 060e 30000000 		.4byte	.LVL160
 8515 0612 0600     		.2byte	0x6
 8516 0614 F3       		.byte	0xf3
 8517 0615 01       		.uleb128 0x1
 8518 0616 50       		.byte	0x50
 8519 0617 32       		.byte	0x32
 8520 0618 1C       		.byte	0x1c
 8521 0619 9F       		.byte	0x9f
 8522 061a 30000000 		.4byte	.LVL160
 8523 061e 32000000 		.4byte	.LVL161
 8524 0622 0300     		.2byte	0x3
 8525 0624 70       		.byte	0x70
 8526 0625 7E       		.sleb128 -2
 8527 0626 9F       		.byte	0x9f
 8528 0627 32000000 		.4byte	.LVL161
 8529 062b BC000000 		.4byte	.LFE8
 8530 062f 0600     		.2byte	0x6
 8531 0631 F3       		.byte	0xf3
 8532 0632 01       		.uleb128 0x1
 8533 0633 50       		.byte	0x50
 8534 0634 32       		.byte	0x32
 8535 0635 1C       		.byte	0x1c
 8536 0636 9F       		.byte	0x9f
 8537 0637 00000000 		.4byte	0
 8538 063b 00000000 		.4byte	0
 8539              	.LLST33:
 8540 063f 00000000 		.4byte	.LVL153
 8541 0643 0B000000 		.4byte	.LVL155-1
 8542 0647 0100     		.2byte	0x1
 8543 0649 51       		.byte	0x51
 8544 064a 0B000000 		.4byte	.LVL155-1
 8545 064e 1A000000 		.4byte	.LVL157
 8546 0652 0100     		.2byte	0x1
 8547 0654 54       		.byte	0x54
 8548 0655 1A000000 		.4byte	.LVL157
 8549 0659 30000000 		.4byte	.LVL160
 8550 065d 0400     		.2byte	0x4
 8551 065f F3       		.byte	0xf3
 8552 0660 01       		.uleb128 0x1
 8553 0661 51       		.byte	0x51
 8554 0662 9F       		.byte	0x9f
 8555 0663 30000000 		.4byte	.LVL160
 8556 0667 35000000 		.4byte	.LVL162-1
 8557 066b 0100     		.2byte	0x1
 8558 066d 51       		.byte	0x51
 8559 066e 35000000 		.4byte	.LVL162-1
 8560 0672 4C000000 		.4byte	.LVL167
 8561 0676 0100     		.2byte	0x1
 8562 0678 54       		.byte	0x54
 8563 0679 4C000000 		.4byte	.LVL167
 8564 067d 9C000000 		.4byte	.LVL179
ARM GAS  C:\Users\TERENC~1\AppData\Local\Temp\ccVObDgl.s 			page 172


 8565 0681 0400     		.2byte	0x4
 8566 0683 F3       		.byte	0xf3
 8567 0684 01       		.uleb128 0x1
 8568 0685 51       		.byte	0x51
 8569 0686 9F       		.byte	0x9f
 8570 0687 9C000000 		.4byte	.LVL179
 8571 068b A2000000 		.4byte	.LVL180
 8572 068f 0100     		.2byte	0x1
 8573 0691 54       		.byte	0x54
 8574 0692 A2000000 		.4byte	.LVL180
 8575 0696 BC000000 		.4byte	.LFE8
 8576 069a 0400     		.2byte	0x4
 8577 069c F3       		.byte	0xf3
 8578 069d 01       		.uleb128 0x1
 8579 069e 51       		.byte	0x51
 8580 069f 9F       		.byte	0x9f
 8581 06a0 00000000 		.4byte	0
 8582 06a4 00000000 		.4byte	0
 8583              	.LLST34:
 8584 06a8 04000000 		.4byte	.LVL154
 8585 06ac 30000000 		.4byte	.LVL160
 8586 06b0 0200     		.2byte	0x2
 8587 06b2 32       		.byte	0x32
 8588 06b3 9F       		.byte	0x9f
 8589 06b4 30000000 		.4byte	.LVL160
 8590 06b8 38000000 		.4byte	.LVL163
 8591 06bc 0200     		.2byte	0x2
 8592 06be 33       		.byte	0x33
 8593 06bf 9F       		.byte	0x9f
 8594 06c0 38000000 		.4byte	.LVL163
 8595 06c4 9C000000 		.4byte	.LVL179
 8596 06c8 0200     		.2byte	0x2
 8597 06ca 34       		.byte	0x34
 8598 06cb 9F       		.byte	0x9f
 8599 06cc 9C000000 		.4byte	.LVL179
 8600 06d0 A2000000 		.4byte	.LVL180
 8601 06d4 0200     		.2byte	0x2
 8602 06d6 32       		.byte	0x32
 8603 06d7 9F       		.byte	0x9f
 8604 06d8 A2000000 		.4byte	.LVL180
 8605 06dc AA000000 		.4byte	.LVL181
 8606 06e0 0200     		.2byte	0x2
 8607 06e2 34       		.byte	0x34
 8608 06e3 9F       		.byte	0x9f
 8609 06e4 00000000 		.4byte	0
 8610 06e8 00000000 		.4byte	0
 8611              	.LLST35:
 8612 06ec 38000000 		.4byte	.LVL163
 8613 06f0 86000000 		.4byte	.LVL176
 8614 06f4 0100     		.2byte	0x1
 8615 06f6 55       		.byte	0x55
 8616 06f7 A2000000 		.4byte	.LVL180
 8617 06fb AA000000 		.4byte	.LVL181
 8618 06ff 0100     		.2byte	0x1
 8619 0701 55       		.byte	0x55
 8620 0702 00000000 		.4byte	0
 8621 0706 00000000 		.4byte	0
ARM GAS  C:\Users\TERENC~1\AppData\Local\Temp\ccVObDgl.s 			page 173


 8622              	.LLST36:
 8623 070a 44000000 		.4byte	.LVL165
 8624 070e 49000000 		.4byte	.LVL166-1
 8625 0712 0100     		.2byte	0x1
 8626 0714 51       		.byte	0x51
 8627 0715 00000000 		.4byte	0
 8628 0719 00000000 		.4byte	0
 8629              	.LLST37:
 8630 071d 4C000000 		.4byte	.LVL167
 8631 0721 51000000 		.4byte	.LVL168-1
 8632 0725 0100     		.2byte	0x1
 8633 0727 50       		.byte	0x50
 8634 0728 51000000 		.4byte	.LVL168-1
 8635 072c 60000000 		.4byte	.LVL170
 8636 0730 0100     		.2byte	0x1
 8637 0732 54       		.byte	0x54
 8638 0733 74000000 		.4byte	.LVL173
 8639 0737 77000000 		.4byte	.LVL174-1
 8640 073b 0100     		.2byte	0x1
 8641 073d 50       		.byte	0x50
 8642 073e 77000000 		.4byte	.LVL174-1
 8643 0742 9C000000 		.4byte	.LVL179
 8644 0746 0100     		.2byte	0x1
 8645 0748 54       		.byte	0x54
 8646 0749 A2000000 		.4byte	.LVL180
 8647 074d AA000000 		.4byte	.LVL181
 8648 0751 0100     		.2byte	0x1
 8649 0753 54       		.byte	0x54
 8650 0754 00000000 		.4byte	0
 8651 0758 00000000 		.4byte	0
 8652              	.LLST38:
 8653 075c 00000000 		.4byte	.LVL182
 8654 0760 02000000 		.4byte	.LVL183
 8655 0764 0100     		.2byte	0x1
 8656 0766 50       		.byte	0x50
 8657 0767 02000000 		.4byte	.LVL183
 8658 076b 09000000 		.4byte	.LVL184-1
 8659 076f 0300     		.2byte	0x3
 8660 0771 70       		.byte	0x70
 8661 0772 7E       		.sleb128 -2
 8662 0773 9F       		.byte	0x9f
 8663 0774 09000000 		.4byte	.LVL184-1
 8664 0778 2E000000 		.4byte	.LVL188
 8665 077c 0600     		.2byte	0x6
 8666 077e F3       		.byte	0xf3
 8667 077f 01       		.uleb128 0x1
 8668 0780 50       		.byte	0x50
 8669 0781 32       		.byte	0x32
 8670 0782 1C       		.byte	0x1c
 8671 0783 9F       		.byte	0x9f
 8672 0784 2E000000 		.4byte	.LVL188
 8673 0788 30000000 		.4byte	.LVL189
 8674 078c 0300     		.2byte	0x3
 8675 078e 70       		.byte	0x70
 8676 078f 7E       		.sleb128 -2
 8677 0790 9F       		.byte	0x9f
 8678 0791 30000000 		.4byte	.LVL189
ARM GAS  C:\Users\TERENC~1\AppData\Local\Temp\ccVObDgl.s 			page 174


 8679 0795 78000000 		.4byte	.LFE9
 8680 0799 0600     		.2byte	0x6
 8681 079b F3       		.byte	0xf3
 8682 079c 01       		.uleb128 0x1
 8683 079d 50       		.byte	0x50
 8684 079e 32       		.byte	0x32
 8685 079f 1C       		.byte	0x1c
 8686 07a0 9F       		.byte	0x9f
 8687 07a1 00000000 		.4byte	0
 8688 07a5 00000000 		.4byte	0
 8689              	.LLST39:
 8690 07a9 00000000 		.4byte	.LVL182
 8691 07ad 09000000 		.4byte	.LVL184-1
 8692 07b1 0100     		.2byte	0x1
 8693 07b3 51       		.byte	0x51
 8694 07b4 09000000 		.4byte	.LVL184-1
 8695 07b8 2E000000 		.4byte	.LVL188
 8696 07bc 0400     		.2byte	0x4
 8697 07be F3       		.byte	0xf3
 8698 07bf 01       		.uleb128 0x1
 8699 07c0 51       		.byte	0x51
 8700 07c1 9F       		.byte	0x9f
 8701 07c2 2E000000 		.4byte	.LVL188
 8702 07c6 33000000 		.4byte	.LVL190-1
 8703 07ca 0100     		.2byte	0x1
 8704 07cc 51       		.byte	0x51
 8705 07cd 33000000 		.4byte	.LVL190-1
 8706 07d1 78000000 		.4byte	.LFE9
 8707 07d5 0400     		.2byte	0x4
 8708 07d7 F3       		.byte	0xf3
 8709 07d8 01       		.uleb128 0x1
 8710 07d9 51       		.byte	0x51
 8711 07da 9F       		.byte	0x9f
 8712 07db 00000000 		.4byte	0
 8713 07df 00000000 		.4byte	0
 8714              	.LLST40:
 8715 07e3 02000000 		.4byte	.LVL183
 8716 07e7 2E000000 		.4byte	.LVL188
 8717 07eb 0200     		.2byte	0x2
 8718 07ed 32       		.byte	0x32
 8719 07ee 9F       		.byte	0x9f
 8720 07ef 2E000000 		.4byte	.LVL188
 8721 07f3 62000000 		.4byte	.LVL198
 8722 07f7 0200     		.2byte	0x2
 8723 07f9 33       		.byte	0x33
 8724 07fa 9F       		.byte	0x9f
 8725 07fb 62000000 		.4byte	.LVL198
 8726 07ff 68000000 		.4byte	.LVL199
 8727 0803 0200     		.2byte	0x2
 8728 0805 32       		.byte	0x32
 8729 0806 9F       		.byte	0x9f
 8730 0807 68000000 		.4byte	.LVL199
 8731 080b 6A000000 		.4byte	.LVL200
 8732 080f 0200     		.2byte	0x2
 8733 0811 33       		.byte	0x33
 8734 0812 9F       		.byte	0x9f
 8735 0813 00000000 		.4byte	0
ARM GAS  C:\Users\TERENC~1\AppData\Local\Temp\ccVObDgl.s 			page 175


 8736 0817 00000000 		.4byte	0
 8737              	.LLST41:
 8738 081b 36000000 		.4byte	.LVL191
 8739 081f 50000000 		.4byte	.LVL195
 8740 0823 0100     		.2byte	0x1
 8741 0825 54       		.byte	0x54
 8742 0826 68000000 		.4byte	.LVL199
 8743 082a 6A000000 		.4byte	.LVL200
 8744 082e 0100     		.2byte	0x1
 8745 0830 54       		.byte	0x54
 8746 0831 00000000 		.4byte	0
 8747 0835 00000000 		.4byte	0
 8748              	.LLST42:
 8749 0839 00000000 		.4byte	.LVL201
 8750 083d 05000000 		.4byte	.LVL202-1
 8751 0841 0100     		.2byte	0x1
 8752 0843 50       		.byte	0x50
 8753 0844 05000000 		.4byte	.LVL202-1
 8754 0848 34000000 		.4byte	.LFE10
 8755 084c 0400     		.2byte	0x4
 8756 084e F3       		.byte	0xf3
 8757 084f 01       		.uleb128 0x1
 8758 0850 50       		.byte	0x50
 8759 0851 9F       		.byte	0x9f
 8760 0852 00000000 		.4byte	0
 8761 0856 00000000 		.4byte	0
 8762              	.LLST43:
 8763 085a 00000000 		.4byte	.LVL201
 8764 085e 05000000 		.4byte	.LVL202-1
 8765 0862 0100     		.2byte	0x1
 8766 0864 51       		.byte	0x51
 8767 0865 05000000 		.4byte	.LVL202-1
 8768 0869 34000000 		.4byte	.LFE10
 8769 086d 0400     		.2byte	0x4
 8770 086f F3       		.byte	0xf3
 8771 0870 01       		.uleb128 0x1
 8772 0871 51       		.byte	0x51
 8773 0872 9F       		.byte	0x9f
 8774 0873 00000000 		.4byte	0
 8775 0877 00000000 		.4byte	0
 8776              	.LLST44:
 8777 087b 00000000 		.4byte	.LVL207
 8778 087f 05000000 		.4byte	.LVL208-1
 8779 0883 0100     		.2byte	0x1
 8780 0885 50       		.byte	0x50
 8781 0886 05000000 		.4byte	.LVL208-1
 8782 088a 34000000 		.4byte	.LFE11
 8783 088e 0400     		.2byte	0x4
 8784 0890 F3       		.byte	0xf3
 8785 0891 01       		.uleb128 0x1
 8786 0892 50       		.byte	0x50
 8787 0893 9F       		.byte	0x9f
 8788 0894 00000000 		.4byte	0
 8789 0898 00000000 		.4byte	0
 8790              	.LLST45:
 8791 089c 00000000 		.4byte	.LVL207
 8792 08a0 05000000 		.4byte	.LVL208-1
ARM GAS  C:\Users\TERENC~1\AppData\Local\Temp\ccVObDgl.s 			page 176


 8793 08a4 0100     		.2byte	0x1
 8794 08a6 51       		.byte	0x51
 8795 08a7 05000000 		.4byte	.LVL208-1
 8796 08ab 34000000 		.4byte	.LFE11
 8797 08af 0400     		.2byte	0x4
 8798 08b1 F3       		.byte	0xf3
 8799 08b2 01       		.uleb128 0x1
 8800 08b3 51       		.byte	0x51
 8801 08b4 9F       		.byte	0x9f
 8802 08b5 00000000 		.4byte	0
 8803 08b9 00000000 		.4byte	0
 8804              	.LLST46:
 8805 08bd 00000000 		.4byte	.LVL213
 8806 08c1 05000000 		.4byte	.LVL214-1
 8807 08c5 0100     		.2byte	0x1
 8808 08c7 50       		.byte	0x50
 8809 08c8 05000000 		.4byte	.LVL214-1
 8810 08cc 34000000 		.4byte	.LFE12
 8811 08d0 0400     		.2byte	0x4
 8812 08d2 F3       		.byte	0xf3
 8813 08d3 01       		.uleb128 0x1
 8814 08d4 50       		.byte	0x50
 8815 08d5 9F       		.byte	0x9f
 8816 08d6 00000000 		.4byte	0
 8817 08da 00000000 		.4byte	0
 8818              	.LLST47:
 8819 08de 00000000 		.4byte	.LVL213
 8820 08e2 05000000 		.4byte	.LVL214-1
 8821 08e6 0100     		.2byte	0x1
 8822 08e8 51       		.byte	0x51
 8823 08e9 05000000 		.4byte	.LVL214-1
 8824 08ed 34000000 		.4byte	.LFE12
 8825 08f1 0400     		.2byte	0x4
 8826 08f3 F3       		.byte	0xf3
 8827 08f4 01       		.uleb128 0x1
 8828 08f5 51       		.byte	0x51
 8829 08f6 9F       		.byte	0x9f
 8830 08f7 00000000 		.4byte	0
 8831 08fb 00000000 		.4byte	0
 8832              	.LLST48:
 8833 08ff 00000000 		.4byte	.LVL219
 8834 0903 05000000 		.4byte	.LVL220-1
 8835 0907 0100     		.2byte	0x1
 8836 0909 50       		.byte	0x50
 8837 090a 05000000 		.4byte	.LVL220-1
 8838 090e 34000000 		.4byte	.LFE13
 8839 0912 0400     		.2byte	0x4
 8840 0914 F3       		.byte	0xf3
 8841 0915 01       		.uleb128 0x1
 8842 0916 50       		.byte	0x50
 8843 0917 9F       		.byte	0x9f
 8844 0918 00000000 		.4byte	0
 8845 091c 00000000 		.4byte	0
 8846              	.LLST49:
 8847 0920 00000000 		.4byte	.LVL219
 8848 0924 05000000 		.4byte	.LVL220-1
 8849 0928 0100     		.2byte	0x1
ARM GAS  C:\Users\TERENC~1\AppData\Local\Temp\ccVObDgl.s 			page 177


 8850 092a 51       		.byte	0x51
 8851 092b 05000000 		.4byte	.LVL220-1
 8852 092f 34000000 		.4byte	.LFE13
 8853 0933 0400     		.2byte	0x4
 8854 0935 F3       		.byte	0xf3
 8855 0936 01       		.uleb128 0x1
 8856 0937 51       		.byte	0x51
 8857 0938 9F       		.byte	0x9f
 8858 0939 00000000 		.4byte	0
 8859 093d 00000000 		.4byte	0
 8860              	.LLST50:
 8861 0941 00000000 		.4byte	.LVL225
 8862 0945 05000000 		.4byte	.LVL226-1
 8863 0949 0100     		.2byte	0x1
 8864 094b 50       		.byte	0x50
 8865 094c 05000000 		.4byte	.LVL226-1
 8866 0950 0A000000 		.4byte	.LFE16
 8867 0954 0400     		.2byte	0x4
 8868 0956 F3       		.byte	0xf3
 8869 0957 01       		.uleb128 0x1
 8870 0958 50       		.byte	0x50
 8871 0959 9F       		.byte	0x9f
 8872 095a 00000000 		.4byte	0
 8873 095e 00000000 		.4byte	0
 8874              	.LLST51:
 8875 0962 00000000 		.4byte	.LVL225
 8876 0966 05000000 		.4byte	.LVL226-1
 8877 096a 0100     		.2byte	0x1
 8878 096c 51       		.byte	0x51
 8879 096d 05000000 		.4byte	.LVL226-1
 8880 0971 0A000000 		.4byte	.LFE16
 8881 0975 0400     		.2byte	0x4
 8882 0977 F3       		.byte	0xf3
 8883 0978 01       		.uleb128 0x1
 8884 0979 51       		.byte	0x51
 8885 097a 9F       		.byte	0x9f
 8886 097b 00000000 		.4byte	0
 8887 097f 00000000 		.4byte	0
 8888              	.LLST52:
 8889 0983 00000000 		.4byte	.LVL227
 8890 0987 05000000 		.4byte	.LVL228-1
 8891 098b 0100     		.2byte	0x1
 8892 098d 50       		.byte	0x50
 8893 098e 05000000 		.4byte	.LVL228-1
 8894 0992 34000000 		.4byte	.LFE22
 8895 0996 0400     		.2byte	0x4
 8896 0998 F3       		.byte	0xf3
 8897 0999 01       		.uleb128 0x1
 8898 099a 50       		.byte	0x50
 8899 099b 9F       		.byte	0x9f
 8900 099c 00000000 		.4byte	0
 8901 09a0 00000000 		.4byte	0
 8902              	.LLST53:
 8903 09a4 00000000 		.4byte	.LVL227
 8904 09a8 05000000 		.4byte	.LVL228-1
 8905 09ac 0100     		.2byte	0x1
 8906 09ae 51       		.byte	0x51
ARM GAS  C:\Users\TERENC~1\AppData\Local\Temp\ccVObDgl.s 			page 178


 8907 09af 05000000 		.4byte	.LVL228-1
 8908 09b3 34000000 		.4byte	.LFE22
 8909 09b7 0400     		.2byte	0x4
 8910 09b9 F3       		.byte	0xf3
 8911 09ba 01       		.uleb128 0x1
 8912 09bb 51       		.byte	0x51
 8913 09bc 9F       		.byte	0x9f
 8914 09bd 00000000 		.4byte	0
 8915 09c1 00000000 		.4byte	0
 8916              	.LLST54:
 8917 09c5 00000000 		.4byte	.LVL233
 8918 09c9 04000000 		.4byte	.LVL234
 8919 09cd 0100     		.2byte	0x1
 8920 09cf 50       		.byte	0x50
 8921 09d0 04000000 		.4byte	.LVL234
 8922 09d4 40000000 		.4byte	.LFE23
 8923 09d8 0400     		.2byte	0x4
 8924 09da F3       		.byte	0xf3
 8925 09db 01       		.uleb128 0x1
 8926 09dc 50       		.byte	0x50
 8927 09dd 9F       		.byte	0x9f
 8928 09de 00000000 		.4byte	0
 8929 09e2 00000000 		.4byte	0
 8930              	.LLST55:
 8931 09e6 00000000 		.4byte	.LVL233
 8932 09ea 08000000 		.4byte	.LVL235
 8933 09ee 0100     		.2byte	0x1
 8934 09f0 51       		.byte	0x51
 8935 09f1 08000000 		.4byte	.LVL235
 8936 09f5 40000000 		.4byte	.LFE23
 8937 09f9 0400     		.2byte	0x4
 8938 09fb F3       		.byte	0xf3
 8939 09fc 01       		.uleb128 0x1
 8940 09fd 51       		.byte	0x51
 8941 09fe 9F       		.byte	0x9f
 8942 09ff 00000000 		.4byte	0
 8943 0a03 00000000 		.4byte	0
 8944              	.LLST56:
 8945 0a07 00000000 		.4byte	.LVL242
 8946 0a0b 05000000 		.4byte	.LVL243-1
 8947 0a0f 0100     		.2byte	0x1
 8948 0a11 50       		.byte	0x50
 8949 0a12 05000000 		.4byte	.LVL243-1
 8950 0a16 34000000 		.4byte	.LFE24
 8951 0a1a 0400     		.2byte	0x4
 8952 0a1c F3       		.byte	0xf3
 8953 0a1d 01       		.uleb128 0x1
 8954 0a1e 50       		.byte	0x50
 8955 0a1f 9F       		.byte	0x9f
 8956 0a20 00000000 		.4byte	0
 8957 0a24 00000000 		.4byte	0
 8958              	.LLST57:
 8959 0a28 00000000 		.4byte	.LVL242
 8960 0a2c 05000000 		.4byte	.LVL243-1
 8961 0a30 0100     		.2byte	0x1
 8962 0a32 51       		.byte	0x51
 8963 0a33 05000000 		.4byte	.LVL243-1
ARM GAS  C:\Users\TERENC~1\AppData\Local\Temp\ccVObDgl.s 			page 179


 8964 0a37 34000000 		.4byte	.LFE24
 8965 0a3b 0400     		.2byte	0x4
 8966 0a3d F3       		.byte	0xf3
 8967 0a3e 01       		.uleb128 0x1
 8968 0a3f 51       		.byte	0x51
 8969 0a40 9F       		.byte	0x9f
 8970 0a41 00000000 		.4byte	0
 8971 0a45 00000000 		.4byte	0
 8972              	.LLST58:
 8973 0a49 00000000 		.4byte	.LVL248
 8974 0a4d 36000000 		.4byte	.LVL253
 8975 0a51 0100     		.2byte	0x1
 8976 0a53 50       		.byte	0x50
 8977 0a54 36000000 		.4byte	.LVL253
 8978 0a58 3C000000 		.4byte	.LVL256
 8979 0a5c 0100     		.2byte	0x1
 8980 0a5e 50       		.byte	0x50
 8981 0a5f 00000000 		.4byte	0
 8982 0a63 00000000 		.4byte	0
 8983              	.LLST59:
 8984 0a67 00000000 		.4byte	.LVL248
 8985 0a6b 38000000 		.4byte	.LVL254
 8986 0a6f 0100     		.2byte	0x1
 8987 0a71 51       		.byte	0x51
 8988 0a72 38000000 		.4byte	.LVL254
 8989 0a76 44000000 		.4byte	.LFE2
 8990 0a7a 0100     		.2byte	0x1
 8991 0a7c 51       		.byte	0x51
 8992 0a7d 00000000 		.4byte	0
 8993 0a81 00000000 		.4byte	0
 8994              	.LLST60:
 8995 0a85 04000000 		.4byte	.LVL249
 8996 0a89 3C000000 		.4byte	.LVL257
 8997 0a8d 0100     		.2byte	0x1
 8998 0a8f 55       		.byte	0x55
 8999 0a90 00000000 		.4byte	0
 9000 0a94 00000000 		.4byte	0
 9001              	.LLST61:
 9002 0a98 1E000000 		.4byte	.LVL250
 9003 0a9c 2C000000 		.4byte	.LVL251
 9004 0aa0 0100     		.2byte	0x1
 9005 0aa2 53       		.byte	0x53
 9006 0aa3 2C000000 		.4byte	.LVL251
 9007 0aa7 38000000 		.4byte	.LVL254
 9008 0aab 0200     		.2byte	0x2
 9009 0aad 71       		.byte	0x71
 9010 0aae 00       		.sleb128 0
 9011 0aaf 38000000 		.4byte	.LVL254
 9012 0ab3 3A000000 		.4byte	.LVL255
 9013 0ab7 0200     		.2byte	0x2
 9014 0ab9 71       		.byte	0x71
 9015 0aba 7F       		.sleb128 -1
 9016 0abb 3A000000 		.4byte	.LVL255
 9017 0abf 44000000 		.4byte	.LFE2
 9018 0ac3 0200     		.2byte	0x2
 9019 0ac5 71       		.byte	0x71
 9020 0ac6 00       		.sleb128 0
ARM GAS  C:\Users\TERENC~1\AppData\Local\Temp\ccVObDgl.s 			page 180


 9021 0ac7 00000000 		.4byte	0
 9022 0acb 00000000 		.4byte	0
 9023              	.LLST62:
 9024 0acf 00000000 		.4byte	.LVL258
 9025 0ad3 06000000 		.4byte	.LVL260
 9026 0ad7 0100     		.2byte	0x1
 9027 0ad9 50       		.byte	0x50
 9028 0ada 06000000 		.4byte	.LVL260
 9029 0ade 34000000 		.4byte	.LVL267
 9030 0ae2 0100     		.2byte	0x1
 9031 0ae4 54       		.byte	0x54
 9032 0ae5 34000000 		.4byte	.LVL267
 9033 0ae9 38000000 		.4byte	.LVL269
 9034 0aed 0300     		.2byte	0x3
 9035 0aef 70       		.byte	0x70
 9036 0af0 7E       		.sleb128 -2
 9037 0af1 9F       		.byte	0x9f
 9038 0af2 38000000 		.4byte	.LVL269
 9039 0af6 D2000000 		.4byte	.LVL293
 9040 0afa 0600     		.2byte	0x6
 9041 0afc F3       		.byte	0xf3
 9042 0afd 01       		.uleb128 0x1
 9043 0afe 50       		.byte	0x50
 9044 0aff 32       		.byte	0x32
 9045 0b00 1C       		.byte	0x1c
 9046 0b01 9F       		.byte	0x9f
 9047 0b02 D2000000 		.4byte	.LVL293
 9048 0b06 D8000000 		.4byte	.LVL294
 9049 0b0a 0100     		.2byte	0x1
 9050 0b0c 54       		.byte	0x54
 9051 0b0d D8000000 		.4byte	.LVL294
 9052 0b11 00010000 		.4byte	.LFE18
 9053 0b15 0600     		.2byte	0x6
 9054 0b17 F3       		.byte	0xf3
 9055 0b18 01       		.uleb128 0x1
 9056 0b19 50       		.byte	0x50
 9057 0b1a 32       		.byte	0x32
 9058 0b1b 1C       		.byte	0x1c
 9059 0b1c 9F       		.byte	0x9f
 9060 0b1d 00000000 		.4byte	0
 9061 0b21 00000000 		.4byte	0
 9062              	.LLST63:
 9063 0b25 00000000 		.4byte	.LVL258
 9064 0b29 0D000000 		.4byte	.LVL261-1
 9065 0b2d 0100     		.2byte	0x1
 9066 0b2f 51       		.byte	0x51
 9067 0b30 0D000000 		.4byte	.LVL261-1
 9068 0b34 1C000000 		.4byte	.LVL263
 9069 0b38 0100     		.2byte	0x1
 9070 0b3a 55       		.byte	0x55
 9071 0b3b 1C000000 		.4byte	.LVL263
 9072 0b3f 32000000 		.4byte	.LVL266
 9073 0b43 0400     		.2byte	0x4
 9074 0b45 F3       		.byte	0xf3
 9075 0b46 01       		.uleb128 0x1
 9076 0b47 51       		.byte	0x51
 9077 0b48 9F       		.byte	0x9f
ARM GAS  C:\Users\TERENC~1\AppData\Local\Temp\ccVObDgl.s 			page 181


 9078 0b49 32000000 		.4byte	.LVL266
 9079 0b4d 36000000 		.4byte	.LVL268
 9080 0b51 0100     		.2byte	0x1
 9081 0b53 51       		.byte	0x51
 9082 0b54 36000000 		.4byte	.LVL268
 9083 0b58 E0000000 		.4byte	.LVL296
 9084 0b5c 0100     		.2byte	0x1
 9085 0b5e 55       		.byte	0x55
 9086 0b5f E0000000 		.4byte	.LVL296
 9087 0b63 00010000 		.4byte	.LFE18
 9088 0b67 0400     		.2byte	0x4
 9089 0b69 F3       		.byte	0xf3
 9090 0b6a 01       		.uleb128 0x1
 9091 0b6b 51       		.byte	0x51
 9092 0b6c 9F       		.byte	0x9f
 9093 0b6d 00000000 		.4byte	0
 9094 0b71 00000000 		.4byte	0
 9095              	.LLST64:
 9096 0b75 04000000 		.4byte	.LVL259
 9097 0b79 8A000000 		.4byte	.LVL277
 9098 0b7d 0200     		.2byte	0x2
 9099 0b7f 33       		.byte	0x33
 9100 0b80 9F       		.byte	0x9f
 9101 0b81 8A000000 		.4byte	.LVL277
 9102 0b85 D2000000 		.4byte	.LVL293
 9103 0b89 0100     		.2byte	0x1
 9104 0b8b 57       		.byte	0x57
 9105 0b8c D2000000 		.4byte	.LVL293
 9106 0b90 DE000000 		.4byte	.LVL295
 9107 0b94 0200     		.2byte	0x2
 9108 0b96 33       		.byte	0x33
 9109 0b97 9F       		.byte	0x9f
 9110 0b98 DE000000 		.4byte	.LVL295
 9111 0b9c E0000000 		.4byte	.LVL296
 9112 0ba0 0100     		.2byte	0x1
 9113 0ba2 57       		.byte	0x57
 9114 0ba3 00000000 		.4byte	0
 9115 0ba7 00000000 		.4byte	0
 9116              	.LLST65:
 9117 0bab 92000000 		.4byte	.LVL279
 9118 0baf 94000000 		.4byte	.LVL280
 9119 0bb3 0100     		.2byte	0x1
 9120 0bb5 50       		.byte	0x50
 9121 0bb6 94000000 		.4byte	.LVL280
 9122 0bba BE000000 		.4byte	.LVL290
 9123 0bbe 0100     		.2byte	0x1
 9124 0bc0 54       		.byte	0x54
 9125 0bc1 DE000000 		.4byte	.LVL295
 9126 0bc5 E0000000 		.4byte	.LVL296
 9127 0bc9 0100     		.2byte	0x1
 9128 0bcb 54       		.byte	0x54
 9129 0bcc 00000000 		.4byte	0
 9130 0bd0 00000000 		.4byte	0
 9131              	.LLST66:
 9132 0bd4 9A000000 		.4byte	.LVL282
 9133 0bd8 9C000000 		.4byte	.LVL283
 9134 0bdc 0100     		.2byte	0x1
ARM GAS  C:\Users\TERENC~1\AppData\Local\Temp\ccVObDgl.s 			page 182


 9135 0bde 50       		.byte	0x50
 9136 0bdf 9C000000 		.4byte	.LVL283
 9137 0be3 D2000000 		.4byte	.LVL293
 9138 0be7 0100     		.2byte	0x1
 9139 0be9 56       		.byte	0x56
 9140 0bea DE000000 		.4byte	.LVL295
 9141 0bee E0000000 		.4byte	.LVL296
 9142 0bf2 0100     		.2byte	0x1
 9143 0bf4 56       		.byte	0x56
 9144 0bf5 00000000 		.4byte	0
 9145 0bf9 00000000 		.4byte	0
 9146              	.LLST67:
 9147 0bfd A2000000 		.4byte	.LVL285
 9148 0c01 A8000000 		.4byte	.LVL286
 9149 0c05 0100     		.2byte	0x1
 9150 0c07 50       		.byte	0x50
 9151 0c08 A8000000 		.4byte	.LVL286
 9152 0c0c AB000000 		.4byte	.LVL287-1
 9153 0c10 0100     		.2byte	0x1
 9154 0c12 53       		.byte	0x53
 9155 0c13 00000000 		.4byte	0
 9156 0c17 00000000 		.4byte	0
 9157              	.LLST68:
 9158 0c1b 00000000 		.4byte	.LVL297
 9159 0c1f 06000000 		.4byte	.LVL299
 9160 0c23 0100     		.2byte	0x1
 9161 0c25 50       		.byte	0x50
 9162 0c26 06000000 		.4byte	.LVL299
 9163 0c2a 34000000 		.4byte	.LVL306
 9164 0c2e 0100     		.2byte	0x1
 9165 0c30 54       		.byte	0x54
 9166 0c31 34000000 		.4byte	.LVL306
 9167 0c35 38000000 		.4byte	.LVL308
 9168 0c39 0300     		.2byte	0x3
 9169 0c3b 70       		.byte	0x70
 9170 0c3c 7E       		.sleb128 -2
 9171 0c3d 9F       		.byte	0x9f
 9172 0c3e 38000000 		.4byte	.LVL308
 9173 0c42 B4000000 		.4byte	.LVL322
 9174 0c46 0600     		.2byte	0x6
 9175 0c48 F3       		.byte	0xf3
 9176 0c49 01       		.uleb128 0x1
 9177 0c4a 50       		.byte	0x50
 9178 0c4b 32       		.byte	0x32
 9179 0c4c 1C       		.byte	0x1c
 9180 0c4d 9F       		.byte	0x9f
 9181 0c4e B4000000 		.4byte	.LVL322
 9182 0c52 BA000000 		.4byte	.LVL323
 9183 0c56 0100     		.2byte	0x1
 9184 0c58 54       		.byte	0x54
 9185 0c59 BA000000 		.4byte	.LVL323
 9186 0c5d E0000000 		.4byte	.LFE19
 9187 0c61 0600     		.2byte	0x6
 9188 0c63 F3       		.byte	0xf3
 9189 0c64 01       		.uleb128 0x1
 9190 0c65 50       		.byte	0x50
 9191 0c66 32       		.byte	0x32
ARM GAS  C:\Users\TERENC~1\AppData\Local\Temp\ccVObDgl.s 			page 183


 9192 0c67 1C       		.byte	0x1c
 9193 0c68 9F       		.byte	0x9f
 9194 0c69 00000000 		.4byte	0
 9195 0c6d 00000000 		.4byte	0
 9196              	.LLST69:
 9197 0c71 00000000 		.4byte	.LVL297
 9198 0c75 0D000000 		.4byte	.LVL300-1
 9199 0c79 0100     		.2byte	0x1
 9200 0c7b 51       		.byte	0x51
 9201 0c7c 0D000000 		.4byte	.LVL300-1
 9202 0c80 1C000000 		.4byte	.LVL302
 9203 0c84 0100     		.2byte	0x1
 9204 0c86 55       		.byte	0x55
 9205 0c87 1C000000 		.4byte	.LVL302
 9206 0c8b 32000000 		.4byte	.LVL305
 9207 0c8f 0400     		.2byte	0x4
 9208 0c91 F3       		.byte	0xf3
 9209 0c92 01       		.uleb128 0x1
 9210 0c93 51       		.byte	0x51
 9211 0c94 9F       		.byte	0x9f
 9212 0c95 32000000 		.4byte	.LVL305
 9213 0c99 36000000 		.4byte	.LVL307
 9214 0c9d 0100     		.2byte	0x1
 9215 0c9f 51       		.byte	0x51
 9216 0ca0 36000000 		.4byte	.LVL307
 9217 0ca4 C2000000 		.4byte	.LVL325
 9218 0ca8 0100     		.2byte	0x1
 9219 0caa 55       		.byte	0x55
 9220 0cab C2000000 		.4byte	.LVL325
 9221 0caf E0000000 		.4byte	.LFE19
 9222 0cb3 0400     		.2byte	0x4
 9223 0cb5 F3       		.byte	0xf3
 9224 0cb6 01       		.uleb128 0x1
 9225 0cb7 51       		.byte	0x51
 9226 0cb8 9F       		.byte	0x9f
 9227 0cb9 00000000 		.4byte	0
 9228 0cbd 00000000 		.4byte	0
 9229              	.LLST70:
 9230 0cc1 04000000 		.4byte	.LVL298
 9231 0cc5 8A000000 		.4byte	.LVL316
 9232 0cc9 0200     		.2byte	0x2
 9233 0ccb 33       		.byte	0x33
 9234 0ccc 9F       		.byte	0x9f
 9235 0ccd 8A000000 		.4byte	.LVL316
 9236 0cd1 8D000000 		.4byte	.LVL317-1
 9237 0cd5 0100     		.2byte	0x1
 9238 0cd7 50       		.byte	0x50
 9239 0cd8 B4000000 		.4byte	.LVL322
 9240 0cdc C0000000 		.4byte	.LVL324
 9241 0ce0 0200     		.2byte	0x2
 9242 0ce2 33       		.byte	0x33
 9243 0ce3 9F       		.byte	0x9f
 9244 0ce4 00000000 		.4byte	0
 9245 0ce8 00000000 		.4byte	0
 9246              	.LLST71:
 9247 0cec 00000000 		.4byte	.LVL326
 9248 0cf0 04000000 		.4byte	.LVL327
ARM GAS  C:\Users\TERENC~1\AppData\Local\Temp\ccVObDgl.s 			page 184


 9249 0cf4 0100     		.2byte	0x1
 9250 0cf6 50       		.byte	0x50
 9251 0cf7 04000000 		.4byte	.LVL327
 9252 0cfb 0B000000 		.4byte	.LVL328-1
 9253 0cff 0300     		.2byte	0x3
 9254 0d01 70       		.byte	0x70
 9255 0d02 7E       		.sleb128 -2
 9256 0d03 9F       		.byte	0x9f
 9257 0d04 0B000000 		.4byte	.LVL328-1
 9258 0d08 30000000 		.4byte	.LVL332
 9259 0d0c 0600     		.2byte	0x6
 9260 0d0e F3       		.byte	0xf3
 9261 0d0f 01       		.uleb128 0x1
 9262 0d10 50       		.byte	0x50
 9263 0d11 32       		.byte	0x32
 9264 0d12 1C       		.byte	0x1c
 9265 0d13 9F       		.byte	0x9f
 9266 0d14 30000000 		.4byte	.LVL332
 9267 0d18 36000000 		.4byte	.LVL334
 9268 0d1c 0300     		.2byte	0x3
 9269 0d1e 70       		.byte	0x70
 9270 0d1f 7E       		.sleb128 -2
 9271 0d20 9F       		.byte	0x9f
 9272 0d21 36000000 		.4byte	.LVL334
 9273 0d25 A8000000 		.4byte	.LFE21
 9274 0d29 0600     		.2byte	0x6
 9275 0d2b F3       		.byte	0xf3
 9276 0d2c 01       		.uleb128 0x1
 9277 0d2d 50       		.byte	0x50
 9278 0d2e 32       		.byte	0x32
 9279 0d2f 1C       		.byte	0x1c
 9280 0d30 9F       		.byte	0x9f
 9281 0d31 00000000 		.4byte	0
 9282 0d35 00000000 		.4byte	0
 9283              	.LLST72:
 9284 0d39 00000000 		.4byte	.LVL326
 9285 0d3d 0B000000 		.4byte	.LVL328-1
 9286 0d41 0100     		.2byte	0x1
 9287 0d43 51       		.byte	0x51
 9288 0d44 0B000000 		.4byte	.LVL328-1
 9289 0d48 30000000 		.4byte	.LVL332
 9290 0d4c 0100     		.2byte	0x1
 9291 0d4e 55       		.byte	0x55
 9292 0d4f 30000000 		.4byte	.LVL332
 9293 0d53 34000000 		.4byte	.LVL333
 9294 0d57 0100     		.2byte	0x1
 9295 0d59 51       		.byte	0x51
 9296 0d5a 34000000 		.4byte	.LVL333
 9297 0d5e 8E000000 		.4byte	.LVL348
 9298 0d62 0100     		.2byte	0x1
 9299 0d64 55       		.byte	0x55
 9300 0d65 8E000000 		.4byte	.LVL348
 9301 0d69 A8000000 		.4byte	.LFE21
 9302 0d6d 0400     		.2byte	0x4
 9303 0d6f F3       		.byte	0xf3
 9304 0d70 01       		.uleb128 0x1
 9305 0d71 51       		.byte	0x51
ARM GAS  C:\Users\TERENC~1\AppData\Local\Temp\ccVObDgl.s 			page 185


 9306 0d72 9F       		.byte	0x9f
 9307 0d73 00000000 		.4byte	0
 9308 0d77 00000000 		.4byte	0
 9309              	.LLST73:
 9310 0d7b 04000000 		.4byte	.LVL327
 9311 0d7f 42000000 		.4byte	.LVL336
 9312 0d83 0200     		.2byte	0x2
 9313 0d85 32       		.byte	0x32
 9314 0d86 9F       		.byte	0x9f
 9315 0d87 42000000 		.4byte	.LVL336
 9316 0d8b 4C000000 		.4byte	.LVL338
 9317 0d8f 0200     		.2byte	0x2
 9318 0d91 33       		.byte	0x33
 9319 0d92 9F       		.byte	0x9f
 9320 0d93 4C000000 		.4byte	.LVL338
 9321 0d97 5C000000 		.4byte	.LVL340
 9322 0d9b 0200     		.2byte	0x2
 9323 0d9d 32       		.byte	0x32
 9324 0d9e 9F       		.byte	0x9f
 9325 0d9f 5C000000 		.4byte	.LVL340
 9326 0da3 66000000 		.4byte	.LVL342
 9327 0da7 0200     		.2byte	0x2
 9328 0da9 33       		.byte	0x33
 9329 0daa 9F       		.byte	0x9f
 9330 0dab 66000000 		.4byte	.LVL342
 9331 0daf 76000000 		.4byte	.LVL344
 9332 0db3 0200     		.2byte	0x2
 9333 0db5 32       		.byte	0x32
 9334 0db6 9F       		.byte	0x9f
 9335 0db7 76000000 		.4byte	.LVL344
 9336 0dbb 84000000 		.4byte	.LVL346
 9337 0dbf 0200     		.2byte	0x2
 9338 0dc1 33       		.byte	0x33
 9339 0dc2 9F       		.byte	0x9f
 9340 0dc3 84000000 		.4byte	.LVL346
 9341 0dc7 8C000000 		.4byte	.LVL347
 9342 0dcb 0200     		.2byte	0x2
 9343 0dcd 32       		.byte	0x32
 9344 0dce 9F       		.byte	0x9f
 9345 0dcf 00000000 		.4byte	0
 9346 0dd3 00000000 		.4byte	0
 9347              	.LLST74:
 9348 0dd7 0E000000 		.4byte	.LVL349
 9349 0ddb 98000000 		.4byte	.LVL361
 9350 0ddf 0300     		.2byte	0x3
 9351 0de1 09       		.byte	0x9
 9352 0de2 FF       		.byte	0xff
 9353 0de3 9F       		.byte	0x9f
 9354 0de4 98000000 		.4byte	.LVL361
 9355 0de8 C0000000 		.4byte	.LVL365
 9356 0dec 0300     		.2byte	0x3
 9357 0dee 91       		.byte	0x91
 9358 0def AC7F     		.sleb128 -84
 9359 0df1 C0000000 		.4byte	.LVL365
 9360 0df5 C6000000 		.4byte	.LVL366
 9361 0df9 0100     		.2byte	0x1
 9362 0dfb 50       		.byte	0x50
ARM GAS  C:\Users\TERENC~1\AppData\Local\Temp\ccVObDgl.s 			page 186


 9363 0dfc C6000000 		.4byte	.LVL366
 9364 0e00 E0010000 		.4byte	.LVL395
 9365 0e04 0300     		.2byte	0x3
 9366 0e06 91       		.byte	0x91
 9367 0e07 AC7F     		.sleb128 -84
 9368 0e09 E0010000 		.4byte	.LVL395
 9369 0e0d EE010000 		.4byte	.LVL397
 9370 0e11 0300     		.2byte	0x3
 9371 0e13 09       		.byte	0x9
 9372 0e14 FF       		.byte	0xff
 9373 0e15 9F       		.byte	0x9f
 9374 0e16 EE010000 		.4byte	.LVL397
 9375 0e1a 30020000 		.4byte	.LVL403
 9376 0e1e 0300     		.2byte	0x3
 9377 0e20 91       		.byte	0x91
 9378 0e21 AC7F     		.sleb128 -84
 9379 0e23 30020000 		.4byte	.LVL403
 9380 0e27 36020000 		.4byte	.LVL404
 9381 0e2b 0300     		.2byte	0x3
 9382 0e2d 09       		.byte	0x9
 9383 0e2e FF       		.byte	0xff
 9384 0e2f 9F       		.byte	0x9f
 9385 0e30 36020000 		.4byte	.LVL404
 9386 0e34 3C020000 		.4byte	.LVL405
 9387 0e38 0300     		.2byte	0x3
 9388 0e3a 91       		.byte	0x91
 9389 0e3b AC7F     		.sleb128 -84
 9390 0e3d 00000000 		.4byte	0
 9391 0e41 00000000 		.4byte	0
 9392              	.LLST75:
 9393 0e45 0E000000 		.4byte	.LVL349
 9394 0e49 16000000 		.4byte	.LVL350
 9395 0e4d 0600     		.2byte	0x6
 9396 0e4f 03       		.byte	0x3
 9397 0e50 00000000 		.4byte	cmd_buf
 9398 0e54 9F       		.byte	0x9f
 9399 0e55 16000000 		.4byte	.LVL350
 9400 0e59 5F000000 		.4byte	.LVL354-1
 9401 0e5d 0100     		.2byte	0x1
 9402 0e5f 52       		.byte	0x52
 9403 0e60 86000000 		.4byte	.LVL358
 9404 0e64 98000000 		.4byte	.LVL361
 9405 0e68 0100     		.2byte	0x1
 9406 0e6a 52       		.byte	0x52
 9407 0e6b E0010000 		.4byte	.LVL395
 9408 0e6f EE010000 		.4byte	.LVL397
 9409 0e73 0100     		.2byte	0x1
 9410 0e75 52       		.byte	0x52
 9411 0e76 00000000 		.4byte	0
 9412 0e7a 00000000 		.4byte	0
 9413              	.LLST76:
 9414 0e7e 0E000000 		.4byte	.LVL349
 9415 0e82 98000000 		.4byte	.LVL361
 9416 0e86 0200     		.2byte	0x2
 9417 0e88 30       		.byte	0x30
 9418 0e89 9F       		.byte	0x9f
 9419 0e8a 98000000 		.4byte	.LVL361
ARM GAS  C:\Users\TERENC~1\AppData\Local\Temp\ccVObDgl.s 			page 187


 9420 0e8e C0000000 		.4byte	.LVL365
 9421 0e92 0100     		.2byte	0x1
 9422 0e94 5A       		.byte	0x5a
 9423 0e95 C0000000 		.4byte	.LVL365
 9424 0e99 C6000000 		.4byte	.LVL366
 9425 0e9d 0200     		.2byte	0x2
 9426 0e9f 31       		.byte	0x31
 9427 0ea0 9F       		.byte	0x9f
 9428 0ea1 C6000000 		.4byte	.LVL366
 9429 0ea5 D2000000 		.4byte	.LVL368
 9430 0ea9 0100     		.2byte	0x1
 9431 0eab 5A       		.byte	0x5a
 9432 0eac D2000000 		.4byte	.LVL368
 9433 0eb0 3A010000 		.4byte	.LVL378
 9434 0eb4 0200     		.2byte	0x2
 9435 0eb6 31       		.byte	0x31
 9436 0eb7 9F       		.byte	0x9f
 9437 0eb8 3A010000 		.4byte	.LVL378
 9438 0ebc 70010000 		.4byte	.LVL382
 9439 0ec0 0100     		.2byte	0x1
 9440 0ec2 5A       		.byte	0x5a
 9441 0ec3 70010000 		.4byte	.LVL382
 9442 0ec7 DC010000 		.4byte	.LVL393
 9443 0ecb 0200     		.2byte	0x2
 9444 0ecd 31       		.byte	0x31
 9445 0ece 9F       		.byte	0x9f
 9446 0ecf DC010000 		.4byte	.LVL393
 9447 0ed3 E0010000 		.4byte	.LVL395
 9448 0ed7 0100     		.2byte	0x1
 9449 0ed9 5A       		.byte	0x5a
 9450 0eda E0010000 		.4byte	.LVL395
 9451 0ede EE010000 		.4byte	.LVL397
 9452 0ee2 0200     		.2byte	0x2
 9453 0ee4 30       		.byte	0x30
 9454 0ee5 9F       		.byte	0x9f
 9455 0ee6 EE010000 		.4byte	.LVL397
 9456 0eea 30020000 		.4byte	.LVL403
 9457 0eee 0100     		.2byte	0x1
 9458 0ef0 5A       		.byte	0x5a
 9459 0ef1 30020000 		.4byte	.LVL403
 9460 0ef5 36020000 		.4byte	.LVL404
 9461 0ef9 0200     		.2byte	0x2
 9462 0efb 30       		.byte	0x30
 9463 0efc 9F       		.byte	0x9f
 9464 0efd 36020000 		.4byte	.LVL404
 9465 0f01 3C020000 		.4byte	.LVL405
 9466 0f05 0100     		.2byte	0x1
 9467 0f07 5A       		.byte	0x5a
 9468 0f08 00000000 		.4byte	0
 9469 0f0c 00000000 		.4byte	0
 9470              	.LLST77:
 9471 0f10 0E000000 		.4byte	.LVL349
 9472 0f14 16000000 		.4byte	.LVL350
 9473 0f18 0200     		.2byte	0x2
 9474 0f1a 30       		.byte	0x30
 9475 0f1b 9F       		.byte	0x9f
 9476 0f1c 16000000 		.4byte	.LVL350
ARM GAS  C:\Users\TERENC~1\AppData\Local\Temp\ccVObDgl.s 			page 188


 9477 0f20 8E000000 		.4byte	.LVL359
 9478 0f24 0100     		.2byte	0x1
 9479 0f26 59       		.byte	0x59
 9480 0f27 8E000000 		.4byte	.LVL359
 9481 0f2b 90000000 		.4byte	.LVL360
 9482 0f2f 0100     		.2byte	0x1
 9483 0f31 53       		.byte	0x53
 9484 0f32 90000000 		.4byte	.LVL360
 9485 0f36 E0010000 		.4byte	.LVL395
 9486 0f3a 0100     		.2byte	0x1
 9487 0f3c 59       		.byte	0x59
 9488 0f3d E0010000 		.4byte	.LVL395
 9489 0f41 E2010000 		.4byte	.LVL396
 9490 0f45 0100     		.2byte	0x1
 9491 0f47 53       		.byte	0x53
 9492 0f48 E2010000 		.4byte	.LVL396
 9493 0f4c 3E020000 		.4byte	.LVL406
 9494 0f50 0100     		.2byte	0x1
 9495 0f52 59       		.byte	0x59
 9496 0f53 00000000 		.4byte	0
 9497 0f57 00000000 		.4byte	0
 9498              	.LLST78:
 9499 0f5b 0E000000 		.4byte	.LVL349
 9500 0f5f 98000000 		.4byte	.LVL361
 9501 0f63 0200     		.2byte	0x2
 9502 0f65 30       		.byte	0x30
 9503 0f66 9F       		.byte	0x9f
 9504 0f67 98000000 		.4byte	.LVL361
 9505 0f6b 94010000 		.4byte	.LVL387
 9506 0f6f 0100     		.2byte	0x1
 9507 0f71 56       		.byte	0x56
 9508 0f72 DC010000 		.4byte	.LVL393
 9509 0f76 E0010000 		.4byte	.LVL395
 9510 0f7a 0100     		.2byte	0x1
 9511 0f7c 56       		.byte	0x56
 9512 0f7d E0010000 		.4byte	.LVL395
 9513 0f81 EE010000 		.4byte	.LVL397
 9514 0f85 0200     		.2byte	0x2
 9515 0f87 30       		.byte	0x30
 9516 0f88 9F       		.byte	0x9f
 9517 0f89 EE010000 		.4byte	.LVL397
 9518 0f8d 04020000 		.4byte	.LVL398
 9519 0f91 0100     		.2byte	0x1
 9520 0f93 56       		.byte	0x56
 9521 0f94 30020000 		.4byte	.LVL403
 9522 0f98 36020000 		.4byte	.LVL404
 9523 0f9c 0200     		.2byte	0x2
 9524 0f9e 30       		.byte	0x30
 9525 0f9f 9F       		.byte	0x9f
 9526 0fa0 00000000 		.4byte	0
 9527 0fa4 00000000 		.4byte	0
 9528              	.LLST79:
 9529 0fa8 0E000000 		.4byte	.LVL349
 9530 0fac 98000000 		.4byte	.LVL361
 9531 0fb0 0200     		.2byte	0x2
 9532 0fb2 30       		.byte	0x30
 9533 0fb3 9F       		.byte	0x9f
ARM GAS  C:\Users\TERENC~1\AppData\Local\Temp\ccVObDgl.s 			page 189


 9534 0fb4 98000000 		.4byte	.LVL361
 9535 0fb8 E0010000 		.4byte	.LVL395
 9536 0fbc 0100     		.2byte	0x1
 9537 0fbe 54       		.byte	0x54
 9538 0fbf E0010000 		.4byte	.LVL395
 9539 0fc3 EE010000 		.4byte	.LVL397
 9540 0fc7 0200     		.2byte	0x2
 9541 0fc9 30       		.byte	0x30
 9542 0fca 9F       		.byte	0x9f
 9543 0fcb EE010000 		.4byte	.LVL397
 9544 0fcf 04020000 		.4byte	.LVL398
 9545 0fd3 0100     		.2byte	0x1
 9546 0fd5 54       		.byte	0x54
 9547 0fd6 30020000 		.4byte	.LVL403
 9548 0fda 36020000 		.4byte	.LVL404
 9549 0fde 0200     		.2byte	0x2
 9550 0fe0 30       		.byte	0x30
 9551 0fe1 9F       		.byte	0x9f
 9552 0fe2 00000000 		.4byte	0
 9553 0fe6 00000000 		.4byte	0
 9554              	.LLST80:
 9555 0fea 0E000000 		.4byte	.LVL349
 9556 0fee 98000000 		.4byte	.LVL361
 9557 0ff2 0200     		.2byte	0x2
 9558 0ff4 30       		.byte	0x30
 9559 0ff5 9F       		.byte	0x9f
 9560 0ff6 98000000 		.4byte	.LVL361
 9561 0ffa E0010000 		.4byte	.LVL395
 9562 0ffe 0100     		.2byte	0x1
 9563 1000 58       		.byte	0x58
 9564 1001 E0010000 		.4byte	.LVL395
 9565 1005 EE010000 		.4byte	.LVL397
 9566 1009 0200     		.2byte	0x2
 9567 100b 30       		.byte	0x30
 9568 100c 9F       		.byte	0x9f
 9569 100d EE010000 		.4byte	.LVL397
 9570 1011 04020000 		.4byte	.LVL398
 9571 1015 0100     		.2byte	0x1
 9572 1017 58       		.byte	0x58
 9573 1018 30020000 		.4byte	.LVL403
 9574 101c 36020000 		.4byte	.LVL404
 9575 1020 0200     		.2byte	0x2
 9576 1022 30       		.byte	0x30
 9577 1023 9F       		.byte	0x9f
 9578 1024 00000000 		.4byte	0
 9579 1028 00000000 		.4byte	0
 9580              	.LLST81:
 9581 102c 10000000 		.4byte	.LVL411
 9582 1030 70000000 		.4byte	.LVL421
 9583 1034 0100     		.2byte	0x1
 9584 1036 54       		.byte	0x54
 9585 1037 8C000000 		.4byte	.LVL424
 9586 103b B4000000 		.4byte	.LVL427
 9587 103f 0100     		.2byte	0x1
 9588 1041 54       		.byte	0x54
 9589 1042 C6000000 		.4byte	.LVL430
 9590 1046 FA000000 		.4byte	.LVL435
ARM GAS  C:\Users\TERENC~1\AppData\Local\Temp\ccVObDgl.s 			page 190


 9591 104a 0100     		.2byte	0x1
 9592 104c 54       		.byte	0x54
 9593 104d FE000000 		.4byte	.LVL436
 9594 1051 0A010000 		.4byte	.LVL437
 9595 1055 0100     		.2byte	0x1
 9596 1057 54       		.byte	0x54
 9597 1058 0A010000 		.4byte	.LVL437
 9598 105c 0A010000 		.4byte	.LVL438
 9599 1060 0800     		.2byte	0x8
 9600 1062 91       		.byte	0x91
 9601 1063 00       		.sleb128 0
 9602 1064 75       		.byte	0x75
 9603 1065 00       		.sleb128 0
 9604 1066 22       		.byte	0x22
 9605 1067 08       		.byte	0x8
 9606 1068 58       		.byte	0x58
 9607 1069 1C       		.byte	0x1c
 9608 106a 00000000 		.4byte	0
 9609 106e 00000000 		.4byte	0
 9610              	.LLST82:
 9611 1072 04000000 		.4byte	.LVL408
 9612 1076 10000000 		.4byte	.LVL411
 9613 107a 0200     		.2byte	0x2
 9614 107c 30       		.byte	0x30
 9615 107d 9F       		.byte	0x9f
 9616 107e 10000000 		.4byte	.LVL411
 9617 1082 12000000 		.4byte	.LVL412
 9618 1086 0100     		.2byte	0x1
 9619 1088 55       		.byte	0x55
 9620 1089 14000000 		.4byte	.LVL413
 9621 108d 0A010000 		.4byte	.LVL438
 9622 1091 0100     		.2byte	0x1
 9623 1093 55       		.byte	0x55
 9624 1094 00000000 		.4byte	0
 9625 1098 00000000 		.4byte	0
 9626              	.LLST83:
 9627 109c 0C000000 		.4byte	.LVL410
 9628 10a0 10000000 		.4byte	.LVL411
 9629 10a4 0100     		.2byte	0x1
 9630 10a6 50       		.byte	0x50
 9631 10a7 10000000 		.4byte	.LVL411
 9632 10ab 0A010000 		.4byte	.LVL439
 9633 10af 0100     		.2byte	0x1
 9634 10b1 56       		.byte	0x56
 9635 10b2 00000000 		.4byte	0
 9636 10b6 00000000 		.4byte	0
 9637              		.section	.debug_aranges,"",%progbits
 9638 0000 E4000000 		.4byte	0xe4
 9639 0004 0200     		.2byte	0x2
 9640 0006 00000000 		.4byte	.Ldebug_info0
 9641 000a 04       		.byte	0x4
 9642 000b 00       		.byte	0
 9643 000c 0000     		.2byte	0
 9644 000e 0000     		.2byte	0
 9645 0010 00000000 		.4byte	.LFB14
 9646 0014 34000000 		.4byte	.LFE14-.LFB14
 9647 0018 00000000 		.4byte	.LFB4
ARM GAS  C:\Users\TERENC~1\AppData\Local\Temp\ccVObDgl.s 			page 191


 9648 001c 74000000 		.4byte	.LFE4-.LFB4
 9649 0020 00000000 		.4byte	.LFB3
 9650 0024 C4000000 		.4byte	.LFE3-.LFB3
 9651 0028 00000000 		.4byte	.LFB5
 9652 002c 8C000000 		.4byte	.LFE5-.LFB5
 9653 0030 00000000 		.4byte	.LFB15
 9654 0034 38000000 		.4byte	.LFE15-.LFB15
 9655 0038 00000000 		.4byte	.LFB17
 9656 003c 3C000000 		.4byte	.LFE17-.LFB17
 9657 0040 00000000 		.4byte	.LFB20
 9658 0044 8C010000 		.4byte	.LFE20-.LFB20
 9659 0048 00000000 		.4byte	.LFB6
 9660 004c AC000000 		.4byte	.LFE6-.LFB6
 9661 0050 00000000 		.4byte	.LFB7
 9662 0054 34000000 		.4byte	.LFE7-.LFB7
 9663 0058 00000000 		.4byte	.LFB8
 9664 005c BC000000 		.4byte	.LFE8-.LFB8
 9665 0060 00000000 		.4byte	.LFB9
 9666 0064 78000000 		.4byte	.LFE9-.LFB9
 9667 0068 00000000 		.4byte	.LFB10
 9668 006c 34000000 		.4byte	.LFE10-.LFB10
 9669 0070 00000000 		.4byte	.LFB11
 9670 0074 34000000 		.4byte	.LFE11-.LFB11
 9671 0078 00000000 		.4byte	.LFB12
 9672 007c 34000000 		.4byte	.LFE12-.LFB12
 9673 0080 00000000 		.4byte	.LFB13
 9674 0084 34000000 		.4byte	.LFE13-.LFB13
 9675 0088 00000000 		.4byte	.LFB16
 9676 008c 0A000000 		.4byte	.LFE16-.LFB16
 9677 0090 00000000 		.4byte	.LFB22
 9678 0094 34000000 		.4byte	.LFE22-.LFB22
 9679 0098 00000000 		.4byte	.LFB23
 9680 009c 40000000 		.4byte	.LFE23-.LFB23
 9681 00a0 00000000 		.4byte	.LFB24
 9682 00a4 34000000 		.4byte	.LFE24-.LFB24
 9683 00a8 00000000 		.4byte	.LFB2
 9684 00ac 44000000 		.4byte	.LFE2-.LFB2
 9685 00b0 00000000 		.4byte	.LFB18
 9686 00b4 00010000 		.4byte	.LFE18-.LFB18
 9687 00b8 00000000 		.4byte	.LFB19
 9688 00bc E0000000 		.4byte	.LFE19-.LFB19
 9689 00c0 00000000 		.4byte	.LFB21
 9690 00c4 A8000000 		.4byte	.LFE21-.LFB21
 9691 00c8 00000000 		.4byte	.LFB25
 9692 00cc 78020000 		.4byte	.LFE25-.LFB25
 9693 00d0 00000000 		.4byte	.LFB26
 9694 00d4 1C000000 		.4byte	.LFE26-.LFB26
 9695 00d8 00000000 		.4byte	.LFB27
 9696 00dc 20010000 		.4byte	.LFE27-.LFB27
 9697 00e0 00000000 		.4byte	0
 9698 00e4 00000000 		.4byte	0
 9699              		.section	.debug_ranges,"",%progbits
 9700              	.Ldebug_ranges0:
 9701 0000 00000000 		.4byte	.LFB14
 9702 0004 34000000 		.4byte	.LFE14
 9703 0008 00000000 		.4byte	.LFB4
 9704 000c 74000000 		.4byte	.LFE4
ARM GAS  C:\Users\TERENC~1\AppData\Local\Temp\ccVObDgl.s 			page 192


 9705 0010 00000000 		.4byte	.LFB3
 9706 0014 C4000000 		.4byte	.LFE3
 9707 0018 00000000 		.4byte	.LFB5
 9708 001c 8C000000 		.4byte	.LFE5
 9709 0020 00000000 		.4byte	.LFB15
 9710 0024 38000000 		.4byte	.LFE15
 9711 0028 00000000 		.4byte	.LFB17
 9712 002c 3C000000 		.4byte	.LFE17
 9713 0030 00000000 		.4byte	.LFB20
 9714 0034 8C010000 		.4byte	.LFE20
 9715 0038 00000000 		.4byte	.LFB6
 9716 003c AC000000 		.4byte	.LFE6
 9717 0040 00000000 		.4byte	.LFB7
 9718 0044 34000000 		.4byte	.LFE7
 9719 0048 00000000 		.4byte	.LFB8
 9720 004c BC000000 		.4byte	.LFE8
 9721 0050 00000000 		.4byte	.LFB9
 9722 0054 78000000 		.4byte	.LFE9
 9723 0058 00000000 		.4byte	.LFB10
 9724 005c 34000000 		.4byte	.LFE10
 9725 0060 00000000 		.4byte	.LFB11
 9726 0064 34000000 		.4byte	.LFE11
 9727 0068 00000000 		.4byte	.LFB12
 9728 006c 34000000 		.4byte	.LFE12
 9729 0070 00000000 		.4byte	.LFB13
 9730 0074 34000000 		.4byte	.LFE13
 9731 0078 00000000 		.4byte	.LFB16
 9732 007c 0A000000 		.4byte	.LFE16
 9733 0080 00000000 		.4byte	.LFB22
 9734 0084 34000000 		.4byte	.LFE22
 9735 0088 00000000 		.4byte	.LFB23
 9736 008c 40000000 		.4byte	.LFE23
 9737 0090 00000000 		.4byte	.LFB24
 9738 0094 34000000 		.4byte	.LFE24
 9739 0098 00000000 		.4byte	.LFB2
 9740 009c 44000000 		.4byte	.LFE2
 9741 00a0 00000000 		.4byte	.LFB18
 9742 00a4 00010000 		.4byte	.LFE18
 9743 00a8 00000000 		.4byte	.LFB19
 9744 00ac E0000000 		.4byte	.LFE19
 9745 00b0 00000000 		.4byte	.LFB21
 9746 00b4 A8000000 		.4byte	.LFE21
 9747 00b8 00000000 		.4byte	.LFB25
 9748 00bc 78020000 		.4byte	.LFE25
 9749 00c0 00000000 		.4byte	.LFB26
 9750 00c4 1C000000 		.4byte	.LFE26
 9751 00c8 00000000 		.4byte	.LFB27
 9752 00cc 20010000 		.4byte	.LFE27
 9753 00d0 00000000 		.4byte	0
 9754 00d4 00000000 		.4byte	0
 9755              		.section	.debug_line,"",%progbits
 9756              	.Ldebug_line0:
 9757 0000 3E080000 		.section	.debug_str,"MS",%progbits,1
 9757      02007E02 
 9757      00000201 
 9757      FB0E0D00 
 9757      01010101 
ARM GAS  C:\Users\TERENC~1\AppData\Local\Temp\ccVObDgl.s 			page 193


 9758              	.LASF82:
 9759 0000 546B5368 		.ascii	"TkShellInit\000"
 9759      656C6C49 
 9759      6E697400 
 9760              	.LASF33:
 9761 000c 64656275 		.ascii	"debug_mask\000"
 9761      675F6D61 
 9761      736B00
 9762              	.LASF117:
 9763 0017 43616C69 		.ascii	"CalibrationSave\000"
 9763      62726174 
 9763      696F6E53 
 9763      61766500 
 9764              	.LASF25:
 9765 0027 766F6C5F 		.ascii	"vol_ctrl_right\000"
 9765      6374726C 
 9765      5F726967 
 9765      687400
 9766              	.LASF78:
 9767 0036 5F5F746B 		.ascii	"__tk_shell_cal_set\000"
 9767      5F736865 
 9767      6C6C5F63 
 9767      616C5F73 
 9767      657400
 9768              	.LASF85:
 9769 0049 62756666 		.ascii	"buffer\000"
 9769      657200
 9770              	.LASF63:
 9771 0050 5F5F746B 		.ascii	"__tk_shell_rf_init\000"
 9771      5F736865 
 9771      6C6C5F72 
 9771      665F696E 
 9771      697400
 9772              	.LASF0:
 9773 0063 756E7369 		.ascii	"unsigned int\000"
 9773      676E6564 
 9773      20696E74 
 9773      00
 9774              	.LASF32:
 9775 0070 6C65645F 		.ascii	"led_max_brightness\000"
 9775      6D61785F 
 9775      62726967 
 9775      68746E65 
 9775      737300
 9776              	.LASF38:
 9777 0083 4C4D5F4C 		.ascii	"LM_LED_MAX\000"
 9777      45445F4D 
 9777      415800
 9778              	.LASF21:
 9779 008e 696E7431 		.ascii	"int16\000"
 9779      3600
 9780              	.LASF62:
 9781 0094 5F5F746B 		.ascii	"__tk_shell_wm_reg_rd\000"
 9781      5F736865 
 9781      6C6C5F77 
 9781      6D5F7265 
 9781      675F7264 
ARM GAS  C:\Users\TERENC~1\AppData\Local\Temp\ccVObDgl.s 			page 194


 9782              	.LASF27:
 9783 00a9 766F6C5F 		.ascii	"vol_ctrl_both\000"
 9783      6374726C 
 9783      5F626F74 
 9783      6800
 9784              	.LASF102:
 9785 00b7 55534255 		.ascii	"USBUART_GetConfiguration\000"
 9785      4152545F 
 9785      47657443 
 9785      6F6E6669 
 9785      67757261 
 9786              	.LASF128:
 9787 00d0 546B5368 		.ascii	"TkShellProcessCommand\000"
 9787      656C6C50 
 9787      726F6365 
 9787      7373436F 
 9787      6D6D616E 
 9788              	.LASF74:
 9789 00e6 70776D50 		.ascii	"pwmPeriod\000"
 9789      6572696F 
 9789      6400
 9790              	.LASF41:
 9791 00f0 66756E63 		.ascii	"func\000"
 9791      00
 9792              	.LASF51:
 9793 00f5 6D6F6465 		.ascii	"mode\000"
 9793      00
 9794              	.LASF112:
 9795 00fa 63633835 		.ascii	"cc85xx_init\000"
 9795      78785F69 
 9795      6E697400 
 9796              	.LASF80:
 9797 0106 666F756E 		.ascii	"found\000"
 9797      6400
 9798              	.LASF39:
 9799 010c 4C4D5F4C 		.ascii	"LM_LED_e\000"
 9799      45445F65 
 9799      00
 9800              	.LASF31:
 9801 0115 6164635F 		.ascii	"adc_max\000"
 9801      6D617800 
 9802              	.LASF107:
 9803 011d 436F6465 		.ascii	"Codec_AdjustBothHeadphoneVolume\000"
 9803      635F4164 
 9803      6A757374 
 9803      426F7468 
 9803      48656164 
 9804              	.LASF17:
 9805 013d 75696E74 		.ascii	"uint32_t\000"
 9805      33325F74 
 9805      00
 9806              	.LASF37:
 9807 0146 4C4D5F4C 		.ascii	"LM_LED_BLUE\000"
 9807      45445F42 
 9807      4C554500 
 9808              	.LASF22:
 9809 0152 666C6F61 		.ascii	"float\000"
ARM GAS  C:\Users\TERENC~1\AppData\Local\Temp\ccVObDgl.s 			page 195


 9809      7400
 9810              	.LASF84:
 9811 0158 636F756E 		.ascii	"count\000"
 9811      7400
 9812              	.LASF12:
 9813 015e 6C6F6E67 		.ascii	"long long unsigned int\000"
 9813      206C6F6E 
 9813      6720756E 
 9813      7369676E 
 9813      65642069 
 9814              	.LASF7:
 9815 0175 5F5F7569 		.ascii	"__uint16_t\000"
 9815      6E743136 
 9815      5F7400
 9816              	.LASF59:
 9817 0180 5F5F746B 		.ascii	"__tk_shell_wm_vol_get\000"
 9817      5F736865 
 9817      6C6C5F77 
 9817      6D5F766F 
 9817      6C5F6765 
 9818              	.LASF98:
 9819 0196 61646353 		.ascii	"adcSample\000"
 9819      616D706C 
 9819      6500
 9820              	.LASF28:
 9821 01a0 7369676E 		.ascii	"signature\000"
 9821      61747572 
 9821      6500
 9822              	.LASF126:
 9823 01aa 546B5368 		.ascii	"TkShell.c\000"
 9823      656C6C2E 
 9823      6300
 9824              	.LASF118:
 9825 01b4 41756469 		.ascii	"AudioManagerToneStart\000"
 9825      6F4D616E 
 9825      61676572 
 9825      546F6E65 
 9825      53746172 
 9826              	.LASF67:
 9827 01ca 5F5F746B 		.ascii	"__tk_shell_sys_reset\000"
 9827      5F736865 
 9827      6C6C5F73 
 9827      79735F72 
 9827      65736574 
 9828              	.LASF125:
 9829 01df 474E5520 		.ascii	"GNU C11 5.4.1 20160609 (release) [ARM/embedded-5-br"
 9829      43313120 
 9829      352E342E 
 9829      31203230 
 9829      31363036 
 9830 0212 616E6368 		.ascii	"anch revision 237715] -mcpu=cortex-m0 -mthumb -g -O"
 9830      20726576 
 9830      6973696F 
 9830      6E203233 
 9830      37373135 
 9831 0245 67202D66 		.ascii	"g -ffunction-sections -ffat-lto-objects\000"
 9831      66756E63 
ARM GAS  C:\Users\TERENC~1\AppData\Local\Temp\ccVObDgl.s 			page 196


 9831      74696F6E 
 9831      2D736563 
 9831      74696F6E 
 9832              	.LASF127:
 9833 026d 433A5C64 		.ascii	"C:\\dev\\git\\icebreaker\\Icebreaker.cydsn\000"
 9833      65765C67 
 9833      69745C69 
 9833      63656272 
 9833      65616B65 
 9834              	.LASF60:
 9835 0294 5F5F746B 		.ascii	"__tk_shell_wm_reg_wr\000"
 9835      5F736865 
 9835      6C6C5F77 
 9835      6D5F7265 
 9835      675F7772 
 9836              	.LASF35:
 9837 02a9 4C4D5F4C 		.ascii	"LM_LED_RED\000"
 9837      45445F52 
 9837      454400
 9838              	.LASF29:
 9839 02b4 636F756E 		.ascii	"counter\000"
 9839      74657200 
 9840              	.LASF95:
 9841 02bc 636D645F 		.ascii	"cmd_buf\000"
 9841      62756600 
 9842              	.LASF115:
 9843 02c4 63633835 		.ascii	"cc85xx_print_info\000"
 9843      78785F70 
 9843      72696E74 
 9843      5F696E66 
 9843      6F00
 9844              	.LASF81:
 9845 02d6 5F426F6F 		.ascii	"_Bool\000"
 9845      6C00
 9846              	.LASF49:
 9847 02dc 5F5F746B 		.ascii	"__tk_shell_gpio_config\000"
 9847      5F736865 
 9847      6C6C5F67 
 9847      70696F5F 
 9847      636F6E66 
 9848              	.LASF114:
 9849 02f3 63633835 		.ascii	"cc85xx_get_status\000"
 9849      78785F67 
 9849      65745F73 
 9849      74617475 
 9849      7300
 9850              	.LASF64:
 9851 0305 5F5F746B 		.ascii	"__tk_shell_rf_bl_unlock\000"
 9851      5F736865 
 9851      6C6C5F72 
 9851      665F626C 
 9851      5F756E6C 
 9852              	.LASF89:
 9853 031d 5F5F746B 		.ascii	"__tk_shell_verbs_rf\000"
 9853      5F736865 
 9853      6C6C5F76 
 9853      65726273 
ARM GAS  C:\Users\TERENC~1\AppData\Local\Temp\ccVObDgl.s 			page 197


 9853      5F726600 
 9854              	.LASF108:
 9855 0331 436F6465 		.ascii	"Codec_GetHeadphoneVolume\000"
 9855      635F4765 
 9855      74486561 
 9855      6470686F 
 9855      6E65566F 
 9856              	.LASF14:
 9857 034a 63686172 		.ascii	"char\000"
 9857      00
 9858              	.LASF119:
 9859 034f 41756469 		.ascii	"AudioManagerToneStop\000"
 9859      6F4D616E 
 9859      61676572 
 9859      546F6E65 
 9859      53746F70 
 9860              	.LASF124:
 9861 0364 55534255 		.ascii	"USBUART_GetAll\000"
 9861      4152545F 
 9861      47657441 
 9861      6C6C00
 9862              	.LASF19:
 9863 0373 75696E74 		.ascii	"uint16\000"
 9863      313600
 9864              	.LASF61:
 9865 037a 64617461 		.ascii	"data\000"
 9865      00
 9866              	.LASF100:
 9867 037f 746D7243 		.ascii	"tmrCounter_ms\000"
 9867      6F756E74 
 9867      65725F6D 
 9867      7300
 9868              	.LASF15:
 9869 038d 75696E74 		.ascii	"uint8_t\000"
 9869      385F7400 
 9870              	.LASF76:
 9871 0395 70776D43 		.ascii	"pwmCounter\000"
 9871      6F756E74 
 9871      657200
 9872              	.LASF79:
 9873 03a0 72657476 		.ascii	"retval\000"
 9873      616C00
 9874              	.LASF1:
 9875 03a7 6C6F6E67 		.ascii	"long long int\000"
 9875      206C6F6E 
 9875      6720696E 
 9875      7400
 9876              	.LASF65:
 9877 03b5 5F5F746B 		.ascii	"__tk_shell_rf_status\000"
 9877      5F736865 
 9877      6C6C5F72 
 9877      665F7374 
 9877      61747573 
 9878              	.LASF77:
 9879 03ca 5F5F746B 		.ascii	"__tk_shell_led_stop\000"
 9879      5F736865 
 9879      6C6C5F6C 
ARM GAS  C:\Users\TERENC~1\AppData\Local\Temp\ccVObDgl.s 			page 198


 9879      65645F73 
 9879      746F7000 
 9880              	.LASF55:
 9881 03de 5F5F746B 		.ascii	"__tk_shell_sys_info\000"
 9881      5F736865 
 9881      6C6C5F73 
 9881      79735F69 
 9881      6E666F00 
 9882              	.LASF91:
 9883 03f2 5F5F746B 		.ascii	"__tk_shell_verbs_led\000"
 9883      5F736865 
 9883      6C6C5F76 
 9883      65726273 
 9883      5F6C6564 
 9884              	.LASF71:
 9885 0407 73747263 		.ascii	"strcicmp\000"
 9885      69636D70 
 9885      00
 9886              	.LASF86:
 9887 0410 7265675F 		.ascii	"reg_lookup\000"
 9887      6C6F6F6B 
 9887      757000
 9888              	.LASF123:
 9889 041b 6D656D73 		.ascii	"memset\000"
 9889      657400
 9890              	.LASF20:
 9891 0422 75696E74 		.ascii	"uint32\000"
 9891      333200
 9892              	.LASF46:
 9893 0429 61726763 		.ascii	"argc\000"
 9893      00
 9894              	.LASF97:
 9895 042e 5F5F6374 		.ascii	"__ctype_ptr__\000"
 9895      7970655F 
 9895      7074725F 
 9895      5F00
 9896              	.LASF94:
 9897 043c 636F6D6D 		.ascii	"commands\000"
 9897      616E6473 
 9897      00
 9898              	.LASF90:
 9899 0445 5F5F746B 		.ascii	"__tk_shell_verbs_sys\000"
 9899      5F736865 
 9899      6C6C5F76 
 9899      65726273 
 9899      5F737973 
 9900              	.LASF47:
 9901 045a 61726776 		.ascii	"argv\000"
 9901      00
 9902              	.LASF2:
 9903 045f 6C6F6E67 		.ascii	"long double\000"
 9903      20646F75 
 9903      626C6500 
 9904              	.LASF106:
 9905 046b 73707269 		.ascii	"sprintf\000"
 9905      6E746600 
 9906              	.LASF16:
ARM GAS  C:\Users\TERENC~1\AppData\Local\Temp\ccVObDgl.s 			page 199


 9907 0473 75696E74 		.ascii	"uint16_t\000"
 9907      31365F74 
 9907      00
 9908              	.LASF24:
 9909 047c 72656733 		.ascii	"reg32\000"
 9909      3200
 9910              	.LASF101:
 9911 0482 67627566 		.ascii	"gbuf\000"
 9911      00
 9912              	.LASF52:
 9913 0487 5F5F746B 		.ascii	"__tk_shell_gpio_set\000"
 9913      5F736865 
 9913      6C6C5F67 
 9913      70696F5F 
 9913      73657400 
 9914              	.LASF72:
 9915 049b 5F5F746B 		.ascii	"__tk_shell_led_start\000"
 9915      5F736865 
 9915      6C6C5F6C 
 9915      65645F73 
 9915      74617274 
 9916              	.LASF99:
 9917 04b0 63616C5F 		.ascii	"cal_data\000"
 9917      64617461 
 9917      00
 9918              	.LASF45:
 9919 04b9 746B5F73 		.ascii	"tk_shell_command_s\000"
 9919      68656C6C 
 9919      5F636F6D 
 9919      6D616E64 
 9919      5F7300
 9920              	.LASF5:
 9921 04cc 73686F72 		.ascii	"short int\000"
 9921      7420696E 
 9921      7400
 9922              	.LASF68:
 9923 04d6 5F5F746B 		.ascii	"__tk_shell_cal_save\000"
 9923      5F736865 
 9923      6C6C5F63 
 9923      616C5F73 
 9923      61766500 
 9924              	.LASF9:
 9925 04ea 6C6F6E67 		.ascii	"long int\000"
 9925      20696E74 
 9925      00
 9926              	.LASF92:
 9927 04f3 5F5F746B 		.ascii	"__tk_shell_verbs_cal\000"
 9927      5F736865 
 9927      6C6C5F76 
 9927      65726273 
 9927      5F63616C 
 9928              	.LASF30:
 9929 0508 6164635F 		.ascii	"adc_min\000"
 9929      6D696E00 
 9930              	.LASF88:
 9931 0510 5F5F746B 		.ascii	"__tk_shell_verbs_wm\000"
 9931      5F736865 
ARM GAS  C:\Users\TERENC~1\AppData\Local\Temp\ccVObDgl.s 			page 200


 9931      6C6C5F76 
 9931      65726273 
 9931      5F776D00 
 9932              	.LASF75:
 9933 0524 70776D43 		.ascii	"pwmCompare\000"
 9933      6F6D7061 
 9933      726500
 9934              	.LASF111:
 9935 052f 436F6465 		.ascii	"Codec_GetData\000"
 9935      635F4765 
 9935      74446174 
 9935      6100
 9936              	.LASF6:
 9937 053d 5F5F7569 		.ascii	"__uint8_t\000"
 9937      6E74385F 
 9937      7400
 9938              	.LASF44:
 9939 0547 76657262 		.ascii	"verbs\000"
 9939      7300
 9940              	.LASF104:
 9941 054d 55534255 		.ascii	"USBUART_PutString\000"
 9941      4152545F 
 9941      50757453 
 9941      7472696E 
 9941      6700
 9942              	.LASF40:
 9943 055f 6E616D65 		.ascii	"name\000"
 9943      00
 9944              	.LASF13:
 9945 0564 73697A65 		.ascii	"sizetype\000"
 9945      74797065 
 9945      00
 9946              	.LASF109:
 9947 056d 73747274 		.ascii	"strtoul\000"
 9947      6F756C00 
 9948              	.LASF11:
 9949 0575 6C6F6E67 		.ascii	"long unsigned int\000"
 9949      20756E73 
 9949      69676E65 
 9949      6420696E 
 9949      7400
 9950              	.LASF69:
 9951 0587 5F5F746B 		.ascii	"__tk_shell_audio_play_tone\000"
 9951      5F736865 
 9951      6C6C5F61 
 9951      7564696F 
 9951      5F706C61 
 9952              	.LASF103:
 9953 05a2 55534255 		.ascii	"USBUART_CDCIsReady\000"
 9953      4152545F 
 9953      43444349 
 9953      73526561 
 9953      647900
 9954              	.LASF48:
 9955 05b5 5F5F746B 		.ascii	"__tk_shell_sys_crash\000"
 9955      5F736865 
 9955      6C6C5F73 
ARM GAS  C:\Users\TERENC~1\AppData\Local\Temp\ccVObDgl.s 			page 201


 9955      79735F63 
 9955      72617368 
 9956              	.LASF50:
 9957 05ca 706F7274 		.ascii	"port\000"
 9957      00
 9958              	.LASF83:
 9959 05cf 546B5368 		.ascii	"TkShellService\000"
 9959      656C6C53 
 9959      65727669 
 9959      636500
 9960              	.LASF120:
 9961 05de 4C65644D 		.ascii	"LedManagerStartOverride\000"
 9961      616E6167 
 9961      65725374 
 9961      6172744F 
 9961      76657272 
 9962              	.LASF116:
 9963 05f6 4379536F 		.ascii	"CySoftwareReset\000"
 9963      66747761 
 9963      72655265 
 9963      73657400 
 9964              	.LASF4:
 9965 0606 756E7369 		.ascii	"unsigned char\000"
 9965      676E6564 
 9965      20636861 
 9965      7200
 9966              	.LASF43:
 9967 0614 746B5F73 		.ascii	"tk_shell_command_verb_s\000"
 9967      68656C6C 
 9967      5F636F6D 
 9967      6D616E64 
 9967      5F766572 
 9968              	.LASF10:
 9969 062c 5F5F7569 		.ascii	"__uint32_t\000"
 9969      6E743332 
 9969      5F7400
 9970              	.LASF58:
 9971 0637 5F5F746B 		.ascii	"__tk_shell_wm_vol_set\000"
 9971      5F736865 
 9971      6C6C5F77 
 9971      6D5F766F 
 9971      6C5F7365 
 9972              	.LASF66:
 9973 064d 5F5F746B 		.ascii	"__tk_shell_rf_info\000"
 9973      5F736865 
 9973      6C6C5F72 
 9973      665F696E 
 9973      666F00
 9974              	.LASF110:
 9975 0660 436F6465 		.ascii	"Codec_SendData\000"
 9975      635F5365 
 9975      6E644461 
 9975      746100
 9976              	.LASF53:
 9977 066f 73746174 		.ascii	"state\000"
 9977      6500
 9978              	.LASF93:
ARM GAS  C:\Users\TERENC~1\AppData\Local\Temp\ccVObDgl.s 			page 202


 9979 0675 5F5F746B 		.ascii	"__tk_shell_verbs_audio\000"
 9979      5F736865 
 9979      6C6C5F76 
 9979      65726273 
 9979      5F617564 
 9980              	.LASF56:
 9981 068c 5F5F746B 		.ascii	"__tk_shell_sys_adc\000"
 9981      5F736865 
 9981      6C6C5F73 
 9981      79735F61 
 9981      646300
 9982              	.LASF36:
 9983 069f 4C4D5F4C 		.ascii	"LM_LED_GREEN\000"
 9983      45445F47 
 9983      5245454E 
 9983      00
 9984              	.LASF54:
 9985 06ac 5F5F746B 		.ascii	"__tk_shell_gpio_get\000"
 9985      5F736865 
 9985      6C6C5F67 
 9985      70696F5F 
 9985      67657400 
 9986              	.LASF57:
 9987 06c0 5F5F746B 		.ascii	"__tk_shell_cal_print\000"
 9987      5F736865 
 9987      6C6C5F63 
 9987      616C5F70 
 9987      72696E74 
 9988              	.LASF70:
 9989 06d5 5F5F746B 		.ascii	"__tk_shell_audio_stop_tone\000"
 9989      5F736865 
 9989      6C6C5F61 
 9989      7564696F 
 9989      5F73746F 
 9990              	.LASF3:
 9991 06f0 7369676E 		.ascii	"signed char\000"
 9991      65642063 
 9991      68617200 
 9992              	.LASF87:
 9993 06fc 5F5F746B 		.ascii	"__tk_shell_verbs_gpio\000"
 9993      5F736865 
 9993      6C6C5F76 
 9993      65726273 
 9993      5F677069 
 9994              	.LASF8:
 9995 0712 73686F72 		.ascii	"short unsigned int\000"
 9995      7420756E 
 9995      7369676E 
 9995      65642069 
 9995      6E7400
 9996              	.LASF122:
 9997 0725 6D656D63 		.ascii	"memcpy\000"
 9997      707900
 9998              	.LASF105:
 9999 072c 61746F69 		.ascii	"atoi\000"
 9999      00
 10000              	.LASF96:
ARM GAS  C:\Users\TERENC~1\AppData\Local\Temp\ccVObDgl.s 			page 203


 10001 0731 636D645F 		.ascii	"cmd_char_count\000"
 10001      63686172 
 10001      5F636F75 
 10001      6E7400
 10002              	.LASF18:
 10003 0740 75696E74 		.ascii	"uint8\000"
 10003      3800
 10004              	.LASF23:
 10005 0746 646F7562 		.ascii	"double\000"
 10005      6C6500
 10006              	.LASF42:
 10007 074d 64657363 		.ascii	"desc\000"
 10007      00
 10008              	.LASF73:
 10009 0752 6C656449 		.ascii	"ledIdx\000"
 10009      647800
 10010              	.LASF34:
 10011 0759 63616C69 		.ascii	"calibration_data_s\000"
 10011      62726174 
 10011      696F6E5F 
 10011      64617461 
 10011      5F7300
 10012              	.LASF113:
 10013 076c 63633835 		.ascii	"cc85xx_bl_unlock_spi\000"
 10013      78785F62 
 10013      6C5F756E 
 10013      6C6F636B 
 10013      5F737069 
 10014              	.LASF121:
 10015 0781 4C65644D 		.ascii	"LedManagerStopOverride\000"
 10015      616E6167 
 10015      65725374 
 10015      6F704F76 
 10015      65727269 
 10016              	.LASF26:
 10017 0798 766F6C5F 		.ascii	"vol_ctrl_left\000"
 10017      6374726C 
 10017      5F6C6566 
 10017      7400
 10018              		.ident	"GCC: (GNU Tools for ARM Embedded Processors) 5.4.1 20160609 (release) [ARM/embedded-5-bran
