ARM GAS  C:\Users\TERENC~1\AppData\Local\Temp\cc1rRXTX.s 			page 1


   1              		.syntax unified
   2              		.cpu cortex-m0
   3              		.fpu softvfp
   4              		.eabi_attribute 20, 1
   5              		.eabi_attribute 21, 1
   6              		.eabi_attribute 23, 3
   7              		.eabi_attribute 24, 1
   8              		.eabi_attribute 25, 1
   9              		.eabi_attribute 26, 1
  10              		.eabi_attribute 30, 1
  11              		.eabi_attribute 34, 0
  12              		.eabi_attribute 18, 4
  13              		.thumb
  14              		.syntax unified
  15              		.file	"TkShell.c"
  16              		.text
  17              	.Ltext0:
  18              		.cfi_sections	.debug_frame
  19              		.section	.text.__tk_shell_sys_crash,"ax",%progbits
  20              		.align	2
  21              		.global	__tk_shell_sys_crash
  22              		.code	16
  23              		.thumb_func
  24              		.type	__tk_shell_sys_crash, %function
  25              	__tk_shell_sys_crash:
  26              	.LFB11:
  27              		.file 1 "TkShell.c"
   1:TkShell.c     **** /* ========================================
   2:TkShell.c     ****  *
   3:TkShell.c     ****  * Copyright YOUR COMPANY, THE YEAR
   4:TkShell.c     ****  * All Rights Reserved
   5:TkShell.c     ****  * UNPUBLISHED, LICENSED SOFTWARE.
   6:TkShell.c     ****  *
   7:TkShell.c     ****  * CONFIDENTIAL AND PROPRIETARY INFORMATION
   8:TkShell.c     ****  * WHICH IS THE PROPERTY OF your company.
   9:TkShell.c     ****  *
  10:TkShell.c     ****  * ========================================
  11:TkShell.c     **** */
  12:TkShell.c     **** #include <string.h>
  13:TkShell.c     **** #include <Application.h>
  14:TkShell.c     **** #include <ctype.h>
  15:TkShell.c     **** #include "TkShell.h"
  16:TkShell.c     **** #include <Codec.h>
  17:TkShell.c     **** #include <VolumeControl.h>
  18:TkShell.c     **** #include <pcm1770.h>
  19:TkShell.c     **** #include <Calibration.h>
  20:TkShell.c     **** #include <LED.h>
  21:TkShell.c     **** #include <USBUART_cdc.h>
  22:TkShell.c     **** #include <timers.h>
  23:TkShell.c     **** #include <LedManager.h>
  24:TkShell.c     **** 
  25:TkShell.c     **** #define USBUART_BUFFER_SIZE (64u)
  26:TkShell.c     **** 
  27:TkShell.c     **** #define TK_SHELL_METHOD(c, verb)              int __tk_shell_ ## c ## _ ## verb(int __unused argc, 
  28:TkShell.c     **** #define TK_SHELL_COMMAND(name, desc)          {#name, (tk_shell_command_verb_s *)__tk_shell_verbs_ 
  29:TkShell.c     **** #define TK_SHELL_VERBS(name)                  const tk_shell_command_verb_s __tk_shell_verbs_ ## na
  30:TkShell.c     **** #define TK_SHELL_VERB(c, name, desc)          {#name, __tk_shell_ ## c ## _ ## name, desc}
ARM GAS  C:\Users\TERENC~1\AppData\Local\Temp\cc1rRXTX.s 			page 2


  31:TkShell.c     **** 
  32:TkShell.c     **** #define CMD_BUF_LEN 64
  33:TkShell.c     **** #define TK_SHELL_MAX_ARGS 10
  34:TkShell.c     **** 
  35:TkShell.c     **** typedef struct
  36:TkShell.c     **** {
  37:TkShell.c     ****   const char *name;
  38:TkShell.c     ****   int        (*func)(int argc, char **argv);
  39:TkShell.c     ****   const char *desc;
  40:TkShell.c     **** } tk_shell_command_verb_s;
  41:TkShell.c     **** 
  42:TkShell.c     **** typedef struct
  43:TkShell.c     **** {
  44:TkShell.c     ****   const char *name;
  45:TkShell.c     ****   tk_shell_command_verb_s *verbs;
  46:TkShell.c     ****   const char *desc;
  47:TkShell.c     **** } tk_shell_command_s;
  48:TkShell.c     **** 
  49:TkShell.c     **** 
  50:TkShell.c     **** static const uint32_t reg_lookup[] = 
  51:TkShell.c     **** {
  52:TkShell.c     ****     CYREG_PRT0_DR,  // 0
  53:TkShell.c     ****     CYREG_PRT1_DR,  // 1
  54:TkShell.c     ****     CYREG_PRT2_DR,  // 2
  55:TkShell.c     ****     CYREG_PRT3_DR,  // 3
  56:TkShell.c     ****     CYREG_PRT4_DR,  // 4
  57:TkShell.c     ****     CYREG_PRT5_DR,  // 5
  58:TkShell.c     ****     CYREG_PRT6_DR,  // 6
  59:TkShell.c     ****     CYREG_PRT7_DR,  // 7
  60:TkShell.c     ****     CYREG_PRT8_DR,  // 8
  61:TkShell.c     ****     CYREG_PRT9_DR,  // 9
  62:TkShell.c     ****     CYREG_PRT10_DR, // 10
  63:TkShell.c     ****     CYREG_PRT11_DR, // 11
  64:TkShell.c     ****     CYREG_PRT12_DR, // 12
  65:TkShell.c     ****     CYREG_PRT13_DR, // 13
  66:TkShell.c     **** };
  67:TkShell.c     **** TK_SHELL_METHOD(gpio, set);
  68:TkShell.c     **** TK_SHELL_METHOD(gpio, config);
  69:TkShell.c     **** TK_SHELL_METHOD(gpio, get);
  70:TkShell.c     **** static TK_SHELL_VERBS(gpio) =
  71:TkShell.c     **** {
  72:TkShell.c     ****     TK_SHELL_VERB(gpio, set, "set GPIO state"),
  73:TkShell.c     ****     TK_SHELL_VERB(gpio, config, "configure GPIO"),
  74:TkShell.c     ****     TK_SHELL_VERB(gpio, get, "get GPIO state"),
  75:TkShell.c     ****     { "", NULL, "" }
  76:TkShell.c     **** };
  77:TkShell.c     **** 
  78:TkShell.c     **** TK_SHELL_METHOD(wm, vol_set);
  79:TkShell.c     **** TK_SHELL_METHOD(wm, vol_get);
  80:TkShell.c     **** TK_SHELL_METHOD(wm, reg_wr);
  81:TkShell.c     **** TK_SHELL_METHOD(wm, reg_rd);
  82:TkShell.c     **** static TK_SHELL_VERBS(wm) =
  83:TkShell.c     **** {
  84:TkShell.c     ****     TK_SHELL_VERB(wm, vol_set, "set volume level <vol:uint8>"),
  85:TkShell.c     ****     TK_SHELL_VERB(wm, vol_get, "get volume level"),
  86:TkShell.c     ****     TK_SHELL_VERB(wm, reg_wr, "write register <reg:uint8,data:uint16>)"),
  87:TkShell.c     ****     TK_SHELL_VERB(wm, reg_rd, "read register <reg:uint8>"),
ARM GAS  C:\Users\TERENC~1\AppData\Local\Temp\cc1rRXTX.s 			page 3


  88:TkShell.c     ****     { "", NULL, "" }
  89:TkShell.c     **** };
  90:TkShell.c     **** 
  91:TkShell.c     **** TK_SHELL_METHOD(pcm, reg);
  92:TkShell.c     **** static TK_SHELL_VERBS(pcm) = 
  93:TkShell.c     **** {
  94:TkShell.c     ****     TK_SHELL_VERB(pcm, reg, "register read (rd) and write (wr) <reg:uint8,data:uint8>"),
  95:TkShell.c     ****     { "", NULL, "" }
  96:TkShell.c     **** };
  97:TkShell.c     **** 
  98:TkShell.c     **** TK_SHELL_METHOD(sys, crash);
  99:TkShell.c     **** TK_SHELL_METHOD(sys, info);
 100:TkShell.c     **** TK_SHELL_METHOD(sys, reset);
 101:TkShell.c     **** TK_SHELL_METHOD(sys, adc);
 102:TkShell.c     **** static TK_SHELL_VERBS(sys) = 
 103:TkShell.c     **** {
 104:TkShell.c     ****     TK_SHELL_VERB(sys, crash, "trigger a hard fault"),
 105:TkShell.c     ****     TK_SHELL_VERB(sys, info, "print info"),
 106:TkShell.c     ****     TK_SHELL_VERB(sys, reset, "trigger a SW reset"),
 107:TkShell.c     ****     TK_SHELL_VERB(sys, adc, "print ADC values"),
 108:TkShell.c     ****     { "", NULL, "" }
 109:TkShell.c     **** };
 110:TkShell.c     **** 
 111:TkShell.c     **** TK_SHELL_METHOD(led, pwm_period);
 112:TkShell.c     **** TK_SHELL_METHOD(led, start);
 113:TkShell.c     **** TK_SHELL_METHOD(led, stop);
 114:TkShell.c     **** static TK_SHELL_VERBS(led) =
 115:TkShell.c     **** {
 116:TkShell.c     ****     TK_SHELL_VERB(led, start, "start LED animation <led:red|green|blue> <period:uint32> <compare:ui
 117:TkShell.c     ****     TK_SHELL_VERB(led, stop, "stop LED animation <led:red|green|blue>"),
 118:TkShell.c     ****     { "", NULL, "" }
 119:TkShell.c     **** };
 120:TkShell.c     **** 
 121:TkShell.c     **** TK_SHELL_METHOD(cal, print);
 122:TkShell.c     **** TK_SHELL_METHOD(cal, set);
 123:TkShell.c     **** TK_SHELL_METHOD(cal, save);
 124:TkShell.c     **** static TK_SHELL_VERBS(cal) =
 125:TkShell.c     **** {
 126:TkShell.c     ****     TK_SHELL_VERB(cal, print, "print cal data"),
 127:TkShell.c     ****     TK_SHELL_VERB(cal, set, "set cal data"),
 128:TkShell.c     ****     TK_SHELL_VERB(cal, save, "commit cal data to flash"),
 129:TkShell.c     ****     { "", NULL, "" }
 130:TkShell.c     **** };
 131:TkShell.c     **** 
 132:TkShell.c     **** static const tk_shell_command_s commands[] = 
 133:TkShell.c     **** {
 134:TkShell.c     ****     TK_SHELL_COMMAND(gpio, "GPIO commands"),
 135:TkShell.c     ****     TK_SHELL_COMMAND(wm, "Wolfson Codec commands"),
 136:TkShell.c     ****     TK_SHELL_COMMAND(pcm, "Burr-Brown Codec commands"),
 137:TkShell.c     ****     TK_SHELL_COMMAND(sys, "System commands"),
 138:TkShell.c     ****     TK_SHELL_COMMAND(led, "LED commands"),
 139:TkShell.c     ****     TK_SHELL_COMMAND(cal, "Calibration data commands"),
 140:TkShell.c     ****     { "", NULL, "" }
 141:TkShell.c     **** };
 142:TkShell.c     **** 
 143:TkShell.c     **** static char cmd_buf[CMD_BUF_LEN];
 144:TkShell.c     **** static uint8_t cmd_char_count;
ARM GAS  C:\Users\TERENC~1\AppData\Local\Temp\cc1rRXTX.s 			page 4


 145:TkShell.c     **** 
 146:TkShell.c     **** ////////////////////////////////////////////////////////////////////////////////
 147:TkShell.c     **** int strcicmp(char const *a, char const *b)
 148:TkShell.c     **** {
 149:TkShell.c     ****     for (;; a++, b++)
 150:TkShell.c     ****     {
 151:TkShell.c     ****         int d = tolower(*a) - tolower(*b);
 152:TkShell.c     ****         if (d != 0 || !*a)
 153:TkShell.c     ****             return d;
 154:TkShell.c     ****     }
 155:TkShell.c     **** }
 156:TkShell.c     **** 
 157:TkShell.c     **** TK_SHELL_METHOD(gpio, set)
 158:TkShell.c     **** {
 159:TkShell.c     ****     uint32_t port, pin, state;
 160:TkShell.c     ****     int i = 2;
 161:TkShell.c     ****     
 162:TkShell.c     ****     argc -= i;
 163:TkShell.c     **** 
 164:TkShell.c     ****     if (argc != 3)
 165:TkShell.c     ****     {
 166:TkShell.c     ****         PRINTF("Invalid number of arguments!\n");
 167:TkShell.c     ****         return -1;
 168:TkShell.c     ****     }
 169:TkShell.c     ****     
 170:TkShell.c     ****     port = atoi(argv[i++]);
 171:TkShell.c     ****     pin = atoi(argv[i++]);
 172:TkShell.c     ****     state = atoi(argv[i]);
 173:TkShell.c     ****     
 174:TkShell.c     ****     CY_SYS_PINS_SET_DRIVE_MODE(reg_lookup[port], pin, CY_SYS_PINS_DM_STRONG);
 175:TkShell.c     **** 
 176:TkShell.c     ****     if (state)
 177:TkShell.c     ****     {
 178:TkShell.c     ****         CY_SYS_PINS_SET_PIN(reg_lookup[port], pin);
 179:TkShell.c     ****     }
 180:TkShell.c     ****     else
 181:TkShell.c     ****     {
 182:TkShell.c     ****         CY_SYS_PINS_CLEAR_PIN(reg_lookup[port], pin);
 183:TkShell.c     ****     }
 184:TkShell.c     ****     
 185:TkShell.c     ****     PRINTF("> gpio:ok %d\n", (int)CY_SYS_PINS_READ_PIN(reg_lookup[port], pin));
 186:TkShell.c     ****     return 0;
 187:TkShell.c     **** }
 188:TkShell.c     **** 
 189:TkShell.c     **** TK_SHELL_METHOD(gpio, config)
 190:TkShell.c     **** {
 191:TkShell.c     ****     uint32_t port, pin, mode;
 192:TkShell.c     ****     int i = 2;
 193:TkShell.c     ****     
 194:TkShell.c     ****     argc -= i;
 195:TkShell.c     **** 
 196:TkShell.c     ****     if (argc != 3)
 197:TkShell.c     ****     {
 198:TkShell.c     ****         PRINTF("Invalid number of arguments!\n");
 199:TkShell.c     ****         return -1;
 200:TkShell.c     ****     }
 201:TkShell.c     ****     
ARM GAS  C:\Users\TERENC~1\AppData\Local\Temp\cc1rRXTX.s 			page 5


 202:TkShell.c     ****     port = atoi(argv[i++]);
 203:TkShell.c     ****     pin = atoi(argv[i++]);
 204:TkShell.c     ****     mode = atoi(argv[i]);
 205:TkShell.c     ****     
 206:TkShell.c     ****     CY_SYS_PINS_SET_DRIVE_MODE(reg_lookup[port], pin, mode);
 207:TkShell.c     ****     
 208:TkShell.c     ****     return 0;
 209:TkShell.c     **** }
 210:TkShell.c     **** 
 211:TkShell.c     **** TK_SHELL_METHOD(gpio, get)
 212:TkShell.c     **** {
 213:TkShell.c     ****     uint32_t port, pin;
 214:TkShell.c     ****     int i = 2;
 215:TkShell.c     ****     
 216:TkShell.c     ****     argc -= i;
 217:TkShell.c     **** 
 218:TkShell.c     ****     if (argc != 2)
 219:TkShell.c     ****     {
 220:TkShell.c     ****         PRINTF("Invalid number of arguments!\n");
 221:TkShell.c     ****         return -1;
 222:TkShell.c     ****     }
 223:TkShell.c     ****     
 224:TkShell.c     ****     port = atoi(argv[i++]);
 225:TkShell.c     ****     pin = atoi(argv[i]);
 226:TkShell.c     ****     
 227:TkShell.c     ****     PRINTF("> gpio:ok %d\n", (int)CY_SYS_PINS_READ_PIN(reg_lookup[port], pin));
 228:TkShell.c     ****     
 229:TkShell.c     ****     return 0;
 230:TkShell.c     **** }
 231:TkShell.c     **** 
 232:TkShell.c     **** TK_SHELL_METHOD(wm, vol_set)
 233:TkShell.c     **** {
 234:TkShell.c     ****     int vol;
 235:TkShell.c     ****     int i = 2;
 236:TkShell.c     ****     uint8_t rv;
 237:TkShell.c     ****     
 238:TkShell.c     ****     argc -= i;
 239:TkShell.c     ****     
 240:TkShell.c     ****     if (argc != 1)
 241:TkShell.c     ****     {
 242:TkShell.c     ****         PRINTF("Invalid number of arguments!\n");
 243:TkShell.c     ****         return -1;
 244:TkShell.c     ****     }
 245:TkShell.c     **** 
 246:TkShell.c     ****     vol = atoi(argv[i++]);
 247:TkShell.c     **** 
 248:TkShell.c     ****     if ((rv = Codec_AdjustBothHeadphoneVolume(vol)) == 0)
 249:TkShell.c     ****     {
 250:TkShell.c     ****         PRINTF("> wm:ok\n");
 251:TkShell.c     ****     }
 252:TkShell.c     ****     else
 253:TkShell.c     ****     {
 254:TkShell.c     ****         PRINTF("> wm:er %d\n", rv);
 255:TkShell.c     ****         return -2;
 256:TkShell.c     ****     }
 257:TkShell.c     **** 
 258:TkShell.c     ****     return 0;
ARM GAS  C:\Users\TERENC~1\AppData\Local\Temp\cc1rRXTX.s 			page 6


 259:TkShell.c     **** }
 260:TkShell.c     **** 
 261:TkShell.c     **** TK_SHELL_METHOD(wm, vol_get)
 262:TkShell.c     **** {
 263:TkShell.c     ****     PRINTF("> wm:ok %d\n", (int)Codec_GetHeadphoneVolume());
 264:TkShell.c     **** 
 265:TkShell.c     ****     return 0;
 266:TkShell.c     **** }
 267:TkShell.c     **** 
 268:TkShell.c     **** TK_SHELL_METHOD(wm, reg_wr)
 269:TkShell.c     **** {
 270:TkShell.c     ****     int i = 2;
 271:TkShell.c     ****     uint8_t reg;
 272:TkShell.c     ****     uint16_t data;
 273:TkShell.c     ****     int rv;
 274:TkShell.c     ****     
 275:TkShell.c     ****     argc -= i;
 276:TkShell.c     ****     
 277:TkShell.c     ****     if (argc != 2)
 278:TkShell.c     ****     {
 279:TkShell.c     ****         PRINTF("Invalid number of arguments!\n");
 280:TkShell.c     ****         return -1;
 281:TkShell.c     ****     }
 282:TkShell.c     ****     
 283:TkShell.c     ****     reg = atoi(argv[i++]);
 284:TkShell.c     ****     data = strtoul(argv[i++], NULL, 16);
 285:TkShell.c     ****     
 286:TkShell.c     ****     if ((rv = Codec_SendData(reg, data)) == 0)
 287:TkShell.c     ****     {
 288:TkShell.c     ****         PRINTF("> wm:ok\n");
 289:TkShell.c     ****     }
 290:TkShell.c     ****     else
 291:TkShell.c     ****     {
 292:TkShell.c     ****         PRINTF("> wm:er %d\n", rv);
 293:TkShell.c     ****         return -2;
 294:TkShell.c     ****     }
 295:TkShell.c     ****     
 296:TkShell.c     ****     return 0;
 297:TkShell.c     **** }
 298:TkShell.c     **** 
 299:TkShell.c     **** TK_SHELL_METHOD(wm, reg_rd)
 300:TkShell.c     **** {
 301:TkShell.c     ****     int i = 2;
 302:TkShell.c     ****     uint8_t reg;
 303:TkShell.c     ****     
 304:TkShell.c     ****     argc -= i;
 305:TkShell.c     ****     
 306:TkShell.c     ****     if (argc != 1)
 307:TkShell.c     ****     {
 308:TkShell.c     ****         PRINTF("Invalid number of arguments!\n");
 309:TkShell.c     ****         return -1;
 310:TkShell.c     ****     }
 311:TkShell.c     ****     
 312:TkShell.c     ****     reg = atoi(argv[i++]);
 313:TkShell.c     ****     
 314:TkShell.c     ****     PRINTF("> wm:ok 0x%04X\n", Codec_GetData(reg));
 315:TkShell.c     ****     
ARM GAS  C:\Users\TERENC~1\AppData\Local\Temp\cc1rRXTX.s 			page 7


 316:TkShell.c     ****     return 0;
 317:TkShell.c     **** }
 318:TkShell.c     **** 
 319:TkShell.c     **** TK_SHELL_METHOD(pcm, reg)
 320:TkShell.c     **** {
 321:TkShell.c     ****     int i = 2;
 322:TkShell.c     ****     uint8 reg;
 323:TkShell.c     ****     uint8 data;
 324:TkShell.c     ****     
 325:TkShell.c     ****     argc -= i;
 326:TkShell.c     ****     
 327:TkShell.c     ****     if (argc != 3)
 328:TkShell.c     ****     {
 329:TkShell.c     ****         PRINTF("Invalid number of arguments: %d\n", argc);
 330:TkShell.c     ****         return -1;
 331:TkShell.c     ****     }
 332:TkShell.c     **** 
 333:TkShell.c     ****     reg = atoi(argv[i + 1]);
 334:TkShell.c     ****     data = strtoul(argv[i + 2], NULL, 16);
 335:TkShell.c     **** 
 336:TkShell.c     ****     if (strcicmp(argv[i], "wr") == 0)
 337:TkShell.c     ****     {
 338:TkShell.c     ****         pcm1770_reg_write(reg, data);
 339:TkShell.c     ****     }
 340:TkShell.c     ****     
 341:TkShell.c     ****     PRINTF("> pcm:ok 0x%02X\n", pcm1770_reg_read(reg));
 342:TkShell.c     ****     
 343:TkShell.c     ****     return 0;
 344:TkShell.c     **** }
 345:TkShell.c     **** 
 346:TkShell.c     **** TK_SHELL_METHOD(sys, crash)
 347:TkShell.c     **** {
  28              		.loc 1 347 0
  29              		.cfi_startproc
  30              		@ args = 0, pretend = 0, frame = 0
  31              		@ frame_needed = 0, uses_anonymous_args = 0
  32              	.LVL0:
  33 0000 10B5     		push	{r4, lr}
  34              		.cfi_def_cfa_offset 8
  35              		.cfi_offset 4, -8
  36              		.cfi_offset 14, -4
  37              	.LVL1:
 348:TkShell.c     ****     void (*fp)(void) = NULL;
 349:TkShell.c     ****     
 350:TkShell.c     ****     fp();
  38              		.loc 1 350 0
  39 0002 0023     		movs	r3, #0
  40 0004 9847     		blx	r3
  41              	.LVL2:
 351:TkShell.c     ****     
 352:TkShell.c     ****     PRINTF("> sys:er\n");
  42              		.loc 1 352 0
  43 0006 FFF7FEFF 		bl	USBUART_GetConfiguration
  44              	.LVL3:
  45 000a 0028     		cmp	r0, #0
  46 000c 0CD0     		beq	.L2
  47              	.L3:
ARM GAS  C:\Users\TERENC~1\AppData\Local\Temp\cc1rRXTX.s 			page 8


  48              		.loc 1 352 0 is_stmt 0 discriminator 1
  49 000e FFF7FEFF 		bl	USBUART_CDCIsReady
  50              	.LVL4:
  51 0012 0028     		cmp	r0, #0
  52 0014 FBD0     		beq	.L3
  53              		.loc 1 352 0 discriminator 2
  54 0016 054C     		ldr	r4, .L4
  55 0018 0A22     		movs	r2, #10
  56 001a 0549     		ldr	r1, .L4+4
  57 001c 2000     		movs	r0, r4
  58 001e FFF7FEFF 		bl	memcpy
  59              	.LVL5:
  60 0022 2000     		movs	r0, r4
  61 0024 FFF7FEFF 		bl	USBUART_PutString
  62              	.LVL6:
  63              	.L2:
 353:TkShell.c     ****     
 354:TkShell.c     ****     return 0;
 355:TkShell.c     **** }
  64              		.loc 1 355 0 is_stmt 1
  65 0028 0020     		movs	r0, #0
  66              		@ sp needed
  67 002a 10BD     		pop	{r4, pc}
  68              	.L5:
  69              		.align	2
  70              	.L4:
  71 002c 00000000 		.word	gbuf
  72 0030 00000000 		.word	.LC1
  73              		.cfi_endproc
  74              	.LFE11:
  75              		.size	__tk_shell_sys_crash, .-__tk_shell_sys_crash
  76              		.section	.text.__tk_shell_gpio_config,"ax",%progbits
  77              		.align	2
  78              		.global	__tk_shell_gpio_config
  79              		.code	16
  80              		.thumb_func
  81              		.type	__tk_shell_gpio_config, %function
  82              	__tk_shell_gpio_config:
  83              	.LFB4:
 190:TkShell.c     ****     uint32_t port, pin, mode;
  84              		.loc 1 190 0
  85              		.cfi_startproc
  86              		@ args = 0, pretend = 0, frame = 0
  87              		@ frame_needed = 0, uses_anonymous_args = 0
  88              	.LVL7:
  89 0000 70B5     		push	{r4, r5, r6, lr}
  90              		.cfi_def_cfa_offset 16
  91              		.cfi_offset 4, -16
  92              		.cfi_offset 5, -12
  93              		.cfi_offset 6, -8
  94              		.cfi_offset 14, -4
  95 0002 0C00     		movs	r4, r1
  96              	.LVL8:
 196:TkShell.c     ****     {
  97              		.loc 1 196 0
  98 0004 0528     		cmp	r0, #5
  99 0006 13D0     		beq	.L7
ARM GAS  C:\Users\TERENC~1\AppData\Local\Temp\cc1rRXTX.s 			page 9


 198:TkShell.c     ****         return -1;
 100              		.loc 1 198 0
 101 0008 FFF7FEFF 		bl	USBUART_GetConfiguration
 102              	.LVL9:
 103 000c 0028     		cmp	r0, #0
 104 000e 28D0     		beq	.L10
 105              	.L9:
 198:TkShell.c     ****         return -1;
 106              		.loc 1 198 0 is_stmt 0 discriminator 1
 107 0010 FFF7FEFF 		bl	USBUART_CDCIsReady
 108              	.LVL10:
 109 0014 0028     		cmp	r0, #0
 110 0016 FBD0     		beq	.L9
 198:TkShell.c     ****         return -1;
 111              		.loc 1 198 0 discriminator 2
 112 0018 134C     		ldr	r4, .L11
 113              	.LVL11:
 114 001a 1E22     		movs	r2, #30
 115 001c 1349     		ldr	r1, .L11+4
 116 001e 2000     		movs	r0, r4
 117 0020 FFF7FEFF 		bl	memcpy
 118              	.LVL12:
 119 0024 2000     		movs	r0, r4
 120 0026 FFF7FEFF 		bl	USBUART_PutString
 121              	.LVL13:
 199:TkShell.c     ****     }
 122              		.loc 1 199 0 is_stmt 1 discriminator 2
 123 002a 0120     		movs	r0, #1
 124 002c 4042     		rsbs	r0, r0, #0
 125 002e 1AE0     		b	.L8
 126              	.LVL14:
 127              	.L7:
 202:TkShell.c     ****     pin = atoi(argv[i++]);
 128              		.loc 1 202 0
 129 0030 8868     		ldr	r0, [r1, #8]
 130              	.LVL15:
 131 0032 FFF7FEFF 		bl	atoi
 132              	.LVL16:
 133 0036 0600     		movs	r6, r0
 134              	.LVL17:
 203:TkShell.c     ****     mode = atoi(argv[i]);
 135              		.loc 1 203 0
 136 0038 E068     		ldr	r0, [r4, #12]
 137              	.LVL18:
 138 003a FFF7FEFF 		bl	atoi
 139              	.LVL19:
 140 003e 0500     		movs	r5, r0
 141              	.LVL20:
 204:TkShell.c     ****     
 142              		.loc 1 204 0
 143 0040 2069     		ldr	r0, [r4, #16]
 144              	.LVL21:
 145 0042 FFF7FEFF 		bl	atoi
 146              	.LVL22:
 206:TkShell.c     ****     
 147              		.loc 1 206 0
 148 0046 B600     		lsls	r6, r6, #2
ARM GAS  C:\Users\TERENC~1\AppData\Local\Temp\cc1rRXTX.s 			page 10


 149              	.LVL23:
 150 0048 094B     		ldr	r3, .L11+8
 151 004a F158     		ldr	r1, [r6, r3]
 152 004c 0B68     		ldr	r3, [r1]
 153 004e 6A00     		lsls	r2, r5, #1
 154 0050 5519     		adds	r5, r2, r5
 155              	.LVL24:
 156 0052 0722     		movs	r2, #7
 157 0054 AA40     		lsls	r2, r2, r5
 158 0056 9343     		bics	r3, r2
 159 0058 A840     		lsls	r0, r0, r5
 160              	.LVL25:
 161 005a 1843     		orrs	r0, r3
 162 005c 0860     		str	r0, [r1]
 208:TkShell.c     **** }
 163              		.loc 1 208 0
 164 005e 0020     		movs	r0, #0
 165 0060 01E0     		b	.L8
 166              	.LVL26:
 167              	.L10:
 199:TkShell.c     ****     }
 168              		.loc 1 199 0
 169 0062 0120     		movs	r0, #1
 170 0064 4042     		rsbs	r0, r0, #0
 171              	.LVL27:
 172              	.L8:
 209:TkShell.c     **** 
 173              		.loc 1 209 0
 174              		@ sp needed
 175 0066 70BD     		pop	{r4, r5, r6, pc}
 176              	.L12:
 177              		.align	2
 178              	.L11:
 179 0068 00000000 		.word	gbuf
 180 006c 0C000000 		.word	.LC4
 181 0070 00000000 		.word	.LANCHOR0
 182              		.cfi_endproc
 183              	.LFE4:
 184              		.size	__tk_shell_gpio_config, .-__tk_shell_gpio_config
 185              		.section	.text.__tk_shell_gpio_set,"ax",%progbits
 186              		.align	2
 187              		.global	__tk_shell_gpio_set
 188              		.code	16
 189              		.thumb_func
 190              		.type	__tk_shell_gpio_set, %function
 191              	__tk_shell_gpio_set:
 192              	.LFB3:
 158:TkShell.c     ****     uint32_t port, pin, state;
 193              		.loc 1 158 0
 194              		.cfi_startproc
 195              		@ args = 0, pretend = 0, frame = 0
 196              		@ frame_needed = 0, uses_anonymous_args = 0
 197              	.LVL28:
 198 0000 70B5     		push	{r4, r5, r6, lr}
 199              		.cfi_def_cfa_offset 16
 200              		.cfi_offset 4, -16
 201              		.cfi_offset 5, -12
ARM GAS  C:\Users\TERENC~1\AppData\Local\Temp\cc1rRXTX.s 			page 11


 202              		.cfi_offset 6, -8
 203              		.cfi_offset 14, -4
 204 0002 0C00     		movs	r4, r1
 205              	.LVL29:
 164:TkShell.c     ****     {
 206              		.loc 1 164 0
 207 0004 0528     		cmp	r0, #5
 208 0006 13D0     		beq	.L14
 166:TkShell.c     ****         return -1;
 209              		.loc 1 166 0
 210 0008 FFF7FEFF 		bl	USBUART_GetConfiguration
 211              	.LVL30:
 212 000c 0028     		cmp	r0, #0
 213 000e 4BD0     		beq	.L20
 214              	.L16:
 166:TkShell.c     ****         return -1;
 215              		.loc 1 166 0 is_stmt 0 discriminator 1
 216 0010 FFF7FEFF 		bl	USBUART_CDCIsReady
 217              	.LVL31:
 218 0014 0028     		cmp	r0, #0
 219 0016 FBD0     		beq	.L16
 166:TkShell.c     ****         return -1;
 220              		.loc 1 166 0 discriminator 2
 221 0018 264C     		ldr	r4, .L22
 222              	.LVL32:
 223 001a 1E22     		movs	r2, #30
 224 001c 2649     		ldr	r1, .L22+4
 225 001e 2000     		movs	r0, r4
 226 0020 FFF7FEFF 		bl	memcpy
 227              	.LVL33:
 228 0024 2000     		movs	r0, r4
 229 0026 FFF7FEFF 		bl	USBUART_PutString
 230              	.LVL34:
 167:TkShell.c     ****     }
 231              		.loc 1 167 0 is_stmt 1 discriminator 2
 232 002a 0120     		movs	r0, #1
 233 002c 4042     		rsbs	r0, r0, #0
 234 002e 3FE0     		b	.L15
 235              	.LVL35:
 236              	.L14:
 170:TkShell.c     ****     pin = atoi(argv[i++]);
 237              		.loc 1 170 0
 238 0030 8868     		ldr	r0, [r1, #8]
 239              	.LVL36:
 240 0032 FFF7FEFF 		bl	atoi
 241              	.LVL37:
 242 0036 0600     		movs	r6, r0
 243              	.LVL38:
 171:TkShell.c     ****     state = atoi(argv[i]);
 244              		.loc 1 171 0
 245 0038 E068     		ldr	r0, [r4, #12]
 246              	.LVL39:
 247 003a FFF7FEFF 		bl	atoi
 248              	.LVL40:
 249 003e 0500     		movs	r5, r0
 250              	.LVL41:
 172:TkShell.c     ****     
ARM GAS  C:\Users\TERENC~1\AppData\Local\Temp\cc1rRXTX.s 			page 12


 251              		.loc 1 172 0
 252 0040 2069     		ldr	r0, [r4, #16]
 253              	.LVL42:
 254 0042 FFF7FEFF 		bl	atoi
 255              	.LVL43:
 174:TkShell.c     **** 
 256              		.loc 1 174 0
 257 0046 B600     		lsls	r6, r6, #2
 258              	.LVL44:
 259 0048 1C4B     		ldr	r3, .L22+8
 260 004a F458     		ldr	r4, [r6, r3]
 261              	.LVL45:
 262 004c 2368     		ldr	r3, [r4]
 263 004e 6A00     		lsls	r2, r5, #1
 264 0050 5219     		adds	r2, r2, r5
 265 0052 0721     		movs	r1, #7
 266 0054 9140     		lsls	r1, r1, r2
 267 0056 8B43     		bics	r3, r1
 268 0058 1900     		movs	r1, r3
 269 005a 0623     		movs	r3, #6
 270 005c 9340     		lsls	r3, r3, r2
 271 005e 0B43     		orrs	r3, r1
 272 0060 2360     		str	r3, [r4]
 176:TkShell.c     ****     {
 273              		.loc 1 176 0
 274 0062 0028     		cmp	r0, #0
 275 0064 05D0     		beq	.L17
 178:TkShell.c     ****     }
 276              		.loc 1 178 0
 277 0066 2268     		ldr	r2, [r4]
 278 0068 0123     		movs	r3, #1
 279 006a AB40     		lsls	r3, r3, r5
 280 006c 1343     		orrs	r3, r2
 281 006e 2360     		str	r3, [r4]
 282 0070 04E0     		b	.L18
 283              	.L17:
 182:TkShell.c     ****     }
 284              		.loc 1 182 0
 285 0072 2368     		ldr	r3, [r4]
 286 0074 0122     		movs	r2, #1
 287 0076 AA40     		lsls	r2, r2, r5
 288 0078 9343     		bics	r3, r2
 289 007a 2360     		str	r3, [r4]
 290              	.L18:
 185:TkShell.c     ****     return 0;
 291              		.loc 1 185 0
 292 007c FFF7FEFF 		bl	USBUART_GetConfiguration
 293              	.LVL46:
 294 0080 0028     		cmp	r0, #0
 295 0082 14D0     		beq	.L21
 296              	.L19:
 185:TkShell.c     ****     return 0;
 297              		.loc 1 185 0 is_stmt 0 discriminator 1
 298 0084 FFF7FEFF 		bl	USBUART_CDCIsReady
 299              	.LVL47:
 300 0088 0028     		cmp	r0, #0
 301 008a FBD0     		beq	.L19
ARM GAS  C:\Users\TERENC~1\AppData\Local\Temp\cc1rRXTX.s 			page 13


 185:TkShell.c     ****     return 0;
 302              		.loc 1 185 0 discriminator 2
 303 008c 2268     		ldr	r2, [r4]
 304 008e EA40     		lsrs	r2, r2, r5
 305 0090 0123     		movs	r3, #1
 306 0092 1A40     		ands	r2, r3
 307 0094 074C     		ldr	r4, .L22
 308 0096 0A49     		ldr	r1, .L22+12
 309 0098 2000     		movs	r0, r4
 310 009a FFF7FEFF 		bl	sprintf
 311              	.LVL48:
 312 009e 2000     		movs	r0, r4
 313 00a0 FFF7FEFF 		bl	USBUART_PutString
 314              	.LVL49:
 186:TkShell.c     **** }
 315              		.loc 1 186 0 is_stmt 1 discriminator 2
 316 00a4 0020     		movs	r0, #0
 317 00a6 03E0     		b	.L15
 318              	.LVL50:
 319              	.L20:
 167:TkShell.c     ****     }
 320              		.loc 1 167 0
 321 00a8 0120     		movs	r0, #1
 322 00aa 4042     		rsbs	r0, r0, #0
 323 00ac 00E0     		b	.L15
 324              	.LVL51:
 325              	.L21:
 186:TkShell.c     **** }
 326              		.loc 1 186 0
 327 00ae 0020     		movs	r0, #0
 328              	.LVL52:
 329              	.L15:
 187:TkShell.c     **** 
 330              		.loc 1 187 0
 331              		@ sp needed
 332 00b0 70BD     		pop	{r4, r5, r6, pc}
 333              	.L23:
 334 00b2 C046     		.align	2
 335              	.L22:
 336 00b4 00000000 		.word	gbuf
 337 00b8 0C000000 		.word	.LC4
 338 00bc 00000000 		.word	.LANCHOR0
 339 00c0 2C000000 		.word	.LC10
 340              		.cfi_endproc
 341              	.LFE3:
 342              		.size	__tk_shell_gpio_set, .-__tk_shell_gpio_set
 343              		.section	.text.__tk_shell_gpio_get,"ax",%progbits
 344              		.align	2
 345              		.global	__tk_shell_gpio_get
 346              		.code	16
 347              		.thumb_func
 348              		.type	__tk_shell_gpio_get, %function
 349              	__tk_shell_gpio_get:
 350              	.LFB5:
 212:TkShell.c     ****     uint32_t port, pin;
 351              		.loc 1 212 0
 352              		.cfi_startproc
ARM GAS  C:\Users\TERENC~1\AppData\Local\Temp\cc1rRXTX.s 			page 14


 353              		@ args = 0, pretend = 0, frame = 0
 354              		@ frame_needed = 0, uses_anonymous_args = 0
 355              	.LVL53:
 356 0000 70B5     		push	{r4, r5, r6, lr}
 357              		.cfi_def_cfa_offset 16
 358              		.cfi_offset 4, -16
 359              		.cfi_offset 5, -12
 360              		.cfi_offset 6, -8
 361              		.cfi_offset 14, -4
 362 0002 0C00     		movs	r4, r1
 363              	.LVL54:
 218:TkShell.c     ****     {
 364              		.loc 1 218 0
 365 0004 0428     		cmp	r0, #4
 366 0006 13D0     		beq	.L25
 220:TkShell.c     ****         return -1;
 367              		.loc 1 220 0
 368 0008 FFF7FEFF 		bl	USBUART_GetConfiguration
 369              	.LVL55:
 370 000c 0028     		cmp	r0, #0
 371 000e 30D0     		beq	.L29
 372              	.L27:
 220:TkShell.c     ****         return -1;
 373              		.loc 1 220 0 is_stmt 0 discriminator 1
 374 0010 FFF7FEFF 		bl	USBUART_CDCIsReady
 375              	.LVL56:
 376 0014 0028     		cmp	r0, #0
 377 0016 FBD0     		beq	.L27
 220:TkShell.c     ****         return -1;
 378              		.loc 1 220 0 discriminator 2
 379 0018 184C     		ldr	r4, .L31
 380              	.LVL57:
 381 001a 1E22     		movs	r2, #30
 382 001c 1849     		ldr	r1, .L31+4
 383 001e 2000     		movs	r0, r4
 384 0020 FFF7FEFF 		bl	memcpy
 385              	.LVL58:
 386 0024 2000     		movs	r0, r4
 387 0026 FFF7FEFF 		bl	USBUART_PutString
 388              	.LVL59:
 221:TkShell.c     ****     }
 389              		.loc 1 221 0 is_stmt 1 discriminator 2
 390 002a 0120     		movs	r0, #1
 391 002c 4042     		rsbs	r0, r0, #0
 392 002e 24E0     		b	.L26
 393              	.LVL60:
 394              	.L25:
 224:TkShell.c     ****     pin = atoi(argv[i]);
 395              		.loc 1 224 0
 396 0030 8868     		ldr	r0, [r1, #8]
 397              	.LVL61:
 398 0032 FFF7FEFF 		bl	atoi
 399              	.LVL62:
 400 0036 0500     		movs	r5, r0
 401              	.LVL63:
 225:TkShell.c     ****     
 402              		.loc 1 225 0
ARM GAS  C:\Users\TERENC~1\AppData\Local\Temp\cc1rRXTX.s 			page 15


 403 0038 E068     		ldr	r0, [r4, #12]
 404              	.LVL64:
 405 003a FFF7FEFF 		bl	atoi
 406              	.LVL65:
 407 003e 0400     		movs	r4, r0
 408              	.LVL66:
 227:TkShell.c     ****     
 409              		.loc 1 227 0
 410 0040 FFF7FEFF 		bl	USBUART_GetConfiguration
 411              	.LVL67:
 412 0044 0028     		cmp	r0, #0
 413 0046 17D0     		beq	.L30
 414              	.L28:
 227:TkShell.c     ****     
 415              		.loc 1 227 0 is_stmt 0 discriminator 1
 416 0048 FFF7FEFF 		bl	USBUART_CDCIsReady
 417              	.LVL68:
 418 004c 0028     		cmp	r0, #0
 419 004e FBD0     		beq	.L28
 227:TkShell.c     ****     
 420              		.loc 1 227 0 discriminator 2
 421 0050 AD00     		lsls	r5, r5, #2
 422              	.LVL69:
 423 0052 0C4B     		ldr	r3, .L31+8
 424 0054 EB58     		ldr	r3, [r5, r3]
 425 0056 1A68     		ldr	r2, [r3]
 426 0058 E240     		lsrs	r2, r2, r4
 427 005a 0123     		movs	r3, #1
 428 005c 1A40     		ands	r2, r3
 429 005e 074C     		ldr	r4, .L31
 430              	.LVL70:
 431 0060 0949     		ldr	r1, .L31+12
 432 0062 2000     		movs	r0, r4
 433 0064 FFF7FEFF 		bl	sprintf
 434              	.LVL71:
 435 0068 2000     		movs	r0, r4
 436 006a FFF7FEFF 		bl	USBUART_PutString
 437              	.LVL72:
 229:TkShell.c     **** }
 438              		.loc 1 229 0 is_stmt 1 discriminator 2
 439 006e 0020     		movs	r0, #0
 440 0070 03E0     		b	.L26
 441              	.LVL73:
 442              	.L29:
 221:TkShell.c     ****     }
 443              		.loc 1 221 0
 444 0072 0120     		movs	r0, #1
 445 0074 4042     		rsbs	r0, r0, #0
 446 0076 00E0     		b	.L26
 447              	.LVL74:
 448              	.L30:
 229:TkShell.c     **** }
 449              		.loc 1 229 0
 450 0078 0020     		movs	r0, #0
 451              	.LVL75:
 452              	.L26:
 230:TkShell.c     **** 
ARM GAS  C:\Users\TERENC~1\AppData\Local\Temp\cc1rRXTX.s 			page 16


 453              		.loc 1 230 0
 454              		@ sp needed
 455 007a 70BD     		pop	{r4, r5, r6, pc}
 456              	.L32:
 457              		.align	2
 458              	.L31:
 459 007c 00000000 		.word	gbuf
 460 0080 0C000000 		.word	.LC4
 461 0084 00000000 		.word	.LANCHOR0
 462 0088 2C000000 		.word	.LC10
 463              		.cfi_endproc
 464              	.LFE5:
 465              		.size	__tk_shell_gpio_get, .-__tk_shell_gpio_get
 466              		.section	.text.__tk_shell_sys_info,"ax",%progbits
 467              		.align	2
 468              		.global	__tk_shell_sys_info
 469              		.code	16
 470              		.thumb_func
 471              		.type	__tk_shell_sys_info, %function
 472              	__tk_shell_sys_info:
 473              	.LFB12:
 356:TkShell.c     **** 
 357:TkShell.c     **** TK_SHELL_METHOD(sys, info)
 358:TkShell.c     **** {
 474              		.loc 1 358 0
 475              		.cfi_startproc
 476              		@ args = 0, pretend = 0, frame = 0
 477              		@ frame_needed = 0, uses_anonymous_args = 0
 478              	.LVL76:
 479 0000 10B5     		push	{r4, lr}
 480              		.cfi_def_cfa_offset 8
 481              		.cfi_offset 4, -8
 482              		.cfi_offset 14, -4
 359:TkShell.c     ****     PRINTF("> sys:ok %08lu\n", (unsigned long)tmrGetCounter_ms());
 483              		.loc 1 359 0
 484 0002 FFF7FEFF 		bl	USBUART_GetConfiguration
 485              	.LVL77:
 486 0006 0028     		cmp	r0, #0
 487 0008 0DD0     		beq	.L34
 488              	.L35:
 489              		.loc 1 359 0 is_stmt 0 discriminator 1
 490 000a FFF7FEFF 		bl	USBUART_CDCIsReady
 491              	.LVL78:
 492 000e 0028     		cmp	r0, #0
 493 0010 FBD0     		beq	.L35
 494              		.loc 1 359 0 discriminator 2
 495 0012 064B     		ldr	r3, .L36
 496 0014 1A68     		ldr	r2, [r3]
 497 0016 064C     		ldr	r4, .L36+4
 498 0018 0649     		ldr	r1, .L36+8
 499 001a 2000     		movs	r0, r4
 500 001c FFF7FEFF 		bl	sprintf
 501              	.LVL79:
 502 0020 2000     		movs	r0, r4
 503 0022 FFF7FEFF 		bl	USBUART_PutString
 504              	.LVL80:
 505              	.L34:
ARM GAS  C:\Users\TERENC~1\AppData\Local\Temp\cc1rRXTX.s 			page 17


 360:TkShell.c     **** 
 361:TkShell.c     ****     return 0;
 362:TkShell.c     **** }
 506              		.loc 1 362 0 is_stmt 1
 507 0026 0020     		movs	r0, #0
 508              		@ sp needed
 509 0028 10BD     		pop	{r4, pc}
 510              	.L37:
 511 002a C046     		.align	2
 512              	.L36:
 513 002c 00000000 		.word	tmrCounter_ms
 514 0030 00000000 		.word	gbuf
 515 0034 3C000000 		.word	.LC17
 516              		.cfi_endproc
 517              	.LFE12:
 518              		.size	__tk_shell_sys_info, .-__tk_shell_sys_info
 519              		.section	.text.__tk_shell_sys_adc,"ax",%progbits
 520              		.align	2
 521              		.global	__tk_shell_sys_adc
 522              		.code	16
 523              		.thumb_func
 524              		.type	__tk_shell_sys_adc, %function
 525              	__tk_shell_sys_adc:
 526              	.LFB14:
 363:TkShell.c     **** 
 364:TkShell.c     **** TK_SHELL_METHOD(sys, reset)
 365:TkShell.c     **** {
 366:TkShell.c     ****     CySoftwareReset();
 367:TkShell.c     ****     
 368:TkShell.c     ****     return 0;
 369:TkShell.c     **** }
 370:TkShell.c     **** 
 371:TkShell.c     **** TK_SHELL_METHOD(sys, adc)
 372:TkShell.c     **** {
 527              		.loc 1 372 0
 528              		.cfi_startproc
 529              		@ args = 0, pretend = 0, frame = 0
 530              		@ frame_needed = 0, uses_anonymous_args = 0
 531              	.LVL81:
 532 0000 10B5     		push	{r4, lr}
 533              		.cfi_def_cfa_offset 8
 534              		.cfi_offset 4, -8
 535              		.cfi_offset 14, -4
 373:TkShell.c     ****     PRINTF("> sys:ok %d,%d\n", adcSample[vol_ctrl_left], adcSample[vol_ctrl_right]);
 536              		.loc 1 373 0
 537 0002 FFF7FEFF 		bl	USBUART_GetConfiguration
 538              	.LVL82:
 539 0006 0028     		cmp	r0, #0
 540 0008 10D0     		beq	.L39
 541              	.L40:
 542              		.loc 1 373 0 is_stmt 0 discriminator 1
 543 000a FFF7FEFF 		bl	USBUART_CDCIsReady
 544              	.LVL83:
 545 000e 0028     		cmp	r0, #0
 546 0010 FBD0     		beq	.L40
 547              		.loc 1 373 0 discriminator 2
 548 0012 074B     		ldr	r3, .L41
ARM GAS  C:\Users\TERENC~1\AppData\Local\Temp\cc1rRXTX.s 			page 18


 549 0014 0221     		movs	r1, #2
 550 0016 5A5E     		ldrsh	r2, [r3, r1]
 551 0018 0021     		movs	r1, #0
 552 001a 5B5E     		ldrsh	r3, [r3, r1]
 553 001c 054C     		ldr	r4, .L41+4
 554 001e 0649     		ldr	r1, .L41+8
 555 0020 2000     		movs	r0, r4
 556 0022 FFF7FEFF 		bl	sprintf
 557              	.LVL84:
 558 0026 2000     		movs	r0, r4
 559 0028 FFF7FEFF 		bl	USBUART_PutString
 560              	.LVL85:
 561              	.L39:
 374:TkShell.c     ****     
 375:TkShell.c     ****     return 0;
 376:TkShell.c     **** }
 562              		.loc 1 376 0 is_stmt 1
 563 002c 0020     		movs	r0, #0
 564              		@ sp needed
 565 002e 10BD     		pop	{r4, pc}
 566              	.L42:
 567              		.align	2
 568              	.L41:
 569 0030 00000000 		.word	adcSample
 570 0034 00000000 		.word	gbuf
 571 0038 4C000000 		.word	.LC21
 572              		.cfi_endproc
 573              	.LFE14:
 574              		.size	__tk_shell_sys_adc, .-__tk_shell_sys_adc
 575              		.section	.text.__tk_shell_cal_print,"ax",%progbits
 576              		.align	2
 577              		.global	__tk_shell_cal_print
 578              		.code	16
 579              		.thumb_func
 580              		.type	__tk_shell_cal_print, %function
 581              	__tk_shell_cal_print:
 582              	.LFB17:
 377:TkShell.c     **** 
 378:TkShell.c     **** TK_SHELL_METHOD(led, start)
 379:TkShell.c     **** {
 380:TkShell.c     ****     int i = 2;
 381:TkShell.c     ****     LM_LED_e ledIdx = LM_LED_MAX;
 382:TkShell.c     ****     uint32_t pwmPeriod, pwmCompare, pwmCounter;
 383:TkShell.c     ****     
 384:TkShell.c     ****     argc -= i;
 385:TkShell.c     ****     
 386:TkShell.c     ****     if (argc != 4)
 387:TkShell.c     ****     {
 388:TkShell.c     ****         PRINTF("Invalid number of arguments: %d\n", argc);
 389:TkShell.c     ****         return -1;
 390:TkShell.c     ****     }
 391:TkShell.c     ****     
 392:TkShell.c     ****     if (strcicmp(argv[i], "red") == 0)
 393:TkShell.c     ****     {
 394:TkShell.c     ****         ledIdx = LM_LED_RED;
 395:TkShell.c     ****     }
 396:TkShell.c     ****     else if (strcicmp(argv[i], "green") == 0)
ARM GAS  C:\Users\TERENC~1\AppData\Local\Temp\cc1rRXTX.s 			page 19


 397:TkShell.c     ****     {
 398:TkShell.c     ****         ledIdx = LM_LED_GREEN;
 399:TkShell.c     ****     }
 400:TkShell.c     ****     else if (strcicmp(argv[i], "blue") == 0)
 401:TkShell.c     ****     {
 402:TkShell.c     ****         ledIdx = LM_LED_BLUE;
 403:TkShell.c     ****     }
 404:TkShell.c     ****     else
 405:TkShell.c     ****     {
 406:TkShell.c     ****         PRINTF("Invalid color %s, must be red|green|blue\n", argv[i]);
 407:TkShell.c     ****         return -2;
 408:TkShell.c     ****     }
 409:TkShell.c     ****     
 410:TkShell.c     ****     pwmPeriod = atoi(argv[i + 1]);
 411:TkShell.c     ****     pwmCompare = atoi(argv[i + 2]);
 412:TkShell.c     ****     pwmCounter = atoi(argv[i + 3]);
 413:TkShell.c     ****     
 414:TkShell.c     ****     LedManagerStartOverride(ledIdx, pwmPeriod, pwmCompare, pwmCounter);
 415:TkShell.c     ****     
 416:TkShell.c     ****     PRINTF("> led:ok\n");
 417:TkShell.c     **** 
 418:TkShell.c     ****     return 0;
 419:TkShell.c     **** }
 420:TkShell.c     **** 
 421:TkShell.c     **** TK_SHELL_METHOD(led, stop)
 422:TkShell.c     **** {
 423:TkShell.c     ****     int i = 2;
 424:TkShell.c     ****     LM_LED_e ledIdx = LM_LED_MAX;
 425:TkShell.c     ****     
 426:TkShell.c     ****     argc -= i;
 427:TkShell.c     ****     
 428:TkShell.c     ****     if (argc != 1)
 429:TkShell.c     ****     {
 430:TkShell.c     ****         PRINTF("Invalid number of arguments: %d\n", argc);
 431:TkShell.c     ****         return -1;
 432:TkShell.c     ****     }
 433:TkShell.c     ****     
 434:TkShell.c     ****     if (strcicmp(argv[i], "red") == 0)
 435:TkShell.c     ****     {
 436:TkShell.c     ****         ledIdx = LM_LED_RED;
 437:TkShell.c     ****     }
 438:TkShell.c     ****     else if (strcicmp(argv[i], "green") == 0)
 439:TkShell.c     ****     {
 440:TkShell.c     ****         ledIdx = LM_LED_GREEN;
 441:TkShell.c     ****     }
 442:TkShell.c     ****     else if (strcicmp(argv[i], "blue") == 0)
 443:TkShell.c     ****     {
 444:TkShell.c     ****         ledIdx = LM_LED_BLUE;
 445:TkShell.c     ****     }
 446:TkShell.c     ****     else
 447:TkShell.c     ****     {
 448:TkShell.c     ****         PRINTF("Invalid color %s, must be red|green|blue\n", argv[i]);
 449:TkShell.c     ****         return -2;
 450:TkShell.c     ****     }
 451:TkShell.c     ****     LedManagerStopOverride(ledIdx);
 452:TkShell.c     ****     
 453:TkShell.c     ****     PRINTF("> led:ok\n");
ARM GAS  C:\Users\TERENC~1\AppData\Local\Temp\cc1rRXTX.s 			page 20


 454:TkShell.c     **** 
 455:TkShell.c     ****     return 0;
 456:TkShell.c     **** }
 457:TkShell.c     **** 
 458:TkShell.c     **** TK_SHELL_METHOD(cal, print)
 459:TkShell.c     **** {
 583              		.loc 1 459 0
 584              		.cfi_startproc
 585              		@ args = 0, pretend = 0, frame = 0
 586              		@ frame_needed = 0, uses_anonymous_args = 0
 587              	.LVL86:
 588 0000 10B5     		push	{r4, lr}
 589              		.cfi_def_cfa_offset 8
 590              		.cfi_offset 4, -8
 591              		.cfi_offset 14, -4
 460:TkShell.c     ****     PRINTF("sign = 0x%08X\n", (unsigned int)cal_data->signature);
 592              		.loc 1 460 0
 593 0002 FFF7FEFF 		bl	USBUART_GetConfiguration
 594              	.LVL87:
 595 0006 0028     		cmp	r0, #0
 596 0008 0ED0     		beq	.L44
 597              	.L45:
 598              		.loc 1 460 0 is_stmt 0 discriminator 1
 599 000a FFF7FEFF 		bl	USBUART_CDCIsReady
 600              	.LVL88:
 601 000e 0028     		cmp	r0, #0
 602 0010 FBD0     		beq	.L45
 603              		.loc 1 460 0 discriminator 2
 604 0012 534B     		ldr	r3, .L62
 605 0014 1B68     		ldr	r3, [r3]
 606 0016 1A68     		ldr	r2, [r3]
 607 0018 524C     		ldr	r4, .L62+4
 608 001a 5349     		ldr	r1, .L62+8
 609 001c 2000     		movs	r0, r4
 610 001e FFF7FEFF 		bl	sprintf
 611              	.LVL89:
 612 0022 2000     		movs	r0, r4
 613 0024 FFF7FEFF 		bl	USBUART_PutString
 614              	.LVL90:
 615              	.L44:
 461:TkShell.c     ****     PRINTF("ctr = %lu\n", cal_data->counter);
 616              		.loc 1 461 0 is_stmt 1
 617 0028 FFF7FEFF 		bl	USBUART_GetConfiguration
 618              	.LVL91:
 619 002c 0028     		cmp	r0, #0
 620 002e 0ED0     		beq	.L46
 621              	.L47:
 622              		.loc 1 461 0 is_stmt 0 discriminator 1
 623 0030 FFF7FEFF 		bl	USBUART_CDCIsReady
 624              	.LVL92:
 625 0034 0028     		cmp	r0, #0
 626 0036 FBD0     		beq	.L47
 627              		.loc 1 461 0 discriminator 2
 628 0038 494B     		ldr	r3, .L62
 629 003a 1B68     		ldr	r3, [r3]
 630 003c 5A68     		ldr	r2, [r3, #4]
 631 003e 494C     		ldr	r4, .L62+4
ARM GAS  C:\Users\TERENC~1\AppData\Local\Temp\cc1rRXTX.s 			page 21


 632 0040 4A49     		ldr	r1, .L62+12
 633 0042 2000     		movs	r0, r4
 634 0044 FFF7FEFF 		bl	sprintf
 635              	.LVL93:
 636 0048 2000     		movs	r0, r4
 637 004a FFF7FEFF 		bl	USBUART_PutString
 638              	.LVL94:
 639              	.L46:
 462:TkShell.c     ****     PRINTF("adc_min[R] = %d\n", cal_data->adc_min[vol_ctrl_right]);
 640              		.loc 1 462 0 is_stmt 1
 641 004e FFF7FEFF 		bl	USBUART_GetConfiguration
 642              	.LVL95:
 643 0052 0028     		cmp	r0, #0
 644 0054 0FD0     		beq	.L48
 645              	.L49:
 646              		.loc 1 462 0 is_stmt 0 discriminator 1
 647 0056 FFF7FEFF 		bl	USBUART_CDCIsReady
 648              	.LVL96:
 649 005a 0028     		cmp	r0, #0
 650 005c FBD0     		beq	.L49
 651              		.loc 1 462 0 discriminator 2
 652 005e 404B     		ldr	r3, .L62
 653 0060 1B68     		ldr	r3, [r3]
 654 0062 0822     		movs	r2, #8
 655 0064 9A5E     		ldrsh	r2, [r3, r2]
 656 0066 3F4C     		ldr	r4, .L62+4
 657 0068 4149     		ldr	r1, .L62+16
 658 006a 2000     		movs	r0, r4
 659 006c FFF7FEFF 		bl	sprintf
 660              	.LVL97:
 661 0070 2000     		movs	r0, r4
 662 0072 FFF7FEFF 		bl	USBUART_PutString
 663              	.LVL98:
 664              	.L48:
 463:TkShell.c     ****     PRINTF("adc_max[R] = %d\n", cal_data->adc_max[vol_ctrl_right]);
 665              		.loc 1 463 0 is_stmt 1
 666 0076 FFF7FEFF 		bl	USBUART_GetConfiguration
 667              	.LVL99:
 668 007a 0028     		cmp	r0, #0
 669 007c 0FD0     		beq	.L50
 670              	.L51:
 671              		.loc 1 463 0 is_stmt 0 discriminator 1
 672 007e FFF7FEFF 		bl	USBUART_CDCIsReady
 673              	.LVL100:
 674 0082 0028     		cmp	r0, #0
 675 0084 FBD0     		beq	.L51
 676              		.loc 1 463 0 discriminator 2
 677 0086 364B     		ldr	r3, .L62
 678 0088 1B68     		ldr	r3, [r3]
 679 008a 0C22     		movs	r2, #12
 680 008c 9A5E     		ldrsh	r2, [r3, r2]
 681 008e 354C     		ldr	r4, .L62+4
 682 0090 3849     		ldr	r1, .L62+20
 683 0092 2000     		movs	r0, r4
 684 0094 FFF7FEFF 		bl	sprintf
 685              	.LVL101:
 686 0098 2000     		movs	r0, r4
ARM GAS  C:\Users\TERENC~1\AppData\Local\Temp\cc1rRXTX.s 			page 22


 687 009a FFF7FEFF 		bl	USBUART_PutString
 688              	.LVL102:
 689              	.L50:
 464:TkShell.c     ****     PRINTF("adc_min[L] = %d\n", cal_data->adc_min[vol_ctrl_left]);
 690              		.loc 1 464 0 is_stmt 1
 691 009e FFF7FEFF 		bl	USBUART_GetConfiguration
 692              	.LVL103:
 693 00a2 0028     		cmp	r0, #0
 694 00a4 0FD0     		beq	.L52
 695              	.L53:
 696              		.loc 1 464 0 is_stmt 0 discriminator 1
 697 00a6 FFF7FEFF 		bl	USBUART_CDCIsReady
 698              	.LVL104:
 699 00aa 0028     		cmp	r0, #0
 700 00ac FBD0     		beq	.L53
 701              		.loc 1 464 0 discriminator 2
 702 00ae 2C4B     		ldr	r3, .L62
 703 00b0 1B68     		ldr	r3, [r3]
 704 00b2 0A22     		movs	r2, #10
 705 00b4 9A5E     		ldrsh	r2, [r3, r2]
 706 00b6 2B4C     		ldr	r4, .L62+4
 707 00b8 2F49     		ldr	r1, .L62+24
 708 00ba 2000     		movs	r0, r4
 709 00bc FFF7FEFF 		bl	sprintf
 710              	.LVL105:
 711 00c0 2000     		movs	r0, r4
 712 00c2 FFF7FEFF 		bl	USBUART_PutString
 713              	.LVL106:
 714              	.L52:
 465:TkShell.c     ****     PRINTF("adc_max[L] = %d\n", cal_data->adc_max[vol_ctrl_left]);
 715              		.loc 1 465 0 is_stmt 1
 716 00c6 FFF7FEFF 		bl	USBUART_GetConfiguration
 717              	.LVL107:
 718 00ca 0028     		cmp	r0, #0
 719 00cc 0FD0     		beq	.L54
 720              	.L55:
 721              		.loc 1 465 0 is_stmt 0 discriminator 1
 722 00ce FFF7FEFF 		bl	USBUART_CDCIsReady
 723              	.LVL108:
 724 00d2 0028     		cmp	r0, #0
 725 00d4 FBD0     		beq	.L55
 726              		.loc 1 465 0 discriminator 2
 727 00d6 224B     		ldr	r3, .L62
 728 00d8 1B68     		ldr	r3, [r3]
 729 00da 0E22     		movs	r2, #14
 730 00dc 9A5E     		ldrsh	r2, [r3, r2]
 731 00de 214C     		ldr	r4, .L62+4
 732 00e0 2649     		ldr	r1, .L62+28
 733 00e2 2000     		movs	r0, r4
 734 00e4 FFF7FEFF 		bl	sprintf
 735              	.LVL109:
 736 00e8 2000     		movs	r0, r4
 737 00ea FFF7FEFF 		bl	USBUART_PutString
 738              	.LVL110:
 739              	.L54:
 466:TkShell.c     **** 
 467:TkShell.c     ****     PRINTF("led_max_brightness = %d\n", cal_data->led_max_brightness);
ARM GAS  C:\Users\TERENC~1\AppData\Local\Temp\cc1rRXTX.s 			page 23


 740              		.loc 1 467 0 is_stmt 1
 741 00ee FFF7FEFF 		bl	USBUART_GetConfiguration
 742              	.LVL111:
 743 00f2 0028     		cmp	r0, #0
 744 00f4 0ED0     		beq	.L56
 745              	.L57:
 746              		.loc 1 467 0 is_stmt 0 discriminator 1
 747 00f6 FFF7FEFF 		bl	USBUART_CDCIsReady
 748              	.LVL112:
 749 00fa 0028     		cmp	r0, #0
 750 00fc FBD0     		beq	.L57
 751              		.loc 1 467 0 discriminator 2
 752 00fe 184B     		ldr	r3, .L62
 753 0100 1B68     		ldr	r3, [r3]
 754 0102 1A7C     		ldrb	r2, [r3, #16]
 755 0104 174C     		ldr	r4, .L62+4
 756 0106 1E49     		ldr	r1, .L62+32
 757 0108 2000     		movs	r0, r4
 758 010a FFF7FEFF 		bl	sprintf
 759              	.LVL113:
 760 010e 2000     		movs	r0, r4
 761 0110 FFF7FEFF 		bl	USBUART_PutString
 762              	.LVL114:
 763              	.L56:
 468:TkShell.c     ****     PRINTF("debug_mask = 0x%02X\n", (unsigned int)cal_data->debug_mask);
 764              		.loc 1 468 0 is_stmt 1
 765 0114 FFF7FEFF 		bl	USBUART_GetConfiguration
 766              	.LVL115:
 767 0118 0028     		cmp	r0, #0
 768 011a 0ED0     		beq	.L58
 769              	.L59:
 770              		.loc 1 468 0 is_stmt 0 discriminator 1
 771 011c FFF7FEFF 		bl	USBUART_CDCIsReady
 772              	.LVL116:
 773 0120 0028     		cmp	r0, #0
 774 0122 FBD0     		beq	.L59
 775              		.loc 1 468 0 discriminator 2
 776 0124 0E4B     		ldr	r3, .L62
 777 0126 1B68     		ldr	r3, [r3]
 778 0128 5A7C     		ldrb	r2, [r3, #17]
 779 012a 0E4C     		ldr	r4, .L62+4
 780 012c 1549     		ldr	r1, .L62+36
 781 012e 2000     		movs	r0, r4
 782 0130 FFF7FEFF 		bl	sprintf
 783              	.LVL117:
 784 0134 2000     		movs	r0, r4
 785 0136 FFF7FEFF 		bl	USBUART_PutString
 786              	.LVL118:
 787              	.L58:
 469:TkShell.c     ****     PRINTF("> cal:ok\n");
 788              		.loc 1 469 0 is_stmt 1
 789 013a FFF7FEFF 		bl	USBUART_GetConfiguration
 790              	.LVL119:
 791 013e 0028     		cmp	r0, #0
 792 0140 0CD0     		beq	.L60
 793              	.L61:
 794              		.loc 1 469 0 is_stmt 0 discriminator 1
ARM GAS  C:\Users\TERENC~1\AppData\Local\Temp\cc1rRXTX.s 			page 24


 795 0142 FFF7FEFF 		bl	USBUART_CDCIsReady
 796              	.LVL120:
 797 0146 0028     		cmp	r0, #0
 798 0148 FBD0     		beq	.L61
 799              		.loc 1 469 0 discriminator 2
 800 014a 064C     		ldr	r4, .L62+4
 801 014c 0A22     		movs	r2, #10
 802 014e 0E49     		ldr	r1, .L62+40
 803 0150 2000     		movs	r0, r4
 804 0152 FFF7FEFF 		bl	memcpy
 805              	.LVL121:
 806 0156 2000     		movs	r0, r4
 807 0158 FFF7FEFF 		bl	USBUART_PutString
 808              	.LVL122:
 809              	.L60:
 470:TkShell.c     **** 
 471:TkShell.c     ****     return 0;    
 472:TkShell.c     **** }
 810              		.loc 1 472 0 is_stmt 1
 811 015c 0020     		movs	r0, #0
 812              		@ sp needed
 813 015e 10BD     		pop	{r4, pc}
 814              	.L63:
 815              		.align	2
 816              	.L62:
 817 0160 00000000 		.word	cal_data
 818 0164 00000000 		.word	gbuf
 819 0168 5C000000 		.word	.LC25
 820 016c 6C000000 		.word	.LC28
 821 0170 78000000 		.word	.LC30
 822 0174 8C000000 		.word	.LC32
 823 0178 A0000000 		.word	.LC34
 824 017c B4000000 		.word	.LC36
 825 0180 C8000000 		.word	.LC38
 826 0184 E4000000 		.word	.LC40
 827 0188 FC000000 		.word	.LC42
 828              		.cfi_endproc
 829              	.LFE17:
 830              		.size	__tk_shell_cal_print, .-__tk_shell_cal_print
 831              		.section	.text.__tk_shell_wm_vol_set,"ax",%progbits
 832              		.align	2
 833              		.global	__tk_shell_wm_vol_set
 834              		.code	16
 835              		.thumb_func
 836              		.type	__tk_shell_wm_vol_set, %function
 837              	__tk_shell_wm_vol_set:
 838              	.LFB6:
 233:TkShell.c     ****     int vol;
 839              		.loc 1 233 0
 840              		.cfi_startproc
 841              		@ args = 0, pretend = 0, frame = 0
 842              		@ frame_needed = 0, uses_anonymous_args = 0
 843              	.LVL123:
 844 0000 70B5     		push	{r4, r5, r6, lr}
 845              		.cfi_def_cfa_offset 16
 846              		.cfi_offset 4, -16
 847              		.cfi_offset 5, -12
ARM GAS  C:\Users\TERENC~1\AppData\Local\Temp\cc1rRXTX.s 			page 25


 848              		.cfi_offset 6, -8
 849              		.cfi_offset 14, -4
 850              	.LVL124:
 240:TkShell.c     ****     {
 851              		.loc 1 240 0
 852 0002 0328     		cmp	r0, #3
 853 0004 13D0     		beq	.L65
 242:TkShell.c     ****         return -1;
 854              		.loc 1 242 0
 855 0006 FFF7FEFF 		bl	USBUART_GetConfiguration
 856              	.LVL125:
 857 000a 0028     		cmp	r0, #0
 858 000c 3ED0     		beq	.L71
 859              	.L67:
 242:TkShell.c     ****         return -1;
 860              		.loc 1 242 0 is_stmt 0 discriminator 1
 861 000e FFF7FEFF 		bl	USBUART_CDCIsReady
 862              	.LVL126:
 863 0012 0028     		cmp	r0, #0
 864 0014 FBD0     		beq	.L67
 242:TkShell.c     ****         return -1;
 865              		.loc 1 242 0 discriminator 2
 866 0016 214C     		ldr	r4, .L74
 867 0018 1E22     		movs	r2, #30
 868 001a 2149     		ldr	r1, .L74+4
 869 001c 2000     		movs	r0, r4
 870 001e FFF7FEFF 		bl	memcpy
 871              	.LVL127:
 872 0022 2000     		movs	r0, r4
 873 0024 FFF7FEFF 		bl	USBUART_PutString
 874              	.LVL128:
 243:TkShell.c     ****     }
 875              		.loc 1 243 0 is_stmt 1 discriminator 2
 876 0028 0120     		movs	r0, #1
 877 002a 4042     		rsbs	r0, r0, #0
 878 002c 35E0     		b	.L66
 879              	.LVL129:
 880              	.L65:
 246:TkShell.c     **** 
 881              		.loc 1 246 0
 882 002e 8868     		ldr	r0, [r1, #8]
 883              	.LVL130:
 884 0030 FFF7FEFF 		bl	atoi
 885              	.LVL131:
 248:TkShell.c     ****     {
 886              		.loc 1 248 0
 887 0034 C0B2     		uxtb	r0, r0
 888              	.LVL132:
 889 0036 FFF7FEFF 		bl	Codec_AdjustBothHeadphoneVolume
 890              	.LVL133:
 891 003a 041E     		subs	r4, r0, #0
 892              	.LVL134:
 893 003c 12D1     		bne	.L68
 250:TkShell.c     ****     }
 894              		.loc 1 250 0
 895 003e FFF7FEFF 		bl	USBUART_GetConfiguration
 896              	.LVL135:
ARM GAS  C:\Users\TERENC~1\AppData\Local\Temp\cc1rRXTX.s 			page 26


 897 0042 0028     		cmp	r0, #0
 898 0044 25D0     		beq	.L72
 899              	.L69:
 250:TkShell.c     ****     }
 900              		.loc 1 250 0 is_stmt 0 discriminator 1
 901 0046 FFF7FEFF 		bl	USBUART_CDCIsReady
 902              	.LVL136:
 903 004a 0028     		cmp	r0, #0
 904 004c FBD0     		beq	.L69
 250:TkShell.c     ****     }
 905              		.loc 1 250 0 discriminator 2
 906 004e 134C     		ldr	r4, .L74
 907 0050 0922     		movs	r2, #9
 908 0052 1449     		ldr	r1, .L74+8
 909 0054 2000     		movs	r0, r4
 910 0056 FFF7FEFF 		bl	memcpy
 911              	.LVL137:
 912 005a 2000     		movs	r0, r4
 913 005c FFF7FEFF 		bl	USBUART_PutString
 914              	.LVL138:
 258:TkShell.c     **** }
 915              		.loc 1 258 0 is_stmt 1 discriminator 2
 916 0060 0020     		movs	r0, #0
 917 0062 1AE0     		b	.L66
 918              	.LVL139:
 919              	.L68:
 254:TkShell.c     ****         return -2;
 920              		.loc 1 254 0
 921 0064 FFF7FEFF 		bl	USBUART_GetConfiguration
 922              	.LVL140:
 923 0068 0028     		cmp	r0, #0
 924 006a 14D0     		beq	.L73
 925              	.L70:
 254:TkShell.c     ****         return -2;
 926              		.loc 1 254 0 is_stmt 0 discriminator 1
 927 006c FFF7FEFF 		bl	USBUART_CDCIsReady
 928              	.LVL141:
 929 0070 0028     		cmp	r0, #0
 930 0072 FBD0     		beq	.L70
 254:TkShell.c     ****         return -2;
 931              		.loc 1 254 0 discriminator 2
 932 0074 094D     		ldr	r5, .L74
 933 0076 2200     		movs	r2, r4
 934 0078 0B49     		ldr	r1, .L74+12
 935 007a 2800     		movs	r0, r5
 936 007c FFF7FEFF 		bl	sprintf
 937              	.LVL142:
 938 0080 2800     		movs	r0, r5
 939 0082 FFF7FEFF 		bl	USBUART_PutString
 940              	.LVL143:
 255:TkShell.c     ****     }
 941              		.loc 1 255 0 is_stmt 1 discriminator 2
 942 0086 0220     		movs	r0, #2
 943 0088 4042     		rsbs	r0, r0, #0
 944 008a 06E0     		b	.L66
 945              	.LVL144:
 946              	.L71:
ARM GAS  C:\Users\TERENC~1\AppData\Local\Temp\cc1rRXTX.s 			page 27


 243:TkShell.c     ****     }
 947              		.loc 1 243 0
 948 008c 0120     		movs	r0, #1
 949 008e 4042     		rsbs	r0, r0, #0
 950 0090 03E0     		b	.L66
 951              	.LVL145:
 952              	.L72:
 258:TkShell.c     **** }
 953              		.loc 1 258 0
 954 0092 0020     		movs	r0, #0
 955 0094 01E0     		b	.L66
 956              	.L73:
 255:TkShell.c     ****     }
 957              		.loc 1 255 0
 958 0096 0220     		movs	r0, #2
 959 0098 4042     		rsbs	r0, r0, #0
 960              	.LVL146:
 961              	.L66:
 259:TkShell.c     **** 
 962              		.loc 1 259 0
 963              		@ sp needed
 964 009a 70BD     		pop	{r4, r5, r6, pc}
 965              	.L75:
 966              		.align	2
 967              	.L74:
 968 009c 00000000 		.word	gbuf
 969 00a0 0C000000 		.word	.LC4
 970 00a4 08010000 		.word	.LC46
 971 00a8 14010000 		.word	.LC48
 972              		.cfi_endproc
 973              	.LFE6:
 974              		.size	__tk_shell_wm_vol_set, .-__tk_shell_wm_vol_set
 975              		.section	.text.__tk_shell_wm_vol_get,"ax",%progbits
 976              		.align	2
 977              		.global	__tk_shell_wm_vol_get
 978              		.code	16
 979              		.thumb_func
 980              		.type	__tk_shell_wm_vol_get, %function
 981              	__tk_shell_wm_vol_get:
 982              	.LFB7:
 262:TkShell.c     ****     PRINTF("> wm:ok %d\n", (int)Codec_GetHeadphoneVolume());
 983              		.loc 1 262 0
 984              		.cfi_startproc
 985              		@ args = 0, pretend = 0, frame = 0
 986              		@ frame_needed = 0, uses_anonymous_args = 0
 987              	.LVL147:
 988 0000 10B5     		push	{r4, lr}
 989              		.cfi_def_cfa_offset 8
 990              		.cfi_offset 4, -8
 991              		.cfi_offset 14, -4
 263:TkShell.c     **** 
 992              		.loc 1 263 0
 993 0002 FFF7FEFF 		bl	USBUART_GetConfiguration
 994              	.LVL148:
 995 0006 0028     		cmp	r0, #0
 996 0008 0ED0     		beq	.L77
 997              	.L78:
ARM GAS  C:\Users\TERENC~1\AppData\Local\Temp\cc1rRXTX.s 			page 28


 263:TkShell.c     **** 
 998              		.loc 1 263 0 is_stmt 0 discriminator 1
 999 000a FFF7FEFF 		bl	USBUART_CDCIsReady
 1000              	.LVL149:
 1001 000e 0028     		cmp	r0, #0
 1002 0010 FBD0     		beq	.L78
 263:TkShell.c     **** 
 1003              		.loc 1 263 0 discriminator 2
 1004 0012 FFF7FEFF 		bl	Codec_GetHeadphoneVolume
 1005              	.LVL150:
 1006 0016 0200     		movs	r2, r0
 1007 0018 044C     		ldr	r4, .L79
 1008 001a 0549     		ldr	r1, .L79+4
 1009 001c 2000     		movs	r0, r4
 1010 001e FFF7FEFF 		bl	sprintf
 1011              	.LVL151:
 1012 0022 2000     		movs	r0, r4
 1013 0024 FFF7FEFF 		bl	USBUART_PutString
 1014              	.LVL152:
 1015              	.L77:
 266:TkShell.c     **** 
 1016              		.loc 1 266 0 is_stmt 1
 1017 0028 0020     		movs	r0, #0
 1018              		@ sp needed
 1019 002a 10BD     		pop	{r4, pc}
 1020              	.L80:
 1021              		.align	2
 1022              	.L79:
 1023 002c 00000000 		.word	gbuf
 1024 0030 20010000 		.word	.LC50
 1025              		.cfi_endproc
 1026              	.LFE7:
 1027              		.size	__tk_shell_wm_vol_get, .-__tk_shell_wm_vol_get
 1028              		.section	.text.__tk_shell_wm_reg_wr,"ax",%progbits
 1029              		.align	2
 1030              		.global	__tk_shell_wm_reg_wr
 1031              		.code	16
 1032              		.thumb_func
 1033              		.type	__tk_shell_wm_reg_wr, %function
 1034              	__tk_shell_wm_reg_wr:
 1035              	.LFB8:
 269:TkShell.c     ****     int i = 2;
 1036              		.loc 1 269 0
 1037              		.cfi_startproc
 1038              		@ args = 0, pretend = 0, frame = 0
 1039              		@ frame_needed = 0, uses_anonymous_args = 0
 1040              	.LVL153:
 1041 0000 70B5     		push	{r4, r5, r6, lr}
 1042              		.cfi_def_cfa_offset 16
 1043              		.cfi_offset 4, -16
 1044              		.cfi_offset 5, -12
 1045              		.cfi_offset 6, -8
 1046              		.cfi_offset 14, -4
 1047 0002 0C00     		movs	r4, r1
 1048              	.LVL154:
 277:TkShell.c     ****     {
 1049              		.loc 1 277 0
ARM GAS  C:\Users\TERENC~1\AppData\Local\Temp\cc1rRXTX.s 			page 29


 1050 0004 0428     		cmp	r0, #4
 1051 0006 13D0     		beq	.L82
 279:TkShell.c     ****         return -1;
 1052              		.loc 1 279 0
 1053 0008 FFF7FEFF 		bl	USBUART_GetConfiguration
 1054              	.LVL155:
 1055 000c 0028     		cmp	r0, #0
 1056 000e 45D0     		beq	.L88
 1057              	.L84:
 279:TkShell.c     ****         return -1;
 1058              		.loc 1 279 0 is_stmt 0 discriminator 1
 1059 0010 FFF7FEFF 		bl	USBUART_CDCIsReady
 1060              	.LVL156:
 1061 0014 0028     		cmp	r0, #0
 1062 0016 FBD0     		beq	.L84
 279:TkShell.c     ****         return -1;
 1063              		.loc 1 279 0 discriminator 2
 1064 0018 244C     		ldr	r4, .L91
 1065              	.LVL157:
 1066 001a 1E22     		movs	r2, #30
 1067 001c 2449     		ldr	r1, .L91+4
 1068 001e 2000     		movs	r0, r4
 1069 0020 FFF7FEFF 		bl	memcpy
 1070              	.LVL158:
 1071 0024 2000     		movs	r0, r4
 1072 0026 FFF7FEFF 		bl	USBUART_PutString
 1073              	.LVL159:
 280:TkShell.c     ****     }
 1074              		.loc 1 280 0 is_stmt 1 discriminator 2
 1075 002a 0120     		movs	r0, #1
 1076 002c 4042     		rsbs	r0, r0, #0
 1077 002e 3CE0     		b	.L83
 1078              	.LVL160:
 1079              	.L82:
 283:TkShell.c     ****     data = strtoul(argv[i++], NULL, 16);
 1080              		.loc 1 283 0
 1081 0030 8868     		ldr	r0, [r1, #8]
 1082              	.LVL161:
 1083 0032 FFF7FEFF 		bl	atoi
 1084              	.LVL162:
 1085 0036 C5B2     		uxtb	r5, r0
 1086              	.LVL163:
 284:TkShell.c     ****     
 1087              		.loc 1 284 0
 1088 0038 E068     		ldr	r0, [r4, #12]
 1089 003a 1022     		movs	r2, #16
 1090 003c 0021     		movs	r1, #0
 1091 003e FFF7FEFF 		bl	strtoul
 1092              	.LVL164:
 1093 0042 81B2     		uxth	r1, r0
 1094              	.LVL165:
 286:TkShell.c     ****     {
 1095              		.loc 1 286 0
 1096 0044 2800     		movs	r0, r5
 1097 0046 FFF7FEFF 		bl	Codec_SendData
 1098              	.LVL166:
 1099 004a 041E     		subs	r4, r0, #0
ARM GAS  C:\Users\TERENC~1\AppData\Local\Temp\cc1rRXTX.s 			page 30


 1100              	.LVL167:
 1101 004c 12D1     		bne	.L85
 288:TkShell.c     ****     }
 1102              		.loc 1 288 0
 1103 004e FFF7FEFF 		bl	USBUART_GetConfiguration
 1104              	.LVL168:
 1105 0052 0028     		cmp	r0, #0
 1106 0054 25D0     		beq	.L89
 1107              	.L86:
 288:TkShell.c     ****     }
 1108              		.loc 1 288 0 is_stmt 0 discriminator 1
 1109 0056 FFF7FEFF 		bl	USBUART_CDCIsReady
 1110              	.LVL169:
 1111 005a 0028     		cmp	r0, #0
 1112 005c FBD0     		beq	.L86
 288:TkShell.c     ****     }
 1113              		.loc 1 288 0 discriminator 2
 1114 005e 134C     		ldr	r4, .L91
 1115              	.LVL170:
 1116 0060 0922     		movs	r2, #9
 1117 0062 1449     		ldr	r1, .L91+8
 1118 0064 2000     		movs	r0, r4
 1119 0066 FFF7FEFF 		bl	memcpy
 1120              	.LVL171:
 1121 006a 2000     		movs	r0, r4
 1122 006c FFF7FEFF 		bl	USBUART_PutString
 1123              	.LVL172:
 296:TkShell.c     **** }
 1124              		.loc 1 296 0 is_stmt 1 discriminator 2
 1125 0070 0020     		movs	r0, #0
 1126 0072 1AE0     		b	.L83
 1127              	.LVL173:
 1128              	.L85:
 292:TkShell.c     ****         return -2;
 1129              		.loc 1 292 0
 1130 0074 FFF7FEFF 		bl	USBUART_GetConfiguration
 1131              	.LVL174:
 1132 0078 0028     		cmp	r0, #0
 1133 007a 14D0     		beq	.L90
 1134              	.L87:
 292:TkShell.c     ****         return -2;
 1135              		.loc 1 292 0 is_stmt 0 discriminator 1
 1136 007c FFF7FEFF 		bl	USBUART_CDCIsReady
 1137              	.LVL175:
 1138 0080 0028     		cmp	r0, #0
 1139 0082 FBD0     		beq	.L87
 292:TkShell.c     ****         return -2;
 1140              		.loc 1 292 0 discriminator 2
 1141 0084 094D     		ldr	r5, .L91
 1142              	.LVL176:
 1143 0086 2200     		movs	r2, r4
 1144 0088 0B49     		ldr	r1, .L91+12
 1145 008a 2800     		movs	r0, r5
 1146 008c FFF7FEFF 		bl	sprintf
 1147              	.LVL177:
 1148 0090 2800     		movs	r0, r5
 1149 0092 FFF7FEFF 		bl	USBUART_PutString
ARM GAS  C:\Users\TERENC~1\AppData\Local\Temp\cc1rRXTX.s 			page 31


 1150              	.LVL178:
 293:TkShell.c     ****     }
 1151              		.loc 1 293 0 is_stmt 1 discriminator 2
 1152 0096 0220     		movs	r0, #2
 1153 0098 4042     		rsbs	r0, r0, #0
 1154 009a 06E0     		b	.L83
 1155              	.LVL179:
 1156              	.L88:
 280:TkShell.c     ****     }
 1157              		.loc 1 280 0
 1158 009c 0120     		movs	r0, #1
 1159 009e 4042     		rsbs	r0, r0, #0
 1160 00a0 03E0     		b	.L83
 1161              	.LVL180:
 1162              	.L89:
 296:TkShell.c     **** }
 1163              		.loc 1 296 0
 1164 00a2 0020     		movs	r0, #0
 1165 00a4 01E0     		b	.L83
 1166              	.L90:
 293:TkShell.c     ****     }
 1167              		.loc 1 293 0
 1168 00a6 0220     		movs	r0, #2
 1169 00a8 4042     		rsbs	r0, r0, #0
 1170              	.LVL181:
 1171              	.L83:
 297:TkShell.c     **** 
 1172              		.loc 1 297 0
 1173              		@ sp needed
 1174 00aa 70BD     		pop	{r4, r5, r6, pc}
 1175              	.L92:
 1176              		.align	2
 1177              	.L91:
 1178 00ac 00000000 		.word	gbuf
 1179 00b0 0C000000 		.word	.LC4
 1180 00b4 08010000 		.word	.LC46
 1181 00b8 14010000 		.word	.LC48
 1182              		.cfi_endproc
 1183              	.LFE8:
 1184              		.size	__tk_shell_wm_reg_wr, .-__tk_shell_wm_reg_wr
 1185              		.section	.text.__tk_shell_wm_reg_rd,"ax",%progbits
 1186              		.align	2
 1187              		.global	__tk_shell_wm_reg_rd
 1188              		.code	16
 1189              		.thumb_func
 1190              		.type	__tk_shell_wm_reg_rd, %function
 1191              	__tk_shell_wm_reg_rd:
 1192              	.LFB9:
 300:TkShell.c     ****     int i = 2;
 1193              		.loc 1 300 0
 1194              		.cfi_startproc
 1195              		@ args = 0, pretend = 0, frame = 0
 1196              		@ frame_needed = 0, uses_anonymous_args = 0
 1197              	.LVL182:
 1198 0000 10B5     		push	{r4, lr}
 1199              		.cfi_def_cfa_offset 8
 1200              		.cfi_offset 4, -8
ARM GAS  C:\Users\TERENC~1\AppData\Local\Temp\cc1rRXTX.s 			page 32


 1201              		.cfi_offset 14, -4
 1202              	.LVL183:
 306:TkShell.c     ****     {
 1203              		.loc 1 306 0
 1204 0002 0328     		cmp	r0, #3
 1205 0004 13D0     		beq	.L94
 308:TkShell.c     ****         return -1;
 1206              		.loc 1 308 0
 1207 0006 FFF7FEFF 		bl	USBUART_GetConfiguration
 1208              	.LVL184:
 1209 000a 0028     		cmp	r0, #0
 1210 000c 29D0     		beq	.L98
 1211              	.L96:
 308:TkShell.c     ****         return -1;
 1212              		.loc 1 308 0 is_stmt 0 discriminator 1
 1213 000e FFF7FEFF 		bl	USBUART_CDCIsReady
 1214              	.LVL185:
 1215 0012 0028     		cmp	r0, #0
 1216 0014 FBD0     		beq	.L96
 308:TkShell.c     ****         return -1;
 1217              		.loc 1 308 0 discriminator 2
 1218 0016 154C     		ldr	r4, .L100
 1219 0018 1E22     		movs	r2, #30
 1220 001a 1549     		ldr	r1, .L100+4
 1221 001c 2000     		movs	r0, r4
 1222 001e FFF7FEFF 		bl	memcpy
 1223              	.LVL186:
 1224 0022 2000     		movs	r0, r4
 1225 0024 FFF7FEFF 		bl	USBUART_PutString
 1226              	.LVL187:
 309:TkShell.c     ****     }
 1227              		.loc 1 309 0 is_stmt 1 discriminator 2
 1228 0028 0120     		movs	r0, #1
 1229 002a 4042     		rsbs	r0, r0, #0
 1230 002c 1DE0     		b	.L95
 1231              	.LVL188:
 1232              	.L94:
 312:TkShell.c     ****     
 1233              		.loc 1 312 0
 1234 002e 8868     		ldr	r0, [r1, #8]
 1235              	.LVL189:
 1236 0030 FFF7FEFF 		bl	atoi
 1237              	.LVL190:
 1238 0034 C4B2     		uxtb	r4, r0
 1239              	.LVL191:
 314:TkShell.c     ****     
 1240              		.loc 1 314 0
 1241 0036 FFF7FEFF 		bl	USBUART_GetConfiguration
 1242              	.LVL192:
 1243 003a 0028     		cmp	r0, #0
 1244 003c 14D0     		beq	.L99
 1245              	.L97:
 314:TkShell.c     ****     
 1246              		.loc 1 314 0 is_stmt 0 discriminator 1
 1247 003e FFF7FEFF 		bl	USBUART_CDCIsReady
 1248              	.LVL193:
 1249 0042 0028     		cmp	r0, #0
ARM GAS  C:\Users\TERENC~1\AppData\Local\Temp\cc1rRXTX.s 			page 33


 1250 0044 FBD0     		beq	.L97
 314:TkShell.c     ****     
 1251              		.loc 1 314 0 discriminator 2
 1252 0046 2000     		movs	r0, r4
 1253 0048 FFF7FEFF 		bl	Codec_GetData
 1254              	.LVL194:
 1255 004c 0200     		movs	r2, r0
 1256 004e 074C     		ldr	r4, .L100
 1257              	.LVL195:
 1258 0050 0849     		ldr	r1, .L100+8
 1259 0052 2000     		movs	r0, r4
 1260 0054 FFF7FEFF 		bl	sprintf
 1261              	.LVL196:
 1262 0058 2000     		movs	r0, r4
 1263 005a FFF7FEFF 		bl	USBUART_PutString
 1264              	.LVL197:
 316:TkShell.c     **** }
 1265              		.loc 1 316 0 is_stmt 1 discriminator 2
 1266 005e 0020     		movs	r0, #0
 1267 0060 03E0     		b	.L95
 1268              	.LVL198:
 1269              	.L98:
 309:TkShell.c     ****     }
 1270              		.loc 1 309 0
 1271 0062 0120     		movs	r0, #1
 1272 0064 4042     		rsbs	r0, r0, #0
 1273 0066 00E0     		b	.L95
 1274              	.LVL199:
 1275              	.L99:
 316:TkShell.c     **** }
 1276              		.loc 1 316 0
 1277 0068 0020     		movs	r0, #0
 1278              	.LVL200:
 1279              	.L95:
 317:TkShell.c     **** 
 1280              		.loc 1 317 0
 1281              		@ sp needed
 1282 006a 10BD     		pop	{r4, pc}
 1283              	.L101:
 1284              		.align	2
 1285              	.L100:
 1286 006c 00000000 		.word	gbuf
 1287 0070 0C000000 		.word	.LC4
 1288 0074 2C010000 		.word	.LC59
 1289              		.cfi_endproc
 1290              	.LFE9:
 1291              		.size	__tk_shell_wm_reg_rd, .-__tk_shell_wm_reg_rd
 1292              		.section	.text.__tk_shell_sys_reset,"ax",%progbits
 1293              		.align	2
 1294              		.global	__tk_shell_sys_reset
 1295              		.code	16
 1296              		.thumb_func
 1297              		.type	__tk_shell_sys_reset, %function
 1298              	__tk_shell_sys_reset:
 1299              	.LFB13:
 365:TkShell.c     ****     CySoftwareReset();
 1300              		.loc 1 365 0
ARM GAS  C:\Users\TERENC~1\AppData\Local\Temp\cc1rRXTX.s 			page 34


 1301              		.cfi_startproc
 1302              		@ args = 0, pretend = 0, frame = 0
 1303              		@ frame_needed = 0, uses_anonymous_args = 0
 1304              	.LVL201:
 1305 0000 10B5     		push	{r4, lr}
 1306              		.cfi_def_cfa_offset 8
 1307              		.cfi_offset 4, -8
 1308              		.cfi_offset 14, -4
 366:TkShell.c     ****     
 1309              		.loc 1 366 0
 1310 0002 FFF7FEFF 		bl	CySoftwareReset
 1311              	.LVL202:
 369:TkShell.c     **** 
 1312              		.loc 1 369 0
 1313 0006 0020     		movs	r0, #0
 1314              		@ sp needed
 1315 0008 10BD     		pop	{r4, pc}
 1316              		.cfi_endproc
 1317              	.LFE13:
 1318              		.size	__tk_shell_sys_reset, .-__tk_shell_sys_reset
 1319 000a C046     		.section	.text.__tk_shell_cal_save,"ax",%progbits
 1320              		.align	2
 1321              		.global	__tk_shell_cal_save
 1322              		.code	16
 1323              		.thumb_func
 1324              		.type	__tk_shell_cal_save, %function
 1325              	__tk_shell_cal_save:
 1326              	.LFB19:
 473:TkShell.c     **** 
 474:TkShell.c     **** TK_SHELL_METHOD(cal, set)
 475:TkShell.c     **** {
 476:TkShell.c     ****     int i = 2;
 477:TkShell.c     ****     
 478:TkShell.c     ****     argc -= i;
 479:TkShell.c     ****     
 480:TkShell.c     ****     if (argc == 0)
 481:TkShell.c     ****     {
 482:TkShell.c     ****         PRINTF("Invalid number of arguments!\n");
 483:TkShell.c     ****         return -1;
 484:TkShell.c     ****     }
 485:TkShell.c     ****     
 486:TkShell.c     ****     if (strcicmp(argv[i], "led_max_brightness") == 0)
 487:TkShell.c     ****     {
 488:TkShell.c     ****         cal_data->led_max_brightness = atoi(argv[++i]);
 489:TkShell.c     ****     }
 490:TkShell.c     ****     else if (strcicmp(argv[i], "adc_min_l") == 0)
 491:TkShell.c     ****     {
 492:TkShell.c     ****         cal_data->adc_min[vol_ctrl_left] = atoi(argv[++i]);
 493:TkShell.c     ****     }
 494:TkShell.c     ****     else if (strcicmp(argv[i], "debug_mask") == 0)
 495:TkShell.c     ****     {
 496:TkShell.c     ****         cal_data->debug_mask = strtoul(argv[++i], NULL, 16);
 497:TkShell.c     ****     }
 498:TkShell.c     ****     return 0;
 499:TkShell.c     **** }
 500:TkShell.c     **** 
 501:TkShell.c     **** TK_SHELL_METHOD(cal, save)
ARM GAS  C:\Users\TERENC~1\AppData\Local\Temp\cc1rRXTX.s 			page 35


 502:TkShell.c     **** {
 1327              		.loc 1 502 0
 1328              		.cfi_startproc
 1329              		@ args = 0, pretend = 0, frame = 0
 1330              		@ frame_needed = 0, uses_anonymous_args = 0
 1331              	.LVL203:
 1332 0000 10B5     		push	{r4, lr}
 1333              		.cfi_def_cfa_offset 8
 1334              		.cfi_offset 4, -8
 1335              		.cfi_offset 14, -4
 503:TkShell.c     ****     PRINTF("> cal:ok %d\n", CalibrationSave());
 1336              		.loc 1 503 0
 1337 0002 FFF7FEFF 		bl	USBUART_GetConfiguration
 1338              	.LVL204:
 1339 0006 0028     		cmp	r0, #0
 1340 0008 0ED0     		beq	.L104
 1341              	.L105:
 1342              		.loc 1 503 0 is_stmt 0 discriminator 1
 1343 000a FFF7FEFF 		bl	USBUART_CDCIsReady
 1344              	.LVL205:
 1345 000e 0028     		cmp	r0, #0
 1346 0010 FBD0     		beq	.L105
 1347              		.loc 1 503 0 discriminator 2
 1348 0012 FFF7FEFF 		bl	CalibrationSave
 1349              	.LVL206:
 1350 0016 0200     		movs	r2, r0
 1351 0018 044C     		ldr	r4, .L106
 1352 001a 0549     		ldr	r1, .L106+4
 1353 001c 2000     		movs	r0, r4
 1354 001e FFF7FEFF 		bl	sprintf
 1355              	.LVL207:
 1356 0022 2000     		movs	r0, r4
 1357 0024 FFF7FEFF 		bl	USBUART_PutString
 1358              	.LVL208:
 1359              	.L104:
 504:TkShell.c     ****     return 0;
 505:TkShell.c     **** }
 1360              		.loc 1 505 0 is_stmt 1
 1361 0028 0020     		movs	r0, #0
 1362              		@ sp needed
 1363 002a 10BD     		pop	{r4, pc}
 1364              	.L107:
 1365              		.align	2
 1366              	.L106:
 1367 002c 00000000 		.word	gbuf
 1368 0030 3C010000 		.word	.LC61
 1369              		.cfi_endproc
 1370              	.LFE19:
 1371              		.size	__tk_shell_cal_save, .-__tk_shell_cal_save
 1372              		.section	.text.strcicmp,"ax",%progbits
 1373              		.align	2
 1374              		.global	strcicmp
 1375              		.code	16
 1376              		.thumb_func
 1377              		.type	strcicmp, %function
 1378              	strcicmp:
 1379              	.LFB2:
ARM GAS  C:\Users\TERENC~1\AppData\Local\Temp\cc1rRXTX.s 			page 36


 148:TkShell.c     ****     for (;; a++, b++)
 1380              		.loc 1 148 0
 1381              		.cfi_startproc
 1382              		@ args = 0, pretend = 0, frame = 0
 1383              		@ frame_needed = 0, uses_anonymous_args = 0
 1384              	.LVL209:
 1385 0000 70B5     		push	{r4, r5, r6, lr}
 1386              		.cfi_def_cfa_offset 16
 1387              		.cfi_offset 4, -16
 1388              		.cfi_offset 5, -12
 1389              		.cfi_offset 6, -8
 1390              		.cfi_offset 14, -4
 1391              	.L115:
 1392              	.LBB2:
 1393              	.LBB3:
 151:TkShell.c     ****         if (d != 0 || !*a)
 1394              		.loc 1 151 0
 1395 0002 0578     		ldrb	r5, [r0]
 1396              	.LVL210:
 1397 0004 0E4B     		ldr	r3, .L117
 1398 0006 1A68     		ldr	r2, [r3]
 1399 0008 5319     		adds	r3, r2, r5
 1400 000a 5B78     		ldrb	r3, [r3, #1]
 1401 000c 0324     		movs	r4, #3
 1402 000e 2340     		ands	r3, r4
 1403 0010 012B     		cmp	r3, #1
 1404 0012 02D1     		bne	.L109
 151:TkShell.c     ****         if (d != 0 || !*a)
 1405              		.loc 1 151 0 is_stmt 0 discriminator 1
 1406 0014 2C00     		movs	r4, r5
 1407 0016 2034     		adds	r4, r4, #32
 1408 0018 00E0     		b	.L110
 1409              	.L109:
 151:TkShell.c     ****         if (d != 0 || !*a)
 1410              		.loc 1 151 0 discriminator 2
 1411 001a 2C00     		movs	r4, r5
 1412              	.L110:
 1413              	.LBE3:
 1414              	.LBB4:
 151:TkShell.c     ****         if (d != 0 || !*a)
 1415              		.loc 1 151 0 discriminator 4
 1416 001c 0B78     		ldrb	r3, [r1]
 1417              	.LVL211:
 1418 001e D218     		adds	r2, r2, r3
 1419 0020 5278     		ldrb	r2, [r2, #1]
 1420 0022 0326     		movs	r6, #3
 1421 0024 3240     		ands	r2, r6
 1422 0026 012A     		cmp	r2, #1
 1423 0028 00D1     		bne	.L112
 151:TkShell.c     ****         if (d != 0 || !*a)
 1424              		.loc 1 151 0 discriminator 5
 1425 002a 2033     		adds	r3, r3, #32
 1426              	.LVL212:
 1427              	.L112:
 1428              	.LBE4:
 151:TkShell.c     ****         if (d != 0 || !*a)
 1429              		.loc 1 151 0 discriminator 8
ARM GAS  C:\Users\TERENC~1\AppData\Local\Temp\cc1rRXTX.s 			page 37


 1430 002c E31A     		subs	r3, r4, r3
 1431              	.LVL213:
 152:TkShell.c     ****             return d;
 1432              		.loc 1 152 0 is_stmt 1 discriminator 8
 1433 002e 04D1     		bne	.L116
 152:TkShell.c     ****             return d;
 1434              		.loc 1 152 0 is_stmt 0 discriminator 1
 1435 0030 002D     		cmp	r5, #0
 1436 0032 02D0     		beq	.L116
 1437              	.LBE2:
 149:TkShell.c     ****     {
 1438              		.loc 1 149 0 is_stmt 1
 1439 0034 0130     		adds	r0, r0, #1
 1440              	.LVL214:
 1441 0036 0131     		adds	r1, r1, #1
 1442              	.LVL215:
 154:TkShell.c     **** }
 1443              		.loc 1 154 0
 1444 0038 E3E7     		b	.L115
 1445              	.LVL216:
 1446              	.L116:
 155:TkShell.c     **** 
 1447              		.loc 1 155 0
 1448 003a 1800     		movs	r0, r3
 1449              	.LVL217:
 1450              		@ sp needed
 1451              	.LVL218:
 1452 003c 70BD     		pop	{r4, r5, r6, pc}
 1453              	.L118:
 1454 003e C046     		.align	2
 1455              	.L117:
 1456 0040 00000000 		.word	__ctype_ptr__
 1457              		.cfi_endproc
 1458              	.LFE2:
 1459              		.size	strcicmp, .-strcicmp
 1460              		.section	.text.__tk_shell_pcm_reg,"ax",%progbits
 1461              		.align	2
 1462              		.global	__tk_shell_pcm_reg
 1463              		.code	16
 1464              		.thumb_func
 1465              		.type	__tk_shell_pcm_reg, %function
 1466              	__tk_shell_pcm_reg:
 1467              	.LFB10:
 320:TkShell.c     ****     int i = 2;
 1468              		.loc 1 320 0
 1469              		.cfi_startproc
 1470              		@ args = 0, pretend = 0, frame = 0
 1471              		@ frame_needed = 0, uses_anonymous_args = 0
 1472              	.LVL219:
 1473 0000 70B5     		push	{r4, r5, r6, lr}
 1474              		.cfi_def_cfa_offset 16
 1475              		.cfi_offset 4, -16
 1476              		.cfi_offset 5, -12
 1477              		.cfi_offset 6, -8
 1478              		.cfi_offset 14, -4
 1479 0002 0D00     		movs	r5, r1
 1480              	.LVL220:
ARM GAS  C:\Users\TERENC~1\AppData\Local\Temp\cc1rRXTX.s 			page 38


 325:TkShell.c     ****     
 1481              		.loc 1 325 0
 1482 0004 841E     		subs	r4, r0, #2
 1483              	.LVL221:
 327:TkShell.c     ****     {
 1484              		.loc 1 327 0
 1485 0006 032C     		cmp	r4, #3
 1486 0008 13D0     		beq	.L120
 329:TkShell.c     ****         return -1;
 1487              		.loc 1 329 0
 1488 000a FFF7FEFF 		bl	USBUART_GetConfiguration
 1489              	.LVL222:
 1490 000e 0028     		cmp	r0, #0
 1491 0010 39D0     		beq	.L125
 1492              	.L122:
 329:TkShell.c     ****         return -1;
 1493              		.loc 1 329 0 is_stmt 0 discriminator 1
 1494 0012 FFF7FEFF 		bl	USBUART_CDCIsReady
 1495              	.LVL223:
 1496 0016 0028     		cmp	r0, #0
 1497 0018 FBD0     		beq	.L122
 329:TkShell.c     ****         return -1;
 1498              		.loc 1 329 0 discriminator 2
 1499 001a 1D4D     		ldr	r5, .L127
 1500              	.LVL224:
 1501 001c 2200     		movs	r2, r4
 1502 001e 1D49     		ldr	r1, .L127+4
 1503 0020 2800     		movs	r0, r5
 1504 0022 FFF7FEFF 		bl	sprintf
 1505              	.LVL225:
 1506 0026 2800     		movs	r0, r5
 1507 0028 FFF7FEFF 		bl	USBUART_PutString
 1508              	.LVL226:
 330:TkShell.c     ****     }
 1509              		.loc 1 330 0 is_stmt 1 discriminator 2
 1510 002c 0120     		movs	r0, #1
 1511 002e 4042     		rsbs	r0, r0, #0
 1512 0030 2DE0     		b	.L121
 1513              	.LVL227:
 1514              	.L120:
 333:TkShell.c     ****     data = strtoul(argv[i + 2], NULL, 16);
 1515              		.loc 1 333 0
 1516 0032 C868     		ldr	r0, [r1, #12]
 1517 0034 FFF7FEFF 		bl	atoi
 1518              	.LVL228:
 1519 0038 C4B2     		uxtb	r4, r0
 1520              	.LVL229:
 334:TkShell.c     **** 
 1521              		.loc 1 334 0
 1522 003a 1022     		movs	r2, #16
 1523 003c 0021     		movs	r1, #0
 1524 003e 2869     		ldr	r0, [r5, #16]
 1525 0040 FFF7FEFF 		bl	strtoul
 1526              	.LVL230:
 1527 0044 C6B2     		uxtb	r6, r0
 1528              	.LVL231:
 336:TkShell.c     ****     {
ARM GAS  C:\Users\TERENC~1\AppData\Local\Temp\cc1rRXTX.s 			page 39


 1529              		.loc 1 336 0
 1530 0046 A868     		ldr	r0, [r5, #8]
 1531 0048 1349     		ldr	r1, .L127+8
 1532 004a FFF7FEFF 		bl	strcicmp
 1533              	.LVL232:
 1534 004e 0028     		cmp	r0, #0
 1535 0050 03D1     		bne	.L123
 338:TkShell.c     ****     }
 1536              		.loc 1 338 0
 1537 0052 3100     		movs	r1, r6
 1538 0054 2000     		movs	r0, r4
 1539 0056 FFF7FEFF 		bl	pcm1770_reg_write
 1540              	.LVL233:
 1541              	.L123:
 341:TkShell.c     ****     
 1542              		.loc 1 341 0
 1543 005a FFF7FEFF 		bl	USBUART_GetConfiguration
 1544              	.LVL234:
 1545 005e 0028     		cmp	r0, #0
 1546 0060 14D0     		beq	.L126
 1547              	.L124:
 341:TkShell.c     ****     
 1548              		.loc 1 341 0 is_stmt 0 discriminator 1
 1549 0062 FFF7FEFF 		bl	USBUART_CDCIsReady
 1550              	.LVL235:
 1551 0066 0028     		cmp	r0, #0
 1552 0068 FBD0     		beq	.L124
 341:TkShell.c     ****     
 1553              		.loc 1 341 0 discriminator 2
 1554 006a 2000     		movs	r0, r4
 1555 006c FFF7FEFF 		bl	pcm1770_reg_read
 1556              	.LVL236:
 1557 0070 0200     		movs	r2, r0
 1558 0072 074C     		ldr	r4, .L127
 1559              	.LVL237:
 1560 0074 0949     		ldr	r1, .L127+12
 1561 0076 2000     		movs	r0, r4
 1562 0078 FFF7FEFF 		bl	sprintf
 1563              	.LVL238:
 1564 007c 2000     		movs	r0, r4
 1565 007e FFF7FEFF 		bl	USBUART_PutString
 1566              	.LVL239:
 343:TkShell.c     **** }
 1567              		.loc 1 343 0 is_stmt 1 discriminator 2
 1568 0082 0020     		movs	r0, #0
 1569 0084 03E0     		b	.L121
 1570              	.LVL240:
 1571              	.L125:
 330:TkShell.c     ****     }
 1572              		.loc 1 330 0
 1573 0086 0120     		movs	r0, #1
 1574 0088 4042     		rsbs	r0, r0, #0
 1575 008a 00E0     		b	.L121
 1576              	.LVL241:
 1577              	.L126:
 343:TkShell.c     **** }
 1578              		.loc 1 343 0
ARM GAS  C:\Users\TERENC~1\AppData\Local\Temp\cc1rRXTX.s 			page 40


 1579 008c 0020     		movs	r0, #0
 1580              	.LVL242:
 1581              	.L121:
 344:TkShell.c     **** 
 1582              		.loc 1 344 0
 1583              		@ sp needed
 1584 008e 70BD     		pop	{r4, r5, r6, pc}
 1585              	.L128:
 1586              		.align	2
 1587              	.L127:
 1588 0090 00000000 		.word	gbuf
 1589 0094 4C010000 		.word	.LC65
 1590 0098 70010000 		.word	.LC68
 1591 009c 74010000 		.word	.LC70
 1592              		.cfi_endproc
 1593              	.LFE10:
 1594              		.size	__tk_shell_pcm_reg, .-__tk_shell_pcm_reg
 1595              		.section	.text.__tk_shell_led_start,"ax",%progbits
 1596              		.align	2
 1597              		.global	__tk_shell_led_start
 1598              		.code	16
 1599              		.thumb_func
 1600              		.type	__tk_shell_led_start, %function
 1601              	__tk_shell_led_start:
 1602              	.LFB15:
 379:TkShell.c     ****     int i = 2;
 1603              		.loc 1 379 0
 1604              		.cfi_startproc
 1605              		@ args = 0, pretend = 0, frame = 0
 1606              		@ frame_needed = 0, uses_anonymous_args = 0
 1607              	.LVL243:
 1608 0000 F8B5     		push	{r3, r4, r5, r6, r7, lr}
 1609              		.cfi_def_cfa_offset 24
 1610              		.cfi_offset 3, -24
 1611              		.cfi_offset 4, -20
 1612              		.cfi_offset 5, -16
 1613              		.cfi_offset 6, -12
 1614              		.cfi_offset 7, -8
 1615              		.cfi_offset 14, -4
 1616 0002 0D00     		movs	r5, r1
 1617              	.LVL244:
 384:TkShell.c     ****     
 1618              		.loc 1 384 0
 1619 0004 841E     		subs	r4, r0, #2
 1620              	.LVL245:
 386:TkShell.c     ****     {
 1621              		.loc 1 386 0
 1622 0006 042C     		cmp	r4, #4
 1623 0008 13D0     		beq	.L130
 388:TkShell.c     ****         return -1;
 1624              		.loc 1 388 0
 1625 000a FFF7FEFF 		bl	USBUART_GetConfiguration
 1626              	.LVL246:
 1627 000e 0028     		cmp	r0, #0
 1628 0010 5FD0     		beq	.L136
 1629              	.L132:
 388:TkShell.c     ****         return -1;
ARM GAS  C:\Users\TERENC~1\AppData\Local\Temp\cc1rRXTX.s 			page 41


 1630              		.loc 1 388 0 is_stmt 0 discriminator 1
 1631 0012 FFF7FEFF 		bl	USBUART_CDCIsReady
 1632              	.LVL247:
 1633 0016 0028     		cmp	r0, #0
 1634 0018 FBD0     		beq	.L132
 388:TkShell.c     ****         return -1;
 1635              		.loc 1 388 0 discriminator 2
 1636 001a 324D     		ldr	r5, .L142
 1637              	.LVL248:
 1638 001c 2200     		movs	r2, r4
 1639 001e 3249     		ldr	r1, .L142+4
 1640 0020 2800     		movs	r0, r5
 1641 0022 FFF7FEFF 		bl	sprintf
 1642              	.LVL249:
 1643 0026 2800     		movs	r0, r5
 1644 0028 FFF7FEFF 		bl	USBUART_PutString
 1645              	.LVL250:
 389:TkShell.c     ****     }
 1646              		.loc 1 389 0 is_stmt 1 discriminator 2
 1647 002c 0120     		movs	r0, #1
 1648 002e 4042     		rsbs	r0, r0, #0
 1649 0030 56E0     		b	.L131
 1650              	.LVL251:
 1651              	.L130:
 392:TkShell.c     ****     {
 1652              		.loc 1 392 0
 1653 0032 8C68     		ldr	r4, [r1, #8]
 1654              	.LVL252:
 1655 0034 2D49     		ldr	r1, .L142+8
 1656              	.LVL253:
 1657 0036 2000     		movs	r0, r4
 1658              	.LVL254:
 1659 0038 FFF7FEFF 		bl	strcicmp
 1660              	.LVL255:
 1661 003c 0028     		cmp	r0, #0
 1662 003e 1FD0     		beq	.L137
 396:TkShell.c     ****     {
 1663              		.loc 1 396 0
 1664 0040 2B49     		ldr	r1, .L142+12
 1665 0042 2000     		movs	r0, r4
 1666 0044 FFF7FEFF 		bl	strcicmp
 1667              	.LVL256:
 1668 0048 0028     		cmp	r0, #0
 1669 004a 1BD0     		beq	.L138
 400:TkShell.c     ****     {
 1670              		.loc 1 400 0
 1671 004c 2949     		ldr	r1, .L142+16
 1672 004e 2000     		movs	r0, r4
 1673 0050 FFF7FEFF 		bl	strcicmp
 1674              	.LVL257:
 1675 0054 0028     		cmp	r0, #0
 1676 0056 17D0     		beq	.L139
 406:TkShell.c     ****         return -2;
 1677              		.loc 1 406 0
 1678 0058 FFF7FEFF 		bl	USBUART_GetConfiguration
 1679              	.LVL258:
 1680 005c 0028     		cmp	r0, #0
ARM GAS  C:\Users\TERENC~1\AppData\Local\Temp\cc1rRXTX.s 			page 42


 1681 005e 3BD0     		beq	.L140
 1682              	.L134:
 406:TkShell.c     ****         return -2;
 1683              		.loc 1 406 0 is_stmt 0 discriminator 1
 1684 0060 FFF7FEFF 		bl	USBUART_CDCIsReady
 1685              	.LVL259:
 1686 0064 0028     		cmp	r0, #0
 1687 0066 FBD0     		beq	.L134
 406:TkShell.c     ****         return -2;
 1688              		.loc 1 406 0 discriminator 2
 1689 0068 AA68     		ldr	r2, [r5, #8]
 1690 006a 1E4C     		ldr	r4, .L142
 1691 006c 2249     		ldr	r1, .L142+20
 1692 006e 2000     		movs	r0, r4
 1693 0070 FFF7FEFF 		bl	sprintf
 1694              	.LVL260:
 1695 0074 2000     		movs	r0, r4
 1696 0076 FFF7FEFF 		bl	USBUART_PutString
 1697              	.LVL261:
 407:TkShell.c     ****     }
 1698              		.loc 1 407 0 is_stmt 1 discriminator 2
 1699 007a 0220     		movs	r0, #2
 1700 007c 4042     		rsbs	r0, r0, #0
 1701 007e 2FE0     		b	.L131
 1702              	.L137:
 394:TkShell.c     ****     }
 1703              		.loc 1 394 0
 1704 0080 0027     		movs	r7, #0
 1705 0082 02E0     		b	.L133
 1706              	.L138:
 398:TkShell.c     ****     }
 1707              		.loc 1 398 0
 1708 0084 0127     		movs	r7, #1
 1709 0086 00E0     		b	.L133
 1710              	.L139:
 402:TkShell.c     ****     }
 1711              		.loc 1 402 0
 1712 0088 0227     		movs	r7, #2
 1713              	.L133:
 1714              	.LVL262:
 410:TkShell.c     ****     pwmCompare = atoi(argv[i + 2]);
 1715              		.loc 1 410 0
 1716 008a E868     		ldr	r0, [r5, #12]
 1717 008c FFF7FEFF 		bl	atoi
 1718              	.LVL263:
 1719 0090 0400     		movs	r4, r0
 1720              	.LVL264:
 411:TkShell.c     ****     pwmCounter = atoi(argv[i + 3]);
 1721              		.loc 1 411 0
 1722 0092 2869     		ldr	r0, [r5, #16]
 1723              	.LVL265:
 1724 0094 FFF7FEFF 		bl	atoi
 1725              	.LVL266:
 1726 0098 0600     		movs	r6, r0
 1727              	.LVL267:
 412:TkShell.c     ****     
 1728              		.loc 1 412 0
ARM GAS  C:\Users\TERENC~1\AppData\Local\Temp\cc1rRXTX.s 			page 43


 1729 009a 6869     		ldr	r0, [r5, #20]
 1730              	.LVL268:
 1731 009c FFF7FEFF 		bl	atoi
 1732              	.LVL269:
 1733 00a0 0300     		movs	r3, r0
 1734              	.LVL270:
 414:TkShell.c     ****     
 1735              		.loc 1 414 0
 1736 00a2 3200     		movs	r2, r6
 1737 00a4 2100     		movs	r1, r4
 1738 00a6 3800     		movs	r0, r7
 1739              	.LVL271:
 1740 00a8 FFF7FEFF 		bl	LedManagerStartOverride
 1741              	.LVL272:
 416:TkShell.c     **** 
 1742              		.loc 1 416 0
 1743 00ac FFF7FEFF 		bl	USBUART_GetConfiguration
 1744              	.LVL273:
 1745 00b0 0028     		cmp	r0, #0
 1746 00b2 14D0     		beq	.L141
 1747              	.L135:
 416:TkShell.c     **** 
 1748              		.loc 1 416 0 is_stmt 0 discriminator 1
 1749 00b4 FFF7FEFF 		bl	USBUART_CDCIsReady
 1750              	.LVL274:
 1751 00b8 0028     		cmp	r0, #0
 1752 00ba FBD0     		beq	.L135
 416:TkShell.c     **** 
 1753              		.loc 1 416 0 discriminator 2
 1754 00bc 094C     		ldr	r4, .L142
 1755              	.LVL275:
 1756 00be 0A22     		movs	r2, #10
 1757 00c0 0E49     		ldr	r1, .L142+24
 1758 00c2 2000     		movs	r0, r4
 1759 00c4 FFF7FEFF 		bl	memcpy
 1760              	.LVL276:
 1761 00c8 2000     		movs	r0, r4
 1762 00ca FFF7FEFF 		bl	USBUART_PutString
 1763              	.LVL277:
 418:TkShell.c     **** }
 1764              		.loc 1 418 0 is_stmt 1 discriminator 2
 1765 00ce 0020     		movs	r0, #0
 1766 00d0 06E0     		b	.L131
 1767              	.LVL278:
 1768              	.L136:
 389:TkShell.c     ****     }
 1769              		.loc 1 389 0
 1770 00d2 0120     		movs	r0, #1
 1771 00d4 4042     		rsbs	r0, r0, #0
 1772 00d6 03E0     		b	.L131
 1773              	.LVL279:
 1774              	.L140:
 407:TkShell.c     ****     }
 1775              		.loc 1 407 0
 1776 00d8 0220     		movs	r0, #2
 1777 00da 4042     		rsbs	r0, r0, #0
 1778 00dc 00E0     		b	.L131
ARM GAS  C:\Users\TERENC~1\AppData\Local\Temp\cc1rRXTX.s 			page 44


 1779              	.LVL280:
 1780              	.L141:
 418:TkShell.c     **** }
 1781              		.loc 1 418 0
 1782 00de 0020     		movs	r0, #0
 1783              	.LVL281:
 1784              	.L131:
 419:TkShell.c     **** 
 1785              		.loc 1 419 0
 1786              		@ sp needed
 1787 00e0 F8BD     		pop	{r3, r4, r5, r6, r7, pc}
 1788              	.L143:
 1789 00e2 C046     		.align	2
 1790              	.L142:
 1791 00e4 00000000 		.word	gbuf
 1792 00e8 4C010000 		.word	.LC65
 1793 00ec 88010000 		.word	.LC74
 1794 00f0 8C010000 		.word	.LC76
 1795 00f4 94010000 		.word	.LC78
 1796 00f8 9C010000 		.word	.LC80
 1797 00fc C8010000 		.word	.LC82
 1798              		.cfi_endproc
 1799              	.LFE15:
 1800              		.size	__tk_shell_led_start, .-__tk_shell_led_start
 1801              		.section	.text.__tk_shell_led_stop,"ax",%progbits
 1802              		.align	2
 1803              		.global	__tk_shell_led_stop
 1804              		.code	16
 1805              		.thumb_func
 1806              		.type	__tk_shell_led_stop, %function
 1807              	__tk_shell_led_stop:
 1808              	.LFB16:
 422:TkShell.c     ****     int i = 2;
 1809              		.loc 1 422 0
 1810              		.cfi_startproc
 1811              		@ args = 0, pretend = 0, frame = 0
 1812              		@ frame_needed = 0, uses_anonymous_args = 0
 1813              	.LVL282:
 1814 0000 70B5     		push	{r4, r5, r6, lr}
 1815              		.cfi_def_cfa_offset 16
 1816              		.cfi_offset 4, -16
 1817              		.cfi_offset 5, -12
 1818              		.cfi_offset 6, -8
 1819              		.cfi_offset 14, -4
 1820 0002 0D00     		movs	r5, r1
 1821              	.LVL283:
 426:TkShell.c     ****     
 1822              		.loc 1 426 0
 1823 0004 841E     		subs	r4, r0, #2
 1824              	.LVL284:
 428:TkShell.c     ****     {
 1825              		.loc 1 428 0
 1826 0006 012C     		cmp	r4, #1
 1827 0008 13D0     		beq	.L145
 430:TkShell.c     ****         return -1;
 1828              		.loc 1 430 0
 1829 000a FFF7FEFF 		bl	USBUART_GetConfiguration
ARM GAS  C:\Users\TERENC~1\AppData\Local\Temp\cc1rRXTX.s 			page 45


 1830              	.LVL285:
 1831 000e 0028     		cmp	r0, #0
 1832 0010 50D0     		beq	.L151
 1833              	.L147:
 430:TkShell.c     ****         return -1;
 1834              		.loc 1 430 0 is_stmt 0 discriminator 1
 1835 0012 FFF7FEFF 		bl	USBUART_CDCIsReady
 1836              	.LVL286:
 1837 0016 0028     		cmp	r0, #0
 1838 0018 FBD0     		beq	.L147
 430:TkShell.c     ****         return -1;
 1839              		.loc 1 430 0 discriminator 2
 1840 001a 2A4D     		ldr	r5, .L157
 1841              	.LVL287:
 1842 001c 2200     		movs	r2, r4
 1843 001e 2A49     		ldr	r1, .L157+4
 1844 0020 2800     		movs	r0, r5
 1845 0022 FFF7FEFF 		bl	sprintf
 1846              	.LVL288:
 1847 0026 2800     		movs	r0, r5
 1848 0028 FFF7FEFF 		bl	USBUART_PutString
 1849              	.LVL289:
 431:TkShell.c     ****     }
 1850              		.loc 1 431 0 is_stmt 1 discriminator 2
 1851 002c 0120     		movs	r0, #1
 1852 002e 4042     		rsbs	r0, r0, #0
 1853 0030 47E0     		b	.L146
 1854              	.LVL290:
 1855              	.L145:
 434:TkShell.c     ****     {
 1856              		.loc 1 434 0
 1857 0032 8C68     		ldr	r4, [r1, #8]
 1858              	.LVL291:
 1859 0034 2549     		ldr	r1, .L157+8
 1860              	.LVL292:
 1861 0036 2000     		movs	r0, r4
 1862              	.LVL293:
 1863 0038 FFF7FEFF 		bl	strcicmp
 1864              	.LVL294:
 1865 003c 0028     		cmp	r0, #0
 1866 003e 1FD0     		beq	.L152
 438:TkShell.c     ****     {
 1867              		.loc 1 438 0
 1868 0040 2349     		ldr	r1, .L157+12
 1869 0042 2000     		movs	r0, r4
 1870 0044 FFF7FEFF 		bl	strcicmp
 1871              	.LVL295:
 1872 0048 0028     		cmp	r0, #0
 1873 004a 1BD0     		beq	.L153
 442:TkShell.c     ****     {
 1874              		.loc 1 442 0
 1875 004c 2149     		ldr	r1, .L157+16
 1876 004e 2000     		movs	r0, r4
 1877 0050 FFF7FEFF 		bl	strcicmp
 1878              	.LVL296:
 1879 0054 0028     		cmp	r0, #0
 1880 0056 17D0     		beq	.L154
ARM GAS  C:\Users\TERENC~1\AppData\Local\Temp\cc1rRXTX.s 			page 46


 448:TkShell.c     ****         return -2;
 1881              		.loc 1 448 0
 1882 0058 FFF7FEFF 		bl	USBUART_GetConfiguration
 1883              	.LVL297:
 1884 005c 0028     		cmp	r0, #0
 1885 005e 2CD0     		beq	.L155
 1886              	.L149:
 448:TkShell.c     ****         return -2;
 1887              		.loc 1 448 0 is_stmt 0 discriminator 1
 1888 0060 FFF7FEFF 		bl	USBUART_CDCIsReady
 1889              	.LVL298:
 1890 0064 0028     		cmp	r0, #0
 1891 0066 FBD0     		beq	.L149
 448:TkShell.c     ****         return -2;
 1892              		.loc 1 448 0 discriminator 2
 1893 0068 AA68     		ldr	r2, [r5, #8]
 1894 006a 164C     		ldr	r4, .L157
 1895 006c 1A49     		ldr	r1, .L157+20
 1896 006e 2000     		movs	r0, r4
 1897 0070 FFF7FEFF 		bl	sprintf
 1898              	.LVL299:
 1899 0074 2000     		movs	r0, r4
 1900 0076 FFF7FEFF 		bl	USBUART_PutString
 1901              	.LVL300:
 449:TkShell.c     ****     }
 1902              		.loc 1 449 0 is_stmt 1 discriminator 2
 1903 007a 0220     		movs	r0, #2
 1904 007c 4042     		rsbs	r0, r0, #0
 1905 007e 20E0     		b	.L146
 1906              	.L152:
 436:TkShell.c     ****     }
 1907              		.loc 1 436 0
 1908 0080 0020     		movs	r0, #0
 1909 0082 02E0     		b	.L148
 1910              	.L153:
 440:TkShell.c     ****     }
 1911              		.loc 1 440 0
 1912 0084 0120     		movs	r0, #1
 1913 0086 00E0     		b	.L148
 1914              	.L154:
 444:TkShell.c     ****     }
 1915              		.loc 1 444 0
 1916 0088 0220     		movs	r0, #2
 1917              	.L148:
 1918              	.LVL301:
 451:TkShell.c     ****     
 1919              		.loc 1 451 0
 1920 008a FFF7FEFF 		bl	LedManagerStopOverride
 1921              	.LVL302:
 453:TkShell.c     **** 
 1922              		.loc 1 453 0
 1923 008e FFF7FEFF 		bl	USBUART_GetConfiguration
 1924              	.LVL303:
 1925 0092 0028     		cmp	r0, #0
 1926 0094 14D0     		beq	.L156
 1927              	.L150:
 453:TkShell.c     **** 
ARM GAS  C:\Users\TERENC~1\AppData\Local\Temp\cc1rRXTX.s 			page 47


 1928              		.loc 1 453 0 is_stmt 0 discriminator 1
 1929 0096 FFF7FEFF 		bl	USBUART_CDCIsReady
 1930              	.LVL304:
 1931 009a 0028     		cmp	r0, #0
 1932 009c FBD0     		beq	.L150
 453:TkShell.c     **** 
 1933              		.loc 1 453 0 discriminator 2
 1934 009e 094C     		ldr	r4, .L157
 1935 00a0 0A22     		movs	r2, #10
 1936 00a2 0E49     		ldr	r1, .L157+24
 1937 00a4 2000     		movs	r0, r4
 1938 00a6 FFF7FEFF 		bl	memcpy
 1939              	.LVL305:
 1940 00aa 2000     		movs	r0, r4
 1941 00ac FFF7FEFF 		bl	USBUART_PutString
 1942              	.LVL306:
 455:TkShell.c     **** }
 1943              		.loc 1 455 0 is_stmt 1 discriminator 2
 1944 00b0 0020     		movs	r0, #0
 1945 00b2 06E0     		b	.L146
 1946              	.LVL307:
 1947              	.L151:
 431:TkShell.c     ****     }
 1948              		.loc 1 431 0
 1949 00b4 0120     		movs	r0, #1
 1950 00b6 4042     		rsbs	r0, r0, #0
 1951 00b8 03E0     		b	.L146
 1952              	.LVL308:
 1953              	.L155:
 449:TkShell.c     ****     }
 1954              		.loc 1 449 0
 1955 00ba 0220     		movs	r0, #2
 1956 00bc 4042     		rsbs	r0, r0, #0
 1957 00be 00E0     		b	.L146
 1958              	.LVL309:
 1959              	.L156:
 455:TkShell.c     **** }
 1960              		.loc 1 455 0
 1961 00c0 0020     		movs	r0, #0
 1962              	.LVL310:
 1963              	.L146:
 456:TkShell.c     **** 
 1964              		.loc 1 456 0
 1965              		@ sp needed
 1966 00c2 70BD     		pop	{r4, r5, r6, pc}
 1967              	.L158:
 1968              		.align	2
 1969              	.L157:
 1970 00c4 00000000 		.word	gbuf
 1971 00c8 4C010000 		.word	.LC65
 1972 00cc 88010000 		.word	.LC74
 1973 00d0 8C010000 		.word	.LC76
 1974 00d4 94010000 		.word	.LC78
 1975 00d8 9C010000 		.word	.LC80
 1976 00dc C8010000 		.word	.LC82
 1977              		.cfi_endproc
 1978              	.LFE16:
ARM GAS  C:\Users\TERENC~1\AppData\Local\Temp\cc1rRXTX.s 			page 48


 1979              		.size	__tk_shell_led_stop, .-__tk_shell_led_stop
 1980              		.section	.text.__tk_shell_cal_set,"ax",%progbits
 1981              		.align	2
 1982              		.global	__tk_shell_cal_set
 1983              		.code	16
 1984              		.thumb_func
 1985              		.type	__tk_shell_cal_set, %function
 1986              	__tk_shell_cal_set:
 1987              	.LFB18:
 475:TkShell.c     ****     int i = 2;
 1988              		.loc 1 475 0
 1989              		.cfi_startproc
 1990              		@ args = 0, pretend = 0, frame = 0
 1991              		@ frame_needed = 0, uses_anonymous_args = 0
 1992              	.LVL311:
 1993 0000 70B5     		push	{r4, r5, r6, lr}
 1994              		.cfi_def_cfa_offset 16
 1995              		.cfi_offset 4, -16
 1996              		.cfi_offset 5, -12
 1997              		.cfi_offset 6, -8
 1998              		.cfi_offset 14, -4
 1999 0002 0D00     		movs	r5, r1
 2000              	.LVL312:
 480:TkShell.c     ****     {
 2001              		.loc 1 480 0
 2002 0004 0228     		cmp	r0, #2
 2003 0006 13D1     		bne	.L160
 482:TkShell.c     ****         return -1;
 2004              		.loc 1 482 0
 2005 0008 FFF7FEFF 		bl	USBUART_GetConfiguration
 2006              	.LVL313:
 2007 000c 0028     		cmp	r0, #0
 2008 000e 39D0     		beq	.L165
 2009              	.L162:
 482:TkShell.c     ****         return -1;
 2010              		.loc 1 482 0 is_stmt 0 discriminator 1
 2011 0010 FFF7FEFF 		bl	USBUART_CDCIsReady
 2012              	.LVL314:
 2013 0014 0028     		cmp	r0, #0
 2014 0016 FBD0     		beq	.L162
 482:TkShell.c     ****         return -1;
 2015              		.loc 1 482 0 discriminator 2
 2016 0018 1D4C     		ldr	r4, .L167
 2017 001a 1E22     		movs	r2, #30
 2018 001c 1D49     		ldr	r1, .L167+4
 2019 001e 2000     		movs	r0, r4
 2020 0020 FFF7FEFF 		bl	memcpy
 2021              	.LVL315:
 2022 0024 2000     		movs	r0, r4
 2023 0026 FFF7FEFF 		bl	USBUART_PutString
 2024              	.LVL316:
 483:TkShell.c     ****     }
 2025              		.loc 1 483 0 is_stmt 1 discriminator 2
 2026 002a 0124     		movs	r4, #1
 2027 002c 6442     		rsbs	r4, r4, #0
 2028 002e 2DE0     		b	.L161
 2029              	.LVL317:
ARM GAS  C:\Users\TERENC~1\AppData\Local\Temp\cc1rRXTX.s 			page 49


 2030              	.L160:
 486:TkShell.c     ****     {
 2031              		.loc 1 486 0
 2032 0030 8E68     		ldr	r6, [r1, #8]
 2033 0032 1949     		ldr	r1, .L167+8
 2034              	.LVL318:
 2035 0034 3000     		movs	r0, r6
 2036              	.LVL319:
 2037 0036 FFF7FEFF 		bl	strcicmp
 2038              	.LVL320:
 2039 003a 041E     		subs	r4, r0, #0
 2040 003c 06D1     		bne	.L163
 488:TkShell.c     ****     }
 2041              		.loc 1 488 0
 2042 003e 174B     		ldr	r3, .L167+12
 2043 0040 1E68     		ldr	r6, [r3]
 2044              	.LVL321:
 2045 0042 E868     		ldr	r0, [r5, #12]
 2046 0044 FFF7FEFF 		bl	atoi
 2047              	.LVL322:
 2048 0048 3074     		strb	r0, [r6, #16]
 2049 004a 1FE0     		b	.L161
 2050              	.LVL323:
 2051              	.L163:
 490:TkShell.c     ****     {
 2052              		.loc 1 490 0
 2053 004c 1449     		ldr	r1, .L167+16
 2054 004e 3000     		movs	r0, r6
 2055 0050 FFF7FEFF 		bl	strcicmp
 2056              	.LVL324:
 2057 0054 041E     		subs	r4, r0, #0
 2058 0056 06D1     		bne	.L164
 492:TkShell.c     ****     }
 2059              		.loc 1 492 0
 2060 0058 104B     		ldr	r3, .L167+12
 2061 005a 1E68     		ldr	r6, [r3]
 2062              	.LVL325:
 2063 005c E868     		ldr	r0, [r5, #12]
 2064 005e FFF7FEFF 		bl	atoi
 2065              	.LVL326:
 2066 0062 7081     		strh	r0, [r6, #10]
 2067 0064 12E0     		b	.L161
 2068              	.LVL327:
 2069              	.L164:
 494:TkShell.c     ****     {
 2070              		.loc 1 494 0
 2071 0066 0F49     		ldr	r1, .L167+20
 2072 0068 3000     		movs	r0, r6
 2073 006a FFF7FEFF 		bl	strcicmp
 2074              	.LVL328:
 2075 006e 041E     		subs	r4, r0, #0
 2076 0070 0BD1     		bne	.L166
 496:TkShell.c     ****     }
 2077              		.loc 1 496 0
 2078 0072 0A4B     		ldr	r3, .L167+12
 2079 0074 1E68     		ldr	r6, [r3]
 2080              	.LVL329:
ARM GAS  C:\Users\TERENC~1\AppData\Local\Temp\cc1rRXTX.s 			page 50


 2081 0076 E868     		ldr	r0, [r5, #12]
 2082 0078 1022     		movs	r2, #16
 2083 007a 0021     		movs	r1, #0
 2084 007c FFF7FEFF 		bl	strtoul
 2085              	.LVL330:
 2086 0080 7074     		strb	r0, [r6, #17]
 2087 0082 03E0     		b	.L161
 2088              	.LVL331:
 2089              	.L165:
 483:TkShell.c     ****     }
 2090              		.loc 1 483 0
 2091 0084 0124     		movs	r4, #1
 2092 0086 6442     		rsbs	r4, r4, #0
 2093 0088 00E0     		b	.L161
 2094              	.L166:
 498:TkShell.c     **** }
 2095              		.loc 1 498 0
 2096 008a 0024     		movs	r4, #0
 2097              	.LVL332:
 2098              	.L161:
 499:TkShell.c     **** 
 2099              		.loc 1 499 0
 2100 008c 2000     		movs	r0, r4
 2101              		@ sp needed
 2102              	.LVL333:
 2103 008e 70BD     		pop	{r4, r5, r6, pc}
 2104              	.L168:
 2105              		.align	2
 2106              	.L167:
 2107 0090 00000000 		.word	gbuf
 2108 0094 0C000000 		.word	.LC4
 2109 0098 D4010000 		.word	.LC93
 2110 009c 00000000 		.word	cal_data
 2111 00a0 E8010000 		.word	.LC96
 2112 00a4 F4010000 		.word	.LC98
 2113              		.cfi_endproc
 2114              	.LFE18:
 2115              		.size	__tk_shell_cal_set, .-__tk_shell_cal_set
 2116              		.section	.text.TkShellProcessCommand,"ax",%progbits
 2117              		.align	2
 2118              		.code	16
 2119              		.thumb_func
 2120              		.type	TkShellProcessCommand, %function
 2121              	TkShellProcessCommand:
 2122              	.LFB20:
 506:TkShell.c     **** 
 507:TkShell.c     **** static int TkShellProcessCommand(void)
 508:TkShell.c     **** {
 2123              		.loc 1 508 0
 2124              		.cfi_startproc
 2125              		@ args = 0, pretend = 0, frame = 48
 2126              		@ frame_needed = 0, uses_anonymous_args = 0
 2127 0000 F0B5     		push	{r4, r5, r6, r7, lr}
 2128              		.cfi_def_cfa_offset 20
 2129              		.cfi_offset 4, -20
 2130              		.cfi_offset 5, -16
 2131              		.cfi_offset 6, -12
ARM GAS  C:\Users\TERENC~1\AppData\Local\Temp\cc1rRXTX.s 			page 51


 2132              		.cfi_offset 7, -8
 2133              		.cfi_offset 14, -4
 2134 0002 5F46     		mov	r7, fp
 2135 0004 5646     		mov	r6, r10
 2136 0006 4D46     		mov	r5, r9
 2137 0008 4446     		mov	r4, r8
 2138 000a F0B4     		push	{r4, r5, r6, r7}
 2139              		.cfi_def_cfa_offset 36
 2140              		.cfi_offset 8, -36
 2141              		.cfi_offset 9, -32
 2142              		.cfi_offset 10, -28
 2143              		.cfi_offset 11, -24
 2144 000c 8FB0     		sub	sp, sp, #60
 2145              		.cfi_def_cfa_offset 96
 2146              	.LVL334:
 509:TkShell.c     ****     int retval = -1;
 510:TkShell.c     ****     char *buf = cmd_buf;
 511:TkShell.c     ****     bool found = false;
 512:TkShell.c     ****     char *argv[TK_SHELL_MAX_ARGS];
 513:TkShell.c     ****     int argc = 0;
 2147              		.loc 1 513 0
 2148 000e 0023     		movs	r3, #0
 2149 0010 9946     		mov	r9, r3
 510:TkShell.c     ****     bool found = false;
 2150              		.loc 1 510 0
 2151 0012 8E4A     		ldr	r2, .L208
 2152 0014 02E0     		b	.L170
 2153              	.LVL335:
 2154              	.L172:
 514:TkShell.c     ****     int i = 0, j = 0, k = 0;
 515:TkShell.c     ****     
 516:TkShell.c     ****     while (1)
 517:TkShell.c     ****     {
 518:TkShell.c     ****         // skip over whitespace
 519:TkShell.c     ****         while (*buf && isspace(*buf))
 520:TkShell.c     ****         {
 521:TkShell.c     ****           *buf = '\0';
 2155              		.loc 1 521 0
 2156 0016 0023     		movs	r3, #0
 2157 0018 1370     		strb	r3, [r2]
 522:TkShell.c     ****           ++buf;
 2158              		.loc 1 522 0
 2159 001a 0132     		adds	r2, r2, #1
 2160              	.LVL336:
 2161              	.L170:
 519:TkShell.c     ****         {
 2162              		.loc 1 519 0
 2163 001c 1378     		ldrb	r3, [r2]
 2164 001e 002B     		cmp	r3, #0
 2165 0020 05D0     		beq	.L171
 519:TkShell.c     ****         {
 2166              		.loc 1 519 0 is_stmt 0 discriminator 1
 2167 0022 8B49     		ldr	r1, .L208+4
 2168 0024 0968     		ldr	r1, [r1]
 2169 0026 C918     		adds	r1, r1, r3
 2170 0028 4978     		ldrb	r1, [r1, #1]
 2171 002a 0907     		lsls	r1, r1, #28
ARM GAS  C:\Users\TERENC~1\AppData\Local\Temp\cc1rRXTX.s 			page 52


 2172 002c F3D4     		bmi	.L172
 2173              	.L171:
 523:TkShell.c     ****         }
 524:TkShell.c     **** 
 525:TkShell.c     ****         if (*buf == '\0')
 2174              		.loc 1 525 0 is_stmt 1
 2175 002e 002B     		cmp	r3, #0
 2176 0030 29D0     		beq	.L173
 526:TkShell.c     ****         {
 527:TkShell.c     ****           break;
 528:TkShell.c     ****         }
 529:TkShell.c     ****         
 530:TkShell.c     ****         argv[argc] = buf;
 2177              		.loc 1 530 0
 2178 0032 4B46     		mov	r3, r9
 2179 0034 9B00     		lsls	r3, r3, #2
 2180 0036 04A9     		add	r1, sp, #16
 2181 0038 5A50     		str	r2, [r3, r1]
 531:TkShell.c     ****         
 532:TkShell.c     ****         // skip over the rest of arg until whitespace again
 533:TkShell.c     ****         while (*buf && !isspace(*buf))
 2182              		.loc 1 533 0
 2183 003a 00E0     		b	.L174
 2184              	.L176:
 534:TkShell.c     ****         {
 535:TkShell.c     ****             buf++;
 2185              		.loc 1 535 0
 2186 003c 0132     		adds	r2, r2, #1
 2187              	.LVL337:
 2188              	.L174:
 533:TkShell.c     ****         {
 2189              		.loc 1 533 0
 2190 003e 1378     		ldrb	r3, [r2]
 2191 0040 002B     		cmp	r3, #0
 2192 0042 05D0     		beq	.L175
 533:TkShell.c     ****         {
 2193              		.loc 1 533 0 is_stmt 0 discriminator 1
 2194 0044 8249     		ldr	r1, .L208+4
 2195 0046 0968     		ldr	r1, [r1]
 2196 0048 CB18     		adds	r3, r1, r3
 2197 004a 5B78     		ldrb	r3, [r3, #1]
 2198 004c 1B07     		lsls	r3, r3, #28
 2199 004e F5D5     		bpl	.L176
 2200              	.L175:
 536:TkShell.c     ****         }
 537:TkShell.c     ****         ++argc;
 2201              		.loc 1 537 0 is_stmt 1
 2202 0050 0123     		movs	r3, #1
 2203 0052 9C46     		mov	ip, r3
 2204 0054 E144     		add	r9, r9, ip
 2205              	.LVL338:
 538:TkShell.c     ****         
 539:TkShell.c     ****         if (argc > TK_SHELL_MAX_ARGS)
 2206              		.loc 1 539 0
 2207 0056 4B46     		mov	r3, r9
 2208 0058 0A2B     		cmp	r3, #10
 2209 005a DFDD     		ble	.L170
ARM GAS  C:\Users\TERENC~1\AppData\Local\Temp\cc1rRXTX.s 			page 53


 540:TkShell.c     ****         {
 541:TkShell.c     ****             PRINTF("Too many arguments!\n");
 2210              		.loc 1 541 0
 2211 005c FFF7FEFF 		bl	USBUART_GetConfiguration
 2212              	.LVL339:
 2213 0060 0028     		cmp	r0, #0
 2214 0062 00D1     		bne	.LCB2241
 2215 0064 E4E0     		b	.L203	@long jump
 2216              	.LCB2241:
 2217              	.L179:
 2218              		.loc 1 541 0 is_stmt 0 discriminator 1
 2219 0066 FFF7FEFF 		bl	USBUART_CDCIsReady
 2220              	.LVL340:
 2221 006a 0028     		cmp	r0, #0
 2222 006c FBD0     		beq	.L179
 2223              		.loc 1 541 0 discriminator 2
 2224 006e 794C     		ldr	r4, .L208+8
 2225 0070 1522     		movs	r2, #21
 2226 0072 7949     		ldr	r1, .L208+12
 2227 0074 2000     		movs	r0, r4
 2228 0076 FFF7FEFF 		bl	memcpy
 2229              	.LVL341:
 2230 007a 2000     		movs	r0, r4
 2231 007c FFF7FEFF 		bl	USBUART_PutString
 2232              	.LVL342:
 542:TkShell.c     ****             return -2;
 2233              		.loc 1 542 0 is_stmt 1 discriminator 2
 2234 0080 0220     		movs	r0, #2
 2235 0082 4042     		rsbs	r0, r0, #0
 2236 0084 DAE0     		b	.L178
 2237              	.LVL343:
 2238              	.L173:
 543:TkShell.c     ****         }
 544:TkShell.c     ****     }
 545:TkShell.c     ****     
 546:TkShell.c     ****     if (argc > 0)
 2239              		.loc 1 546 0
 2240 0086 4B46     		mov	r3, r9
 2241 0088 002B     		cmp	r3, #0
 2242 008a 00DD     		ble	.LCB2267
 2243 008c A8E0     		b	.L204	@long jump
 2244              	.LCB2267:
 2245              	.LVL344:
 511:TkShell.c     ****     char *argv[TK_SHELL_MAX_ARGS];
 2246              		.loc 1 511 0
 2247 008e 0023     		movs	r3, #0
 2248              	.LVL345:
 2249 0090 9A46     		mov	r10, r3
 509:TkShell.c     ****     char *buf = cmd_buf;
 2250              		.loc 1 509 0
 2251 0092 013B     		subs	r3, r3, #1
 2252 0094 0393     		str	r3, [sp, #12]
 2253 0096 B5E0     		b	.L181
 2254              	.LVL346:
 2255              	.L201:
 547:TkShell.c     ****     {
 548:TkShell.c     ****         i = j = k = 0;
ARM GAS  C:\Users\TERENC~1\AppData\Local\Temp\cc1rRXTX.s 			page 54


 549:TkShell.c     ****         while (strcmp(commands[i].name, "") != 0)
 550:TkShell.c     ****         {
 551:TkShell.c     ****             if (strcicmp(argv[0], commands[i].name) == 0)
 2256              		.loc 1 551 0
 2257 0098 049D     		ldr	r5, [sp, #16]
 2258 009a 0299     		ldr	r1, [sp, #8]
 2259 009c 2800     		movs	r0, r5
 2260 009e FFF7FEFF 		bl	strcicmp
 2261              	.LVL347:
 2262 00a2 0028     		cmp	r0, #0
 2263 00a4 4AD0     		beq	.L182
 2264 00a6 5DE0     		b	.L207
 2265              	.L193:
 552:TkShell.c     ****             {
 553:TkShell.c     ****                 while (strcmp(commands[i].verbs[j].name, "") != 0)
 554:TkShell.c     ****                 {
 555:TkShell.c     ****                     if (strcicmp(argv[1], commands[i].verbs[j].name) == 0)
 2266              		.loc 1 555 0
 2267 00a8 059D     		ldr	r5, [sp, #20]
 2268 00aa 2800     		movs	r0, r5
 2269 00ac FFF7FEFF 		bl	strcicmp
 2270              	.LVL348:
 2271 00b0 0028     		cmp	r0, #0
 2272 00b2 08D1     		bne	.L184
 556:TkShell.c     ****                     {
 557:TkShell.c     ****                         retval = commands[i].verbs[j].func(argc, argv);
 2273              		.loc 1 557 0
 2274 00b4 5B46     		mov	r3, fp
 2275 00b6 5B68     		ldr	r3, [r3, #4]
 2276 00b8 04A9     		add	r1, sp, #16
 2277 00ba 4846     		mov	r0, r9
 2278 00bc 9847     		blx	r3
 2279              	.LVL349:
 2280 00be 0390     		str	r0, [sp, #12]
 2281              	.LVL350:
 558:TkShell.c     ****                         found = true;
 2282              		.loc 1 558 0
 2283 00c0 0123     		movs	r3, #1
 2284 00c2 9A46     		mov	r10, r3
 559:TkShell.c     ****                         break;
 2285              		.loc 1 559 0
 2286 00c4 4AE0     		b	.L185
 2287              	.LVL351:
 2288              	.L184:
 560:TkShell.c     ****                     }
 561:TkShell.c     ****                     else if (strcicmp(argv[1], "help") == 0)
 2289              		.loc 1 561 0
 2290 00c6 6549     		ldr	r1, .L208+16
 2291 00c8 2800     		movs	r0, r5
 2292 00ca FFF7FEFF 		bl	strcicmp
 2293              	.LVL352:
 2294 00ce 0028     		cmp	r0, #0
 2295 00d0 33D1     		bne	.L186
 2296              	.LVL353:
 562:TkShell.c     ****                     {
 563:TkShell.c     ****                         found = true;
 564:TkShell.c     ****                         PRINTF("Displaying list of %s commands:\n", commands[i].name);
ARM GAS  C:\Users\TERENC~1\AppData\Local\Temp\cc1rRXTX.s 			page 55


 2297              		.loc 1 564 0
 2298 00d2 FFF7FEFF 		bl	USBUART_GetConfiguration
 2299              	.LVL354:
 2300 00d6 0028     		cmp	r0, #0
 2301 00d8 23D0     		beq	.L189
 2302              	.L188:
 2303              		.loc 1 564 0 is_stmt 0 discriminator 1
 2304 00da FFF7FEFF 		bl	USBUART_CDCIsReady
 2305              	.LVL355:
 2306 00de 0028     		cmp	r0, #0
 2307 00e0 FBD0     		beq	.L188
 2308              		.loc 1 564 0 discriminator 2
 2309 00e2 5C4D     		ldr	r5, .L208+8
 2310 00e4 029A     		ldr	r2, [sp, #8]
 2311 00e6 5E49     		ldr	r1, .L208+20
 2312 00e8 2800     		movs	r0, r5
 2313 00ea FFF7FEFF 		bl	sprintf
 2314              	.LVL356:
 2315 00ee 2800     		movs	r0, r5
 2316 00f0 FFF7FEFF 		bl	USBUART_PutString
 2317              	.LVL357:
 2318 00f4 15E0     		b	.L189
 2319              	.L192:
 565:TkShell.c     ****                         while (strcmp(commands[i].verbs[k].name, "") != 0)
 566:TkShell.c     ****                         {
 567:TkShell.c     ****                             PRINTF("\t%s %s: %s\n", commands[i].name, commands[i].verbs[k].name, co
 2320              		.loc 1 567 0 is_stmt 1
 2321 00f6 FFF7FEFF 		bl	USBUART_GetConfiguration
 2322              	.LVL358:
 2323 00fa 0028     		cmp	r0, #0
 2324 00fc 0ED0     		beq	.L190
 2325              	.L191:
 2326              		.loc 1 567 0 is_stmt 0 discriminator 1
 2327 00fe FFF7FEFF 		bl	USBUART_CDCIsReady
 2328              	.LVL359:
 2329 0102 0028     		cmp	r0, #0
 2330 0104 FBD0     		beq	.L191
 2331              		.loc 1 567 0 discriminator 2
 2332 0106 2B68     		ldr	r3, [r5]
 2333 0108 AA68     		ldr	r2, [r5, #8]
 2334 010a 0092     		str	r2, [sp]
 2335 010c 029A     		ldr	r2, [sp, #8]
 2336 010e 5549     		ldr	r1, .L208+24
 2337 0110 5048     		ldr	r0, .L208+8
 2338 0112 FFF7FEFF 		bl	sprintf
 2339              	.LVL360:
 2340 0116 4F48     		ldr	r0, .L208+8
 2341 0118 FFF7FEFF 		bl	USBUART_PutString
 2342              	.LVL361:
 2343              	.L190:
 568:TkShell.c     ****                             k++;
 2344              		.loc 1 568 0 is_stmt 1
 2345 011c 0123     		movs	r3, #1
 2346 011e 9C46     		mov	ip, r3
 2347 0120 E044     		add	r8, r8, ip
 2348              	.LVL362:
 2349              	.L189:
ARM GAS  C:\Users\TERENC~1\AppData\Local\Temp\cc1rRXTX.s 			page 56


 565:TkShell.c     ****                         while (strcmp(commands[i].verbs[k].name, "") != 0)
 2350              		.loc 1 565 0
 2351 0122 4346     		mov	r3, r8
 2352 0124 5B00     		lsls	r3, r3, #1
 2353 0126 4344     		add	r3, r3, r8
 2354 0128 9A00     		lsls	r2, r3, #2
 2355 012a BD18     		adds	r5, r7, r2
 2356 012c 2B68     		ldr	r3, [r5]
 2357 012e 1B78     		ldrb	r3, [r3]
 2358 0130 002B     		cmp	r3, #0
 2359 0132 E0D1     		bne	.L192
 563:TkShell.c     ****                         PRINTF("Displaying list of %s commands:\n", commands[i].name);
 2360              		.loc 1 563 0
 2361 0134 0133     		adds	r3, r3, #1
 2362 0136 9A46     		mov	r10, r3
 2363 0138 10E0     		b	.L185
 2364              	.LVL363:
 2365              	.L186:
 569:TkShell.c     ****                         }
 570:TkShell.c     ****                         break;
 571:TkShell.c     ****                     }
 572:TkShell.c     ****                     j++;
 2366              		.loc 1 572 0
 2367 013a 0134     		adds	r4, r4, #1
 2368              	.LVL364:
 2369              	.L182:
 553:TkShell.c     ****                 {
 2370              		.loc 1 553 0
 2371 013c 7200     		lsls	r2, r6, #1
 2372 013e 9219     		adds	r2, r2, r6
 2373 0140 9300     		lsls	r3, r2, #2
 2374 0142 494A     		ldr	r2, .L208+28
 2375 0144 D318     		adds	r3, r2, r3
 2376 0146 DF6B     		ldr	r7, [r3, #60]
 2377 0148 6300     		lsls	r3, r4, #1
 2378 014a 1B19     		adds	r3, r3, r4
 2379 014c 9A00     		lsls	r2, r3, #2
 2380 014e 9346     		mov	fp, r2
 2381 0150 BB44     		add	fp, fp, r7
 2382 0152 5B46     		mov	r3, fp
 2383 0154 1968     		ldr	r1, [r3]
 2384 0156 0B78     		ldrb	r3, [r1]
 2385 0158 002B     		cmp	r3, #0
 2386 015a A5D1     		bne	.L193
 2387              	.LVL365:
 2388              	.L185:
 573:TkShell.c     ****                 }
 574:TkShell.c     **** 
 575:TkShell.c     ****                 if (found)
 2389              		.loc 1 575 0
 2390 015c 5346     		mov	r3, r10
 2391 015e 002B     		cmp	r3, #0
 2392 0160 3CD0     		beq	.L194
 2393 0162 4FE0     		b	.L181
 2394              	.L207:
 576:TkShell.c     ****                 {
 577:TkShell.c     ****                     break;
ARM GAS  C:\Users\TERENC~1\AppData\Local\Temp\cc1rRXTX.s 			page 57


 578:TkShell.c     ****                 }
 579:TkShell.c     ****             }
 580:TkShell.c     ****             else if (strcicmp(argv[0], "help") == 0)
 2395              		.loc 1 580 0
 2396 0164 3D49     		ldr	r1, .L208+16
 2397 0166 2800     		movs	r0, r5
 2398 0168 FFF7FEFF 		bl	strcicmp
 2399              	.LVL366:
 2400 016c 0028     		cmp	r0, #0
 2401 016e 35D1     		bne	.L194
 2402              	.LVL367:
 581:TkShell.c     ****             {
 582:TkShell.c     ****                 found = true;
 583:TkShell.c     ****                 PRINTF("Displaying list of commands:\n");
 2403              		.loc 1 583 0
 2404 0170 FFF7FEFF 		bl	USBUART_GetConfiguration
 2405              	.LVL368:
 2406 0174 0028     		cmp	r0, #0
 2407 0176 25D0     		beq	.L197
 2408              	.L196:
 2409              		.loc 1 583 0 is_stmt 0 discriminator 1
 2410 0178 FFF7FEFF 		bl	USBUART_CDCIsReady
 2411              	.LVL369:
 2412 017c 0028     		cmp	r0, #0
 2413 017e FBD0     		beq	.L196
 2414              		.loc 1 583 0 discriminator 2
 2415 0180 344D     		ldr	r5, .L208+8
 2416 0182 1E22     		movs	r2, #30
 2417 0184 3949     		ldr	r1, .L208+32
 2418 0186 2800     		movs	r0, r5
 2419 0188 FFF7FEFF 		bl	memcpy
 2420              	.LVL370:
 2421 018c 2800     		movs	r0, r5
 2422 018e FFF7FEFF 		bl	USBUART_PutString
 2423              	.LVL371:
 2424 0192 17E0     		b	.L197
 2425              	.LVL372:
 2426              	.L200:
 584:TkShell.c     ****                 while (strcmp(commands[j].name, "") != 0)
 585:TkShell.c     ****                 {
 586:TkShell.c     ****                     PRINTF("\t%s: %s\n", commands[j].name, commands[j].desc);
 2427              		.loc 1 586 0 is_stmt 1
 2428 0194 FFF7FEFF 		bl	USBUART_GetConfiguration
 2429              	.LVL373:
 2430 0198 0028     		cmp	r0, #0
 2431 019a 12D0     		beq	.L198
 2432              	.L199:
 2433              		.loc 1 586 0 is_stmt 0 discriminator 1
 2434 019c FFF7FEFF 		bl	USBUART_CDCIsReady
 2435              	.LVL374:
 2436 01a0 0028     		cmp	r0, #0
 2437 01a2 FBD0     		beq	.L199
 2438              		.loc 1 586 0 discriminator 2
 2439 01a4 6200     		lsls	r2, r4, #1
 2440 01a6 1219     		adds	r2, r2, r4
 2441 01a8 9300     		lsls	r3, r2, #2
 2442 01aa 2F4A     		ldr	r2, .L208+28
ARM GAS  C:\Users\TERENC~1\AppData\Local\Temp\cc1rRXTX.s 			page 58


 2443 01ac D318     		adds	r3, r2, r3
 2444 01ae 1B6C     		ldr	r3, [r3, #64]
 2445 01b0 284E     		ldr	r6, .L208+8
 2446 01b2 2A00     		movs	r2, r5
 2447 01b4 2E49     		ldr	r1, .L208+36
 2448 01b6 3000     		movs	r0, r6
 2449 01b8 FFF7FEFF 		bl	sprintf
 2450              	.LVL375:
 2451 01bc 3000     		movs	r0, r6
 2452 01be FFF7FEFF 		bl	USBUART_PutString
 2453              	.LVL376:
 2454              	.L198:
 587:TkShell.c     ****                     j++;
 2455              		.loc 1 587 0 is_stmt 1
 2456 01c2 0134     		adds	r4, r4, #1
 2457              	.LVL377:
 2458              	.L197:
 584:TkShell.c     ****                 while (strcmp(commands[j].name, "") != 0)
 2459              		.loc 1 584 0
 2460 01c4 6200     		lsls	r2, r4, #1
 2461 01c6 1219     		adds	r2, r2, r4
 2462 01c8 9300     		lsls	r3, r2, #2
 2463 01ca 274A     		ldr	r2, .L208+28
 2464 01cc D318     		adds	r3, r2, r3
 2465 01ce 9D6B     		ldr	r5, [r3, #56]
 2466 01d0 2B78     		ldrb	r3, [r5]
 2467 01d2 002B     		cmp	r3, #0
 2468 01d4 DED1     		bne	.L200
 582:TkShell.c     ****                 PRINTF("Displaying list of commands:\n");
 2469              		.loc 1 582 0
 2470 01d6 0133     		adds	r3, r3, #1
 2471 01d8 9A46     		mov	r10, r3
 2472 01da 13E0     		b	.L181
 2473              	.LVL378:
 2474              	.L194:
 588:TkShell.c     ****                 }
 589:TkShell.c     ****                 break;
 590:TkShell.c     ****             }
 591:TkShell.c     ****             i++;
 2475              		.loc 1 591 0
 2476 01dc 0136     		adds	r6, r6, #1
 2477              	.LVL379:
 2478 01de 06E0     		b	.L180
 2479              	.LVL380:
 2480              	.L204:
 2481 01e0 0023     		movs	r3, #0
 2482              	.LVL381:
 2483 01e2 9846     		mov	r8, r3
 2484 01e4 0024     		movs	r4, #0
 2485 01e6 0026     		movs	r6, #0
 2486 01e8 9A46     		mov	r10, r3
 2487 01ea 013B     		subs	r3, r3, #1
 2488 01ec 0393     		str	r3, [sp, #12]
 2489              	.LVL382:
 2490              	.L180:
 549:TkShell.c     ****         {
 2491              		.loc 1 549 0
ARM GAS  C:\Users\TERENC~1\AppData\Local\Temp\cc1rRXTX.s 			page 59


 2492 01ee 7200     		lsls	r2, r6, #1
 2493 01f0 9219     		adds	r2, r2, r6
 2494 01f2 9300     		lsls	r3, r2, #2
 2495 01f4 1C4A     		ldr	r2, .L208+28
 2496 01f6 D318     		adds	r3, r2, r3
 2497 01f8 9B6B     		ldr	r3, [r3, #56]
 2498 01fa 0293     		str	r3, [sp, #8]
 2499 01fc 1B78     		ldrb	r3, [r3]
 2500 01fe 002B     		cmp	r3, #0
 2501 0200 00D0     		beq	.LCB2591
 2502 0202 49E7     		b	.L201	@long jump
 2503              	.LCB2591:
 2504              	.LVL383:
 2505              	.L181:
 592:TkShell.c     ****         }
 593:TkShell.c     ****     }
 594:TkShell.c     ****     
 595:TkShell.c     ****     if (!found)
 2506              		.loc 1 595 0
 2507 0204 5346     		mov	r3, r10
 2508 0206 002B     		cmp	r3, #0
 2509 0208 15D1     		bne	.L205
 596:TkShell.c     ****     {
 597:TkShell.c     ****         PRINTF("unknown command: %s\n", argv[0]);
 2510              		.loc 1 597 0
 2511 020a FFF7FEFF 		bl	USBUART_GetConfiguration
 2512              	.LVL384:
 2513 020e 0028     		cmp	r0, #0
 2514 0210 13D0     		beq	.L206
 2515              	.L202:
 2516              		.loc 1 597 0 is_stmt 0 discriminator 1
 2517 0212 FFF7FEFF 		bl	USBUART_CDCIsReady
 2518              	.LVL385:
 2519 0216 0028     		cmp	r0, #0
 2520 0218 FBD0     		beq	.L202
 2521              		.loc 1 597 0 discriminator 2
 2522 021a 0E4C     		ldr	r4, .L208+8
 2523 021c 049A     		ldr	r2, [sp, #16]
 2524 021e 1549     		ldr	r1, .L208+40
 2525 0220 2000     		movs	r0, r4
 2526 0222 FFF7FEFF 		bl	sprintf
 2527              	.LVL386:
 2528 0226 2000     		movs	r0, r4
 2529 0228 FFF7FEFF 		bl	USBUART_PutString
 2530              	.LVL387:
 598:TkShell.c     ****     }
 599:TkShell.c     ****     
 600:TkShell.c     ****     return retval;
 2531              		.loc 1 600 0 is_stmt 1 discriminator 2
 2532 022c 0398     		ldr	r0, [sp, #12]
 2533 022e 05E0     		b	.L178
 2534              	.LVL388:
 2535              	.L203:
 542:TkShell.c     ****         }
 2536              		.loc 1 542 0
 2537 0230 0220     		movs	r0, #2
 2538 0232 4042     		rsbs	r0, r0, #0
ARM GAS  C:\Users\TERENC~1\AppData\Local\Temp\cc1rRXTX.s 			page 60


 2539 0234 02E0     		b	.L178
 2540              	.LVL389:
 2541              	.L205:
 2542              		.loc 1 600 0
 2543 0236 0398     		ldr	r0, [sp, #12]
 2544 0238 00E0     		b	.L178
 2545              	.L206:
 2546 023a 0398     		ldr	r0, [sp, #12]
 2547              	.LVL390:
 2548              	.L178:
 601:TkShell.c     **** }
 2549              		.loc 1 601 0
 2550 023c 0FB0     		add	sp, sp, #60
 2551              		@ sp needed
 2552              	.LVL391:
 2553 023e 3CBC     		pop	{r2, r3, r4, r5}
 2554 0240 9046     		mov	r8, r2
 2555 0242 9946     		mov	r9, r3
 2556 0244 A246     		mov	r10, r4
 2557 0246 AB46     		mov	fp, r5
 2558 0248 F0BD     		pop	{r4, r5, r6, r7, pc}
 2559              	.L209:
 2560 024a C046     		.align	2
 2561              	.L208:
 2562 024c 00000000 		.word	.LANCHOR1
 2563 0250 00000000 		.word	__ctype_ptr__
 2564 0254 00000000 		.word	gbuf
 2565 0258 00020000 		.word	.LC103
 2566 025c 18020000 		.word	.LC105
 2567 0260 20020000 		.word	.LC107
 2568 0264 44020000 		.word	.LC109
 2569 0268 00000000 		.word	.LANCHOR0
 2570 026c 50020000 		.word	.LC112
 2571 0270 70020000 		.word	.LC114
 2572 0274 7C020000 		.word	.LC116
 2573              		.cfi_endproc
 2574              	.LFE20:
 2575              		.size	TkShellProcessCommand, .-TkShellProcessCommand
 2576              		.section	.text.TkShellInit,"ax",%progbits
 2577              		.align	2
 2578              		.global	TkShellInit
 2579              		.code	16
 2580              		.thumb_func
 2581              		.type	TkShellInit, %function
 2582              	TkShellInit:
 2583              	.LFB21:
 602:TkShell.c     **** 
 603:TkShell.c     **** void TkShellInit(void)
 604:TkShell.c     **** {
 2584              		.loc 1 604 0
 2585              		.cfi_startproc
 2586              		@ args = 0, pretend = 0, frame = 0
 2587              		@ frame_needed = 0, uses_anonymous_args = 0
 2588 0000 10B5     		push	{r4, lr}
 2589              		.cfi_def_cfa_offset 8
 2590              		.cfi_offset 4, -8
 2591              		.cfi_offset 14, -4
ARM GAS  C:\Users\TERENC~1\AppData\Local\Temp\cc1rRXTX.s 			page 61


 605:TkShell.c     ****     memset((void *)cmd_buf, 0, CMD_BUF_LEN);
 2592              		.loc 1 605 0
 2593 0002 054C     		ldr	r4, .L211
 2594 0004 4022     		movs	r2, #64
 2595 0006 0021     		movs	r1, #0
 2596 0008 2000     		movs	r0, r4
 2597 000a FFF7FEFF 		bl	memset
 2598              	.LVL392:
 606:TkShell.c     ****     cmd_char_count = 0;
 2599              		.loc 1 606 0
 2600 000e 0022     		movs	r2, #0
 2601 0010 4023     		movs	r3, #64
 2602 0012 E254     		strb	r2, [r4, r3]
 607:TkShell.c     **** }
 2603              		.loc 1 607 0
 2604              		@ sp needed
 2605 0014 10BD     		pop	{r4, pc}
 2606              	.L212:
 2607 0016 C046     		.align	2
 2608              	.L211:
 2609 0018 00000000 		.word	.LANCHOR1
 2610              		.cfi_endproc
 2611              	.LFE21:
 2612              		.size	TkShellInit, .-TkShellInit
 2613              		.section	.text.TkShellService,"ax",%progbits
 2614              		.align	2
 2615              		.global	TkShellService
 2616              		.code	16
 2617              		.thumb_func
 2618              		.type	TkShellService, %function
 2619              	TkShellService:
 2620              	.LFB22:
 608:TkShell.c     **** 
 609:TkShell.c     **** void TkShellService(void)
 610:TkShell.c     **** {
 2621              		.loc 1 610 0
 2622              		.cfi_startproc
 2623              		@ args = 0, pretend = 0, frame = 64
 2624              		@ frame_needed = 0, uses_anonymous_args = 0
 2625 0000 F0B5     		push	{r4, r5, r6, r7, lr}
 2626              		.cfi_def_cfa_offset 20
 2627              		.cfi_offset 4, -20
 2628              		.cfi_offset 5, -16
 2629              		.cfi_offset 6, -12
 2630              		.cfi_offset 7, -8
 2631              		.cfi_offset 14, -4
 2632 0002 91B0     		sub	sp, sp, #68
 2633              		.cfi_def_cfa_offset 88
 2634              	.LVL393:
 611:TkShell.c     ****     char c;
 612:TkShell.c     ****     uint8 i = 0;
 613:TkShell.c     ****     uint16 count;
 614:TkShell.c     ****     uint8 buffer[USBUART_BUFFER_SIZE];
 615:TkShell.c     **** //    
 616:TkShell.c     ****     /* Read received data and re-enable OUT endpoint. */
 617:TkShell.c     ****     count = USBUART_GetAll(buffer);
 2635              		.loc 1 617 0
ARM GAS  C:\Users\TERENC~1\AppData\Local\Temp\cc1rRXTX.s 			page 62


 2636 0004 6846     		mov	r0, sp
 2637 0006 FFF7FEFF 		bl	USBUART_GetAll
 2638              	.LVL394:
 2639 000a 0600     		movs	r6, r0
 2640              	.LVL395:
 612:TkShell.c     ****     uint16 count;
 2641              		.loc 1 612 0
 2642 000c 0025     		movs	r5, #0
 618:TkShell.c     **** //
 619:TkShell.c     **** //                if (0u != count)
 620:TkShell.c     **** //                {
 621:TkShell.c     **** //                    /* Wait until component is ready to send data to host. */
 622:TkShell.c     **** //                    while (0u == USBUART_CDCIsReady())
 623:TkShell.c     **** //                    {
 624:TkShell.c     **** //                    }
 625:TkShell.c     **** //
 626:TkShell.c     **** //                    /* Send data back to host. */
 627:TkShell.c     **** //                    USBUART_PutData(buffer, count);
 628:TkShell.c     **** //
 629:TkShell.c     **** //                    /* If the last sent packet is exactly the maximum packet 
 630:TkShell.c     **** //                    *  size, it is followed by a zero-length packet to assure
 631:TkShell.c     **** //                    *  that the end of the segment is properly identified by 
 632:TkShell.c     **** //                    *  the terminal.
 633:TkShell.c     **** //                    */
 634:TkShell.c     **** //                    if (USBUART_BUFFER_SIZE == count)
 635:TkShell.c     **** //                    {
 636:TkShell.c     **** //                        /* Wait until component is ready to send data to PC. */
 637:TkShell.c     **** //                        while (0u == USBUART_CDCIsReady())
 638:TkShell.c     **** //                        {
 639:TkShell.c     **** //                        }
 640:TkShell.c     **** //
 641:TkShell.c     **** //                        /* Send zero-length packet to PC. */
 642:TkShell.c     **** //                        USBUART_PutData(NULL, 0u);
 643:TkShell.c     **** //                    }
 644:TkShell.c     **** //                }
 645:TkShell.c     **** //
 646:TkShell.c     ****     while ((c = buffer[i]) != 0 && i < count)
 2643              		.loc 1 646 0
 2644 000e 74E0     		b	.L214
 2645              	.LVL396:
 2646              	.L229:
 647:TkShell.c     ****     {
 648:TkShell.c     ****         i++;
 2647              		.loc 1 648 0
 2648 0010 0135     		adds	r5, r5, #1
 2649              	.LVL397:
 2650 0012 EDB2     		uxtb	r5, r5
 2651              	.LVL398:
 649:TkShell.c     ****         switch (c)
 2652              		.loc 1 649 0
 2653 0014 0A2C     		cmp	r4, #10
 2654 0016 0AD0     		beq	.L216
 2655 0018 04D8     		bhi	.L217
 2656 001a 032C     		cmp	r4, #3
 2657 001c 07D0     		beq	.L216
 2658 001e 082C     		cmp	r4, #8
 2659 0020 34D0     		beq	.L218
ARM GAS  C:\Users\TERENC~1\AppData\Local\Temp\cc1rRXTX.s 			page 63


 2660 0022 50E0     		b	.L215
 2661              	.L217:
 2662 0024 0D2C     		cmp	r4, #13
 2663 0026 02D0     		beq	.L216
 2664 0028 7F2C     		cmp	r4, #127
 2665 002a 2FD0     		beq	.L218
 2666 002c 4BE0     		b	.L215
 2667              	.L216:
 650:TkShell.c     ****         {
 651:TkShell.c     ****             case '\r':
 652:TkShell.c     ****             case '\n':
 653:TkShell.c     ****             case 0x03:
 654:TkShell.c     ****                 PRINTF("%c", c);
 2668              		.loc 1 654 0
 2669 002e FFF7FEFF 		bl	USBUART_GetConfiguration
 2670              	.LVL399:
 2671 0032 0028     		cmp	r0, #0
 2672 0034 0CD0     		beq	.L219
 2673              	.L220:
 2674              		.loc 1 654 0 is_stmt 0 discriminator 1
 2675 0036 FFF7FEFF 		bl	USBUART_CDCIsReady
 2676              	.LVL400:
 2677 003a 0028     		cmp	r0, #0
 2678 003c FBD0     		beq	.L220
 2679              		.loc 1 654 0 discriminator 2
 2680 003e 334F     		ldr	r7, .L230
 2681 0040 2200     		movs	r2, r4
 2682 0042 3349     		ldr	r1, .L230+4
 2683 0044 3800     		movs	r0, r7
 2684 0046 FFF7FEFF 		bl	sprintf
 2685              	.LVL401:
 2686 004a 3800     		movs	r0, r7
 2687 004c FFF7FEFF 		bl	USBUART_PutString
 2688              	.LVL402:
 2689              	.L219:
 655:TkShell.c     ****                 if (cmd_char_count > 0)
 2690              		.loc 1 655 0 is_stmt 1
 2691 0050 4023     		movs	r3, #64
 2692 0052 304A     		ldr	r2, .L230+8
 2693 0054 D35C     		ldrb	r3, [r2, r3]
 2694 0056 002B     		cmp	r3, #0
 2695 0058 01D0     		beq	.L221
 656:TkShell.c     ****                 {
 657:TkShell.c     ****                     TkShellProcessCommand();
 2696              		.loc 1 657 0
 2697 005a FFF7FEFF 		bl	TkShellProcessCommand
 2698              	.LVL403:
 2699              	.L221:
 658:TkShell.c     ****                 }
 659:TkShell.c     ****                 PRINTF("\U00002744 ] ");
 2700              		.loc 1 659 0
 2701 005e FFF7FEFF 		bl	USBUART_GetConfiguration
 2702              	.LVL404:
 2703 0062 0028     		cmp	r0, #0
 2704 0064 0CD0     		beq	.L222
 2705              	.L223:
 2706              		.loc 1 659 0 is_stmt 0 discriminator 1
ARM GAS  C:\Users\TERENC~1\AppData\Local\Temp\cc1rRXTX.s 			page 64


 2707 0066 FFF7FEFF 		bl	USBUART_CDCIsReady
 2708              	.LVL405:
 2709 006a 0028     		cmp	r0, #0
 2710 006c FBD0     		beq	.L223
 2711              		.loc 1 659 0 discriminator 2
 2712 006e 274C     		ldr	r4, .L230
 2713              	.LVL406:
 2714 0070 0722     		movs	r2, #7
 2715 0072 2949     		ldr	r1, .L230+12
 2716 0074 2000     		movs	r0, r4
 2717 0076 FFF7FEFF 		bl	memcpy
 2718              	.LVL407:
 2719 007a 2000     		movs	r0, r4
 2720 007c FFF7FEFF 		bl	USBUART_PutString
 2721              	.LVL408:
 2722              	.L222:
 660:TkShell.c     ****                 cmd_char_count = 0;
 2723              		.loc 1 660 0 is_stmt 1
 2724 0080 244B     		ldr	r3, .L230+8
 2725 0082 0022     		movs	r2, #0
 2726 0084 4021     		movs	r1, #64
 2727 0086 5A54     		strb	r2, [r3, r1]
 661:TkShell.c     ****                 cmd_buf[0] = '\0';
 2728              		.loc 1 661 0
 2729 0088 1A70     		strb	r2, [r3]
 662:TkShell.c     ****                 break;
 2730              		.loc 1 662 0
 2731 008a 36E0     		b	.L214
 2732              	.LVL409:
 2733              	.L218:
 663:TkShell.c     ****                 
 664:TkShell.c     ****             case 127:
 665:TkShell.c     ****             case '\b':
 666:TkShell.c     ****                 if (cmd_char_count == 0)
 2734              		.loc 1 666 0
 2735 008c 4023     		movs	r3, #64
 2736 008e 214A     		ldr	r2, .L230+8
 2737 0090 D35C     		ldrb	r3, [r2, r3]
 2738 0092 002B     		cmp	r3, #0
 2739 0094 31D0     		beq	.L214
 667:TkShell.c     ****                 {
 668:TkShell.c     ****                     break;
 669:TkShell.c     ****                 }
 670:TkShell.c     ****                 cmd_buf[--cmd_char_count] = '\0';
 2740              		.loc 1 670 0
 2741 0096 013B     		subs	r3, r3, #1
 2742 0098 DBB2     		uxtb	r3, r3
 2743 009a 4021     		movs	r1, #64
 2744 009c 5354     		strb	r3, [r2, r1]
 2745 009e 0021     		movs	r1, #0
 2746 00a0 D154     		strb	r1, [r2, r3]
 671:TkShell.c     ****                 PRINTF("\b \b");
 2747              		.loc 1 671 0
 2748 00a2 FFF7FEFF 		bl	USBUART_GetConfiguration
 2749              	.LVL410:
 2750 00a6 0028     		cmp	r0, #0
 2751 00a8 27D0     		beq	.L214
ARM GAS  C:\Users\TERENC~1\AppData\Local\Temp\cc1rRXTX.s 			page 65


 2752              	.L225:
 2753              		.loc 1 671 0 is_stmt 0 discriminator 1
 2754 00aa FFF7FEFF 		bl	USBUART_CDCIsReady
 2755              	.LVL411:
 2756 00ae 0028     		cmp	r0, #0
 2757 00b0 FBD0     		beq	.L225
 2758              		.loc 1 671 0 discriminator 2
 2759 00b2 164C     		ldr	r4, .L230
 2760              	.LVL412:
 2761 00b4 0422     		movs	r2, #4
 2762 00b6 1949     		ldr	r1, .L230+16
 2763 00b8 2000     		movs	r0, r4
 2764 00ba FFF7FEFF 		bl	memcpy
 2765              	.LVL413:
 2766 00be 2000     		movs	r0, r4
 2767 00c0 FFF7FEFF 		bl	USBUART_PutString
 2768              	.LVL414:
 2769 00c4 19E0     		b	.L214
 2770              	.LVL415:
 2771              	.L215:
 672:TkShell.c     ****                 break;
 673:TkShell.c     **** 
 674:TkShell.c     ****             default:
 675:TkShell.c     ****                 PRINTF("%c", c);
 2772              		.loc 1 675 0 is_stmt 1
 2773 00c6 FFF7FEFF 		bl	USBUART_GetConfiguration
 2774              	.LVL416:
 2775 00ca 0028     		cmp	r0, #0
 2776 00cc 0CD0     		beq	.L226
 2777              	.L227:
 2778              		.loc 1 675 0 is_stmt 0 discriminator 1
 2779 00ce FFF7FEFF 		bl	USBUART_CDCIsReady
 2780              	.LVL417:
 2781 00d2 0028     		cmp	r0, #0
 2782 00d4 FBD0     		beq	.L227
 2783              		.loc 1 675 0 discriminator 2
 2784 00d6 0D4F     		ldr	r7, .L230
 2785 00d8 2200     		movs	r2, r4
 2786 00da 0D49     		ldr	r1, .L230+4
 2787 00dc 3800     		movs	r0, r7
 2788 00de FFF7FEFF 		bl	sprintf
 2789              	.LVL418:
 2790 00e2 3800     		movs	r0, r7
 2791 00e4 FFF7FEFF 		bl	USBUART_PutString
 2792              	.LVL419:
 2793              	.L226:
 676:TkShell.c     ****                 cmd_buf[cmd_char_count++] = c;
 2794              		.loc 1 676 0 is_stmt 1
 2795 00e8 0A4A     		ldr	r2, .L230+8
 2796 00ea 4020     		movs	r0, #64
 2797 00ec 115C     		ldrb	r1, [r2, r0]
 2798 00ee 4B1C     		adds	r3, r1, #1
 2799 00f0 DBB2     		uxtb	r3, r3
 2800 00f2 1354     		strb	r3, [r2, r0]
 2801 00f4 5454     		strb	r4, [r2, r1]
 677:TkShell.c     ****                 cmd_buf[cmd_char_count] = '\0';
 2802              		.loc 1 677 0
ARM GAS  C:\Users\TERENC~1\AppData\Local\Temp\cc1rRXTX.s 			page 66


 2803 00f6 0021     		movs	r1, #0
 2804 00f8 D154     		strb	r1, [r2, r3]
 2805              	.LVL420:
 2806              	.L214:
 646:TkShell.c     ****     {
 2807              		.loc 1 646 0
 2808 00fa 6B46     		mov	r3, sp
 2809 00fc 5C5D     		ldrb	r4, [r3, r5]
 2810              	.LVL421:
 2811 00fe 002C     		cmp	r4, #0
 2812 0100 02D0     		beq	.L213
 646:TkShell.c     ****     {
 2813              		.loc 1 646 0 is_stmt 0 discriminator 1
 2814 0102 ABB2     		uxth	r3, r5
 2815 0104 9E42     		cmp	r6, r3
 2816 0106 83D8     		bhi	.L229
 2817              	.L213:
 678:TkShell.c     ****                 break;
 679:TkShell.c     ****         }
 680:TkShell.c     ****     }
 681:TkShell.c     **** }
 2818              		.loc 1 681 0 is_stmt 1
 2819 0108 11B0     		add	sp, sp, #68
 2820              		@ sp needed
 2821              	.LVL422:
 2822              	.LVL423:
 2823              	.LVL424:
 2824 010a F0BD     		pop	{r4, r5, r6, r7, pc}
 2825              	.L231:
 2826              		.align	2
 2827              	.L230:
 2828 010c 00000000 		.word	gbuf
 2829 0110 94020000 		.word	.LC119
 2830 0114 00000000 		.word	.LANCHOR1
 2831 0118 98020000 		.word	.LC123
 2832 011c A0020000 		.word	.LC125
 2833              		.cfi_endproc
 2834              	.LFE22:
 2835              		.size	TkShellService, .-TkShellService
 2836              		.section	.rodata
 2837              		.align	2
 2838              		.set	.LANCHOR0,. + 0
 2839              		.type	reg_lookup, %object
 2840              		.size	reg_lookup, 56
 2841              	reg_lookup:
 2842 0000 00000440 		.word	1074003968
 2843 0004 00010440 		.word	1074004224
 2844 0008 00020440 		.word	1074004480
 2845 000c 00030440 		.word	1074004736
 2846 0010 00040440 		.word	1074004992
 2847 0014 00050440 		.word	1074005248
 2848 0018 00060440 		.word	1074005504
 2849 001c 00070440 		.word	1074005760
 2850 0020 00080440 		.word	1074006016
 2851 0024 00090440 		.word	1074006272
 2852 0028 000A0440 		.word	1074006528
 2853 002c 000B0440 		.word	1074006784
ARM GAS  C:\Users\TERENC~1\AppData\Local\Temp\cc1rRXTX.s 			page 67


 2854 0030 000C0440 		.word	1074007040
 2855 0034 000D0440 		.word	1074007296
 2856              		.type	commands, %object
 2857              		.size	commands, 84
 2858              	commands:
 2859 0038 A4020000 		.word	.LC127
 2860 003c 70010000 		.word	__tk_shell_verbs_gpio
 2861 0040 AC020000 		.word	.LC128
 2862 0044 BC020000 		.word	.LC129
 2863 0048 34010000 		.word	__tk_shell_verbs_wm
 2864 004c C0020000 		.word	.LC130
 2865 0050 D8020000 		.word	.LC131
 2866 0054 1C010000 		.word	__tk_shell_verbs_pcm
 2867 0058 DC020000 		.word	.LC132
 2868 005c F8020000 		.word	.LC133
 2869 0060 E0000000 		.word	__tk_shell_verbs_sys
 2870 0064 FC020000 		.word	.LC134
 2871 0068 0C030000 		.word	.LC135
 2872 006c BC000000 		.word	__tk_shell_verbs_led
 2873 0070 10030000 		.word	.LC136
 2874 0074 20030000 		.word	.LC137
 2875 0078 8C000000 		.word	__tk_shell_verbs_cal
 2876 007c 24030000 		.word	.LC138
 2877 0080 40030000 		.word	.LC139
 2878 0084 00000000 		.word	0
 2879 0088 40030000 		.word	.LC139
 2880              		.type	__tk_shell_verbs_cal, %object
 2881              		.size	__tk_shell_verbs_cal, 48
 2882              	__tk_shell_verbs_cal:
 2883 008c 44030000 		.word	.LC140
 2884 0090 00000000 		.word	__tk_shell_cal_print
 2885 0094 4C030000 		.word	.LC141
 2886 0098 5C030000 		.word	.LC142
 2887 009c 00000000 		.word	__tk_shell_cal_set
 2888 00a0 60030000 		.word	.LC143
 2889 00a4 70030000 		.word	.LC144
 2890 00a8 00000000 		.word	__tk_shell_cal_save
 2891 00ac 78030000 		.word	.LC145
 2892 00b0 40030000 		.word	.LC139
 2893 00b4 00000000 		.word	0
 2894 00b8 40030000 		.word	.LC139
 2895              		.type	__tk_shell_verbs_led, %object
 2896              		.size	__tk_shell_verbs_led, 36
 2897              	__tk_shell_verbs_led:
 2898 00bc 94030000 		.word	.LC146
 2899 00c0 00000000 		.word	__tk_shell_led_start
 2900 00c4 9C030000 		.word	.LC147
 2901 00c8 F8030000 		.word	.LC148
 2902 00cc 00000000 		.word	__tk_shell_led_stop
 2903 00d0 00040000 		.word	.LC149
 2904 00d4 40030000 		.word	.LC139
 2905 00d8 00000000 		.word	0
 2906 00dc 40030000 		.word	.LC139
 2907              		.type	__tk_shell_verbs_sys, %object
 2908              		.size	__tk_shell_verbs_sys, 60
 2909              	__tk_shell_verbs_sys:
 2910 00e0 28040000 		.word	.LC150
ARM GAS  C:\Users\TERENC~1\AppData\Local\Temp\cc1rRXTX.s 			page 68


 2911 00e4 00000000 		.word	__tk_shell_sys_crash
 2912 00e8 30040000 		.word	.LC151
 2913 00ec 48040000 		.word	.LC152
 2914 00f0 00000000 		.word	__tk_shell_sys_info
 2915 00f4 50040000 		.word	.LC153
 2916 00f8 5C040000 		.word	.LC154
 2917 00fc 00000000 		.word	__tk_shell_sys_reset
 2918 0100 64040000 		.word	.LC155
 2919 0104 78040000 		.word	.LC156
 2920 0108 00000000 		.word	__tk_shell_sys_adc
 2921 010c 7C040000 		.word	.LC157
 2922 0110 40030000 		.word	.LC139
 2923 0114 00000000 		.word	0
 2924 0118 40030000 		.word	.LC139
 2925              		.type	__tk_shell_verbs_pcm, %object
 2926              		.size	__tk_shell_verbs_pcm, 24
 2927              	__tk_shell_verbs_pcm:
 2928 011c 90040000 		.word	.LC158
 2929 0120 00000000 		.word	__tk_shell_pcm_reg
 2930 0124 94040000 		.word	.LC159
 2931 0128 40030000 		.word	.LC139
 2932 012c 00000000 		.word	0
 2933 0130 40030000 		.word	.LC139
 2934              		.type	__tk_shell_verbs_wm, %object
 2935              		.size	__tk_shell_verbs_wm, 60
 2936              	__tk_shell_verbs_wm:
 2937 0134 D0040000 		.word	.LC160
 2938 0138 00000000 		.word	__tk_shell_wm_vol_set
 2939 013c D8040000 		.word	.LC161
 2940 0140 F8040000 		.word	.LC162
 2941 0144 00000000 		.word	__tk_shell_wm_vol_get
 2942 0148 00050000 		.word	.LC163
 2943 014c 14050000 		.word	.LC164
 2944 0150 00000000 		.word	__tk_shell_wm_reg_wr
 2945 0154 1C050000 		.word	.LC165
 2946 0158 44050000 		.word	.LC166
 2947 015c 00000000 		.word	__tk_shell_wm_reg_rd
 2948 0160 4C050000 		.word	.LC167
 2949 0164 40030000 		.word	.LC139
 2950 0168 00000000 		.word	0
 2951 016c 40030000 		.word	.LC139
 2952              		.type	__tk_shell_verbs_gpio, %object
 2953              		.size	__tk_shell_verbs_gpio, 48
 2954              	__tk_shell_verbs_gpio:
 2955 0170 5C030000 		.word	.LC142
 2956 0174 00000000 		.word	__tk_shell_gpio_set
 2957 0178 68050000 		.word	.LC168
 2958 017c 78050000 		.word	.LC169
 2959 0180 00000000 		.word	__tk_shell_gpio_config
 2960 0184 80050000 		.word	.LC170
 2961 0188 90050000 		.word	.LC171
 2962 018c 00000000 		.word	__tk_shell_gpio_get
 2963 0190 94050000 		.word	.LC172
 2964 0194 40030000 		.word	.LC139
 2965 0198 00000000 		.word	0
 2966 019c 40030000 		.word	.LC139
 2967              		.section	.rodata.str1.4,"aMS",%progbits,1
ARM GAS  C:\Users\TERENC~1\AppData\Local\Temp\cc1rRXTX.s 			page 69


 2968              		.align	2
 2969              	.LC1:
 2970 0000 3E207379 		.ascii	"> sys:er\012\000"
 2970      733A6572 
 2970      0A00
 2971 000a 0000     		.space	2
 2972              	.LC4:
 2973 000c 496E7661 		.ascii	"Invalid number of arguments!\012\000"
 2973      6C696420 
 2973      6E756D62 
 2973      6572206F 
 2973      66206172 
 2974 002a 0000     		.space	2
 2975              	.LC10:
 2976 002c 3E206770 		.ascii	"> gpio:ok %d\012\000"
 2976      696F3A6F 
 2976      6B202564 
 2976      0A00
 2977 003a 0000     		.space	2
 2978              	.LC17:
 2979 003c 3E207379 		.ascii	"> sys:ok %08lu\012\000"
 2979      733A6F6B 
 2979      20253038 
 2979      6C750A00 
 2980              	.LC21:
 2981 004c 3E207379 		.ascii	"> sys:ok %d,%d\012\000"
 2981      733A6F6B 
 2981      2025642C 
 2981      25640A00 
 2982              	.LC25:
 2983 005c 7369676E 		.ascii	"sign = 0x%08X\012\000"
 2983      203D2030 
 2983      78253038 
 2983      580A00
 2984 006b 00       		.space	1
 2985              	.LC28:
 2986 006c 63747220 		.ascii	"ctr = %lu\012\000"
 2986      3D20256C 
 2986      750A00
 2987 0077 00       		.space	1
 2988              	.LC30:
 2989 0078 6164635F 		.ascii	"adc_min[R] = %d\012\000"
 2989      6D696E5B 
 2989      525D203D 
 2989      2025640A 
 2989      00
 2990 0089 000000   		.space	3
 2991              	.LC32:
 2992 008c 6164635F 		.ascii	"adc_max[R] = %d\012\000"
 2992      6D61785B 
 2992      525D203D 
 2992      2025640A 
 2992      00
 2993 009d 000000   		.space	3
 2994              	.LC34:
 2995 00a0 6164635F 		.ascii	"adc_min[L] = %d\012\000"
 2995      6D696E5B 
ARM GAS  C:\Users\TERENC~1\AppData\Local\Temp\cc1rRXTX.s 			page 70


 2995      4C5D203D 
 2995      2025640A 
 2995      00
 2996 00b1 000000   		.space	3
 2997              	.LC36:
 2998 00b4 6164635F 		.ascii	"adc_max[L] = %d\012\000"
 2998      6D61785B 
 2998      4C5D203D 
 2998      2025640A 
 2998      00
 2999 00c5 000000   		.space	3
 3000              	.LC38:
 3001 00c8 6C65645F 		.ascii	"led_max_brightness = %d\012\000"
 3001      6D61785F 
 3001      62726967 
 3001      68746E65 
 3001      7373203D 
 3002 00e1 000000   		.space	3
 3003              	.LC40:
 3004 00e4 64656275 		.ascii	"debug_mask = 0x%02X\012\000"
 3004      675F6D61 
 3004      736B203D 
 3004      20307825 
 3004      3032580A 
 3005 00f9 000000   		.space	3
 3006              	.LC42:
 3007 00fc 3E206361 		.ascii	"> cal:ok\012\000"
 3007      6C3A6F6B 
 3007      0A00
 3008 0106 0000     		.space	2
 3009              	.LC46:
 3010 0108 3E20776D 		.ascii	"> wm:ok\012\000"
 3010      3A6F6B0A 
 3010      00
 3011 0111 000000   		.space	3
 3012              	.LC48:
 3013 0114 3E20776D 		.ascii	"> wm:er %d\012\000"
 3013      3A657220 
 3013      25640A00 
 3014              	.LC50:
 3015 0120 3E20776D 		.ascii	"> wm:ok %d\012\000"
 3015      3A6F6B20 
 3015      25640A00 
 3016              	.LC59:
 3017 012c 3E20776D 		.ascii	"> wm:ok 0x%04X\012\000"
 3017      3A6F6B20 
 3017      30782530 
 3017      34580A00 
 3018              	.LC61:
 3019 013c 3E206361 		.ascii	"> cal:ok %d\012\000"
 3019      6C3A6F6B 
 3019      2025640A 
 3019      00
 3020 0149 000000   		.space	3
 3021              	.LC65:
 3022 014c 496E7661 		.ascii	"Invalid number of arguments: %d\012\000"
 3022      6C696420 
ARM GAS  C:\Users\TERENC~1\AppData\Local\Temp\cc1rRXTX.s 			page 71


 3022      6E756D62 
 3022      6572206F 
 3022      66206172 
 3023 016d 000000   		.space	3
 3024              	.LC68:
 3025 0170 777200   		.ascii	"wr\000"
 3026 0173 00       		.space	1
 3027              	.LC70:
 3028 0174 3E207063 		.ascii	"> pcm:ok 0x%02X\012\000"
 3028      6D3A6F6B 
 3028      20307825 
 3028      3032580A 
 3028      00
 3029 0185 000000   		.space	3
 3030              	.LC74:
 3031 0188 72656400 		.ascii	"red\000"
 3032              	.LC76:
 3033 018c 67726565 		.ascii	"green\000"
 3033      6E00
 3034 0192 0000     		.space	2
 3035              	.LC78:
 3036 0194 626C7565 		.ascii	"blue\000"
 3036      00
 3037 0199 000000   		.space	3
 3038              	.LC80:
 3039 019c 496E7661 		.ascii	"Invalid color %s, must be red|green|blue\012\000"
 3039      6C696420 
 3039      636F6C6F 
 3039      72202573 
 3039      2C206D75 
 3040 01c6 0000     		.space	2
 3041              	.LC82:
 3042 01c8 3E206C65 		.ascii	"> led:ok\012\000"
 3042      643A6F6B 
 3042      0A00
 3043 01d2 0000     		.space	2
 3044              	.LC93:
 3045 01d4 6C65645F 		.ascii	"led_max_brightness\000"
 3045      6D61785F 
 3045      62726967 
 3045      68746E65 
 3045      737300
 3046 01e7 00       		.space	1
 3047              	.LC96:
 3048 01e8 6164635F 		.ascii	"adc_min_l\000"
 3048      6D696E5F 
 3048      6C00
 3049 01f2 0000     		.space	2
 3050              	.LC98:
 3051 01f4 64656275 		.ascii	"debug_mask\000"
 3051      675F6D61 
 3051      736B00
 3052 01ff 00       		.space	1
 3053              	.LC103:
 3054 0200 546F6F20 		.ascii	"Too many arguments!\012\000"
 3054      6D616E79 
 3054      20617267 
ARM GAS  C:\Users\TERENC~1\AppData\Local\Temp\cc1rRXTX.s 			page 72


 3054      756D656E 
 3054      7473210A 
 3055 0215 000000   		.space	3
 3056              	.LC105:
 3057 0218 68656C70 		.ascii	"help\000"
 3057      00
 3058 021d 000000   		.space	3
 3059              	.LC107:
 3060 0220 44697370 		.ascii	"Displaying list of %s commands:\012\000"
 3060      6C617969 
 3060      6E67206C 
 3060      69737420 
 3060      6F662025 
 3061 0241 000000   		.space	3
 3062              	.LC109:
 3063 0244 09257320 		.ascii	"\011%s %s: %s\012\000"
 3063      25733A20 
 3063      25730A00 
 3064              	.LC112:
 3065 0250 44697370 		.ascii	"Displaying list of commands:\012\000"
 3065      6C617969 
 3065      6E67206C 
 3065      69737420 
 3065      6F662063 
 3066 026e 0000     		.space	2
 3067              	.LC114:
 3068 0270 0925733A 		.ascii	"\011%s: %s\012\000"
 3068      2025730A 
 3068      00
 3069 0279 000000   		.space	3
 3070              	.LC116:
 3071 027c 756E6B6E 		.ascii	"unknown command: %s\012\000"
 3071      6F776E20 
 3071      636F6D6D 
 3071      616E643A 
 3071      2025730A 
 3072 0291 000000   		.space	3
 3073              	.LC119:
 3074 0294 256300   		.ascii	"%c\000"
 3075 0297 00       		.space	1
 3076              	.LC123:
 3077 0298 E29D8420 		.ascii	"\342\235\204 ] \000"
 3077      5D2000
 3078 029f 00       		.space	1
 3079              	.LC125:
 3080 02a0 08200800 		.ascii	"\010 \010\000"
 3081              	.LC127:
 3082 02a4 6770696F 		.ascii	"gpio\000"
 3082      00
 3083 02a9 000000   		.space	3
 3084              	.LC128:
 3085 02ac 4750494F 		.ascii	"GPIO commands\000"
 3085      20636F6D 
 3085      6D616E64 
 3085      7300
 3086 02ba 0000     		.space	2
 3087              	.LC129:
ARM GAS  C:\Users\TERENC~1\AppData\Local\Temp\cc1rRXTX.s 			page 73


 3088 02bc 776D00   		.ascii	"wm\000"
 3089 02bf 00       		.space	1
 3090              	.LC130:
 3091 02c0 576F6C66 		.ascii	"Wolfson Codec commands\000"
 3091      736F6E20 
 3091      436F6465 
 3091      6320636F 
 3091      6D6D616E 
 3092 02d7 00       		.space	1
 3093              	.LC131:
 3094 02d8 70636D00 		.ascii	"pcm\000"
 3095              	.LC132:
 3096 02dc 42757272 		.ascii	"Burr-Brown Codec commands\000"
 3096      2D42726F 
 3096      776E2043 
 3096      6F646563 
 3096      20636F6D 
 3097 02f6 0000     		.space	2
 3098              	.LC133:
 3099 02f8 73797300 		.ascii	"sys\000"
 3100              	.LC134:
 3101 02fc 53797374 		.ascii	"System commands\000"
 3101      656D2063 
 3101      6F6D6D61 
 3101      6E647300 
 3102              	.LC135:
 3103 030c 6C656400 		.ascii	"led\000"
 3104              	.LC136:
 3105 0310 4C454420 		.ascii	"LED commands\000"
 3105      636F6D6D 
 3105      616E6473 
 3105      00
 3106 031d 000000   		.space	3
 3107              	.LC137:
 3108 0320 63616C00 		.ascii	"cal\000"
 3109              	.LC138:
 3110 0324 43616C69 		.ascii	"Calibration data commands\000"
 3110      62726174 
 3110      696F6E20 
 3110      64617461 
 3110      20636F6D 
 3111 033e 0000     		.space	2
 3112              	.LC139:
 3113 0340 00       		.ascii	"\000"
 3114 0341 000000   		.space	3
 3115              	.LC140:
 3116 0344 7072696E 		.ascii	"print\000"
 3116      7400
 3117 034a 0000     		.space	2
 3118              	.LC141:
 3119 034c 7072696E 		.ascii	"print cal data\000"
 3119      74206361 
 3119      6C206461 
 3119      746100
 3120 035b 00       		.space	1
 3121              	.LC142:
 3122 035c 73657400 		.ascii	"set\000"
ARM GAS  C:\Users\TERENC~1\AppData\Local\Temp\cc1rRXTX.s 			page 74


 3123              	.LC143:
 3124 0360 73657420 		.ascii	"set cal data\000"
 3124      63616C20 
 3124      64617461 
 3124      00
 3125 036d 000000   		.space	3
 3126              	.LC144:
 3127 0370 73617665 		.ascii	"save\000"
 3127      00
 3128 0375 000000   		.space	3
 3129              	.LC145:
 3130 0378 636F6D6D 		.ascii	"commit cal data to flash\000"
 3130      69742063 
 3130      616C2064 
 3130      61746120 
 3130      746F2066 
 3131 0391 000000   		.space	3
 3132              	.LC146:
 3133 0394 73746172 		.ascii	"start\000"
 3133      7400
 3134 039a 0000     		.space	2
 3135              	.LC147:
 3136 039c 73746172 		.ascii	"start LED animation <led:red|green|blue> <period:ui"
 3136      74204C45 
 3136      4420616E 
 3136      696D6174 
 3136      696F6E20 
 3137 03cf 6E743332 		.ascii	"nt32> <compare:uint32> <counter:uint32>\000"
 3137      3E203C63 
 3137      6F6D7061 
 3137      72653A75 
 3137      696E7433 
 3138 03f7 00       		.space	1
 3139              	.LC148:
 3140 03f8 73746F70 		.ascii	"stop\000"
 3140      00
 3141 03fd 000000   		.space	3
 3142              	.LC149:
 3143 0400 73746F70 		.ascii	"stop LED animation <led:red|green|blue>\000"
 3143      204C4544 
 3143      20616E69 
 3143      6D617469 
 3143      6F6E203C 
 3144              	.LC150:
 3145 0428 63726173 		.ascii	"crash\000"
 3145      6800
 3146 042e 0000     		.space	2
 3147              	.LC151:
 3148 0430 74726967 		.ascii	"trigger a hard fault\000"
 3148      67657220 
 3148      61206861 
 3148      72642066 
 3148      61756C74 
 3149 0445 000000   		.space	3
 3150              	.LC152:
 3151 0448 696E666F 		.ascii	"info\000"
 3151      00
ARM GAS  C:\Users\TERENC~1\AppData\Local\Temp\cc1rRXTX.s 			page 75


 3152 044d 000000   		.space	3
 3153              	.LC153:
 3154 0450 7072696E 		.ascii	"print info\000"
 3154      7420696E 
 3154      666F00
 3155 045b 00       		.space	1
 3156              	.LC154:
 3157 045c 72657365 		.ascii	"reset\000"
 3157      7400
 3158 0462 0000     		.space	2
 3159              	.LC155:
 3160 0464 74726967 		.ascii	"trigger a SW reset\000"
 3160      67657220 
 3160      61205357 
 3160      20726573 
 3160      657400
 3161 0477 00       		.space	1
 3162              	.LC156:
 3163 0478 61646300 		.ascii	"adc\000"
 3164              	.LC157:
 3165 047c 7072696E 		.ascii	"print ADC values\000"
 3165      74204144 
 3165      43207661 
 3165      6C756573 
 3165      00
 3166 048d 000000   		.space	3
 3167              	.LC158:
 3168 0490 72656700 		.ascii	"reg\000"
 3169              	.LC159:
 3170 0494 72656769 		.ascii	"register read (rd) and write (wr) <reg:uint8,data:u"
 3170      73746572 
 3170      20726561 
 3170      64202872 
 3170      64292061 
 3171 04c7 696E7438 		.ascii	"int8>\000"
 3171      3E00
 3172 04cd 000000   		.space	3
 3173              	.LC160:
 3174 04d0 766F6C5F 		.ascii	"vol_set\000"
 3174      73657400 
 3175              	.LC161:
 3176 04d8 73657420 		.ascii	"set volume level <vol:uint8>\000"
 3176      766F6C75 
 3176      6D65206C 
 3176      6576656C 
 3176      203C766F 
 3177 04f5 000000   		.space	3
 3178              	.LC162:
 3179 04f8 766F6C5F 		.ascii	"vol_get\000"
 3179      67657400 
 3180              	.LC163:
 3181 0500 67657420 		.ascii	"get volume level\000"
 3181      766F6C75 
 3181      6D65206C 
 3181      6576656C 
 3181      00
 3182 0511 000000   		.space	3
ARM GAS  C:\Users\TERENC~1\AppData\Local\Temp\cc1rRXTX.s 			page 76


 3183              	.LC164:
 3184 0514 7265675F 		.ascii	"reg_wr\000"
 3184      777200
 3185 051b 00       		.space	1
 3186              	.LC165:
 3187 051c 77726974 		.ascii	"write register <reg:uint8,data:uint16>)\000"
 3187      65207265 
 3187      67697374 
 3187      6572203C 
 3187      7265673A 
 3188              	.LC166:
 3189 0544 7265675F 		.ascii	"reg_rd\000"
 3189      726400
 3190 054b 00       		.space	1
 3191              	.LC167:
 3192 054c 72656164 		.ascii	"read register <reg:uint8>\000"
 3192      20726567 
 3192      69737465 
 3192      72203C72 
 3192      65673A75 
 3193 0566 0000     		.space	2
 3194              	.LC168:
 3195 0568 73657420 		.ascii	"set GPIO state\000"
 3195      4750494F 
 3195      20737461 
 3195      746500
 3196 0577 00       		.space	1
 3197              	.LC169:
 3198 0578 636F6E66 		.ascii	"config\000"
 3198      696700
 3199 057f 00       		.space	1
 3200              	.LC170:
 3201 0580 636F6E66 		.ascii	"configure GPIO\000"
 3201      69677572 
 3201      65204750 
 3201      494F00
 3202 058f 00       		.space	1
 3203              	.LC171:
 3204 0590 67657400 		.ascii	"get\000"
 3205              	.LC172:
 3206 0594 67657420 		.ascii	"get GPIO state\000"
 3206      4750494F 
 3206      20737461 
 3206      746500
 3207              		.bss
 3208              		.align	2
 3209              		.set	.LANCHOR1,. + 0
 3210              		.type	cmd_buf, %object
 3211              		.size	cmd_buf, 64
 3212              	cmd_buf:
 3213 0000 00000000 		.space	64
 3213      00000000 
 3213      00000000 
 3213      00000000 
 3213      00000000 
 3214              		.type	cmd_char_count, %object
 3215              		.size	cmd_char_count, 1
ARM GAS  C:\Users\TERENC~1\AppData\Local\Temp\cc1rRXTX.s 			page 77


 3216              	cmd_char_count:
 3217 0040 00       		.space	1
 3218              		.text
 3219              	.Letext0:
 3220              		.file 2 "c:\\program files (x86)\\cypress\\psoc creator\\4.2\\psoc creator\\import\\gnu\\arm\\5.4.
 3221              		.file 3 "c:\\program files (x86)\\cypress\\psoc creator\\4.2\\psoc creator\\import\\gnu\\arm\\5.4.
 3222              		.file 4 "Generated_Source\\PSoC4/cytypes.h"
 3223              		.file 5 "./Calibration.h"
 3224              		.file 6 "./VolumeControl.h"
 3225              		.file 7 "./LedManager.h"
 3226              		.file 8 "c:\\program files (x86)\\cypress\\psoc creator\\4.2\\psoc creator\\import\\gnu\\arm\\5.4.
 3227              		.file 9 "./timers.h"
 3228              		.file 10 "./Application.h"
 3229              		.file 11 "Generated_Source\\PSoC4/USBUART.h"
 3230              		.file 12 "Generated_Source\\PSoC4/USBUART_cdc.h"
 3231              		.file 13 "c:\\program files (x86)\\cypress\\psoc creator\\4.2\\psoc creator\\import\\gnu\\arm\\5.4
 3232              		.file 14 "c:\\program files (x86)\\cypress\\psoc creator\\4.2\\psoc creator\\import\\gnu\\arm\\5.4
 3233              		.file 15 "./Codec.h"
 3234              		.file 16 "Generated_Source\\PSoC4/CyLib.h"
 3235              		.file 17 "./pcm1770.h"