ARM GAS  C:\Users\TERENC~1\AppData\Local\Temp\ccNQUuJb.s 			page 1


   1              		.syntax unified
   2              		.cpu cortex-m0
   3              		.fpu softvfp
   4              		.eabi_attribute 20, 1
   5              		.eabi_attribute 21, 1
   6              		.eabi_attribute 23, 3
   7              		.eabi_attribute 24, 1
   8              		.eabi_attribute 25, 1
   9              		.eabi_attribute 26, 1
  10              		.eabi_attribute 30, 1
  11              		.eabi_attribute 34, 0
  12              		.eabi_attribute 18, 4
  13              		.thumb
  14              		.syntax unified
  15              		.file	"TkShell.c"
  16              		.text
  17              	.Ltext0:
  18              		.cfi_sections	.debug_frame
  19              		.section	.text.__tk_shell_sys_crash,"ax",%progbits
  20              		.align	2
  21              		.global	__tk_shell_sys_crash
  22              		.code	16
  23              		.thumb_func
  24              		.type	__tk_shell_sys_crash, %function
  25              	__tk_shell_sys_crash:
  26              	.LFB11:
  27              		.file 1 "TkShell.c"
   1:TkShell.c     **** /* ========================================
   2:TkShell.c     ****  *
   3:TkShell.c     ****  * Copyright YOUR COMPANY, THE YEAR
   4:TkShell.c     ****  * All Rights Reserved
   5:TkShell.c     ****  * UNPUBLISHED, LICENSED SOFTWARE.
   6:TkShell.c     ****  *
   7:TkShell.c     ****  * CONFIDENTIAL AND PROPRIETARY INFORMATION
   8:TkShell.c     ****  * WHICH IS THE PROPERTY OF your company.
   9:TkShell.c     ****  *
  10:TkShell.c     ****  * ========================================
  11:TkShell.c     **** */
  12:TkShell.c     **** #include <string.h>
  13:TkShell.c     **** #include <Application.h>
  14:TkShell.c     **** #include <ctype.h>
  15:TkShell.c     **** #include "TkShell.h"
  16:TkShell.c     **** #include <Codec.h>
  17:TkShell.c     **** #include <VolumeControl.h>
  18:TkShell.c     **** #include <pcm1770.h>
  19:TkShell.c     **** #include <Calibration.h>
  20:TkShell.c     **** #include <LED.h>
  21:TkShell.c     **** #include <USBUART_cdc.h>
  22:TkShell.c     **** #include <timers.h>
  23:TkShell.c     **** 
  24:TkShell.c     **** #define USBUART_BUFFER_SIZE (64u)
  25:TkShell.c     **** 
  26:TkShell.c     **** #define TK_SHELL_METHOD(c, verb)              int __tk_shell_ ## c ## _ ## verb(int __unused argc, 
  27:TkShell.c     **** #define TK_SHELL_COMMAND(name, desc)          {#name, (tk_shell_command_verb_s *)__tk_shell_verbs_ 
  28:TkShell.c     **** #define TK_SHELL_VERBS(name)                  const tk_shell_command_verb_s __tk_shell_verbs_ ## na
  29:TkShell.c     **** #define TK_SHELL_VERB(c, name, desc)          {#name, __tk_shell_ ## c ## _ ## name, desc}
  30:TkShell.c     **** 
ARM GAS  C:\Users\TERENC~1\AppData\Local\Temp\ccNQUuJb.s 			page 2


  31:TkShell.c     **** #define CMD_BUF_LEN 64
  32:TkShell.c     **** #define TK_SHELL_MAX_ARGS 10
  33:TkShell.c     **** 
  34:TkShell.c     **** typedef struct
  35:TkShell.c     **** {
  36:TkShell.c     ****   const char *name;
  37:TkShell.c     ****   int        (*func)(int argc, char **argv);
  38:TkShell.c     ****   const char *desc;
  39:TkShell.c     **** } tk_shell_command_verb_s;
  40:TkShell.c     **** 
  41:TkShell.c     **** typedef struct
  42:TkShell.c     **** {
  43:TkShell.c     ****   const char *name;
  44:TkShell.c     ****   tk_shell_command_verb_s *verbs;
  45:TkShell.c     ****   const char *desc;
  46:TkShell.c     **** } tk_shell_command_s;
  47:TkShell.c     **** 
  48:TkShell.c     **** 
  49:TkShell.c     **** static const uint32_t reg_lookup[] = 
  50:TkShell.c     **** {
  51:TkShell.c     ****     CYREG_PRT0_DR,  // 0
  52:TkShell.c     ****     CYREG_PRT1_DR,  // 1
  53:TkShell.c     ****     CYREG_PRT2_DR,  // 2
  54:TkShell.c     ****     CYREG_PRT3_DR,  // 3
  55:TkShell.c     ****     CYREG_PRT4_DR,  // 4
  56:TkShell.c     ****     CYREG_PRT5_DR,  // 5
  57:TkShell.c     ****     CYREG_PRT6_DR,  // 6
  58:TkShell.c     ****     CYREG_PRT7_DR,  // 7
  59:TkShell.c     ****     CYREG_PRT8_DR,  // 8
  60:TkShell.c     ****     CYREG_PRT9_DR,  // 9
  61:TkShell.c     ****     CYREG_PRT10_DR, // 10
  62:TkShell.c     ****     CYREG_PRT11_DR, // 11
  63:TkShell.c     ****     CYREG_PRT12_DR, // 12
  64:TkShell.c     ****     CYREG_PRT13_DR, // 13
  65:TkShell.c     **** };
  66:TkShell.c     **** TK_SHELL_METHOD(gpio, set);
  67:TkShell.c     **** TK_SHELL_METHOD(gpio, config);
  68:TkShell.c     **** TK_SHELL_METHOD(gpio, get);
  69:TkShell.c     **** static TK_SHELL_VERBS(gpio) =
  70:TkShell.c     **** {
  71:TkShell.c     ****     TK_SHELL_VERB(gpio, set, "set GPIO state"),
  72:TkShell.c     ****     TK_SHELL_VERB(gpio, config, "configure GPIO"),
  73:TkShell.c     ****     TK_SHELL_VERB(gpio, get, "get GPIO state"),
  74:TkShell.c     ****     { "", NULL, "" }
  75:TkShell.c     **** };
  76:TkShell.c     **** 
  77:TkShell.c     **** TK_SHELL_METHOD(wm, vol_set);
  78:TkShell.c     **** TK_SHELL_METHOD(wm, vol_get);
  79:TkShell.c     **** TK_SHELL_METHOD(wm, reg_wr);
  80:TkShell.c     **** TK_SHELL_METHOD(wm, reg_rd);
  81:TkShell.c     **** static TK_SHELL_VERBS(wm) =
  82:TkShell.c     **** {
  83:TkShell.c     ****     TK_SHELL_VERB(wm, vol_set, "set volume level <vol:uint8>"),
  84:TkShell.c     ****     TK_SHELL_VERB(wm, vol_get, "get volume level"),
  85:TkShell.c     ****     TK_SHELL_VERB(wm, reg_wr, "write register <reg:uint8,data:uint16>)"),
  86:TkShell.c     ****     TK_SHELL_VERB(wm, reg_rd, "read register <reg:uint8>"),
  87:TkShell.c     ****     { "", NULL, "" }
ARM GAS  C:\Users\TERENC~1\AppData\Local\Temp\ccNQUuJb.s 			page 3


  88:TkShell.c     **** };
  89:TkShell.c     **** 
  90:TkShell.c     **** TK_SHELL_METHOD(pcm, reg);
  91:TkShell.c     **** static TK_SHELL_VERBS(pcm) = 
  92:TkShell.c     **** {
  93:TkShell.c     ****     TK_SHELL_VERB(pcm, reg, "register read (rd) and write (wr) <reg:uint8,data:uint8>"),
  94:TkShell.c     ****     { "", NULL, "" }
  95:TkShell.c     **** };
  96:TkShell.c     **** 
  97:TkShell.c     **** TK_SHELL_METHOD(sys, crash);
  98:TkShell.c     **** TK_SHELL_METHOD(sys, info);
  99:TkShell.c     **** TK_SHELL_METHOD(sys, reset);
 100:TkShell.c     **** TK_SHELL_METHOD(sys, adc);
 101:TkShell.c     **** static TK_SHELL_VERBS(sys) = 
 102:TkShell.c     **** {
 103:TkShell.c     ****     TK_SHELL_VERB(sys, crash, "trigger a hard fault"),
 104:TkShell.c     ****     TK_SHELL_VERB(sys, info, "print info"),
 105:TkShell.c     ****     TK_SHELL_VERB(sys, reset, "trigger a SW reset"),
 106:TkShell.c     ****     TK_SHELL_VERB(sys, adc, "print ADC values"),
 107:TkShell.c     ****     { "", NULL, "" }
 108:TkShell.c     **** };
 109:TkShell.c     **** 
 110:TkShell.c     **** TK_SHELL_METHOD(led, pwm_period);
 111:TkShell.c     **** TK_SHELL_METHOD(led, start);
 112:TkShell.c     **** TK_SHELL_METHOD(led, stop);
 113:TkShell.c     **** static TK_SHELL_VERBS(led) =
 114:TkShell.c     **** {
 115:TkShell.c     ****     TK_SHELL_VERB(led, pwm_period, "set LED PWM period"),
 116:TkShell.c     ****     TK_SHELL_VERB(led, start, "start LED animation"),
 117:TkShell.c     ****     TK_SHELL_VERB(led, stop, "stop LED animation"),
 118:TkShell.c     ****     { "", NULL, "" }
 119:TkShell.c     **** };
 120:TkShell.c     **** 
 121:TkShell.c     **** TK_SHELL_METHOD(cal, print);
 122:TkShell.c     **** TK_SHELL_METHOD(cal, set);
 123:TkShell.c     **** TK_SHELL_METHOD(cal, save);
 124:TkShell.c     **** static TK_SHELL_VERBS(cal) =
 125:TkShell.c     **** {
 126:TkShell.c     ****     TK_SHELL_VERB(cal, print, "print cal data"),
 127:TkShell.c     ****     TK_SHELL_VERB(cal, set, "set cal data"),
 128:TkShell.c     ****     TK_SHELL_VERB(cal, save, "commit cal data to flash"),
 129:TkShell.c     ****     { "", NULL, "" }
 130:TkShell.c     **** };
 131:TkShell.c     **** 
 132:TkShell.c     **** static const tk_shell_command_s commands[] = 
 133:TkShell.c     **** {
 134:TkShell.c     ****     TK_SHELL_COMMAND(gpio, "GPIO commands"),
 135:TkShell.c     ****     TK_SHELL_COMMAND(wm, "Wolfson Codec commands"),
 136:TkShell.c     ****     TK_SHELL_COMMAND(pcm, "Burr-Brown Codec commands"),
 137:TkShell.c     ****     TK_SHELL_COMMAND(sys, "System commands"),
 138:TkShell.c     ****     TK_SHELL_COMMAND(led, "LED commands"),
 139:TkShell.c     ****     TK_SHELL_COMMAND(cal, "Calibration data commands"),
 140:TkShell.c     ****     { "", NULL, "" }
 141:TkShell.c     **** };
 142:TkShell.c     **** 
 143:TkShell.c     **** static char cmd_buf[CMD_BUF_LEN];
 144:TkShell.c     **** static uint8_t cmd_char_count;
ARM GAS  C:\Users\TERENC~1\AppData\Local\Temp\ccNQUuJb.s 			page 4


 145:TkShell.c     **** 
 146:TkShell.c     **** ////////////////////////////////////////////////////////////////////////////////
 147:TkShell.c     **** int strcicmp(char const *a, char const *b)
 148:TkShell.c     **** {
 149:TkShell.c     ****     for (;; a++, b++)
 150:TkShell.c     ****     {
 151:TkShell.c     ****         int d = tolower(*a) - tolower(*b);
 152:TkShell.c     ****         if (d != 0 || !*a)
 153:TkShell.c     ****             return d;
 154:TkShell.c     ****     }
 155:TkShell.c     **** }
 156:TkShell.c     **** 
 157:TkShell.c     **** TK_SHELL_METHOD(gpio, set)
 158:TkShell.c     **** {
 159:TkShell.c     ****     uint32_t port, pin, state;
 160:TkShell.c     ****     int i = 2;
 161:TkShell.c     ****     
 162:TkShell.c     ****     argc -= i;
 163:TkShell.c     **** 
 164:TkShell.c     ****     if (argc != 3)
 165:TkShell.c     ****     {
 166:TkShell.c     ****         PRINTF("Invalid number of arguments!\n");
 167:TkShell.c     ****         return -1;
 168:TkShell.c     ****     }
 169:TkShell.c     ****     
 170:TkShell.c     ****     port = atoi(argv[i++]);
 171:TkShell.c     ****     pin = atoi(argv[i++]);
 172:TkShell.c     ****     state = atoi(argv[i]);
 173:TkShell.c     ****     
 174:TkShell.c     ****     CY_SYS_PINS_SET_DRIVE_MODE(reg_lookup[port], pin, CY_SYS_PINS_DM_STRONG);
 175:TkShell.c     **** 
 176:TkShell.c     ****     if (state)
 177:TkShell.c     ****     {
 178:TkShell.c     ****         CY_SYS_PINS_SET_PIN(reg_lookup[port], pin);
 179:TkShell.c     ****     }
 180:TkShell.c     ****     else
 181:TkShell.c     ****     {
 182:TkShell.c     ****         CY_SYS_PINS_CLEAR_PIN(reg_lookup[port], pin);
 183:TkShell.c     ****     }
 184:TkShell.c     ****     
 185:TkShell.c     ****     PRINTF("> gpio:ok %d\n", (int)CY_SYS_PINS_READ_PIN(reg_lookup[port], pin));
 186:TkShell.c     ****     return 0;
 187:TkShell.c     **** }
 188:TkShell.c     **** 
 189:TkShell.c     **** TK_SHELL_METHOD(gpio, config)
 190:TkShell.c     **** {
 191:TkShell.c     ****     uint32_t port, pin, mode;
 192:TkShell.c     ****     int i = 2;
 193:TkShell.c     ****     
 194:TkShell.c     ****     argc -= i;
 195:TkShell.c     **** 
 196:TkShell.c     ****     if (argc != 3)
 197:TkShell.c     ****     {
 198:TkShell.c     ****         PRINTF("Invalid number of arguments!\n");
 199:TkShell.c     ****         return -1;
 200:TkShell.c     ****     }
 201:TkShell.c     ****     
ARM GAS  C:\Users\TERENC~1\AppData\Local\Temp\ccNQUuJb.s 			page 5


 202:TkShell.c     ****     port = atoi(argv[i++]);
 203:TkShell.c     ****     pin = atoi(argv[i++]);
 204:TkShell.c     ****     mode = atoi(argv[i]);
 205:TkShell.c     ****     
 206:TkShell.c     ****     CY_SYS_PINS_SET_DRIVE_MODE(reg_lookup[port], pin, mode);
 207:TkShell.c     ****     
 208:TkShell.c     ****     return 0;
 209:TkShell.c     **** }
 210:TkShell.c     **** 
 211:TkShell.c     **** TK_SHELL_METHOD(gpio, get)
 212:TkShell.c     **** {
 213:TkShell.c     ****     uint32_t port, pin;
 214:TkShell.c     ****     int i = 2;
 215:TkShell.c     ****     
 216:TkShell.c     ****     argc -= i;
 217:TkShell.c     **** 
 218:TkShell.c     ****     if (argc != 2)
 219:TkShell.c     ****     {
 220:TkShell.c     ****         PRINTF("Invalid number of arguments!\n");
 221:TkShell.c     ****         return -1;
 222:TkShell.c     ****     }
 223:TkShell.c     ****     
 224:TkShell.c     ****     port = atoi(argv[i++]);
 225:TkShell.c     ****     pin = atoi(argv[i]);
 226:TkShell.c     ****     
 227:TkShell.c     ****     PRINTF("> gpio:ok %d\n", (int)CY_SYS_PINS_READ_PIN(reg_lookup[port], pin));
 228:TkShell.c     ****     
 229:TkShell.c     ****     return 0;
 230:TkShell.c     **** }
 231:TkShell.c     **** 
 232:TkShell.c     **** TK_SHELL_METHOD(wm, vol_set)
 233:TkShell.c     **** {
 234:TkShell.c     ****     int vol;
 235:TkShell.c     ****     int i = 2;
 236:TkShell.c     ****     uint8_t rv;
 237:TkShell.c     ****     
 238:TkShell.c     ****     argc -= i;
 239:TkShell.c     ****     
 240:TkShell.c     ****     if (argc != 1)
 241:TkShell.c     ****     {
 242:TkShell.c     ****         PRINTF("Invalid number of arguments!\n");
 243:TkShell.c     ****         return -1;
 244:TkShell.c     ****     }
 245:TkShell.c     **** 
 246:TkShell.c     ****     vol = atoi(argv[i++]);
 247:TkShell.c     **** 
 248:TkShell.c     ****     if ((rv = Codec_AdjustBothHeadphoneVolume(vol)) == 0)
 249:TkShell.c     ****     {
 250:TkShell.c     ****         PRINTF("> wm:ok\n");
 251:TkShell.c     ****     }
 252:TkShell.c     ****     else
 253:TkShell.c     ****     {
 254:TkShell.c     ****         PRINTF("> wm:er %d\n", rv);
 255:TkShell.c     ****         return -2;
 256:TkShell.c     ****     }
 257:TkShell.c     **** 
 258:TkShell.c     ****     return 0;
ARM GAS  C:\Users\TERENC~1\AppData\Local\Temp\ccNQUuJb.s 			page 6


 259:TkShell.c     **** }
 260:TkShell.c     **** 
 261:TkShell.c     **** TK_SHELL_METHOD(wm, vol_get)
 262:TkShell.c     **** {
 263:TkShell.c     ****     PRINTF("> wm:ok %d\n", (int)Codec_GetHeadphoneVolume());
 264:TkShell.c     **** 
 265:TkShell.c     ****     return 0;
 266:TkShell.c     **** }
 267:TkShell.c     **** 
 268:TkShell.c     **** TK_SHELL_METHOD(wm, reg_wr)
 269:TkShell.c     **** {
 270:TkShell.c     ****     int i = 2;
 271:TkShell.c     ****     uint8_t reg;
 272:TkShell.c     ****     uint16_t data;
 273:TkShell.c     ****     int rv;
 274:TkShell.c     ****     
 275:TkShell.c     ****     argc -= i;
 276:TkShell.c     ****     
 277:TkShell.c     ****     if (argc != 2)
 278:TkShell.c     ****     {
 279:TkShell.c     ****         PRINTF("Invalid number of arguments!\n");
 280:TkShell.c     ****         return -1;
 281:TkShell.c     ****     }
 282:TkShell.c     ****     
 283:TkShell.c     ****     reg = atoi(argv[i++]);
 284:TkShell.c     ****     data = strtoul(argv[i++], NULL, 16);
 285:TkShell.c     ****     
 286:TkShell.c     ****     if ((rv = Codec_SendData(reg, data)) == 0)
 287:TkShell.c     ****     {
 288:TkShell.c     ****         PRINTF("> wm:ok\n");
 289:TkShell.c     ****     }
 290:TkShell.c     ****     else
 291:TkShell.c     ****     {
 292:TkShell.c     ****         PRINTF("> wm:er %d\n", rv);
 293:TkShell.c     ****         return -2;
 294:TkShell.c     ****     }
 295:TkShell.c     ****     
 296:TkShell.c     ****     return 0;
 297:TkShell.c     **** }
 298:TkShell.c     **** 
 299:TkShell.c     **** TK_SHELL_METHOD(wm, reg_rd)
 300:TkShell.c     **** {
 301:TkShell.c     ****     int i = 2;
 302:TkShell.c     ****     uint8_t reg;
 303:TkShell.c     ****     
 304:TkShell.c     ****     argc -= i;
 305:TkShell.c     ****     
 306:TkShell.c     ****     if (argc != 1)
 307:TkShell.c     ****     {
 308:TkShell.c     ****         PRINTF("Invalid number of arguments!\n");
 309:TkShell.c     ****         return -1;
 310:TkShell.c     ****     }
 311:TkShell.c     ****     
 312:TkShell.c     ****     reg = atoi(argv[i++]);
 313:TkShell.c     ****     
 314:TkShell.c     ****     PRINTF("> wm:ok 0x%04X\n", Codec_GetData(reg));
 315:TkShell.c     ****     
ARM GAS  C:\Users\TERENC~1\AppData\Local\Temp\ccNQUuJb.s 			page 7


 316:TkShell.c     ****     return 0;
 317:TkShell.c     **** }
 318:TkShell.c     **** 
 319:TkShell.c     **** TK_SHELL_METHOD(pcm, reg)
 320:TkShell.c     **** {
 321:TkShell.c     ****     int i = 2;
 322:TkShell.c     ****     uint8 reg;
 323:TkShell.c     ****     uint8 data;
 324:TkShell.c     ****     
 325:TkShell.c     ****     argc -= i;
 326:TkShell.c     ****     
 327:TkShell.c     ****     if (argc != 3)
 328:TkShell.c     ****     {
 329:TkShell.c     ****         PRINTF("Invalid number of arguments!\n");
 330:TkShell.c     ****         return -1;
 331:TkShell.c     ****     }
 332:TkShell.c     ****     
 333:TkShell.c     ****     reg = atoi(argv[i + 1]);
 334:TkShell.c     ****     data = strtoul(argv[i + 2], NULL, 16);
 335:TkShell.c     **** 
 336:TkShell.c     ****     if (strcicmp(argv[i], "wr") == 0)
 337:TkShell.c     ****     {
 338:TkShell.c     ****         pcm1770_reg_write(reg, data);
 339:TkShell.c     ****     }
 340:TkShell.c     ****     
 341:TkShell.c     ****     PRINTF("> pcm:ok 0x%02X\n", pcm1770_reg_read(reg));
 342:TkShell.c     ****     
 343:TkShell.c     ****     return 0;
 344:TkShell.c     **** }
 345:TkShell.c     **** 
 346:TkShell.c     **** TK_SHELL_METHOD(sys, crash)
 347:TkShell.c     **** {
  28              		.loc 1 347 0
  29              		.cfi_startproc
  30              		@ args = 0, pretend = 0, frame = 0
  31              		@ frame_needed = 0, uses_anonymous_args = 0
  32              	.LVL0:
  33 0000 10B5     		push	{r4, lr}
  34              		.cfi_def_cfa_offset 8
  35              		.cfi_offset 4, -8
  36              		.cfi_offset 14, -4
  37              	.LVL1:
 348:TkShell.c     ****     void (*fp)(void) = NULL;
 349:TkShell.c     ****     
 350:TkShell.c     ****     fp();
  38              		.loc 1 350 0
  39 0002 0023     		movs	r3, #0
  40 0004 9847     		blx	r3
  41              	.LVL2:
 351:TkShell.c     ****     
 352:TkShell.c     ****     PRINTF("> sys:er\n");
  42              		.loc 1 352 0
  43 0006 FFF7FEFF 		bl	USBUART_GetConfiguration
  44              	.LVL3:
  45 000a 0028     		cmp	r0, #0
  46 000c 0CD0     		beq	.L2
  47              	.L3:
ARM GAS  C:\Users\TERENC~1\AppData\Local\Temp\ccNQUuJb.s 			page 8


  48              		.loc 1 352 0 is_stmt 0 discriminator 1
  49 000e FFF7FEFF 		bl	USBUART_CDCIsReady
  50              	.LVL4:
  51 0012 0028     		cmp	r0, #0
  52 0014 FBD0     		beq	.L3
  53              		.loc 1 352 0 discriminator 2
  54 0016 054C     		ldr	r4, .L4
  55 0018 0A22     		movs	r2, #10
  56 001a 0549     		ldr	r1, .L4+4
  57 001c 2000     		movs	r0, r4
  58 001e FFF7FEFF 		bl	memcpy
  59              	.LVL5:
  60 0022 2000     		movs	r0, r4
  61 0024 FFF7FEFF 		bl	USBUART_PutString
  62              	.LVL6:
  63              	.L2:
 353:TkShell.c     ****     
 354:TkShell.c     ****     return 0;
 355:TkShell.c     **** }
  64              		.loc 1 355 0 is_stmt 1
  65 0028 0020     		movs	r0, #0
  66              		@ sp needed
  67 002a 10BD     		pop	{r4, pc}
  68              	.L5:
  69              		.align	2
  70              	.L4:
  71 002c 00000000 		.word	gbuf
  72 0030 00000000 		.word	.LC1
  73              		.cfi_endproc
  74              	.LFE11:
  75              		.size	__tk_shell_sys_crash, .-__tk_shell_sys_crash
  76              		.section	.text.__tk_shell_gpio_config,"ax",%progbits
  77              		.align	2
  78              		.global	__tk_shell_gpio_config
  79              		.code	16
  80              		.thumb_func
  81              		.type	__tk_shell_gpio_config, %function
  82              	__tk_shell_gpio_config:
  83              	.LFB4:
 190:TkShell.c     ****     uint32_t port, pin, mode;
  84              		.loc 1 190 0
  85              		.cfi_startproc
  86              		@ args = 0, pretend = 0, frame = 0
  87              		@ frame_needed = 0, uses_anonymous_args = 0
  88              	.LVL7:
  89 0000 70B5     		push	{r4, r5, r6, lr}
  90              		.cfi_def_cfa_offset 16
  91              		.cfi_offset 4, -16
  92              		.cfi_offset 5, -12
  93              		.cfi_offset 6, -8
  94              		.cfi_offset 14, -4
  95 0002 0C00     		movs	r4, r1
  96              	.LVL8:
 196:TkShell.c     ****     {
  97              		.loc 1 196 0
  98 0004 0528     		cmp	r0, #5
  99 0006 13D0     		beq	.L7
ARM GAS  C:\Users\TERENC~1\AppData\Local\Temp\ccNQUuJb.s 			page 9


 198:TkShell.c     ****         return -1;
 100              		.loc 1 198 0
 101 0008 FFF7FEFF 		bl	USBUART_GetConfiguration
 102              	.LVL9:
 103 000c 0028     		cmp	r0, #0
 104 000e 28D0     		beq	.L10
 105              	.L9:
 198:TkShell.c     ****         return -1;
 106              		.loc 1 198 0 is_stmt 0 discriminator 1
 107 0010 FFF7FEFF 		bl	USBUART_CDCIsReady
 108              	.LVL10:
 109 0014 0028     		cmp	r0, #0
 110 0016 FBD0     		beq	.L9
 198:TkShell.c     ****         return -1;
 111              		.loc 1 198 0 discriminator 2
 112 0018 134C     		ldr	r4, .L11
 113              	.LVL11:
 114 001a 1E22     		movs	r2, #30
 115 001c 1349     		ldr	r1, .L11+4
 116 001e 2000     		movs	r0, r4
 117 0020 FFF7FEFF 		bl	memcpy
 118              	.LVL12:
 119 0024 2000     		movs	r0, r4
 120 0026 FFF7FEFF 		bl	USBUART_PutString
 121              	.LVL13:
 199:TkShell.c     ****     }
 122              		.loc 1 199 0 is_stmt 1 discriminator 2
 123 002a 0120     		movs	r0, #1
 124 002c 4042     		rsbs	r0, r0, #0
 125 002e 1AE0     		b	.L8
 126              	.LVL14:
 127              	.L7:
 202:TkShell.c     ****     pin = atoi(argv[i++]);
 128              		.loc 1 202 0
 129 0030 8868     		ldr	r0, [r1, #8]
 130              	.LVL15:
 131 0032 FFF7FEFF 		bl	atoi
 132              	.LVL16:
 133 0036 0600     		movs	r6, r0
 134              	.LVL17:
 203:TkShell.c     ****     mode = atoi(argv[i]);
 135              		.loc 1 203 0
 136 0038 E068     		ldr	r0, [r4, #12]
 137              	.LVL18:
 138 003a FFF7FEFF 		bl	atoi
 139              	.LVL19:
 140 003e 0500     		movs	r5, r0
 141              	.LVL20:
 204:TkShell.c     ****     
 142              		.loc 1 204 0
 143 0040 2069     		ldr	r0, [r4, #16]
 144              	.LVL21:
 145 0042 FFF7FEFF 		bl	atoi
 146              	.LVL22:
 206:TkShell.c     ****     
 147              		.loc 1 206 0
 148 0046 B600     		lsls	r6, r6, #2
ARM GAS  C:\Users\TERENC~1\AppData\Local\Temp\ccNQUuJb.s 			page 10


 149              	.LVL23:
 150 0048 094B     		ldr	r3, .L11+8
 151 004a F158     		ldr	r1, [r6, r3]
 152 004c 0B68     		ldr	r3, [r1]
 153 004e 6A00     		lsls	r2, r5, #1
 154 0050 5519     		adds	r5, r2, r5
 155              	.LVL24:
 156 0052 0722     		movs	r2, #7
 157 0054 AA40     		lsls	r2, r2, r5
 158 0056 9343     		bics	r3, r2
 159 0058 A840     		lsls	r0, r0, r5
 160              	.LVL25:
 161 005a 1843     		orrs	r0, r3
 162 005c 0860     		str	r0, [r1]
 208:TkShell.c     **** }
 163              		.loc 1 208 0
 164 005e 0020     		movs	r0, #0
 165 0060 01E0     		b	.L8
 166              	.LVL26:
 167              	.L10:
 199:TkShell.c     ****     }
 168              		.loc 1 199 0
 169 0062 0120     		movs	r0, #1
 170 0064 4042     		rsbs	r0, r0, #0
 171              	.LVL27:
 172              	.L8:
 209:TkShell.c     **** 
 173              		.loc 1 209 0
 174              		@ sp needed
 175 0066 70BD     		pop	{r4, r5, r6, pc}
 176              	.L12:
 177              		.align	2
 178              	.L11:
 179 0068 00000000 		.word	gbuf
 180 006c 0C000000 		.word	.LC4
 181 0070 00000000 		.word	.LANCHOR0
 182              		.cfi_endproc
 183              	.LFE4:
 184              		.size	__tk_shell_gpio_config, .-__tk_shell_gpio_config
 185              		.section	.text.__tk_shell_led_pwm_period,"ax",%progbits
 186              		.align	2
 187              		.global	__tk_shell_led_pwm_period
 188              		.code	16
 189              		.thumb_func
 190              		.type	__tk_shell_led_pwm_period, %function
 191              	__tk_shell_led_pwm_period:
 192              	.LFB15:
 356:TkShell.c     **** 
 357:TkShell.c     **** TK_SHELL_METHOD(sys, info)
 358:TkShell.c     **** {
 359:TkShell.c     ****     PRINTF("> sys:ok %08lu\n", (unsigned long)tmrGetCounter_ms());
 360:TkShell.c     **** 
 361:TkShell.c     ****     return 0;
 362:TkShell.c     **** }
 363:TkShell.c     **** 
 364:TkShell.c     **** TK_SHELL_METHOD(sys, reset)
 365:TkShell.c     **** {
ARM GAS  C:\Users\TERENC~1\AppData\Local\Temp\ccNQUuJb.s 			page 11


 366:TkShell.c     ****     CySoftwareReset();
 367:TkShell.c     ****     
 368:TkShell.c     ****     return 0;
 369:TkShell.c     **** }
 370:TkShell.c     **** 
 371:TkShell.c     **** TK_SHELL_METHOD(sys, adc)
 372:TkShell.c     **** {
 373:TkShell.c     ****     PRINTF("> sys:ok %d,%d\n", adcSample[vol_ctrl_left], adcSample[vol_ctrl_right]);
 374:TkShell.c     ****     
 375:TkShell.c     ****     return 0;
 376:TkShell.c     **** }
 377:TkShell.c     **** 
 378:TkShell.c     **** TK_SHELL_METHOD(led, pwm_period)
 379:TkShell.c     **** {
 193              		.loc 1 379 0
 194              		.cfi_startproc
 195              		@ args = 0, pretend = 0, frame = 0
 196              		@ frame_needed = 0, uses_anonymous_args = 0
 197              	.LVL28:
 198 0000 10B5     		push	{r4, lr}
 199              		.cfi_def_cfa_offset 8
 200              		.cfi_offset 4, -8
 201              		.cfi_offset 14, -4
 202              	.LVL29:
 380:TkShell.c     ****     int i = 2;
 381:TkShell.c     ****     
 382:TkShell.c     ****     argc -= i;
 383:TkShell.c     ****     
 384:TkShell.c     ****     if (argc != 1)
 203              		.loc 1 384 0
 204 0002 0328     		cmp	r0, #3
 205 0004 13D0     		beq	.L14
 385:TkShell.c     ****     {
 386:TkShell.c     ****         PRINTF("Invalid number of arguments!\n");
 206              		.loc 1 386 0
 207 0006 FFF7FEFF 		bl	USBUART_GetConfiguration
 208              	.LVL30:
 209 000a 0028     		cmp	r0, #0
 210 000c 27D0     		beq	.L18
 211              	.L16:
 212              		.loc 1 386 0 is_stmt 0 discriminator 1
 213 000e FFF7FEFF 		bl	USBUART_CDCIsReady
 214              	.LVL31:
 215 0012 0028     		cmp	r0, #0
 216 0014 FBD0     		beq	.L16
 217              		.loc 1 386 0 discriminator 2
 218 0016 144C     		ldr	r4, .L20
 219 0018 1E22     		movs	r2, #30
 220 001a 1449     		ldr	r1, .L20+4
 221 001c 2000     		movs	r0, r4
 222 001e FFF7FEFF 		bl	memcpy
 223              	.LVL32:
 224 0022 2000     		movs	r0, r4
 225 0024 FFF7FEFF 		bl	USBUART_PutString
 226              	.LVL33:
 387:TkShell.c     ****         return -1;
 227              		.loc 1 387 0 is_stmt 1 discriminator 2
ARM GAS  C:\Users\TERENC~1\AppData\Local\Temp\ccNQUuJb.s 			page 12


 228 0028 0120     		movs	r0, #1
 229 002a 4042     		rsbs	r0, r0, #0
 230 002c 1BE0     		b	.L15
 231              	.LVL34:
 232              	.L14:
 388:TkShell.c     ****     }
 389:TkShell.c     ****     pwm_period = atoi(argv[2]);
 233              		.loc 1 389 0
 234 002e 8868     		ldr	r0, [r1, #8]
 235              	.LVL35:
 236 0030 FFF7FEFF 		bl	atoi
 237              	.LVL36:
 238 0034 0E4B     		ldr	r3, .L20+8
 239 0036 1860     		str	r0, [r3]
 390:TkShell.c     ****     
 391:TkShell.c     ****     PRINTF("> led:ok\n");
 240              		.loc 1 391 0
 241 0038 FFF7FEFF 		bl	USBUART_GetConfiguration
 242              	.LVL37:
 243 003c 0028     		cmp	r0, #0
 244 003e 11D0     		beq	.L19
 245              	.L17:
 246              		.loc 1 391 0 is_stmt 0 discriminator 1
 247 0040 FFF7FEFF 		bl	USBUART_CDCIsReady
 248              	.LVL38:
 249 0044 0028     		cmp	r0, #0
 250 0046 FBD0     		beq	.L17
 251              		.loc 1 391 0 discriminator 2
 252 0048 074C     		ldr	r4, .L20
 253 004a 0A22     		movs	r2, #10
 254 004c 0949     		ldr	r1, .L20+12
 255 004e 2000     		movs	r0, r4
 256 0050 FFF7FEFF 		bl	memcpy
 257              	.LVL39:
 258 0054 2000     		movs	r0, r4
 259 0056 FFF7FEFF 		bl	USBUART_PutString
 260              	.LVL40:
 392:TkShell.c     **** 
 393:TkShell.c     ****     return 0;
 261              		.loc 1 393 0 is_stmt 1 discriminator 2
 262 005a 0020     		movs	r0, #0
 263 005c 03E0     		b	.L15
 264              	.L18:
 387:TkShell.c     ****     }
 265              		.loc 1 387 0
 266 005e 0120     		movs	r0, #1
 267 0060 4042     		rsbs	r0, r0, #0
 268 0062 00E0     		b	.L15
 269              	.L19:
 270              		.loc 1 393 0
 271 0064 0020     		movs	r0, #0
 272              	.L15:
 394:TkShell.c     **** }
 273              		.loc 1 394 0
 274              		@ sp needed
 275 0066 10BD     		pop	{r4, pc}
 276              	.L21:
ARM GAS  C:\Users\TERENC~1\AppData\Local\Temp\ccNQUuJb.s 			page 13


 277              		.align	2
 278              	.L20:
 279 0068 00000000 		.word	gbuf
 280 006c 0C000000 		.word	.LC4
 281 0070 00000000 		.word	pwm_period
 282 0074 2C000000 		.word	.LC10
 283              		.cfi_endproc
 284              	.LFE15:
 285              		.size	__tk_shell_led_pwm_period, .-__tk_shell_led_pwm_period
 286              		.section	.text.__tk_shell_gpio_set,"ax",%progbits
 287              		.align	2
 288              		.global	__tk_shell_gpio_set
 289              		.code	16
 290              		.thumb_func
 291              		.type	__tk_shell_gpio_set, %function
 292              	__tk_shell_gpio_set:
 293              	.LFB3:
 158:TkShell.c     ****     uint32_t port, pin, state;
 294              		.loc 1 158 0
 295              		.cfi_startproc
 296              		@ args = 0, pretend = 0, frame = 0
 297              		@ frame_needed = 0, uses_anonymous_args = 0
 298              	.LVL41:
 299 0000 70B5     		push	{r4, r5, r6, lr}
 300              		.cfi_def_cfa_offset 16
 301              		.cfi_offset 4, -16
 302              		.cfi_offset 5, -12
 303              		.cfi_offset 6, -8
 304              		.cfi_offset 14, -4
 305 0002 0C00     		movs	r4, r1
 306              	.LVL42:
 164:TkShell.c     ****     {
 307              		.loc 1 164 0
 308 0004 0528     		cmp	r0, #5
 309 0006 13D0     		beq	.L23
 166:TkShell.c     ****         return -1;
 310              		.loc 1 166 0
 311 0008 FFF7FEFF 		bl	USBUART_GetConfiguration
 312              	.LVL43:
 313 000c 0028     		cmp	r0, #0
 314 000e 4BD0     		beq	.L29
 315              	.L25:
 166:TkShell.c     ****         return -1;
 316              		.loc 1 166 0 is_stmt 0 discriminator 1
 317 0010 FFF7FEFF 		bl	USBUART_CDCIsReady
 318              	.LVL44:
 319 0014 0028     		cmp	r0, #0
 320 0016 FBD0     		beq	.L25
 166:TkShell.c     ****         return -1;
 321              		.loc 1 166 0 discriminator 2
 322 0018 264C     		ldr	r4, .L31
 323              	.LVL45:
 324 001a 1E22     		movs	r2, #30
 325 001c 2649     		ldr	r1, .L31+4
 326 001e 2000     		movs	r0, r4
 327 0020 FFF7FEFF 		bl	memcpy
 328              	.LVL46:
ARM GAS  C:\Users\TERENC~1\AppData\Local\Temp\ccNQUuJb.s 			page 14


 329 0024 2000     		movs	r0, r4
 330 0026 FFF7FEFF 		bl	USBUART_PutString
 331              	.LVL47:
 167:TkShell.c     ****     }
 332              		.loc 1 167 0 is_stmt 1 discriminator 2
 333 002a 0120     		movs	r0, #1
 334 002c 4042     		rsbs	r0, r0, #0
 335 002e 3FE0     		b	.L24
 336              	.LVL48:
 337              	.L23:
 170:TkShell.c     ****     pin = atoi(argv[i++]);
 338              		.loc 1 170 0
 339 0030 8868     		ldr	r0, [r1, #8]
 340              	.LVL49:
 341 0032 FFF7FEFF 		bl	atoi
 342              	.LVL50:
 343 0036 0600     		movs	r6, r0
 344              	.LVL51:
 171:TkShell.c     ****     state = atoi(argv[i]);
 345              		.loc 1 171 0
 346 0038 E068     		ldr	r0, [r4, #12]
 347              	.LVL52:
 348 003a FFF7FEFF 		bl	atoi
 349              	.LVL53:
 350 003e 0500     		movs	r5, r0
 351              	.LVL54:
 172:TkShell.c     ****     
 352              		.loc 1 172 0
 353 0040 2069     		ldr	r0, [r4, #16]
 354              	.LVL55:
 355 0042 FFF7FEFF 		bl	atoi
 356              	.LVL56:
 174:TkShell.c     **** 
 357              		.loc 1 174 0
 358 0046 B600     		lsls	r6, r6, #2
 359              	.LVL57:
 360 0048 1C4B     		ldr	r3, .L31+8
 361 004a F458     		ldr	r4, [r6, r3]
 362              	.LVL58:
 363 004c 2368     		ldr	r3, [r4]
 364 004e 6A00     		lsls	r2, r5, #1
 365 0050 5219     		adds	r2, r2, r5
 366 0052 0721     		movs	r1, #7
 367 0054 9140     		lsls	r1, r1, r2
 368 0056 8B43     		bics	r3, r1
 369 0058 1900     		movs	r1, r3
 370 005a 0623     		movs	r3, #6
 371 005c 9340     		lsls	r3, r3, r2
 372 005e 0B43     		orrs	r3, r1
 373 0060 2360     		str	r3, [r4]
 176:TkShell.c     ****     {
 374              		.loc 1 176 0
 375 0062 0028     		cmp	r0, #0
 376 0064 05D0     		beq	.L26
 178:TkShell.c     ****     }
 377              		.loc 1 178 0
 378 0066 2268     		ldr	r2, [r4]
ARM GAS  C:\Users\TERENC~1\AppData\Local\Temp\ccNQUuJb.s 			page 15


 379 0068 0123     		movs	r3, #1
 380 006a AB40     		lsls	r3, r3, r5
 381 006c 1343     		orrs	r3, r2
 382 006e 2360     		str	r3, [r4]
 383 0070 04E0     		b	.L27
 384              	.L26:
 182:TkShell.c     ****     }
 385              		.loc 1 182 0
 386 0072 2368     		ldr	r3, [r4]
 387 0074 0122     		movs	r2, #1
 388 0076 AA40     		lsls	r2, r2, r5
 389 0078 9343     		bics	r3, r2
 390 007a 2360     		str	r3, [r4]
 391              	.L27:
 185:TkShell.c     ****     return 0;
 392              		.loc 1 185 0
 393 007c FFF7FEFF 		bl	USBUART_GetConfiguration
 394              	.LVL59:
 395 0080 0028     		cmp	r0, #0
 396 0082 14D0     		beq	.L30
 397              	.L28:
 185:TkShell.c     ****     return 0;
 398              		.loc 1 185 0 is_stmt 0 discriminator 1
 399 0084 FFF7FEFF 		bl	USBUART_CDCIsReady
 400              	.LVL60:
 401 0088 0028     		cmp	r0, #0
 402 008a FBD0     		beq	.L28
 185:TkShell.c     ****     return 0;
 403              		.loc 1 185 0 discriminator 2
 404 008c 2268     		ldr	r2, [r4]
 405 008e EA40     		lsrs	r2, r2, r5
 406 0090 0123     		movs	r3, #1
 407 0092 1A40     		ands	r2, r3
 408 0094 074C     		ldr	r4, .L31
 409 0096 0A49     		ldr	r1, .L31+12
 410 0098 2000     		movs	r0, r4
 411 009a FFF7FEFF 		bl	sprintf
 412              	.LVL61:
 413 009e 2000     		movs	r0, r4
 414 00a0 FFF7FEFF 		bl	USBUART_PutString
 415              	.LVL62:
 186:TkShell.c     **** }
 416              		.loc 1 186 0 is_stmt 1 discriminator 2
 417 00a4 0020     		movs	r0, #0
 418 00a6 03E0     		b	.L24
 419              	.LVL63:
 420              	.L29:
 167:TkShell.c     ****     }
 421              		.loc 1 167 0
 422 00a8 0120     		movs	r0, #1
 423 00aa 4042     		rsbs	r0, r0, #0
 424 00ac 00E0     		b	.L24
 425              	.LVL64:
 426              	.L30:
 186:TkShell.c     **** }
 427              		.loc 1 186 0
 428 00ae 0020     		movs	r0, #0
ARM GAS  C:\Users\TERENC~1\AppData\Local\Temp\ccNQUuJb.s 			page 16


 429              	.LVL65:
 430              	.L24:
 187:TkShell.c     **** 
 431              		.loc 1 187 0
 432              		@ sp needed
 433 00b0 70BD     		pop	{r4, r5, r6, pc}
 434              	.L32:
 435 00b2 C046     		.align	2
 436              	.L31:
 437 00b4 00000000 		.word	gbuf
 438 00b8 0C000000 		.word	.LC4
 439 00bc 00000000 		.word	.LANCHOR0
 440 00c0 38000000 		.word	.LC15
 441              		.cfi_endproc
 442              	.LFE3:
 443              		.size	__tk_shell_gpio_set, .-__tk_shell_gpio_set
 444              		.section	.text.__tk_shell_gpio_get,"ax",%progbits
 445              		.align	2
 446              		.global	__tk_shell_gpio_get
 447              		.code	16
 448              		.thumb_func
 449              		.type	__tk_shell_gpio_get, %function
 450              	__tk_shell_gpio_get:
 451              	.LFB5:
 212:TkShell.c     ****     uint32_t port, pin;
 452              		.loc 1 212 0
 453              		.cfi_startproc
 454              		@ args = 0, pretend = 0, frame = 0
 455              		@ frame_needed = 0, uses_anonymous_args = 0
 456              	.LVL66:
 457 0000 70B5     		push	{r4, r5, r6, lr}
 458              		.cfi_def_cfa_offset 16
 459              		.cfi_offset 4, -16
 460              		.cfi_offset 5, -12
 461              		.cfi_offset 6, -8
 462              		.cfi_offset 14, -4
 463 0002 0C00     		movs	r4, r1
 464              	.LVL67:
 218:TkShell.c     ****     {
 465              		.loc 1 218 0
 466 0004 0428     		cmp	r0, #4
 467 0006 13D0     		beq	.L34
 220:TkShell.c     ****         return -1;
 468              		.loc 1 220 0
 469 0008 FFF7FEFF 		bl	USBUART_GetConfiguration
 470              	.LVL68:
 471 000c 0028     		cmp	r0, #0
 472 000e 30D0     		beq	.L38
 473              	.L36:
 220:TkShell.c     ****         return -1;
 474              		.loc 1 220 0 is_stmt 0 discriminator 1
 475 0010 FFF7FEFF 		bl	USBUART_CDCIsReady
 476              	.LVL69:
 477 0014 0028     		cmp	r0, #0
 478 0016 FBD0     		beq	.L36
 220:TkShell.c     ****         return -1;
 479              		.loc 1 220 0 discriminator 2
ARM GAS  C:\Users\TERENC~1\AppData\Local\Temp\ccNQUuJb.s 			page 17


 480 0018 184C     		ldr	r4, .L40
 481              	.LVL70:
 482 001a 1E22     		movs	r2, #30
 483 001c 1849     		ldr	r1, .L40+4
 484 001e 2000     		movs	r0, r4
 485 0020 FFF7FEFF 		bl	memcpy
 486              	.LVL71:
 487 0024 2000     		movs	r0, r4
 488 0026 FFF7FEFF 		bl	USBUART_PutString
 489              	.LVL72:
 221:TkShell.c     ****     }
 490              		.loc 1 221 0 is_stmt 1 discriminator 2
 491 002a 0120     		movs	r0, #1
 492 002c 4042     		rsbs	r0, r0, #0
 493 002e 24E0     		b	.L35
 494              	.LVL73:
 495              	.L34:
 224:TkShell.c     ****     pin = atoi(argv[i]);
 496              		.loc 1 224 0
 497 0030 8868     		ldr	r0, [r1, #8]
 498              	.LVL74:
 499 0032 FFF7FEFF 		bl	atoi
 500              	.LVL75:
 501 0036 0500     		movs	r5, r0
 502              	.LVL76:
 225:TkShell.c     ****     
 503              		.loc 1 225 0
 504 0038 E068     		ldr	r0, [r4, #12]
 505              	.LVL77:
 506 003a FFF7FEFF 		bl	atoi
 507              	.LVL78:
 508 003e 0400     		movs	r4, r0
 509              	.LVL79:
 227:TkShell.c     ****     
 510              		.loc 1 227 0
 511 0040 FFF7FEFF 		bl	USBUART_GetConfiguration
 512              	.LVL80:
 513 0044 0028     		cmp	r0, #0
 514 0046 17D0     		beq	.L39
 515              	.L37:
 227:TkShell.c     ****     
 516              		.loc 1 227 0 is_stmt 0 discriminator 1
 517 0048 FFF7FEFF 		bl	USBUART_CDCIsReady
 518              	.LVL81:
 519 004c 0028     		cmp	r0, #0
 520 004e FBD0     		beq	.L37
 227:TkShell.c     ****     
 521              		.loc 1 227 0 discriminator 2
 522 0050 AD00     		lsls	r5, r5, #2
 523              	.LVL82:
 524 0052 0C4B     		ldr	r3, .L40+8
 525 0054 EB58     		ldr	r3, [r5, r3]
 526 0056 1A68     		ldr	r2, [r3]
 527 0058 E240     		lsrs	r2, r2, r4
 528 005a 0123     		movs	r3, #1
 529 005c 1A40     		ands	r2, r3
 530 005e 074C     		ldr	r4, .L40
ARM GAS  C:\Users\TERENC~1\AppData\Local\Temp\ccNQUuJb.s 			page 18


 531              	.LVL83:
 532 0060 0949     		ldr	r1, .L40+12
 533 0062 2000     		movs	r0, r4
 534 0064 FFF7FEFF 		bl	sprintf
 535              	.LVL84:
 536 0068 2000     		movs	r0, r4
 537 006a FFF7FEFF 		bl	USBUART_PutString
 538              	.LVL85:
 229:TkShell.c     **** }
 539              		.loc 1 229 0 is_stmt 1 discriminator 2
 540 006e 0020     		movs	r0, #0
 541 0070 03E0     		b	.L35
 542              	.LVL86:
 543              	.L38:
 221:TkShell.c     ****     }
 544              		.loc 1 221 0
 545 0072 0120     		movs	r0, #1
 546 0074 4042     		rsbs	r0, r0, #0
 547 0076 00E0     		b	.L35
 548              	.LVL87:
 549              	.L39:
 229:TkShell.c     **** }
 550              		.loc 1 229 0
 551 0078 0020     		movs	r0, #0
 552              	.LVL88:
 553              	.L35:
 230:TkShell.c     **** 
 554              		.loc 1 230 0
 555              		@ sp needed
 556 007a 70BD     		pop	{r4, r5, r6, pc}
 557              	.L41:
 558              		.align	2
 559              	.L40:
 560 007c 00000000 		.word	gbuf
 561 0080 0C000000 		.word	.LC4
 562 0084 00000000 		.word	.LANCHOR0
 563 0088 38000000 		.word	.LC15
 564              		.cfi_endproc
 565              	.LFE5:
 566              		.size	__tk_shell_gpio_get, .-__tk_shell_gpio_get
 567              		.section	.text.__tk_shell_sys_info,"ax",%progbits
 568              		.align	2
 569              		.global	__tk_shell_sys_info
 570              		.code	16
 571              		.thumb_func
 572              		.type	__tk_shell_sys_info, %function
 573              	__tk_shell_sys_info:
 574              	.LFB12:
 358:TkShell.c     ****     PRINTF("> sys:ok %08lu\n", (unsigned long)tmrGetCounter_ms());
 575              		.loc 1 358 0
 576              		.cfi_startproc
 577              		@ args = 0, pretend = 0, frame = 0
 578              		@ frame_needed = 0, uses_anonymous_args = 0
 579              	.LVL89:
 580 0000 10B5     		push	{r4, lr}
 581              		.cfi_def_cfa_offset 8
 582              		.cfi_offset 4, -8
ARM GAS  C:\Users\TERENC~1\AppData\Local\Temp\ccNQUuJb.s 			page 19


 583              		.cfi_offset 14, -4
 359:TkShell.c     **** 
 584              		.loc 1 359 0
 585 0002 FFF7FEFF 		bl	USBUART_GetConfiguration
 586              	.LVL90:
 587 0006 0028     		cmp	r0, #0
 588 0008 0DD0     		beq	.L43
 589              	.L44:
 359:TkShell.c     **** 
 590              		.loc 1 359 0 is_stmt 0 discriminator 1
 591 000a FFF7FEFF 		bl	USBUART_CDCIsReady
 592              	.LVL91:
 593 000e 0028     		cmp	r0, #0
 594 0010 FBD0     		beq	.L44
 359:TkShell.c     **** 
 595              		.loc 1 359 0 discriminator 2
 596 0012 064B     		ldr	r3, .L45
 597 0014 1A68     		ldr	r2, [r3]
 598 0016 064C     		ldr	r4, .L45+4
 599 0018 0649     		ldr	r1, .L45+8
 600 001a 2000     		movs	r0, r4
 601 001c FFF7FEFF 		bl	sprintf
 602              	.LVL92:
 603 0020 2000     		movs	r0, r4
 604 0022 FFF7FEFF 		bl	USBUART_PutString
 605              	.LVL93:
 606              	.L43:
 362:TkShell.c     **** 
 607              		.loc 1 362 0 is_stmt 1
 608 0026 0020     		movs	r0, #0
 609              		@ sp needed
 610 0028 10BD     		pop	{r4, pc}
 611              	.L46:
 612 002a C046     		.align	2
 613              	.L45:
 614 002c 00000000 		.word	tmrCounter_ms
 615 0030 00000000 		.word	gbuf
 616 0034 48000000 		.word	.LC22
 617              		.cfi_endproc
 618              	.LFE12:
 619              		.size	__tk_shell_sys_info, .-__tk_shell_sys_info
 620              		.section	.text.__tk_shell_sys_adc,"ax",%progbits
 621              		.align	2
 622              		.global	__tk_shell_sys_adc
 623              		.code	16
 624              		.thumb_func
 625              		.type	__tk_shell_sys_adc, %function
 626              	__tk_shell_sys_adc:
 627              	.LFB14:
 372:TkShell.c     ****     PRINTF("> sys:ok %d,%d\n", adcSample[vol_ctrl_left], adcSample[vol_ctrl_right]);
 628              		.loc 1 372 0
 629              		.cfi_startproc
 630              		@ args = 0, pretend = 0, frame = 0
 631              		@ frame_needed = 0, uses_anonymous_args = 0
 632              	.LVL94:
 633 0000 10B5     		push	{r4, lr}
 634              		.cfi_def_cfa_offset 8
ARM GAS  C:\Users\TERENC~1\AppData\Local\Temp\ccNQUuJb.s 			page 20


 635              		.cfi_offset 4, -8
 636              		.cfi_offset 14, -4
 373:TkShell.c     ****     
 637              		.loc 1 373 0
 638 0002 FFF7FEFF 		bl	USBUART_GetConfiguration
 639              	.LVL95:
 640 0006 0028     		cmp	r0, #0
 641 0008 10D0     		beq	.L48
 642              	.L49:
 373:TkShell.c     ****     
 643              		.loc 1 373 0 is_stmt 0 discriminator 1
 644 000a FFF7FEFF 		bl	USBUART_CDCIsReady
 645              	.LVL96:
 646 000e 0028     		cmp	r0, #0
 647 0010 FBD0     		beq	.L49
 373:TkShell.c     ****     
 648              		.loc 1 373 0 discriminator 2
 649 0012 074B     		ldr	r3, .L50
 650 0014 0221     		movs	r1, #2
 651 0016 5A5E     		ldrsh	r2, [r3, r1]
 652 0018 0021     		movs	r1, #0
 653 001a 5B5E     		ldrsh	r3, [r3, r1]
 654 001c 054C     		ldr	r4, .L50+4
 655 001e 0649     		ldr	r1, .L50+8
 656 0020 2000     		movs	r0, r4
 657 0022 FFF7FEFF 		bl	sprintf
 658              	.LVL97:
 659 0026 2000     		movs	r0, r4
 660 0028 FFF7FEFF 		bl	USBUART_PutString
 661              	.LVL98:
 662              	.L48:
 376:TkShell.c     **** 
 663              		.loc 1 376 0 is_stmt 1
 664 002c 0020     		movs	r0, #0
 665              		@ sp needed
 666 002e 10BD     		pop	{r4, pc}
 667              	.L51:
 668              		.align	2
 669              	.L50:
 670 0030 00000000 		.word	adcSample
 671 0034 00000000 		.word	gbuf
 672 0038 58000000 		.word	.LC26
 673              		.cfi_endproc
 674              	.LFE14:
 675              		.size	__tk_shell_sys_adc, .-__tk_shell_sys_adc
 676              		.section	.text.__tk_shell_cal_print,"ax",%progbits
 677              		.align	2
 678              		.global	__tk_shell_cal_print
 679              		.code	16
 680              		.thumb_func
 681              		.type	__tk_shell_cal_print, %function
 682              	__tk_shell_cal_print:
 683              	.LFB18:
 395:TkShell.c     **** 
 396:TkShell.c     **** TK_SHELL_METHOD(led, start)
 397:TkShell.c     **** {
 398:TkShell.c     ****     LedInit();
ARM GAS  C:\Users\TERENC~1\AppData\Local\Temp\ccNQUuJb.s 			page 21


 399:TkShell.c     ****     
 400:TkShell.c     ****     PRINTF("> led:ok\n");
 401:TkShell.c     **** 
 402:TkShell.c     ****     return 0;
 403:TkShell.c     **** }
 404:TkShell.c     **** 
 405:TkShell.c     **** TK_SHELL_METHOD(led, stop)
 406:TkShell.c     **** {
 407:TkShell.c     ****     LedDeInit();
 408:TkShell.c     ****     
 409:TkShell.c     ****     PRINTF("> led:ok\n");
 410:TkShell.c     **** 
 411:TkShell.c     ****     return 0;
 412:TkShell.c     **** }
 413:TkShell.c     **** 
 414:TkShell.c     **** TK_SHELL_METHOD(cal, print)
 415:TkShell.c     **** {
 684              		.loc 1 415 0
 685              		.cfi_startproc
 686              		@ args = 0, pretend = 0, frame = 0
 687              		@ frame_needed = 0, uses_anonymous_args = 0
 688              	.LVL99:
 689 0000 10B5     		push	{r4, lr}
 690              		.cfi_def_cfa_offset 8
 691              		.cfi_offset 4, -8
 692              		.cfi_offset 14, -4
 416:TkShell.c     ****     PRINTF("sign = 0x%08X\n", (unsigned int)cal_data->signature);
 693              		.loc 1 416 0
 694 0002 FFF7FEFF 		bl	USBUART_GetConfiguration
 695              	.LVL100:
 696 0006 0028     		cmp	r0, #0
 697 0008 0ED0     		beq	.L53
 698              	.L54:
 699              		.loc 1 416 0 is_stmt 0 discriminator 1
 700 000a FFF7FEFF 		bl	USBUART_CDCIsReady
 701              	.LVL101:
 702 000e 0028     		cmp	r0, #0
 703 0010 FBD0     		beq	.L54
 704              		.loc 1 416 0 discriminator 2
 705 0012 534B     		ldr	r3, .L71
 706 0014 1B68     		ldr	r3, [r3]
 707 0016 1A68     		ldr	r2, [r3]
 708 0018 524C     		ldr	r4, .L71+4
 709 001a 5349     		ldr	r1, .L71+8
 710 001c 2000     		movs	r0, r4
 711 001e FFF7FEFF 		bl	sprintf
 712              	.LVL102:
 713 0022 2000     		movs	r0, r4
 714 0024 FFF7FEFF 		bl	USBUART_PutString
 715              	.LVL103:
 716              	.L53:
 417:TkShell.c     ****     PRINTF("ctr = %lu\n", cal_data->counter);
 717              		.loc 1 417 0 is_stmt 1
 718 0028 FFF7FEFF 		bl	USBUART_GetConfiguration
 719              	.LVL104:
 720 002c 0028     		cmp	r0, #0
 721 002e 0ED0     		beq	.L55
ARM GAS  C:\Users\TERENC~1\AppData\Local\Temp\ccNQUuJb.s 			page 22


 722              	.L56:
 723              		.loc 1 417 0 is_stmt 0 discriminator 1
 724 0030 FFF7FEFF 		bl	USBUART_CDCIsReady
 725              	.LVL105:
 726 0034 0028     		cmp	r0, #0
 727 0036 FBD0     		beq	.L56
 728              		.loc 1 417 0 discriminator 2
 729 0038 494B     		ldr	r3, .L71
 730 003a 1B68     		ldr	r3, [r3]
 731 003c 5A68     		ldr	r2, [r3, #4]
 732 003e 494C     		ldr	r4, .L71+4
 733 0040 4A49     		ldr	r1, .L71+12
 734 0042 2000     		movs	r0, r4
 735 0044 FFF7FEFF 		bl	sprintf
 736              	.LVL106:
 737 0048 2000     		movs	r0, r4
 738 004a FFF7FEFF 		bl	USBUART_PutString
 739              	.LVL107:
 740              	.L55:
 418:TkShell.c     ****     PRINTF("adc_min[R] = %d\n", cal_data->adc_min[vol_ctrl_right]);
 741              		.loc 1 418 0 is_stmt 1
 742 004e FFF7FEFF 		bl	USBUART_GetConfiguration
 743              	.LVL108:
 744 0052 0028     		cmp	r0, #0
 745 0054 0FD0     		beq	.L57
 746              	.L58:
 747              		.loc 1 418 0 is_stmt 0 discriminator 1
 748 0056 FFF7FEFF 		bl	USBUART_CDCIsReady
 749              	.LVL109:
 750 005a 0028     		cmp	r0, #0
 751 005c FBD0     		beq	.L58
 752              		.loc 1 418 0 discriminator 2
 753 005e 404B     		ldr	r3, .L71
 754 0060 1B68     		ldr	r3, [r3]
 755 0062 0822     		movs	r2, #8
 756 0064 9A5E     		ldrsh	r2, [r3, r2]
 757 0066 3F4C     		ldr	r4, .L71+4
 758 0068 4149     		ldr	r1, .L71+16
 759 006a 2000     		movs	r0, r4
 760 006c FFF7FEFF 		bl	sprintf
 761              	.LVL110:
 762 0070 2000     		movs	r0, r4
 763 0072 FFF7FEFF 		bl	USBUART_PutString
 764              	.LVL111:
 765              	.L57:
 419:TkShell.c     ****     PRINTF("adc_max[R] = %d\n", cal_data->adc_max[vol_ctrl_right]);
 766              		.loc 1 419 0 is_stmt 1
 767 0076 FFF7FEFF 		bl	USBUART_GetConfiguration
 768              	.LVL112:
 769 007a 0028     		cmp	r0, #0
 770 007c 0FD0     		beq	.L59
 771              	.L60:
 772              		.loc 1 419 0 is_stmt 0 discriminator 1
 773 007e FFF7FEFF 		bl	USBUART_CDCIsReady
 774              	.LVL113:
 775 0082 0028     		cmp	r0, #0
 776 0084 FBD0     		beq	.L60
ARM GAS  C:\Users\TERENC~1\AppData\Local\Temp\ccNQUuJb.s 			page 23


 777              		.loc 1 419 0 discriminator 2
 778 0086 364B     		ldr	r3, .L71
 779 0088 1B68     		ldr	r3, [r3]
 780 008a 0C22     		movs	r2, #12
 781 008c 9A5E     		ldrsh	r2, [r3, r2]
 782 008e 354C     		ldr	r4, .L71+4
 783 0090 3849     		ldr	r1, .L71+20
 784 0092 2000     		movs	r0, r4
 785 0094 FFF7FEFF 		bl	sprintf
 786              	.LVL114:
 787 0098 2000     		movs	r0, r4
 788 009a FFF7FEFF 		bl	USBUART_PutString
 789              	.LVL115:
 790              	.L59:
 420:TkShell.c     ****     PRINTF("adc_min[L] = %d\n", cal_data->adc_min[vol_ctrl_left]);
 791              		.loc 1 420 0 is_stmt 1
 792 009e FFF7FEFF 		bl	USBUART_GetConfiguration
 793              	.LVL116:
 794 00a2 0028     		cmp	r0, #0
 795 00a4 0FD0     		beq	.L61
 796              	.L62:
 797              		.loc 1 420 0 is_stmt 0 discriminator 1
 798 00a6 FFF7FEFF 		bl	USBUART_CDCIsReady
 799              	.LVL117:
 800 00aa 0028     		cmp	r0, #0
 801 00ac FBD0     		beq	.L62
 802              		.loc 1 420 0 discriminator 2
 803 00ae 2C4B     		ldr	r3, .L71
 804 00b0 1B68     		ldr	r3, [r3]
 805 00b2 0A22     		movs	r2, #10
 806 00b4 9A5E     		ldrsh	r2, [r3, r2]
 807 00b6 2B4C     		ldr	r4, .L71+4
 808 00b8 2F49     		ldr	r1, .L71+24
 809 00ba 2000     		movs	r0, r4
 810 00bc FFF7FEFF 		bl	sprintf
 811              	.LVL118:
 812 00c0 2000     		movs	r0, r4
 813 00c2 FFF7FEFF 		bl	USBUART_PutString
 814              	.LVL119:
 815              	.L61:
 421:TkShell.c     ****     PRINTF("adc_max[L] = %d\n", cal_data->adc_max[vol_ctrl_left]);
 816              		.loc 1 421 0 is_stmt 1
 817 00c6 FFF7FEFF 		bl	USBUART_GetConfiguration
 818              	.LVL120:
 819 00ca 0028     		cmp	r0, #0
 820 00cc 0FD0     		beq	.L63
 821              	.L64:
 822              		.loc 1 421 0 is_stmt 0 discriminator 1
 823 00ce FFF7FEFF 		bl	USBUART_CDCIsReady
 824              	.LVL121:
 825 00d2 0028     		cmp	r0, #0
 826 00d4 FBD0     		beq	.L64
 827              		.loc 1 421 0 discriminator 2
 828 00d6 224B     		ldr	r3, .L71
 829 00d8 1B68     		ldr	r3, [r3]
 830 00da 0E22     		movs	r2, #14
 831 00dc 9A5E     		ldrsh	r2, [r3, r2]
ARM GAS  C:\Users\TERENC~1\AppData\Local\Temp\ccNQUuJb.s 			page 24


 832 00de 214C     		ldr	r4, .L71+4
 833 00e0 2649     		ldr	r1, .L71+28
 834 00e2 2000     		movs	r0, r4
 835 00e4 FFF7FEFF 		bl	sprintf
 836              	.LVL122:
 837 00e8 2000     		movs	r0, r4
 838 00ea FFF7FEFF 		bl	USBUART_PutString
 839              	.LVL123:
 840              	.L63:
 422:TkShell.c     **** 
 423:TkShell.c     ****     PRINTF("led_max_brightness = %d\n", cal_data->led_max_brightness);
 841              		.loc 1 423 0 is_stmt 1
 842 00ee FFF7FEFF 		bl	USBUART_GetConfiguration
 843              	.LVL124:
 844 00f2 0028     		cmp	r0, #0
 845 00f4 0ED0     		beq	.L65
 846              	.L66:
 847              		.loc 1 423 0 is_stmt 0 discriminator 1
 848 00f6 FFF7FEFF 		bl	USBUART_CDCIsReady
 849              	.LVL125:
 850 00fa 0028     		cmp	r0, #0
 851 00fc FBD0     		beq	.L66
 852              		.loc 1 423 0 discriminator 2
 853 00fe 184B     		ldr	r3, .L71
 854 0100 1B68     		ldr	r3, [r3]
 855 0102 1A7C     		ldrb	r2, [r3, #16]
 856 0104 174C     		ldr	r4, .L71+4
 857 0106 1E49     		ldr	r1, .L71+32
 858 0108 2000     		movs	r0, r4
 859 010a FFF7FEFF 		bl	sprintf
 860              	.LVL126:
 861 010e 2000     		movs	r0, r4
 862 0110 FFF7FEFF 		bl	USBUART_PutString
 863              	.LVL127:
 864              	.L65:
 424:TkShell.c     ****     PRINTF("debug_mask = 0x%02X\n", (unsigned int)cal_data->debug_mask);
 865              		.loc 1 424 0 is_stmt 1
 866 0114 FFF7FEFF 		bl	USBUART_GetConfiguration
 867              	.LVL128:
 868 0118 0028     		cmp	r0, #0
 869 011a 0ED0     		beq	.L67
 870              	.L68:
 871              		.loc 1 424 0 is_stmt 0 discriminator 1
 872 011c FFF7FEFF 		bl	USBUART_CDCIsReady
 873              	.LVL129:
 874 0120 0028     		cmp	r0, #0
 875 0122 FBD0     		beq	.L68
 876              		.loc 1 424 0 discriminator 2
 877 0124 0E4B     		ldr	r3, .L71
 878 0126 1B68     		ldr	r3, [r3]
 879 0128 5A7C     		ldrb	r2, [r3, #17]
 880 012a 0E4C     		ldr	r4, .L71+4
 881 012c 1549     		ldr	r1, .L71+36
 882 012e 2000     		movs	r0, r4
 883 0130 FFF7FEFF 		bl	sprintf
 884              	.LVL130:
 885 0134 2000     		movs	r0, r4
ARM GAS  C:\Users\TERENC~1\AppData\Local\Temp\ccNQUuJb.s 			page 25


 886 0136 FFF7FEFF 		bl	USBUART_PutString
 887              	.LVL131:
 888              	.L67:
 425:TkShell.c     ****     PRINTF("> cal:ok\n");
 889              		.loc 1 425 0 is_stmt 1
 890 013a FFF7FEFF 		bl	USBUART_GetConfiguration
 891              	.LVL132:
 892 013e 0028     		cmp	r0, #0
 893 0140 0CD0     		beq	.L69
 894              	.L70:
 895              		.loc 1 425 0 is_stmt 0 discriminator 1
 896 0142 FFF7FEFF 		bl	USBUART_CDCIsReady
 897              	.LVL133:
 898 0146 0028     		cmp	r0, #0
 899 0148 FBD0     		beq	.L70
 900              		.loc 1 425 0 discriminator 2
 901 014a 064C     		ldr	r4, .L71+4
 902 014c 0A22     		movs	r2, #10
 903 014e 0E49     		ldr	r1, .L71+40
 904 0150 2000     		movs	r0, r4
 905 0152 FFF7FEFF 		bl	memcpy
 906              	.LVL134:
 907 0156 2000     		movs	r0, r4
 908 0158 FFF7FEFF 		bl	USBUART_PutString
 909              	.LVL135:
 910              	.L69:
 426:TkShell.c     **** 
 427:TkShell.c     ****     return 0;    
 428:TkShell.c     **** }
 911              		.loc 1 428 0 is_stmt 1
 912 015c 0020     		movs	r0, #0
 913              		@ sp needed
 914 015e 10BD     		pop	{r4, pc}
 915              	.L72:
 916              		.align	2
 917              	.L71:
 918 0160 00000000 		.word	cal_data
 919 0164 00000000 		.word	gbuf
 920 0168 68000000 		.word	.LC30
 921 016c 78000000 		.word	.LC33
 922 0170 84000000 		.word	.LC35
 923 0174 98000000 		.word	.LC37
 924 0178 AC000000 		.word	.LC39
 925 017c C0000000 		.word	.LC41
 926 0180 D4000000 		.word	.LC43
 927 0184 F0000000 		.word	.LC45
 928 0188 08010000 		.word	.LC47
 929              		.cfi_endproc
 930              	.LFE18:
 931              		.size	__tk_shell_cal_print, .-__tk_shell_cal_print
 932              		.section	.text.__tk_shell_wm_vol_set,"ax",%progbits
 933              		.align	2
 934              		.global	__tk_shell_wm_vol_set
 935              		.code	16
 936              		.thumb_func
 937              		.type	__tk_shell_wm_vol_set, %function
 938              	__tk_shell_wm_vol_set:
ARM GAS  C:\Users\TERENC~1\AppData\Local\Temp\ccNQUuJb.s 			page 26


 939              	.LFB6:
 233:TkShell.c     ****     int vol;
 940              		.loc 1 233 0
 941              		.cfi_startproc
 942              		@ args = 0, pretend = 0, frame = 0
 943              		@ frame_needed = 0, uses_anonymous_args = 0
 944              	.LVL136:
 945 0000 70B5     		push	{r4, r5, r6, lr}
 946              		.cfi_def_cfa_offset 16
 947              		.cfi_offset 4, -16
 948              		.cfi_offset 5, -12
 949              		.cfi_offset 6, -8
 950              		.cfi_offset 14, -4
 951              	.LVL137:
 240:TkShell.c     ****     {
 952              		.loc 1 240 0
 953 0002 0328     		cmp	r0, #3
 954 0004 13D0     		beq	.L74
 242:TkShell.c     ****         return -1;
 955              		.loc 1 242 0
 956 0006 FFF7FEFF 		bl	USBUART_GetConfiguration
 957              	.LVL138:
 958 000a 0028     		cmp	r0, #0
 959 000c 3ED0     		beq	.L80
 960              	.L76:
 242:TkShell.c     ****         return -1;
 961              		.loc 1 242 0 is_stmt 0 discriminator 1
 962 000e FFF7FEFF 		bl	USBUART_CDCIsReady
 963              	.LVL139:
 964 0012 0028     		cmp	r0, #0
 965 0014 FBD0     		beq	.L76
 242:TkShell.c     ****         return -1;
 966              		.loc 1 242 0 discriminator 2
 967 0016 214C     		ldr	r4, .L83
 968 0018 1E22     		movs	r2, #30
 969 001a 2149     		ldr	r1, .L83+4
 970 001c 2000     		movs	r0, r4
 971 001e FFF7FEFF 		bl	memcpy
 972              	.LVL140:
 973 0022 2000     		movs	r0, r4
 974 0024 FFF7FEFF 		bl	USBUART_PutString
 975              	.LVL141:
 243:TkShell.c     ****     }
 976              		.loc 1 243 0 is_stmt 1 discriminator 2
 977 0028 0120     		movs	r0, #1
 978 002a 4042     		rsbs	r0, r0, #0
 979 002c 35E0     		b	.L75
 980              	.LVL142:
 981              	.L74:
 246:TkShell.c     **** 
 982              		.loc 1 246 0
 983 002e 8868     		ldr	r0, [r1, #8]
 984              	.LVL143:
 985 0030 FFF7FEFF 		bl	atoi
 986              	.LVL144:
 248:TkShell.c     ****     {
 987              		.loc 1 248 0
ARM GAS  C:\Users\TERENC~1\AppData\Local\Temp\ccNQUuJb.s 			page 27


 988 0034 C0B2     		uxtb	r0, r0
 989              	.LVL145:
 990 0036 FFF7FEFF 		bl	Codec_AdjustBothHeadphoneVolume
 991              	.LVL146:
 992 003a 041E     		subs	r4, r0, #0
 993              	.LVL147:
 994 003c 12D1     		bne	.L77
 250:TkShell.c     ****     }
 995              		.loc 1 250 0
 996 003e FFF7FEFF 		bl	USBUART_GetConfiguration
 997              	.LVL148:
 998 0042 0028     		cmp	r0, #0
 999 0044 25D0     		beq	.L81
 1000              	.L78:
 250:TkShell.c     ****     }
 1001              		.loc 1 250 0 is_stmt 0 discriminator 1
 1002 0046 FFF7FEFF 		bl	USBUART_CDCIsReady
 1003              	.LVL149:
 1004 004a 0028     		cmp	r0, #0
 1005 004c FBD0     		beq	.L78
 250:TkShell.c     ****     }
 1006              		.loc 1 250 0 discriminator 2
 1007 004e 134C     		ldr	r4, .L83
 1008 0050 0922     		movs	r2, #9
 1009 0052 1449     		ldr	r1, .L83+8
 1010 0054 2000     		movs	r0, r4
 1011 0056 FFF7FEFF 		bl	memcpy
 1012              	.LVL150:
 1013 005a 2000     		movs	r0, r4
 1014 005c FFF7FEFF 		bl	USBUART_PutString
 1015              	.LVL151:
 258:TkShell.c     **** }
 1016              		.loc 1 258 0 is_stmt 1 discriminator 2
 1017 0060 0020     		movs	r0, #0
 1018 0062 1AE0     		b	.L75
 1019              	.LVL152:
 1020              	.L77:
 254:TkShell.c     ****         return -2;
 1021              		.loc 1 254 0
 1022 0064 FFF7FEFF 		bl	USBUART_GetConfiguration
 1023              	.LVL153:
 1024 0068 0028     		cmp	r0, #0
 1025 006a 14D0     		beq	.L82
 1026              	.L79:
 254:TkShell.c     ****         return -2;
 1027              		.loc 1 254 0 is_stmt 0 discriminator 1
 1028 006c FFF7FEFF 		bl	USBUART_CDCIsReady
 1029              	.LVL154:
 1030 0070 0028     		cmp	r0, #0
 1031 0072 FBD0     		beq	.L79
 254:TkShell.c     ****         return -2;
 1032              		.loc 1 254 0 discriminator 2
 1033 0074 094D     		ldr	r5, .L83
 1034 0076 2200     		movs	r2, r4
 1035 0078 0B49     		ldr	r1, .L83+12
 1036 007a 2800     		movs	r0, r5
 1037 007c FFF7FEFF 		bl	sprintf
ARM GAS  C:\Users\TERENC~1\AppData\Local\Temp\ccNQUuJb.s 			page 28


 1038              	.LVL155:
 1039 0080 2800     		movs	r0, r5
 1040 0082 FFF7FEFF 		bl	USBUART_PutString
 1041              	.LVL156:
 255:TkShell.c     ****     }
 1042              		.loc 1 255 0 is_stmt 1 discriminator 2
 1043 0086 0220     		movs	r0, #2
 1044 0088 4042     		rsbs	r0, r0, #0
 1045 008a 06E0     		b	.L75
 1046              	.LVL157:
 1047              	.L80:
 243:TkShell.c     ****     }
 1048              		.loc 1 243 0
 1049 008c 0120     		movs	r0, #1
 1050 008e 4042     		rsbs	r0, r0, #0
 1051 0090 03E0     		b	.L75
 1052              	.LVL158:
 1053              	.L81:
 258:TkShell.c     **** }
 1054              		.loc 1 258 0
 1055 0092 0020     		movs	r0, #0
 1056 0094 01E0     		b	.L75
 1057              	.L82:
 255:TkShell.c     ****     }
 1058              		.loc 1 255 0
 1059 0096 0220     		movs	r0, #2
 1060 0098 4042     		rsbs	r0, r0, #0
 1061              	.LVL159:
 1062              	.L75:
 259:TkShell.c     **** 
 1063              		.loc 1 259 0
 1064              		@ sp needed
 1065 009a 70BD     		pop	{r4, r5, r6, pc}
 1066              	.L84:
 1067              		.align	2
 1068              	.L83:
 1069 009c 00000000 		.word	gbuf
 1070 00a0 0C000000 		.word	.LC4
 1071 00a4 14010000 		.word	.LC51
 1072 00a8 20010000 		.word	.LC53
 1073              		.cfi_endproc
 1074              	.LFE6:
 1075              		.size	__tk_shell_wm_vol_set, .-__tk_shell_wm_vol_set
 1076              		.section	.text.__tk_shell_wm_vol_get,"ax",%progbits
 1077              		.align	2
 1078              		.global	__tk_shell_wm_vol_get
 1079              		.code	16
 1080              		.thumb_func
 1081              		.type	__tk_shell_wm_vol_get, %function
 1082              	__tk_shell_wm_vol_get:
 1083              	.LFB7:
 262:TkShell.c     ****     PRINTF("> wm:ok %d\n", (int)Codec_GetHeadphoneVolume());
 1084              		.loc 1 262 0
 1085              		.cfi_startproc
 1086              		@ args = 0, pretend = 0, frame = 0
 1087              		@ frame_needed = 0, uses_anonymous_args = 0
 1088              	.LVL160:
ARM GAS  C:\Users\TERENC~1\AppData\Local\Temp\ccNQUuJb.s 			page 29


 1089 0000 10B5     		push	{r4, lr}
 1090              		.cfi_def_cfa_offset 8
 1091              		.cfi_offset 4, -8
 1092              		.cfi_offset 14, -4
 263:TkShell.c     **** 
 1093              		.loc 1 263 0
 1094 0002 FFF7FEFF 		bl	USBUART_GetConfiguration
 1095              	.LVL161:
 1096 0006 0028     		cmp	r0, #0
 1097 0008 0ED0     		beq	.L86
 1098              	.L87:
 263:TkShell.c     **** 
 1099              		.loc 1 263 0 is_stmt 0 discriminator 1
 1100 000a FFF7FEFF 		bl	USBUART_CDCIsReady
 1101              	.LVL162:
 1102 000e 0028     		cmp	r0, #0
 1103 0010 FBD0     		beq	.L87
 263:TkShell.c     **** 
 1104              		.loc 1 263 0 discriminator 2
 1105 0012 FFF7FEFF 		bl	Codec_GetHeadphoneVolume
 1106              	.LVL163:
 1107 0016 0200     		movs	r2, r0
 1108 0018 044C     		ldr	r4, .L88
 1109 001a 0549     		ldr	r1, .L88+4
 1110 001c 2000     		movs	r0, r4
 1111 001e FFF7FEFF 		bl	sprintf
 1112              	.LVL164:
 1113 0022 2000     		movs	r0, r4
 1114 0024 FFF7FEFF 		bl	USBUART_PutString
 1115              	.LVL165:
 1116              	.L86:
 266:TkShell.c     **** 
 1117              		.loc 1 266 0 is_stmt 1
 1118 0028 0020     		movs	r0, #0
 1119              		@ sp needed
 1120 002a 10BD     		pop	{r4, pc}
 1121              	.L89:
 1122              		.align	2
 1123              	.L88:
 1124 002c 00000000 		.word	gbuf
 1125 0030 2C010000 		.word	.LC55
 1126              		.cfi_endproc
 1127              	.LFE7:
 1128              		.size	__tk_shell_wm_vol_get, .-__tk_shell_wm_vol_get
 1129              		.section	.text.__tk_shell_wm_reg_wr,"ax",%progbits
 1130              		.align	2
 1131              		.global	__tk_shell_wm_reg_wr
 1132              		.code	16
 1133              		.thumb_func
 1134              		.type	__tk_shell_wm_reg_wr, %function
 1135              	__tk_shell_wm_reg_wr:
 1136              	.LFB8:
 269:TkShell.c     ****     int i = 2;
 1137              		.loc 1 269 0
 1138              		.cfi_startproc
 1139              		@ args = 0, pretend = 0, frame = 0
 1140              		@ frame_needed = 0, uses_anonymous_args = 0
ARM GAS  C:\Users\TERENC~1\AppData\Local\Temp\ccNQUuJb.s 			page 30


 1141              	.LVL166:
 1142 0000 70B5     		push	{r4, r5, r6, lr}
 1143              		.cfi_def_cfa_offset 16
 1144              		.cfi_offset 4, -16
 1145              		.cfi_offset 5, -12
 1146              		.cfi_offset 6, -8
 1147              		.cfi_offset 14, -4
 1148 0002 0C00     		movs	r4, r1
 1149              	.LVL167:
 277:TkShell.c     ****     {
 1150              		.loc 1 277 0
 1151 0004 0428     		cmp	r0, #4
 1152 0006 13D0     		beq	.L91
 279:TkShell.c     ****         return -1;
 1153              		.loc 1 279 0
 1154 0008 FFF7FEFF 		bl	USBUART_GetConfiguration
 1155              	.LVL168:
 1156 000c 0028     		cmp	r0, #0
 1157 000e 45D0     		beq	.L97
 1158              	.L93:
 279:TkShell.c     ****         return -1;
 1159              		.loc 1 279 0 is_stmt 0 discriminator 1
 1160 0010 FFF7FEFF 		bl	USBUART_CDCIsReady
 1161              	.LVL169:
 1162 0014 0028     		cmp	r0, #0
 1163 0016 FBD0     		beq	.L93
 279:TkShell.c     ****         return -1;
 1164              		.loc 1 279 0 discriminator 2
 1165 0018 244C     		ldr	r4, .L100
 1166              	.LVL170:
 1167 001a 1E22     		movs	r2, #30
 1168 001c 2449     		ldr	r1, .L100+4
 1169 001e 2000     		movs	r0, r4
 1170 0020 FFF7FEFF 		bl	memcpy
 1171              	.LVL171:
 1172 0024 2000     		movs	r0, r4
 1173 0026 FFF7FEFF 		bl	USBUART_PutString
 1174              	.LVL172:
 280:TkShell.c     ****     }
 1175              		.loc 1 280 0 is_stmt 1 discriminator 2
 1176 002a 0120     		movs	r0, #1
 1177 002c 4042     		rsbs	r0, r0, #0
 1178 002e 3CE0     		b	.L92
 1179              	.LVL173:
 1180              	.L91:
 283:TkShell.c     ****     data = strtoul(argv[i++], NULL, 16);
 1181              		.loc 1 283 0
 1182 0030 8868     		ldr	r0, [r1, #8]
 1183              	.LVL174:
 1184 0032 FFF7FEFF 		bl	atoi
 1185              	.LVL175:
 1186 0036 C5B2     		uxtb	r5, r0
 1187              	.LVL176:
 284:TkShell.c     ****     
 1188              		.loc 1 284 0
 1189 0038 E068     		ldr	r0, [r4, #12]
 1190 003a 1022     		movs	r2, #16
ARM GAS  C:\Users\TERENC~1\AppData\Local\Temp\ccNQUuJb.s 			page 31


 1191 003c 0021     		movs	r1, #0
 1192 003e FFF7FEFF 		bl	strtoul
 1193              	.LVL177:
 1194 0042 81B2     		uxth	r1, r0
 1195              	.LVL178:
 286:TkShell.c     ****     {
 1196              		.loc 1 286 0
 1197 0044 2800     		movs	r0, r5
 1198 0046 FFF7FEFF 		bl	Codec_SendData
 1199              	.LVL179:
 1200 004a 041E     		subs	r4, r0, #0
 1201              	.LVL180:
 1202 004c 12D1     		bne	.L94
 288:TkShell.c     ****     }
 1203              		.loc 1 288 0
 1204 004e FFF7FEFF 		bl	USBUART_GetConfiguration
 1205              	.LVL181:
 1206 0052 0028     		cmp	r0, #0
 1207 0054 25D0     		beq	.L98
 1208              	.L95:
 288:TkShell.c     ****     }
 1209              		.loc 1 288 0 is_stmt 0 discriminator 1
 1210 0056 FFF7FEFF 		bl	USBUART_CDCIsReady
 1211              	.LVL182:
 1212 005a 0028     		cmp	r0, #0
 1213 005c FBD0     		beq	.L95
 288:TkShell.c     ****     }
 1214              		.loc 1 288 0 discriminator 2
 1215 005e 134C     		ldr	r4, .L100
 1216              	.LVL183:
 1217 0060 0922     		movs	r2, #9
 1218 0062 1449     		ldr	r1, .L100+8
 1219 0064 2000     		movs	r0, r4
 1220 0066 FFF7FEFF 		bl	memcpy
 1221              	.LVL184:
 1222 006a 2000     		movs	r0, r4
 1223 006c FFF7FEFF 		bl	USBUART_PutString
 1224              	.LVL185:
 296:TkShell.c     **** }
 1225              		.loc 1 296 0 is_stmt 1 discriminator 2
 1226 0070 0020     		movs	r0, #0
 1227 0072 1AE0     		b	.L92
 1228              	.LVL186:
 1229              	.L94:
 292:TkShell.c     ****         return -2;
 1230              		.loc 1 292 0
 1231 0074 FFF7FEFF 		bl	USBUART_GetConfiguration
 1232              	.LVL187:
 1233 0078 0028     		cmp	r0, #0
 1234 007a 14D0     		beq	.L99
 1235              	.L96:
 292:TkShell.c     ****         return -2;
 1236              		.loc 1 292 0 is_stmt 0 discriminator 1
 1237 007c FFF7FEFF 		bl	USBUART_CDCIsReady
 1238              	.LVL188:
 1239 0080 0028     		cmp	r0, #0
 1240 0082 FBD0     		beq	.L96
ARM GAS  C:\Users\TERENC~1\AppData\Local\Temp\ccNQUuJb.s 			page 32


 292:TkShell.c     ****         return -2;
 1241              		.loc 1 292 0 discriminator 2
 1242 0084 094D     		ldr	r5, .L100
 1243              	.LVL189:
 1244 0086 2200     		movs	r2, r4
 1245 0088 0B49     		ldr	r1, .L100+12
 1246 008a 2800     		movs	r0, r5
 1247 008c FFF7FEFF 		bl	sprintf
 1248              	.LVL190:
 1249 0090 2800     		movs	r0, r5
 1250 0092 FFF7FEFF 		bl	USBUART_PutString
 1251              	.LVL191:
 293:TkShell.c     ****     }
 1252              		.loc 1 293 0 is_stmt 1 discriminator 2
 1253 0096 0220     		movs	r0, #2
 1254 0098 4042     		rsbs	r0, r0, #0
 1255 009a 06E0     		b	.L92
 1256              	.LVL192:
 1257              	.L97:
 280:TkShell.c     ****     }
 1258              		.loc 1 280 0
 1259 009c 0120     		movs	r0, #1
 1260 009e 4042     		rsbs	r0, r0, #0
 1261 00a0 03E0     		b	.L92
 1262              	.LVL193:
 1263              	.L98:
 296:TkShell.c     **** }
 1264              		.loc 1 296 0
 1265 00a2 0020     		movs	r0, #0
 1266 00a4 01E0     		b	.L92
 1267              	.L99:
 293:TkShell.c     ****     }
 1268              		.loc 1 293 0
 1269 00a6 0220     		movs	r0, #2
 1270 00a8 4042     		rsbs	r0, r0, #0
 1271              	.LVL194:
 1272              	.L92:
 297:TkShell.c     **** 
 1273              		.loc 1 297 0
 1274              		@ sp needed
 1275 00aa 70BD     		pop	{r4, r5, r6, pc}
 1276              	.L101:
 1277              		.align	2
 1278              	.L100:
 1279 00ac 00000000 		.word	gbuf
 1280 00b0 0C000000 		.word	.LC4
 1281 00b4 14010000 		.word	.LC51
 1282 00b8 20010000 		.word	.LC53
 1283              		.cfi_endproc
 1284              	.LFE8:
 1285              		.size	__tk_shell_wm_reg_wr, .-__tk_shell_wm_reg_wr
 1286              		.section	.text.__tk_shell_wm_reg_rd,"ax",%progbits
 1287              		.align	2
 1288              		.global	__tk_shell_wm_reg_rd
 1289              		.code	16
 1290              		.thumb_func
 1291              		.type	__tk_shell_wm_reg_rd, %function
ARM GAS  C:\Users\TERENC~1\AppData\Local\Temp\ccNQUuJb.s 			page 33


 1292              	__tk_shell_wm_reg_rd:
 1293              	.LFB9:
 300:TkShell.c     ****     int i = 2;
 1294              		.loc 1 300 0
 1295              		.cfi_startproc
 1296              		@ args = 0, pretend = 0, frame = 0
 1297              		@ frame_needed = 0, uses_anonymous_args = 0
 1298              	.LVL195:
 1299 0000 10B5     		push	{r4, lr}
 1300              		.cfi_def_cfa_offset 8
 1301              		.cfi_offset 4, -8
 1302              		.cfi_offset 14, -4
 1303              	.LVL196:
 306:TkShell.c     ****     {
 1304              		.loc 1 306 0
 1305 0002 0328     		cmp	r0, #3
 1306 0004 13D0     		beq	.L103
 308:TkShell.c     ****         return -1;
 1307              		.loc 1 308 0
 1308 0006 FFF7FEFF 		bl	USBUART_GetConfiguration
 1309              	.LVL197:
 1310 000a 0028     		cmp	r0, #0
 1311 000c 29D0     		beq	.L107
 1312              	.L105:
 308:TkShell.c     ****         return -1;
 1313              		.loc 1 308 0 is_stmt 0 discriminator 1
 1314 000e FFF7FEFF 		bl	USBUART_CDCIsReady
 1315              	.LVL198:
 1316 0012 0028     		cmp	r0, #0
 1317 0014 FBD0     		beq	.L105
 308:TkShell.c     ****         return -1;
 1318              		.loc 1 308 0 discriminator 2
 1319 0016 154C     		ldr	r4, .L109
 1320 0018 1E22     		movs	r2, #30
 1321 001a 1549     		ldr	r1, .L109+4
 1322 001c 2000     		movs	r0, r4
 1323 001e FFF7FEFF 		bl	memcpy
 1324              	.LVL199:
 1325 0022 2000     		movs	r0, r4
 1326 0024 FFF7FEFF 		bl	USBUART_PutString
 1327              	.LVL200:
 309:TkShell.c     ****     }
 1328              		.loc 1 309 0 is_stmt 1 discriminator 2
 1329 0028 0120     		movs	r0, #1
 1330 002a 4042     		rsbs	r0, r0, #0
 1331 002c 1DE0     		b	.L104
 1332              	.LVL201:
 1333              	.L103:
 312:TkShell.c     ****     
 1334              		.loc 1 312 0
 1335 002e 8868     		ldr	r0, [r1, #8]
 1336              	.LVL202:
 1337 0030 FFF7FEFF 		bl	atoi
 1338              	.LVL203:
 1339 0034 C4B2     		uxtb	r4, r0
 1340              	.LVL204:
 314:TkShell.c     ****     
ARM GAS  C:\Users\TERENC~1\AppData\Local\Temp\ccNQUuJb.s 			page 34


 1341              		.loc 1 314 0
 1342 0036 FFF7FEFF 		bl	USBUART_GetConfiguration
 1343              	.LVL205:
 1344 003a 0028     		cmp	r0, #0
 1345 003c 14D0     		beq	.L108
 1346              	.L106:
 314:TkShell.c     ****     
 1347              		.loc 1 314 0 is_stmt 0 discriminator 1
 1348 003e FFF7FEFF 		bl	USBUART_CDCIsReady
 1349              	.LVL206:
 1350 0042 0028     		cmp	r0, #0
 1351 0044 FBD0     		beq	.L106
 314:TkShell.c     ****     
 1352              		.loc 1 314 0 discriminator 2
 1353 0046 2000     		movs	r0, r4
 1354 0048 FFF7FEFF 		bl	Codec_GetData
 1355              	.LVL207:
 1356 004c 0200     		movs	r2, r0
 1357 004e 074C     		ldr	r4, .L109
 1358              	.LVL208:
 1359 0050 0849     		ldr	r1, .L109+8
 1360 0052 2000     		movs	r0, r4
 1361 0054 FFF7FEFF 		bl	sprintf
 1362              	.LVL209:
 1363 0058 2000     		movs	r0, r4
 1364 005a FFF7FEFF 		bl	USBUART_PutString
 1365              	.LVL210:
 316:TkShell.c     **** }
 1366              		.loc 1 316 0 is_stmt 1 discriminator 2
 1367 005e 0020     		movs	r0, #0
 1368 0060 03E0     		b	.L104
 1369              	.LVL211:
 1370              	.L107:
 309:TkShell.c     ****     }
 1371              		.loc 1 309 0
 1372 0062 0120     		movs	r0, #1
 1373 0064 4042     		rsbs	r0, r0, #0
 1374 0066 00E0     		b	.L104
 1375              	.LVL212:
 1376              	.L108:
 316:TkShell.c     **** }
 1377              		.loc 1 316 0
 1378 0068 0020     		movs	r0, #0
 1379              	.LVL213:
 1380              	.L104:
 317:TkShell.c     **** 
 1381              		.loc 1 317 0
 1382              		@ sp needed
 1383 006a 10BD     		pop	{r4, pc}
 1384              	.L110:
 1385              		.align	2
 1386              	.L109:
 1387 006c 00000000 		.word	gbuf
 1388 0070 0C000000 		.word	.LC4
 1389 0074 38010000 		.word	.LC64
 1390              		.cfi_endproc
 1391              	.LFE9:
ARM GAS  C:\Users\TERENC~1\AppData\Local\Temp\ccNQUuJb.s 			page 35


 1392              		.size	__tk_shell_wm_reg_rd, .-__tk_shell_wm_reg_rd
 1393              		.section	.text.__tk_shell_sys_reset,"ax",%progbits
 1394              		.align	2
 1395              		.global	__tk_shell_sys_reset
 1396              		.code	16
 1397              		.thumb_func
 1398              		.type	__tk_shell_sys_reset, %function
 1399              	__tk_shell_sys_reset:
 1400              	.LFB13:
 365:TkShell.c     ****     CySoftwareReset();
 1401              		.loc 1 365 0
 1402              		.cfi_startproc
 1403              		@ args = 0, pretend = 0, frame = 0
 1404              		@ frame_needed = 0, uses_anonymous_args = 0
 1405              	.LVL214:
 1406 0000 10B5     		push	{r4, lr}
 1407              		.cfi_def_cfa_offset 8
 1408              		.cfi_offset 4, -8
 1409              		.cfi_offset 14, -4
 366:TkShell.c     ****     
 1410              		.loc 1 366 0
 1411 0002 FFF7FEFF 		bl	CySoftwareReset
 1412              	.LVL215:
 369:TkShell.c     **** 
 1413              		.loc 1 369 0
 1414 0006 0020     		movs	r0, #0
 1415              		@ sp needed
 1416 0008 10BD     		pop	{r4, pc}
 1417              		.cfi_endproc
 1418              	.LFE13:
 1419              		.size	__tk_shell_sys_reset, .-__tk_shell_sys_reset
 1420 000a C046     		.section	.text.__tk_shell_led_start,"ax",%progbits
 1421              		.align	2
 1422              		.global	__tk_shell_led_start
 1423              		.code	16
 1424              		.thumb_func
 1425              		.type	__tk_shell_led_start, %function
 1426              	__tk_shell_led_start:
 1427              	.LFB16:
 397:TkShell.c     ****     LedInit();
 1428              		.loc 1 397 0
 1429              		.cfi_startproc
 1430              		@ args = 0, pretend = 0, frame = 0
 1431              		@ frame_needed = 0, uses_anonymous_args = 0
 1432              	.LVL216:
 1433 0000 10B5     		push	{r4, lr}
 1434              		.cfi_def_cfa_offset 8
 1435              		.cfi_offset 4, -8
 1436              		.cfi_offset 14, -4
 398:TkShell.c     ****     
 1437              		.loc 1 398 0
 1438 0002 FFF7FEFF 		bl	LedInit
 1439              	.LVL217:
 400:TkShell.c     **** 
 1440              		.loc 1 400 0
 1441 0006 FFF7FEFF 		bl	USBUART_GetConfiguration
 1442              	.LVL218:
ARM GAS  C:\Users\TERENC~1\AppData\Local\Temp\ccNQUuJb.s 			page 36


 1443 000a 0028     		cmp	r0, #0
 1444 000c 0CD0     		beq	.L113
 1445              	.L114:
 400:TkShell.c     **** 
 1446              		.loc 1 400 0 is_stmt 0 discriminator 1
 1447 000e FFF7FEFF 		bl	USBUART_CDCIsReady
 1448              	.LVL219:
 1449 0012 0028     		cmp	r0, #0
 1450 0014 FBD0     		beq	.L114
 400:TkShell.c     **** 
 1451              		.loc 1 400 0 discriminator 2
 1452 0016 054C     		ldr	r4, .L115
 1453 0018 0A22     		movs	r2, #10
 1454 001a 0549     		ldr	r1, .L115+4
 1455 001c 2000     		movs	r0, r4
 1456 001e FFF7FEFF 		bl	memcpy
 1457              	.LVL220:
 1458 0022 2000     		movs	r0, r4
 1459 0024 FFF7FEFF 		bl	USBUART_PutString
 1460              	.LVL221:
 1461              	.L113:
 403:TkShell.c     **** 
 1462              		.loc 1 403 0 is_stmt 1
 1463 0028 0020     		movs	r0, #0
 1464              		@ sp needed
 1465 002a 10BD     		pop	{r4, pc}
 1466              	.L116:
 1467              		.align	2
 1468              	.L115:
 1469 002c 00000000 		.word	gbuf
 1470 0030 2C000000 		.word	.LC10
 1471              		.cfi_endproc
 1472              	.LFE16:
 1473              		.size	__tk_shell_led_start, .-__tk_shell_led_start
 1474              		.section	.text.__tk_shell_led_stop,"ax",%progbits
 1475              		.align	2
 1476              		.global	__tk_shell_led_stop
 1477              		.code	16
 1478              		.thumb_func
 1479              		.type	__tk_shell_led_stop, %function
 1480              	__tk_shell_led_stop:
 1481              	.LFB17:
 406:TkShell.c     ****     LedDeInit();
 1482              		.loc 1 406 0
 1483              		.cfi_startproc
 1484              		@ args = 0, pretend = 0, frame = 0
 1485              		@ frame_needed = 0, uses_anonymous_args = 0
 1486              	.LVL222:
 1487 0000 10B5     		push	{r4, lr}
 1488              		.cfi_def_cfa_offset 8
 1489              		.cfi_offset 4, -8
 1490              		.cfi_offset 14, -4
 407:TkShell.c     ****     
 1491              		.loc 1 407 0
 1492 0002 FFF7FEFF 		bl	LedDeInit
 1493              	.LVL223:
 409:TkShell.c     **** 
ARM GAS  C:\Users\TERENC~1\AppData\Local\Temp\ccNQUuJb.s 			page 37


 1494              		.loc 1 409 0
 1495 0006 FFF7FEFF 		bl	USBUART_GetConfiguration
 1496              	.LVL224:
 1497 000a 0028     		cmp	r0, #0
 1498 000c 0CD0     		beq	.L118
 1499              	.L119:
 409:TkShell.c     **** 
 1500              		.loc 1 409 0 is_stmt 0 discriminator 1
 1501 000e FFF7FEFF 		bl	USBUART_CDCIsReady
 1502              	.LVL225:
 1503 0012 0028     		cmp	r0, #0
 1504 0014 FBD0     		beq	.L119
 409:TkShell.c     **** 
 1505              		.loc 1 409 0 discriminator 2
 1506 0016 054C     		ldr	r4, .L120
 1507 0018 0A22     		movs	r2, #10
 1508 001a 0549     		ldr	r1, .L120+4
 1509 001c 2000     		movs	r0, r4
 1510 001e FFF7FEFF 		bl	memcpy
 1511              	.LVL226:
 1512 0022 2000     		movs	r0, r4
 1513 0024 FFF7FEFF 		bl	USBUART_PutString
 1514              	.LVL227:
 1515              	.L118:
 412:TkShell.c     **** 
 1516              		.loc 1 412 0 is_stmt 1
 1517 0028 0020     		movs	r0, #0
 1518              		@ sp needed
 1519 002a 10BD     		pop	{r4, pc}
 1520              	.L121:
 1521              		.align	2
 1522              	.L120:
 1523 002c 00000000 		.word	gbuf
 1524 0030 2C000000 		.word	.LC10
 1525              		.cfi_endproc
 1526              	.LFE17:
 1527              		.size	__tk_shell_led_stop, .-__tk_shell_led_stop
 1528              		.section	.text.__tk_shell_cal_save,"ax",%progbits
 1529              		.align	2
 1530              		.global	__tk_shell_cal_save
 1531              		.code	16
 1532              		.thumb_func
 1533              		.type	__tk_shell_cal_save, %function
 1534              	__tk_shell_cal_save:
 1535              	.LFB20:
 429:TkShell.c     **** 
 430:TkShell.c     **** TK_SHELL_METHOD(cal, set)
 431:TkShell.c     **** {
 432:TkShell.c     ****     int i = 2;
 433:TkShell.c     ****     
 434:TkShell.c     ****     argc -= i;
 435:TkShell.c     ****     
 436:TkShell.c     ****     if (argc == 0)
 437:TkShell.c     ****     {
 438:TkShell.c     ****         PRINTF("Invalid number of arguments!\n");
 439:TkShell.c     ****         return -1;
 440:TkShell.c     ****     }
ARM GAS  C:\Users\TERENC~1\AppData\Local\Temp\ccNQUuJb.s 			page 38


 441:TkShell.c     ****     
 442:TkShell.c     ****     if (strcicmp(argv[i], "led_max_brightness") == 0)
 443:TkShell.c     ****     {
 444:TkShell.c     ****         cal_data->led_max_brightness = atoi(argv[++i]);
 445:TkShell.c     ****     }
 446:TkShell.c     ****     else if (strcicmp(argv[i], "adc_min_l") == 0)
 447:TkShell.c     ****     {
 448:TkShell.c     ****         cal_data->adc_min[vol_ctrl_left] = atoi(argv[++i]);
 449:TkShell.c     ****     }
 450:TkShell.c     ****     else if (strcicmp(argv[i], "debug_mask") == 0)
 451:TkShell.c     ****     {
 452:TkShell.c     ****         cal_data->debug_mask = strtoul(argv[++i], NULL, 16);
 453:TkShell.c     ****     }
 454:TkShell.c     ****     return 0;
 455:TkShell.c     **** }
 456:TkShell.c     **** 
 457:TkShell.c     **** TK_SHELL_METHOD(cal, save)
 458:TkShell.c     **** {
 1536              		.loc 1 458 0
 1537              		.cfi_startproc
 1538              		@ args = 0, pretend = 0, frame = 0
 1539              		@ frame_needed = 0, uses_anonymous_args = 0
 1540              	.LVL228:
 1541 0000 10B5     		push	{r4, lr}
 1542              		.cfi_def_cfa_offset 8
 1543              		.cfi_offset 4, -8
 1544              		.cfi_offset 14, -4
 459:TkShell.c     ****     PRINTF("> cal:ok %d\n", CalibrationSave());
 1545              		.loc 1 459 0
 1546 0002 FFF7FEFF 		bl	USBUART_GetConfiguration
 1547              	.LVL229:
 1548 0006 0028     		cmp	r0, #0
 1549 0008 0ED0     		beq	.L123
 1550              	.L124:
 1551              		.loc 1 459 0 is_stmt 0 discriminator 1
 1552 000a FFF7FEFF 		bl	USBUART_CDCIsReady
 1553              	.LVL230:
 1554 000e 0028     		cmp	r0, #0
 1555 0010 FBD0     		beq	.L124
 1556              		.loc 1 459 0 discriminator 2
 1557 0012 FFF7FEFF 		bl	CalibrationSave
 1558              	.LVL231:
 1559 0016 0200     		movs	r2, r0
 1560 0018 044C     		ldr	r4, .L125
 1561 001a 0549     		ldr	r1, .L125+4
 1562 001c 2000     		movs	r0, r4
 1563 001e FFF7FEFF 		bl	sprintf
 1564              	.LVL232:
 1565 0022 2000     		movs	r0, r4
 1566 0024 FFF7FEFF 		bl	USBUART_PutString
 1567              	.LVL233:
 1568              	.L123:
 460:TkShell.c     ****     return 0;
 461:TkShell.c     **** }
 1569              		.loc 1 461 0 is_stmt 1
 1570 0028 0020     		movs	r0, #0
 1571              		@ sp needed
ARM GAS  C:\Users\TERENC~1\AppData\Local\Temp\ccNQUuJb.s 			page 39


 1572 002a 10BD     		pop	{r4, pc}
 1573              	.L126:
 1574              		.align	2
 1575              	.L125:
 1576 002c 00000000 		.word	gbuf
 1577 0030 48010000 		.word	.LC70
 1578              		.cfi_endproc
 1579              	.LFE20:
 1580              		.size	__tk_shell_cal_save, .-__tk_shell_cal_save
 1581              		.section	.text.strcicmp,"ax",%progbits
 1582              		.align	2
 1583              		.global	strcicmp
 1584              		.code	16
 1585              		.thumb_func
 1586              		.type	strcicmp, %function
 1587              	strcicmp:
 1588              	.LFB2:
 148:TkShell.c     ****     for (;; a++, b++)
 1589              		.loc 1 148 0
 1590              		.cfi_startproc
 1591              		@ args = 0, pretend = 0, frame = 0
 1592              		@ frame_needed = 0, uses_anonymous_args = 0
 1593              	.LVL234:
 1594 0000 70B5     		push	{r4, r5, r6, lr}
 1595              		.cfi_def_cfa_offset 16
 1596              		.cfi_offset 4, -16
 1597              		.cfi_offset 5, -12
 1598              		.cfi_offset 6, -8
 1599              		.cfi_offset 14, -4
 1600              	.L134:
 1601              	.LBB2:
 1602              	.LBB3:
 151:TkShell.c     ****         if (d != 0 || !*a)
 1603              		.loc 1 151 0
 1604 0002 0578     		ldrb	r5, [r0]
 1605              	.LVL235:
 1606 0004 0E4B     		ldr	r3, .L136
 1607 0006 1A68     		ldr	r2, [r3]
 1608 0008 5319     		adds	r3, r2, r5
 1609 000a 5B78     		ldrb	r3, [r3, #1]
 1610 000c 0324     		movs	r4, #3
 1611 000e 2340     		ands	r3, r4
 1612 0010 012B     		cmp	r3, #1
 1613 0012 02D1     		bne	.L128
 151:TkShell.c     ****         if (d != 0 || !*a)
 1614              		.loc 1 151 0 is_stmt 0 discriminator 1
 1615 0014 2C00     		movs	r4, r5
 1616 0016 2034     		adds	r4, r4, #32
 1617 0018 00E0     		b	.L129
 1618              	.L128:
 151:TkShell.c     ****         if (d != 0 || !*a)
 1619              		.loc 1 151 0 discriminator 2
 1620 001a 2C00     		movs	r4, r5
 1621              	.L129:
 1622              	.LBE3:
 1623              	.LBB4:
 151:TkShell.c     ****         if (d != 0 || !*a)
ARM GAS  C:\Users\TERENC~1\AppData\Local\Temp\ccNQUuJb.s 			page 40


 1624              		.loc 1 151 0 discriminator 4
 1625 001c 0B78     		ldrb	r3, [r1]
 1626              	.LVL236:
 1627 001e D218     		adds	r2, r2, r3
 1628 0020 5278     		ldrb	r2, [r2, #1]
 1629 0022 0326     		movs	r6, #3
 1630 0024 3240     		ands	r2, r6
 1631 0026 012A     		cmp	r2, #1
 1632 0028 00D1     		bne	.L131
 151:TkShell.c     ****         if (d != 0 || !*a)
 1633              		.loc 1 151 0 discriminator 5
 1634 002a 2033     		adds	r3, r3, #32
 1635              	.LVL237:
 1636              	.L131:
 1637              	.LBE4:
 151:TkShell.c     ****         if (d != 0 || !*a)
 1638              		.loc 1 151 0 discriminator 8
 1639 002c E31A     		subs	r3, r4, r3
 1640              	.LVL238:
 152:TkShell.c     ****             return d;
 1641              		.loc 1 152 0 is_stmt 1 discriminator 8
 1642 002e 04D1     		bne	.L135
 152:TkShell.c     ****             return d;
 1643              		.loc 1 152 0 is_stmt 0 discriminator 1
 1644 0030 002D     		cmp	r5, #0
 1645 0032 02D0     		beq	.L135
 1646              	.LBE2:
 149:TkShell.c     ****     {
 1647              		.loc 1 149 0 is_stmt 1
 1648 0034 0130     		adds	r0, r0, #1
 1649              	.LVL239:
 1650 0036 0131     		adds	r1, r1, #1
 1651              	.LVL240:
 154:TkShell.c     **** }
 1652              		.loc 1 154 0
 1653 0038 E3E7     		b	.L134
 1654              	.LVL241:
 1655              	.L135:
 155:TkShell.c     **** 
 1656              		.loc 1 155 0
 1657 003a 1800     		movs	r0, r3
 1658              	.LVL242:
 1659              		@ sp needed
 1660              	.LVL243:
 1661 003c 70BD     		pop	{r4, r5, r6, pc}
 1662              	.L137:
 1663 003e C046     		.align	2
 1664              	.L136:
 1665 0040 00000000 		.word	__ctype_ptr__
 1666              		.cfi_endproc
 1667              	.LFE2:
 1668              		.size	strcicmp, .-strcicmp
 1669              		.section	.text.__tk_shell_pcm_reg,"ax",%progbits
 1670              		.align	2
 1671              		.global	__tk_shell_pcm_reg
 1672              		.code	16
 1673              		.thumb_func
ARM GAS  C:\Users\TERENC~1\AppData\Local\Temp\ccNQUuJb.s 			page 41


 1674              		.type	__tk_shell_pcm_reg, %function
 1675              	__tk_shell_pcm_reg:
 1676              	.LFB10:
 320:TkShell.c     ****     int i = 2;
 1677              		.loc 1 320 0
 1678              		.cfi_startproc
 1679              		@ args = 0, pretend = 0, frame = 0
 1680              		@ frame_needed = 0, uses_anonymous_args = 0
 1681              	.LVL244:
 1682 0000 70B5     		push	{r4, r5, r6, lr}
 1683              		.cfi_def_cfa_offset 16
 1684              		.cfi_offset 4, -16
 1685              		.cfi_offset 5, -12
 1686              		.cfi_offset 6, -8
 1687              		.cfi_offset 14, -4
 1688 0002 0C00     		movs	r4, r1
 1689              	.LVL245:
 327:TkShell.c     ****     {
 1690              		.loc 1 327 0
 1691 0004 0528     		cmp	r0, #5
 1692 0006 13D0     		beq	.L139
 329:TkShell.c     ****         return -1;
 1693              		.loc 1 329 0
 1694 0008 FFF7FEFF 		bl	USBUART_GetConfiguration
 1695              	.LVL246:
 1696 000c 0028     		cmp	r0, #0
 1697 000e 39D0     		beq	.L144
 1698              	.L141:
 329:TkShell.c     ****         return -1;
 1699              		.loc 1 329 0 is_stmt 0 discriminator 1
 1700 0010 FFF7FEFF 		bl	USBUART_CDCIsReady
 1701              	.LVL247:
 1702 0014 0028     		cmp	r0, #0
 1703 0016 FBD0     		beq	.L141
 329:TkShell.c     ****         return -1;
 1704              		.loc 1 329 0 discriminator 2
 1705 0018 1D4C     		ldr	r4, .L146
 1706              	.LVL248:
 1707 001a 1E22     		movs	r2, #30
 1708 001c 1D49     		ldr	r1, .L146+4
 1709 001e 2000     		movs	r0, r4
 1710 0020 FFF7FEFF 		bl	memcpy
 1711              	.LVL249:
 1712 0024 2000     		movs	r0, r4
 1713 0026 FFF7FEFF 		bl	USBUART_PutString
 1714              	.LVL250:
 330:TkShell.c     ****     }
 1715              		.loc 1 330 0 is_stmt 1 discriminator 2
 1716 002a 0120     		movs	r0, #1
 1717 002c 4042     		rsbs	r0, r0, #0
 1718 002e 2DE0     		b	.L140
 1719              	.LVL251:
 1720              	.L139:
 333:TkShell.c     ****     data = strtoul(argv[i + 2], NULL, 16);
 1721              		.loc 1 333 0
 1722 0030 C868     		ldr	r0, [r1, #12]
 1723              	.LVL252:
ARM GAS  C:\Users\TERENC~1\AppData\Local\Temp\ccNQUuJb.s 			page 42


 1724 0032 FFF7FEFF 		bl	atoi
 1725              	.LVL253:
 1726 0036 C5B2     		uxtb	r5, r0
 1727              	.LVL254:
 334:TkShell.c     **** 
 1728              		.loc 1 334 0
 1729 0038 1022     		movs	r2, #16
 1730 003a 0021     		movs	r1, #0
 1731 003c 2069     		ldr	r0, [r4, #16]
 1732 003e FFF7FEFF 		bl	strtoul
 1733              	.LVL255:
 1734 0042 C6B2     		uxtb	r6, r0
 1735              	.LVL256:
 336:TkShell.c     ****     {
 1736              		.loc 1 336 0
 1737 0044 A068     		ldr	r0, [r4, #8]
 1738 0046 1449     		ldr	r1, .L146+8
 1739 0048 FFF7FEFF 		bl	strcicmp
 1740              	.LVL257:
 1741 004c 0028     		cmp	r0, #0
 1742 004e 03D1     		bne	.L142
 338:TkShell.c     ****     }
 1743              		.loc 1 338 0
 1744 0050 3100     		movs	r1, r6
 1745 0052 2800     		movs	r0, r5
 1746 0054 FFF7FEFF 		bl	pcm1770_reg_write
 1747              	.LVL258:
 1748              	.L142:
 341:TkShell.c     ****     
 1749              		.loc 1 341 0
 1750 0058 FFF7FEFF 		bl	USBUART_GetConfiguration
 1751              	.LVL259:
 1752 005c 0028     		cmp	r0, #0
 1753 005e 14D0     		beq	.L145
 1754              	.L143:
 341:TkShell.c     ****     
 1755              		.loc 1 341 0 is_stmt 0 discriminator 1
 1756 0060 FFF7FEFF 		bl	USBUART_CDCIsReady
 1757              	.LVL260:
 1758 0064 0028     		cmp	r0, #0
 1759 0066 FBD0     		beq	.L143
 341:TkShell.c     ****     
 1760              		.loc 1 341 0 discriminator 2
 1761 0068 2800     		movs	r0, r5
 1762 006a FFF7FEFF 		bl	pcm1770_reg_read
 1763              	.LVL261:
 1764 006e 0200     		movs	r2, r0
 1765 0070 074C     		ldr	r4, .L146
 1766              	.LVL262:
 1767 0072 0A49     		ldr	r1, .L146+12
 1768 0074 2000     		movs	r0, r4
 1769 0076 FFF7FEFF 		bl	sprintf
 1770              	.LVL263:
 1771 007a 2000     		movs	r0, r4
 1772 007c FFF7FEFF 		bl	USBUART_PutString
 1773              	.LVL264:
 343:TkShell.c     **** }
ARM GAS  C:\Users\TERENC~1\AppData\Local\Temp\ccNQUuJb.s 			page 43


 1774              		.loc 1 343 0 is_stmt 1 discriminator 2
 1775 0080 0020     		movs	r0, #0
 1776 0082 03E0     		b	.L140
 1777              	.LVL265:
 1778              	.L144:
 330:TkShell.c     ****     }
 1779              		.loc 1 330 0
 1780 0084 0120     		movs	r0, #1
 1781 0086 4042     		rsbs	r0, r0, #0
 1782 0088 00E0     		b	.L140
 1783              	.LVL266:
 1784              	.L145:
 343:TkShell.c     **** }
 1785              		.loc 1 343 0
 1786 008a 0020     		movs	r0, #0
 1787              	.LVL267:
 1788              	.L140:
 344:TkShell.c     **** 
 1789              		.loc 1 344 0
 1790              		@ sp needed
 1791 008c 70BD     		pop	{r4, r5, r6, pc}
 1792              	.L147:
 1793 008e C046     		.align	2
 1794              	.L146:
 1795 0090 00000000 		.word	gbuf
 1796 0094 0C000000 		.word	.LC4
 1797 0098 58010000 		.word	.LC76
 1798 009c 5C010000 		.word	.LC78
 1799              		.cfi_endproc
 1800              	.LFE10:
 1801              		.size	__tk_shell_pcm_reg, .-__tk_shell_pcm_reg
 1802              		.section	.text.__tk_shell_cal_set,"ax",%progbits
 1803              		.align	2
 1804              		.global	__tk_shell_cal_set
 1805              		.code	16
 1806              		.thumb_func
 1807              		.type	__tk_shell_cal_set, %function
 1808              	__tk_shell_cal_set:
 1809              	.LFB19:
 431:TkShell.c     ****     int i = 2;
 1810              		.loc 1 431 0
 1811              		.cfi_startproc
 1812              		@ args = 0, pretend = 0, frame = 0
 1813              		@ frame_needed = 0, uses_anonymous_args = 0
 1814              	.LVL268:
 1815 0000 70B5     		push	{r4, r5, r6, lr}
 1816              		.cfi_def_cfa_offset 16
 1817              		.cfi_offset 4, -16
 1818              		.cfi_offset 5, -12
 1819              		.cfi_offset 6, -8
 1820              		.cfi_offset 14, -4
 1821 0002 0D00     		movs	r5, r1
 1822              	.LVL269:
 436:TkShell.c     ****     {
 1823              		.loc 1 436 0
 1824 0004 0228     		cmp	r0, #2
 1825 0006 13D1     		bne	.L149
ARM GAS  C:\Users\TERENC~1\AppData\Local\Temp\ccNQUuJb.s 			page 44


 438:TkShell.c     ****         return -1;
 1826              		.loc 1 438 0
 1827 0008 FFF7FEFF 		bl	USBUART_GetConfiguration
 1828              	.LVL270:
 1829 000c 0028     		cmp	r0, #0
 1830 000e 39D0     		beq	.L154
 1831              	.L151:
 438:TkShell.c     ****         return -1;
 1832              		.loc 1 438 0 is_stmt 0 discriminator 1
 1833 0010 FFF7FEFF 		bl	USBUART_CDCIsReady
 1834              	.LVL271:
 1835 0014 0028     		cmp	r0, #0
 1836 0016 FBD0     		beq	.L151
 438:TkShell.c     ****         return -1;
 1837              		.loc 1 438 0 discriminator 2
 1838 0018 1D4C     		ldr	r4, .L156
 1839 001a 1E22     		movs	r2, #30
 1840 001c 1D49     		ldr	r1, .L156+4
 1841 001e 2000     		movs	r0, r4
 1842 0020 FFF7FEFF 		bl	memcpy
 1843              	.LVL272:
 1844 0024 2000     		movs	r0, r4
 1845 0026 FFF7FEFF 		bl	USBUART_PutString
 1846              	.LVL273:
 439:TkShell.c     ****     }
 1847              		.loc 1 439 0 is_stmt 1 discriminator 2
 1848 002a 0124     		movs	r4, #1
 1849 002c 6442     		rsbs	r4, r4, #0
 1850 002e 2DE0     		b	.L150
 1851              	.LVL274:
 1852              	.L149:
 442:TkShell.c     ****     {
 1853              		.loc 1 442 0
 1854 0030 8E68     		ldr	r6, [r1, #8]
 1855 0032 1949     		ldr	r1, .L156+8
 1856              	.LVL275:
 1857 0034 3000     		movs	r0, r6
 1858              	.LVL276:
 1859 0036 FFF7FEFF 		bl	strcicmp
 1860              	.LVL277:
 1861 003a 041E     		subs	r4, r0, #0
 1862 003c 06D1     		bne	.L152
 444:TkShell.c     ****     }
 1863              		.loc 1 444 0
 1864 003e 174B     		ldr	r3, .L156+12
 1865 0040 1E68     		ldr	r6, [r3]
 1866              	.LVL278:
 1867 0042 E868     		ldr	r0, [r5, #12]
 1868 0044 FFF7FEFF 		bl	atoi
 1869              	.LVL279:
 1870 0048 3074     		strb	r0, [r6, #16]
 1871 004a 1FE0     		b	.L150
 1872              	.LVL280:
 1873              	.L152:
 446:TkShell.c     ****     {
 1874              		.loc 1 446 0
 1875 004c 1449     		ldr	r1, .L156+16
ARM GAS  C:\Users\TERENC~1\AppData\Local\Temp\ccNQUuJb.s 			page 45


 1876 004e 3000     		movs	r0, r6
 1877 0050 FFF7FEFF 		bl	strcicmp
 1878              	.LVL281:
 1879 0054 041E     		subs	r4, r0, #0
 1880 0056 06D1     		bne	.L153
 448:TkShell.c     ****     }
 1881              		.loc 1 448 0
 1882 0058 104B     		ldr	r3, .L156+12
 1883 005a 1E68     		ldr	r6, [r3]
 1884              	.LVL282:
 1885 005c E868     		ldr	r0, [r5, #12]
 1886 005e FFF7FEFF 		bl	atoi
 1887              	.LVL283:
 1888 0062 7081     		strh	r0, [r6, #10]
 1889 0064 12E0     		b	.L150
 1890              	.LVL284:
 1891              	.L153:
 450:TkShell.c     ****     {
 1892              		.loc 1 450 0
 1893 0066 0F49     		ldr	r1, .L156+20
 1894 0068 3000     		movs	r0, r6
 1895 006a FFF7FEFF 		bl	strcicmp
 1896              	.LVL285:
 1897 006e 041E     		subs	r4, r0, #0
 1898 0070 0BD1     		bne	.L155
 452:TkShell.c     ****     }
 1899              		.loc 1 452 0
 1900 0072 0A4B     		ldr	r3, .L156+12
 1901 0074 1E68     		ldr	r6, [r3]
 1902              	.LVL286:
 1903 0076 E868     		ldr	r0, [r5, #12]
 1904 0078 1022     		movs	r2, #16
 1905 007a 0021     		movs	r1, #0
 1906 007c FFF7FEFF 		bl	strtoul
 1907              	.LVL287:
 1908 0080 7074     		strb	r0, [r6, #17]
 1909 0082 03E0     		b	.L150
 1910              	.LVL288:
 1911              	.L154:
 439:TkShell.c     ****     }
 1912              		.loc 1 439 0
 1913 0084 0124     		movs	r4, #1
 1914 0086 6442     		rsbs	r4, r4, #0
 1915 0088 00E0     		b	.L150
 1916              	.L155:
 454:TkShell.c     **** }
 1917              		.loc 1 454 0
 1918 008a 0024     		movs	r4, #0
 1919              	.LVL289:
 1920              	.L150:
 455:TkShell.c     **** 
 1921              		.loc 1 455 0
 1922 008c 2000     		movs	r0, r4
 1923              		@ sp needed
 1924              	.LVL290:
 1925 008e 70BD     		pop	{r4, r5, r6, pc}
 1926              	.L157:
ARM GAS  C:\Users\TERENC~1\AppData\Local\Temp\ccNQUuJb.s 			page 46


 1927              		.align	2
 1928              	.L156:
 1929 0090 00000000 		.word	gbuf
 1930 0094 0C000000 		.word	.LC4
 1931 0098 70010000 		.word	.LC82
 1932 009c 00000000 		.word	cal_data
 1933 00a0 84010000 		.word	.LC85
 1934 00a4 90010000 		.word	.LC87
 1935              		.cfi_endproc
 1936              	.LFE19:
 1937              		.size	__tk_shell_cal_set, .-__tk_shell_cal_set
 1938              		.section	.text.TkShellProcessCommand,"ax",%progbits
 1939              		.align	2
 1940              		.code	16
 1941              		.thumb_func
 1942              		.type	TkShellProcessCommand, %function
 1943              	TkShellProcessCommand:
 1944              	.LFB21:
 462:TkShell.c     **** 
 463:TkShell.c     **** static int TkShellProcessCommand(void)
 464:TkShell.c     **** {
 1945              		.loc 1 464 0
 1946              		.cfi_startproc
 1947              		@ args = 0, pretend = 0, frame = 48
 1948              		@ frame_needed = 0, uses_anonymous_args = 0
 1949 0000 F0B5     		push	{r4, r5, r6, r7, lr}
 1950              		.cfi_def_cfa_offset 20
 1951              		.cfi_offset 4, -20
 1952              		.cfi_offset 5, -16
 1953              		.cfi_offset 6, -12
 1954              		.cfi_offset 7, -8
 1955              		.cfi_offset 14, -4
 1956 0002 5F46     		mov	r7, fp
 1957 0004 5646     		mov	r6, r10
 1958 0006 4D46     		mov	r5, r9
 1959 0008 4446     		mov	r4, r8
 1960 000a F0B4     		push	{r4, r5, r6, r7}
 1961              		.cfi_def_cfa_offset 36
 1962              		.cfi_offset 8, -36
 1963              		.cfi_offset 9, -32
 1964              		.cfi_offset 10, -28
 1965              		.cfi_offset 11, -24
 1966 000c 8FB0     		sub	sp, sp, #60
 1967              		.cfi_def_cfa_offset 96
 1968              	.LVL291:
 465:TkShell.c     ****     int retval = -1;
 466:TkShell.c     ****     char *buf = cmd_buf;
 467:TkShell.c     ****     bool found = false;
 468:TkShell.c     ****     char *argv[TK_SHELL_MAX_ARGS];
 469:TkShell.c     ****     int argc = 0;
 1969              		.loc 1 469 0
 1970 000e 0023     		movs	r3, #0
 1971 0010 9946     		mov	r9, r3
 466:TkShell.c     ****     bool found = false;
 1972              		.loc 1 466 0
 1973 0012 8E4A     		ldr	r2, .L197
 1974 0014 02E0     		b	.L159
ARM GAS  C:\Users\TERENC~1\AppData\Local\Temp\ccNQUuJb.s 			page 47


 1975              	.LVL292:
 1976              	.L161:
 470:TkShell.c     ****     int i = 0, j = 0, k = 0;
 471:TkShell.c     ****     
 472:TkShell.c     ****     while (1)
 473:TkShell.c     ****     {
 474:TkShell.c     ****         // skip over whitespace
 475:TkShell.c     ****         while (*buf && isspace(*buf))
 476:TkShell.c     ****         {
 477:TkShell.c     ****           *buf = '\0';
 1977              		.loc 1 477 0
 1978 0016 0023     		movs	r3, #0
 1979 0018 1370     		strb	r3, [r2]
 478:TkShell.c     ****           ++buf;
 1980              		.loc 1 478 0
 1981 001a 0132     		adds	r2, r2, #1
 1982              	.LVL293:
 1983              	.L159:
 475:TkShell.c     ****         {
 1984              		.loc 1 475 0
 1985 001c 1378     		ldrb	r3, [r2]
 1986 001e 002B     		cmp	r3, #0
 1987 0020 05D0     		beq	.L160
 475:TkShell.c     ****         {
 1988              		.loc 1 475 0 is_stmt 0 discriminator 1
 1989 0022 8B49     		ldr	r1, .L197+4
 1990 0024 0968     		ldr	r1, [r1]
 1991 0026 C918     		adds	r1, r1, r3
 1992 0028 4978     		ldrb	r1, [r1, #1]
 1993 002a 0907     		lsls	r1, r1, #28
 1994 002c F3D4     		bmi	.L161
 1995              	.L160:
 479:TkShell.c     ****         }
 480:TkShell.c     **** 
 481:TkShell.c     ****         if (*buf == '\0')
 1996              		.loc 1 481 0 is_stmt 1
 1997 002e 002B     		cmp	r3, #0
 1998 0030 29D0     		beq	.L162
 482:TkShell.c     ****         {
 483:TkShell.c     ****           break;
 484:TkShell.c     ****         }
 485:TkShell.c     ****         
 486:TkShell.c     ****         argv[argc] = buf;
 1999              		.loc 1 486 0
 2000 0032 4B46     		mov	r3, r9
 2001 0034 9B00     		lsls	r3, r3, #2
 2002 0036 04A9     		add	r1, sp, #16
 2003 0038 5A50     		str	r2, [r3, r1]
 487:TkShell.c     ****         
 488:TkShell.c     ****         // skip over the rest of arg until whitespace again
 489:TkShell.c     ****         while (*buf && !isspace(*buf))
 2004              		.loc 1 489 0
 2005 003a 00E0     		b	.L163
 2006              	.L165:
 490:TkShell.c     ****         {
 491:TkShell.c     ****             buf++;
 2007              		.loc 1 491 0
ARM GAS  C:\Users\TERENC~1\AppData\Local\Temp\ccNQUuJb.s 			page 48


 2008 003c 0132     		adds	r2, r2, #1
 2009              	.LVL294:
 2010              	.L163:
 489:TkShell.c     ****         {
 2011              		.loc 1 489 0
 2012 003e 1378     		ldrb	r3, [r2]
 2013 0040 002B     		cmp	r3, #0
 2014 0042 05D0     		beq	.L164
 489:TkShell.c     ****         {
 2015              		.loc 1 489 0 is_stmt 0 discriminator 1
 2016 0044 8249     		ldr	r1, .L197+4
 2017 0046 0968     		ldr	r1, [r1]
 2018 0048 CB18     		adds	r3, r1, r3
 2019 004a 5B78     		ldrb	r3, [r3, #1]
 2020 004c 1B07     		lsls	r3, r3, #28
 2021 004e F5D5     		bpl	.L165
 2022              	.L164:
 492:TkShell.c     ****         }
 493:TkShell.c     ****         ++argc;
 2023              		.loc 1 493 0 is_stmt 1
 2024 0050 0123     		movs	r3, #1
 2025 0052 9C46     		mov	ip, r3
 2026 0054 E144     		add	r9, r9, ip
 2027              	.LVL295:
 494:TkShell.c     ****         
 495:TkShell.c     ****         if (argc > TK_SHELL_MAX_ARGS)
 2028              		.loc 1 495 0
 2029 0056 4B46     		mov	r3, r9
 2030 0058 0A2B     		cmp	r3, #10
 2031 005a DFDD     		ble	.L159
 496:TkShell.c     ****         {
 497:TkShell.c     ****             PRINTF("Too many arguments!\n");
 2032              		.loc 1 497 0
 2033 005c FFF7FEFF 		bl	USBUART_GetConfiguration
 2034              	.LVL296:
 2035 0060 0028     		cmp	r0, #0
 2036 0062 00D1     		bne	.LCB2045
 2037 0064 E4E0     		b	.L192	@long jump
 2038              	.LCB2045:
 2039              	.L168:
 2040              		.loc 1 497 0 is_stmt 0 discriminator 1
 2041 0066 FFF7FEFF 		bl	USBUART_CDCIsReady
 2042              	.LVL297:
 2043 006a 0028     		cmp	r0, #0
 2044 006c FBD0     		beq	.L168
 2045              		.loc 1 497 0 discriminator 2
 2046 006e 794C     		ldr	r4, .L197+8
 2047 0070 1522     		movs	r2, #21
 2048 0072 7949     		ldr	r1, .L197+12
 2049 0074 2000     		movs	r0, r4
 2050 0076 FFF7FEFF 		bl	memcpy
 2051              	.LVL298:
 2052 007a 2000     		movs	r0, r4
 2053 007c FFF7FEFF 		bl	USBUART_PutString
 2054              	.LVL299:
 498:TkShell.c     ****             return -2;
 2055              		.loc 1 498 0 is_stmt 1 discriminator 2
ARM GAS  C:\Users\TERENC~1\AppData\Local\Temp\ccNQUuJb.s 			page 49


 2056 0080 0220     		movs	r0, #2
 2057 0082 4042     		rsbs	r0, r0, #0
 2058 0084 DAE0     		b	.L167
 2059              	.LVL300:
 2060              	.L162:
 499:TkShell.c     ****         }
 500:TkShell.c     ****     }
 501:TkShell.c     ****     
 502:TkShell.c     ****     if (argc > 0)
 2061              		.loc 1 502 0
 2062 0086 4B46     		mov	r3, r9
 2063 0088 002B     		cmp	r3, #0
 2064 008a 00DD     		ble	.LCB2071
 2065 008c A8E0     		b	.L193	@long jump
 2066              	.LCB2071:
 2067              	.LVL301:
 467:TkShell.c     ****     char *argv[TK_SHELL_MAX_ARGS];
 2068              		.loc 1 467 0
 2069 008e 0023     		movs	r3, #0
 2070              	.LVL302:
 2071 0090 9A46     		mov	r10, r3
 465:TkShell.c     ****     char *buf = cmd_buf;
 2072              		.loc 1 465 0
 2073 0092 013B     		subs	r3, r3, #1
 2074 0094 0393     		str	r3, [sp, #12]
 2075 0096 B5E0     		b	.L170
 2076              	.LVL303:
 2077              	.L190:
 503:TkShell.c     ****     {
 504:TkShell.c     ****         i = j = k = 0;
 505:TkShell.c     ****         while (strcmp(commands[i].name, "") != 0)
 506:TkShell.c     ****         {
 507:TkShell.c     ****             if (strcicmp(argv[0], commands[i].name) == 0)
 2078              		.loc 1 507 0
 2079 0098 049D     		ldr	r5, [sp, #16]
 2080 009a 0299     		ldr	r1, [sp, #8]
 2081 009c 2800     		movs	r0, r5
 2082 009e FFF7FEFF 		bl	strcicmp
 2083              	.LVL304:
 2084 00a2 0028     		cmp	r0, #0
 2085 00a4 4AD0     		beq	.L171
 2086 00a6 5DE0     		b	.L196
 2087              	.L182:
 508:TkShell.c     ****             {
 509:TkShell.c     ****                 while (strcmp(commands[i].verbs[j].name, "") != 0)
 510:TkShell.c     ****                 {
 511:TkShell.c     ****                     if (strcicmp(argv[1], commands[i].verbs[j].name) == 0)
 2088              		.loc 1 511 0
 2089 00a8 059D     		ldr	r5, [sp, #20]
 2090 00aa 2800     		movs	r0, r5
 2091 00ac FFF7FEFF 		bl	strcicmp
 2092              	.LVL305:
 2093 00b0 0028     		cmp	r0, #0
 2094 00b2 08D1     		bne	.L173
 512:TkShell.c     ****                     {
 513:TkShell.c     ****                         retval = commands[i].verbs[j].func(argc, argv);
 2095              		.loc 1 513 0
ARM GAS  C:\Users\TERENC~1\AppData\Local\Temp\ccNQUuJb.s 			page 50


 2096 00b4 5B46     		mov	r3, fp
 2097 00b6 5B68     		ldr	r3, [r3, #4]
 2098 00b8 04A9     		add	r1, sp, #16
 2099 00ba 4846     		mov	r0, r9
 2100 00bc 9847     		blx	r3
 2101              	.LVL306:
 2102 00be 0390     		str	r0, [sp, #12]
 2103              	.LVL307:
 514:TkShell.c     ****                         found = true;
 2104              		.loc 1 514 0
 2105 00c0 0123     		movs	r3, #1
 2106 00c2 9A46     		mov	r10, r3
 515:TkShell.c     ****                         break;
 2107              		.loc 1 515 0
 2108 00c4 4AE0     		b	.L174
 2109              	.LVL308:
 2110              	.L173:
 516:TkShell.c     ****                     }
 517:TkShell.c     ****                     else if (strcicmp(argv[1], "help") == 0)
 2111              		.loc 1 517 0
 2112 00c6 6549     		ldr	r1, .L197+16
 2113 00c8 2800     		movs	r0, r5
 2114 00ca FFF7FEFF 		bl	strcicmp
 2115              	.LVL309:
 2116 00ce 0028     		cmp	r0, #0
 2117 00d0 33D1     		bne	.L175
 2118              	.LVL310:
 518:TkShell.c     ****                     {
 519:TkShell.c     ****                         found = true;
 520:TkShell.c     ****                         PRINTF("Displaying list of %s commands:\n", commands[i].name);
 2119              		.loc 1 520 0
 2120 00d2 FFF7FEFF 		bl	USBUART_GetConfiguration
 2121              	.LVL311:
 2122 00d6 0028     		cmp	r0, #0
 2123 00d8 23D0     		beq	.L178
 2124              	.L177:
 2125              		.loc 1 520 0 is_stmt 0 discriminator 1
 2126 00da FFF7FEFF 		bl	USBUART_CDCIsReady
 2127              	.LVL312:
 2128 00de 0028     		cmp	r0, #0
 2129 00e0 FBD0     		beq	.L177
 2130              		.loc 1 520 0 discriminator 2
 2131 00e2 5C4D     		ldr	r5, .L197+8
 2132 00e4 029A     		ldr	r2, [sp, #8]
 2133 00e6 5E49     		ldr	r1, .L197+20
 2134 00e8 2800     		movs	r0, r5
 2135 00ea FFF7FEFF 		bl	sprintf
 2136              	.LVL313:
 2137 00ee 2800     		movs	r0, r5
 2138 00f0 FFF7FEFF 		bl	USBUART_PutString
 2139              	.LVL314:
 2140 00f4 15E0     		b	.L178
 2141              	.L181:
 521:TkShell.c     ****                         while (strcmp(commands[i].verbs[k].name, "") != 0)
 522:TkShell.c     ****                         {
 523:TkShell.c     ****                             PRINTF("\t%s %s: %s\n", commands[i].name, commands[i].verbs[k].name, co
 2142              		.loc 1 523 0 is_stmt 1
ARM GAS  C:\Users\TERENC~1\AppData\Local\Temp\ccNQUuJb.s 			page 51


 2143 00f6 FFF7FEFF 		bl	USBUART_GetConfiguration
 2144              	.LVL315:
 2145 00fa 0028     		cmp	r0, #0
 2146 00fc 0ED0     		beq	.L179
 2147              	.L180:
 2148              		.loc 1 523 0 is_stmt 0 discriminator 1
 2149 00fe FFF7FEFF 		bl	USBUART_CDCIsReady
 2150              	.LVL316:
 2151 0102 0028     		cmp	r0, #0
 2152 0104 FBD0     		beq	.L180
 2153              		.loc 1 523 0 discriminator 2
 2154 0106 2B68     		ldr	r3, [r5]
 2155 0108 AA68     		ldr	r2, [r5, #8]
 2156 010a 0092     		str	r2, [sp]
 2157 010c 029A     		ldr	r2, [sp, #8]
 2158 010e 5549     		ldr	r1, .L197+24
 2159 0110 5048     		ldr	r0, .L197+8
 2160 0112 FFF7FEFF 		bl	sprintf
 2161              	.LVL317:
 2162 0116 4F48     		ldr	r0, .L197+8
 2163 0118 FFF7FEFF 		bl	USBUART_PutString
 2164              	.LVL318:
 2165              	.L179:
 524:TkShell.c     ****                             k++;
 2166              		.loc 1 524 0 is_stmt 1
 2167 011c 0123     		movs	r3, #1
 2168 011e 9C46     		mov	ip, r3
 2169 0120 E044     		add	r8, r8, ip
 2170              	.LVL319:
 2171              	.L178:
 521:TkShell.c     ****                         while (strcmp(commands[i].verbs[k].name, "") != 0)
 2172              		.loc 1 521 0
 2173 0122 4346     		mov	r3, r8
 2174 0124 5B00     		lsls	r3, r3, #1
 2175 0126 4344     		add	r3, r3, r8
 2176 0128 9A00     		lsls	r2, r3, #2
 2177 012a BD18     		adds	r5, r7, r2
 2178 012c 2B68     		ldr	r3, [r5]
 2179 012e 1B78     		ldrb	r3, [r3]
 2180 0130 002B     		cmp	r3, #0
 2181 0132 E0D1     		bne	.L181
 519:TkShell.c     ****                         PRINTF("Displaying list of %s commands:\n", commands[i].name);
 2182              		.loc 1 519 0
 2183 0134 0133     		adds	r3, r3, #1
 2184 0136 9A46     		mov	r10, r3
 2185 0138 10E0     		b	.L174
 2186              	.LVL320:
 2187              	.L175:
 525:TkShell.c     ****                         }
 526:TkShell.c     ****                         break;
 527:TkShell.c     ****                     }
 528:TkShell.c     ****                     j++;
 2188              		.loc 1 528 0
 2189 013a 0134     		adds	r4, r4, #1
 2190              	.LVL321:
 2191              	.L171:
 509:TkShell.c     ****                 {
ARM GAS  C:\Users\TERENC~1\AppData\Local\Temp\ccNQUuJb.s 			page 52


 2192              		.loc 1 509 0
 2193 013c 7200     		lsls	r2, r6, #1
 2194 013e 9219     		adds	r2, r2, r6
 2195 0140 9300     		lsls	r3, r2, #2
 2196 0142 494A     		ldr	r2, .L197+28
 2197 0144 D318     		adds	r3, r2, r3
 2198 0146 DF6B     		ldr	r7, [r3, #60]
 2199 0148 6300     		lsls	r3, r4, #1
 2200 014a 1B19     		adds	r3, r3, r4
 2201 014c 9A00     		lsls	r2, r3, #2
 2202 014e 9346     		mov	fp, r2
 2203 0150 BB44     		add	fp, fp, r7
 2204 0152 5B46     		mov	r3, fp
 2205 0154 1968     		ldr	r1, [r3]
 2206 0156 0B78     		ldrb	r3, [r1]
 2207 0158 002B     		cmp	r3, #0
 2208 015a A5D1     		bne	.L182
 2209              	.LVL322:
 2210              	.L174:
 529:TkShell.c     ****                 }
 530:TkShell.c     **** 
 531:TkShell.c     ****                 if (found)
 2211              		.loc 1 531 0
 2212 015c 5346     		mov	r3, r10
 2213 015e 002B     		cmp	r3, #0
 2214 0160 3CD0     		beq	.L183
 2215 0162 4FE0     		b	.L170
 2216              	.L196:
 532:TkShell.c     ****                 {
 533:TkShell.c     ****                     break;
 534:TkShell.c     ****                 }
 535:TkShell.c     ****             }
 536:TkShell.c     ****             else if (strcicmp(argv[0], "help") == 0)
 2217              		.loc 1 536 0
 2218 0164 3D49     		ldr	r1, .L197+16
 2219 0166 2800     		movs	r0, r5
 2220 0168 FFF7FEFF 		bl	strcicmp
 2221              	.LVL323:
 2222 016c 0028     		cmp	r0, #0
 2223 016e 35D1     		bne	.L183
 2224              	.LVL324:
 537:TkShell.c     ****             {
 538:TkShell.c     ****                 found = true;
 539:TkShell.c     ****                 PRINTF("Displaying list of commands:\n");
 2225              		.loc 1 539 0
 2226 0170 FFF7FEFF 		bl	USBUART_GetConfiguration
 2227              	.LVL325:
 2228 0174 0028     		cmp	r0, #0
 2229 0176 25D0     		beq	.L186
 2230              	.L185:
 2231              		.loc 1 539 0 is_stmt 0 discriminator 1
 2232 0178 FFF7FEFF 		bl	USBUART_CDCIsReady
 2233              	.LVL326:
 2234 017c 0028     		cmp	r0, #0
 2235 017e FBD0     		beq	.L185
 2236              		.loc 1 539 0 discriminator 2
 2237 0180 344D     		ldr	r5, .L197+8
ARM GAS  C:\Users\TERENC~1\AppData\Local\Temp\ccNQUuJb.s 			page 53


 2238 0182 1E22     		movs	r2, #30
 2239 0184 3949     		ldr	r1, .L197+32
 2240 0186 2800     		movs	r0, r5
 2241 0188 FFF7FEFF 		bl	memcpy
 2242              	.LVL327:
 2243 018c 2800     		movs	r0, r5
 2244 018e FFF7FEFF 		bl	USBUART_PutString
 2245              	.LVL328:
 2246 0192 17E0     		b	.L186
 2247              	.LVL329:
 2248              	.L189:
 540:TkShell.c     ****                 while (strcmp(commands[j].name, "") != 0)
 541:TkShell.c     ****                 {
 542:TkShell.c     ****                     PRINTF("\t%s: %s\n", commands[j].name, commands[j].desc);
 2249              		.loc 1 542 0 is_stmt 1
 2250 0194 FFF7FEFF 		bl	USBUART_GetConfiguration
 2251              	.LVL330:
 2252 0198 0028     		cmp	r0, #0
 2253 019a 12D0     		beq	.L187
 2254              	.L188:
 2255              		.loc 1 542 0 is_stmt 0 discriminator 1
 2256 019c FFF7FEFF 		bl	USBUART_CDCIsReady
 2257              	.LVL331:
 2258 01a0 0028     		cmp	r0, #0
 2259 01a2 FBD0     		beq	.L188
 2260              		.loc 1 542 0 discriminator 2
 2261 01a4 6200     		lsls	r2, r4, #1
 2262 01a6 1219     		adds	r2, r2, r4
 2263 01a8 9300     		lsls	r3, r2, #2
 2264 01aa 2F4A     		ldr	r2, .L197+28
 2265 01ac D318     		adds	r3, r2, r3
 2266 01ae 1B6C     		ldr	r3, [r3, #64]
 2267 01b0 284E     		ldr	r6, .L197+8
 2268 01b2 2A00     		movs	r2, r5
 2269 01b4 2E49     		ldr	r1, .L197+36
 2270 01b6 3000     		movs	r0, r6
 2271 01b8 FFF7FEFF 		bl	sprintf
 2272              	.LVL332:
 2273 01bc 3000     		movs	r0, r6
 2274 01be FFF7FEFF 		bl	USBUART_PutString
 2275              	.LVL333:
 2276              	.L187:
 543:TkShell.c     ****                     j++;
 2277              		.loc 1 543 0 is_stmt 1
 2278 01c2 0134     		adds	r4, r4, #1
 2279              	.LVL334:
 2280              	.L186:
 540:TkShell.c     ****                 while (strcmp(commands[j].name, "") != 0)
 2281              		.loc 1 540 0
 2282 01c4 6200     		lsls	r2, r4, #1
 2283 01c6 1219     		adds	r2, r2, r4
 2284 01c8 9300     		lsls	r3, r2, #2
 2285 01ca 274A     		ldr	r2, .L197+28
 2286 01cc D318     		adds	r3, r2, r3
 2287 01ce 9D6B     		ldr	r5, [r3, #56]
 2288 01d0 2B78     		ldrb	r3, [r5]
 2289 01d2 002B     		cmp	r3, #0
ARM GAS  C:\Users\TERENC~1\AppData\Local\Temp\ccNQUuJb.s 			page 54


 2290 01d4 DED1     		bne	.L189
 538:TkShell.c     ****                 PRINTF("Displaying list of commands:\n");
 2291              		.loc 1 538 0
 2292 01d6 0133     		adds	r3, r3, #1
 2293 01d8 9A46     		mov	r10, r3
 2294 01da 13E0     		b	.L170
 2295              	.LVL335:
 2296              	.L183:
 544:TkShell.c     ****                 }
 545:TkShell.c     ****                 break;
 546:TkShell.c     ****             }
 547:TkShell.c     ****             i++;
 2297              		.loc 1 547 0
 2298 01dc 0136     		adds	r6, r6, #1
 2299              	.LVL336:
 2300 01de 06E0     		b	.L169
 2301              	.LVL337:
 2302              	.L193:
 2303 01e0 0023     		movs	r3, #0
 2304              	.LVL338:
 2305 01e2 9846     		mov	r8, r3
 2306 01e4 0024     		movs	r4, #0
 2307 01e6 0026     		movs	r6, #0
 2308 01e8 9A46     		mov	r10, r3
 2309 01ea 013B     		subs	r3, r3, #1
 2310 01ec 0393     		str	r3, [sp, #12]
 2311              	.LVL339:
 2312              	.L169:
 505:TkShell.c     ****         {
 2313              		.loc 1 505 0
 2314 01ee 7200     		lsls	r2, r6, #1
 2315 01f0 9219     		adds	r2, r2, r6
 2316 01f2 9300     		lsls	r3, r2, #2
 2317 01f4 1C4A     		ldr	r2, .L197+28
 2318 01f6 D318     		adds	r3, r2, r3
 2319 01f8 9B6B     		ldr	r3, [r3, #56]
 2320 01fa 0293     		str	r3, [sp, #8]
 2321 01fc 1B78     		ldrb	r3, [r3]
 2322 01fe 002B     		cmp	r3, #0
 2323 0200 00D0     		beq	.LCB2395
 2324 0202 49E7     		b	.L190	@long jump
 2325              	.LCB2395:
 2326              	.LVL340:
 2327              	.L170:
 548:TkShell.c     ****         }
 549:TkShell.c     ****     }
 550:TkShell.c     ****     
 551:TkShell.c     ****     if (!found)
 2328              		.loc 1 551 0
 2329 0204 5346     		mov	r3, r10
 2330 0206 002B     		cmp	r3, #0
 2331 0208 15D1     		bne	.L194
 552:TkShell.c     ****     {
 553:TkShell.c     ****         PRINTF("unknown command: %s\n", argv[0]);
 2332              		.loc 1 553 0
 2333 020a FFF7FEFF 		bl	USBUART_GetConfiguration
 2334              	.LVL341:
ARM GAS  C:\Users\TERENC~1\AppData\Local\Temp\ccNQUuJb.s 			page 55


 2335 020e 0028     		cmp	r0, #0
 2336 0210 13D0     		beq	.L195
 2337              	.L191:
 2338              		.loc 1 553 0 is_stmt 0 discriminator 1
 2339 0212 FFF7FEFF 		bl	USBUART_CDCIsReady
 2340              	.LVL342:
 2341 0216 0028     		cmp	r0, #0
 2342 0218 FBD0     		beq	.L191
 2343              		.loc 1 553 0 discriminator 2
 2344 021a 0E4C     		ldr	r4, .L197+8
 2345 021c 049A     		ldr	r2, [sp, #16]
 2346 021e 1549     		ldr	r1, .L197+40
 2347 0220 2000     		movs	r0, r4
 2348 0222 FFF7FEFF 		bl	sprintf
 2349              	.LVL343:
 2350 0226 2000     		movs	r0, r4
 2351 0228 FFF7FEFF 		bl	USBUART_PutString
 2352              	.LVL344:
 554:TkShell.c     ****     }
 555:TkShell.c     ****     
 556:TkShell.c     ****     return retval;
 2353              		.loc 1 556 0 is_stmt 1 discriminator 2
 2354 022c 0398     		ldr	r0, [sp, #12]
 2355 022e 05E0     		b	.L167
 2356              	.LVL345:
 2357              	.L192:
 498:TkShell.c     ****         }
 2358              		.loc 1 498 0
 2359 0230 0220     		movs	r0, #2
 2360 0232 4042     		rsbs	r0, r0, #0
 2361 0234 02E0     		b	.L167
 2362              	.LVL346:
 2363              	.L194:
 2364              		.loc 1 556 0
 2365 0236 0398     		ldr	r0, [sp, #12]
 2366 0238 00E0     		b	.L167
 2367              	.L195:
 2368 023a 0398     		ldr	r0, [sp, #12]
 2369              	.LVL347:
 2370              	.L167:
 557:TkShell.c     **** }
 2371              		.loc 1 557 0
 2372 023c 0FB0     		add	sp, sp, #60
 2373              		@ sp needed
 2374              	.LVL348:
 2375 023e 3CBC     		pop	{r2, r3, r4, r5}
 2376 0240 9046     		mov	r8, r2
 2377 0242 9946     		mov	r9, r3
 2378 0244 A246     		mov	r10, r4
 2379 0246 AB46     		mov	fp, r5
 2380 0248 F0BD     		pop	{r4, r5, r6, r7, pc}
 2381              	.L198:
 2382 024a C046     		.align	2
 2383              	.L197:
 2384 024c 00000000 		.word	.LANCHOR1
 2385 0250 00000000 		.word	__ctype_ptr__
 2386 0254 00000000 		.word	gbuf
ARM GAS  C:\Users\TERENC~1\AppData\Local\Temp\ccNQUuJb.s 			page 56


 2387 0258 9C010000 		.word	.LC92
 2388 025c B4010000 		.word	.LC94
 2389 0260 BC010000 		.word	.LC96
 2390 0264 E0010000 		.word	.LC98
 2391 0268 00000000 		.word	.LANCHOR0
 2392 026c EC010000 		.word	.LC101
 2393 0270 0C020000 		.word	.LC103
 2394 0274 18020000 		.word	.LC105
 2395              		.cfi_endproc
 2396              	.LFE21:
 2397              		.size	TkShellProcessCommand, .-TkShellProcessCommand
 2398              		.section	.text.TkShellInit,"ax",%progbits
 2399              		.align	2
 2400              		.global	TkShellInit
 2401              		.code	16
 2402              		.thumb_func
 2403              		.type	TkShellInit, %function
 2404              	TkShellInit:
 2405              	.LFB22:
 558:TkShell.c     **** 
 559:TkShell.c     **** void TkShellInit(void)
 560:TkShell.c     **** {
 2406              		.loc 1 560 0
 2407              		.cfi_startproc
 2408              		@ args = 0, pretend = 0, frame = 0
 2409              		@ frame_needed = 0, uses_anonymous_args = 0
 2410 0000 10B5     		push	{r4, lr}
 2411              		.cfi_def_cfa_offset 8
 2412              		.cfi_offset 4, -8
 2413              		.cfi_offset 14, -4
 561:TkShell.c     ****     memset((void *)cmd_buf, 0, CMD_BUF_LEN);
 2414              		.loc 1 561 0
 2415 0002 054C     		ldr	r4, .L200
 2416 0004 4022     		movs	r2, #64
 2417 0006 0021     		movs	r1, #0
 2418 0008 2000     		movs	r0, r4
 2419 000a FFF7FEFF 		bl	memset
 2420              	.LVL349:
 562:TkShell.c     ****     cmd_char_count = 0;
 2421              		.loc 1 562 0
 2422 000e 0022     		movs	r2, #0
 2423 0010 4023     		movs	r3, #64
 2424 0012 E254     		strb	r2, [r4, r3]
 563:TkShell.c     **** }
 2425              		.loc 1 563 0
 2426              		@ sp needed
 2427 0014 10BD     		pop	{r4, pc}
 2428              	.L201:
 2429 0016 C046     		.align	2
 2430              	.L200:
 2431 0018 00000000 		.word	.LANCHOR1
 2432              		.cfi_endproc
 2433              	.LFE22:
 2434              		.size	TkShellInit, .-TkShellInit
 2435              		.section	.text.TkShellService,"ax",%progbits
 2436              		.align	2
 2437              		.global	TkShellService
ARM GAS  C:\Users\TERENC~1\AppData\Local\Temp\ccNQUuJb.s 			page 57


 2438              		.code	16
 2439              		.thumb_func
 2440              		.type	TkShellService, %function
 2441              	TkShellService:
 2442              	.LFB23:
 564:TkShell.c     **** 
 565:TkShell.c     **** void TkShellService(void)
 566:TkShell.c     **** {
 2443              		.loc 1 566 0
 2444              		.cfi_startproc
 2445              		@ args = 0, pretend = 0, frame = 64
 2446              		@ frame_needed = 0, uses_anonymous_args = 0
 2447 0000 F0B5     		push	{r4, r5, r6, r7, lr}
 2448              		.cfi_def_cfa_offset 20
 2449              		.cfi_offset 4, -20
 2450              		.cfi_offset 5, -16
 2451              		.cfi_offset 6, -12
 2452              		.cfi_offset 7, -8
 2453              		.cfi_offset 14, -4
 2454 0002 91B0     		sub	sp, sp, #68
 2455              		.cfi_def_cfa_offset 88
 2456              	.LVL350:
 567:TkShell.c     ****     char c;
 568:TkShell.c     ****     uint8 i = 0;
 569:TkShell.c     ****     uint16 count;
 570:TkShell.c     ****     uint8 buffer[USBUART_BUFFER_SIZE];
 571:TkShell.c     **** //    
 572:TkShell.c     ****     /* Read received data and re-enable OUT endpoint. */
 573:TkShell.c     ****     count = USBUART_GetAll(buffer);
 2457              		.loc 1 573 0
 2458 0004 6846     		mov	r0, sp
 2459 0006 FFF7FEFF 		bl	USBUART_GetAll
 2460              	.LVL351:
 2461 000a 0600     		movs	r6, r0
 2462              	.LVL352:
 568:TkShell.c     ****     uint16 count;
 2463              		.loc 1 568 0
 2464 000c 0025     		movs	r5, #0
 574:TkShell.c     **** //
 575:TkShell.c     **** //                if (0u != count)
 576:TkShell.c     **** //                {
 577:TkShell.c     **** //                    /* Wait until component is ready to send data to host. */
 578:TkShell.c     **** //                    while (0u == USBUART_CDCIsReady())
 579:TkShell.c     **** //                    {
 580:TkShell.c     **** //                    }
 581:TkShell.c     **** //
 582:TkShell.c     **** //                    /* Send data back to host. */
 583:TkShell.c     **** //                    USBUART_PutData(buffer, count);
 584:TkShell.c     **** //
 585:TkShell.c     **** //                    /* If the last sent packet is exactly the maximum packet 
 586:TkShell.c     **** //                    *  size, it is followed by a zero-length packet to assure
 587:TkShell.c     **** //                    *  that the end of the segment is properly identified by 
 588:TkShell.c     **** //                    *  the terminal.
 589:TkShell.c     **** //                    */
 590:TkShell.c     **** //                    if (USBUART_BUFFER_SIZE == count)
 591:TkShell.c     **** //                    {
 592:TkShell.c     **** //                        /* Wait until component is ready to send data to PC. */
ARM GAS  C:\Users\TERENC~1\AppData\Local\Temp\ccNQUuJb.s 			page 58


 593:TkShell.c     **** //                        while (0u == USBUART_CDCIsReady())
 594:TkShell.c     **** //                        {
 595:TkShell.c     **** //                        }
 596:TkShell.c     **** //
 597:TkShell.c     **** //                        /* Send zero-length packet to PC. */
 598:TkShell.c     **** //                        USBUART_PutData(NULL, 0u);
 599:TkShell.c     **** //                    }
 600:TkShell.c     **** //                }
 601:TkShell.c     **** //
 602:TkShell.c     ****     while ((c = buffer[i]) != 0 && i < count)
 2465              		.loc 1 602 0
 2466 000e 74E0     		b	.L203
 2467              	.LVL353:
 2468              	.L218:
 603:TkShell.c     ****     {
 604:TkShell.c     ****         i++;
 2469              		.loc 1 604 0
 2470 0010 0135     		adds	r5, r5, #1
 2471              	.LVL354:
 2472 0012 EDB2     		uxtb	r5, r5
 2473              	.LVL355:
 605:TkShell.c     ****         switch (c)
 2474              		.loc 1 605 0
 2475 0014 0A2C     		cmp	r4, #10
 2476 0016 0AD0     		beq	.L205
 2477 0018 04D8     		bhi	.L206
 2478 001a 032C     		cmp	r4, #3
 2479 001c 07D0     		beq	.L205
 2480 001e 082C     		cmp	r4, #8
 2481 0020 34D0     		beq	.L207
 2482 0022 50E0     		b	.L204
 2483              	.L206:
 2484 0024 0D2C     		cmp	r4, #13
 2485 0026 02D0     		beq	.L205
 2486 0028 7F2C     		cmp	r4, #127
 2487 002a 2FD0     		beq	.L207
 2488 002c 4BE0     		b	.L204
 2489              	.L205:
 606:TkShell.c     ****         {
 607:TkShell.c     ****             case '\r':
 608:TkShell.c     ****             case '\n':
 609:TkShell.c     ****             case 0x03:
 610:TkShell.c     ****                 PRINTF("%c", c);
 2490              		.loc 1 610 0
 2491 002e FFF7FEFF 		bl	USBUART_GetConfiguration
 2492              	.LVL356:
 2493 0032 0028     		cmp	r0, #0
 2494 0034 0CD0     		beq	.L208
 2495              	.L209:
 2496              		.loc 1 610 0 is_stmt 0 discriminator 1
 2497 0036 FFF7FEFF 		bl	USBUART_CDCIsReady
 2498              	.LVL357:
 2499 003a 0028     		cmp	r0, #0
 2500 003c FBD0     		beq	.L209
 2501              		.loc 1 610 0 discriminator 2
 2502 003e 334F     		ldr	r7, .L219
 2503 0040 2200     		movs	r2, r4
ARM GAS  C:\Users\TERENC~1\AppData\Local\Temp\ccNQUuJb.s 			page 59


 2504 0042 3349     		ldr	r1, .L219+4
 2505 0044 3800     		movs	r0, r7
 2506 0046 FFF7FEFF 		bl	sprintf
 2507              	.LVL358:
 2508 004a 3800     		movs	r0, r7
 2509 004c FFF7FEFF 		bl	USBUART_PutString
 2510              	.LVL359:
 2511              	.L208:
 611:TkShell.c     ****                 if (cmd_char_count > 0)
 2512              		.loc 1 611 0 is_stmt 1
 2513 0050 4023     		movs	r3, #64
 2514 0052 304A     		ldr	r2, .L219+8
 2515 0054 D35C     		ldrb	r3, [r2, r3]
 2516 0056 002B     		cmp	r3, #0
 2517 0058 01D0     		beq	.L210
 612:TkShell.c     ****                 {
 613:TkShell.c     ****                     TkShellProcessCommand();
 2518              		.loc 1 613 0
 2519 005a FFF7FEFF 		bl	TkShellProcessCommand
 2520              	.LVL360:
 2521              	.L210:
 614:TkShell.c     ****                 }
 615:TkShell.c     ****                 PRINTF("\U00002744 ] ");
 2522              		.loc 1 615 0
 2523 005e FFF7FEFF 		bl	USBUART_GetConfiguration
 2524              	.LVL361:
 2525 0062 0028     		cmp	r0, #0
 2526 0064 0CD0     		beq	.L211
 2527              	.L212:
 2528              		.loc 1 615 0 is_stmt 0 discriminator 1
 2529 0066 FFF7FEFF 		bl	USBUART_CDCIsReady
 2530              	.LVL362:
 2531 006a 0028     		cmp	r0, #0
 2532 006c FBD0     		beq	.L212
 2533              		.loc 1 615 0 discriminator 2
 2534 006e 274C     		ldr	r4, .L219
 2535              	.LVL363:
 2536 0070 0722     		movs	r2, #7
 2537 0072 2949     		ldr	r1, .L219+12
 2538 0074 2000     		movs	r0, r4
 2539 0076 FFF7FEFF 		bl	memcpy
 2540              	.LVL364:
 2541 007a 2000     		movs	r0, r4
 2542 007c FFF7FEFF 		bl	USBUART_PutString
 2543              	.LVL365:
 2544              	.L211:
 616:TkShell.c     ****                 cmd_char_count = 0;
 2545              		.loc 1 616 0 is_stmt 1
 2546 0080 244B     		ldr	r3, .L219+8
 2547 0082 0022     		movs	r2, #0
 2548 0084 4021     		movs	r1, #64
 2549 0086 5A54     		strb	r2, [r3, r1]
 617:TkShell.c     ****                 cmd_buf[0] = '\0';
 2550              		.loc 1 617 0
 2551 0088 1A70     		strb	r2, [r3]
 618:TkShell.c     ****                 break;
 2552              		.loc 1 618 0
ARM GAS  C:\Users\TERENC~1\AppData\Local\Temp\ccNQUuJb.s 			page 60


 2553 008a 36E0     		b	.L203
 2554              	.LVL366:
 2555              	.L207:
 619:TkShell.c     ****                 
 620:TkShell.c     ****             case 127:
 621:TkShell.c     ****             case '\b':
 622:TkShell.c     ****                 if (cmd_char_count == 0)
 2556              		.loc 1 622 0
 2557 008c 4023     		movs	r3, #64
 2558 008e 214A     		ldr	r2, .L219+8
 2559 0090 D35C     		ldrb	r3, [r2, r3]
 2560 0092 002B     		cmp	r3, #0
 2561 0094 31D0     		beq	.L203
 623:TkShell.c     ****                 {
 624:TkShell.c     ****                     break;
 625:TkShell.c     ****                 }
 626:TkShell.c     ****                 cmd_buf[--cmd_char_count] = '\0';
 2562              		.loc 1 626 0
 2563 0096 013B     		subs	r3, r3, #1
 2564 0098 DBB2     		uxtb	r3, r3
 2565 009a 4021     		movs	r1, #64
 2566 009c 5354     		strb	r3, [r2, r1]
 2567 009e 0021     		movs	r1, #0
 2568 00a0 D154     		strb	r1, [r2, r3]
 627:TkShell.c     ****                 PRINTF("\b \b");
 2569              		.loc 1 627 0
 2570 00a2 FFF7FEFF 		bl	USBUART_GetConfiguration
 2571              	.LVL367:
 2572 00a6 0028     		cmp	r0, #0
 2573 00a8 27D0     		beq	.L203
 2574              	.L214:
 2575              		.loc 1 627 0 is_stmt 0 discriminator 1
 2576 00aa FFF7FEFF 		bl	USBUART_CDCIsReady
 2577              	.LVL368:
 2578 00ae 0028     		cmp	r0, #0
 2579 00b0 FBD0     		beq	.L214
 2580              		.loc 1 627 0 discriminator 2
 2581 00b2 164C     		ldr	r4, .L219
 2582              	.LVL369:
 2583 00b4 0422     		movs	r2, #4
 2584 00b6 1949     		ldr	r1, .L219+16
 2585 00b8 2000     		movs	r0, r4
 2586 00ba FFF7FEFF 		bl	memcpy
 2587              	.LVL370:
 2588 00be 2000     		movs	r0, r4
 2589 00c0 FFF7FEFF 		bl	USBUART_PutString
 2590              	.LVL371:
 2591 00c4 19E0     		b	.L203
 2592              	.LVL372:
 2593              	.L204:
 628:TkShell.c     ****                 break;
 629:TkShell.c     **** 
 630:TkShell.c     ****             default:
 631:TkShell.c     ****                 PRINTF("%c", c);
 2594              		.loc 1 631 0 is_stmt 1
 2595 00c6 FFF7FEFF 		bl	USBUART_GetConfiguration
 2596              	.LVL373:
ARM GAS  C:\Users\TERENC~1\AppData\Local\Temp\ccNQUuJb.s 			page 61


 2597 00ca 0028     		cmp	r0, #0
 2598 00cc 0CD0     		beq	.L215
 2599              	.L216:
 2600              		.loc 1 631 0 is_stmt 0 discriminator 1
 2601 00ce FFF7FEFF 		bl	USBUART_CDCIsReady
 2602              	.LVL374:
 2603 00d2 0028     		cmp	r0, #0
 2604 00d4 FBD0     		beq	.L216
 2605              		.loc 1 631 0 discriminator 2
 2606 00d6 0D4F     		ldr	r7, .L219
 2607 00d8 2200     		movs	r2, r4
 2608 00da 0D49     		ldr	r1, .L219+4
 2609 00dc 3800     		movs	r0, r7
 2610 00de FFF7FEFF 		bl	sprintf
 2611              	.LVL375:
 2612 00e2 3800     		movs	r0, r7
 2613 00e4 FFF7FEFF 		bl	USBUART_PutString
 2614              	.LVL376:
 2615              	.L215:
 632:TkShell.c     ****                 cmd_buf[cmd_char_count++] = c;
 2616              		.loc 1 632 0 is_stmt 1
 2617 00e8 0A4A     		ldr	r2, .L219+8
 2618 00ea 4020     		movs	r0, #64
 2619 00ec 115C     		ldrb	r1, [r2, r0]
 2620 00ee 4B1C     		adds	r3, r1, #1
 2621 00f0 DBB2     		uxtb	r3, r3
 2622 00f2 1354     		strb	r3, [r2, r0]
 2623 00f4 5454     		strb	r4, [r2, r1]
 633:TkShell.c     ****                 cmd_buf[cmd_char_count] = '\0';
 2624              		.loc 1 633 0
 2625 00f6 0021     		movs	r1, #0
 2626 00f8 D154     		strb	r1, [r2, r3]
 2627              	.LVL377:
 2628              	.L203:
 602:TkShell.c     ****     {
 2629              		.loc 1 602 0
 2630 00fa 6B46     		mov	r3, sp
 2631 00fc 5C5D     		ldrb	r4, [r3, r5]
 2632              	.LVL378:
 2633 00fe 002C     		cmp	r4, #0
 2634 0100 02D0     		beq	.L202
 602:TkShell.c     ****     {
 2635              		.loc 1 602 0 is_stmt 0 discriminator 1
 2636 0102 ABB2     		uxth	r3, r5
 2637 0104 9E42     		cmp	r6, r3
 2638 0106 83D8     		bhi	.L218
 2639              	.L202:
 634:TkShell.c     ****                 break;
 635:TkShell.c     ****         }
 636:TkShell.c     ****     }
 637:TkShell.c     **** }
 2640              		.loc 1 637 0 is_stmt 1
 2641 0108 11B0     		add	sp, sp, #68
 2642              		@ sp needed
 2643              	.LVL379:
 2644              	.LVL380:
 2645              	.LVL381:
ARM GAS  C:\Users\TERENC~1\AppData\Local\Temp\ccNQUuJb.s 			page 62


 2646 010a F0BD     		pop	{r4, r5, r6, r7, pc}
 2647              	.L220:
 2648              		.align	2
 2649              	.L219:
 2650 010c 00000000 		.word	gbuf
 2651 0110 30020000 		.word	.LC108
 2652 0114 00000000 		.word	.LANCHOR1
 2653 0118 34020000 		.word	.LC112
 2654 011c 3C020000 		.word	.LC114
 2655              		.cfi_endproc
 2656              	.LFE23:
 2657              		.size	TkShellService, .-TkShellService
 2658              		.section	.rodata
 2659              		.align	2
 2660              		.set	.LANCHOR0,. + 0
 2661              		.type	reg_lookup, %object
 2662              		.size	reg_lookup, 56
 2663              	reg_lookup:
 2664 0000 00000440 		.word	1074003968
 2665 0004 00010440 		.word	1074004224
 2666 0008 00020440 		.word	1074004480
 2667 000c 00030440 		.word	1074004736
 2668 0010 00040440 		.word	1074004992
 2669 0014 00050440 		.word	1074005248
 2670 0018 00060440 		.word	1074005504
 2671 001c 00070440 		.word	1074005760
 2672 0020 00080440 		.word	1074006016
 2673 0024 00090440 		.word	1074006272
 2674 0028 000A0440 		.word	1074006528
 2675 002c 000B0440 		.word	1074006784
 2676 0030 000C0440 		.word	1074007040
 2677 0034 000D0440 		.word	1074007296
 2678              		.type	commands, %object
 2679              		.size	commands, 84
 2680              	commands:
 2681 0038 40020000 		.word	.LC116
 2682 003c 7C010000 		.word	__tk_shell_verbs_gpio
 2683 0040 48020000 		.word	.LC117
 2684 0044 58020000 		.word	.LC118
 2685 0048 40010000 		.word	__tk_shell_verbs_wm
 2686 004c 5C020000 		.word	.LC119
 2687 0050 74020000 		.word	.LC120
 2688 0054 28010000 		.word	__tk_shell_verbs_pcm
 2689 0058 78020000 		.word	.LC121
 2690 005c 94020000 		.word	.LC122
 2691 0060 EC000000 		.word	__tk_shell_verbs_sys
 2692 0064 98020000 		.word	.LC123
 2693 0068 A8020000 		.word	.LC124
 2694 006c BC000000 		.word	__tk_shell_verbs_led
 2695 0070 AC020000 		.word	.LC125
 2696 0074 BC020000 		.word	.LC126
 2697 0078 8C000000 		.word	__tk_shell_verbs_cal
 2698 007c C0020000 		.word	.LC127
 2699 0080 DC020000 		.word	.LC128
 2700 0084 00000000 		.word	0
 2701 0088 DC020000 		.word	.LC128
 2702              		.type	__tk_shell_verbs_cal, %object
ARM GAS  C:\Users\TERENC~1\AppData\Local\Temp\ccNQUuJb.s 			page 63


 2703              		.size	__tk_shell_verbs_cal, 48
 2704              	__tk_shell_verbs_cal:
 2705 008c E0020000 		.word	.LC129
 2706 0090 00000000 		.word	__tk_shell_cal_print
 2707 0094 E8020000 		.word	.LC130
 2708 0098 F8020000 		.word	.LC131
 2709 009c 00000000 		.word	__tk_shell_cal_set
 2710 00a0 FC020000 		.word	.LC132
 2711 00a4 0C030000 		.word	.LC133
 2712 00a8 00000000 		.word	__tk_shell_cal_save
 2713 00ac 14030000 		.word	.LC134
 2714 00b0 DC020000 		.word	.LC128
 2715 00b4 00000000 		.word	0
 2716 00b8 DC020000 		.word	.LC128
 2717              		.type	__tk_shell_verbs_led, %object
 2718              		.size	__tk_shell_verbs_led, 48
 2719              	__tk_shell_verbs_led:
 2720 00bc 30030000 		.word	.LC135
 2721 00c0 00000000 		.word	__tk_shell_led_pwm_period
 2722 00c4 3C030000 		.word	.LC136
 2723 00c8 50030000 		.word	.LC137
 2724 00cc 00000000 		.word	__tk_shell_led_start
 2725 00d0 58030000 		.word	.LC138
 2726 00d4 6C030000 		.word	.LC139
 2727 00d8 00000000 		.word	__tk_shell_led_stop
 2728 00dc 74030000 		.word	.LC140
 2729 00e0 DC020000 		.word	.LC128
 2730 00e4 00000000 		.word	0
 2731 00e8 DC020000 		.word	.LC128
 2732              		.type	__tk_shell_verbs_sys, %object
 2733              		.size	__tk_shell_verbs_sys, 60
 2734              	__tk_shell_verbs_sys:
 2735 00ec 88030000 		.word	.LC141
 2736 00f0 00000000 		.word	__tk_shell_sys_crash
 2737 00f4 90030000 		.word	.LC142
 2738 00f8 A8030000 		.word	.LC143
 2739 00fc 00000000 		.word	__tk_shell_sys_info
 2740 0100 B0030000 		.word	.LC144
 2741 0104 BC030000 		.word	.LC145
 2742 0108 00000000 		.word	__tk_shell_sys_reset
 2743 010c C4030000 		.word	.LC146
 2744 0110 D8030000 		.word	.LC147
 2745 0114 00000000 		.word	__tk_shell_sys_adc
 2746 0118 DC030000 		.word	.LC148
 2747 011c DC020000 		.word	.LC128
 2748 0120 00000000 		.word	0
 2749 0124 DC020000 		.word	.LC128
 2750              		.type	__tk_shell_verbs_pcm, %object
 2751              		.size	__tk_shell_verbs_pcm, 24
 2752              	__tk_shell_verbs_pcm:
 2753 0128 F0030000 		.word	.LC149
 2754 012c 00000000 		.word	__tk_shell_pcm_reg
 2755 0130 F4030000 		.word	.LC150
 2756 0134 DC020000 		.word	.LC128
 2757 0138 00000000 		.word	0
 2758 013c DC020000 		.word	.LC128
 2759              		.type	__tk_shell_verbs_wm, %object
ARM GAS  C:\Users\TERENC~1\AppData\Local\Temp\ccNQUuJb.s 			page 64


 2760              		.size	__tk_shell_verbs_wm, 60
 2761              	__tk_shell_verbs_wm:
 2762 0140 30040000 		.word	.LC151
 2763 0144 00000000 		.word	__tk_shell_wm_vol_set
 2764 0148 38040000 		.word	.LC152
 2765 014c 58040000 		.word	.LC153
 2766 0150 00000000 		.word	__tk_shell_wm_vol_get
 2767 0154 60040000 		.word	.LC154
 2768 0158 74040000 		.word	.LC155
 2769 015c 00000000 		.word	__tk_shell_wm_reg_wr
 2770 0160 7C040000 		.word	.LC156
 2771 0164 A4040000 		.word	.LC157
 2772 0168 00000000 		.word	__tk_shell_wm_reg_rd
 2773 016c AC040000 		.word	.LC158
 2774 0170 DC020000 		.word	.LC128
 2775 0174 00000000 		.word	0
 2776 0178 DC020000 		.word	.LC128
 2777              		.type	__tk_shell_verbs_gpio, %object
 2778              		.size	__tk_shell_verbs_gpio, 48
 2779              	__tk_shell_verbs_gpio:
 2780 017c F8020000 		.word	.LC131
 2781 0180 00000000 		.word	__tk_shell_gpio_set
 2782 0184 C8040000 		.word	.LC159
 2783 0188 D8040000 		.word	.LC160
 2784 018c 00000000 		.word	__tk_shell_gpio_config
 2785 0190 E0040000 		.word	.LC161
 2786 0194 F0040000 		.word	.LC162
 2787 0198 00000000 		.word	__tk_shell_gpio_get
 2788 019c F4040000 		.word	.LC163
 2789 01a0 DC020000 		.word	.LC128
 2790 01a4 00000000 		.word	0
 2791 01a8 DC020000 		.word	.LC128
 2792              		.section	.rodata.str1.4,"aMS",%progbits,1
 2793              		.align	2
 2794              	.LC1:
 2795 0000 3E207379 		.ascii	"> sys:er\012\000"
 2795      733A6572 
 2795      0A00
 2796 000a 0000     		.space	2
 2797              	.LC4:
 2798 000c 496E7661 		.ascii	"Invalid number of arguments!\012\000"
 2798      6C696420 
 2798      6E756D62 
 2798      6572206F 
 2798      66206172 
 2799 002a 0000     		.space	2
 2800              	.LC10:
 2801 002c 3E206C65 		.ascii	"> led:ok\012\000"
 2801      643A6F6B 
 2801      0A00
 2802 0036 0000     		.space	2
 2803              	.LC15:
 2804 0038 3E206770 		.ascii	"> gpio:ok %d\012\000"
 2804      696F3A6F 
 2804      6B202564 
 2804      0A00
 2805 0046 0000     		.space	2
ARM GAS  C:\Users\TERENC~1\AppData\Local\Temp\ccNQUuJb.s 			page 65


 2806              	.LC22:
 2807 0048 3E207379 		.ascii	"> sys:ok %08lu\012\000"
 2807      733A6F6B 
 2807      20253038 
 2807      6C750A00 
 2808              	.LC26:
 2809 0058 3E207379 		.ascii	"> sys:ok %d,%d\012\000"
 2809      733A6F6B 
 2809      2025642C 
 2809      25640A00 
 2810              	.LC30:
 2811 0068 7369676E 		.ascii	"sign = 0x%08X\012\000"
 2811      203D2030 
 2811      78253038 
 2811      580A00
 2812 0077 00       		.space	1
 2813              	.LC33:
 2814 0078 63747220 		.ascii	"ctr = %lu\012\000"
 2814      3D20256C 
 2814      750A00
 2815 0083 00       		.space	1
 2816              	.LC35:
 2817 0084 6164635F 		.ascii	"adc_min[R] = %d\012\000"
 2817      6D696E5B 
 2817      525D203D 
 2817      2025640A 
 2817      00
 2818 0095 000000   		.space	3
 2819              	.LC37:
 2820 0098 6164635F 		.ascii	"adc_max[R] = %d\012\000"
 2820      6D61785B 
 2820      525D203D 
 2820      2025640A 
 2820      00
 2821 00a9 000000   		.space	3
 2822              	.LC39:
 2823 00ac 6164635F 		.ascii	"adc_min[L] = %d\012\000"
 2823      6D696E5B 
 2823      4C5D203D 
 2823      2025640A 
 2823      00
 2824 00bd 000000   		.space	3
 2825              	.LC41:
 2826 00c0 6164635F 		.ascii	"adc_max[L] = %d\012\000"
 2826      6D61785B 
 2826      4C5D203D 
 2826      2025640A 
 2826      00
 2827 00d1 000000   		.space	3
 2828              	.LC43:
 2829 00d4 6C65645F 		.ascii	"led_max_brightness = %d\012\000"
 2829      6D61785F 
 2829      62726967 
 2829      68746E65 
 2829      7373203D 
 2830 00ed 000000   		.space	3
 2831              	.LC45:
ARM GAS  C:\Users\TERENC~1\AppData\Local\Temp\ccNQUuJb.s 			page 66


 2832 00f0 64656275 		.ascii	"debug_mask = 0x%02X\012\000"
 2832      675F6D61 
 2832      736B203D 
 2832      20307825 
 2832      3032580A 
 2833 0105 000000   		.space	3
 2834              	.LC47:
 2835 0108 3E206361 		.ascii	"> cal:ok\012\000"
 2835      6C3A6F6B 
 2835      0A00
 2836 0112 0000     		.space	2
 2837              	.LC51:
 2838 0114 3E20776D 		.ascii	"> wm:ok\012\000"
 2838      3A6F6B0A 
 2838      00
 2839 011d 000000   		.space	3
 2840              	.LC53:
 2841 0120 3E20776D 		.ascii	"> wm:er %d\012\000"
 2841      3A657220 
 2841      25640A00 
 2842              	.LC55:
 2843 012c 3E20776D 		.ascii	"> wm:ok %d\012\000"
 2843      3A6F6B20 
 2843      25640A00 
 2844              	.LC64:
 2845 0138 3E20776D 		.ascii	"> wm:ok 0x%04X\012\000"
 2845      3A6F6B20 
 2845      30782530 
 2845      34580A00 
 2846              	.LC70:
 2847 0148 3E206361 		.ascii	"> cal:ok %d\012\000"
 2847      6C3A6F6B 
 2847      2025640A 
 2847      00
 2848 0155 000000   		.space	3
 2849              	.LC76:
 2850 0158 777200   		.ascii	"wr\000"
 2851 015b 00       		.space	1
 2852              	.LC78:
 2853 015c 3E207063 		.ascii	"> pcm:ok 0x%02X\012\000"
 2853      6D3A6F6B 
 2853      20307825 
 2853      3032580A 
 2853      00
 2854 016d 000000   		.space	3
 2855              	.LC82:
 2856 0170 6C65645F 		.ascii	"led_max_brightness\000"
 2856      6D61785F 
 2856      62726967 
 2856      68746E65 
 2856      737300
 2857 0183 00       		.space	1
 2858              	.LC85:
 2859 0184 6164635F 		.ascii	"adc_min_l\000"
 2859      6D696E5F 
 2859      6C00
 2860 018e 0000     		.space	2
ARM GAS  C:\Users\TERENC~1\AppData\Local\Temp\ccNQUuJb.s 			page 67


 2861              	.LC87:
 2862 0190 64656275 		.ascii	"debug_mask\000"
 2862      675F6D61 
 2862      736B00
 2863 019b 00       		.space	1
 2864              	.LC92:
 2865 019c 546F6F20 		.ascii	"Too many arguments!\012\000"
 2865      6D616E79 
 2865      20617267 
 2865      756D656E 
 2865      7473210A 
 2866 01b1 000000   		.space	3
 2867              	.LC94:
 2868 01b4 68656C70 		.ascii	"help\000"
 2868      00
 2869 01b9 000000   		.space	3
 2870              	.LC96:
 2871 01bc 44697370 		.ascii	"Displaying list of %s commands:\012\000"
 2871      6C617969 
 2871      6E67206C 
 2871      69737420 
 2871      6F662025 
 2872 01dd 000000   		.space	3
 2873              	.LC98:
 2874 01e0 09257320 		.ascii	"\011%s %s: %s\012\000"
 2874      25733A20 
 2874      25730A00 
 2875              	.LC101:
 2876 01ec 44697370 		.ascii	"Displaying list of commands:\012\000"
 2876      6C617969 
 2876      6E67206C 
 2876      69737420 
 2876      6F662063 
 2877 020a 0000     		.space	2
 2878              	.LC103:
 2879 020c 0925733A 		.ascii	"\011%s: %s\012\000"
 2879      2025730A 
 2879      00
 2880 0215 000000   		.space	3
 2881              	.LC105:
 2882 0218 756E6B6E 		.ascii	"unknown command: %s\012\000"
 2882      6F776E20 
 2882      636F6D6D 
 2882      616E643A 
 2882      2025730A 
 2883 022d 000000   		.space	3
 2884              	.LC108:
 2885 0230 256300   		.ascii	"%c\000"
 2886 0233 00       		.space	1
 2887              	.LC112:
 2888 0234 E29D8420 		.ascii	"\342\235\204 ] \000"
 2888      5D2000
 2889 023b 00       		.space	1
 2890              	.LC114:
 2891 023c 08200800 		.ascii	"\010 \010\000"
 2892              	.LC116:
 2893 0240 6770696F 		.ascii	"gpio\000"
ARM GAS  C:\Users\TERENC~1\AppData\Local\Temp\ccNQUuJb.s 			page 68


 2893      00
 2894 0245 000000   		.space	3
 2895              	.LC117:
 2896 0248 4750494F 		.ascii	"GPIO commands\000"
 2896      20636F6D 
 2896      6D616E64 
 2896      7300
 2897 0256 0000     		.space	2
 2898              	.LC118:
 2899 0258 776D00   		.ascii	"wm\000"
 2900 025b 00       		.space	1
 2901              	.LC119:
 2902 025c 576F6C66 		.ascii	"Wolfson Codec commands\000"
 2902      736F6E20 
 2902      436F6465 
 2902      6320636F 
 2902      6D6D616E 
 2903 0273 00       		.space	1
 2904              	.LC120:
 2905 0274 70636D00 		.ascii	"pcm\000"
 2906              	.LC121:
 2907 0278 42757272 		.ascii	"Burr-Brown Codec commands\000"
 2907      2D42726F 
 2907      776E2043 
 2907      6F646563 
 2907      20636F6D 
 2908 0292 0000     		.space	2
 2909              	.LC122:
 2910 0294 73797300 		.ascii	"sys\000"
 2911              	.LC123:
 2912 0298 53797374 		.ascii	"System commands\000"
 2912      656D2063 
 2912      6F6D6D61 
 2912      6E647300 
 2913              	.LC124:
 2914 02a8 6C656400 		.ascii	"led\000"
 2915              	.LC125:
 2916 02ac 4C454420 		.ascii	"LED commands\000"
 2916      636F6D6D 
 2916      616E6473 
 2916      00
 2917 02b9 000000   		.space	3
 2918              	.LC126:
 2919 02bc 63616C00 		.ascii	"cal\000"
 2920              	.LC127:
 2921 02c0 43616C69 		.ascii	"Calibration data commands\000"
 2921      62726174 
 2921      696F6E20 
 2921      64617461 
 2921      20636F6D 
 2922 02da 0000     		.space	2
 2923              	.LC128:
 2924 02dc 00       		.ascii	"\000"
 2925 02dd 000000   		.space	3
 2926              	.LC129:
 2927 02e0 7072696E 		.ascii	"print\000"
 2927      7400
ARM GAS  C:\Users\TERENC~1\AppData\Local\Temp\ccNQUuJb.s 			page 69


 2928 02e6 0000     		.space	2
 2929              	.LC130:
 2930 02e8 7072696E 		.ascii	"print cal data\000"
 2930      74206361 
 2930      6C206461 
 2930      746100
 2931 02f7 00       		.space	1
 2932              	.LC131:
 2933 02f8 73657400 		.ascii	"set\000"
 2934              	.LC132:
 2935 02fc 73657420 		.ascii	"set cal data\000"
 2935      63616C20 
 2935      64617461 
 2935      00
 2936 0309 000000   		.space	3
 2937              	.LC133:
 2938 030c 73617665 		.ascii	"save\000"
 2938      00
 2939 0311 000000   		.space	3
 2940              	.LC134:
 2941 0314 636F6D6D 		.ascii	"commit cal data to flash\000"
 2941      69742063 
 2941      616C2064 
 2941      61746120 
 2941      746F2066 
 2942 032d 000000   		.space	3
 2943              	.LC135:
 2944 0330 70776D5F 		.ascii	"pwm_period\000"
 2944      70657269 
 2944      6F6400
 2945 033b 00       		.space	1
 2946              	.LC136:
 2947 033c 73657420 		.ascii	"set LED PWM period\000"
 2947      4C454420 
 2947      50574D20 
 2947      70657269 
 2947      6F6400
 2948 034f 00       		.space	1
 2949              	.LC137:
 2950 0350 73746172 		.ascii	"start\000"
 2950      7400
 2951 0356 0000     		.space	2
 2952              	.LC138:
 2953 0358 73746172 		.ascii	"start LED animation\000"
 2953      74204C45 
 2953      4420616E 
 2953      696D6174 
 2953      696F6E00 
 2954              	.LC139:
 2955 036c 73746F70 		.ascii	"stop\000"
 2955      00
 2956 0371 000000   		.space	3
 2957              	.LC140:
 2958 0374 73746F70 		.ascii	"stop LED animation\000"
 2958      204C4544 
 2958      20616E69 
 2958      6D617469 
ARM GAS  C:\Users\TERENC~1\AppData\Local\Temp\ccNQUuJb.s 			page 70


 2958      6F6E00
 2959 0387 00       		.space	1
 2960              	.LC141:
 2961 0388 63726173 		.ascii	"crash\000"
 2961      6800
 2962 038e 0000     		.space	2
 2963              	.LC142:
 2964 0390 74726967 		.ascii	"trigger a hard fault\000"
 2964      67657220 
 2964      61206861 
 2964      72642066 
 2964      61756C74 
 2965 03a5 000000   		.space	3
 2966              	.LC143:
 2967 03a8 696E666F 		.ascii	"info\000"
 2967      00
 2968 03ad 000000   		.space	3
 2969              	.LC144:
 2970 03b0 7072696E 		.ascii	"print info\000"
 2970      7420696E 
 2970      666F00
 2971 03bb 00       		.space	1
 2972              	.LC145:
 2973 03bc 72657365 		.ascii	"reset\000"
 2973      7400
 2974 03c2 0000     		.space	2
 2975              	.LC146:
 2976 03c4 74726967 		.ascii	"trigger a SW reset\000"
 2976      67657220 
 2976      61205357 
 2976      20726573 
 2976      657400
 2977 03d7 00       		.space	1
 2978              	.LC147:
 2979 03d8 61646300 		.ascii	"adc\000"
 2980              	.LC148:
 2981 03dc 7072696E 		.ascii	"print ADC values\000"
 2981      74204144 
 2981      43207661 
 2981      6C756573 
 2981      00
 2982 03ed 000000   		.space	3
 2983              	.LC149:
 2984 03f0 72656700 		.ascii	"reg\000"
 2985              	.LC150:
 2986 03f4 72656769 		.ascii	"register read (rd) and write (wr) <reg:uint8,data:u"
 2986      73746572 
 2986      20726561 
 2986      64202872 
 2986      64292061 
 2987 0427 696E7438 		.ascii	"int8>\000"
 2987      3E00
 2988 042d 000000   		.space	3
 2989              	.LC151:
 2990 0430 766F6C5F 		.ascii	"vol_set\000"
 2990      73657400 
 2991              	.LC152:
ARM GAS  C:\Users\TERENC~1\AppData\Local\Temp\ccNQUuJb.s 			page 71


 2992 0438 73657420 		.ascii	"set volume level <vol:uint8>\000"
 2992      766F6C75 
 2992      6D65206C 
 2992      6576656C 
 2992      203C766F 
 2993 0455 000000   		.space	3
 2994              	.LC153:
 2995 0458 766F6C5F 		.ascii	"vol_get\000"
 2995      67657400 
 2996              	.LC154:
 2997 0460 67657420 		.ascii	"get volume level\000"
 2997      766F6C75 
 2997      6D65206C 
 2997      6576656C 
 2997      00
 2998 0471 000000   		.space	3
 2999              	.LC155:
 3000 0474 7265675F 		.ascii	"reg_wr\000"
 3000      777200
 3001 047b 00       		.space	1
 3002              	.LC156:
 3003 047c 77726974 		.ascii	"write register <reg:uint8,data:uint16>)\000"
 3003      65207265 
 3003      67697374 
 3003      6572203C 
 3003      7265673A 
 3004              	.LC157:
 3005 04a4 7265675F 		.ascii	"reg_rd\000"
 3005      726400
 3006 04ab 00       		.space	1
 3007              	.LC158:
 3008 04ac 72656164 		.ascii	"read register <reg:uint8>\000"
 3008      20726567 
 3008      69737465 
 3008      72203C72 
 3008      65673A75 
 3009 04c6 0000     		.space	2
 3010              	.LC159:
 3011 04c8 73657420 		.ascii	"set GPIO state\000"
 3011      4750494F 
 3011      20737461 
 3011      746500
 3012 04d7 00       		.space	1
 3013              	.LC160:
 3014 04d8 636F6E66 		.ascii	"config\000"
 3014      696700
 3015 04df 00       		.space	1
 3016              	.LC161:
 3017 04e0 636F6E66 		.ascii	"configure GPIO\000"
 3017      69677572 
 3017      65204750 
 3017      494F00
 3018 04ef 00       		.space	1
 3019              	.LC162:
 3020 04f0 67657400 		.ascii	"get\000"
 3021              	.LC163:
 3022 04f4 67657420 		.ascii	"get GPIO state\000"
ARM GAS  C:\Users\TERENC~1\AppData\Local\Temp\ccNQUuJb.s 			page 72


 3022      4750494F 
 3022      20737461 
 3022      746500
 3023              		.bss
 3024              		.align	2
 3025              		.set	.LANCHOR1,. + 0
 3026              		.type	cmd_buf, %object
 3027              		.size	cmd_buf, 64
 3028              	cmd_buf:
 3029 0000 00000000 		.space	64
 3029      00000000 
 3029      00000000 
 3029      00000000 
 3029      00000000 
 3030              		.type	cmd_char_count, %object
 3031              		.size	cmd_char_count, 1
 3032              	cmd_char_count:
 3033 0040 00       		.space	1
 3034              		.text
 3035              	.Letext0:
 3036              		.file 2 "c:\\program files (x86)\\cypress\\psoc creator\\4.2\\psoc creator\\import\\gnu\\arm\\5.4.
 3037              		.file 3 "c:\\program files (x86)\\cypress\\psoc creator\\4.2\\psoc creator\\import\\gnu\\arm\\5.4.
 3038              		.file 4 "Generated_Source\\PSoC4/cytypes.h"
 3039              		.file 5 "./Calibration.h"
 3040              		.file 6 "c:\\program files (x86)\\cypress\\psoc creator\\4.2\\psoc creator\\import\\gnu\\arm\\5.4.
 3041              		.file 7 "./VolumeControl.h"
 3042              		.file 8 "./timers.h"
 3043              		.file 9 "./Application.h"
 3044              		.file 10 "./LED.h"
 3045              		.file 11 "Generated_Source\\PSoC4/USBUART.h"
 3046              		.file 12 "Generated_Source\\PSoC4/USBUART_cdc.h"
 3047              		.file 13 "c:\\program files (x86)\\cypress\\psoc creator\\4.2\\psoc creator\\import\\gnu\\arm\\5.4
 3048              		.file 14 "c:\\program files (x86)\\cypress\\psoc creator\\4.2\\psoc creator\\import\\gnu\\arm\\5.4
 3049              		.file 15 "./Codec.h"
 3050              		.file 16 "Generated_Source\\PSoC4/CyLib.h"
 3051              		.file 17 "./pcm1770.h"
 3052              		.section	.debug_info,"",%progbits
 3053              	.Ldebug_info0:
 3054 0000 461A0000 		.4byte	0x1a46
 3055 0004 0400     		.2byte	0x4
 3056 0006 00000000 		.4byte	.Ldebug_abbrev0
 3057 000a 04       		.byte	0x4
 3058 000b 01       		.uleb128 0x1
 3059 000c 72000000 		.4byte	.LASF108
 3060 0010 0C       		.byte	0xc
 3061 0011 17020000 		.4byte	.LASF109
 3062 0015 E3020000 		.4byte	.LASF110
 3063 0019 00000000 		.4byte	.Ldebug_ranges0+0
 3064 001d 00000000 		.4byte	0
 3065 0021 00000000 		.4byte	.Ldebug_line0
 3066 0025 02       		.uleb128 0x2
 3067 0026 04       		.byte	0x4
 3068 0027 05       		.byte	0x5
 3069 0028 696E7400 		.ascii	"int\000"
 3070 002c 03       		.uleb128 0x3
 3071 002d 04       		.byte	0x4
 3072 002e 07       		.byte	0x7
ARM GAS  C:\Users\TERENC~1\AppData\Local\Temp\ccNQUuJb.s 			page 73


 3073 002f 97020000 		.4byte	.LASF0
 3074 0033 03       		.uleb128 0x3
 3075 0034 08       		.byte	0x8
 3076 0035 05       		.byte	0x5
 3077 0036 52010000 		.4byte	.LASF1
 3078 003a 03       		.uleb128 0x3
 3079 003b 08       		.byte	0x8
 3080 003c 04       		.byte	0x4
 3081 003d 0E040000 		.4byte	.LASF2
 3082 0041 03       		.uleb128 0x3
 3083 0042 01       		.byte	0x1
 3084 0043 06       		.byte	0x6
 3085 0044 60010000 		.4byte	.LASF3
 3086 0048 04       		.uleb128 0x4
 3087 0049 2E000000 		.4byte	.LASF6
 3088 004d 02       		.byte	0x2
 3089 004e 1D       		.byte	0x1d
 3090 004f 53000000 		.4byte	0x53
 3091 0053 03       		.uleb128 0x3
 3092 0054 01       		.byte	0x1
 3093 0055 08       		.byte	0x8
 3094 0056 CF040000 		.4byte	.LASF4
 3095 005a 03       		.uleb128 0x3
 3096 005b 02       		.byte	0x2
 3097 005c 05       		.byte	0x5
 3098 005d B8030000 		.4byte	.LASF5
 3099 0061 04       		.uleb128 0x4
 3100 0062 87050000 		.4byte	.LASF7
 3101 0066 02       		.byte	0x2
 3102 0067 2B       		.byte	0x2b
 3103 0068 6C000000 		.4byte	0x6c
 3104 006c 03       		.uleb128 0x3
 3105 006d 02       		.byte	0x2
 3106 006e 07       		.byte	0x7
 3107 006f 27030000 		.4byte	.LASF8
 3108 0073 03       		.uleb128 0x3
 3109 0074 04       		.byte	0x4
 3110 0075 05       		.byte	0x5
 3111 0076 69000000 		.4byte	.LASF9
 3112 007a 04       		.uleb128 0x4
 3113 007b 77020000 		.4byte	.LASF10
 3114 007f 02       		.byte	0x2
 3115 0080 41       		.byte	0x41
 3116 0081 85000000 		.4byte	0x85
 3117 0085 03       		.uleb128 0x3
 3118 0086 04       		.byte	0x4
 3119 0087 07       		.byte	0x7
 3120 0088 7D010000 		.4byte	.LASF11
 3121 008c 03       		.uleb128 0x3
 3122 008d 08       		.byte	0x8
 3123 008e 07       		.byte	0x7
 3124 008f 00010000 		.4byte	.LASF12
 3125 0093 03       		.uleb128 0x3
 3126 0094 04       		.byte	0x4
 3127 0095 07       		.byte	0x7
 3128 0096 F1030000 		.4byte	.LASF13
 3129 009a 05       		.uleb128 0x5
ARM GAS  C:\Users\TERENC~1\AppData\Local\Temp\ccNQUuJb.s 			page 74


 3130 009b 04       		.byte	0x4
 3131 009c A0000000 		.4byte	0xa0
 3132 00a0 03       		.uleb128 0x3
 3133 00a1 01       		.byte	0x1
 3134 00a2 08       		.byte	0x8
 3135 00a3 63050000 		.4byte	.LASF14
 3136 00a7 05       		.uleb128 0x5
 3137 00a8 04       		.byte	0x4
 3138 00a9 AD000000 		.4byte	0xad
 3139 00ad 06       		.uleb128 0x6
 3140 00ae 05       		.uleb128 0x5
 3141 00af 04       		.byte	0x4
 3142 00b0 B4000000 		.4byte	0xb4
 3143 00b4 07       		.uleb128 0x7
 3144 00b5 A0000000 		.4byte	0xa0
 3145 00b9 04       		.uleb128 0x4
 3146 00ba ED050000 		.4byte	.LASF15
 3147 00be 03       		.byte	0x3
 3148 00bf 18       		.byte	0x18
 3149 00c0 48000000 		.4byte	0x48
 3150 00c4 04       		.uleb128 0x4
 3151 00c5 60020000 		.4byte	.LASF16
 3152 00c9 03       		.byte	0x3
 3153 00ca 24       		.byte	0x24
 3154 00cb 61000000 		.4byte	0x61
 3155 00cf 04       		.uleb128 0x4
 3156 00d0 30050000 		.4byte	.LASF17
 3157 00d4 03       		.byte	0x3
 3158 00d5 30       		.byte	0x30
 3159 00d6 7A000000 		.4byte	0x7a
 3160 00da 08       		.uleb128 0x8
 3161 00db 09050000 		.4byte	.LASF18
 3162 00df 04       		.byte	0x4
 3163 00e0 E401     		.2byte	0x1e4
 3164 00e2 53000000 		.4byte	0x53
 3165 00e6 08       		.uleb128 0x8
 3166 00e7 06000000 		.4byte	.LASF19
 3167 00eb 04       		.byte	0x4
 3168 00ec E501     		.2byte	0x1e5
 3169 00ee 6C000000 		.4byte	0x6c
 3170 00f2 08       		.uleb128 0x8
 3171 00f3 70020000 		.4byte	.LASF20
 3172 00f7 04       		.byte	0x4
 3173 00f8 E601     		.2byte	0x1e6
 3174 00fa 85000000 		.4byte	0x85
 3175 00fe 08       		.uleb128 0x8
 3176 00ff 03060000 		.4byte	.LASF21
 3177 0103 04       		.byte	0x4
 3178 0104 E801     		.2byte	0x1e8
 3179 0106 5A000000 		.4byte	0x5a
 3180 010a 03       		.uleb128 0x3
 3181 010b 04       		.byte	0x4
 3182 010c 04       		.byte	0x4
 3183 010d 48050000 		.4byte	.LASF22
 3184 0111 03       		.uleb128 0x3
 3185 0112 08       		.byte	0x8
 3186 0113 04       		.byte	0x4
ARM GAS  C:\Users\TERENC~1\AppData\Local\Temp\ccNQUuJb.s 			page 75


 3187 0114 69020000 		.4byte	.LASF23
 3188 0118 08       		.uleb128 0x8
 3189 0119 EB030000 		.4byte	.LASF24
 3190 011d 04       		.byte	0x4
 3191 011e 9002     		.2byte	0x290
 3192 0120 24010000 		.4byte	0x124
 3193 0124 09       		.uleb128 0x9
 3194 0125 F2000000 		.4byte	0xf2
 3195 0129 0A       		.uleb128 0xa
 3196 012a 01       		.byte	0x1
 3197 012b 53000000 		.4byte	0x53
 3198 012f 07       		.byte	0x7
 3199 0130 14       		.byte	0x14
 3200 0131 48010000 		.4byte	0x148
 3201 0135 0B       		.uleb128 0xb
 3202 0136 59060000 		.4byte	.LASF25
 3203 013a 00       		.byte	0
 3204 013b 0B       		.uleb128 0xb
 3205 013c 46000000 		.4byte	.LASF26
 3206 0140 01       		.byte	0x1
 3207 0141 0B       		.uleb128 0xb
 3208 0142 F0010000 		.4byte	.LASF27
 3209 0146 02       		.byte	0x2
 3210 0147 00       		.byte	0
 3211 0148 0C       		.uleb128 0xc
 3212 0149 14       		.byte	0x14
 3213 014a 05       		.byte	0x5
 3214 014b 12       		.byte	0x12
 3215 014c 99010000 		.4byte	0x199
 3216 0150 0D       		.uleb128 0xd
 3217 0151 82020000 		.4byte	.LASF28
 3218 0155 05       		.byte	0x5
 3219 0156 14       		.byte	0x14
 3220 0157 F2000000 		.4byte	0xf2
 3221 015b 00       		.byte	0
 3222 015c 0D       		.uleb128 0xd
 3223 015d 9E050000 		.4byte	.LASF29
 3224 0161 05       		.byte	0x5
 3225 0162 15       		.byte	0x15
 3226 0163 F2000000 		.4byte	0xf2
 3227 0167 04       		.byte	0x4
 3228 0168 0D       		.uleb128 0xd
 3229 0169 3B020000 		.4byte	.LASF30
 3230 016d 05       		.byte	0x5
 3231 016e 16       		.byte	0x16
 3232 016f 99010000 		.4byte	0x199
 3233 0173 08       		.byte	0x8
 3234 0174 0D       		.uleb128 0xd
 3235 0175 E8010000 		.4byte	.LASF31
 3236 0179 05       		.byte	0x5
 3237 017a 17       		.byte	0x17
 3238 017b 99010000 		.4byte	0x199
 3239 017f 0C       		.byte	0xc
 3240 0180 0D       		.uleb128 0xd
 3241 0181 0F030000 		.4byte	.LASF32
 3242 0185 05       		.byte	0x5
 3243 0186 19       		.byte	0x19
ARM GAS  C:\Users\TERENC~1\AppData\Local\Temp\ccNQUuJb.s 			page 76


 3244 0187 DA000000 		.4byte	0xda
 3245 018b 10       		.byte	0x10
 3246 018c 0D       		.uleb128 0xd
 3247 018d 99040000 		.4byte	.LASF33
 3248 0191 05       		.byte	0x5
 3249 0192 1A       		.byte	0x1a
 3250 0193 DA000000 		.4byte	0xda
 3251 0197 11       		.byte	0x11
 3252 0198 00       		.byte	0
 3253 0199 0E       		.uleb128 0xe
 3254 019a FE000000 		.4byte	0xfe
 3255 019e A9010000 		.4byte	0x1a9
 3256 01a2 0F       		.uleb128 0xf
 3257 01a3 93000000 		.4byte	0x93
 3258 01a7 01       		.byte	0x1
 3259 01a8 00       		.byte	0
 3260 01a9 04       		.uleb128 0x4
 3261 01aa F6040000 		.4byte	.LASF34
 3262 01ae 05       		.byte	0x5
 3263 01af 1B       		.byte	0x1b
 3264 01b0 48010000 		.4byte	0x148
 3265 01b4 0C       		.uleb128 0xc
 3266 01b5 0C       		.byte	0xc
 3267 01b6 01       		.byte	0x1
 3268 01b7 22       		.byte	0x22
 3269 01b8 E1010000 		.4byte	0x1e1
 3270 01bc 0D       		.uleb128 0xd
 3271 01bd 0A030000 		.4byte	.LASF35
 3272 01c1 01       		.byte	0x1
 3273 01c2 24       		.byte	0x24
 3274 01c3 AE000000 		.4byte	0xae
 3275 01c7 00       		.byte	0
 3276 01c8 0D       		.uleb128 0xd
 3277 01c9 68050000 		.4byte	.LASF36
 3278 01cd 01       		.byte	0x1
 3279 01ce 25       		.byte	0x25
 3280 01cf FB010000 		.4byte	0x1fb
 3281 01d3 04       		.byte	0x4
 3282 01d4 0D       		.uleb128 0xd
 3283 01d5 2F040000 		.4byte	.LASF37
 3284 01d9 01       		.byte	0x1
 3285 01da 26       		.byte	0x26
 3286 01db AE000000 		.4byte	0xae
 3287 01df 08       		.byte	0x8
 3288 01e0 00       		.byte	0
 3289 01e1 10       		.uleb128 0x10
 3290 01e2 25000000 		.4byte	0x25
 3291 01e6 F5010000 		.4byte	0x1f5
 3292 01ea 11       		.uleb128 0x11
 3293 01eb 25000000 		.4byte	0x25
 3294 01ef 11       		.uleb128 0x11
 3295 01f0 F5010000 		.4byte	0x1f5
 3296 01f4 00       		.byte	0
 3297 01f5 05       		.uleb128 0x5
 3298 01f6 04       		.byte	0x4
 3299 01f7 9A000000 		.4byte	0x9a
 3300 01fb 05       		.uleb128 0x5
ARM GAS  C:\Users\TERENC~1\AppData\Local\Temp\ccNQUuJb.s 			page 77


 3301 01fc 04       		.byte	0x4
 3302 01fd E1010000 		.4byte	0x1e1
 3303 0201 04       		.uleb128 0x4
 3304 0202 3C060000 		.4byte	.LASF38
 3305 0206 01       		.byte	0x1
 3306 0207 27       		.byte	0x27
 3307 0208 B4010000 		.4byte	0x1b4
 3308 020c 0C       		.uleb128 0xc
 3309 020d 0C       		.byte	0xc
 3310 020e 01       		.byte	0x1
 3311 020f 29       		.byte	0x29
 3312 0210 39020000 		.4byte	0x239
 3313 0214 0D       		.uleb128 0xd
 3314 0215 0A030000 		.4byte	.LASF35
 3315 0219 01       		.byte	0x1
 3316 021a 2B       		.byte	0x2b
 3317 021b AE000000 		.4byte	0xae
 3318 021f 00       		.byte	0
 3319 0220 0D       		.uleb128 0xd
 3320 0221 91020000 		.4byte	.LASF39
 3321 0225 01       		.byte	0x1
 3322 0226 2C       		.byte	0x2c
 3323 0227 39020000 		.4byte	0x239
 3324 022b 04       		.byte	0x4
 3325 022c 0D       		.uleb128 0xd
 3326 022d 2F040000 		.4byte	.LASF37
 3327 0231 01       		.byte	0x1
 3328 0232 2D       		.byte	0x2d
 3329 0233 AE000000 		.4byte	0xae
 3330 0237 08       		.byte	0x8
 3331 0238 00       		.byte	0
 3332 0239 05       		.uleb128 0x5
 3333 023a 04       		.byte	0x4
 3334 023b 01020000 		.4byte	0x201
 3335 023f 04       		.uleb128 0x4
 3336 0240 34040000 		.4byte	.LASF40
 3337 0244 01       		.byte	0x1
 3338 0245 2E       		.byte	0x2e
 3339 0246 0C020000 		.4byte	0x20c
 3340 024a 12       		.uleb128 0x12
 3341 024b 72050000 		.4byte	.LASF43
 3342 024f 01       		.byte	0x1
 3343 0250 5A01     		.2byte	0x15a
 3344 0252 25000000 		.4byte	0x25
 3345 0256 00000000 		.4byte	.LFB11
 3346 025a 34000000 		.4byte	.LFE11-.LFB11
 3347 025e 01       		.uleb128 0x1
 3348 025f 9C       		.byte	0x9c
 3349 0260 DC020000 		.4byte	0x2dc
 3350 0264 13       		.uleb128 0x13
 3351 0265 92050000 		.4byte	.LASF41
 3352 0269 01       		.byte	0x1
 3353 026a 5A01     		.2byte	0x15a
 3354 026c 25000000 		.4byte	0x25
 3355 0270 00000000 		.4byte	.LLST0
 3356 0274 13       		.uleb128 0x13
 3357 0275 54060000 		.4byte	.LASF42
ARM GAS  C:\Users\TERENC~1\AppData\Local\Temp\ccNQUuJb.s 			page 78


 3358 0279 01       		.byte	0x1
 3359 027a 5A01     		.2byte	0x15a
 3360 027c F5010000 		.4byte	0x1f5
 3361 0280 21000000 		.4byte	.LLST1
 3362 0284 14       		.uleb128 0x14
 3363 0285 667000   		.ascii	"fp\000"
 3364 0288 01       		.byte	0x1
 3365 0289 5C01     		.2byte	0x15c
 3366 028b A7000000 		.4byte	0xa7
 3367 028f 00       		.byte	0
 3368 0290 15       		.uleb128 0x15
 3369 0291 06000000 		.4byte	.LVL2
 3370 0295 01       		.uleb128 0x1
 3371 0296 30       		.byte	0x30
 3372 0297 16       		.uleb128 0x16
 3373 0298 0A000000 		.4byte	.LVL3
 3374 029c 7B190000 		.4byte	0x197b
 3375 02a0 16       		.uleb128 0x16
 3376 02a1 12000000 		.4byte	.LVL4
 3377 02a5 87190000 		.4byte	0x1987
 3378 02a9 17       		.uleb128 0x17
 3379 02aa 22000000 		.4byte	.LVL5
 3380 02ae 92190000 		.4byte	0x1992
 3381 02b2 CB020000 		.4byte	0x2cb
 3382 02b6 18       		.uleb128 0x18
 3383 02b7 01       		.uleb128 0x1
 3384 02b8 50       		.byte	0x50
 3385 02b9 02       		.uleb128 0x2
 3386 02ba 74       		.byte	0x74
 3387 02bb 00       		.sleb128 0
 3388 02bc 18       		.uleb128 0x18
 3389 02bd 01       		.uleb128 0x1
 3390 02be 51       		.byte	0x51
 3391 02bf 05       		.uleb128 0x5
 3392 02c0 03       		.byte	0x3
 3393 02c1 00000000 		.4byte	.LC1
 3394 02c5 18       		.uleb128 0x18
 3395 02c6 01       		.uleb128 0x1
 3396 02c7 52       		.byte	0x52
 3397 02c8 01       		.uleb128 0x1
 3398 02c9 3A       		.byte	0x3a
 3399 02ca 00       		.byte	0
 3400 02cb 19       		.uleb128 0x19
 3401 02cc 28000000 		.4byte	.LVL6
 3402 02d0 9B190000 		.4byte	0x199b
 3403 02d4 18       		.uleb128 0x18
 3404 02d5 01       		.uleb128 0x1
 3405 02d6 50       		.byte	0x50
 3406 02d7 02       		.uleb128 0x2
 3407 02d8 74       		.byte	0x74
 3408 02d9 00       		.sleb128 0
 3409 02da 00       		.byte	0
 3410 02db 00       		.byte	0
 3411 02dc 1A       		.uleb128 0x1a
 3412 02dd A1030000 		.4byte	.LASF44
 3413 02e1 01       		.byte	0x1
 3414 02e2 BD       		.byte	0xbd
ARM GAS  C:\Users\TERENC~1\AppData\Local\Temp\ccNQUuJb.s 			page 79


 3415 02e3 25000000 		.4byte	0x25
 3416 02e7 00000000 		.4byte	.LFB4
 3417 02eb 74000000 		.4byte	.LFE4-.LFB4
 3418 02ef 01       		.uleb128 0x1
 3419 02f0 9C       		.byte	0x9c
 3420 02f1 B1030000 		.4byte	0x3b1
 3421 02f5 1B       		.uleb128 0x1b
 3422 02f6 92050000 		.4byte	.LASF41
 3423 02fa 01       		.byte	0x1
 3424 02fb BD       		.byte	0xbd
 3425 02fc 25000000 		.4byte	0x25
 3426 0300 42000000 		.4byte	.LLST2
 3427 0304 1B       		.uleb128 0x1b
 3428 0305 54060000 		.4byte	.LASF42
 3429 0309 01       		.byte	0x1
 3430 030a BD       		.byte	0xbd
 3431 030b F5010000 		.4byte	0x1f5
 3432 030f 8F000000 		.4byte	.LLST3
 3433 0313 1C       		.uleb128 0x1c
 3434 0314 8C020000 		.4byte	.LASF45
 3435 0318 01       		.byte	0x1
 3436 0319 BF       		.byte	0xbf
 3437 031a CF000000 		.4byte	0xcf
 3438 031e DF000000 		.4byte	.LLST4
 3439 0322 1D       		.uleb128 0x1d
 3440 0323 70696E00 		.ascii	"pin\000"
 3441 0327 01       		.byte	0x1
 3442 0328 BF       		.byte	0xbf
 3443 0329 CF000000 		.4byte	0xcf
 3444 032d FD000000 		.4byte	.LLST5
 3445 0331 1C       		.uleb128 0x1c
 3446 0332 6D050000 		.4byte	.LASF46
 3447 0336 01       		.byte	0x1
 3448 0337 BF       		.byte	0xbf
 3449 0338 CF000000 		.4byte	0xcf
 3450 033c 1B010000 		.4byte	.LLST6
 3451 0340 1D       		.uleb128 0x1d
 3452 0341 6900     		.ascii	"i\000"
 3453 0343 01       		.byte	0x1
 3454 0344 C0       		.byte	0xc0
 3455 0345 25000000 		.4byte	0x25
 3456 0349 2E010000 		.4byte	.LLST7
 3457 034d 16       		.uleb128 0x16
 3458 034e 0C000000 		.4byte	.LVL9
 3459 0352 7B190000 		.4byte	0x197b
 3460 0356 16       		.uleb128 0x16
 3461 0357 14000000 		.4byte	.LVL10
 3462 035b 87190000 		.4byte	0x1987
 3463 035f 17       		.uleb128 0x17
 3464 0360 24000000 		.4byte	.LVL12
 3465 0364 92190000 		.4byte	0x1992
 3466 0368 81030000 		.4byte	0x381
 3467 036c 18       		.uleb128 0x18
 3468 036d 01       		.uleb128 0x1
 3469 036e 50       		.byte	0x50
 3470 036f 02       		.uleb128 0x2
 3471 0370 74       		.byte	0x74
ARM GAS  C:\Users\TERENC~1\AppData\Local\Temp\ccNQUuJb.s 			page 80


 3472 0371 00       		.sleb128 0
 3473 0372 18       		.uleb128 0x18
 3474 0373 01       		.uleb128 0x1
 3475 0374 51       		.byte	0x51
 3476 0375 05       		.uleb128 0x5
 3477 0376 03       		.byte	0x3
 3478 0377 0C000000 		.4byte	.LC4
 3479 037b 18       		.uleb128 0x18
 3480 037c 01       		.uleb128 0x1
 3481 037d 52       		.byte	0x52
 3482 037e 01       		.uleb128 0x1
 3483 037f 4E       		.byte	0x4e
 3484 0380 00       		.byte	0
 3485 0381 17       		.uleb128 0x17
 3486 0382 2A000000 		.4byte	.LVL13
 3487 0386 9B190000 		.4byte	0x199b
 3488 038a 95030000 		.4byte	0x395
 3489 038e 18       		.uleb128 0x18
 3490 038f 01       		.uleb128 0x1
 3491 0390 50       		.byte	0x50
 3492 0391 02       		.uleb128 0x2
 3493 0392 74       		.byte	0x74
 3494 0393 00       		.sleb128 0
 3495 0394 00       		.byte	0
 3496 0395 16       		.uleb128 0x16
 3497 0396 36000000 		.4byte	.LVL16
 3498 039a A6190000 		.4byte	0x19a6
 3499 039e 16       		.uleb128 0x16
 3500 039f 3E000000 		.4byte	.LVL19
 3501 03a3 A6190000 		.4byte	0x19a6
 3502 03a7 16       		.uleb128 0x16
 3503 03a8 46000000 		.4byte	.LVL22
 3504 03ac A6190000 		.4byte	0x19a6
 3505 03b0 00       		.byte	0
 3506 03b1 12       		.uleb128 0x12
 3507 03b2 21020000 		.4byte	.LASF47
 3508 03b6 01       		.byte	0x1
 3509 03b7 7A01     		.2byte	0x17a
 3510 03b9 25000000 		.4byte	0x25
 3511 03bd 00000000 		.4byte	.LFB15
 3512 03c1 78000000 		.4byte	.LFE15-.LFB15
 3513 03c5 01       		.uleb128 0x1
 3514 03c6 9C       		.byte	0x9c
 3515 03c7 8C040000 		.4byte	0x48c
 3516 03cb 13       		.uleb128 0x13
 3517 03cc 92050000 		.4byte	.LASF41
 3518 03d0 01       		.byte	0x1
 3519 03d1 7A01     		.2byte	0x17a
 3520 03d3 25000000 		.4byte	0x25
 3521 03d7 66010000 		.4byte	.LLST8
 3522 03db 13       		.uleb128 0x13
 3523 03dc 54060000 		.4byte	.LASF42
 3524 03e0 01       		.byte	0x1
 3525 03e1 7A01     		.2byte	0x17a
 3526 03e3 F5010000 		.4byte	0x1f5
 3527 03e7 B3010000 		.4byte	.LLST9
 3528 03eb 14       		.uleb128 0x14
ARM GAS  C:\Users\TERENC~1\AppData\Local\Temp\ccNQUuJb.s 			page 81


 3529 03ec 6900     		.ascii	"i\000"
 3530 03ee 01       		.byte	0x1
 3531 03ef 7C01     		.2byte	0x17c
 3532 03f1 25000000 		.4byte	0x25
 3533 03f5 02       		.byte	0x2
 3534 03f6 16       		.uleb128 0x16
 3535 03f7 0A000000 		.4byte	.LVL30
 3536 03fb 7B190000 		.4byte	0x197b
 3537 03ff 16       		.uleb128 0x16
 3538 0400 12000000 		.4byte	.LVL31
 3539 0404 87190000 		.4byte	0x1987
 3540 0408 17       		.uleb128 0x17
 3541 0409 22000000 		.4byte	.LVL32
 3542 040d 92190000 		.4byte	0x1992
 3543 0411 2A040000 		.4byte	0x42a
 3544 0415 18       		.uleb128 0x18
 3545 0416 01       		.uleb128 0x1
 3546 0417 50       		.byte	0x50
 3547 0418 02       		.uleb128 0x2
 3548 0419 74       		.byte	0x74
 3549 041a 00       		.sleb128 0
 3550 041b 18       		.uleb128 0x18
 3551 041c 01       		.uleb128 0x1
 3552 041d 51       		.byte	0x51
 3553 041e 05       		.uleb128 0x5
 3554 041f 03       		.byte	0x3
 3555 0420 0C000000 		.4byte	.LC4
 3556 0424 18       		.uleb128 0x18
 3557 0425 01       		.uleb128 0x1
 3558 0426 52       		.byte	0x52
 3559 0427 01       		.uleb128 0x1
 3560 0428 4E       		.byte	0x4e
 3561 0429 00       		.byte	0
 3562 042a 17       		.uleb128 0x17
 3563 042b 28000000 		.4byte	.LVL33
 3564 042f 9B190000 		.4byte	0x199b
 3565 0433 3E040000 		.4byte	0x43e
 3566 0437 18       		.uleb128 0x18
 3567 0438 01       		.uleb128 0x1
 3568 0439 50       		.byte	0x50
 3569 043a 02       		.uleb128 0x2
 3570 043b 74       		.byte	0x74
 3571 043c 00       		.sleb128 0
 3572 043d 00       		.byte	0
 3573 043e 16       		.uleb128 0x16
 3574 043f 34000000 		.4byte	.LVL36
 3575 0443 A6190000 		.4byte	0x19a6
 3576 0447 16       		.uleb128 0x16
 3577 0448 3C000000 		.4byte	.LVL37
 3578 044c 7B190000 		.4byte	0x197b
 3579 0450 16       		.uleb128 0x16
 3580 0451 44000000 		.4byte	.LVL38
 3581 0455 87190000 		.4byte	0x1987
 3582 0459 17       		.uleb128 0x17
 3583 045a 54000000 		.4byte	.LVL39
 3584 045e 92190000 		.4byte	0x1992
 3585 0462 7B040000 		.4byte	0x47b
ARM GAS  C:\Users\TERENC~1\AppData\Local\Temp\ccNQUuJb.s 			page 82


 3586 0466 18       		.uleb128 0x18
 3587 0467 01       		.uleb128 0x1
 3588 0468 50       		.byte	0x50
 3589 0469 02       		.uleb128 0x2
 3590 046a 74       		.byte	0x74
 3591 046b 00       		.sleb128 0
 3592 046c 18       		.uleb128 0x18
 3593 046d 01       		.uleb128 0x1
 3594 046e 51       		.byte	0x51
 3595 046f 05       		.uleb128 0x5
 3596 0470 03       		.byte	0x3
 3597 0471 2C000000 		.4byte	.LC10
 3598 0475 18       		.uleb128 0x18
 3599 0476 01       		.uleb128 0x1
 3600 0477 52       		.byte	0x52
 3601 0478 01       		.uleb128 0x1
 3602 0479 3A       		.byte	0x3a
 3603 047a 00       		.byte	0
 3604 047b 19       		.uleb128 0x19
 3605 047c 5A000000 		.4byte	.LVL40
 3606 0480 9B190000 		.4byte	0x199b
 3607 0484 18       		.uleb128 0x18
 3608 0485 01       		.uleb128 0x1
 3609 0486 50       		.byte	0x50
 3610 0487 02       		.uleb128 0x2
 3611 0488 74       		.byte	0x74
 3612 0489 00       		.sleb128 0
 3613 048a 00       		.byte	0
 3614 048b 00       		.byte	0
 3615 048c 1A       		.uleb128 0x1a
 3616 048d AD020000 		.4byte	.LASF48
 3617 0491 01       		.byte	0x1
 3618 0492 9D       		.byte	0x9d
 3619 0493 25000000 		.4byte	0x25
 3620 0497 00000000 		.4byte	.LFB3
 3621 049b C4000000 		.4byte	.LFE3-.LFB3
 3622 049f 01       		.uleb128 0x1
 3623 04a0 9C       		.byte	0x9c
 3624 04a1 A0050000 		.4byte	0x5a0
 3625 04a5 1B       		.uleb128 0x1b
 3626 04a6 92050000 		.4byte	.LASF41
 3627 04aa 01       		.byte	0x1
 3628 04ab 9D       		.byte	0x9d
 3629 04ac 25000000 		.4byte	0x25
 3630 04b0 ED010000 		.4byte	.LLST10
 3631 04b4 1B       		.uleb128 0x1b
 3632 04b5 54060000 		.4byte	.LASF42
 3633 04b9 01       		.byte	0x1
 3634 04ba 9D       		.byte	0x9d
 3635 04bb F5010000 		.4byte	0x1f5
 3636 04bf 3A020000 		.4byte	.LLST11
 3637 04c3 1C       		.uleb128 0x1c
 3638 04c4 8C020000 		.4byte	.LASF45
 3639 04c8 01       		.byte	0x1
 3640 04c9 9F       		.byte	0x9f
 3641 04ca CF000000 		.4byte	0xcf
 3642 04ce A3020000 		.4byte	.LLST12
ARM GAS  C:\Users\TERENC~1\AppData\Local\Temp\ccNQUuJb.s 			page 83


 3643 04d2 1D       		.uleb128 0x1d
 3644 04d3 70696E00 		.ascii	"pin\000"
 3645 04d7 01       		.byte	0x1
 3646 04d8 9F       		.byte	0x9f
 3647 04d9 CF000000 		.4byte	0xcf
 3648 04dd C1020000 		.4byte	.LLST13
 3649 04e1 1C       		.uleb128 0x1c
 3650 04e2 11020000 		.4byte	.LASF49
 3651 04e6 01       		.byte	0x1
 3652 04e7 9F       		.byte	0x9f
 3653 04e8 CF000000 		.4byte	0xcf
 3654 04ec EA020000 		.4byte	.LLST14
 3655 04f0 1D       		.uleb128 0x1d
 3656 04f1 6900     		.ascii	"i\000"
 3657 04f3 01       		.byte	0x1
 3658 04f4 A0       		.byte	0xa0
 3659 04f5 25000000 		.4byte	0x25
 3660 04f9 FD020000 		.4byte	.LLST15
 3661 04fd 16       		.uleb128 0x16
 3662 04fe 0C000000 		.4byte	.LVL43
 3663 0502 7B190000 		.4byte	0x197b
 3664 0506 16       		.uleb128 0x16
 3665 0507 14000000 		.4byte	.LVL44
 3666 050b 87190000 		.4byte	0x1987
 3667 050f 17       		.uleb128 0x17
 3668 0510 24000000 		.4byte	.LVL46
 3669 0514 92190000 		.4byte	0x1992
 3670 0518 31050000 		.4byte	0x531
 3671 051c 18       		.uleb128 0x18
 3672 051d 01       		.uleb128 0x1
 3673 051e 50       		.byte	0x50
 3674 051f 02       		.uleb128 0x2
 3675 0520 74       		.byte	0x74
 3676 0521 00       		.sleb128 0
 3677 0522 18       		.uleb128 0x18
 3678 0523 01       		.uleb128 0x1
 3679 0524 51       		.byte	0x51
 3680 0525 05       		.uleb128 0x5
 3681 0526 03       		.byte	0x3
 3682 0527 0C000000 		.4byte	.LC4
 3683 052b 18       		.uleb128 0x18
 3684 052c 01       		.uleb128 0x1
 3685 052d 52       		.byte	0x52
 3686 052e 01       		.uleb128 0x1
 3687 052f 4E       		.byte	0x4e
 3688 0530 00       		.byte	0
 3689 0531 17       		.uleb128 0x17
 3690 0532 2A000000 		.4byte	.LVL47
 3691 0536 9B190000 		.4byte	0x199b
 3692 053a 45050000 		.4byte	0x545
 3693 053e 18       		.uleb128 0x18
 3694 053f 01       		.uleb128 0x1
 3695 0540 50       		.byte	0x50
 3696 0541 02       		.uleb128 0x2
 3697 0542 74       		.byte	0x74
 3698 0543 00       		.sleb128 0
 3699 0544 00       		.byte	0
ARM GAS  C:\Users\TERENC~1\AppData\Local\Temp\ccNQUuJb.s 			page 84


 3700 0545 16       		.uleb128 0x16
 3701 0546 36000000 		.4byte	.LVL50
 3702 054a A6190000 		.4byte	0x19a6
 3703 054e 16       		.uleb128 0x16
 3704 054f 3E000000 		.4byte	.LVL53
 3705 0553 A6190000 		.4byte	0x19a6
 3706 0557 16       		.uleb128 0x16
 3707 0558 46000000 		.4byte	.LVL56
 3708 055c A6190000 		.4byte	0x19a6
 3709 0560 16       		.uleb128 0x16
 3710 0561 80000000 		.4byte	.LVL59
 3711 0565 7B190000 		.4byte	0x197b
 3712 0569 16       		.uleb128 0x16
 3713 056a 88000000 		.4byte	.LVL60
 3714 056e 87190000 		.4byte	0x1987
 3715 0572 17       		.uleb128 0x17
 3716 0573 9E000000 		.4byte	.LVL61
 3717 0577 B1190000 		.4byte	0x19b1
 3718 057b 8F050000 		.4byte	0x58f
 3719 057f 18       		.uleb128 0x18
 3720 0580 01       		.uleb128 0x1
 3721 0581 50       		.byte	0x50
 3722 0582 02       		.uleb128 0x2
 3723 0583 74       		.byte	0x74
 3724 0584 00       		.sleb128 0
 3725 0585 18       		.uleb128 0x18
 3726 0586 01       		.uleb128 0x1
 3727 0587 51       		.byte	0x51
 3728 0588 05       		.uleb128 0x5
 3729 0589 03       		.byte	0x3
 3730 058a 38000000 		.4byte	.LC15
 3731 058e 00       		.byte	0
 3732 058f 19       		.uleb128 0x19
 3733 0590 A4000000 		.4byte	.LVL62
 3734 0594 9B190000 		.4byte	0x199b
 3735 0598 18       		.uleb128 0x18
 3736 0599 01       		.uleb128 0x1
 3737 059a 50       		.byte	0x50
 3738 059b 02       		.uleb128 0x2
 3739 059c 74       		.byte	0x74
 3740 059d 00       		.sleb128 0
 3741 059e 00       		.byte	0
 3742 059f 00       		.byte	0
 3743 05a0 1A       		.uleb128 0x1a
 3744 05a1 FA030000 		.4byte	.LASF50
 3745 05a5 01       		.byte	0x1
 3746 05a6 D3       		.byte	0xd3
 3747 05a7 25000000 		.4byte	0x25
 3748 05ab 00000000 		.4byte	.LFB5
 3749 05af 8C000000 		.4byte	.LFE5-.LFB5
 3750 05b3 01       		.uleb128 0x1
 3751 05b4 9C       		.byte	0x9c
 3752 05b5 9C060000 		.4byte	0x69c
 3753 05b9 1B       		.uleb128 0x1b
 3754 05ba 92050000 		.4byte	.LASF41
 3755 05be 01       		.byte	0x1
 3756 05bf D3       		.byte	0xd3
ARM GAS  C:\Users\TERENC~1\AppData\Local\Temp\ccNQUuJb.s 			page 85


 3757 05c0 25000000 		.4byte	0x25
 3758 05c4 41030000 		.4byte	.LLST16
 3759 05c8 1B       		.uleb128 0x1b
 3760 05c9 54060000 		.4byte	.LASF42
 3761 05cd 01       		.byte	0x1
 3762 05ce D3       		.byte	0xd3
 3763 05cf F5010000 		.4byte	0x1f5
 3764 05d3 8E030000 		.4byte	.LLST17
 3765 05d7 1C       		.uleb128 0x1c
 3766 05d8 8C020000 		.4byte	.LASF45
 3767 05dc 01       		.byte	0x1
 3768 05dd D5       		.byte	0xd5
 3769 05de CF000000 		.4byte	0xcf
 3770 05e2 F7030000 		.4byte	.LLST18
 3771 05e6 1D       		.uleb128 0x1d
 3772 05e7 70696E00 		.ascii	"pin\000"
 3773 05eb 01       		.byte	0x1
 3774 05ec D5       		.byte	0xd5
 3775 05ed CF000000 		.4byte	0xcf
 3776 05f1 20040000 		.4byte	.LLST19
 3777 05f5 1D       		.uleb128 0x1d
 3778 05f6 6900     		.ascii	"i\000"
 3779 05f8 01       		.byte	0x1
 3780 05f9 D6       		.byte	0xd6
 3781 05fa 25000000 		.4byte	0x25
 3782 05fe 49040000 		.4byte	.LLST20
 3783 0602 16       		.uleb128 0x16
 3784 0603 0C000000 		.4byte	.LVL68
 3785 0607 7B190000 		.4byte	0x197b
 3786 060b 16       		.uleb128 0x16
 3787 060c 14000000 		.4byte	.LVL69
 3788 0610 87190000 		.4byte	0x1987
 3789 0614 17       		.uleb128 0x17
 3790 0615 24000000 		.4byte	.LVL71
 3791 0619 92190000 		.4byte	0x1992
 3792 061d 36060000 		.4byte	0x636
 3793 0621 18       		.uleb128 0x18
 3794 0622 01       		.uleb128 0x1
 3795 0623 50       		.byte	0x50
 3796 0624 02       		.uleb128 0x2
 3797 0625 74       		.byte	0x74
 3798 0626 00       		.sleb128 0
 3799 0627 18       		.uleb128 0x18
 3800 0628 01       		.uleb128 0x1
 3801 0629 51       		.byte	0x51
 3802 062a 05       		.uleb128 0x5
 3803 062b 03       		.byte	0x3
 3804 062c 0C000000 		.4byte	.LC4
 3805 0630 18       		.uleb128 0x18
 3806 0631 01       		.uleb128 0x1
 3807 0632 52       		.byte	0x52
 3808 0633 01       		.uleb128 0x1
 3809 0634 4E       		.byte	0x4e
 3810 0635 00       		.byte	0
 3811 0636 17       		.uleb128 0x17
 3812 0637 2A000000 		.4byte	.LVL72
 3813 063b 9B190000 		.4byte	0x199b
ARM GAS  C:\Users\TERENC~1\AppData\Local\Temp\ccNQUuJb.s 			page 86


 3814 063f 4A060000 		.4byte	0x64a
 3815 0643 18       		.uleb128 0x18
 3816 0644 01       		.uleb128 0x1
 3817 0645 50       		.byte	0x50
 3818 0646 02       		.uleb128 0x2
 3819 0647 74       		.byte	0x74
 3820 0648 00       		.sleb128 0
 3821 0649 00       		.byte	0
 3822 064a 16       		.uleb128 0x16
 3823 064b 36000000 		.4byte	.LVL75
 3824 064f A6190000 		.4byte	0x19a6
 3825 0653 16       		.uleb128 0x16
 3826 0654 3E000000 		.4byte	.LVL78
 3827 0658 A6190000 		.4byte	0x19a6
 3828 065c 16       		.uleb128 0x16
 3829 065d 44000000 		.4byte	.LVL80
 3830 0661 7B190000 		.4byte	0x197b
 3831 0665 16       		.uleb128 0x16
 3832 0666 4C000000 		.4byte	.LVL81
 3833 066a 87190000 		.4byte	0x1987
 3834 066e 17       		.uleb128 0x17
 3835 066f 68000000 		.4byte	.LVL84
 3836 0673 B1190000 		.4byte	0x19b1
 3837 0677 8B060000 		.4byte	0x68b
 3838 067b 18       		.uleb128 0x18
 3839 067c 01       		.uleb128 0x1
 3840 067d 50       		.byte	0x50
 3841 067e 02       		.uleb128 0x2
 3842 067f 74       		.byte	0x74
 3843 0680 00       		.sleb128 0
 3844 0681 18       		.uleb128 0x18
 3845 0682 01       		.uleb128 0x1
 3846 0683 51       		.byte	0x51
 3847 0684 05       		.uleb128 0x5
 3848 0685 03       		.byte	0x3
 3849 0686 38000000 		.4byte	.LC15
 3850 068a 00       		.byte	0
 3851 068b 19       		.uleb128 0x19
 3852 068c 6E000000 		.4byte	.LVL85
 3853 0690 9B190000 		.4byte	0x199b
 3854 0694 18       		.uleb128 0x18
 3855 0695 01       		.uleb128 0x1
 3856 0696 50       		.byte	0x50
 3857 0697 02       		.uleb128 0x2
 3858 0698 74       		.byte	0x74
 3859 0699 00       		.sleb128 0
 3860 069a 00       		.byte	0
 3861 069b 00       		.byte	0
 3862 069c 12       		.uleb128 0x12
 3863 069d 28060000 		.4byte	.LASF51
 3864 06a1 01       		.byte	0x1
 3865 06a2 6501     		.2byte	0x165
 3866 06a4 25000000 		.4byte	0x25
 3867 06a8 00000000 		.4byte	.LFB12
 3868 06ac 38000000 		.4byte	.LFE12-.LFB12
 3869 06b0 01       		.uleb128 0x1
 3870 06b1 9C       		.byte	0x9c
ARM GAS  C:\Users\TERENC~1\AppData\Local\Temp\ccNQUuJb.s 			page 87


 3871 06b2 16070000 		.4byte	0x716
 3872 06b6 13       		.uleb128 0x13
 3873 06b7 92050000 		.4byte	.LASF41
 3874 06bb 01       		.byte	0x1
 3875 06bc 6501     		.2byte	0x165
 3876 06be 25000000 		.4byte	0x25
 3877 06c2 81040000 		.4byte	.LLST21
 3878 06c6 13       		.uleb128 0x13
 3879 06c7 54060000 		.4byte	.LASF42
 3880 06cb 01       		.byte	0x1
 3881 06cc 6501     		.2byte	0x165
 3882 06ce F5010000 		.4byte	0x1f5
 3883 06d2 A2040000 		.4byte	.LLST22
 3884 06d6 16       		.uleb128 0x16
 3885 06d7 06000000 		.4byte	.LVL90
 3886 06db 7B190000 		.4byte	0x197b
 3887 06df 16       		.uleb128 0x16
 3888 06e0 0E000000 		.4byte	.LVL91
 3889 06e4 87190000 		.4byte	0x1987
 3890 06e8 17       		.uleb128 0x17
 3891 06e9 20000000 		.4byte	.LVL92
 3892 06ed B1190000 		.4byte	0x19b1
 3893 06f1 05070000 		.4byte	0x705
 3894 06f5 18       		.uleb128 0x18
 3895 06f6 01       		.uleb128 0x1
 3896 06f7 50       		.byte	0x50
 3897 06f8 02       		.uleb128 0x2
 3898 06f9 74       		.byte	0x74
 3899 06fa 00       		.sleb128 0
 3900 06fb 18       		.uleb128 0x18
 3901 06fc 01       		.uleb128 0x1
 3902 06fd 51       		.byte	0x51
 3903 06fe 05       		.uleb128 0x5
 3904 06ff 03       		.byte	0x3
 3905 0700 48000000 		.4byte	.LC22
 3906 0704 00       		.byte	0
 3907 0705 19       		.uleb128 0x19
 3908 0706 26000000 		.4byte	.LVL93
 3909 070a 9B190000 		.4byte	0x199b
 3910 070e 18       		.uleb128 0x18
 3911 070f 01       		.uleb128 0x1
 3912 0710 50       		.byte	0x50
 3913 0711 02       		.uleb128 0x2
 3914 0712 74       		.byte	0x74
 3915 0713 00       		.sleb128 0
 3916 0714 00       		.byte	0
 3917 0715 00       		.byte	0
 3918 0716 12       		.uleb128 0x12
 3919 0717 C2030000 		.4byte	.LASF52
 3920 071b 01       		.byte	0x1
 3921 071c 7301     		.2byte	0x173
 3922 071e 25000000 		.4byte	0x25
 3923 0722 00000000 		.4byte	.LFB14
 3924 0726 3C000000 		.4byte	.LFE14-.LFB14
 3925 072a 01       		.uleb128 0x1
 3926 072b 9C       		.byte	0x9c
 3927 072c 90070000 		.4byte	0x790
ARM GAS  C:\Users\TERENC~1\AppData\Local\Temp\ccNQUuJb.s 			page 88


 3928 0730 13       		.uleb128 0x13
 3929 0731 92050000 		.4byte	.LASF41
 3930 0735 01       		.byte	0x1
 3931 0736 7301     		.2byte	0x173
 3932 0738 25000000 		.4byte	0x25
 3933 073c C3040000 		.4byte	.LLST23
 3934 0740 13       		.uleb128 0x13
 3935 0741 54060000 		.4byte	.LASF42
 3936 0745 01       		.byte	0x1
 3937 0746 7301     		.2byte	0x173
 3938 0748 F5010000 		.4byte	0x1f5
 3939 074c E4040000 		.4byte	.LLST24
 3940 0750 16       		.uleb128 0x16
 3941 0751 06000000 		.4byte	.LVL95
 3942 0755 7B190000 		.4byte	0x197b
 3943 0759 16       		.uleb128 0x16
 3944 075a 0E000000 		.4byte	.LVL96
 3945 075e 87190000 		.4byte	0x1987
 3946 0762 17       		.uleb128 0x17
 3947 0763 26000000 		.4byte	.LVL97
 3948 0767 B1190000 		.4byte	0x19b1
 3949 076b 7F070000 		.4byte	0x77f
 3950 076f 18       		.uleb128 0x18
 3951 0770 01       		.uleb128 0x1
 3952 0771 50       		.byte	0x50
 3953 0772 02       		.uleb128 0x2
 3954 0773 74       		.byte	0x74
 3955 0774 00       		.sleb128 0
 3956 0775 18       		.uleb128 0x18
 3957 0776 01       		.uleb128 0x1
 3958 0777 51       		.byte	0x51
 3959 0778 05       		.uleb128 0x5
 3960 0779 03       		.byte	0x3
 3961 077a 58000000 		.4byte	.LC26
 3962 077e 00       		.byte	0
 3963 077f 19       		.uleb128 0x19
 3964 0780 2C000000 		.4byte	.LVL98
 3965 0784 9B190000 		.4byte	0x199b
 3966 0788 18       		.uleb128 0x18
 3967 0789 01       		.uleb128 0x1
 3968 078a 50       		.byte	0x50
 3969 078b 02       		.uleb128 0x2
 3970 078c 74       		.byte	0x74
 3971 078d 00       		.sleb128 0
 3972 078e 00       		.byte	0
 3973 078f 00       		.byte	0
 3974 0790 12       		.uleb128 0x12
 3975 0791 4E050000 		.4byte	.LASF53
 3976 0795 01       		.byte	0x1
 3977 0796 9E01     		.2byte	0x19e
 3978 0798 25000000 		.4byte	0x25
 3979 079c 00000000 		.4byte	.LFB18
 3980 07a0 8C010000 		.4byte	.LFE18-.LFB18
 3981 07a4 01       		.uleb128 0x1
 3982 07a5 9C       		.byte	0x9c
 3983 07a6 270A0000 		.4byte	0xa27
 3984 07aa 13       		.uleb128 0x13
ARM GAS  C:\Users\TERENC~1\AppData\Local\Temp\ccNQUuJb.s 			page 89


 3985 07ab 92050000 		.4byte	.LASF41
 3986 07af 01       		.byte	0x1
 3987 07b0 9E01     		.2byte	0x19e
 3988 07b2 25000000 		.4byte	0x25
 3989 07b6 05050000 		.4byte	.LLST25
 3990 07ba 13       		.uleb128 0x13
 3991 07bb 54060000 		.4byte	.LASF42
 3992 07bf 01       		.byte	0x1
 3993 07c0 9E01     		.2byte	0x19e
 3994 07c2 F5010000 		.4byte	0x1f5
 3995 07c6 26050000 		.4byte	.LLST26
 3996 07ca 16       		.uleb128 0x16
 3997 07cb 06000000 		.4byte	.LVL100
 3998 07cf 7B190000 		.4byte	0x197b
 3999 07d3 16       		.uleb128 0x16
 4000 07d4 0E000000 		.4byte	.LVL101
 4001 07d8 87190000 		.4byte	0x1987
 4002 07dc 17       		.uleb128 0x17
 4003 07dd 22000000 		.4byte	.LVL102
 4004 07e1 B1190000 		.4byte	0x19b1
 4005 07e5 F9070000 		.4byte	0x7f9
 4006 07e9 18       		.uleb128 0x18
 4007 07ea 01       		.uleb128 0x1
 4008 07eb 50       		.byte	0x50
 4009 07ec 02       		.uleb128 0x2
 4010 07ed 74       		.byte	0x74
 4011 07ee 00       		.sleb128 0
 4012 07ef 18       		.uleb128 0x18
 4013 07f0 01       		.uleb128 0x1
 4014 07f1 51       		.byte	0x51
 4015 07f2 05       		.uleb128 0x5
 4016 07f3 03       		.byte	0x3
 4017 07f4 68000000 		.4byte	.LC30
 4018 07f8 00       		.byte	0
 4019 07f9 17       		.uleb128 0x17
 4020 07fa 28000000 		.4byte	.LVL103
 4021 07fe 9B190000 		.4byte	0x199b
 4022 0802 0D080000 		.4byte	0x80d
 4023 0806 18       		.uleb128 0x18
 4024 0807 01       		.uleb128 0x1
 4025 0808 50       		.byte	0x50
 4026 0809 02       		.uleb128 0x2
 4027 080a 74       		.byte	0x74
 4028 080b 00       		.sleb128 0
 4029 080c 00       		.byte	0
 4030 080d 16       		.uleb128 0x16
 4031 080e 2C000000 		.4byte	.LVL104
 4032 0812 7B190000 		.4byte	0x197b
 4033 0816 16       		.uleb128 0x16
 4034 0817 34000000 		.4byte	.LVL105
 4035 081b 87190000 		.4byte	0x1987
 4036 081f 17       		.uleb128 0x17
 4037 0820 48000000 		.4byte	.LVL106
 4038 0824 B1190000 		.4byte	0x19b1
 4039 0828 3C080000 		.4byte	0x83c
 4040 082c 18       		.uleb128 0x18
 4041 082d 01       		.uleb128 0x1
ARM GAS  C:\Users\TERENC~1\AppData\Local\Temp\ccNQUuJb.s 			page 90


 4042 082e 50       		.byte	0x50
 4043 082f 02       		.uleb128 0x2
 4044 0830 74       		.byte	0x74
 4045 0831 00       		.sleb128 0
 4046 0832 18       		.uleb128 0x18
 4047 0833 01       		.uleb128 0x1
 4048 0834 51       		.byte	0x51
 4049 0835 05       		.uleb128 0x5
 4050 0836 03       		.byte	0x3
 4051 0837 78000000 		.4byte	.LC33
 4052 083b 00       		.byte	0
 4053 083c 17       		.uleb128 0x17
 4054 083d 4E000000 		.4byte	.LVL107
 4055 0841 9B190000 		.4byte	0x199b
 4056 0845 50080000 		.4byte	0x850
 4057 0849 18       		.uleb128 0x18
 4058 084a 01       		.uleb128 0x1
 4059 084b 50       		.byte	0x50
 4060 084c 02       		.uleb128 0x2
 4061 084d 74       		.byte	0x74
 4062 084e 00       		.sleb128 0
 4063 084f 00       		.byte	0
 4064 0850 16       		.uleb128 0x16
 4065 0851 52000000 		.4byte	.LVL108
 4066 0855 7B190000 		.4byte	0x197b
 4067 0859 16       		.uleb128 0x16
 4068 085a 5A000000 		.4byte	.LVL109
 4069 085e 87190000 		.4byte	0x1987
 4070 0862 17       		.uleb128 0x17
 4071 0863 70000000 		.4byte	.LVL110
 4072 0867 B1190000 		.4byte	0x19b1
 4073 086b 7F080000 		.4byte	0x87f
 4074 086f 18       		.uleb128 0x18
 4075 0870 01       		.uleb128 0x1
 4076 0871 50       		.byte	0x50
 4077 0872 02       		.uleb128 0x2
 4078 0873 74       		.byte	0x74
 4079 0874 00       		.sleb128 0
 4080 0875 18       		.uleb128 0x18
 4081 0876 01       		.uleb128 0x1
 4082 0877 51       		.byte	0x51
 4083 0878 05       		.uleb128 0x5
 4084 0879 03       		.byte	0x3
 4085 087a 84000000 		.4byte	.LC35
 4086 087e 00       		.byte	0
 4087 087f 17       		.uleb128 0x17
 4088 0880 76000000 		.4byte	.LVL111
 4089 0884 9B190000 		.4byte	0x199b
 4090 0888 93080000 		.4byte	0x893
 4091 088c 18       		.uleb128 0x18
 4092 088d 01       		.uleb128 0x1
 4093 088e 50       		.byte	0x50
 4094 088f 02       		.uleb128 0x2
 4095 0890 74       		.byte	0x74
 4096 0891 00       		.sleb128 0
 4097 0892 00       		.byte	0
 4098 0893 16       		.uleb128 0x16
ARM GAS  C:\Users\TERENC~1\AppData\Local\Temp\ccNQUuJb.s 			page 91


 4099 0894 7A000000 		.4byte	.LVL112
 4100 0898 7B190000 		.4byte	0x197b
 4101 089c 16       		.uleb128 0x16
 4102 089d 82000000 		.4byte	.LVL113
 4103 08a1 87190000 		.4byte	0x1987
 4104 08a5 17       		.uleb128 0x17
 4105 08a6 98000000 		.4byte	.LVL114
 4106 08aa B1190000 		.4byte	0x19b1
 4107 08ae C2080000 		.4byte	0x8c2
 4108 08b2 18       		.uleb128 0x18
 4109 08b3 01       		.uleb128 0x1
 4110 08b4 50       		.byte	0x50
 4111 08b5 02       		.uleb128 0x2
 4112 08b6 74       		.byte	0x74
 4113 08b7 00       		.sleb128 0
 4114 08b8 18       		.uleb128 0x18
 4115 08b9 01       		.uleb128 0x1
 4116 08ba 51       		.byte	0x51
 4117 08bb 05       		.uleb128 0x5
 4118 08bc 03       		.byte	0x3
 4119 08bd 98000000 		.4byte	.LC37
 4120 08c1 00       		.byte	0
 4121 08c2 17       		.uleb128 0x17
 4122 08c3 9E000000 		.4byte	.LVL115
 4123 08c7 9B190000 		.4byte	0x199b
 4124 08cb D6080000 		.4byte	0x8d6
 4125 08cf 18       		.uleb128 0x18
 4126 08d0 01       		.uleb128 0x1
 4127 08d1 50       		.byte	0x50
 4128 08d2 02       		.uleb128 0x2
 4129 08d3 74       		.byte	0x74
 4130 08d4 00       		.sleb128 0
 4131 08d5 00       		.byte	0
 4132 08d6 16       		.uleb128 0x16
 4133 08d7 A2000000 		.4byte	.LVL116
 4134 08db 7B190000 		.4byte	0x197b
 4135 08df 16       		.uleb128 0x16
 4136 08e0 AA000000 		.4byte	.LVL117
 4137 08e4 87190000 		.4byte	0x1987
 4138 08e8 17       		.uleb128 0x17
 4139 08e9 C0000000 		.4byte	.LVL118
 4140 08ed B1190000 		.4byte	0x19b1
 4141 08f1 05090000 		.4byte	0x905
 4142 08f5 18       		.uleb128 0x18
 4143 08f6 01       		.uleb128 0x1
 4144 08f7 50       		.byte	0x50
 4145 08f8 02       		.uleb128 0x2
 4146 08f9 74       		.byte	0x74
 4147 08fa 00       		.sleb128 0
 4148 08fb 18       		.uleb128 0x18
 4149 08fc 01       		.uleb128 0x1
 4150 08fd 51       		.byte	0x51
 4151 08fe 05       		.uleb128 0x5
 4152 08ff 03       		.byte	0x3
 4153 0900 AC000000 		.4byte	.LC39
 4154 0904 00       		.byte	0
 4155 0905 17       		.uleb128 0x17
ARM GAS  C:\Users\TERENC~1\AppData\Local\Temp\ccNQUuJb.s 			page 92


 4156 0906 C6000000 		.4byte	.LVL119
 4157 090a 9B190000 		.4byte	0x199b
 4158 090e 19090000 		.4byte	0x919
 4159 0912 18       		.uleb128 0x18
 4160 0913 01       		.uleb128 0x1
 4161 0914 50       		.byte	0x50
 4162 0915 02       		.uleb128 0x2
 4163 0916 74       		.byte	0x74
 4164 0917 00       		.sleb128 0
 4165 0918 00       		.byte	0
 4166 0919 16       		.uleb128 0x16
 4167 091a CA000000 		.4byte	.LVL120
 4168 091e 7B190000 		.4byte	0x197b
 4169 0922 16       		.uleb128 0x16
 4170 0923 D2000000 		.4byte	.LVL121
 4171 0927 87190000 		.4byte	0x1987
 4172 092b 17       		.uleb128 0x17
 4173 092c E8000000 		.4byte	.LVL122
 4174 0930 B1190000 		.4byte	0x19b1
 4175 0934 48090000 		.4byte	0x948
 4176 0938 18       		.uleb128 0x18
 4177 0939 01       		.uleb128 0x1
 4178 093a 50       		.byte	0x50
 4179 093b 02       		.uleb128 0x2
 4180 093c 74       		.byte	0x74
 4181 093d 00       		.sleb128 0
 4182 093e 18       		.uleb128 0x18
 4183 093f 01       		.uleb128 0x1
 4184 0940 51       		.byte	0x51
 4185 0941 05       		.uleb128 0x5
 4186 0942 03       		.byte	0x3
 4187 0943 C0000000 		.4byte	.LC41
 4188 0947 00       		.byte	0
 4189 0948 17       		.uleb128 0x17
 4190 0949 EE000000 		.4byte	.LVL123
 4191 094d 9B190000 		.4byte	0x199b
 4192 0951 5C090000 		.4byte	0x95c
 4193 0955 18       		.uleb128 0x18
 4194 0956 01       		.uleb128 0x1
 4195 0957 50       		.byte	0x50
 4196 0958 02       		.uleb128 0x2
 4197 0959 74       		.byte	0x74
 4198 095a 00       		.sleb128 0
 4199 095b 00       		.byte	0
 4200 095c 16       		.uleb128 0x16
 4201 095d F2000000 		.4byte	.LVL124
 4202 0961 7B190000 		.4byte	0x197b
 4203 0965 16       		.uleb128 0x16
 4204 0966 FA000000 		.4byte	.LVL125
 4205 096a 87190000 		.4byte	0x1987
 4206 096e 17       		.uleb128 0x17
 4207 096f 0E010000 		.4byte	.LVL126
 4208 0973 B1190000 		.4byte	0x19b1
 4209 0977 8B090000 		.4byte	0x98b
 4210 097b 18       		.uleb128 0x18
 4211 097c 01       		.uleb128 0x1
 4212 097d 50       		.byte	0x50
ARM GAS  C:\Users\TERENC~1\AppData\Local\Temp\ccNQUuJb.s 			page 93


 4213 097e 02       		.uleb128 0x2
 4214 097f 74       		.byte	0x74
 4215 0980 00       		.sleb128 0
 4216 0981 18       		.uleb128 0x18
 4217 0982 01       		.uleb128 0x1
 4218 0983 51       		.byte	0x51
 4219 0984 05       		.uleb128 0x5
 4220 0985 03       		.byte	0x3
 4221 0986 D4000000 		.4byte	.LC43
 4222 098a 00       		.byte	0
 4223 098b 17       		.uleb128 0x17
 4224 098c 14010000 		.4byte	.LVL127
 4225 0990 9B190000 		.4byte	0x199b
 4226 0994 9F090000 		.4byte	0x99f
 4227 0998 18       		.uleb128 0x18
 4228 0999 01       		.uleb128 0x1
 4229 099a 50       		.byte	0x50
 4230 099b 02       		.uleb128 0x2
 4231 099c 74       		.byte	0x74
 4232 099d 00       		.sleb128 0
 4233 099e 00       		.byte	0
 4234 099f 16       		.uleb128 0x16
 4235 09a0 18010000 		.4byte	.LVL128
 4236 09a4 7B190000 		.4byte	0x197b
 4237 09a8 16       		.uleb128 0x16
 4238 09a9 20010000 		.4byte	.LVL129
 4239 09ad 87190000 		.4byte	0x1987
 4240 09b1 17       		.uleb128 0x17
 4241 09b2 34010000 		.4byte	.LVL130
 4242 09b6 B1190000 		.4byte	0x19b1
 4243 09ba CE090000 		.4byte	0x9ce
 4244 09be 18       		.uleb128 0x18
 4245 09bf 01       		.uleb128 0x1
 4246 09c0 50       		.byte	0x50
 4247 09c1 02       		.uleb128 0x2
 4248 09c2 74       		.byte	0x74
 4249 09c3 00       		.sleb128 0
 4250 09c4 18       		.uleb128 0x18
 4251 09c5 01       		.uleb128 0x1
 4252 09c6 51       		.byte	0x51
 4253 09c7 05       		.uleb128 0x5
 4254 09c8 03       		.byte	0x3
 4255 09c9 F0000000 		.4byte	.LC45
 4256 09cd 00       		.byte	0
 4257 09ce 17       		.uleb128 0x17
 4258 09cf 3A010000 		.4byte	.LVL131
 4259 09d3 9B190000 		.4byte	0x199b
 4260 09d7 E2090000 		.4byte	0x9e2
 4261 09db 18       		.uleb128 0x18
 4262 09dc 01       		.uleb128 0x1
 4263 09dd 50       		.byte	0x50
 4264 09de 02       		.uleb128 0x2
 4265 09df 74       		.byte	0x74
 4266 09e0 00       		.sleb128 0
 4267 09e1 00       		.byte	0
 4268 09e2 16       		.uleb128 0x16
 4269 09e3 3E010000 		.4byte	.LVL132
ARM GAS  C:\Users\TERENC~1\AppData\Local\Temp\ccNQUuJb.s 			page 94


 4270 09e7 7B190000 		.4byte	0x197b
 4271 09eb 16       		.uleb128 0x16
 4272 09ec 46010000 		.4byte	.LVL133
 4273 09f0 87190000 		.4byte	0x1987
 4274 09f4 17       		.uleb128 0x17
 4275 09f5 56010000 		.4byte	.LVL134
 4276 09f9 92190000 		.4byte	0x1992
 4277 09fd 160A0000 		.4byte	0xa16
 4278 0a01 18       		.uleb128 0x18
 4279 0a02 01       		.uleb128 0x1
 4280 0a03 50       		.byte	0x50
 4281 0a04 02       		.uleb128 0x2
 4282 0a05 74       		.byte	0x74
 4283 0a06 00       		.sleb128 0
 4284 0a07 18       		.uleb128 0x18
 4285 0a08 01       		.uleb128 0x1
 4286 0a09 51       		.byte	0x51
 4287 0a0a 05       		.uleb128 0x5
 4288 0a0b 03       		.byte	0x3
 4289 0a0c 08010000 		.4byte	.LC47
 4290 0a10 18       		.uleb128 0x18
 4291 0a11 01       		.uleb128 0x1
 4292 0a12 52       		.byte	0x52
 4293 0a13 01       		.uleb128 0x1
 4294 0a14 3A       		.byte	0x3a
 4295 0a15 00       		.byte	0
 4296 0a16 19       		.uleb128 0x19
 4297 0a17 5C010000 		.4byte	.LVL135
 4298 0a1b 9B190000 		.4byte	0x199b
 4299 0a1f 18       		.uleb128 0x18
 4300 0a20 01       		.uleb128 0x1
 4301 0a21 50       		.byte	0x50
 4302 0a22 02       		.uleb128 0x2
 4303 0a23 74       		.byte	0x74
 4304 0a24 00       		.sleb128 0
 4305 0a25 00       		.byte	0
 4306 0a26 00       		.byte	0
 4307 0a27 1A       		.uleb128 0x1a
 4308 0a28 47040000 		.4byte	.LASF54
 4309 0a2c 01       		.byte	0x1
 4310 0a2d E8       		.byte	0xe8
 4311 0a2e 25000000 		.4byte	0x25
 4312 0a32 00000000 		.4byte	.LFB6
 4313 0a36 AC000000 		.4byte	.LFE6-.LFB6
 4314 0a3a 01       		.uleb128 0x1
 4315 0a3b 9C       		.byte	0x9c
 4316 0a3c 700B0000 		.4byte	0xb70
 4317 0a40 1B       		.uleb128 0x1b
 4318 0a41 92050000 		.4byte	.LASF41
 4319 0a45 01       		.byte	0x1
 4320 0a46 E8       		.byte	0xe8
 4321 0a47 25000000 		.4byte	0x25
 4322 0a4b 47050000 		.4byte	.LLST27
 4323 0a4f 1B       		.uleb128 0x1b
 4324 0a50 54060000 		.4byte	.LASF42
 4325 0a54 01       		.byte	0x1
 4326 0a55 E8       		.byte	0xe8
ARM GAS  C:\Users\TERENC~1\AppData\Local\Temp\ccNQUuJb.s 			page 95


 4327 0a56 F5010000 		.4byte	0x1f5
 4328 0a5a 94050000 		.4byte	.LLST28
 4329 0a5e 1D       		.uleb128 0x1d
 4330 0a5f 766F6C00 		.ascii	"vol\000"
 4331 0a63 01       		.byte	0x1
 4332 0a64 EA       		.byte	0xea
 4333 0a65 25000000 		.4byte	0x25
 4334 0a69 CE050000 		.4byte	.LLST29
 4335 0a6d 1D       		.uleb128 0x1d
 4336 0a6e 6900     		.ascii	"i\000"
 4337 0a70 01       		.byte	0x1
 4338 0a71 EB       		.byte	0xeb
 4339 0a72 25000000 		.4byte	0x25
 4340 0a76 E1050000 		.4byte	.LLST30
 4341 0a7a 1D       		.uleb128 0x1d
 4342 0a7b 727600   		.ascii	"rv\000"
 4343 0a7e 01       		.byte	0x1
 4344 0a7f EC       		.byte	0xec
 4345 0a80 B9000000 		.4byte	0xb9
 4346 0a84 19060000 		.4byte	.LLST31
 4347 0a88 16       		.uleb128 0x16
 4348 0a89 0A000000 		.4byte	.LVL138
 4349 0a8d 7B190000 		.4byte	0x197b
 4350 0a91 16       		.uleb128 0x16
 4351 0a92 12000000 		.4byte	.LVL139
 4352 0a96 87190000 		.4byte	0x1987
 4353 0a9a 17       		.uleb128 0x17
 4354 0a9b 22000000 		.4byte	.LVL140
 4355 0a9f 92190000 		.4byte	0x1992
 4356 0aa3 BC0A0000 		.4byte	0xabc
 4357 0aa7 18       		.uleb128 0x18
 4358 0aa8 01       		.uleb128 0x1
 4359 0aa9 50       		.byte	0x50
 4360 0aaa 02       		.uleb128 0x2
 4361 0aab 74       		.byte	0x74
 4362 0aac 00       		.sleb128 0
 4363 0aad 18       		.uleb128 0x18
 4364 0aae 01       		.uleb128 0x1
 4365 0aaf 51       		.byte	0x51
 4366 0ab0 05       		.uleb128 0x5
 4367 0ab1 03       		.byte	0x3
 4368 0ab2 0C000000 		.4byte	.LC4
 4369 0ab6 18       		.uleb128 0x18
 4370 0ab7 01       		.uleb128 0x1
 4371 0ab8 52       		.byte	0x52
 4372 0ab9 01       		.uleb128 0x1
 4373 0aba 4E       		.byte	0x4e
 4374 0abb 00       		.byte	0
 4375 0abc 17       		.uleb128 0x17
 4376 0abd 28000000 		.4byte	.LVL141
 4377 0ac1 9B190000 		.4byte	0x199b
 4378 0ac5 D00A0000 		.4byte	0xad0
 4379 0ac9 18       		.uleb128 0x18
 4380 0aca 01       		.uleb128 0x1
 4381 0acb 50       		.byte	0x50
 4382 0acc 02       		.uleb128 0x2
 4383 0acd 74       		.byte	0x74
ARM GAS  C:\Users\TERENC~1\AppData\Local\Temp\ccNQUuJb.s 			page 96


 4384 0ace 00       		.sleb128 0
 4385 0acf 00       		.byte	0
 4386 0ad0 16       		.uleb128 0x16
 4387 0ad1 34000000 		.4byte	.LVL144
 4388 0ad5 A6190000 		.4byte	0x19a6
 4389 0ad9 16       		.uleb128 0x16
 4390 0ada 3A000000 		.4byte	.LVL146
 4391 0ade BC190000 		.4byte	0x19bc
 4392 0ae2 16       		.uleb128 0x16
 4393 0ae3 42000000 		.4byte	.LVL148
 4394 0ae7 7B190000 		.4byte	0x197b
 4395 0aeb 16       		.uleb128 0x16
 4396 0aec 4A000000 		.4byte	.LVL149
 4397 0af0 87190000 		.4byte	0x1987
 4398 0af4 17       		.uleb128 0x17
 4399 0af5 5A000000 		.4byte	.LVL150
 4400 0af9 92190000 		.4byte	0x1992
 4401 0afd 160B0000 		.4byte	0xb16
 4402 0b01 18       		.uleb128 0x18
 4403 0b02 01       		.uleb128 0x1
 4404 0b03 50       		.byte	0x50
 4405 0b04 02       		.uleb128 0x2
 4406 0b05 74       		.byte	0x74
 4407 0b06 00       		.sleb128 0
 4408 0b07 18       		.uleb128 0x18
 4409 0b08 01       		.uleb128 0x1
 4410 0b09 51       		.byte	0x51
 4411 0b0a 05       		.uleb128 0x5
 4412 0b0b 03       		.byte	0x3
 4413 0b0c 14010000 		.4byte	.LC51
 4414 0b10 18       		.uleb128 0x18
 4415 0b11 01       		.uleb128 0x1
 4416 0b12 52       		.byte	0x52
 4417 0b13 01       		.uleb128 0x1
 4418 0b14 39       		.byte	0x39
 4419 0b15 00       		.byte	0
 4420 0b16 17       		.uleb128 0x17
 4421 0b17 60000000 		.4byte	.LVL151
 4422 0b1b 9B190000 		.4byte	0x199b
 4423 0b1f 2A0B0000 		.4byte	0xb2a
 4424 0b23 18       		.uleb128 0x18
 4425 0b24 01       		.uleb128 0x1
 4426 0b25 50       		.byte	0x50
 4427 0b26 02       		.uleb128 0x2
 4428 0b27 74       		.byte	0x74
 4429 0b28 00       		.sleb128 0
 4430 0b29 00       		.byte	0
 4431 0b2a 16       		.uleb128 0x16
 4432 0b2b 68000000 		.4byte	.LVL153
 4433 0b2f 7B190000 		.4byte	0x197b
 4434 0b33 16       		.uleb128 0x16
 4435 0b34 70000000 		.4byte	.LVL154
 4436 0b38 87190000 		.4byte	0x1987
 4437 0b3c 17       		.uleb128 0x17
 4438 0b3d 80000000 		.4byte	.LVL155
 4439 0b41 B1190000 		.4byte	0x19b1
 4440 0b45 5F0B0000 		.4byte	0xb5f
ARM GAS  C:\Users\TERENC~1\AppData\Local\Temp\ccNQUuJb.s 			page 97


 4441 0b49 18       		.uleb128 0x18
 4442 0b4a 01       		.uleb128 0x1
 4443 0b4b 50       		.byte	0x50
 4444 0b4c 02       		.uleb128 0x2
 4445 0b4d 75       		.byte	0x75
 4446 0b4e 00       		.sleb128 0
 4447 0b4f 18       		.uleb128 0x18
 4448 0b50 01       		.uleb128 0x1
 4449 0b51 51       		.byte	0x51
 4450 0b52 05       		.uleb128 0x5
 4451 0b53 03       		.byte	0x3
 4452 0b54 20010000 		.4byte	.LC53
 4453 0b58 18       		.uleb128 0x18
 4454 0b59 01       		.uleb128 0x1
 4455 0b5a 52       		.byte	0x52
 4456 0b5b 02       		.uleb128 0x2
 4457 0b5c 74       		.byte	0x74
 4458 0b5d 00       		.sleb128 0
 4459 0b5e 00       		.byte	0
 4460 0b5f 19       		.uleb128 0x19
 4461 0b60 86000000 		.4byte	.LVL156
 4462 0b64 9B190000 		.4byte	0x199b
 4463 0b68 18       		.uleb128 0x18
 4464 0b69 01       		.uleb128 0x1
 4465 0b6a 50       		.byte	0x50
 4466 0b6b 02       		.uleb128 0x2
 4467 0b6c 75       		.byte	0x75
 4468 0b6d 00       		.sleb128 0
 4469 0b6e 00       		.byte	0
 4470 0b6f 00       		.byte	0
 4471 0b70 12       		.uleb128 0x12
 4472 0b71 1A050000 		.4byte	.LASF55
 4473 0b75 01       		.byte	0x1
 4474 0b76 0501     		.2byte	0x105
 4475 0b78 25000000 		.4byte	0x25
 4476 0b7c 00000000 		.4byte	.LFB7
 4477 0b80 34000000 		.4byte	.LFE7-.LFB7
 4478 0b84 01       		.uleb128 0x1
 4479 0b85 9C       		.byte	0x9c
 4480 0b86 F30B0000 		.4byte	0xbf3
 4481 0b8a 13       		.uleb128 0x13
 4482 0b8b 92050000 		.4byte	.LASF41
 4483 0b8f 01       		.byte	0x1
 4484 0b90 0501     		.2byte	0x105
 4485 0b92 25000000 		.4byte	0x25
 4486 0b96 37060000 		.4byte	.LLST32
 4487 0b9a 13       		.uleb128 0x13
 4488 0b9b 54060000 		.4byte	.LASF42
 4489 0b9f 01       		.byte	0x1
 4490 0ba0 0501     		.2byte	0x105
 4491 0ba2 F5010000 		.4byte	0x1f5
 4492 0ba6 58060000 		.4byte	.LLST33
 4493 0baa 16       		.uleb128 0x16
 4494 0bab 06000000 		.4byte	.LVL161
 4495 0baf 7B190000 		.4byte	0x197b
 4496 0bb3 16       		.uleb128 0x16
 4497 0bb4 0E000000 		.4byte	.LVL162
ARM GAS  C:\Users\TERENC~1\AppData\Local\Temp\ccNQUuJb.s 			page 98


 4498 0bb8 87190000 		.4byte	0x1987
 4499 0bbc 16       		.uleb128 0x16
 4500 0bbd 16000000 		.4byte	.LVL163
 4501 0bc1 C7190000 		.4byte	0x19c7
 4502 0bc5 17       		.uleb128 0x17
 4503 0bc6 22000000 		.4byte	.LVL164
 4504 0bca B1190000 		.4byte	0x19b1
 4505 0bce E20B0000 		.4byte	0xbe2
 4506 0bd2 18       		.uleb128 0x18
 4507 0bd3 01       		.uleb128 0x1
 4508 0bd4 50       		.byte	0x50
 4509 0bd5 02       		.uleb128 0x2
 4510 0bd6 74       		.byte	0x74
 4511 0bd7 00       		.sleb128 0
 4512 0bd8 18       		.uleb128 0x18
 4513 0bd9 01       		.uleb128 0x1
 4514 0bda 51       		.byte	0x51
 4515 0bdb 05       		.uleb128 0x5
 4516 0bdc 03       		.byte	0x3
 4517 0bdd 2C010000 		.4byte	.LC55
 4518 0be1 00       		.byte	0
 4519 0be2 19       		.uleb128 0x19
 4520 0be3 28000000 		.4byte	.LVL165
 4521 0be7 9B190000 		.4byte	0x199b
 4522 0beb 18       		.uleb128 0x18
 4523 0bec 01       		.uleb128 0x1
 4524 0bed 50       		.byte	0x50
 4525 0bee 02       		.uleb128 0x2
 4526 0bef 74       		.byte	0x74
 4527 0bf0 00       		.sleb128 0
 4528 0bf1 00       		.byte	0
 4529 0bf2 00       		.byte	0
 4530 0bf3 12       		.uleb128 0x12
 4531 0bf4 A4040000 		.4byte	.LASF56
 4532 0bf8 01       		.byte	0x1
 4533 0bf9 0C01     		.2byte	0x10c
 4534 0bfb 25000000 		.4byte	0x25
 4535 0bff 00000000 		.4byte	.LFB8
 4536 0c03 BC000000 		.4byte	.LFE8-.LFB8
 4537 0c07 01       		.uleb128 0x1
 4538 0c08 9C       		.byte	0x9c
 4539 0c09 750D0000 		.4byte	0xd75
 4540 0c0d 13       		.uleb128 0x13
 4541 0c0e 92050000 		.4byte	.LASF41
 4542 0c12 01       		.byte	0x1
 4543 0c13 0C01     		.2byte	0x10c
 4544 0c15 25000000 		.4byte	0x25
 4545 0c19 79060000 		.4byte	.LLST34
 4546 0c1d 13       		.uleb128 0x13
 4547 0c1e 54060000 		.4byte	.LASF42
 4548 0c22 01       		.byte	0x1
 4549 0c23 0C01     		.2byte	0x10c
 4550 0c25 F5010000 		.4byte	0x1f5
 4551 0c29 C6060000 		.4byte	.LLST35
 4552 0c2d 1E       		.uleb128 0x1e
 4553 0c2e 6900     		.ascii	"i\000"
 4554 0c30 01       		.byte	0x1
ARM GAS  C:\Users\TERENC~1\AppData\Local\Temp\ccNQUuJb.s 			page 99


 4555 0c31 0E01     		.2byte	0x10e
 4556 0c33 25000000 		.4byte	0x25
 4557 0c37 2F070000 		.4byte	.LLST36
 4558 0c3b 1E       		.uleb128 0x1e
 4559 0c3c 72656700 		.ascii	"reg\000"
 4560 0c40 01       		.byte	0x1
 4561 0c41 0F01     		.2byte	0x10f
 4562 0c43 B9000000 		.4byte	0xb9
 4563 0c47 73070000 		.4byte	.LLST37
 4564 0c4b 1F       		.uleb128 0x1f
 4565 0c4c 22030000 		.4byte	.LASF57
 4566 0c50 01       		.byte	0x1
 4567 0c51 1001     		.2byte	0x110
 4568 0c53 C4000000 		.4byte	0xc4
 4569 0c57 91070000 		.4byte	.LLST38
 4570 0c5b 1E       		.uleb128 0x1e
 4571 0c5c 727600   		.ascii	"rv\000"
 4572 0c5f 01       		.byte	0x1
 4573 0c60 1101     		.2byte	0x111
 4574 0c62 25000000 		.4byte	0x25
 4575 0c66 A4070000 		.4byte	.LLST39
 4576 0c6a 16       		.uleb128 0x16
 4577 0c6b 0C000000 		.4byte	.LVL168
 4578 0c6f 7B190000 		.4byte	0x197b
 4579 0c73 16       		.uleb128 0x16
 4580 0c74 14000000 		.4byte	.LVL169
 4581 0c78 87190000 		.4byte	0x1987
 4582 0c7c 17       		.uleb128 0x17
 4583 0c7d 24000000 		.4byte	.LVL171
 4584 0c81 92190000 		.4byte	0x1992
 4585 0c85 9E0C0000 		.4byte	0xc9e
 4586 0c89 18       		.uleb128 0x18
 4587 0c8a 01       		.uleb128 0x1
 4588 0c8b 50       		.byte	0x50
 4589 0c8c 02       		.uleb128 0x2
 4590 0c8d 74       		.byte	0x74
 4591 0c8e 00       		.sleb128 0
 4592 0c8f 18       		.uleb128 0x18
 4593 0c90 01       		.uleb128 0x1
 4594 0c91 51       		.byte	0x51
 4595 0c92 05       		.uleb128 0x5
 4596 0c93 03       		.byte	0x3
 4597 0c94 0C000000 		.4byte	.LC4
 4598 0c98 18       		.uleb128 0x18
 4599 0c99 01       		.uleb128 0x1
 4600 0c9a 52       		.byte	0x52
 4601 0c9b 01       		.uleb128 0x1
 4602 0c9c 4E       		.byte	0x4e
 4603 0c9d 00       		.byte	0
 4604 0c9e 17       		.uleb128 0x17
 4605 0c9f 2A000000 		.4byte	.LVL172
 4606 0ca3 9B190000 		.4byte	0x199b
 4607 0ca7 B20C0000 		.4byte	0xcb2
 4608 0cab 18       		.uleb128 0x18
 4609 0cac 01       		.uleb128 0x1
 4610 0cad 50       		.byte	0x50
 4611 0cae 02       		.uleb128 0x2
ARM GAS  C:\Users\TERENC~1\AppData\Local\Temp\ccNQUuJb.s 			page 100


 4612 0caf 74       		.byte	0x74
 4613 0cb0 00       		.sleb128 0
 4614 0cb1 00       		.byte	0
 4615 0cb2 16       		.uleb128 0x16
 4616 0cb3 36000000 		.4byte	.LVL175
 4617 0cb7 A6190000 		.4byte	0x19a6
 4618 0cbb 17       		.uleb128 0x17
 4619 0cbc 42000000 		.4byte	.LVL177
 4620 0cc0 D2190000 		.4byte	0x19d2
 4621 0cc4 D30C0000 		.4byte	0xcd3
 4622 0cc8 18       		.uleb128 0x18
 4623 0cc9 01       		.uleb128 0x1
 4624 0cca 51       		.byte	0x51
 4625 0ccb 01       		.uleb128 0x1
 4626 0ccc 30       		.byte	0x30
 4627 0ccd 18       		.uleb128 0x18
 4628 0cce 01       		.uleb128 0x1
 4629 0ccf 52       		.byte	0x52
 4630 0cd0 01       		.uleb128 0x1
 4631 0cd1 40       		.byte	0x40
 4632 0cd2 00       		.byte	0
 4633 0cd3 17       		.uleb128 0x17
 4634 0cd4 4A000000 		.4byte	.LVL179
 4635 0cd8 DD190000 		.4byte	0x19dd
 4636 0cdc E70C0000 		.4byte	0xce7
 4637 0ce0 18       		.uleb128 0x18
 4638 0ce1 01       		.uleb128 0x1
 4639 0ce2 50       		.byte	0x50
 4640 0ce3 02       		.uleb128 0x2
 4641 0ce4 75       		.byte	0x75
 4642 0ce5 00       		.sleb128 0
 4643 0ce6 00       		.byte	0
 4644 0ce7 16       		.uleb128 0x16
 4645 0ce8 52000000 		.4byte	.LVL181
 4646 0cec 7B190000 		.4byte	0x197b
 4647 0cf0 16       		.uleb128 0x16
 4648 0cf1 5A000000 		.4byte	.LVL182
 4649 0cf5 87190000 		.4byte	0x1987
 4650 0cf9 17       		.uleb128 0x17
 4651 0cfa 6A000000 		.4byte	.LVL184
 4652 0cfe 92190000 		.4byte	0x1992
 4653 0d02 1B0D0000 		.4byte	0xd1b
 4654 0d06 18       		.uleb128 0x18
 4655 0d07 01       		.uleb128 0x1
 4656 0d08 50       		.byte	0x50
 4657 0d09 02       		.uleb128 0x2
 4658 0d0a 74       		.byte	0x74
 4659 0d0b 00       		.sleb128 0
 4660 0d0c 18       		.uleb128 0x18
 4661 0d0d 01       		.uleb128 0x1
 4662 0d0e 51       		.byte	0x51
 4663 0d0f 05       		.uleb128 0x5
 4664 0d10 03       		.byte	0x3
 4665 0d11 14010000 		.4byte	.LC51
 4666 0d15 18       		.uleb128 0x18
 4667 0d16 01       		.uleb128 0x1
 4668 0d17 52       		.byte	0x52
ARM GAS  C:\Users\TERENC~1\AppData\Local\Temp\ccNQUuJb.s 			page 101


 4669 0d18 01       		.uleb128 0x1
 4670 0d19 39       		.byte	0x39
 4671 0d1a 00       		.byte	0
 4672 0d1b 17       		.uleb128 0x17
 4673 0d1c 70000000 		.4byte	.LVL185
 4674 0d20 9B190000 		.4byte	0x199b
 4675 0d24 2F0D0000 		.4byte	0xd2f
 4676 0d28 18       		.uleb128 0x18
 4677 0d29 01       		.uleb128 0x1
 4678 0d2a 50       		.byte	0x50
 4679 0d2b 02       		.uleb128 0x2
 4680 0d2c 74       		.byte	0x74
 4681 0d2d 00       		.sleb128 0
 4682 0d2e 00       		.byte	0
 4683 0d2f 16       		.uleb128 0x16
 4684 0d30 78000000 		.4byte	.LVL187
 4685 0d34 7B190000 		.4byte	0x197b
 4686 0d38 16       		.uleb128 0x16
 4687 0d39 80000000 		.4byte	.LVL188
 4688 0d3d 87190000 		.4byte	0x1987
 4689 0d41 17       		.uleb128 0x17
 4690 0d42 90000000 		.4byte	.LVL190
 4691 0d46 B1190000 		.4byte	0x19b1
 4692 0d4a 640D0000 		.4byte	0xd64
 4693 0d4e 18       		.uleb128 0x18
 4694 0d4f 01       		.uleb128 0x1
 4695 0d50 50       		.byte	0x50
 4696 0d51 02       		.uleb128 0x2
 4697 0d52 75       		.byte	0x75
 4698 0d53 00       		.sleb128 0
 4699 0d54 18       		.uleb128 0x18
 4700 0d55 01       		.uleb128 0x1
 4701 0d56 51       		.byte	0x51
 4702 0d57 05       		.uleb128 0x5
 4703 0d58 03       		.byte	0x3
 4704 0d59 20010000 		.4byte	.LC53
 4705 0d5d 18       		.uleb128 0x18
 4706 0d5e 01       		.uleb128 0x1
 4707 0d5f 52       		.byte	0x52
 4708 0d60 02       		.uleb128 0x2
 4709 0d61 74       		.byte	0x74
 4710 0d62 00       		.sleb128 0
 4711 0d63 00       		.byte	0
 4712 0d64 19       		.uleb128 0x19
 4713 0d65 96000000 		.4byte	.LVL191
 4714 0d69 9B190000 		.4byte	0x199b
 4715 0d6d 18       		.uleb128 0x18
 4716 0d6e 01       		.uleb128 0x1
 4717 0d6f 50       		.byte	0x50
 4718 0d70 02       		.uleb128 0x2
 4719 0d71 75       		.byte	0x75
 4720 0d72 00       		.sleb128 0
 4721 0d73 00       		.byte	0
 4722 0d74 00       		.byte	0
 4723 0d75 12       		.uleb128 0x12
 4724 0d76 09060000 		.4byte	.LASF58
 4725 0d7a 01       		.byte	0x1
ARM GAS  C:\Users\TERENC~1\AppData\Local\Temp\ccNQUuJb.s 			page 102


 4726 0d7b 2B01     		.2byte	0x12b
 4727 0d7d 25000000 		.4byte	0x25
 4728 0d81 00000000 		.4byte	.LFB9
 4729 0d85 78000000 		.4byte	.LFE9-.LFB9
 4730 0d89 01       		.uleb128 0x1
 4731 0d8a 9C       		.byte	0x9c
 4732 0d8b 720E0000 		.4byte	0xe72
 4733 0d8f 13       		.uleb128 0x13
 4734 0d90 92050000 		.4byte	.LASF41
 4735 0d94 01       		.byte	0x1
 4736 0d95 2B01     		.2byte	0x12b
 4737 0d97 25000000 		.4byte	0x25
 4738 0d9b E3070000 		.4byte	.LLST40
 4739 0d9f 13       		.uleb128 0x13
 4740 0da0 54060000 		.4byte	.LASF42
 4741 0da4 01       		.byte	0x1
 4742 0da5 2B01     		.2byte	0x12b
 4743 0da7 F5010000 		.4byte	0x1f5
 4744 0dab 30080000 		.4byte	.LLST41
 4745 0daf 1E       		.uleb128 0x1e
 4746 0db0 6900     		.ascii	"i\000"
 4747 0db2 01       		.byte	0x1
 4748 0db3 2D01     		.2byte	0x12d
 4749 0db5 25000000 		.4byte	0x25
 4750 0db9 6A080000 		.4byte	.LLST42
 4751 0dbd 1E       		.uleb128 0x1e
 4752 0dbe 72656700 		.ascii	"reg\000"
 4753 0dc2 01       		.byte	0x1
 4754 0dc3 2E01     		.2byte	0x12e
 4755 0dc5 B9000000 		.4byte	0xb9
 4756 0dc9 A2080000 		.4byte	.LLST43
 4757 0dcd 16       		.uleb128 0x16
 4758 0dce 0A000000 		.4byte	.LVL197
 4759 0dd2 7B190000 		.4byte	0x197b
 4760 0dd6 16       		.uleb128 0x16
 4761 0dd7 12000000 		.4byte	.LVL198
 4762 0ddb 87190000 		.4byte	0x1987
 4763 0ddf 17       		.uleb128 0x17
 4764 0de0 22000000 		.4byte	.LVL199
 4765 0de4 92190000 		.4byte	0x1992
 4766 0de8 010E0000 		.4byte	0xe01
 4767 0dec 18       		.uleb128 0x18
 4768 0ded 01       		.uleb128 0x1
 4769 0dee 50       		.byte	0x50
 4770 0def 02       		.uleb128 0x2
 4771 0df0 74       		.byte	0x74
 4772 0df1 00       		.sleb128 0
 4773 0df2 18       		.uleb128 0x18
 4774 0df3 01       		.uleb128 0x1
 4775 0df4 51       		.byte	0x51
 4776 0df5 05       		.uleb128 0x5
 4777 0df6 03       		.byte	0x3
 4778 0df7 0C000000 		.4byte	.LC4
 4779 0dfb 18       		.uleb128 0x18
 4780 0dfc 01       		.uleb128 0x1
 4781 0dfd 52       		.byte	0x52
 4782 0dfe 01       		.uleb128 0x1
ARM GAS  C:\Users\TERENC~1\AppData\Local\Temp\ccNQUuJb.s 			page 103


 4783 0dff 4E       		.byte	0x4e
 4784 0e00 00       		.byte	0
 4785 0e01 17       		.uleb128 0x17
 4786 0e02 28000000 		.4byte	.LVL200
 4787 0e06 9B190000 		.4byte	0x199b
 4788 0e0a 150E0000 		.4byte	0xe15
 4789 0e0e 18       		.uleb128 0x18
 4790 0e0f 01       		.uleb128 0x1
 4791 0e10 50       		.byte	0x50
 4792 0e11 02       		.uleb128 0x2
 4793 0e12 74       		.byte	0x74
 4794 0e13 00       		.sleb128 0
 4795 0e14 00       		.byte	0
 4796 0e15 16       		.uleb128 0x16
 4797 0e16 34000000 		.4byte	.LVL203
 4798 0e1a A6190000 		.4byte	0x19a6
 4799 0e1e 16       		.uleb128 0x16
 4800 0e1f 3A000000 		.4byte	.LVL205
 4801 0e23 7B190000 		.4byte	0x197b
 4802 0e27 16       		.uleb128 0x16
 4803 0e28 42000000 		.4byte	.LVL206
 4804 0e2c 87190000 		.4byte	0x1987
 4805 0e30 17       		.uleb128 0x17
 4806 0e31 4C000000 		.4byte	.LVL207
 4807 0e35 E8190000 		.4byte	0x19e8
 4808 0e39 440E0000 		.4byte	0xe44
 4809 0e3d 18       		.uleb128 0x18
 4810 0e3e 01       		.uleb128 0x1
 4811 0e3f 50       		.byte	0x50
 4812 0e40 02       		.uleb128 0x2
 4813 0e41 74       		.byte	0x74
 4814 0e42 00       		.sleb128 0
 4815 0e43 00       		.byte	0
 4816 0e44 17       		.uleb128 0x17
 4817 0e45 58000000 		.4byte	.LVL209
 4818 0e49 B1190000 		.4byte	0x19b1
 4819 0e4d 610E0000 		.4byte	0xe61
 4820 0e51 18       		.uleb128 0x18
 4821 0e52 01       		.uleb128 0x1
 4822 0e53 50       		.byte	0x50
 4823 0e54 02       		.uleb128 0x2
 4824 0e55 74       		.byte	0x74
 4825 0e56 00       		.sleb128 0
 4826 0e57 18       		.uleb128 0x18
 4827 0e58 01       		.uleb128 0x1
 4828 0e59 51       		.byte	0x51
 4829 0e5a 05       		.uleb128 0x5
 4830 0e5b 03       		.byte	0x3
 4831 0e5c 38010000 		.4byte	.LC64
 4832 0e60 00       		.byte	0
 4833 0e61 19       		.uleb128 0x19
 4834 0e62 5E000000 		.4byte	.LVL210
 4835 0e66 9B190000 		.4byte	0x199b
 4836 0e6a 18       		.uleb128 0x18
 4837 0e6b 01       		.uleb128 0x1
 4838 0e6c 50       		.byte	0x50
 4839 0e6d 02       		.uleb128 0x2
ARM GAS  C:\Users\TERENC~1\AppData\Local\Temp\ccNQUuJb.s 			page 104


 4840 0e6e 74       		.byte	0x74
 4841 0e6f 00       		.sleb128 0
 4842 0e70 00       		.byte	0
 4843 0e71 00       		.byte	0
 4844 0e72 12       		.uleb128 0x12
 4845 0e73 5D040000 		.4byte	.LASF59
 4846 0e77 01       		.byte	0x1
 4847 0e78 6C01     		.2byte	0x16c
 4848 0e7a 25000000 		.4byte	0x25
 4849 0e7e 00000000 		.4byte	.LFB13
 4850 0e82 0A000000 		.4byte	.LFE13-.LFB13
 4851 0e86 01       		.uleb128 0x1
 4852 0e87 9C       		.byte	0x9c
 4853 0e88 B60E0000 		.4byte	0xeb6
 4854 0e8c 13       		.uleb128 0x13
 4855 0e8d 92050000 		.4byte	.LASF41
 4856 0e91 01       		.byte	0x1
 4857 0e92 6C01     		.2byte	0x16c
 4858 0e94 25000000 		.4byte	0x25
 4859 0e98 C0080000 		.4byte	.LLST44
 4860 0e9c 13       		.uleb128 0x13
 4861 0e9d 54060000 		.4byte	.LASF42
 4862 0ea1 01       		.byte	0x1
 4863 0ea2 6C01     		.2byte	0x16c
 4864 0ea4 F5010000 		.4byte	0x1f5
 4865 0ea8 E1080000 		.4byte	.LLST45
 4866 0eac 16       		.uleb128 0x16
 4867 0ead 06000000 		.4byte	.LVL215
 4868 0eb1 F3190000 		.4byte	0x19f3
 4869 0eb5 00       		.byte	0
 4870 0eb6 12       		.uleb128 0x12
 4871 0eb7 D8050000 		.4byte	.LASF60
 4872 0ebb 01       		.byte	0x1
 4873 0ebc 8C01     		.2byte	0x18c
 4874 0ebe 25000000 		.4byte	0x25
 4875 0ec2 00000000 		.4byte	.LFB16
 4876 0ec6 34000000 		.4byte	.LFE16-.LFB16
 4877 0eca 01       		.uleb128 0x1
 4878 0ecb 9C       		.byte	0x9c
 4879 0ecc 3E0F0000 		.4byte	0xf3e
 4880 0ed0 13       		.uleb128 0x13
 4881 0ed1 92050000 		.4byte	.LASF41
 4882 0ed5 01       		.byte	0x1
 4883 0ed6 8C01     		.2byte	0x18c
 4884 0ed8 25000000 		.4byte	0x25
 4885 0edc 02090000 		.4byte	.LLST46
 4886 0ee0 13       		.uleb128 0x13
 4887 0ee1 54060000 		.4byte	.LASF42
 4888 0ee5 01       		.byte	0x1
 4889 0ee6 8C01     		.2byte	0x18c
 4890 0ee8 F5010000 		.4byte	0x1f5
 4891 0eec 23090000 		.4byte	.LLST47
 4892 0ef0 16       		.uleb128 0x16
 4893 0ef1 06000000 		.4byte	.LVL217
 4894 0ef5 FE190000 		.4byte	0x19fe
 4895 0ef9 16       		.uleb128 0x16
 4896 0efa 0A000000 		.4byte	.LVL218
ARM GAS  C:\Users\TERENC~1\AppData\Local\Temp\ccNQUuJb.s 			page 105


 4897 0efe 7B190000 		.4byte	0x197b
 4898 0f02 16       		.uleb128 0x16
 4899 0f03 12000000 		.4byte	.LVL219
 4900 0f07 87190000 		.4byte	0x1987
 4901 0f0b 17       		.uleb128 0x17
 4902 0f0c 22000000 		.4byte	.LVL220
 4903 0f10 92190000 		.4byte	0x1992
 4904 0f14 2D0F0000 		.4byte	0xf2d
 4905 0f18 18       		.uleb128 0x18
 4906 0f19 01       		.uleb128 0x1
 4907 0f1a 50       		.byte	0x50
 4908 0f1b 02       		.uleb128 0x2
 4909 0f1c 74       		.byte	0x74
 4910 0f1d 00       		.sleb128 0
 4911 0f1e 18       		.uleb128 0x18
 4912 0f1f 01       		.uleb128 0x1
 4913 0f20 51       		.byte	0x51
 4914 0f21 05       		.uleb128 0x5
 4915 0f22 03       		.byte	0x3
 4916 0f23 2C000000 		.4byte	.LC10
 4917 0f27 18       		.uleb128 0x18
 4918 0f28 01       		.uleb128 0x1
 4919 0f29 52       		.byte	0x52
 4920 0f2a 01       		.uleb128 0x1
 4921 0f2b 3A       		.byte	0x3a
 4922 0f2c 00       		.byte	0
 4923 0f2d 19       		.uleb128 0x19
 4924 0f2e 28000000 		.4byte	.LVL221
 4925 0f32 9B190000 		.4byte	0x199b
 4926 0f36 18       		.uleb128 0x18
 4927 0f37 01       		.uleb128 0x1
 4928 0f38 50       		.byte	0x50
 4929 0f39 02       		.uleb128 0x2
 4930 0f3a 74       		.byte	0x74
 4931 0f3b 00       		.sleb128 0
 4932 0f3c 00       		.byte	0
 4933 0f3d 00       		.byte	0
 4934 0f3e 12       		.uleb128 0x12
 4935 0f3f A6050000 		.4byte	.LASF61
 4936 0f43 01       		.byte	0x1
 4937 0f44 9501     		.2byte	0x195
 4938 0f46 25000000 		.4byte	0x25
 4939 0f4a 00000000 		.4byte	.LFB17
 4940 0f4e 34000000 		.4byte	.LFE17-.LFB17
 4941 0f52 01       		.uleb128 0x1
 4942 0f53 9C       		.byte	0x9c
 4943 0f54 C60F0000 		.4byte	0xfc6
 4944 0f58 13       		.uleb128 0x13
 4945 0f59 92050000 		.4byte	.LASF41
 4946 0f5d 01       		.byte	0x1
 4947 0f5e 9501     		.2byte	0x195
 4948 0f60 25000000 		.4byte	0x25
 4949 0f64 44090000 		.4byte	.LLST48
 4950 0f68 13       		.uleb128 0x13
 4951 0f69 54060000 		.4byte	.LASF42
 4952 0f6d 01       		.byte	0x1
 4953 0f6e 9501     		.2byte	0x195
ARM GAS  C:\Users\TERENC~1\AppData\Local\Temp\ccNQUuJb.s 			page 106


 4954 0f70 F5010000 		.4byte	0x1f5
 4955 0f74 65090000 		.4byte	.LLST49
 4956 0f78 16       		.uleb128 0x16
 4957 0f79 06000000 		.4byte	.LVL223
 4958 0f7d 091A0000 		.4byte	0x1a09
 4959 0f81 16       		.uleb128 0x16
 4960 0f82 0A000000 		.4byte	.LVL224
 4961 0f86 7B190000 		.4byte	0x197b
 4962 0f8a 16       		.uleb128 0x16
 4963 0f8b 12000000 		.4byte	.LVL225
 4964 0f8f 87190000 		.4byte	0x1987
 4965 0f93 17       		.uleb128 0x17
 4966 0f94 22000000 		.4byte	.LVL226
 4967 0f98 92190000 		.4byte	0x1992
 4968 0f9c B50F0000 		.4byte	0xfb5
 4969 0fa0 18       		.uleb128 0x18
 4970 0fa1 01       		.uleb128 0x1
 4971 0fa2 50       		.byte	0x50
 4972 0fa3 02       		.uleb128 0x2
 4973 0fa4 74       		.byte	0x74
 4974 0fa5 00       		.sleb128 0
 4975 0fa6 18       		.uleb128 0x18
 4976 0fa7 01       		.uleb128 0x1
 4977 0fa8 51       		.byte	0x51
 4978 0fa9 05       		.uleb128 0x5
 4979 0faa 03       		.byte	0x3
 4980 0fab 2C000000 		.4byte	.LC10
 4981 0faf 18       		.uleb128 0x18
 4982 0fb0 01       		.uleb128 0x1
 4983 0fb1 52       		.byte	0x52
 4984 0fb2 01       		.uleb128 0x1
 4985 0fb3 3A       		.byte	0x3a
 4986 0fb4 00       		.byte	0
 4987 0fb5 19       		.uleb128 0x19
 4988 0fb6 28000000 		.4byte	.LVL227
 4989 0fba 9B190000 		.4byte	0x199b
 4990 0fbe 18       		.uleb128 0x18
 4991 0fbf 01       		.uleb128 0x1
 4992 0fc0 50       		.byte	0x50
 4993 0fc1 02       		.uleb128 0x2
 4994 0fc2 74       		.byte	0x74
 4995 0fc3 00       		.sleb128 0
 4996 0fc4 00       		.byte	0
 4997 0fc5 00       		.byte	0
 4998 0fc6 12       		.uleb128 0x12
 4999 0fc7 4D030000 		.4byte	.LASF62
 5000 0fcb 01       		.byte	0x1
 5001 0fcc C901     		.2byte	0x1c9
 5002 0fce 25000000 		.4byte	0x25
 5003 0fd2 00000000 		.4byte	.LFB20
 5004 0fd6 34000000 		.4byte	.LFE20-.LFB20
 5005 0fda 01       		.uleb128 0x1
 5006 0fdb 9C       		.byte	0x9c
 5007 0fdc 49100000 		.4byte	0x1049
 5008 0fe0 13       		.uleb128 0x13
 5009 0fe1 92050000 		.4byte	.LASF41
 5010 0fe5 01       		.byte	0x1
ARM GAS  C:\Users\TERENC~1\AppData\Local\Temp\ccNQUuJb.s 			page 107


 5011 0fe6 C901     		.2byte	0x1c9
 5012 0fe8 25000000 		.4byte	0x25
 5013 0fec 86090000 		.4byte	.LLST50
 5014 0ff0 13       		.uleb128 0x13
 5015 0ff1 54060000 		.4byte	.LASF42
 5016 0ff5 01       		.byte	0x1
 5017 0ff6 C901     		.2byte	0x1c9
 5018 0ff8 F5010000 		.4byte	0x1f5
 5019 0ffc A7090000 		.4byte	.LLST51
 5020 1000 16       		.uleb128 0x16
 5021 1001 06000000 		.4byte	.LVL229
 5022 1005 7B190000 		.4byte	0x197b
 5023 1009 16       		.uleb128 0x16
 5024 100a 0E000000 		.4byte	.LVL230
 5025 100e 87190000 		.4byte	0x1987
 5026 1012 16       		.uleb128 0x16
 5027 1013 16000000 		.4byte	.LVL231
 5028 1017 141A0000 		.4byte	0x1a14
 5029 101b 17       		.uleb128 0x17
 5030 101c 22000000 		.4byte	.LVL232
 5031 1020 B1190000 		.4byte	0x19b1
 5032 1024 38100000 		.4byte	0x1038
 5033 1028 18       		.uleb128 0x18
 5034 1029 01       		.uleb128 0x1
 5035 102a 50       		.byte	0x50
 5036 102b 02       		.uleb128 0x2
 5037 102c 74       		.byte	0x74
 5038 102d 00       		.sleb128 0
 5039 102e 18       		.uleb128 0x18
 5040 102f 01       		.uleb128 0x1
 5041 1030 51       		.byte	0x51
 5042 1031 05       		.uleb128 0x5
 5043 1032 03       		.byte	0x3
 5044 1033 48010000 		.4byte	.LC70
 5045 1037 00       		.byte	0
 5046 1038 19       		.uleb128 0x19
 5047 1039 28000000 		.4byte	.LVL233
 5048 103d 9B190000 		.4byte	0x199b
 5049 1041 18       		.uleb128 0x18
 5050 1042 01       		.uleb128 0x1
 5051 1043 50       		.byte	0x50
 5052 1044 02       		.uleb128 0x2
 5053 1045 74       		.byte	0x74
 5054 1046 00       		.sleb128 0
 5055 1047 00       		.byte	0
 5056 1048 00       		.byte	0
 5057 1049 1A       		.uleb128 0x1a
 5058 104a 90040000 		.4byte	.LASF63
 5059 104e 01       		.byte	0x1
 5060 104f 93       		.byte	0x93
 5061 1050 25000000 		.4byte	0x25
 5062 1054 00000000 		.4byte	.LFB2
 5063 1058 44000000 		.4byte	.LFE2-.LFB2
 5064 105c 01       		.uleb128 0x1
 5065 105d 9C       		.byte	0x9c
 5066 105e C8100000 		.4byte	0x10c8
 5067 1062 20       		.uleb128 0x20
ARM GAS  C:\Users\TERENC~1\AppData\Local\Temp\ccNQUuJb.s 			page 108


 5068 1063 6100     		.ascii	"a\000"
 5069 1065 01       		.byte	0x1
 5070 1066 93       		.byte	0x93
 5071 1067 AE000000 		.4byte	0xae
 5072 106b C8090000 		.4byte	.LLST52
 5073 106f 20       		.uleb128 0x20
 5074 1070 6200     		.ascii	"b\000"
 5075 1072 01       		.byte	0x1
 5076 1073 93       		.byte	0x93
 5077 1074 AE000000 		.4byte	0xae
 5078 1078 E6090000 		.4byte	.LLST53
 5079 107c 21       		.uleb128 0x21
 5080 107d 02000000 		.4byte	.LBB2
 5081 1081 32000000 		.4byte	.LBE2-.LBB2
 5082 1085 22       		.uleb128 0x22
 5083 1086 6400     		.ascii	"d\000"
 5084 1088 01       		.byte	0x1
 5085 1089 97       		.byte	0x97
 5086 108a 25000000 		.4byte	0x25
 5087 108e 01       		.uleb128 0x1
 5088 108f 53       		.byte	0x53
 5089 1090 23       		.uleb128 0x23
 5090 1091 02000000 		.4byte	.LBB3
 5091 1095 1A000000 		.4byte	.LBE3-.LBB3
 5092 1099 AD100000 		.4byte	0x10ad
 5093 109d 1D       		.uleb128 0x1d
 5094 109e 5F5F7800 		.ascii	"__x\000"
 5095 10a2 01       		.byte	0x1
 5096 10a3 97       		.byte	0x97
 5097 10a4 B4000000 		.4byte	0xb4
 5098 10a8 040A0000 		.4byte	.LLST54
 5099 10ac 00       		.byte	0
 5100 10ad 21       		.uleb128 0x21
 5101 10ae 1C000000 		.4byte	.LBB4
 5102 10b2 10000000 		.4byte	.LBE4-.LBB4
 5103 10b6 1D       		.uleb128 0x1d
 5104 10b7 5F5F7800 		.ascii	"__x\000"
 5105 10bb 01       		.byte	0x1
 5106 10bc 97       		.byte	0x97
 5107 10bd B4000000 		.4byte	0xb4
 5108 10c1 170A0000 		.4byte	.LLST55
 5109 10c5 00       		.byte	0
 5110 10c6 00       		.byte	0
 5111 10c7 00       		.byte	0
 5112 10c8 12       		.uleb128 0x12
 5113 10c9 70030000 		.4byte	.LASF64
 5114 10cd 01       		.byte	0x1
 5115 10ce 3F01     		.2byte	0x13f
 5116 10d0 25000000 		.4byte	0x25
 5117 10d4 00000000 		.4byte	.LFB10
 5118 10d8 A0000000 		.4byte	.LFE10-.LFB10
 5119 10dc 01       		.uleb128 0x1
 5120 10dd 9C       		.byte	0x9c
 5121 10de 1B120000 		.4byte	0x121b
 5122 10e2 13       		.uleb128 0x13
 5123 10e3 92050000 		.4byte	.LASF41
 5124 10e7 01       		.byte	0x1
ARM GAS  C:\Users\TERENC~1\AppData\Local\Temp\ccNQUuJb.s 			page 109


 5125 10e8 3F01     		.2byte	0x13f
 5126 10ea 25000000 		.4byte	0x25
 5127 10ee 4E0A0000 		.4byte	.LLST56
 5128 10f2 13       		.uleb128 0x13
 5129 10f3 54060000 		.4byte	.LASF42
 5130 10f7 01       		.byte	0x1
 5131 10f8 3F01     		.2byte	0x13f
 5132 10fa F5010000 		.4byte	0x1f5
 5133 10fe 9B0A0000 		.4byte	.LLST57
 5134 1102 14       		.uleb128 0x14
 5135 1103 6900     		.ascii	"i\000"
 5136 1105 01       		.byte	0x1
 5137 1106 4101     		.2byte	0x141
 5138 1108 25000000 		.4byte	0x25
 5139 110c 02       		.byte	0x2
 5140 110d 1E       		.uleb128 0x1e
 5141 110e 72656700 		.ascii	"reg\000"
 5142 1112 01       		.byte	0x1
 5143 1113 4201     		.2byte	0x142
 5144 1115 DA000000 		.4byte	0xda
 5145 1119 040B0000 		.4byte	.LLST58
 5146 111d 1F       		.uleb128 0x1f
 5147 111e 22030000 		.4byte	.LASF57
 5148 1122 01       		.byte	0x1
 5149 1123 4301     		.2byte	0x143
 5150 1125 DA000000 		.4byte	0xda
 5151 1129 220B0000 		.4byte	.LLST59
 5152 112d 16       		.uleb128 0x16
 5153 112e 0C000000 		.4byte	.LVL246
 5154 1132 7B190000 		.4byte	0x197b
 5155 1136 16       		.uleb128 0x16
 5156 1137 14000000 		.4byte	.LVL247
 5157 113b 87190000 		.4byte	0x1987
 5158 113f 17       		.uleb128 0x17
 5159 1140 24000000 		.4byte	.LVL249
 5160 1144 92190000 		.4byte	0x1992
 5161 1148 61110000 		.4byte	0x1161
 5162 114c 18       		.uleb128 0x18
 5163 114d 01       		.uleb128 0x1
 5164 114e 50       		.byte	0x50
 5165 114f 02       		.uleb128 0x2
 5166 1150 74       		.byte	0x74
 5167 1151 00       		.sleb128 0
 5168 1152 18       		.uleb128 0x18
 5169 1153 01       		.uleb128 0x1
 5170 1154 51       		.byte	0x51
 5171 1155 05       		.uleb128 0x5
 5172 1156 03       		.byte	0x3
 5173 1157 0C000000 		.4byte	.LC4
 5174 115b 18       		.uleb128 0x18
 5175 115c 01       		.uleb128 0x1
 5176 115d 52       		.byte	0x52
 5177 115e 01       		.uleb128 0x1
 5178 115f 4E       		.byte	0x4e
 5179 1160 00       		.byte	0
 5180 1161 17       		.uleb128 0x17
 5181 1162 2A000000 		.4byte	.LVL250
ARM GAS  C:\Users\TERENC~1\AppData\Local\Temp\ccNQUuJb.s 			page 110


 5182 1166 9B190000 		.4byte	0x199b
 5183 116a 75110000 		.4byte	0x1175
 5184 116e 18       		.uleb128 0x18
 5185 116f 01       		.uleb128 0x1
 5186 1170 50       		.byte	0x50
 5187 1171 02       		.uleb128 0x2
 5188 1172 74       		.byte	0x74
 5189 1173 00       		.sleb128 0
 5190 1174 00       		.byte	0
 5191 1175 16       		.uleb128 0x16
 5192 1176 36000000 		.4byte	.LVL253
 5193 117a A6190000 		.4byte	0x19a6
 5194 117e 17       		.uleb128 0x17
 5195 117f 42000000 		.4byte	.LVL255
 5196 1183 D2190000 		.4byte	0x19d2
 5197 1187 96110000 		.4byte	0x1196
 5198 118b 18       		.uleb128 0x18
 5199 118c 01       		.uleb128 0x1
 5200 118d 51       		.byte	0x51
 5201 118e 01       		.uleb128 0x1
 5202 118f 30       		.byte	0x30
 5203 1190 18       		.uleb128 0x18
 5204 1191 01       		.uleb128 0x1
 5205 1192 52       		.byte	0x52
 5206 1193 01       		.uleb128 0x1
 5207 1194 40       		.byte	0x40
 5208 1195 00       		.byte	0
 5209 1196 17       		.uleb128 0x17
 5210 1197 4C000000 		.4byte	.LVL257
 5211 119b 49100000 		.4byte	0x1049
 5212 119f AD110000 		.4byte	0x11ad
 5213 11a3 18       		.uleb128 0x18
 5214 11a4 01       		.uleb128 0x1
 5215 11a5 51       		.byte	0x51
 5216 11a6 05       		.uleb128 0x5
 5217 11a7 03       		.byte	0x3
 5218 11a8 58010000 		.4byte	.LC76
 5219 11ac 00       		.byte	0
 5220 11ad 17       		.uleb128 0x17
 5221 11ae 58000000 		.4byte	.LVL258
 5222 11b2 1F1A0000 		.4byte	0x1a1f
 5223 11b6 C7110000 		.4byte	0x11c7
 5224 11ba 18       		.uleb128 0x18
 5225 11bb 01       		.uleb128 0x1
 5226 11bc 50       		.byte	0x50
 5227 11bd 02       		.uleb128 0x2
 5228 11be 75       		.byte	0x75
 5229 11bf 00       		.sleb128 0
 5230 11c0 18       		.uleb128 0x18
 5231 11c1 01       		.uleb128 0x1
 5232 11c2 51       		.byte	0x51
 5233 11c3 02       		.uleb128 0x2
 5234 11c4 76       		.byte	0x76
 5235 11c5 00       		.sleb128 0
 5236 11c6 00       		.byte	0
 5237 11c7 16       		.uleb128 0x16
 5238 11c8 5C000000 		.4byte	.LVL259
ARM GAS  C:\Users\TERENC~1\AppData\Local\Temp\ccNQUuJb.s 			page 111


 5239 11cc 7B190000 		.4byte	0x197b
 5240 11d0 16       		.uleb128 0x16
 5241 11d1 64000000 		.4byte	.LVL260
 5242 11d5 87190000 		.4byte	0x1987
 5243 11d9 17       		.uleb128 0x17
 5244 11da 6E000000 		.4byte	.LVL261
 5245 11de 2A1A0000 		.4byte	0x1a2a
 5246 11e2 ED110000 		.4byte	0x11ed
 5247 11e6 18       		.uleb128 0x18
 5248 11e7 01       		.uleb128 0x1
 5249 11e8 50       		.byte	0x50
 5250 11e9 02       		.uleb128 0x2
 5251 11ea 75       		.byte	0x75
 5252 11eb 00       		.sleb128 0
 5253 11ec 00       		.byte	0
 5254 11ed 17       		.uleb128 0x17
 5255 11ee 7A000000 		.4byte	.LVL263
 5256 11f2 B1190000 		.4byte	0x19b1
 5257 11f6 0A120000 		.4byte	0x120a
 5258 11fa 18       		.uleb128 0x18
 5259 11fb 01       		.uleb128 0x1
 5260 11fc 50       		.byte	0x50
 5261 11fd 02       		.uleb128 0x2
 5262 11fe 74       		.byte	0x74
 5263 11ff 00       		.sleb128 0
 5264 1200 18       		.uleb128 0x18
 5265 1201 01       		.uleb128 0x1
 5266 1202 51       		.byte	0x51
 5267 1203 05       		.uleb128 0x5
 5268 1204 03       		.byte	0x3
 5269 1205 5C010000 		.4byte	.LC78
 5270 1209 00       		.byte	0
 5271 120a 19       		.uleb128 0x19
 5272 120b 80000000 		.4byte	.LVL264
 5273 120f 9B190000 		.4byte	0x199b
 5274 1213 18       		.uleb128 0x18
 5275 1214 01       		.uleb128 0x1
 5276 1215 50       		.byte	0x50
 5277 1216 02       		.uleb128 0x2
 5278 1217 74       		.byte	0x74
 5279 1218 00       		.sleb128 0
 5280 1219 00       		.byte	0
 5281 121a 00       		.byte	0
 5282 121b 12       		.uleb128 0x12
 5283 121c 3A030000 		.4byte	.LASF65
 5284 1220 01       		.byte	0x1
 5285 1221 AE01     		.2byte	0x1ae
 5286 1223 25000000 		.4byte	0x25
 5287 1227 00000000 		.4byte	.LFB19
 5288 122b A8000000 		.4byte	.LFE19-.LFB19
 5289 122f 01       		.uleb128 0x1
 5290 1230 9C       		.byte	0x9c
 5291 1231 29130000 		.4byte	0x1329
 5292 1235 13       		.uleb128 0x13
 5293 1236 92050000 		.4byte	.LASF41
 5294 123a 01       		.byte	0x1
 5295 123b AE01     		.2byte	0x1ae
ARM GAS  C:\Users\TERENC~1\AppData\Local\Temp\ccNQUuJb.s 			page 112


 5296 123d 25000000 		.4byte	0x25
 5297 1241 400B0000 		.4byte	.LLST60
 5298 1245 13       		.uleb128 0x13
 5299 1246 54060000 		.4byte	.LASF42
 5300 124a 01       		.byte	0x1
 5301 124b AE01     		.2byte	0x1ae
 5302 124d F5010000 		.4byte	0x1f5
 5303 1251 8D0B0000 		.4byte	.LLST61
 5304 1255 1E       		.uleb128 0x1e
 5305 1256 6900     		.ascii	"i\000"
 5306 1258 01       		.byte	0x1
 5307 1259 B001     		.2byte	0x1b0
 5308 125b 25000000 		.4byte	0x25
 5309 125f CF0B0000 		.4byte	.LLST62
 5310 1263 16       		.uleb128 0x16
 5311 1264 0C000000 		.4byte	.LVL270
 5312 1268 7B190000 		.4byte	0x197b
 5313 126c 16       		.uleb128 0x16
 5314 126d 14000000 		.4byte	.LVL271
 5315 1271 87190000 		.4byte	0x1987
 5316 1275 17       		.uleb128 0x17
 5317 1276 24000000 		.4byte	.LVL272
 5318 127a 92190000 		.4byte	0x1992
 5319 127e 97120000 		.4byte	0x1297
 5320 1282 18       		.uleb128 0x18
 5321 1283 01       		.uleb128 0x1
 5322 1284 50       		.byte	0x50
 5323 1285 02       		.uleb128 0x2
 5324 1286 74       		.byte	0x74
 5325 1287 00       		.sleb128 0
 5326 1288 18       		.uleb128 0x18
 5327 1289 01       		.uleb128 0x1
 5328 128a 51       		.byte	0x51
 5329 128b 05       		.uleb128 0x5
 5330 128c 03       		.byte	0x3
 5331 128d 0C000000 		.4byte	.LC4
 5332 1291 18       		.uleb128 0x18
 5333 1292 01       		.uleb128 0x1
 5334 1293 52       		.byte	0x52
 5335 1294 01       		.uleb128 0x1
 5336 1295 4E       		.byte	0x4e
 5337 1296 00       		.byte	0
 5338 1297 17       		.uleb128 0x17
 5339 1298 2A000000 		.4byte	.LVL273
 5340 129c 9B190000 		.4byte	0x199b
 5341 12a0 AB120000 		.4byte	0x12ab
 5342 12a4 18       		.uleb128 0x18
 5343 12a5 01       		.uleb128 0x1
 5344 12a6 50       		.byte	0x50
 5345 12a7 02       		.uleb128 0x2
 5346 12a8 74       		.byte	0x74
 5347 12a9 00       		.sleb128 0
 5348 12aa 00       		.byte	0
 5349 12ab 17       		.uleb128 0x17
 5350 12ac 3A000000 		.4byte	.LVL277
 5351 12b0 49100000 		.4byte	0x1049
 5352 12b4 C8120000 		.4byte	0x12c8
ARM GAS  C:\Users\TERENC~1\AppData\Local\Temp\ccNQUuJb.s 			page 113


 5353 12b8 18       		.uleb128 0x18
 5354 12b9 01       		.uleb128 0x1
 5355 12ba 50       		.byte	0x50
 5356 12bb 02       		.uleb128 0x2
 5357 12bc 76       		.byte	0x76
 5358 12bd 00       		.sleb128 0
 5359 12be 18       		.uleb128 0x18
 5360 12bf 01       		.uleb128 0x1
 5361 12c0 51       		.byte	0x51
 5362 12c1 05       		.uleb128 0x5
 5363 12c2 03       		.byte	0x3
 5364 12c3 70010000 		.4byte	.LC82
 5365 12c7 00       		.byte	0
 5366 12c8 16       		.uleb128 0x16
 5367 12c9 48000000 		.4byte	.LVL279
 5368 12cd A6190000 		.4byte	0x19a6
 5369 12d1 17       		.uleb128 0x17
 5370 12d2 54000000 		.4byte	.LVL281
 5371 12d6 49100000 		.4byte	0x1049
 5372 12da EE120000 		.4byte	0x12ee
 5373 12de 18       		.uleb128 0x18
 5374 12df 01       		.uleb128 0x1
 5375 12e0 50       		.byte	0x50
 5376 12e1 02       		.uleb128 0x2
 5377 12e2 76       		.byte	0x76
 5378 12e3 00       		.sleb128 0
 5379 12e4 18       		.uleb128 0x18
 5380 12e5 01       		.uleb128 0x1
 5381 12e6 51       		.byte	0x51
 5382 12e7 05       		.uleb128 0x5
 5383 12e8 03       		.byte	0x3
 5384 12e9 84010000 		.4byte	.LC85
 5385 12ed 00       		.byte	0
 5386 12ee 16       		.uleb128 0x16
 5387 12ef 62000000 		.4byte	.LVL283
 5388 12f3 A6190000 		.4byte	0x19a6
 5389 12f7 17       		.uleb128 0x17
 5390 12f8 6E000000 		.4byte	.LVL285
 5391 12fc 49100000 		.4byte	0x1049
 5392 1300 14130000 		.4byte	0x1314
 5393 1304 18       		.uleb128 0x18
 5394 1305 01       		.uleb128 0x1
 5395 1306 50       		.byte	0x50
 5396 1307 02       		.uleb128 0x2
 5397 1308 76       		.byte	0x76
 5398 1309 00       		.sleb128 0
 5399 130a 18       		.uleb128 0x18
 5400 130b 01       		.uleb128 0x1
 5401 130c 51       		.byte	0x51
 5402 130d 05       		.uleb128 0x5
 5403 130e 03       		.byte	0x3
 5404 130f 90010000 		.4byte	.LC87
 5405 1313 00       		.byte	0
 5406 1314 19       		.uleb128 0x19
 5407 1315 80000000 		.4byte	.LVL287
 5408 1319 D2190000 		.4byte	0x19d2
 5409 131d 18       		.uleb128 0x18
ARM GAS  C:\Users\TERENC~1\AppData\Local\Temp\ccNQUuJb.s 			page 114


 5410 131e 01       		.uleb128 0x1
 5411 131f 51       		.byte	0x51
 5412 1320 01       		.uleb128 0x1
 5413 1321 30       		.byte	0x30
 5414 1322 18       		.uleb128 0x18
 5415 1323 01       		.uleb128 0x1
 5416 1324 52       		.byte	0x52
 5417 1325 01       		.uleb128 0x1
 5418 1326 40       		.byte	0x40
 5419 1327 00       		.byte	0
 5420 1328 00       		.byte	0
 5421 1329 24       		.uleb128 0x24
 5422 132a D5030000 		.4byte	.LASF111
 5423 132e 01       		.byte	0x1
 5424 132f CF01     		.2byte	0x1cf
 5425 1331 25000000 		.4byte	0x25
 5426 1335 00000000 		.4byte	.LFB21
 5427 1339 78020000 		.4byte	.LFE21-.LFB21
 5428 133d 01       		.uleb128 0x1
 5429 133e 9C       		.byte	0x9c
 5430 133f F0150000 		.4byte	0x15f0
 5431 1343 1F       		.uleb128 0x1f
 5432 1344 59020000 		.4byte	.LASF66
 5433 1348 01       		.byte	0x1
 5434 1349 D101     		.2byte	0x1d1
 5435 134b 25000000 		.4byte	0x25
 5436 134f 2B0C0000 		.4byte	.LLST63
 5437 1353 1E       		.uleb128 0x1e
 5438 1354 62756600 		.ascii	"buf\000"
 5439 1358 01       		.byte	0x1
 5440 1359 D201     		.2byte	0x1d2
 5441 135b 9A000000 		.4byte	0x9a
 5442 135f 990C0000 		.4byte	.LLST64
 5443 1363 1F       		.uleb128 0x1f
 5444 1364 BA050000 		.4byte	.LASF67
 5445 1368 01       		.byte	0x1
 5446 1369 D301     		.2byte	0x1d3
 5447 136b F0150000 		.4byte	0x15f0
 5448 136f D20C0000 		.4byte	.LLST65
 5449 1373 25       		.uleb128 0x25
 5450 1374 54060000 		.4byte	.LASF42
 5451 1378 01       		.byte	0x1
 5452 1379 D401     		.2byte	0x1d4
 5453 137b F7150000 		.4byte	0x15f7
 5454 137f 03       		.uleb128 0x3
 5455 1380 91       		.byte	0x91
 5456 1381 B07F     		.sleb128 -80
 5457 1383 1F       		.uleb128 0x1f
 5458 1384 92050000 		.4byte	.LASF41
 5459 1388 01       		.byte	0x1
 5460 1389 D501     		.2byte	0x1d5
 5461 138b 25000000 		.4byte	0x25
 5462 138f 640D0000 		.4byte	.LLST66
 5463 1393 1E       		.uleb128 0x1e
 5464 1394 6900     		.ascii	"i\000"
 5465 1396 01       		.byte	0x1
 5466 1397 D601     		.2byte	0x1d6
ARM GAS  C:\Users\TERENC~1\AppData\Local\Temp\ccNQUuJb.s 			page 115


 5467 1399 25000000 		.4byte	0x25
 5468 139d AF0D0000 		.4byte	.LLST67
 5469 13a1 1E       		.uleb128 0x1e
 5470 13a2 6A00     		.ascii	"j\000"
 5471 13a4 01       		.byte	0x1
 5472 13a5 D601     		.2byte	0x1d6
 5473 13a7 25000000 		.4byte	0x25
 5474 13ab FC0D0000 		.4byte	.LLST68
 5475 13af 1E       		.uleb128 0x1e
 5476 13b0 6B00     		.ascii	"k\000"
 5477 13b2 01       		.byte	0x1
 5478 13b3 D601     		.2byte	0x1d6
 5479 13b5 25000000 		.4byte	0x25
 5480 13b9 3E0E0000 		.4byte	.LLST69
 5481 13bd 16       		.uleb128 0x16
 5482 13be 60000000 		.4byte	.LVL296
 5483 13c2 7B190000 		.4byte	0x197b
 5484 13c6 16       		.uleb128 0x16
 5485 13c7 6A000000 		.4byte	.LVL297
 5486 13cb 87190000 		.4byte	0x1987
 5487 13cf 17       		.uleb128 0x17
 5488 13d0 7A000000 		.4byte	.LVL298
 5489 13d4 92190000 		.4byte	0x1992
 5490 13d8 F1130000 		.4byte	0x13f1
 5491 13dc 18       		.uleb128 0x18
 5492 13dd 01       		.uleb128 0x1
 5493 13de 50       		.byte	0x50
 5494 13df 02       		.uleb128 0x2
 5495 13e0 74       		.byte	0x74
 5496 13e1 00       		.sleb128 0
 5497 13e2 18       		.uleb128 0x18
 5498 13e3 01       		.uleb128 0x1
 5499 13e4 51       		.byte	0x51
 5500 13e5 05       		.uleb128 0x5
 5501 13e6 03       		.byte	0x3
 5502 13e7 9C010000 		.4byte	.LC92
 5503 13eb 18       		.uleb128 0x18
 5504 13ec 01       		.uleb128 0x1
 5505 13ed 52       		.byte	0x52
 5506 13ee 01       		.uleb128 0x1
 5507 13ef 45       		.byte	0x45
 5508 13f0 00       		.byte	0
 5509 13f1 17       		.uleb128 0x17
 5510 13f2 80000000 		.4byte	.LVL299
 5511 13f6 9B190000 		.4byte	0x199b
 5512 13fa 05140000 		.4byte	0x1405
 5513 13fe 18       		.uleb128 0x18
 5514 13ff 01       		.uleb128 0x1
 5515 1400 50       		.byte	0x50
 5516 1401 02       		.uleb128 0x2
 5517 1402 74       		.byte	0x74
 5518 1403 00       		.sleb128 0
 5519 1404 00       		.byte	0
 5520 1405 17       		.uleb128 0x17
 5521 1406 A2000000 		.4byte	.LVL304
 5522 140a 49100000 		.4byte	0x1049
 5523 140e 21140000 		.4byte	0x1421
ARM GAS  C:\Users\TERENC~1\AppData\Local\Temp\ccNQUuJb.s 			page 116


 5524 1412 18       		.uleb128 0x18
 5525 1413 01       		.uleb128 0x1
 5526 1414 50       		.byte	0x50
 5527 1415 02       		.uleb128 0x2
 5528 1416 75       		.byte	0x75
 5529 1417 00       		.sleb128 0
 5530 1418 18       		.uleb128 0x18
 5531 1419 01       		.uleb128 0x1
 5532 141a 51       		.byte	0x51
 5533 141b 04       		.uleb128 0x4
 5534 141c 91       		.byte	0x91
 5535 141d A87F     		.sleb128 -88
 5536 141f 06       		.byte	0x6
 5537 1420 00       		.byte	0
 5538 1421 17       		.uleb128 0x17
 5539 1422 B0000000 		.4byte	.LVL305
 5540 1426 49100000 		.4byte	0x1049
 5541 142a 35140000 		.4byte	0x1435
 5542 142e 18       		.uleb128 0x18
 5543 142f 01       		.uleb128 0x1
 5544 1430 50       		.byte	0x50
 5545 1431 02       		.uleb128 0x2
 5546 1432 75       		.byte	0x75
 5547 1433 00       		.sleb128 0
 5548 1434 00       		.byte	0
 5549 1435 26       		.uleb128 0x26
 5550 1436 BE000000 		.4byte	.LVL306
 5551 143a 4C140000 		.4byte	0x144c
 5552 143e 18       		.uleb128 0x18
 5553 143f 01       		.uleb128 0x1
 5554 1440 50       		.byte	0x50
 5555 1441 02       		.uleb128 0x2
 5556 1442 79       		.byte	0x79
 5557 1443 00       		.sleb128 0
 5558 1444 18       		.uleb128 0x18
 5559 1445 01       		.uleb128 0x1
 5560 1446 51       		.byte	0x51
 5561 1447 03       		.uleb128 0x3
 5562 1448 91       		.byte	0x91
 5563 1449 B07F     		.sleb128 -80
 5564 144b 00       		.byte	0
 5565 144c 17       		.uleb128 0x17
 5566 144d CE000000 		.4byte	.LVL309
 5567 1451 49100000 		.4byte	0x1049
 5568 1455 69140000 		.4byte	0x1469
 5569 1459 18       		.uleb128 0x18
 5570 145a 01       		.uleb128 0x1
 5571 145b 50       		.byte	0x50
 5572 145c 02       		.uleb128 0x2
 5573 145d 75       		.byte	0x75
 5574 145e 00       		.sleb128 0
 5575 145f 18       		.uleb128 0x18
 5576 1460 01       		.uleb128 0x1
 5577 1461 51       		.byte	0x51
 5578 1462 05       		.uleb128 0x5
 5579 1463 03       		.byte	0x3
 5580 1464 B4010000 		.4byte	.LC94
ARM GAS  C:\Users\TERENC~1\AppData\Local\Temp\ccNQUuJb.s 			page 117


 5581 1468 00       		.byte	0
 5582 1469 16       		.uleb128 0x16
 5583 146a D6000000 		.4byte	.LVL311
 5584 146e 7B190000 		.4byte	0x197b
 5585 1472 16       		.uleb128 0x16
 5586 1473 DE000000 		.4byte	.LVL312
 5587 1477 87190000 		.4byte	0x1987
 5588 147b 17       		.uleb128 0x17
 5589 147c EE000000 		.4byte	.LVL313
 5590 1480 B1190000 		.4byte	0x19b1
 5591 1484 A0140000 		.4byte	0x14a0
 5592 1488 18       		.uleb128 0x18
 5593 1489 01       		.uleb128 0x1
 5594 148a 50       		.byte	0x50
 5595 148b 02       		.uleb128 0x2
 5596 148c 75       		.byte	0x75
 5597 148d 00       		.sleb128 0
 5598 148e 18       		.uleb128 0x18
 5599 148f 01       		.uleb128 0x1
 5600 1490 51       		.byte	0x51
 5601 1491 05       		.uleb128 0x5
 5602 1492 03       		.byte	0x3
 5603 1493 BC010000 		.4byte	.LC96
 5604 1497 18       		.uleb128 0x18
 5605 1498 01       		.uleb128 0x1
 5606 1499 52       		.byte	0x52
 5607 149a 04       		.uleb128 0x4
 5608 149b 91       		.byte	0x91
 5609 149c A87F     		.sleb128 -88
 5610 149e 06       		.byte	0x6
 5611 149f 00       		.byte	0
 5612 14a0 17       		.uleb128 0x17
 5613 14a1 F4000000 		.4byte	.LVL314
 5614 14a5 9B190000 		.4byte	0x199b
 5615 14a9 B4140000 		.4byte	0x14b4
 5616 14ad 18       		.uleb128 0x18
 5617 14ae 01       		.uleb128 0x1
 5618 14af 50       		.byte	0x50
 5619 14b0 02       		.uleb128 0x2
 5620 14b1 75       		.byte	0x75
 5621 14b2 00       		.sleb128 0
 5622 14b3 00       		.byte	0
 5623 14b4 16       		.uleb128 0x16
 5624 14b5 FA000000 		.4byte	.LVL315
 5625 14b9 7B190000 		.4byte	0x197b
 5626 14bd 16       		.uleb128 0x16
 5627 14be 02010000 		.4byte	.LVL316
 5628 14c2 87190000 		.4byte	0x1987
 5629 14c6 17       		.uleb128 0x17
 5630 14c7 16010000 		.4byte	.LVL317
 5631 14cb B1190000 		.4byte	0x19b1
 5632 14cf E5140000 		.4byte	0x14e5
 5633 14d3 18       		.uleb128 0x18
 5634 14d4 01       		.uleb128 0x1
 5635 14d5 51       		.byte	0x51
 5636 14d6 05       		.uleb128 0x5
 5637 14d7 03       		.byte	0x3
ARM GAS  C:\Users\TERENC~1\AppData\Local\Temp\ccNQUuJb.s 			page 118


 5638 14d8 E0010000 		.4byte	.LC98
 5639 14dc 18       		.uleb128 0x18
 5640 14dd 01       		.uleb128 0x1
 5641 14de 52       		.byte	0x52
 5642 14df 04       		.uleb128 0x4
 5643 14e0 91       		.byte	0x91
 5644 14e1 A87F     		.sleb128 -88
 5645 14e3 06       		.byte	0x6
 5646 14e4 00       		.byte	0
 5647 14e5 16       		.uleb128 0x16
 5648 14e6 1C010000 		.4byte	.LVL318
 5649 14ea 9B190000 		.4byte	0x199b
 5650 14ee 17       		.uleb128 0x17
 5651 14ef 6C010000 		.4byte	.LVL323
 5652 14f3 49100000 		.4byte	0x1049
 5653 14f7 0B150000 		.4byte	0x150b
 5654 14fb 18       		.uleb128 0x18
 5655 14fc 01       		.uleb128 0x1
 5656 14fd 50       		.byte	0x50
 5657 14fe 02       		.uleb128 0x2
 5658 14ff 75       		.byte	0x75
 5659 1500 00       		.sleb128 0
 5660 1501 18       		.uleb128 0x18
 5661 1502 01       		.uleb128 0x1
 5662 1503 51       		.byte	0x51
 5663 1504 05       		.uleb128 0x5
 5664 1505 03       		.byte	0x3
 5665 1506 B4010000 		.4byte	.LC94
 5666 150a 00       		.byte	0
 5667 150b 16       		.uleb128 0x16
 5668 150c 74010000 		.4byte	.LVL325
 5669 1510 7B190000 		.4byte	0x197b
 5670 1514 16       		.uleb128 0x16
 5671 1515 7C010000 		.4byte	.LVL326
 5672 1519 87190000 		.4byte	0x1987
 5673 151d 17       		.uleb128 0x17
 5674 151e 8C010000 		.4byte	.LVL327
 5675 1522 92190000 		.4byte	0x1992
 5676 1526 3F150000 		.4byte	0x153f
 5677 152a 18       		.uleb128 0x18
 5678 152b 01       		.uleb128 0x1
 5679 152c 50       		.byte	0x50
 5680 152d 02       		.uleb128 0x2
 5681 152e 75       		.byte	0x75
 5682 152f 00       		.sleb128 0
 5683 1530 18       		.uleb128 0x18
 5684 1531 01       		.uleb128 0x1
 5685 1532 51       		.byte	0x51
 5686 1533 05       		.uleb128 0x5
 5687 1534 03       		.byte	0x3
 5688 1535 EC010000 		.4byte	.LC101
 5689 1539 18       		.uleb128 0x18
 5690 153a 01       		.uleb128 0x1
 5691 153b 52       		.byte	0x52
 5692 153c 01       		.uleb128 0x1
 5693 153d 4E       		.byte	0x4e
 5694 153e 00       		.byte	0
ARM GAS  C:\Users\TERENC~1\AppData\Local\Temp\ccNQUuJb.s 			page 119


 5695 153f 17       		.uleb128 0x17
 5696 1540 92010000 		.4byte	.LVL328
 5697 1544 9B190000 		.4byte	0x199b
 5698 1548 53150000 		.4byte	0x1553
 5699 154c 18       		.uleb128 0x18
 5700 154d 01       		.uleb128 0x1
 5701 154e 50       		.byte	0x50
 5702 154f 02       		.uleb128 0x2
 5703 1550 75       		.byte	0x75
 5704 1551 00       		.sleb128 0
 5705 1552 00       		.byte	0
 5706 1553 16       		.uleb128 0x16
 5707 1554 98010000 		.4byte	.LVL330
 5708 1558 7B190000 		.4byte	0x197b
 5709 155c 16       		.uleb128 0x16
 5710 155d A0010000 		.4byte	.LVL331
 5711 1561 87190000 		.4byte	0x1987
 5712 1565 17       		.uleb128 0x17
 5713 1566 BC010000 		.4byte	.LVL332
 5714 156a B1190000 		.4byte	0x19b1
 5715 156e 9C150000 		.4byte	0x159c
 5716 1572 18       		.uleb128 0x18
 5717 1573 01       		.uleb128 0x1
 5718 1574 50       		.byte	0x50
 5719 1575 02       		.uleb128 0x2
 5720 1576 76       		.byte	0x76
 5721 1577 00       		.sleb128 0
 5722 1578 18       		.uleb128 0x18
 5723 1579 01       		.uleb128 0x1
 5724 157a 51       		.byte	0x51
 5725 157b 05       		.uleb128 0x5
 5726 157c 03       		.byte	0x3
 5727 157d 0C020000 		.4byte	.LC103
 5728 1581 18       		.uleb128 0x18
 5729 1582 01       		.uleb128 0x1
 5730 1583 52       		.byte	0x52
 5731 1584 02       		.uleb128 0x2
 5732 1585 75       		.byte	0x75
 5733 1586 00       		.sleb128 0
 5734 1587 18       		.uleb128 0x18
 5735 1588 01       		.uleb128 0x1
 5736 1589 53       		.byte	0x53
 5737 158a 10       		.uleb128 0x10
 5738 158b 74       		.byte	0x74
 5739 158c 00       		.sleb128 0
 5740 158d 31       		.byte	0x31
 5741 158e 24       		.byte	0x24
 5742 158f 74       		.byte	0x74
 5743 1590 00       		.sleb128 0
 5744 1591 22       		.byte	0x22
 5745 1592 32       		.byte	0x32
 5746 1593 24       		.byte	0x24
 5747 1594 03       		.byte	0x3
 5748 1595 40000000 		.4byte	.LANCHOR0+64
 5749 1599 22       		.byte	0x22
 5750 159a 06       		.byte	0x6
 5751 159b 00       		.byte	0
ARM GAS  C:\Users\TERENC~1\AppData\Local\Temp\ccNQUuJb.s 			page 120


 5752 159c 17       		.uleb128 0x17
 5753 159d C2010000 		.4byte	.LVL333
 5754 15a1 9B190000 		.4byte	0x199b
 5755 15a5 B0150000 		.4byte	0x15b0
 5756 15a9 18       		.uleb128 0x18
 5757 15aa 01       		.uleb128 0x1
 5758 15ab 50       		.byte	0x50
 5759 15ac 02       		.uleb128 0x2
 5760 15ad 76       		.byte	0x76
 5761 15ae 00       		.sleb128 0
 5762 15af 00       		.byte	0
 5763 15b0 16       		.uleb128 0x16
 5764 15b1 0E020000 		.4byte	.LVL341
 5765 15b5 7B190000 		.4byte	0x197b
 5766 15b9 16       		.uleb128 0x16
 5767 15ba 16020000 		.4byte	.LVL342
 5768 15be 87190000 		.4byte	0x1987
 5769 15c2 17       		.uleb128 0x17
 5770 15c3 26020000 		.4byte	.LVL343
 5771 15c7 B1190000 		.4byte	0x19b1
 5772 15cb DF150000 		.4byte	0x15df
 5773 15cf 18       		.uleb128 0x18
 5774 15d0 01       		.uleb128 0x1
 5775 15d1 50       		.byte	0x50
 5776 15d2 02       		.uleb128 0x2
 5777 15d3 74       		.byte	0x74
 5778 15d4 00       		.sleb128 0
 5779 15d5 18       		.uleb128 0x18
 5780 15d6 01       		.uleb128 0x1
 5781 15d7 51       		.byte	0x51
 5782 15d8 05       		.uleb128 0x5
 5783 15d9 03       		.byte	0x3
 5784 15da 18020000 		.4byte	.LC105
 5785 15de 00       		.byte	0
 5786 15df 19       		.uleb128 0x19
 5787 15e0 2C020000 		.4byte	.LVL344
 5788 15e4 9B190000 		.4byte	0x199b
 5789 15e8 18       		.uleb128 0x18
 5790 15e9 01       		.uleb128 0x1
 5791 15ea 50       		.byte	0x50
 5792 15eb 02       		.uleb128 0x2
 5793 15ec 74       		.byte	0x74
 5794 15ed 00       		.sleb128 0
 5795 15ee 00       		.byte	0
 5796 15ef 00       		.byte	0
 5797 15f0 03       		.uleb128 0x3
 5798 15f1 01       		.byte	0x1
 5799 15f2 02       		.byte	0x2
 5800 15f3 C9040000 		.4byte	.LASF68
 5801 15f7 0E       		.uleb128 0xe
 5802 15f8 9A000000 		.4byte	0x9a
 5803 15fc 07160000 		.4byte	0x1607
 5804 1600 0F       		.uleb128 0xf
 5805 1601 93000000 		.4byte	0x93
 5806 1605 09       		.byte	0x9
 5807 1606 00       		.byte	0
 5808 1607 27       		.uleb128 0x27
ARM GAS  C:\Users\TERENC~1\AppData\Local\Temp\ccNQUuJb.s 			page 121


 5809 1608 72040000 		.4byte	.LASF69
 5810 160c 01       		.byte	0x1
 5811 160d 2F02     		.2byte	0x22f
 5812 160f 00000000 		.4byte	.LFB22
 5813 1613 1C000000 		.4byte	.LFE22-.LFB22
 5814 1617 01       		.uleb128 0x1
 5815 1618 9C       		.byte	0x9c
 5816 1619 39160000 		.4byte	0x1639
 5817 161d 19       		.uleb128 0x19
 5818 161e 0E000000 		.4byte	.LVL349
 5819 1622 351A0000 		.4byte	0x1a35
 5820 1626 18       		.uleb128 0x18
 5821 1627 01       		.uleb128 0x1
 5822 1628 50       		.byte	0x50
 5823 1629 02       		.uleb128 0x2
 5824 162a 74       		.byte	0x74
 5825 162b 00       		.sleb128 0
 5826 162c 18       		.uleb128 0x18
 5827 162d 01       		.uleb128 0x1
 5828 162e 51       		.byte	0x51
 5829 162f 01       		.uleb128 0x1
 5830 1630 30       		.byte	0x30
 5831 1631 18       		.uleb128 0x18
 5832 1632 01       		.uleb128 0x1
 5833 1633 52       		.byte	0x52
 5834 1634 02       		.uleb128 0x2
 5835 1635 08       		.byte	0x8
 5836 1636 40       		.byte	0x40
 5837 1637 00       		.byte	0
 5838 1638 00       		.byte	0
 5839 1639 27       		.uleb128 0x27
 5840 163a 39050000 		.4byte	.LASF70
 5841 163e 01       		.byte	0x1
 5842 163f 3502     		.2byte	0x235
 5843 1641 00000000 		.4byte	.LFB23
 5844 1645 20010000 		.4byte	.LFE23-.LFB23
 5845 1649 01       		.uleb128 0x1
 5846 164a 9C       		.byte	0x9c
 5847 164b C7170000 		.4byte	0x17c7
 5848 164f 1E       		.uleb128 0x1e
 5849 1650 6300     		.ascii	"c\000"
 5850 1652 01       		.byte	0x1
 5851 1653 3702     		.2byte	0x237
 5852 1655 A0000000 		.4byte	0xa0
 5853 1659 800E0000 		.4byte	.LLST70
 5854 165d 1E       		.uleb128 0x1e
 5855 165e 6900     		.ascii	"i\000"
 5856 1660 01       		.byte	0x1
 5857 1661 3802     		.2byte	0x238
 5858 1663 DA000000 		.4byte	0xda
 5859 1667 C60E0000 		.4byte	.LLST71
 5860 166b 1F       		.uleb128 0x1f
 5861 166c 00000000 		.4byte	.LASF71
 5862 1670 01       		.byte	0x1
 5863 1671 3902     		.2byte	0x239
 5864 1673 E6000000 		.4byte	0xe6
 5865 1677 F00E0000 		.4byte	.LLST72
ARM GAS  C:\Users\TERENC~1\AppData\Local\Temp\ccNQUuJb.s 			page 122


 5866 167b 25       		.uleb128 0x25
 5867 167c 97050000 		.4byte	.LASF72
 5868 1680 01       		.byte	0x1
 5869 1681 3A02     		.2byte	0x23a
 5870 1683 C7170000 		.4byte	0x17c7
 5871 1687 03       		.uleb128 0x3
 5872 1688 91       		.byte	0x91
 5873 1689 A87F     		.sleb128 -88
 5874 168b 17       		.uleb128 0x17
 5875 168c 0A000000 		.4byte	.LVL351
 5876 1690 3E1A0000 		.4byte	0x1a3e
 5877 1694 9F160000 		.4byte	0x169f
 5878 1698 18       		.uleb128 0x18
 5879 1699 01       		.uleb128 0x1
 5880 169a 50       		.byte	0x50
 5881 169b 02       		.uleb128 0x2
 5882 169c 7D       		.byte	0x7d
 5883 169d 00       		.sleb128 0
 5884 169e 00       		.byte	0
 5885 169f 16       		.uleb128 0x16
 5886 16a0 32000000 		.4byte	.LVL356
 5887 16a4 7B190000 		.4byte	0x197b
 5888 16a8 16       		.uleb128 0x16
 5889 16a9 3A000000 		.4byte	.LVL357
 5890 16ad 87190000 		.4byte	0x1987
 5891 16b1 17       		.uleb128 0x17
 5892 16b2 4A000000 		.4byte	.LVL358
 5893 16b6 B1190000 		.4byte	0x19b1
 5894 16ba D4160000 		.4byte	0x16d4
 5895 16be 18       		.uleb128 0x18
 5896 16bf 01       		.uleb128 0x1
 5897 16c0 50       		.byte	0x50
 5898 16c1 02       		.uleb128 0x2
 5899 16c2 77       		.byte	0x77
 5900 16c3 00       		.sleb128 0
 5901 16c4 18       		.uleb128 0x18
 5902 16c5 01       		.uleb128 0x1
 5903 16c6 51       		.byte	0x51
 5904 16c7 05       		.uleb128 0x5
 5905 16c8 03       		.byte	0x3
 5906 16c9 30020000 		.4byte	.LC108
 5907 16cd 18       		.uleb128 0x18
 5908 16ce 01       		.uleb128 0x1
 5909 16cf 52       		.byte	0x52
 5910 16d0 02       		.uleb128 0x2
 5911 16d1 74       		.byte	0x74
 5912 16d2 00       		.sleb128 0
 5913 16d3 00       		.byte	0
 5914 16d4 17       		.uleb128 0x17
 5915 16d5 50000000 		.4byte	.LVL359
 5916 16d9 9B190000 		.4byte	0x199b
 5917 16dd E8160000 		.4byte	0x16e8
 5918 16e1 18       		.uleb128 0x18
 5919 16e2 01       		.uleb128 0x1
 5920 16e3 50       		.byte	0x50
 5921 16e4 02       		.uleb128 0x2
 5922 16e5 77       		.byte	0x77
ARM GAS  C:\Users\TERENC~1\AppData\Local\Temp\ccNQUuJb.s 			page 123


 5923 16e6 00       		.sleb128 0
 5924 16e7 00       		.byte	0
 5925 16e8 16       		.uleb128 0x16
 5926 16e9 5E000000 		.4byte	.LVL360
 5927 16ed 29130000 		.4byte	0x1329
 5928 16f1 16       		.uleb128 0x16
 5929 16f2 62000000 		.4byte	.LVL361
 5930 16f6 7B190000 		.4byte	0x197b
 5931 16fa 16       		.uleb128 0x16
 5932 16fb 6A000000 		.4byte	.LVL362
 5933 16ff 87190000 		.4byte	0x1987
 5934 1703 17       		.uleb128 0x17
 5935 1704 7A000000 		.4byte	.LVL364
 5936 1708 92190000 		.4byte	0x1992
 5937 170c 25170000 		.4byte	0x1725
 5938 1710 18       		.uleb128 0x18
 5939 1711 01       		.uleb128 0x1
 5940 1712 50       		.byte	0x50
 5941 1713 02       		.uleb128 0x2
 5942 1714 74       		.byte	0x74
 5943 1715 00       		.sleb128 0
 5944 1716 18       		.uleb128 0x18
 5945 1717 01       		.uleb128 0x1
 5946 1718 51       		.byte	0x51
 5947 1719 05       		.uleb128 0x5
 5948 171a 03       		.byte	0x3
 5949 171b 34020000 		.4byte	.LC112
 5950 171f 18       		.uleb128 0x18
 5951 1720 01       		.uleb128 0x1
 5952 1721 52       		.byte	0x52
 5953 1722 01       		.uleb128 0x1
 5954 1723 37       		.byte	0x37
 5955 1724 00       		.byte	0
 5956 1725 17       		.uleb128 0x17
 5957 1726 80000000 		.4byte	.LVL365
 5958 172a 9B190000 		.4byte	0x199b
 5959 172e 39170000 		.4byte	0x1739
 5960 1732 18       		.uleb128 0x18
 5961 1733 01       		.uleb128 0x1
 5962 1734 50       		.byte	0x50
 5963 1735 02       		.uleb128 0x2
 5964 1736 74       		.byte	0x74
 5965 1737 00       		.sleb128 0
 5966 1738 00       		.byte	0
 5967 1739 16       		.uleb128 0x16
 5968 173a A6000000 		.4byte	.LVL367
 5969 173e 7B190000 		.4byte	0x197b
 5970 1742 16       		.uleb128 0x16
 5971 1743 AE000000 		.4byte	.LVL368
 5972 1747 87190000 		.4byte	0x1987
 5973 174b 17       		.uleb128 0x17
 5974 174c BE000000 		.4byte	.LVL370
 5975 1750 92190000 		.4byte	0x1992
 5976 1754 6D170000 		.4byte	0x176d
 5977 1758 18       		.uleb128 0x18
 5978 1759 01       		.uleb128 0x1
 5979 175a 50       		.byte	0x50
ARM GAS  C:\Users\TERENC~1\AppData\Local\Temp\ccNQUuJb.s 			page 124


 5980 175b 02       		.uleb128 0x2
 5981 175c 74       		.byte	0x74
 5982 175d 00       		.sleb128 0
 5983 175e 18       		.uleb128 0x18
 5984 175f 01       		.uleb128 0x1
 5985 1760 51       		.byte	0x51
 5986 1761 05       		.uleb128 0x5
 5987 1762 03       		.byte	0x3
 5988 1763 3C020000 		.4byte	.LC114
 5989 1767 18       		.uleb128 0x18
 5990 1768 01       		.uleb128 0x1
 5991 1769 52       		.byte	0x52
 5992 176a 01       		.uleb128 0x1
 5993 176b 34       		.byte	0x34
 5994 176c 00       		.byte	0
 5995 176d 17       		.uleb128 0x17
 5996 176e C4000000 		.4byte	.LVL371
 5997 1772 9B190000 		.4byte	0x199b
 5998 1776 81170000 		.4byte	0x1781
 5999 177a 18       		.uleb128 0x18
 6000 177b 01       		.uleb128 0x1
 6001 177c 50       		.byte	0x50
 6002 177d 02       		.uleb128 0x2
 6003 177e 74       		.byte	0x74
 6004 177f 00       		.sleb128 0
 6005 1780 00       		.byte	0
 6006 1781 16       		.uleb128 0x16
 6007 1782 CA000000 		.4byte	.LVL373
 6008 1786 7B190000 		.4byte	0x197b
 6009 178a 16       		.uleb128 0x16
 6010 178b D2000000 		.4byte	.LVL374
 6011 178f 87190000 		.4byte	0x1987
 6012 1793 17       		.uleb128 0x17
 6013 1794 E2000000 		.4byte	.LVL375
 6014 1798 B1190000 		.4byte	0x19b1
 6015 179c B6170000 		.4byte	0x17b6
 6016 17a0 18       		.uleb128 0x18
 6017 17a1 01       		.uleb128 0x1
 6018 17a2 50       		.byte	0x50
 6019 17a3 02       		.uleb128 0x2
 6020 17a4 77       		.byte	0x77
 6021 17a5 00       		.sleb128 0
 6022 17a6 18       		.uleb128 0x18
 6023 17a7 01       		.uleb128 0x1
 6024 17a8 51       		.byte	0x51
 6025 17a9 05       		.uleb128 0x5
 6026 17aa 03       		.byte	0x3
 6027 17ab 30020000 		.4byte	.LC108
 6028 17af 18       		.uleb128 0x18
 6029 17b0 01       		.uleb128 0x1
 6030 17b1 52       		.byte	0x52
 6031 17b2 02       		.uleb128 0x2
 6032 17b3 74       		.byte	0x74
 6033 17b4 00       		.sleb128 0
 6034 17b5 00       		.byte	0
 6035 17b6 19       		.uleb128 0x19
 6036 17b7 E8000000 		.4byte	.LVL376
ARM GAS  C:\Users\TERENC~1\AppData\Local\Temp\ccNQUuJb.s 			page 125


 6037 17bb 9B190000 		.4byte	0x199b
 6038 17bf 18       		.uleb128 0x18
 6039 17c0 01       		.uleb128 0x1
 6040 17c1 50       		.byte	0x50
 6041 17c2 02       		.uleb128 0x2
 6042 17c3 77       		.byte	0x77
 6043 17c4 00       		.sleb128 0
 6044 17c5 00       		.byte	0
 6045 17c6 00       		.byte	0
 6046 17c7 0E       		.uleb128 0xe
 6047 17c8 DA000000 		.4byte	0xda
 6048 17cc D7170000 		.4byte	0x17d7
 6049 17d0 0F       		.uleb128 0xf
 6050 17d1 93000000 		.4byte	0x93
 6051 17d5 3F       		.byte	0x3f
 6052 17d6 00       		.byte	0
 6053 17d7 0E       		.uleb128 0xe
 6054 17d8 E7170000 		.4byte	0x17e7
 6055 17dc E7170000 		.4byte	0x17e7
 6056 17e0 0F       		.uleb128 0xf
 6057 17e1 93000000 		.4byte	0x93
 6058 17e5 0D       		.byte	0xd
 6059 17e6 00       		.byte	0
 6060 17e7 07       		.uleb128 0x7
 6061 17e8 CF000000 		.4byte	0xcf
 6062 17ec 28       		.uleb128 0x28
 6063 17ed 0F050000 		.4byte	.LASF73
 6064 17f1 01       		.byte	0x1
 6065 17f2 31       		.byte	0x31
 6066 17f3 FD170000 		.4byte	0x17fd
 6067 17f7 05       		.uleb128 0x5
 6068 17f8 03       		.byte	0x3
 6069 17f9 00000000 		.4byte	reg_lookup
 6070 17fd 07       		.uleb128 0x7
 6071 17fe D7170000 		.4byte	0x17d7
 6072 1802 0E       		.uleb128 0xe
 6073 1803 12180000 		.4byte	0x1812
 6074 1807 12180000 		.4byte	0x1812
 6075 180b 0F       		.uleb128 0xf
 6076 180c 93000000 		.4byte	0x93
 6077 1810 03       		.byte	0x3
 6078 1811 00       		.byte	0
 6079 1812 07       		.uleb128 0x7
 6080 1813 01020000 		.4byte	0x201
 6081 1817 28       		.uleb128 0x28
 6082 1818 83030000 		.4byte	.LASF74
 6083 181c 01       		.byte	0x1
 6084 181d 45       		.byte	0x45
 6085 181e 28180000 		.4byte	0x1828
 6086 1822 05       		.uleb128 0x5
 6087 1823 03       		.byte	0x3
 6088 1824 7C010000 		.4byte	__tk_shell_verbs_gpio
 6089 1828 07       		.uleb128 0x7
 6090 1829 02180000 		.4byte	0x1802
 6091 182d 0E       		.uleb128 0xe
 6092 182e 12180000 		.4byte	0x1812
 6093 1832 3D180000 		.4byte	0x183d
ARM GAS  C:\Users\TERENC~1\AppData\Local\Temp\ccNQUuJb.s 			page 126


 6094 1836 0F       		.uleb128 0xf
 6095 1837 93000000 		.4byte	0x93
 6096 183b 04       		.byte	0x4
 6097 183c 00       		.byte	0
 6098 183d 28       		.uleb128 0x28
 6099 183e 1A000000 		.4byte	.LASF75
 6100 1842 01       		.byte	0x1
 6101 1843 51       		.byte	0x51
 6102 1844 4E180000 		.4byte	0x184e
 6103 1848 05       		.uleb128 0x5
 6104 1849 03       		.byte	0x3
 6105 184a 40010000 		.4byte	__tk_shell_verbs_wm
 6106 184e 07       		.uleb128 0x7
 6107 184f 2D180000 		.4byte	0x182d
 6108 1853 0E       		.uleb128 0xe
 6109 1854 12180000 		.4byte	0x1812
 6110 1858 63180000 		.4byte	0x1863
 6111 185c 0F       		.uleb128 0xf
 6112 185d 93000000 		.4byte	0x93
 6113 1861 01       		.byte	0x1
 6114 1862 00       		.byte	0
 6115 1863 28       		.uleb128 0x28
 6116 1864 B3010000 		.4byte	.LASF76
 6117 1868 01       		.byte	0x1
 6118 1869 5B       		.byte	0x5b
 6119 186a 74180000 		.4byte	0x1874
 6120 186e 05       		.uleb128 0x5
 6121 186f 03       		.byte	0x3
 6122 1870 28010000 		.4byte	__tk_shell_verbs_pcm
 6123 1874 07       		.uleb128 0x7
 6124 1875 53180000 		.4byte	0x1853
 6125 1879 28       		.uleb128 0x28
 6126 187a 1A040000 		.4byte	.LASF77
 6127 187e 01       		.byte	0x1
 6128 187f 65       		.byte	0x65
 6129 1880 8A180000 		.4byte	0x188a
 6130 1884 05       		.uleb128 0x5
 6131 1885 03       		.byte	0x3
 6132 1886 EC000000 		.4byte	__tk_shell_verbs_sys
 6133 188a 07       		.uleb128 0x7
 6134 188b 2D180000 		.4byte	0x182d
 6135 188f 28       		.uleb128 0x28
 6136 1890 8F010000 		.4byte	.LASF78
 6137 1894 01       		.byte	0x1
 6138 1895 71       		.byte	0x71
 6139 1896 A0180000 		.4byte	0x18a0
 6140 189a 05       		.uleb128 0x5
 6141 189b 03       		.byte	0x3
 6142 189c BC000000 		.4byte	__tk_shell_verbs_led
 6143 18a0 07       		.uleb128 0x7
 6144 18a1 02180000 		.4byte	0x1802
 6145 18a5 28       		.uleb128 0x28
 6146 18a6 54000000 		.4byte	.LASF79
 6147 18aa 01       		.byte	0x1
 6148 18ab 7C       		.byte	0x7c
 6149 18ac B6180000 		.4byte	0x18b6
 6150 18b0 05       		.uleb128 0x5
ARM GAS  C:\Users\TERENC~1\AppData\Local\Temp\ccNQUuJb.s 			page 127


 6151 18b1 03       		.byte	0x3
 6152 18b2 8C000000 		.4byte	__tk_shell_verbs_cal
 6153 18b6 07       		.uleb128 0x7
 6154 18b7 02180000 		.4byte	0x1802
 6155 18bb 0E       		.uleb128 0xe
 6156 18bc CB180000 		.4byte	0x18cb
 6157 18c0 CB180000 		.4byte	0x18cb
 6158 18c4 0F       		.uleb128 0xf
 6159 18c5 93000000 		.4byte	0x93
 6160 18c9 06       		.byte	0x6
 6161 18ca 00       		.byte	0
 6162 18cb 07       		.uleb128 0x7
 6163 18cc 3F020000 		.4byte	0x23f
 6164 18d0 28       		.uleb128 0x28
 6165 18d1 C0050000 		.4byte	.LASF80
 6166 18d5 01       		.byte	0x1
 6167 18d6 84       		.byte	0x84
 6168 18d7 E1180000 		.4byte	0x18e1
 6169 18db 05       		.uleb128 0x5
 6170 18dc 03       		.byte	0x3
 6171 18dd 38000000 		.4byte	commands
 6172 18e1 07       		.uleb128 0x7
 6173 18e2 BB180000 		.4byte	0x18bb
 6174 18e6 0E       		.uleb128 0xe
 6175 18e7 A0000000 		.4byte	0xa0
 6176 18eb F6180000 		.4byte	0x18f6
 6177 18ef 0F       		.uleb128 0xf
 6178 18f0 93000000 		.4byte	0x93
 6179 18f4 3F       		.byte	0x3f
 6180 18f5 00       		.byte	0
 6181 18f6 28       		.uleb128 0x28
 6182 18f7 99030000 		.4byte	.LASF81
 6183 18fb 01       		.byte	0x1
 6184 18fc 8F       		.byte	0x8f
 6185 18fd E6180000 		.4byte	0x18e6
 6186 1901 05       		.uleb128 0x5
 6187 1902 03       		.byte	0x3
 6188 1903 00000000 		.4byte	cmd_buf
 6189 1907 28       		.uleb128 0x28
 6190 1908 4A020000 		.4byte	.LASF82
 6191 190c 01       		.byte	0x1
 6192 190d 90       		.byte	0x90
 6193 190e B9000000 		.4byte	0xb9
 6194 1912 05       		.uleb128 0x5
 6195 1913 03       		.byte	0x3
 6196 1914 40000000 		.4byte	cmd_char_count
 6197 1918 29       		.uleb128 0x29
 6198 1919 68060000 		.4byte	.LASF83
 6199 191d 06       		.byte	0x6
 6200 191e 2E       		.byte	0x2e
 6201 191f AE000000 		.4byte	0xae
 6202 1923 0E       		.uleb128 0xe
 6203 1924 FE000000 		.4byte	0xfe
 6204 1928 2E190000 		.4byte	0x192e
 6205 192c 2A       		.uleb128 0x2a
 6206 192d 00       		.byte	0
 6207 192e 29       		.uleb128 0x29
ARM GAS  C:\Users\TERENC~1\AppData\Local\Temp\ccNQUuJb.s 			page 128


 6208 192f 1E060000 		.4byte	.LASF84
 6209 1933 07       		.byte	0x7
 6210 1934 1A       		.byte	0x1a
 6211 1935 23190000 		.4byte	0x1923
 6212 1939 29       		.uleb128 0x29
 6213 193a A4020000 		.4byte	.LASF85
 6214 193e 05       		.byte	0x5
 6215 193f 1D       		.byte	0x1d
 6216 1940 44190000 		.4byte	0x1944
 6217 1944 05       		.uleb128 0x5
 6218 1945 04       		.byte	0x4
 6219 1946 A9010000 		.4byte	0x1a9
 6220 194a 29       		.uleb128 0x29
 6221 194b 38000000 		.4byte	.LASF86
 6222 194f 08       		.byte	0x8
 6223 1950 13       		.byte	0x13
 6224 1951 55190000 		.4byte	0x1955
 6225 1955 09       		.uleb128 0x9
 6226 1956 CF000000 		.4byte	0xcf
 6227 195a 0E       		.uleb128 0xe
 6228 195b A0000000 		.4byte	0xa0
 6229 195f 65190000 		.4byte	0x1965
 6230 1963 2A       		.uleb128 0x2a
 6231 1964 00       		.byte	0
 6232 1965 29       		.uleb128 0x29
 6233 1966 0D000000 		.4byte	.LASF87
 6234 196a 09       		.byte	0x9
 6235 196b 3C       		.byte	0x3c
 6236 196c 5A190000 		.4byte	0x195a
 6237 1970 29       		.uleb128 0x29
 6238 1971 B9040000 		.4byte	.LASF88
 6239 1975 0A       		.byte	0xa
 6240 1976 12       		.byte	0x12
 6241 1977 CF000000 		.4byte	0xcf
 6242 197b 2B       		.uleb128 0x2b
 6243 197c 2F010000 		.4byte	.LASF89
 6244 1980 2F010000 		.4byte	.LASF89
 6245 1984 0B       		.byte	0xb
 6246 1985 3201     		.2byte	0x132
 6247 1987 2C       		.uleb128 0x2c
 6248 1988 FE010000 		.4byte	.LASF90
 6249 198c FE010000 		.4byte	.LASF90
 6250 1990 0C       		.byte	0xc
 6251 1991 28       		.byte	0x28
 6252 1992 2D       		.uleb128 0x2d
 6253 1993 43020000 		.4byte	.LASF105
 6254 1997 43020000 		.4byte	.LASF105
 6255 199b 2C       		.uleb128 0x2c
 6256 199c 7E040000 		.4byte	.LASF91
 6257 19a0 7E040000 		.4byte	.LASF91
 6258 19a4 0C       		.byte	0xc
 6259 19a5 24       		.byte	0x24
 6260 19a6 2C       		.uleb128 0x2c
 6261 19a7 C4040000 		.4byte	.LASF92
 6262 19ab C4040000 		.4byte	.LASF92
 6263 19af 0D       		.byte	0xd
 6264 19b0 4D       		.byte	0x4d
ARM GAS  C:\Users\TERENC~1\AppData\Local\Temp\ccNQUuJb.s 			page 129


 6265 19b1 2C       		.uleb128 0x2c
 6266 19b2 12000000 		.4byte	.LASF93
 6267 19b6 12000000 		.4byte	.LASF93
 6268 19ba 0E       		.byte	0xe
 6269 19bb E7       		.byte	0xe7
 6270 19bc 2C       		.uleb128 0x2c
 6271 19bd C8010000 		.4byte	.LASF94
 6272 19c1 C8010000 		.4byte	.LASF94
 6273 19c5 0F       		.byte	0xf
 6274 19c6 AB       		.byte	0xab
 6275 19c7 2C       		.uleb128 0x2c
 6276 19c8 DD040000 		.4byte	.LASF95
 6277 19cc DD040000 		.4byte	.LASF95
 6278 19d0 0F       		.byte	0xf
 6279 19d1 AD       		.byte	0xad
 6280 19d2 2C       		.uleb128 0x2c
 6281 19d3 D0050000 		.4byte	.LASF96
 6282 19d7 D0050000 		.4byte	.LASF96
 6283 19db 0D       		.byte	0xd
 6284 19dc A4       		.byte	0xa4
 6285 19dd 2C       		.uleb128 0x2c
 6286 19de A4010000 		.4byte	.LASF97
 6287 19e2 A4010000 		.4byte	.LASF97
 6288 19e6 0F       		.byte	0xf
 6289 19e7 B5       		.byte	0xb5
 6290 19e8 2C       		.uleb128 0x2c
 6291 19e9 F5050000 		.4byte	.LASF98
 6292 19ed F5050000 		.4byte	.LASF98
 6293 19f1 0F       		.byte	0xf
 6294 19f2 B6       		.byte	0xb6
 6295 19f3 2C       		.uleb128 0x2c
 6296 19f4 1F010000 		.4byte	.LASF99
 6297 19f8 1F010000 		.4byte	.LASF99
 6298 19fc 10       		.byte	0x10
 6299 19fd E4       		.byte	0xe4
 6300 19fe 2C       		.uleb128 0x2c
 6301 19ff 17010000 		.4byte	.LASF100
 6302 1a03 17010000 		.4byte	.LASF100
 6303 1a07 0A       		.byte	0xa
 6304 1a08 16       		.byte	0x16
 6305 1a09 2C       		.uleb128 0x2c
 6306 1a0a 48010000 		.4byte	.LASF101
 6307 1a0e 48010000 		.4byte	.LASF101
 6308 1a12 0A       		.byte	0xa
 6309 1a13 17       		.byte	0x17
 6310 1a14 2C       		.uleb128 0x2c
 6311 1a15 C1020000 		.4byte	.LASF102
 6312 1a19 C1020000 		.4byte	.LASF102
 6313 1a1d 05       		.byte	0x5
 6314 1a1e 21       		.byte	0x21
 6315 1a1f 2C       		.uleb128 0x2c
 6316 1a20 D1020000 		.4byte	.LASF103
 6317 1a24 D1020000 		.4byte	.LASF103
 6318 1a28 11       		.byte	0x11
 6319 1a29 23       		.byte	0x23
 6320 1a2a 2C       		.uleb128 0x2c
 6321 1a2b 6C010000 		.4byte	.LASF104
ARM GAS  C:\Users\TERENC~1\AppData\Local\Temp\ccNQUuJb.s 			page 130


 6322 1a2f 6C010000 		.4byte	.LASF104
 6323 1a33 11       		.byte	0x11
 6324 1a34 24       		.byte	0x24
 6325 1a35 2D       		.uleb128 0x2d
 6326 1a36 C9050000 		.4byte	.LASF106
 6327 1a3a C9050000 		.4byte	.LASF106
 6328 1a3e 2C       		.uleb128 0x2c
 6329 1a3f 61030000 		.4byte	.LASF107
 6330 1a43 61030000 		.4byte	.LASF107
 6331 1a47 0C       		.byte	0xc
 6332 1a48 2B       		.byte	0x2b
 6333 1a49 00       		.byte	0
 6334              		.section	.debug_abbrev,"",%progbits
 6335              	.Ldebug_abbrev0:
 6336 0000 01       		.uleb128 0x1
 6337 0001 11       		.uleb128 0x11
 6338 0002 01       		.byte	0x1
 6339 0003 25       		.uleb128 0x25
 6340 0004 0E       		.uleb128 0xe
 6341 0005 13       		.uleb128 0x13
 6342 0006 0B       		.uleb128 0xb
 6343 0007 03       		.uleb128 0x3
 6344 0008 0E       		.uleb128 0xe
 6345 0009 1B       		.uleb128 0x1b
 6346 000a 0E       		.uleb128 0xe
 6347 000b 55       		.uleb128 0x55
 6348 000c 17       		.uleb128 0x17
 6349 000d 11       		.uleb128 0x11
 6350 000e 01       		.uleb128 0x1
 6351 000f 10       		.uleb128 0x10
 6352 0010 17       		.uleb128 0x17
 6353 0011 00       		.byte	0
 6354 0012 00       		.byte	0
 6355 0013 02       		.uleb128 0x2
 6356 0014 24       		.uleb128 0x24
 6357 0015 00       		.byte	0
 6358 0016 0B       		.uleb128 0xb
 6359 0017 0B       		.uleb128 0xb
 6360 0018 3E       		.uleb128 0x3e
 6361 0019 0B       		.uleb128 0xb
 6362 001a 03       		.uleb128 0x3
 6363 001b 08       		.uleb128 0x8
 6364 001c 00       		.byte	0
 6365 001d 00       		.byte	0
 6366 001e 03       		.uleb128 0x3
 6367 001f 24       		.uleb128 0x24
 6368 0020 00       		.byte	0
 6369 0021 0B       		.uleb128 0xb
 6370 0022 0B       		.uleb128 0xb
 6371 0023 3E       		.uleb128 0x3e
 6372 0024 0B       		.uleb128 0xb
 6373 0025 03       		.uleb128 0x3
 6374 0026 0E       		.uleb128 0xe
 6375 0027 00       		.byte	0
 6376 0028 00       		.byte	0
 6377 0029 04       		.uleb128 0x4
 6378 002a 16       		.uleb128 0x16
ARM GAS  C:\Users\TERENC~1\AppData\Local\Temp\ccNQUuJb.s 			page 131


 6379 002b 00       		.byte	0
 6380 002c 03       		.uleb128 0x3
 6381 002d 0E       		.uleb128 0xe
 6382 002e 3A       		.uleb128 0x3a
 6383 002f 0B       		.uleb128 0xb
 6384 0030 3B       		.uleb128 0x3b
 6385 0031 0B       		.uleb128 0xb
 6386 0032 49       		.uleb128 0x49
 6387 0033 13       		.uleb128 0x13
 6388 0034 00       		.byte	0
 6389 0035 00       		.byte	0
 6390 0036 05       		.uleb128 0x5
 6391 0037 0F       		.uleb128 0xf
 6392 0038 00       		.byte	0
 6393 0039 0B       		.uleb128 0xb
 6394 003a 0B       		.uleb128 0xb
 6395 003b 49       		.uleb128 0x49
 6396 003c 13       		.uleb128 0x13
 6397 003d 00       		.byte	0
 6398 003e 00       		.byte	0
 6399 003f 06       		.uleb128 0x6
 6400 0040 15       		.uleb128 0x15
 6401 0041 00       		.byte	0
 6402 0042 27       		.uleb128 0x27
 6403 0043 19       		.uleb128 0x19
 6404 0044 00       		.byte	0
 6405 0045 00       		.byte	0
 6406 0046 07       		.uleb128 0x7
 6407 0047 26       		.uleb128 0x26
 6408 0048 00       		.byte	0
 6409 0049 49       		.uleb128 0x49
 6410 004a 13       		.uleb128 0x13
 6411 004b 00       		.byte	0
 6412 004c 00       		.byte	0
 6413 004d 08       		.uleb128 0x8
 6414 004e 16       		.uleb128 0x16
 6415 004f 00       		.byte	0
 6416 0050 03       		.uleb128 0x3
 6417 0051 0E       		.uleb128 0xe
 6418 0052 3A       		.uleb128 0x3a
 6419 0053 0B       		.uleb128 0xb
 6420 0054 3B       		.uleb128 0x3b
 6421 0055 05       		.uleb128 0x5
 6422 0056 49       		.uleb128 0x49
 6423 0057 13       		.uleb128 0x13
 6424 0058 00       		.byte	0
 6425 0059 00       		.byte	0
 6426 005a 09       		.uleb128 0x9
 6427 005b 35       		.uleb128 0x35
 6428 005c 00       		.byte	0
 6429 005d 49       		.uleb128 0x49
 6430 005e 13       		.uleb128 0x13
 6431 005f 00       		.byte	0
 6432 0060 00       		.byte	0
 6433 0061 0A       		.uleb128 0xa
 6434 0062 04       		.uleb128 0x4
 6435 0063 01       		.byte	0x1
ARM GAS  C:\Users\TERENC~1\AppData\Local\Temp\ccNQUuJb.s 			page 132


 6436 0064 0B       		.uleb128 0xb
 6437 0065 0B       		.uleb128 0xb
 6438 0066 49       		.uleb128 0x49
 6439 0067 13       		.uleb128 0x13
 6440 0068 3A       		.uleb128 0x3a
 6441 0069 0B       		.uleb128 0xb
 6442 006a 3B       		.uleb128 0x3b
 6443 006b 0B       		.uleb128 0xb
 6444 006c 01       		.uleb128 0x1
 6445 006d 13       		.uleb128 0x13
 6446 006e 00       		.byte	0
 6447 006f 00       		.byte	0
 6448 0070 0B       		.uleb128 0xb
 6449 0071 28       		.uleb128 0x28
 6450 0072 00       		.byte	0
 6451 0073 03       		.uleb128 0x3
 6452 0074 0E       		.uleb128 0xe
 6453 0075 1C       		.uleb128 0x1c
 6454 0076 0B       		.uleb128 0xb
 6455 0077 00       		.byte	0
 6456 0078 00       		.byte	0
 6457 0079 0C       		.uleb128 0xc
 6458 007a 13       		.uleb128 0x13
 6459 007b 01       		.byte	0x1
 6460 007c 0B       		.uleb128 0xb
 6461 007d 0B       		.uleb128 0xb
 6462 007e 3A       		.uleb128 0x3a
 6463 007f 0B       		.uleb128 0xb
 6464 0080 3B       		.uleb128 0x3b
 6465 0081 0B       		.uleb128 0xb
 6466 0082 01       		.uleb128 0x1
 6467 0083 13       		.uleb128 0x13
 6468 0084 00       		.byte	0
 6469 0085 00       		.byte	0
 6470 0086 0D       		.uleb128 0xd
 6471 0087 0D       		.uleb128 0xd
 6472 0088 00       		.byte	0
 6473 0089 03       		.uleb128 0x3
 6474 008a 0E       		.uleb128 0xe
 6475 008b 3A       		.uleb128 0x3a
 6476 008c 0B       		.uleb128 0xb
 6477 008d 3B       		.uleb128 0x3b
 6478 008e 0B       		.uleb128 0xb
 6479 008f 49       		.uleb128 0x49
 6480 0090 13       		.uleb128 0x13
 6481 0091 38       		.uleb128 0x38
 6482 0092 0B       		.uleb128 0xb
 6483 0093 00       		.byte	0
 6484 0094 00       		.byte	0
 6485 0095 0E       		.uleb128 0xe
 6486 0096 01       		.uleb128 0x1
 6487 0097 01       		.byte	0x1
 6488 0098 49       		.uleb128 0x49
 6489 0099 13       		.uleb128 0x13
 6490 009a 01       		.uleb128 0x1
 6491 009b 13       		.uleb128 0x13
 6492 009c 00       		.byte	0
ARM GAS  C:\Users\TERENC~1\AppData\Local\Temp\ccNQUuJb.s 			page 133


 6493 009d 00       		.byte	0
 6494 009e 0F       		.uleb128 0xf
 6495 009f 21       		.uleb128 0x21
 6496 00a0 00       		.byte	0
 6497 00a1 49       		.uleb128 0x49
 6498 00a2 13       		.uleb128 0x13
 6499 00a3 2F       		.uleb128 0x2f
 6500 00a4 0B       		.uleb128 0xb
 6501 00a5 00       		.byte	0
 6502 00a6 00       		.byte	0
 6503 00a7 10       		.uleb128 0x10
 6504 00a8 15       		.uleb128 0x15
 6505 00a9 01       		.byte	0x1
 6506 00aa 27       		.uleb128 0x27
 6507 00ab 19       		.uleb128 0x19
 6508 00ac 49       		.uleb128 0x49
 6509 00ad 13       		.uleb128 0x13
 6510 00ae 01       		.uleb128 0x1
 6511 00af 13       		.uleb128 0x13
 6512 00b0 00       		.byte	0
 6513 00b1 00       		.byte	0
 6514 00b2 11       		.uleb128 0x11
 6515 00b3 05       		.uleb128 0x5
 6516 00b4 00       		.byte	0
 6517 00b5 49       		.uleb128 0x49
 6518 00b6 13       		.uleb128 0x13
 6519 00b7 00       		.byte	0
 6520 00b8 00       		.byte	0
 6521 00b9 12       		.uleb128 0x12
 6522 00ba 2E       		.uleb128 0x2e
 6523 00bb 01       		.byte	0x1
 6524 00bc 3F       		.uleb128 0x3f
 6525 00bd 19       		.uleb128 0x19
 6526 00be 03       		.uleb128 0x3
 6527 00bf 0E       		.uleb128 0xe
 6528 00c0 3A       		.uleb128 0x3a
 6529 00c1 0B       		.uleb128 0xb
 6530 00c2 3B       		.uleb128 0x3b
 6531 00c3 05       		.uleb128 0x5
 6532 00c4 27       		.uleb128 0x27
 6533 00c5 19       		.uleb128 0x19
 6534 00c6 49       		.uleb128 0x49
 6535 00c7 13       		.uleb128 0x13
 6536 00c8 11       		.uleb128 0x11
 6537 00c9 01       		.uleb128 0x1
 6538 00ca 12       		.uleb128 0x12
 6539 00cb 06       		.uleb128 0x6
 6540 00cc 40       		.uleb128 0x40
 6541 00cd 18       		.uleb128 0x18
 6542 00ce 9742     		.uleb128 0x2117
 6543 00d0 19       		.uleb128 0x19
 6544 00d1 01       		.uleb128 0x1
 6545 00d2 13       		.uleb128 0x13
 6546 00d3 00       		.byte	0
 6547 00d4 00       		.byte	0
 6548 00d5 13       		.uleb128 0x13
 6549 00d6 05       		.uleb128 0x5
ARM GAS  C:\Users\TERENC~1\AppData\Local\Temp\ccNQUuJb.s 			page 134


 6550 00d7 00       		.byte	0
 6551 00d8 03       		.uleb128 0x3
 6552 00d9 0E       		.uleb128 0xe
 6553 00da 3A       		.uleb128 0x3a
 6554 00db 0B       		.uleb128 0xb
 6555 00dc 3B       		.uleb128 0x3b
 6556 00dd 05       		.uleb128 0x5
 6557 00de 49       		.uleb128 0x49
 6558 00df 13       		.uleb128 0x13
 6559 00e0 02       		.uleb128 0x2
 6560 00e1 17       		.uleb128 0x17
 6561 00e2 00       		.byte	0
 6562 00e3 00       		.byte	0
 6563 00e4 14       		.uleb128 0x14
 6564 00e5 34       		.uleb128 0x34
 6565 00e6 00       		.byte	0
 6566 00e7 03       		.uleb128 0x3
 6567 00e8 08       		.uleb128 0x8
 6568 00e9 3A       		.uleb128 0x3a
 6569 00ea 0B       		.uleb128 0xb
 6570 00eb 3B       		.uleb128 0x3b
 6571 00ec 05       		.uleb128 0x5
 6572 00ed 49       		.uleb128 0x49
 6573 00ee 13       		.uleb128 0x13
 6574 00ef 1C       		.uleb128 0x1c
 6575 00f0 0B       		.uleb128 0xb
 6576 00f1 00       		.byte	0
 6577 00f2 00       		.byte	0
 6578 00f3 15       		.uleb128 0x15
 6579 00f4 898201   		.uleb128 0x4109
 6580 00f7 00       		.byte	0
 6581 00f8 11       		.uleb128 0x11
 6582 00f9 01       		.uleb128 0x1
 6583 00fa 9342     		.uleb128 0x2113
 6584 00fc 18       		.uleb128 0x18
 6585 00fd 00       		.byte	0
 6586 00fe 00       		.byte	0
 6587 00ff 16       		.uleb128 0x16
 6588 0100 898201   		.uleb128 0x4109
 6589 0103 00       		.byte	0
 6590 0104 11       		.uleb128 0x11
 6591 0105 01       		.uleb128 0x1
 6592 0106 31       		.uleb128 0x31
 6593 0107 13       		.uleb128 0x13
 6594 0108 00       		.byte	0
 6595 0109 00       		.byte	0
 6596 010a 17       		.uleb128 0x17
 6597 010b 898201   		.uleb128 0x4109
 6598 010e 01       		.byte	0x1
 6599 010f 11       		.uleb128 0x11
 6600 0110 01       		.uleb128 0x1
 6601 0111 31       		.uleb128 0x31
 6602 0112 13       		.uleb128 0x13
 6603 0113 01       		.uleb128 0x1
 6604 0114 13       		.uleb128 0x13
 6605 0115 00       		.byte	0
 6606 0116 00       		.byte	0
ARM GAS  C:\Users\TERENC~1\AppData\Local\Temp\ccNQUuJb.s 			page 135


 6607 0117 18       		.uleb128 0x18
 6608 0118 8A8201   		.uleb128 0x410a
 6609 011b 00       		.byte	0
 6610 011c 02       		.uleb128 0x2
 6611 011d 18       		.uleb128 0x18
 6612 011e 9142     		.uleb128 0x2111
 6613 0120 18       		.uleb128 0x18
 6614 0121 00       		.byte	0
 6615 0122 00       		.byte	0
 6616 0123 19       		.uleb128 0x19
 6617 0124 898201   		.uleb128 0x4109
 6618 0127 01       		.byte	0x1
 6619 0128 11       		.uleb128 0x11
 6620 0129 01       		.uleb128 0x1
 6621 012a 31       		.uleb128 0x31
 6622 012b 13       		.uleb128 0x13
 6623 012c 00       		.byte	0
 6624 012d 00       		.byte	0
 6625 012e 1A       		.uleb128 0x1a
 6626 012f 2E       		.uleb128 0x2e
 6627 0130 01       		.byte	0x1
 6628 0131 3F       		.uleb128 0x3f
 6629 0132 19       		.uleb128 0x19
 6630 0133 03       		.uleb128 0x3
 6631 0134 0E       		.uleb128 0xe
 6632 0135 3A       		.uleb128 0x3a
 6633 0136 0B       		.uleb128 0xb
 6634 0137 3B       		.uleb128 0x3b
 6635 0138 0B       		.uleb128 0xb
 6636 0139 27       		.uleb128 0x27
 6637 013a 19       		.uleb128 0x19
 6638 013b 49       		.uleb128 0x49
 6639 013c 13       		.uleb128 0x13
 6640 013d 11       		.uleb128 0x11
 6641 013e 01       		.uleb128 0x1
 6642 013f 12       		.uleb128 0x12
 6643 0140 06       		.uleb128 0x6
 6644 0141 40       		.uleb128 0x40
 6645 0142 18       		.uleb128 0x18
 6646 0143 9742     		.uleb128 0x2117
 6647 0145 19       		.uleb128 0x19
 6648 0146 01       		.uleb128 0x1
 6649 0147 13       		.uleb128 0x13
 6650 0148 00       		.byte	0
 6651 0149 00       		.byte	0
 6652 014a 1B       		.uleb128 0x1b
 6653 014b 05       		.uleb128 0x5
 6654 014c 00       		.byte	0
 6655 014d 03       		.uleb128 0x3
 6656 014e 0E       		.uleb128 0xe
 6657 014f 3A       		.uleb128 0x3a
 6658 0150 0B       		.uleb128 0xb
 6659 0151 3B       		.uleb128 0x3b
 6660 0152 0B       		.uleb128 0xb
 6661 0153 49       		.uleb128 0x49
 6662 0154 13       		.uleb128 0x13
 6663 0155 02       		.uleb128 0x2
ARM GAS  C:\Users\TERENC~1\AppData\Local\Temp\ccNQUuJb.s 			page 136


 6664 0156 17       		.uleb128 0x17
 6665 0157 00       		.byte	0
 6666 0158 00       		.byte	0
 6667 0159 1C       		.uleb128 0x1c
 6668 015a 34       		.uleb128 0x34
 6669 015b 00       		.byte	0
 6670 015c 03       		.uleb128 0x3
 6671 015d 0E       		.uleb128 0xe
 6672 015e 3A       		.uleb128 0x3a
 6673 015f 0B       		.uleb128 0xb
 6674 0160 3B       		.uleb128 0x3b
 6675 0161 0B       		.uleb128 0xb
 6676 0162 49       		.uleb128 0x49
 6677 0163 13       		.uleb128 0x13
 6678 0164 02       		.uleb128 0x2
 6679 0165 17       		.uleb128 0x17
 6680 0166 00       		.byte	0
 6681 0167 00       		.byte	0
 6682 0168 1D       		.uleb128 0x1d
 6683 0169 34       		.uleb128 0x34
 6684 016a 00       		.byte	0
 6685 016b 03       		.uleb128 0x3
 6686 016c 08       		.uleb128 0x8
 6687 016d 3A       		.uleb128 0x3a
 6688 016e 0B       		.uleb128 0xb
 6689 016f 3B       		.uleb128 0x3b
 6690 0170 0B       		.uleb128 0xb
 6691 0171 49       		.uleb128 0x49
 6692 0172 13       		.uleb128 0x13
 6693 0173 02       		.uleb128 0x2
 6694 0174 17       		.uleb128 0x17
 6695 0175 00       		.byte	0
 6696 0176 00       		.byte	0
 6697 0177 1E       		.uleb128 0x1e
 6698 0178 34       		.uleb128 0x34
 6699 0179 00       		.byte	0
 6700 017a 03       		.uleb128 0x3
 6701 017b 08       		.uleb128 0x8
 6702 017c 3A       		.uleb128 0x3a
 6703 017d 0B       		.uleb128 0xb
 6704 017e 3B       		.uleb128 0x3b
 6705 017f 05       		.uleb128 0x5
 6706 0180 49       		.uleb128 0x49
 6707 0181 13       		.uleb128 0x13
 6708 0182 02       		.uleb128 0x2
 6709 0183 17       		.uleb128 0x17
 6710 0184 00       		.byte	0
 6711 0185 00       		.byte	0
 6712 0186 1F       		.uleb128 0x1f
 6713 0187 34       		.uleb128 0x34
 6714 0188 00       		.byte	0
 6715 0189 03       		.uleb128 0x3
 6716 018a 0E       		.uleb128 0xe
 6717 018b 3A       		.uleb128 0x3a
 6718 018c 0B       		.uleb128 0xb
 6719 018d 3B       		.uleb128 0x3b
 6720 018e 05       		.uleb128 0x5
ARM GAS  C:\Users\TERENC~1\AppData\Local\Temp\ccNQUuJb.s 			page 137


 6721 018f 49       		.uleb128 0x49
 6722 0190 13       		.uleb128 0x13
 6723 0191 02       		.uleb128 0x2
 6724 0192 17       		.uleb128 0x17
 6725 0193 00       		.byte	0
 6726 0194 00       		.byte	0
 6727 0195 20       		.uleb128 0x20
 6728 0196 05       		.uleb128 0x5
 6729 0197 00       		.byte	0
 6730 0198 03       		.uleb128 0x3
 6731 0199 08       		.uleb128 0x8
 6732 019a 3A       		.uleb128 0x3a
 6733 019b 0B       		.uleb128 0xb
 6734 019c 3B       		.uleb128 0x3b
 6735 019d 0B       		.uleb128 0xb
 6736 019e 49       		.uleb128 0x49
 6737 019f 13       		.uleb128 0x13
 6738 01a0 02       		.uleb128 0x2
 6739 01a1 17       		.uleb128 0x17
 6740 01a2 00       		.byte	0
 6741 01a3 00       		.byte	0
 6742 01a4 21       		.uleb128 0x21
 6743 01a5 0B       		.uleb128 0xb
 6744 01a6 01       		.byte	0x1
 6745 01a7 11       		.uleb128 0x11
 6746 01a8 01       		.uleb128 0x1
 6747 01a9 12       		.uleb128 0x12
 6748 01aa 06       		.uleb128 0x6
 6749 01ab 00       		.byte	0
 6750 01ac 00       		.byte	0
 6751 01ad 22       		.uleb128 0x22
 6752 01ae 34       		.uleb128 0x34
 6753 01af 00       		.byte	0
 6754 01b0 03       		.uleb128 0x3
 6755 01b1 08       		.uleb128 0x8
 6756 01b2 3A       		.uleb128 0x3a
 6757 01b3 0B       		.uleb128 0xb
 6758 01b4 3B       		.uleb128 0x3b
 6759 01b5 0B       		.uleb128 0xb
 6760 01b6 49       		.uleb128 0x49
 6761 01b7 13       		.uleb128 0x13
 6762 01b8 02       		.uleb128 0x2
 6763 01b9 18       		.uleb128 0x18
 6764 01ba 00       		.byte	0
 6765 01bb 00       		.byte	0
 6766 01bc 23       		.uleb128 0x23
 6767 01bd 0B       		.uleb128 0xb
 6768 01be 01       		.byte	0x1
 6769 01bf 11       		.uleb128 0x11
 6770 01c0 01       		.uleb128 0x1
 6771 01c1 12       		.uleb128 0x12
 6772 01c2 06       		.uleb128 0x6
 6773 01c3 01       		.uleb128 0x1
 6774 01c4 13       		.uleb128 0x13
 6775 01c5 00       		.byte	0
 6776 01c6 00       		.byte	0
 6777 01c7 24       		.uleb128 0x24
ARM GAS  C:\Users\TERENC~1\AppData\Local\Temp\ccNQUuJb.s 			page 138


 6778 01c8 2E       		.uleb128 0x2e
 6779 01c9 01       		.byte	0x1
 6780 01ca 03       		.uleb128 0x3
 6781 01cb 0E       		.uleb128 0xe
 6782 01cc 3A       		.uleb128 0x3a
 6783 01cd 0B       		.uleb128 0xb
 6784 01ce 3B       		.uleb128 0x3b
 6785 01cf 05       		.uleb128 0x5
 6786 01d0 27       		.uleb128 0x27
 6787 01d1 19       		.uleb128 0x19
 6788 01d2 49       		.uleb128 0x49
 6789 01d3 13       		.uleb128 0x13
 6790 01d4 11       		.uleb128 0x11
 6791 01d5 01       		.uleb128 0x1
 6792 01d6 12       		.uleb128 0x12
 6793 01d7 06       		.uleb128 0x6
 6794 01d8 40       		.uleb128 0x40
 6795 01d9 18       		.uleb128 0x18
 6796 01da 9742     		.uleb128 0x2117
 6797 01dc 19       		.uleb128 0x19
 6798 01dd 01       		.uleb128 0x1
 6799 01de 13       		.uleb128 0x13
 6800 01df 00       		.byte	0
 6801 01e0 00       		.byte	0
 6802 01e1 25       		.uleb128 0x25
 6803 01e2 34       		.uleb128 0x34
 6804 01e3 00       		.byte	0
 6805 01e4 03       		.uleb128 0x3
 6806 01e5 0E       		.uleb128 0xe
 6807 01e6 3A       		.uleb128 0x3a
 6808 01e7 0B       		.uleb128 0xb
 6809 01e8 3B       		.uleb128 0x3b
 6810 01e9 05       		.uleb128 0x5
 6811 01ea 49       		.uleb128 0x49
 6812 01eb 13       		.uleb128 0x13
 6813 01ec 02       		.uleb128 0x2
 6814 01ed 18       		.uleb128 0x18
 6815 01ee 00       		.byte	0
 6816 01ef 00       		.byte	0
 6817 01f0 26       		.uleb128 0x26
 6818 01f1 898201   		.uleb128 0x4109
 6819 01f4 01       		.byte	0x1
 6820 01f5 11       		.uleb128 0x11
 6821 01f6 01       		.uleb128 0x1
 6822 01f7 01       		.uleb128 0x1
 6823 01f8 13       		.uleb128 0x13
 6824 01f9 00       		.byte	0
 6825 01fa 00       		.byte	0
 6826 01fb 27       		.uleb128 0x27
 6827 01fc 2E       		.uleb128 0x2e
 6828 01fd 01       		.byte	0x1
 6829 01fe 3F       		.uleb128 0x3f
 6830 01ff 19       		.uleb128 0x19
 6831 0200 03       		.uleb128 0x3
 6832 0201 0E       		.uleb128 0xe
 6833 0202 3A       		.uleb128 0x3a
 6834 0203 0B       		.uleb128 0xb
ARM GAS  C:\Users\TERENC~1\AppData\Local\Temp\ccNQUuJb.s 			page 139


 6835 0204 3B       		.uleb128 0x3b
 6836 0205 05       		.uleb128 0x5
 6837 0206 27       		.uleb128 0x27
 6838 0207 19       		.uleb128 0x19
 6839 0208 11       		.uleb128 0x11
 6840 0209 01       		.uleb128 0x1
 6841 020a 12       		.uleb128 0x12
 6842 020b 06       		.uleb128 0x6
 6843 020c 40       		.uleb128 0x40
 6844 020d 18       		.uleb128 0x18
 6845 020e 9742     		.uleb128 0x2117
 6846 0210 19       		.uleb128 0x19
 6847 0211 01       		.uleb128 0x1
 6848 0212 13       		.uleb128 0x13
 6849 0213 00       		.byte	0
 6850 0214 00       		.byte	0
 6851 0215 28       		.uleb128 0x28
 6852 0216 34       		.uleb128 0x34
 6853 0217 00       		.byte	0
 6854 0218 03       		.uleb128 0x3
 6855 0219 0E       		.uleb128 0xe
 6856 021a 3A       		.uleb128 0x3a
 6857 021b 0B       		.uleb128 0xb
 6858 021c 3B       		.uleb128 0x3b
 6859 021d 0B       		.uleb128 0xb
 6860 021e 49       		.uleb128 0x49
 6861 021f 13       		.uleb128 0x13
 6862 0220 02       		.uleb128 0x2
 6863 0221 18       		.uleb128 0x18
 6864 0222 00       		.byte	0
 6865 0223 00       		.byte	0
 6866 0224 29       		.uleb128 0x29
 6867 0225 34       		.uleb128 0x34
 6868 0226 00       		.byte	0
 6869 0227 03       		.uleb128 0x3
 6870 0228 0E       		.uleb128 0xe
 6871 0229 3A       		.uleb128 0x3a
 6872 022a 0B       		.uleb128 0xb
 6873 022b 3B       		.uleb128 0x3b
 6874 022c 0B       		.uleb128 0xb
 6875 022d 49       		.uleb128 0x49
 6876 022e 13       		.uleb128 0x13
 6877 022f 3F       		.uleb128 0x3f
 6878 0230 19       		.uleb128 0x19
 6879 0231 3C       		.uleb128 0x3c
 6880 0232 19       		.uleb128 0x19
 6881 0233 00       		.byte	0
 6882 0234 00       		.byte	0
 6883 0235 2A       		.uleb128 0x2a
 6884 0236 21       		.uleb128 0x21
 6885 0237 00       		.byte	0
 6886 0238 00       		.byte	0
 6887 0239 00       		.byte	0
 6888 023a 2B       		.uleb128 0x2b
 6889 023b 2E       		.uleb128 0x2e
 6890 023c 00       		.byte	0
 6891 023d 3F       		.uleb128 0x3f
ARM GAS  C:\Users\TERENC~1\AppData\Local\Temp\ccNQUuJb.s 			page 140


 6892 023e 19       		.uleb128 0x19
 6893 023f 3C       		.uleb128 0x3c
 6894 0240 19       		.uleb128 0x19
 6895 0241 6E       		.uleb128 0x6e
 6896 0242 0E       		.uleb128 0xe
 6897 0243 03       		.uleb128 0x3
 6898 0244 0E       		.uleb128 0xe
 6899 0245 3A       		.uleb128 0x3a
 6900 0246 0B       		.uleb128 0xb
 6901 0247 3B       		.uleb128 0x3b
 6902 0248 05       		.uleb128 0x5
 6903 0249 00       		.byte	0
 6904 024a 00       		.byte	0
 6905 024b 2C       		.uleb128 0x2c
 6906 024c 2E       		.uleb128 0x2e
 6907 024d 00       		.byte	0
 6908 024e 3F       		.uleb128 0x3f
 6909 024f 19       		.uleb128 0x19
 6910 0250 3C       		.uleb128 0x3c
 6911 0251 19       		.uleb128 0x19
 6912 0252 6E       		.uleb128 0x6e
 6913 0253 0E       		.uleb128 0xe
 6914 0254 03       		.uleb128 0x3
 6915 0255 0E       		.uleb128 0xe
 6916 0256 3A       		.uleb128 0x3a
 6917 0257 0B       		.uleb128 0xb
 6918 0258 3B       		.uleb128 0x3b
 6919 0259 0B       		.uleb128 0xb
 6920 025a 00       		.byte	0
 6921 025b 00       		.byte	0
 6922 025c 2D       		.uleb128 0x2d
 6923 025d 2E       		.uleb128 0x2e
 6924 025e 00       		.byte	0
 6925 025f 3F       		.uleb128 0x3f
 6926 0260 19       		.uleb128 0x19
 6927 0261 3C       		.uleb128 0x3c
 6928 0262 19       		.uleb128 0x19
 6929 0263 6E       		.uleb128 0x6e
 6930 0264 0E       		.uleb128 0xe
 6931 0265 03       		.uleb128 0x3
 6932 0266 0E       		.uleb128 0xe
 6933 0267 00       		.byte	0
 6934 0268 00       		.byte	0
 6935 0269 00       		.byte	0
 6936              		.section	.debug_loc,"",%progbits
 6937              	.Ldebug_loc0:
 6938              	.LLST0:
 6939 0000 00000000 		.4byte	.LVL0
 6940 0004 05000000 		.4byte	.LVL2-1
 6941 0008 0100     		.2byte	0x1
 6942 000a 50       		.byte	0x50
 6943 000b 05000000 		.4byte	.LVL2-1
 6944 000f 34000000 		.4byte	.LFE11
 6945 0013 0400     		.2byte	0x4
 6946 0015 F3       		.byte	0xf3
 6947 0016 01       		.uleb128 0x1
 6948 0017 50       		.byte	0x50
ARM GAS  C:\Users\TERENC~1\AppData\Local\Temp\ccNQUuJb.s 			page 141


 6949 0018 9F       		.byte	0x9f
 6950 0019 00000000 		.4byte	0
 6951 001d 00000000 		.4byte	0
 6952              	.LLST1:
 6953 0021 00000000 		.4byte	.LVL0
 6954 0025 05000000 		.4byte	.LVL2-1
 6955 0029 0100     		.2byte	0x1
 6956 002b 51       		.byte	0x51
 6957 002c 05000000 		.4byte	.LVL2-1
 6958 0030 34000000 		.4byte	.LFE11
 6959 0034 0400     		.2byte	0x4
 6960 0036 F3       		.byte	0xf3
 6961 0037 01       		.uleb128 0x1
 6962 0038 51       		.byte	0x51
 6963 0039 9F       		.byte	0x9f
 6964 003a 00000000 		.4byte	0
 6965 003e 00000000 		.4byte	0
 6966              	.LLST2:
 6967 0042 00000000 		.4byte	.LVL7
 6968 0046 04000000 		.4byte	.LVL8
 6969 004a 0100     		.2byte	0x1
 6970 004c 50       		.byte	0x50
 6971 004d 04000000 		.4byte	.LVL8
 6972 0051 0B000000 		.4byte	.LVL9-1
 6973 0055 0300     		.2byte	0x3
 6974 0057 70       		.byte	0x70
 6975 0058 7E       		.sleb128 -2
 6976 0059 9F       		.byte	0x9f
 6977 005a 0B000000 		.4byte	.LVL9-1
 6978 005e 30000000 		.4byte	.LVL14
 6979 0062 0600     		.2byte	0x6
 6980 0064 F3       		.byte	0xf3
 6981 0065 01       		.uleb128 0x1
 6982 0066 50       		.byte	0x50
 6983 0067 32       		.byte	0x32
 6984 0068 1C       		.byte	0x1c
 6985 0069 9F       		.byte	0x9f
 6986 006a 30000000 		.4byte	.LVL14
 6987 006e 32000000 		.4byte	.LVL15
 6988 0072 0300     		.2byte	0x3
 6989 0074 70       		.byte	0x70
 6990 0075 7E       		.sleb128 -2
 6991 0076 9F       		.byte	0x9f
 6992 0077 32000000 		.4byte	.LVL15
 6993 007b 74000000 		.4byte	.LFE4
 6994 007f 0600     		.2byte	0x6
 6995 0081 F3       		.byte	0xf3
 6996 0082 01       		.uleb128 0x1
 6997 0083 50       		.byte	0x50
 6998 0084 32       		.byte	0x32
 6999 0085 1C       		.byte	0x1c
 7000 0086 9F       		.byte	0x9f
 7001 0087 00000000 		.4byte	0
 7002 008b 00000000 		.4byte	0
 7003              	.LLST3:
 7004 008f 00000000 		.4byte	.LVL7
 7005 0093 0B000000 		.4byte	.LVL9-1
ARM GAS  C:\Users\TERENC~1\AppData\Local\Temp\ccNQUuJb.s 			page 142


 7006 0097 0100     		.2byte	0x1
 7007 0099 51       		.byte	0x51
 7008 009a 0B000000 		.4byte	.LVL9-1
 7009 009e 1A000000 		.4byte	.LVL11
 7010 00a2 0100     		.2byte	0x1
 7011 00a4 54       		.byte	0x54
 7012 00a5 1A000000 		.4byte	.LVL11
 7013 00a9 30000000 		.4byte	.LVL14
 7014 00ad 0400     		.2byte	0x4
 7015 00af F3       		.byte	0xf3
 7016 00b0 01       		.uleb128 0x1
 7017 00b1 51       		.byte	0x51
 7018 00b2 9F       		.byte	0x9f
 7019 00b3 30000000 		.4byte	.LVL14
 7020 00b7 35000000 		.4byte	.LVL16-1
 7021 00bb 0100     		.2byte	0x1
 7022 00bd 51       		.byte	0x51
 7023 00be 35000000 		.4byte	.LVL16-1
 7024 00c2 66000000 		.4byte	.LVL27
 7025 00c6 0100     		.2byte	0x1
 7026 00c8 54       		.byte	0x54
 7027 00c9 66000000 		.4byte	.LVL27
 7028 00cd 74000000 		.4byte	.LFE4
 7029 00d1 0400     		.2byte	0x4
 7030 00d3 F3       		.byte	0xf3
 7031 00d4 01       		.uleb128 0x1
 7032 00d5 51       		.byte	0x51
 7033 00d6 9F       		.byte	0x9f
 7034 00d7 00000000 		.4byte	0
 7035 00db 00000000 		.4byte	0
 7036              	.LLST4:
 7037 00df 38000000 		.4byte	.LVL17
 7038 00e3 3A000000 		.4byte	.LVL18
 7039 00e7 0100     		.2byte	0x1
 7040 00e9 50       		.byte	0x50
 7041 00ea 3A000000 		.4byte	.LVL18
 7042 00ee 48000000 		.4byte	.LVL23
 7043 00f2 0100     		.2byte	0x1
 7044 00f4 56       		.byte	0x56
 7045 00f5 00000000 		.4byte	0
 7046 00f9 00000000 		.4byte	0
 7047              	.LLST5:
 7048 00fd 40000000 		.4byte	.LVL20
 7049 0101 42000000 		.4byte	.LVL21
 7050 0105 0100     		.2byte	0x1
 7051 0107 50       		.byte	0x50
 7052 0108 42000000 		.4byte	.LVL21
 7053 010c 52000000 		.4byte	.LVL24
 7054 0110 0100     		.2byte	0x1
 7055 0112 55       		.byte	0x55
 7056 0113 00000000 		.4byte	0
 7057 0117 00000000 		.4byte	0
 7058              	.LLST6:
 7059 011b 46000000 		.4byte	.LVL22
 7060 011f 5A000000 		.4byte	.LVL25
 7061 0123 0100     		.2byte	0x1
 7062 0125 50       		.byte	0x50
ARM GAS  C:\Users\TERENC~1\AppData\Local\Temp\ccNQUuJb.s 			page 143


 7063 0126 00000000 		.4byte	0
 7064 012a 00000000 		.4byte	0
 7065              	.LLST7:
 7066 012e 04000000 		.4byte	.LVL8
 7067 0132 30000000 		.4byte	.LVL14
 7068 0136 0200     		.2byte	0x2
 7069 0138 32       		.byte	0x32
 7070 0139 9F       		.byte	0x9f
 7071 013a 30000000 		.4byte	.LVL14
 7072 013e 38000000 		.4byte	.LVL17
 7073 0142 0200     		.2byte	0x2
 7074 0144 33       		.byte	0x33
 7075 0145 9F       		.byte	0x9f
 7076 0146 38000000 		.4byte	.LVL17
 7077 014a 62000000 		.4byte	.LVL26
 7078 014e 0200     		.2byte	0x2
 7079 0150 34       		.byte	0x34
 7080 0151 9F       		.byte	0x9f
 7081 0152 62000000 		.4byte	.LVL26
 7082 0156 66000000 		.4byte	.LVL27
 7083 015a 0200     		.2byte	0x2
 7084 015c 32       		.byte	0x32
 7085 015d 9F       		.byte	0x9f
 7086 015e 00000000 		.4byte	0
 7087 0162 00000000 		.4byte	0
 7088              	.LLST8:
 7089 0166 00000000 		.4byte	.LVL28
 7090 016a 02000000 		.4byte	.LVL29
 7091 016e 0100     		.2byte	0x1
 7092 0170 50       		.byte	0x50
 7093 0171 02000000 		.4byte	.LVL29
 7094 0175 09000000 		.4byte	.LVL30-1
 7095 0179 0300     		.2byte	0x3
 7096 017b 70       		.byte	0x70
 7097 017c 7E       		.sleb128 -2
 7098 017d 9F       		.byte	0x9f
 7099 017e 09000000 		.4byte	.LVL30-1
 7100 0182 2E000000 		.4byte	.LVL34
 7101 0186 0600     		.2byte	0x6
 7102 0188 F3       		.byte	0xf3
 7103 0189 01       		.uleb128 0x1
 7104 018a 50       		.byte	0x50
 7105 018b 32       		.byte	0x32
 7106 018c 1C       		.byte	0x1c
 7107 018d 9F       		.byte	0x9f
 7108 018e 2E000000 		.4byte	.LVL34
 7109 0192 30000000 		.4byte	.LVL35
 7110 0196 0300     		.2byte	0x3
 7111 0198 70       		.byte	0x70
 7112 0199 7E       		.sleb128 -2
 7113 019a 9F       		.byte	0x9f
 7114 019b 30000000 		.4byte	.LVL35
 7115 019f 78000000 		.4byte	.LFE15
 7116 01a3 0600     		.2byte	0x6
 7117 01a5 F3       		.byte	0xf3
 7118 01a6 01       		.uleb128 0x1
 7119 01a7 50       		.byte	0x50
ARM GAS  C:\Users\TERENC~1\AppData\Local\Temp\ccNQUuJb.s 			page 144


 7120 01a8 32       		.byte	0x32
 7121 01a9 1C       		.byte	0x1c
 7122 01aa 9F       		.byte	0x9f
 7123 01ab 00000000 		.4byte	0
 7124 01af 00000000 		.4byte	0
 7125              	.LLST9:
 7126 01b3 00000000 		.4byte	.LVL28
 7127 01b7 09000000 		.4byte	.LVL30-1
 7128 01bb 0100     		.2byte	0x1
 7129 01bd 51       		.byte	0x51
 7130 01be 09000000 		.4byte	.LVL30-1
 7131 01c2 2E000000 		.4byte	.LVL34
 7132 01c6 0400     		.2byte	0x4
 7133 01c8 F3       		.byte	0xf3
 7134 01c9 01       		.uleb128 0x1
 7135 01ca 51       		.byte	0x51
 7136 01cb 9F       		.byte	0x9f
 7137 01cc 2E000000 		.4byte	.LVL34
 7138 01d0 33000000 		.4byte	.LVL36-1
 7139 01d4 0100     		.2byte	0x1
 7140 01d6 51       		.byte	0x51
 7141 01d7 33000000 		.4byte	.LVL36-1
 7142 01db 78000000 		.4byte	.LFE15
 7143 01df 0400     		.2byte	0x4
 7144 01e1 F3       		.byte	0xf3
 7145 01e2 01       		.uleb128 0x1
 7146 01e3 51       		.byte	0x51
 7147 01e4 9F       		.byte	0x9f
 7148 01e5 00000000 		.4byte	0
 7149 01e9 00000000 		.4byte	0
 7150              	.LLST10:
 7151 01ed 00000000 		.4byte	.LVL41
 7152 01f1 04000000 		.4byte	.LVL42
 7153 01f5 0100     		.2byte	0x1
 7154 01f7 50       		.byte	0x50
 7155 01f8 04000000 		.4byte	.LVL42
 7156 01fc 0B000000 		.4byte	.LVL43-1
 7157 0200 0300     		.2byte	0x3
 7158 0202 70       		.byte	0x70
 7159 0203 7E       		.sleb128 -2
 7160 0204 9F       		.byte	0x9f
 7161 0205 0B000000 		.4byte	.LVL43-1
 7162 0209 30000000 		.4byte	.LVL48
 7163 020d 0600     		.2byte	0x6
 7164 020f F3       		.byte	0xf3
 7165 0210 01       		.uleb128 0x1
 7166 0211 50       		.byte	0x50
 7167 0212 32       		.byte	0x32
 7168 0213 1C       		.byte	0x1c
 7169 0214 9F       		.byte	0x9f
 7170 0215 30000000 		.4byte	.LVL48
 7171 0219 32000000 		.4byte	.LVL49
 7172 021d 0300     		.2byte	0x3
 7173 021f 70       		.byte	0x70
 7174 0220 7E       		.sleb128 -2
 7175 0221 9F       		.byte	0x9f
 7176 0222 32000000 		.4byte	.LVL49
ARM GAS  C:\Users\TERENC~1\AppData\Local\Temp\ccNQUuJb.s 			page 145


 7177 0226 C4000000 		.4byte	.LFE3
 7178 022a 0600     		.2byte	0x6
 7179 022c F3       		.byte	0xf3
 7180 022d 01       		.uleb128 0x1
 7181 022e 50       		.byte	0x50
 7182 022f 32       		.byte	0x32
 7183 0230 1C       		.byte	0x1c
 7184 0231 9F       		.byte	0x9f
 7185 0232 00000000 		.4byte	0
 7186 0236 00000000 		.4byte	0
 7187              	.LLST11:
 7188 023a 00000000 		.4byte	.LVL41
 7189 023e 0B000000 		.4byte	.LVL43-1
 7190 0242 0100     		.2byte	0x1
 7191 0244 51       		.byte	0x51
 7192 0245 0B000000 		.4byte	.LVL43-1
 7193 0249 1A000000 		.4byte	.LVL45
 7194 024d 0100     		.2byte	0x1
 7195 024f 54       		.byte	0x54
 7196 0250 1A000000 		.4byte	.LVL45
 7197 0254 30000000 		.4byte	.LVL48
 7198 0258 0400     		.2byte	0x4
 7199 025a F3       		.byte	0xf3
 7200 025b 01       		.uleb128 0x1
 7201 025c 51       		.byte	0x51
 7202 025d 9F       		.byte	0x9f
 7203 025e 30000000 		.4byte	.LVL48
 7204 0262 35000000 		.4byte	.LVL50-1
 7205 0266 0100     		.2byte	0x1
 7206 0268 51       		.byte	0x51
 7207 0269 35000000 		.4byte	.LVL50-1
 7208 026d 4C000000 		.4byte	.LVL58
 7209 0271 0100     		.2byte	0x1
 7210 0273 54       		.byte	0x54
 7211 0274 4C000000 		.4byte	.LVL58
 7212 0278 A8000000 		.4byte	.LVL63
 7213 027c 0400     		.2byte	0x4
 7214 027e F3       		.byte	0xf3
 7215 027f 01       		.uleb128 0x1
 7216 0280 51       		.byte	0x51
 7217 0281 9F       		.byte	0x9f
 7218 0282 A8000000 		.4byte	.LVL63
 7219 0286 AE000000 		.4byte	.LVL64
 7220 028a 0100     		.2byte	0x1
 7221 028c 54       		.byte	0x54
 7222 028d AE000000 		.4byte	.LVL64
 7223 0291 C4000000 		.4byte	.LFE3
 7224 0295 0400     		.2byte	0x4
 7225 0297 F3       		.byte	0xf3
 7226 0298 01       		.uleb128 0x1
 7227 0299 51       		.byte	0x51
 7228 029a 9F       		.byte	0x9f
 7229 029b 00000000 		.4byte	0
 7230 029f 00000000 		.4byte	0
 7231              	.LLST12:
 7232 02a3 38000000 		.4byte	.LVL51
 7233 02a7 3A000000 		.4byte	.LVL52
ARM GAS  C:\Users\TERENC~1\AppData\Local\Temp\ccNQUuJb.s 			page 146


 7234 02ab 0100     		.2byte	0x1
 7235 02ad 50       		.byte	0x50
 7236 02ae 3A000000 		.4byte	.LVL52
 7237 02b2 48000000 		.4byte	.LVL57
 7238 02b6 0100     		.2byte	0x1
 7239 02b8 56       		.byte	0x56
 7240 02b9 00000000 		.4byte	0
 7241 02bd 00000000 		.4byte	0
 7242              	.LLST13:
 7243 02c1 40000000 		.4byte	.LVL54
 7244 02c5 42000000 		.4byte	.LVL55
 7245 02c9 0100     		.2byte	0x1
 7246 02cb 50       		.byte	0x50
 7247 02cc 42000000 		.4byte	.LVL55
 7248 02d0 A8000000 		.4byte	.LVL63
 7249 02d4 0100     		.2byte	0x1
 7250 02d6 55       		.byte	0x55
 7251 02d7 AE000000 		.4byte	.LVL64
 7252 02db B0000000 		.4byte	.LVL65
 7253 02df 0100     		.2byte	0x1
 7254 02e1 55       		.byte	0x55
 7255 02e2 00000000 		.4byte	0
 7256 02e6 00000000 		.4byte	0
 7257              	.LLST14:
 7258 02ea 46000000 		.4byte	.LVL56
 7259 02ee 7F000000 		.4byte	.LVL59-1
 7260 02f2 0100     		.2byte	0x1
 7261 02f4 50       		.byte	0x50
 7262 02f5 00000000 		.4byte	0
 7263 02f9 00000000 		.4byte	0
 7264              	.LLST15:
 7265 02fd 04000000 		.4byte	.LVL42
 7266 0301 30000000 		.4byte	.LVL48
 7267 0305 0200     		.2byte	0x2
 7268 0307 32       		.byte	0x32
 7269 0308 9F       		.byte	0x9f
 7270 0309 30000000 		.4byte	.LVL48
 7271 030d 38000000 		.4byte	.LVL51
 7272 0311 0200     		.2byte	0x2
 7273 0313 33       		.byte	0x33
 7274 0314 9F       		.byte	0x9f
 7275 0315 38000000 		.4byte	.LVL51
 7276 0319 A8000000 		.4byte	.LVL63
 7277 031d 0200     		.2byte	0x2
 7278 031f 34       		.byte	0x34
 7279 0320 9F       		.byte	0x9f
 7280 0321 A8000000 		.4byte	.LVL63
 7281 0325 AE000000 		.4byte	.LVL64
 7282 0329 0200     		.2byte	0x2
 7283 032b 32       		.byte	0x32
 7284 032c 9F       		.byte	0x9f
 7285 032d AE000000 		.4byte	.LVL64
 7286 0331 B0000000 		.4byte	.LVL65
 7287 0335 0200     		.2byte	0x2
 7288 0337 34       		.byte	0x34
 7289 0338 9F       		.byte	0x9f
 7290 0339 00000000 		.4byte	0
ARM GAS  C:\Users\TERENC~1\AppData\Local\Temp\ccNQUuJb.s 			page 147


 7291 033d 00000000 		.4byte	0
 7292              	.LLST16:
 7293 0341 00000000 		.4byte	.LVL66
 7294 0345 04000000 		.4byte	.LVL67
 7295 0349 0100     		.2byte	0x1
 7296 034b 50       		.byte	0x50
 7297 034c 04000000 		.4byte	.LVL67
 7298 0350 0B000000 		.4byte	.LVL68-1
 7299 0354 0300     		.2byte	0x3
 7300 0356 70       		.byte	0x70
 7301 0357 7E       		.sleb128 -2
 7302 0358 9F       		.byte	0x9f
 7303 0359 0B000000 		.4byte	.LVL68-1
 7304 035d 30000000 		.4byte	.LVL73
 7305 0361 0600     		.2byte	0x6
 7306 0363 F3       		.byte	0xf3
 7307 0364 01       		.uleb128 0x1
 7308 0365 50       		.byte	0x50
 7309 0366 32       		.byte	0x32
 7310 0367 1C       		.byte	0x1c
 7311 0368 9F       		.byte	0x9f
 7312 0369 30000000 		.4byte	.LVL73
 7313 036d 32000000 		.4byte	.LVL74
 7314 0371 0300     		.2byte	0x3
 7315 0373 70       		.byte	0x70
 7316 0374 7E       		.sleb128 -2
 7317 0375 9F       		.byte	0x9f
 7318 0376 32000000 		.4byte	.LVL74
 7319 037a 8C000000 		.4byte	.LFE5
 7320 037e 0600     		.2byte	0x6
 7321 0380 F3       		.byte	0xf3
 7322 0381 01       		.uleb128 0x1
 7323 0382 50       		.byte	0x50
 7324 0383 32       		.byte	0x32
 7325 0384 1C       		.byte	0x1c
 7326 0385 9F       		.byte	0x9f
 7327 0386 00000000 		.4byte	0
 7328 038a 00000000 		.4byte	0
 7329              	.LLST17:
 7330 038e 00000000 		.4byte	.LVL66
 7331 0392 0B000000 		.4byte	.LVL68-1
 7332 0396 0100     		.2byte	0x1
 7333 0398 51       		.byte	0x51
 7334 0399 0B000000 		.4byte	.LVL68-1
 7335 039d 1A000000 		.4byte	.LVL70
 7336 03a1 0100     		.2byte	0x1
 7337 03a3 54       		.byte	0x54
 7338 03a4 1A000000 		.4byte	.LVL70
 7339 03a8 30000000 		.4byte	.LVL73
 7340 03ac 0400     		.2byte	0x4
 7341 03ae F3       		.byte	0xf3
 7342 03af 01       		.uleb128 0x1
 7343 03b0 51       		.byte	0x51
 7344 03b1 9F       		.byte	0x9f
 7345 03b2 30000000 		.4byte	.LVL73
 7346 03b6 35000000 		.4byte	.LVL75-1
 7347 03ba 0100     		.2byte	0x1
ARM GAS  C:\Users\TERENC~1\AppData\Local\Temp\ccNQUuJb.s 			page 148


 7348 03bc 51       		.byte	0x51
 7349 03bd 35000000 		.4byte	.LVL75-1
 7350 03c1 40000000 		.4byte	.LVL79
 7351 03c5 0100     		.2byte	0x1
 7352 03c7 54       		.byte	0x54
 7353 03c8 40000000 		.4byte	.LVL79
 7354 03cc 72000000 		.4byte	.LVL86
 7355 03d0 0400     		.2byte	0x4
 7356 03d2 F3       		.byte	0xf3
 7357 03d3 01       		.uleb128 0x1
 7358 03d4 51       		.byte	0x51
 7359 03d5 9F       		.byte	0x9f
 7360 03d6 72000000 		.4byte	.LVL86
 7361 03da 78000000 		.4byte	.LVL87
 7362 03de 0100     		.2byte	0x1
 7363 03e0 54       		.byte	0x54
 7364 03e1 78000000 		.4byte	.LVL87
 7365 03e5 8C000000 		.4byte	.LFE5
 7366 03e9 0400     		.2byte	0x4
 7367 03eb F3       		.byte	0xf3
 7368 03ec 01       		.uleb128 0x1
 7369 03ed 51       		.byte	0x51
 7370 03ee 9F       		.byte	0x9f
 7371 03ef 00000000 		.4byte	0
 7372 03f3 00000000 		.4byte	0
 7373              	.LLST18:
 7374 03f7 38000000 		.4byte	.LVL76
 7375 03fb 3A000000 		.4byte	.LVL77
 7376 03ff 0100     		.2byte	0x1
 7377 0401 50       		.byte	0x50
 7378 0402 3A000000 		.4byte	.LVL77
 7379 0406 52000000 		.4byte	.LVL82
 7380 040a 0100     		.2byte	0x1
 7381 040c 55       		.byte	0x55
 7382 040d 78000000 		.4byte	.LVL87
 7383 0411 7A000000 		.4byte	.LVL88
 7384 0415 0100     		.2byte	0x1
 7385 0417 55       		.byte	0x55
 7386 0418 00000000 		.4byte	0
 7387 041c 00000000 		.4byte	0
 7388              	.LLST19:
 7389 0420 40000000 		.4byte	.LVL79
 7390 0424 43000000 		.4byte	.LVL80-1
 7391 0428 0100     		.2byte	0x1
 7392 042a 50       		.byte	0x50
 7393 042b 43000000 		.4byte	.LVL80-1
 7394 042f 60000000 		.4byte	.LVL83
 7395 0433 0100     		.2byte	0x1
 7396 0435 54       		.byte	0x54
 7397 0436 78000000 		.4byte	.LVL87
 7398 043a 7A000000 		.4byte	.LVL88
 7399 043e 0100     		.2byte	0x1
 7400 0440 54       		.byte	0x54
 7401 0441 00000000 		.4byte	0
 7402 0445 00000000 		.4byte	0
 7403              	.LLST20:
 7404 0449 04000000 		.4byte	.LVL67
ARM GAS  C:\Users\TERENC~1\AppData\Local\Temp\ccNQUuJb.s 			page 149


 7405 044d 30000000 		.4byte	.LVL73
 7406 0451 0200     		.2byte	0x2
 7407 0453 32       		.byte	0x32
 7408 0454 9F       		.byte	0x9f
 7409 0455 30000000 		.4byte	.LVL73
 7410 0459 72000000 		.4byte	.LVL86
 7411 045d 0200     		.2byte	0x2
 7412 045f 33       		.byte	0x33
 7413 0460 9F       		.byte	0x9f
 7414 0461 72000000 		.4byte	.LVL86
 7415 0465 78000000 		.4byte	.LVL87
 7416 0469 0200     		.2byte	0x2
 7417 046b 32       		.byte	0x32
 7418 046c 9F       		.byte	0x9f
 7419 046d 78000000 		.4byte	.LVL87
 7420 0471 7A000000 		.4byte	.LVL88
 7421 0475 0200     		.2byte	0x2
 7422 0477 33       		.byte	0x33
 7423 0478 9F       		.byte	0x9f
 7424 0479 00000000 		.4byte	0
 7425 047d 00000000 		.4byte	0
 7426              	.LLST21:
 7427 0481 00000000 		.4byte	.LVL89
 7428 0485 05000000 		.4byte	.LVL90-1
 7429 0489 0100     		.2byte	0x1
 7430 048b 50       		.byte	0x50
 7431 048c 05000000 		.4byte	.LVL90-1
 7432 0490 38000000 		.4byte	.LFE12
 7433 0494 0400     		.2byte	0x4
 7434 0496 F3       		.byte	0xf3
 7435 0497 01       		.uleb128 0x1
 7436 0498 50       		.byte	0x50
 7437 0499 9F       		.byte	0x9f
 7438 049a 00000000 		.4byte	0
 7439 049e 00000000 		.4byte	0
 7440              	.LLST22:
 7441 04a2 00000000 		.4byte	.LVL89
 7442 04a6 05000000 		.4byte	.LVL90-1
 7443 04aa 0100     		.2byte	0x1
 7444 04ac 51       		.byte	0x51
 7445 04ad 05000000 		.4byte	.LVL90-1
 7446 04b1 38000000 		.4byte	.LFE12
 7447 04b5 0400     		.2byte	0x4
 7448 04b7 F3       		.byte	0xf3
 7449 04b8 01       		.uleb128 0x1
 7450 04b9 51       		.byte	0x51
 7451 04ba 9F       		.byte	0x9f
 7452 04bb 00000000 		.4byte	0
 7453 04bf 00000000 		.4byte	0
 7454              	.LLST23:
 7455 04c3 00000000 		.4byte	.LVL94
 7456 04c7 05000000 		.4byte	.LVL95-1
 7457 04cb 0100     		.2byte	0x1
 7458 04cd 50       		.byte	0x50
 7459 04ce 05000000 		.4byte	.LVL95-1
 7460 04d2 3C000000 		.4byte	.LFE14
 7461 04d6 0400     		.2byte	0x4
ARM GAS  C:\Users\TERENC~1\AppData\Local\Temp\ccNQUuJb.s 			page 150


 7462 04d8 F3       		.byte	0xf3
 7463 04d9 01       		.uleb128 0x1
 7464 04da 50       		.byte	0x50
 7465 04db 9F       		.byte	0x9f
 7466 04dc 00000000 		.4byte	0
 7467 04e0 00000000 		.4byte	0
 7468              	.LLST24:
 7469 04e4 00000000 		.4byte	.LVL94
 7470 04e8 05000000 		.4byte	.LVL95-1
 7471 04ec 0100     		.2byte	0x1
 7472 04ee 51       		.byte	0x51
 7473 04ef 05000000 		.4byte	.LVL95-1
 7474 04f3 3C000000 		.4byte	.LFE14
 7475 04f7 0400     		.2byte	0x4
 7476 04f9 F3       		.byte	0xf3
 7477 04fa 01       		.uleb128 0x1
 7478 04fb 51       		.byte	0x51
 7479 04fc 9F       		.byte	0x9f
 7480 04fd 00000000 		.4byte	0
 7481 0501 00000000 		.4byte	0
 7482              	.LLST25:
 7483 0505 00000000 		.4byte	.LVL99
 7484 0509 05000000 		.4byte	.LVL100-1
 7485 050d 0100     		.2byte	0x1
 7486 050f 50       		.byte	0x50
 7487 0510 05000000 		.4byte	.LVL100-1
 7488 0514 8C010000 		.4byte	.LFE18
 7489 0518 0400     		.2byte	0x4
 7490 051a F3       		.byte	0xf3
 7491 051b 01       		.uleb128 0x1
 7492 051c 50       		.byte	0x50
 7493 051d 9F       		.byte	0x9f
 7494 051e 00000000 		.4byte	0
 7495 0522 00000000 		.4byte	0
 7496              	.LLST26:
 7497 0526 00000000 		.4byte	.LVL99
 7498 052a 05000000 		.4byte	.LVL100-1
 7499 052e 0100     		.2byte	0x1
 7500 0530 51       		.byte	0x51
 7501 0531 05000000 		.4byte	.LVL100-1
 7502 0535 8C010000 		.4byte	.LFE18
 7503 0539 0400     		.2byte	0x4
 7504 053b F3       		.byte	0xf3
 7505 053c 01       		.uleb128 0x1
 7506 053d 51       		.byte	0x51
 7507 053e 9F       		.byte	0x9f
 7508 053f 00000000 		.4byte	0
 7509 0543 00000000 		.4byte	0
 7510              	.LLST27:
 7511 0547 00000000 		.4byte	.LVL136
 7512 054b 02000000 		.4byte	.LVL137
 7513 054f 0100     		.2byte	0x1
 7514 0551 50       		.byte	0x50
 7515 0552 02000000 		.4byte	.LVL137
 7516 0556 09000000 		.4byte	.LVL138-1
 7517 055a 0300     		.2byte	0x3
 7518 055c 70       		.byte	0x70
ARM GAS  C:\Users\TERENC~1\AppData\Local\Temp\ccNQUuJb.s 			page 151


 7519 055d 7E       		.sleb128 -2
 7520 055e 9F       		.byte	0x9f
 7521 055f 09000000 		.4byte	.LVL138-1
 7522 0563 2E000000 		.4byte	.LVL142
 7523 0567 0600     		.2byte	0x6
 7524 0569 F3       		.byte	0xf3
 7525 056a 01       		.uleb128 0x1
 7526 056b 50       		.byte	0x50
 7527 056c 32       		.byte	0x32
 7528 056d 1C       		.byte	0x1c
 7529 056e 9F       		.byte	0x9f
 7530 056f 2E000000 		.4byte	.LVL142
 7531 0573 30000000 		.4byte	.LVL143
 7532 0577 0300     		.2byte	0x3
 7533 0579 70       		.byte	0x70
 7534 057a 7E       		.sleb128 -2
 7535 057b 9F       		.byte	0x9f
 7536 057c 30000000 		.4byte	.LVL143
 7537 0580 AC000000 		.4byte	.LFE6
 7538 0584 0600     		.2byte	0x6
 7539 0586 F3       		.byte	0xf3
 7540 0587 01       		.uleb128 0x1
 7541 0588 50       		.byte	0x50
 7542 0589 32       		.byte	0x32
 7543 058a 1C       		.byte	0x1c
 7544 058b 9F       		.byte	0x9f
 7545 058c 00000000 		.4byte	0
 7546 0590 00000000 		.4byte	0
 7547              	.LLST28:
 7548 0594 00000000 		.4byte	.LVL136
 7549 0598 09000000 		.4byte	.LVL138-1
 7550 059c 0100     		.2byte	0x1
 7551 059e 51       		.byte	0x51
 7552 059f 09000000 		.4byte	.LVL138-1
 7553 05a3 2E000000 		.4byte	.LVL142
 7554 05a7 0400     		.2byte	0x4
 7555 05a9 F3       		.byte	0xf3
 7556 05aa 01       		.uleb128 0x1
 7557 05ab 51       		.byte	0x51
 7558 05ac 9F       		.byte	0x9f
 7559 05ad 2E000000 		.4byte	.LVL142
 7560 05b1 33000000 		.4byte	.LVL144-1
 7561 05b5 0100     		.2byte	0x1
 7562 05b7 51       		.byte	0x51
 7563 05b8 33000000 		.4byte	.LVL144-1
 7564 05bc AC000000 		.4byte	.LFE6
 7565 05c0 0400     		.2byte	0x4
 7566 05c2 F3       		.byte	0xf3
 7567 05c3 01       		.uleb128 0x1
 7568 05c4 51       		.byte	0x51
 7569 05c5 9F       		.byte	0x9f
 7570 05c6 00000000 		.4byte	0
 7571 05ca 00000000 		.4byte	0
 7572              	.LLST29:
 7573 05ce 34000000 		.4byte	.LVL144
 7574 05d2 36000000 		.4byte	.LVL145
 7575 05d6 0100     		.2byte	0x1
ARM GAS  C:\Users\TERENC~1\AppData\Local\Temp\ccNQUuJb.s 			page 152


 7576 05d8 50       		.byte	0x50
 7577 05d9 00000000 		.4byte	0
 7578 05dd 00000000 		.4byte	0
 7579              	.LLST30:
 7580 05e1 02000000 		.4byte	.LVL137
 7581 05e5 2E000000 		.4byte	.LVL142
 7582 05e9 0200     		.2byte	0x2
 7583 05eb 32       		.byte	0x32
 7584 05ec 9F       		.byte	0x9f
 7585 05ed 2E000000 		.4byte	.LVL142
 7586 05f1 8C000000 		.4byte	.LVL157
 7587 05f5 0200     		.2byte	0x2
 7588 05f7 33       		.byte	0x33
 7589 05f8 9F       		.byte	0x9f
 7590 05f9 8C000000 		.4byte	.LVL157
 7591 05fd 92000000 		.4byte	.LVL158
 7592 0601 0200     		.2byte	0x2
 7593 0603 32       		.byte	0x32
 7594 0604 9F       		.byte	0x9f
 7595 0605 92000000 		.4byte	.LVL158
 7596 0609 9A000000 		.4byte	.LVL159
 7597 060d 0200     		.2byte	0x2
 7598 060f 33       		.byte	0x33
 7599 0610 9F       		.byte	0x9f
 7600 0611 00000000 		.4byte	0
 7601 0615 00000000 		.4byte	0
 7602              	.LLST31:
 7603 0619 3C000000 		.4byte	.LVL147
 7604 061d 41000000 		.4byte	.LVL148-1
 7605 0621 0100     		.2byte	0x1
 7606 0623 50       		.byte	0x50
 7607 0624 64000000 		.4byte	.LVL152
 7608 0628 67000000 		.4byte	.LVL153-1
 7609 062c 0100     		.2byte	0x1
 7610 062e 50       		.byte	0x50
 7611 062f 00000000 		.4byte	0
 7612 0633 00000000 		.4byte	0
 7613              	.LLST32:
 7614 0637 00000000 		.4byte	.LVL160
 7615 063b 05000000 		.4byte	.LVL161-1
 7616 063f 0100     		.2byte	0x1
 7617 0641 50       		.byte	0x50
 7618 0642 05000000 		.4byte	.LVL161-1
 7619 0646 34000000 		.4byte	.LFE7
 7620 064a 0400     		.2byte	0x4
 7621 064c F3       		.byte	0xf3
 7622 064d 01       		.uleb128 0x1
 7623 064e 50       		.byte	0x50
 7624 064f 9F       		.byte	0x9f
 7625 0650 00000000 		.4byte	0
 7626 0654 00000000 		.4byte	0
 7627              	.LLST33:
 7628 0658 00000000 		.4byte	.LVL160
 7629 065c 05000000 		.4byte	.LVL161-1
 7630 0660 0100     		.2byte	0x1
 7631 0662 51       		.byte	0x51
 7632 0663 05000000 		.4byte	.LVL161-1
ARM GAS  C:\Users\TERENC~1\AppData\Local\Temp\ccNQUuJb.s 			page 153


 7633 0667 34000000 		.4byte	.LFE7
 7634 066b 0400     		.2byte	0x4
 7635 066d F3       		.byte	0xf3
 7636 066e 01       		.uleb128 0x1
 7637 066f 51       		.byte	0x51
 7638 0670 9F       		.byte	0x9f
 7639 0671 00000000 		.4byte	0
 7640 0675 00000000 		.4byte	0
 7641              	.LLST34:
 7642 0679 00000000 		.4byte	.LVL166
 7643 067d 04000000 		.4byte	.LVL167
 7644 0681 0100     		.2byte	0x1
 7645 0683 50       		.byte	0x50
 7646 0684 04000000 		.4byte	.LVL167
 7647 0688 0B000000 		.4byte	.LVL168-1
 7648 068c 0300     		.2byte	0x3
 7649 068e 70       		.byte	0x70
 7650 068f 7E       		.sleb128 -2
 7651 0690 9F       		.byte	0x9f
 7652 0691 0B000000 		.4byte	.LVL168-1
 7653 0695 30000000 		.4byte	.LVL173
 7654 0699 0600     		.2byte	0x6
 7655 069b F3       		.byte	0xf3
 7656 069c 01       		.uleb128 0x1
 7657 069d 50       		.byte	0x50
 7658 069e 32       		.byte	0x32
 7659 069f 1C       		.byte	0x1c
 7660 06a0 9F       		.byte	0x9f
 7661 06a1 30000000 		.4byte	.LVL173
 7662 06a5 32000000 		.4byte	.LVL174
 7663 06a9 0300     		.2byte	0x3
 7664 06ab 70       		.byte	0x70
 7665 06ac 7E       		.sleb128 -2
 7666 06ad 9F       		.byte	0x9f
 7667 06ae 32000000 		.4byte	.LVL174
 7668 06b2 BC000000 		.4byte	.LFE8
 7669 06b6 0600     		.2byte	0x6
 7670 06b8 F3       		.byte	0xf3
 7671 06b9 01       		.uleb128 0x1
 7672 06ba 50       		.byte	0x50
 7673 06bb 32       		.byte	0x32
 7674 06bc 1C       		.byte	0x1c
 7675 06bd 9F       		.byte	0x9f
 7676 06be 00000000 		.4byte	0
 7677 06c2 00000000 		.4byte	0
 7678              	.LLST35:
 7679 06c6 00000000 		.4byte	.LVL166
 7680 06ca 0B000000 		.4byte	.LVL168-1
 7681 06ce 0100     		.2byte	0x1
 7682 06d0 51       		.byte	0x51
 7683 06d1 0B000000 		.4byte	.LVL168-1
 7684 06d5 1A000000 		.4byte	.LVL170
 7685 06d9 0100     		.2byte	0x1
 7686 06db 54       		.byte	0x54
 7687 06dc 1A000000 		.4byte	.LVL170
 7688 06e0 30000000 		.4byte	.LVL173
 7689 06e4 0400     		.2byte	0x4
ARM GAS  C:\Users\TERENC~1\AppData\Local\Temp\ccNQUuJb.s 			page 154


 7690 06e6 F3       		.byte	0xf3
 7691 06e7 01       		.uleb128 0x1
 7692 06e8 51       		.byte	0x51
 7693 06e9 9F       		.byte	0x9f
 7694 06ea 30000000 		.4byte	.LVL173
 7695 06ee 35000000 		.4byte	.LVL175-1
 7696 06f2 0100     		.2byte	0x1
 7697 06f4 51       		.byte	0x51
 7698 06f5 35000000 		.4byte	.LVL175-1
 7699 06f9 4C000000 		.4byte	.LVL180
 7700 06fd 0100     		.2byte	0x1
 7701 06ff 54       		.byte	0x54
 7702 0700 4C000000 		.4byte	.LVL180
 7703 0704 9C000000 		.4byte	.LVL192
 7704 0708 0400     		.2byte	0x4
 7705 070a F3       		.byte	0xf3
 7706 070b 01       		.uleb128 0x1
 7707 070c 51       		.byte	0x51
 7708 070d 9F       		.byte	0x9f
 7709 070e 9C000000 		.4byte	.LVL192
 7710 0712 A2000000 		.4byte	.LVL193
 7711 0716 0100     		.2byte	0x1
 7712 0718 54       		.byte	0x54
 7713 0719 A2000000 		.4byte	.LVL193
 7714 071d BC000000 		.4byte	.LFE8
 7715 0721 0400     		.2byte	0x4
 7716 0723 F3       		.byte	0xf3
 7717 0724 01       		.uleb128 0x1
 7718 0725 51       		.byte	0x51
 7719 0726 9F       		.byte	0x9f
 7720 0727 00000000 		.4byte	0
 7721 072b 00000000 		.4byte	0
 7722              	.LLST36:
 7723 072f 04000000 		.4byte	.LVL167
 7724 0733 30000000 		.4byte	.LVL173
 7725 0737 0200     		.2byte	0x2
 7726 0739 32       		.byte	0x32
 7727 073a 9F       		.byte	0x9f
 7728 073b 30000000 		.4byte	.LVL173
 7729 073f 38000000 		.4byte	.LVL176
 7730 0743 0200     		.2byte	0x2
 7731 0745 33       		.byte	0x33
 7732 0746 9F       		.byte	0x9f
 7733 0747 38000000 		.4byte	.LVL176
 7734 074b 9C000000 		.4byte	.LVL192
 7735 074f 0200     		.2byte	0x2
 7736 0751 34       		.byte	0x34
 7737 0752 9F       		.byte	0x9f
 7738 0753 9C000000 		.4byte	.LVL192
 7739 0757 A2000000 		.4byte	.LVL193
 7740 075b 0200     		.2byte	0x2
 7741 075d 32       		.byte	0x32
 7742 075e 9F       		.byte	0x9f
 7743 075f A2000000 		.4byte	.LVL193
 7744 0763 AA000000 		.4byte	.LVL194
 7745 0767 0200     		.2byte	0x2
 7746 0769 34       		.byte	0x34
ARM GAS  C:\Users\TERENC~1\AppData\Local\Temp\ccNQUuJb.s 			page 155


 7747 076a 9F       		.byte	0x9f
 7748 076b 00000000 		.4byte	0
 7749 076f 00000000 		.4byte	0
 7750              	.LLST37:
 7751 0773 38000000 		.4byte	.LVL176
 7752 0777 86000000 		.4byte	.LVL189
 7753 077b 0100     		.2byte	0x1
 7754 077d 55       		.byte	0x55
 7755 077e A2000000 		.4byte	.LVL193
 7756 0782 AA000000 		.4byte	.LVL194
 7757 0786 0100     		.2byte	0x1
 7758 0788 55       		.byte	0x55
 7759 0789 00000000 		.4byte	0
 7760 078d 00000000 		.4byte	0
 7761              	.LLST38:
 7762 0791 44000000 		.4byte	.LVL178
 7763 0795 49000000 		.4byte	.LVL179-1
 7764 0799 0100     		.2byte	0x1
 7765 079b 51       		.byte	0x51
 7766 079c 00000000 		.4byte	0
 7767 07a0 00000000 		.4byte	0
 7768              	.LLST39:
 7769 07a4 4C000000 		.4byte	.LVL180
 7770 07a8 51000000 		.4byte	.LVL181-1
 7771 07ac 0100     		.2byte	0x1
 7772 07ae 50       		.byte	0x50
 7773 07af 51000000 		.4byte	.LVL181-1
 7774 07b3 60000000 		.4byte	.LVL183
 7775 07b7 0100     		.2byte	0x1
 7776 07b9 54       		.byte	0x54
 7777 07ba 74000000 		.4byte	.LVL186
 7778 07be 77000000 		.4byte	.LVL187-1
 7779 07c2 0100     		.2byte	0x1
 7780 07c4 50       		.byte	0x50
 7781 07c5 77000000 		.4byte	.LVL187-1
 7782 07c9 9C000000 		.4byte	.LVL192
 7783 07cd 0100     		.2byte	0x1
 7784 07cf 54       		.byte	0x54
 7785 07d0 A2000000 		.4byte	.LVL193
 7786 07d4 AA000000 		.4byte	.LVL194
 7787 07d8 0100     		.2byte	0x1
 7788 07da 54       		.byte	0x54
 7789 07db 00000000 		.4byte	0
 7790 07df 00000000 		.4byte	0
 7791              	.LLST40:
 7792 07e3 00000000 		.4byte	.LVL195
 7793 07e7 02000000 		.4byte	.LVL196
 7794 07eb 0100     		.2byte	0x1
 7795 07ed 50       		.byte	0x50
 7796 07ee 02000000 		.4byte	.LVL196
 7797 07f2 09000000 		.4byte	.LVL197-1
 7798 07f6 0300     		.2byte	0x3
 7799 07f8 70       		.byte	0x70
 7800 07f9 7E       		.sleb128 -2
 7801 07fa 9F       		.byte	0x9f
 7802 07fb 09000000 		.4byte	.LVL197-1
 7803 07ff 2E000000 		.4byte	.LVL201
ARM GAS  C:\Users\TERENC~1\AppData\Local\Temp\ccNQUuJb.s 			page 156


 7804 0803 0600     		.2byte	0x6
 7805 0805 F3       		.byte	0xf3
 7806 0806 01       		.uleb128 0x1
 7807 0807 50       		.byte	0x50
 7808 0808 32       		.byte	0x32
 7809 0809 1C       		.byte	0x1c
 7810 080a 9F       		.byte	0x9f
 7811 080b 2E000000 		.4byte	.LVL201
 7812 080f 30000000 		.4byte	.LVL202
 7813 0813 0300     		.2byte	0x3
 7814 0815 70       		.byte	0x70
 7815 0816 7E       		.sleb128 -2
 7816 0817 9F       		.byte	0x9f
 7817 0818 30000000 		.4byte	.LVL202
 7818 081c 78000000 		.4byte	.LFE9
 7819 0820 0600     		.2byte	0x6
 7820 0822 F3       		.byte	0xf3
 7821 0823 01       		.uleb128 0x1
 7822 0824 50       		.byte	0x50
 7823 0825 32       		.byte	0x32
 7824 0826 1C       		.byte	0x1c
 7825 0827 9F       		.byte	0x9f
 7826 0828 00000000 		.4byte	0
 7827 082c 00000000 		.4byte	0
 7828              	.LLST41:
 7829 0830 00000000 		.4byte	.LVL195
 7830 0834 09000000 		.4byte	.LVL197-1
 7831 0838 0100     		.2byte	0x1
 7832 083a 51       		.byte	0x51
 7833 083b 09000000 		.4byte	.LVL197-1
 7834 083f 2E000000 		.4byte	.LVL201
 7835 0843 0400     		.2byte	0x4
 7836 0845 F3       		.byte	0xf3
 7837 0846 01       		.uleb128 0x1
 7838 0847 51       		.byte	0x51
 7839 0848 9F       		.byte	0x9f
 7840 0849 2E000000 		.4byte	.LVL201
 7841 084d 33000000 		.4byte	.LVL203-1
 7842 0851 0100     		.2byte	0x1
 7843 0853 51       		.byte	0x51
 7844 0854 33000000 		.4byte	.LVL203-1
 7845 0858 78000000 		.4byte	.LFE9
 7846 085c 0400     		.2byte	0x4
 7847 085e F3       		.byte	0xf3
 7848 085f 01       		.uleb128 0x1
 7849 0860 51       		.byte	0x51
 7850 0861 9F       		.byte	0x9f
 7851 0862 00000000 		.4byte	0
 7852 0866 00000000 		.4byte	0
 7853              	.LLST42:
 7854 086a 02000000 		.4byte	.LVL196
 7855 086e 2E000000 		.4byte	.LVL201
 7856 0872 0200     		.2byte	0x2
 7857 0874 32       		.byte	0x32
 7858 0875 9F       		.byte	0x9f
 7859 0876 2E000000 		.4byte	.LVL201
 7860 087a 62000000 		.4byte	.LVL211
ARM GAS  C:\Users\TERENC~1\AppData\Local\Temp\ccNQUuJb.s 			page 157


 7861 087e 0200     		.2byte	0x2
 7862 0880 33       		.byte	0x33
 7863 0881 9F       		.byte	0x9f
 7864 0882 62000000 		.4byte	.LVL211
 7865 0886 68000000 		.4byte	.LVL212
 7866 088a 0200     		.2byte	0x2
 7867 088c 32       		.byte	0x32
 7868 088d 9F       		.byte	0x9f
 7869 088e 68000000 		.4byte	.LVL212
 7870 0892 6A000000 		.4byte	.LVL213
 7871 0896 0200     		.2byte	0x2
 7872 0898 33       		.byte	0x33
 7873 0899 9F       		.byte	0x9f
 7874 089a 00000000 		.4byte	0
 7875 089e 00000000 		.4byte	0
 7876              	.LLST43:
 7877 08a2 36000000 		.4byte	.LVL204
 7878 08a6 50000000 		.4byte	.LVL208
 7879 08aa 0100     		.2byte	0x1
 7880 08ac 54       		.byte	0x54
 7881 08ad 68000000 		.4byte	.LVL212
 7882 08b1 6A000000 		.4byte	.LVL213
 7883 08b5 0100     		.2byte	0x1
 7884 08b7 54       		.byte	0x54
 7885 08b8 00000000 		.4byte	0
 7886 08bc 00000000 		.4byte	0
 7887              	.LLST44:
 7888 08c0 00000000 		.4byte	.LVL214
 7889 08c4 05000000 		.4byte	.LVL215-1
 7890 08c8 0100     		.2byte	0x1
 7891 08ca 50       		.byte	0x50
 7892 08cb 05000000 		.4byte	.LVL215-1
 7893 08cf 0A000000 		.4byte	.LFE13
 7894 08d3 0400     		.2byte	0x4
 7895 08d5 F3       		.byte	0xf3
 7896 08d6 01       		.uleb128 0x1
 7897 08d7 50       		.byte	0x50
 7898 08d8 9F       		.byte	0x9f
 7899 08d9 00000000 		.4byte	0
 7900 08dd 00000000 		.4byte	0
 7901              	.LLST45:
 7902 08e1 00000000 		.4byte	.LVL214
 7903 08e5 05000000 		.4byte	.LVL215-1
 7904 08e9 0100     		.2byte	0x1
 7905 08eb 51       		.byte	0x51
 7906 08ec 05000000 		.4byte	.LVL215-1
 7907 08f0 0A000000 		.4byte	.LFE13
 7908 08f4 0400     		.2byte	0x4
 7909 08f6 F3       		.byte	0xf3
 7910 08f7 01       		.uleb128 0x1
 7911 08f8 51       		.byte	0x51
 7912 08f9 9F       		.byte	0x9f
 7913 08fa 00000000 		.4byte	0
 7914 08fe 00000000 		.4byte	0
 7915              	.LLST46:
 7916 0902 00000000 		.4byte	.LVL216
 7917 0906 05000000 		.4byte	.LVL217-1
ARM GAS  C:\Users\TERENC~1\AppData\Local\Temp\ccNQUuJb.s 			page 158


 7918 090a 0100     		.2byte	0x1
 7919 090c 50       		.byte	0x50
 7920 090d 05000000 		.4byte	.LVL217-1
 7921 0911 34000000 		.4byte	.LFE16
 7922 0915 0400     		.2byte	0x4
 7923 0917 F3       		.byte	0xf3
 7924 0918 01       		.uleb128 0x1
 7925 0919 50       		.byte	0x50
 7926 091a 9F       		.byte	0x9f
 7927 091b 00000000 		.4byte	0
 7928 091f 00000000 		.4byte	0
 7929              	.LLST47:
 7930 0923 00000000 		.4byte	.LVL216
 7931 0927 05000000 		.4byte	.LVL217-1
 7932 092b 0100     		.2byte	0x1
 7933 092d 51       		.byte	0x51
 7934 092e 05000000 		.4byte	.LVL217-1
 7935 0932 34000000 		.4byte	.LFE16
 7936 0936 0400     		.2byte	0x4
 7937 0938 F3       		.byte	0xf3
 7938 0939 01       		.uleb128 0x1
 7939 093a 51       		.byte	0x51
 7940 093b 9F       		.byte	0x9f
 7941 093c 00000000 		.4byte	0
 7942 0940 00000000 		.4byte	0
 7943              	.LLST48:
 7944 0944 00000000 		.4byte	.LVL222
 7945 0948 05000000 		.4byte	.LVL223-1
 7946 094c 0100     		.2byte	0x1
 7947 094e 50       		.byte	0x50
 7948 094f 05000000 		.4byte	.LVL223-1
 7949 0953 34000000 		.4byte	.LFE17
 7950 0957 0400     		.2byte	0x4
 7951 0959 F3       		.byte	0xf3
 7952 095a 01       		.uleb128 0x1
 7953 095b 50       		.byte	0x50
 7954 095c 9F       		.byte	0x9f
 7955 095d 00000000 		.4byte	0
 7956 0961 00000000 		.4byte	0
 7957              	.LLST49:
 7958 0965 00000000 		.4byte	.LVL222
 7959 0969 05000000 		.4byte	.LVL223-1
 7960 096d 0100     		.2byte	0x1
 7961 096f 51       		.byte	0x51
 7962 0970 05000000 		.4byte	.LVL223-1
 7963 0974 34000000 		.4byte	.LFE17
 7964 0978 0400     		.2byte	0x4
 7965 097a F3       		.byte	0xf3
 7966 097b 01       		.uleb128 0x1
 7967 097c 51       		.byte	0x51
 7968 097d 9F       		.byte	0x9f
 7969 097e 00000000 		.4byte	0
 7970 0982 00000000 		.4byte	0
 7971              	.LLST50:
 7972 0986 00000000 		.4byte	.LVL228
 7973 098a 05000000 		.4byte	.LVL229-1
 7974 098e 0100     		.2byte	0x1
ARM GAS  C:\Users\TERENC~1\AppData\Local\Temp\ccNQUuJb.s 			page 159


 7975 0990 50       		.byte	0x50
 7976 0991 05000000 		.4byte	.LVL229-1
 7977 0995 34000000 		.4byte	.LFE20
 7978 0999 0400     		.2byte	0x4
 7979 099b F3       		.byte	0xf3
 7980 099c 01       		.uleb128 0x1
 7981 099d 50       		.byte	0x50
 7982 099e 9F       		.byte	0x9f
 7983 099f 00000000 		.4byte	0
 7984 09a3 00000000 		.4byte	0
 7985              	.LLST51:
 7986 09a7 00000000 		.4byte	.LVL228
 7987 09ab 05000000 		.4byte	.LVL229-1
 7988 09af 0100     		.2byte	0x1
 7989 09b1 51       		.byte	0x51
 7990 09b2 05000000 		.4byte	.LVL229-1
 7991 09b6 34000000 		.4byte	.LFE20
 7992 09ba 0400     		.2byte	0x4
 7993 09bc F3       		.byte	0xf3
 7994 09bd 01       		.uleb128 0x1
 7995 09be 51       		.byte	0x51
 7996 09bf 9F       		.byte	0x9f
 7997 09c0 00000000 		.4byte	0
 7998 09c4 00000000 		.4byte	0
 7999              	.LLST52:
 8000 09c8 00000000 		.4byte	.LVL234
 8001 09cc 36000000 		.4byte	.LVL239
 8002 09d0 0100     		.2byte	0x1
 8003 09d2 50       		.byte	0x50
 8004 09d3 36000000 		.4byte	.LVL239
 8005 09d7 3C000000 		.4byte	.LVL242
 8006 09db 0100     		.2byte	0x1
 8007 09dd 50       		.byte	0x50
 8008 09de 00000000 		.4byte	0
 8009 09e2 00000000 		.4byte	0
 8010              	.LLST53:
 8011 09e6 00000000 		.4byte	.LVL234
 8012 09ea 38000000 		.4byte	.LVL240
 8013 09ee 0100     		.2byte	0x1
 8014 09f0 51       		.byte	0x51
 8015 09f1 38000000 		.4byte	.LVL240
 8016 09f5 44000000 		.4byte	.LFE2
 8017 09f9 0100     		.2byte	0x1
 8018 09fb 51       		.byte	0x51
 8019 09fc 00000000 		.4byte	0
 8020 0a00 00000000 		.4byte	0
 8021              	.LLST54:
 8022 0a04 04000000 		.4byte	.LVL235
 8023 0a08 3C000000 		.4byte	.LVL243
 8024 0a0c 0100     		.2byte	0x1
 8025 0a0e 55       		.byte	0x55
 8026 0a0f 00000000 		.4byte	0
 8027 0a13 00000000 		.4byte	0
 8028              	.LLST55:
 8029 0a17 1E000000 		.4byte	.LVL236
 8030 0a1b 2C000000 		.4byte	.LVL237
 8031 0a1f 0100     		.2byte	0x1
ARM GAS  C:\Users\TERENC~1\AppData\Local\Temp\ccNQUuJb.s 			page 160


 8032 0a21 53       		.byte	0x53
 8033 0a22 2C000000 		.4byte	.LVL237
 8034 0a26 38000000 		.4byte	.LVL240
 8035 0a2a 0200     		.2byte	0x2
 8036 0a2c 71       		.byte	0x71
 8037 0a2d 00       		.sleb128 0
 8038 0a2e 38000000 		.4byte	.LVL240
 8039 0a32 3A000000 		.4byte	.LVL241
 8040 0a36 0200     		.2byte	0x2
 8041 0a38 71       		.byte	0x71
 8042 0a39 7F       		.sleb128 -1
 8043 0a3a 3A000000 		.4byte	.LVL241
 8044 0a3e 44000000 		.4byte	.LFE2
 8045 0a42 0200     		.2byte	0x2
 8046 0a44 71       		.byte	0x71
 8047 0a45 00       		.sleb128 0
 8048 0a46 00000000 		.4byte	0
 8049 0a4a 00000000 		.4byte	0
 8050              	.LLST56:
 8051 0a4e 00000000 		.4byte	.LVL244
 8052 0a52 04000000 		.4byte	.LVL245
 8053 0a56 0100     		.2byte	0x1
 8054 0a58 50       		.byte	0x50
 8055 0a59 04000000 		.4byte	.LVL245
 8056 0a5d 0B000000 		.4byte	.LVL246-1
 8057 0a61 0300     		.2byte	0x3
 8058 0a63 70       		.byte	0x70
 8059 0a64 7E       		.sleb128 -2
 8060 0a65 9F       		.byte	0x9f
 8061 0a66 0B000000 		.4byte	.LVL246-1
 8062 0a6a 30000000 		.4byte	.LVL251
 8063 0a6e 0600     		.2byte	0x6
 8064 0a70 F3       		.byte	0xf3
 8065 0a71 01       		.uleb128 0x1
 8066 0a72 50       		.byte	0x50
 8067 0a73 32       		.byte	0x32
 8068 0a74 1C       		.byte	0x1c
 8069 0a75 9F       		.byte	0x9f
 8070 0a76 30000000 		.4byte	.LVL251
 8071 0a7a 32000000 		.4byte	.LVL252
 8072 0a7e 0300     		.2byte	0x3
 8073 0a80 70       		.byte	0x70
 8074 0a81 7E       		.sleb128 -2
 8075 0a82 9F       		.byte	0x9f
 8076 0a83 32000000 		.4byte	.LVL252
 8077 0a87 A0000000 		.4byte	.LFE10
 8078 0a8b 0600     		.2byte	0x6
 8079 0a8d F3       		.byte	0xf3
 8080 0a8e 01       		.uleb128 0x1
 8081 0a8f 50       		.byte	0x50
 8082 0a90 32       		.byte	0x32
 8083 0a91 1C       		.byte	0x1c
 8084 0a92 9F       		.byte	0x9f
 8085 0a93 00000000 		.4byte	0
 8086 0a97 00000000 		.4byte	0
 8087              	.LLST57:
 8088 0a9b 00000000 		.4byte	.LVL244
ARM GAS  C:\Users\TERENC~1\AppData\Local\Temp\ccNQUuJb.s 			page 161


 8089 0a9f 0B000000 		.4byte	.LVL246-1
 8090 0aa3 0100     		.2byte	0x1
 8091 0aa5 51       		.byte	0x51
 8092 0aa6 0B000000 		.4byte	.LVL246-1
 8093 0aaa 1A000000 		.4byte	.LVL248
 8094 0aae 0100     		.2byte	0x1
 8095 0ab0 54       		.byte	0x54
 8096 0ab1 1A000000 		.4byte	.LVL248
 8097 0ab5 30000000 		.4byte	.LVL251
 8098 0ab9 0400     		.2byte	0x4
 8099 0abb F3       		.byte	0xf3
 8100 0abc 01       		.uleb128 0x1
 8101 0abd 51       		.byte	0x51
 8102 0abe 9F       		.byte	0x9f
 8103 0abf 30000000 		.4byte	.LVL251
 8104 0ac3 35000000 		.4byte	.LVL253-1
 8105 0ac7 0100     		.2byte	0x1
 8106 0ac9 51       		.byte	0x51
 8107 0aca 35000000 		.4byte	.LVL253-1
 8108 0ace 72000000 		.4byte	.LVL262
 8109 0ad2 0100     		.2byte	0x1
 8110 0ad4 54       		.byte	0x54
 8111 0ad5 72000000 		.4byte	.LVL262
 8112 0ad9 84000000 		.4byte	.LVL265
 8113 0add 0400     		.2byte	0x4
 8114 0adf F3       		.byte	0xf3
 8115 0ae0 01       		.uleb128 0x1
 8116 0ae1 51       		.byte	0x51
 8117 0ae2 9F       		.byte	0x9f
 8118 0ae3 84000000 		.4byte	.LVL265
 8119 0ae7 8C000000 		.4byte	.LVL267
 8120 0aeb 0100     		.2byte	0x1
 8121 0aed 54       		.byte	0x54
 8122 0aee 8C000000 		.4byte	.LVL267
 8123 0af2 A0000000 		.4byte	.LFE10
 8124 0af6 0400     		.2byte	0x4
 8125 0af8 F3       		.byte	0xf3
 8126 0af9 01       		.uleb128 0x1
 8127 0afa 51       		.byte	0x51
 8128 0afb 9F       		.byte	0x9f
 8129 0afc 00000000 		.4byte	0
 8130 0b00 00000000 		.4byte	0
 8131              	.LLST58:
 8132 0b04 38000000 		.4byte	.LVL254
 8133 0b08 84000000 		.4byte	.LVL265
 8134 0b0c 0100     		.2byte	0x1
 8135 0b0e 55       		.byte	0x55
 8136 0b0f 8A000000 		.4byte	.LVL266
 8137 0b13 8C000000 		.4byte	.LVL267
 8138 0b17 0100     		.2byte	0x1
 8139 0b19 55       		.byte	0x55
 8140 0b1a 00000000 		.4byte	0
 8141 0b1e 00000000 		.4byte	0
 8142              	.LLST59:
 8143 0b22 44000000 		.4byte	.LVL256
 8144 0b26 84000000 		.4byte	.LVL265
 8145 0b2a 0100     		.2byte	0x1
ARM GAS  C:\Users\TERENC~1\AppData\Local\Temp\ccNQUuJb.s 			page 162


 8146 0b2c 56       		.byte	0x56
 8147 0b2d 8A000000 		.4byte	.LVL266
 8148 0b31 8C000000 		.4byte	.LVL267
 8149 0b35 0100     		.2byte	0x1
 8150 0b37 56       		.byte	0x56
 8151 0b38 00000000 		.4byte	0
 8152 0b3c 00000000 		.4byte	0
 8153              	.LLST60:
 8154 0b40 00000000 		.4byte	.LVL268
 8155 0b44 04000000 		.4byte	.LVL269
 8156 0b48 0100     		.2byte	0x1
 8157 0b4a 50       		.byte	0x50
 8158 0b4b 04000000 		.4byte	.LVL269
 8159 0b4f 0B000000 		.4byte	.LVL270-1
 8160 0b53 0300     		.2byte	0x3
 8161 0b55 70       		.byte	0x70
 8162 0b56 7E       		.sleb128 -2
 8163 0b57 9F       		.byte	0x9f
 8164 0b58 0B000000 		.4byte	.LVL270-1
 8165 0b5c 30000000 		.4byte	.LVL274
 8166 0b60 0600     		.2byte	0x6
 8167 0b62 F3       		.byte	0xf3
 8168 0b63 01       		.uleb128 0x1
 8169 0b64 50       		.byte	0x50
 8170 0b65 32       		.byte	0x32
 8171 0b66 1C       		.byte	0x1c
 8172 0b67 9F       		.byte	0x9f
 8173 0b68 30000000 		.4byte	.LVL274
 8174 0b6c 36000000 		.4byte	.LVL276
 8175 0b70 0300     		.2byte	0x3
 8176 0b72 70       		.byte	0x70
 8177 0b73 7E       		.sleb128 -2
 8178 0b74 9F       		.byte	0x9f
 8179 0b75 36000000 		.4byte	.LVL276
 8180 0b79 A8000000 		.4byte	.LFE19
 8181 0b7d 0600     		.2byte	0x6
 8182 0b7f F3       		.byte	0xf3
 8183 0b80 01       		.uleb128 0x1
 8184 0b81 50       		.byte	0x50
 8185 0b82 32       		.byte	0x32
 8186 0b83 1C       		.byte	0x1c
 8187 0b84 9F       		.byte	0x9f
 8188 0b85 00000000 		.4byte	0
 8189 0b89 00000000 		.4byte	0
 8190              	.LLST61:
 8191 0b8d 00000000 		.4byte	.LVL268
 8192 0b91 0B000000 		.4byte	.LVL270-1
 8193 0b95 0100     		.2byte	0x1
 8194 0b97 51       		.byte	0x51
 8195 0b98 0B000000 		.4byte	.LVL270-1
 8196 0b9c 30000000 		.4byte	.LVL274
 8197 0ba0 0100     		.2byte	0x1
 8198 0ba2 55       		.byte	0x55
 8199 0ba3 30000000 		.4byte	.LVL274
 8200 0ba7 34000000 		.4byte	.LVL275
 8201 0bab 0100     		.2byte	0x1
 8202 0bad 51       		.byte	0x51
ARM GAS  C:\Users\TERENC~1\AppData\Local\Temp\ccNQUuJb.s 			page 163


 8203 0bae 34000000 		.4byte	.LVL275
 8204 0bb2 8E000000 		.4byte	.LVL290
 8205 0bb6 0100     		.2byte	0x1
 8206 0bb8 55       		.byte	0x55
 8207 0bb9 8E000000 		.4byte	.LVL290
 8208 0bbd A8000000 		.4byte	.LFE19
 8209 0bc1 0400     		.2byte	0x4
 8210 0bc3 F3       		.byte	0xf3
 8211 0bc4 01       		.uleb128 0x1
 8212 0bc5 51       		.byte	0x51
 8213 0bc6 9F       		.byte	0x9f
 8214 0bc7 00000000 		.4byte	0
 8215 0bcb 00000000 		.4byte	0
 8216              	.LLST62:
 8217 0bcf 04000000 		.4byte	.LVL269
 8218 0bd3 42000000 		.4byte	.LVL278
 8219 0bd7 0200     		.2byte	0x2
 8220 0bd9 32       		.byte	0x32
 8221 0bda 9F       		.byte	0x9f
 8222 0bdb 42000000 		.4byte	.LVL278
 8223 0bdf 4C000000 		.4byte	.LVL280
 8224 0be3 0200     		.2byte	0x2
 8225 0be5 33       		.byte	0x33
 8226 0be6 9F       		.byte	0x9f
 8227 0be7 4C000000 		.4byte	.LVL280
 8228 0beb 5C000000 		.4byte	.LVL282
 8229 0bef 0200     		.2byte	0x2
 8230 0bf1 32       		.byte	0x32
 8231 0bf2 9F       		.byte	0x9f
 8232 0bf3 5C000000 		.4byte	.LVL282
 8233 0bf7 66000000 		.4byte	.LVL284
 8234 0bfb 0200     		.2byte	0x2
 8235 0bfd 33       		.byte	0x33
 8236 0bfe 9F       		.byte	0x9f
 8237 0bff 66000000 		.4byte	.LVL284
 8238 0c03 76000000 		.4byte	.LVL286
 8239 0c07 0200     		.2byte	0x2
 8240 0c09 32       		.byte	0x32
 8241 0c0a 9F       		.byte	0x9f
 8242 0c0b 76000000 		.4byte	.LVL286
 8243 0c0f 84000000 		.4byte	.LVL288
 8244 0c13 0200     		.2byte	0x2
 8245 0c15 33       		.byte	0x33
 8246 0c16 9F       		.byte	0x9f
 8247 0c17 84000000 		.4byte	.LVL288
 8248 0c1b 8C000000 		.4byte	.LVL289
 8249 0c1f 0200     		.2byte	0x2
 8250 0c21 32       		.byte	0x32
 8251 0c22 9F       		.byte	0x9f
 8252 0c23 00000000 		.4byte	0
 8253 0c27 00000000 		.4byte	0
 8254              	.LLST63:
 8255 0c2b 0E000000 		.4byte	.LVL291
 8256 0c2f 98000000 		.4byte	.LVL303
 8257 0c33 0300     		.2byte	0x3
 8258 0c35 09       		.byte	0x9
 8259 0c36 FF       		.byte	0xff
ARM GAS  C:\Users\TERENC~1\AppData\Local\Temp\ccNQUuJb.s 			page 164


 8260 0c37 9F       		.byte	0x9f
 8261 0c38 98000000 		.4byte	.LVL303
 8262 0c3c C0000000 		.4byte	.LVL307
 8263 0c40 0300     		.2byte	0x3
 8264 0c42 91       		.byte	0x91
 8265 0c43 AC7F     		.sleb128 -84
 8266 0c45 C0000000 		.4byte	.LVL307
 8267 0c49 C6000000 		.4byte	.LVL308
 8268 0c4d 0100     		.2byte	0x1
 8269 0c4f 50       		.byte	0x50
 8270 0c50 C6000000 		.4byte	.LVL308
 8271 0c54 E0010000 		.4byte	.LVL337
 8272 0c58 0300     		.2byte	0x3
 8273 0c5a 91       		.byte	0x91
 8274 0c5b AC7F     		.sleb128 -84
 8275 0c5d E0010000 		.4byte	.LVL337
 8276 0c61 EE010000 		.4byte	.LVL339
 8277 0c65 0300     		.2byte	0x3
 8278 0c67 09       		.byte	0x9
 8279 0c68 FF       		.byte	0xff
 8280 0c69 9F       		.byte	0x9f
 8281 0c6a EE010000 		.4byte	.LVL339
 8282 0c6e 30020000 		.4byte	.LVL345
 8283 0c72 0300     		.2byte	0x3
 8284 0c74 91       		.byte	0x91
 8285 0c75 AC7F     		.sleb128 -84
 8286 0c77 30020000 		.4byte	.LVL345
 8287 0c7b 36020000 		.4byte	.LVL346
 8288 0c7f 0300     		.2byte	0x3
 8289 0c81 09       		.byte	0x9
 8290 0c82 FF       		.byte	0xff
 8291 0c83 9F       		.byte	0x9f
 8292 0c84 36020000 		.4byte	.LVL346
 8293 0c88 3C020000 		.4byte	.LVL347
 8294 0c8c 0300     		.2byte	0x3
 8295 0c8e 91       		.byte	0x91
 8296 0c8f AC7F     		.sleb128 -84
 8297 0c91 00000000 		.4byte	0
 8298 0c95 00000000 		.4byte	0
 8299              	.LLST64:
 8300 0c99 0E000000 		.4byte	.LVL291
 8301 0c9d 16000000 		.4byte	.LVL292
 8302 0ca1 0600     		.2byte	0x6
 8303 0ca3 03       		.byte	0x3
 8304 0ca4 00000000 		.4byte	cmd_buf
 8305 0ca8 9F       		.byte	0x9f
 8306 0ca9 16000000 		.4byte	.LVL292
 8307 0cad 5F000000 		.4byte	.LVL296-1
 8308 0cb1 0100     		.2byte	0x1
 8309 0cb3 52       		.byte	0x52
 8310 0cb4 86000000 		.4byte	.LVL300
 8311 0cb8 98000000 		.4byte	.LVL303
 8312 0cbc 0100     		.2byte	0x1
 8313 0cbe 52       		.byte	0x52
 8314 0cbf E0010000 		.4byte	.LVL337
 8315 0cc3 EE010000 		.4byte	.LVL339
 8316 0cc7 0100     		.2byte	0x1
ARM GAS  C:\Users\TERENC~1\AppData\Local\Temp\ccNQUuJb.s 			page 165


 8317 0cc9 52       		.byte	0x52
 8318 0cca 00000000 		.4byte	0
 8319 0cce 00000000 		.4byte	0
 8320              	.LLST65:
 8321 0cd2 0E000000 		.4byte	.LVL291
 8322 0cd6 98000000 		.4byte	.LVL303
 8323 0cda 0200     		.2byte	0x2
 8324 0cdc 30       		.byte	0x30
 8325 0cdd 9F       		.byte	0x9f
 8326 0cde 98000000 		.4byte	.LVL303
 8327 0ce2 C0000000 		.4byte	.LVL307
 8328 0ce6 0100     		.2byte	0x1
 8329 0ce8 5A       		.byte	0x5a
 8330 0ce9 C0000000 		.4byte	.LVL307
 8331 0ced C6000000 		.4byte	.LVL308
 8332 0cf1 0200     		.2byte	0x2
 8333 0cf3 31       		.byte	0x31
 8334 0cf4 9F       		.byte	0x9f
 8335 0cf5 C6000000 		.4byte	.LVL308
 8336 0cf9 D2000000 		.4byte	.LVL310
 8337 0cfd 0100     		.2byte	0x1
 8338 0cff 5A       		.byte	0x5a
 8339 0d00 D2000000 		.4byte	.LVL310
 8340 0d04 3A010000 		.4byte	.LVL320
 8341 0d08 0200     		.2byte	0x2
 8342 0d0a 31       		.byte	0x31
 8343 0d0b 9F       		.byte	0x9f
 8344 0d0c 3A010000 		.4byte	.LVL320
 8345 0d10 70010000 		.4byte	.LVL324
 8346 0d14 0100     		.2byte	0x1
 8347 0d16 5A       		.byte	0x5a
 8348 0d17 70010000 		.4byte	.LVL324
 8349 0d1b DC010000 		.4byte	.LVL335
 8350 0d1f 0200     		.2byte	0x2
 8351 0d21 31       		.byte	0x31
 8352 0d22 9F       		.byte	0x9f
 8353 0d23 DC010000 		.4byte	.LVL335
 8354 0d27 E0010000 		.4byte	.LVL337
 8355 0d2b 0100     		.2byte	0x1
 8356 0d2d 5A       		.byte	0x5a
 8357 0d2e E0010000 		.4byte	.LVL337
 8358 0d32 EE010000 		.4byte	.LVL339
 8359 0d36 0200     		.2byte	0x2
 8360 0d38 30       		.byte	0x30
 8361 0d39 9F       		.byte	0x9f
 8362 0d3a EE010000 		.4byte	.LVL339
 8363 0d3e 30020000 		.4byte	.LVL345
 8364 0d42 0100     		.2byte	0x1
 8365 0d44 5A       		.byte	0x5a
 8366 0d45 30020000 		.4byte	.LVL345
 8367 0d49 36020000 		.4byte	.LVL346
 8368 0d4d 0200     		.2byte	0x2
 8369 0d4f 30       		.byte	0x30
 8370 0d50 9F       		.byte	0x9f
 8371 0d51 36020000 		.4byte	.LVL346
 8372 0d55 3C020000 		.4byte	.LVL347
 8373 0d59 0100     		.2byte	0x1
ARM GAS  C:\Users\TERENC~1\AppData\Local\Temp\ccNQUuJb.s 			page 166


 8374 0d5b 5A       		.byte	0x5a
 8375 0d5c 00000000 		.4byte	0
 8376 0d60 00000000 		.4byte	0
 8377              	.LLST66:
 8378 0d64 0E000000 		.4byte	.LVL291
 8379 0d68 16000000 		.4byte	.LVL292
 8380 0d6c 0200     		.2byte	0x2
 8381 0d6e 30       		.byte	0x30
 8382 0d6f 9F       		.byte	0x9f
 8383 0d70 16000000 		.4byte	.LVL292
 8384 0d74 8E000000 		.4byte	.LVL301
 8385 0d78 0100     		.2byte	0x1
 8386 0d7a 59       		.byte	0x59
 8387 0d7b 8E000000 		.4byte	.LVL301
 8388 0d7f 90000000 		.4byte	.LVL302
 8389 0d83 0100     		.2byte	0x1
 8390 0d85 53       		.byte	0x53
 8391 0d86 90000000 		.4byte	.LVL302
 8392 0d8a E0010000 		.4byte	.LVL337
 8393 0d8e 0100     		.2byte	0x1
 8394 0d90 59       		.byte	0x59
 8395 0d91 E0010000 		.4byte	.LVL337
 8396 0d95 E2010000 		.4byte	.LVL338
 8397 0d99 0100     		.2byte	0x1
 8398 0d9b 53       		.byte	0x53
 8399 0d9c E2010000 		.4byte	.LVL338
 8400 0da0 3E020000 		.4byte	.LVL348
 8401 0da4 0100     		.2byte	0x1
 8402 0da6 59       		.byte	0x59
 8403 0da7 00000000 		.4byte	0
 8404 0dab 00000000 		.4byte	0
 8405              	.LLST67:
 8406 0daf 0E000000 		.4byte	.LVL291
 8407 0db3 98000000 		.4byte	.LVL303
 8408 0db7 0200     		.2byte	0x2
 8409 0db9 30       		.byte	0x30
 8410 0dba 9F       		.byte	0x9f
 8411 0dbb 98000000 		.4byte	.LVL303
 8412 0dbf 94010000 		.4byte	.LVL329
 8413 0dc3 0100     		.2byte	0x1
 8414 0dc5 56       		.byte	0x56
 8415 0dc6 DC010000 		.4byte	.LVL335
 8416 0dca E0010000 		.4byte	.LVL337
 8417 0dce 0100     		.2byte	0x1
 8418 0dd0 56       		.byte	0x56
 8419 0dd1 E0010000 		.4byte	.LVL337
 8420 0dd5 EE010000 		.4byte	.LVL339
 8421 0dd9 0200     		.2byte	0x2
 8422 0ddb 30       		.byte	0x30
 8423 0ddc 9F       		.byte	0x9f
 8424 0ddd EE010000 		.4byte	.LVL339
 8425 0de1 04020000 		.4byte	.LVL340
 8426 0de5 0100     		.2byte	0x1
 8427 0de7 56       		.byte	0x56
 8428 0de8 30020000 		.4byte	.LVL345
 8429 0dec 36020000 		.4byte	.LVL346
 8430 0df0 0200     		.2byte	0x2
ARM GAS  C:\Users\TERENC~1\AppData\Local\Temp\ccNQUuJb.s 			page 167


 8431 0df2 30       		.byte	0x30
 8432 0df3 9F       		.byte	0x9f
 8433 0df4 00000000 		.4byte	0
 8434 0df8 00000000 		.4byte	0
 8435              	.LLST68:
 8436 0dfc 0E000000 		.4byte	.LVL291
 8437 0e00 98000000 		.4byte	.LVL303
 8438 0e04 0200     		.2byte	0x2
 8439 0e06 30       		.byte	0x30
 8440 0e07 9F       		.byte	0x9f
 8441 0e08 98000000 		.4byte	.LVL303
 8442 0e0c E0010000 		.4byte	.LVL337
 8443 0e10 0100     		.2byte	0x1
 8444 0e12 54       		.byte	0x54
 8445 0e13 E0010000 		.4byte	.LVL337
 8446 0e17 EE010000 		.4byte	.LVL339
 8447 0e1b 0200     		.2byte	0x2
 8448 0e1d 30       		.byte	0x30
 8449 0e1e 9F       		.byte	0x9f
 8450 0e1f EE010000 		.4byte	.LVL339
 8451 0e23 04020000 		.4byte	.LVL340
 8452 0e27 0100     		.2byte	0x1
 8453 0e29 54       		.byte	0x54
 8454 0e2a 30020000 		.4byte	.LVL345
 8455 0e2e 36020000 		.4byte	.LVL346
 8456 0e32 0200     		.2byte	0x2
 8457 0e34 30       		.byte	0x30
 8458 0e35 9F       		.byte	0x9f
 8459 0e36 00000000 		.4byte	0
 8460 0e3a 00000000 		.4byte	0
 8461              	.LLST69:
 8462 0e3e 0E000000 		.4byte	.LVL291
 8463 0e42 98000000 		.4byte	.LVL303
 8464 0e46 0200     		.2byte	0x2
 8465 0e48 30       		.byte	0x30
 8466 0e49 9F       		.byte	0x9f
 8467 0e4a 98000000 		.4byte	.LVL303
 8468 0e4e E0010000 		.4byte	.LVL337
 8469 0e52 0100     		.2byte	0x1
 8470 0e54 58       		.byte	0x58
 8471 0e55 E0010000 		.4byte	.LVL337
 8472 0e59 EE010000 		.4byte	.LVL339
 8473 0e5d 0200     		.2byte	0x2
 8474 0e5f 30       		.byte	0x30
 8475 0e60 9F       		.byte	0x9f
 8476 0e61 EE010000 		.4byte	.LVL339
 8477 0e65 04020000 		.4byte	.LVL340
 8478 0e69 0100     		.2byte	0x1
 8479 0e6b 58       		.byte	0x58
 8480 0e6c 30020000 		.4byte	.LVL345
 8481 0e70 36020000 		.4byte	.LVL346
 8482 0e74 0200     		.2byte	0x2
 8483 0e76 30       		.byte	0x30
 8484 0e77 9F       		.byte	0x9f
 8485 0e78 00000000 		.4byte	0
 8486 0e7c 00000000 		.4byte	0
 8487              	.LLST70:
ARM GAS  C:\Users\TERENC~1\AppData\Local\Temp\ccNQUuJb.s 			page 168


 8488 0e80 10000000 		.4byte	.LVL353
 8489 0e84 70000000 		.4byte	.LVL363
 8490 0e88 0100     		.2byte	0x1
 8491 0e8a 54       		.byte	0x54
 8492 0e8b 8C000000 		.4byte	.LVL366
 8493 0e8f B4000000 		.4byte	.LVL369
 8494 0e93 0100     		.2byte	0x1
 8495 0e95 54       		.byte	0x54
 8496 0e96 C6000000 		.4byte	.LVL372
 8497 0e9a FA000000 		.4byte	.LVL377
 8498 0e9e 0100     		.2byte	0x1
 8499 0ea0 54       		.byte	0x54
 8500 0ea1 FE000000 		.4byte	.LVL378
 8501 0ea5 0A010000 		.4byte	.LVL379
 8502 0ea9 0100     		.2byte	0x1
 8503 0eab 54       		.byte	0x54
 8504 0eac 0A010000 		.4byte	.LVL379
 8505 0eb0 0A010000 		.4byte	.LVL380
 8506 0eb4 0800     		.2byte	0x8
 8507 0eb6 91       		.byte	0x91
 8508 0eb7 00       		.sleb128 0
 8509 0eb8 75       		.byte	0x75
 8510 0eb9 00       		.sleb128 0
 8511 0eba 22       		.byte	0x22
 8512 0ebb 08       		.byte	0x8
 8513 0ebc 58       		.byte	0x58
 8514 0ebd 1C       		.byte	0x1c
 8515 0ebe 00000000 		.4byte	0
 8516 0ec2 00000000 		.4byte	0
 8517              	.LLST71:
 8518 0ec6 04000000 		.4byte	.LVL350
 8519 0eca 10000000 		.4byte	.LVL353
 8520 0ece 0200     		.2byte	0x2
 8521 0ed0 30       		.byte	0x30
 8522 0ed1 9F       		.byte	0x9f
 8523 0ed2 10000000 		.4byte	.LVL353
 8524 0ed6 12000000 		.4byte	.LVL354
 8525 0eda 0100     		.2byte	0x1
 8526 0edc 55       		.byte	0x55
 8527 0edd 14000000 		.4byte	.LVL355
 8528 0ee1 0A010000 		.4byte	.LVL380
 8529 0ee5 0100     		.2byte	0x1
 8530 0ee7 55       		.byte	0x55
 8531 0ee8 00000000 		.4byte	0
 8532 0eec 00000000 		.4byte	0
 8533              	.LLST72:
 8534 0ef0 0C000000 		.4byte	.LVL352
 8535 0ef4 10000000 		.4byte	.LVL353
 8536 0ef8 0100     		.2byte	0x1
 8537 0efa 50       		.byte	0x50
 8538 0efb 10000000 		.4byte	.LVL353
 8539 0eff 0A010000 		.4byte	.LVL381
 8540 0f03 0100     		.2byte	0x1
 8541 0f05 56       		.byte	0x56
 8542 0f06 00000000 		.4byte	0
 8543 0f0a 00000000 		.4byte	0
 8544              		.section	.debug_aranges,"",%progbits
ARM GAS  C:\Users\TERENC~1\AppData\Local\Temp\ccNQUuJb.s 			page 169


 8545 0000 C4000000 		.4byte	0xc4
 8546 0004 0200     		.2byte	0x2
 8547 0006 00000000 		.4byte	.Ldebug_info0
 8548 000a 04       		.byte	0x4
 8549 000b 00       		.byte	0
 8550 000c 0000     		.2byte	0
 8551 000e 0000     		.2byte	0
 8552 0010 00000000 		.4byte	.LFB11
 8553 0014 34000000 		.4byte	.LFE11-.LFB11
 8554 0018 00000000 		.4byte	.LFB4
 8555 001c 74000000 		.4byte	.LFE4-.LFB4
 8556 0020 00000000 		.4byte	.LFB15
 8557 0024 78000000 		.4byte	.LFE15-.LFB15
 8558 0028 00000000 		.4byte	.LFB3
 8559 002c C4000000 		.4byte	.LFE3-.LFB3
 8560 0030 00000000 		.4byte	.LFB5
 8561 0034 8C000000 		.4byte	.LFE5-.LFB5
 8562 0038 00000000 		.4byte	.LFB12
 8563 003c 38000000 		.4byte	.LFE12-.LFB12
 8564 0040 00000000 		.4byte	.LFB14
 8565 0044 3C000000 		.4byte	.LFE14-.LFB14
 8566 0048 00000000 		.4byte	.LFB18
 8567 004c 8C010000 		.4byte	.LFE18-.LFB18
 8568 0050 00000000 		.4byte	.LFB6
 8569 0054 AC000000 		.4byte	.LFE6-.LFB6
 8570 0058 00000000 		.4byte	.LFB7
 8571 005c 34000000 		.4byte	.LFE7-.LFB7
 8572 0060 00000000 		.4byte	.LFB8
 8573 0064 BC000000 		.4byte	.LFE8-.LFB8
 8574 0068 00000000 		.4byte	.LFB9
 8575 006c 78000000 		.4byte	.LFE9-.LFB9
 8576 0070 00000000 		.4byte	.LFB13
 8577 0074 0A000000 		.4byte	.LFE13-.LFB13
 8578 0078 00000000 		.4byte	.LFB16
 8579 007c 34000000 		.4byte	.LFE16-.LFB16
 8580 0080 00000000 		.4byte	.LFB17
 8581 0084 34000000 		.4byte	.LFE17-.LFB17
 8582 0088 00000000 		.4byte	.LFB20
 8583 008c 34000000 		.4byte	.LFE20-.LFB20
 8584 0090 00000000 		.4byte	.LFB2
 8585 0094 44000000 		.4byte	.LFE2-.LFB2
 8586 0098 00000000 		.4byte	.LFB10
 8587 009c A0000000 		.4byte	.LFE10-.LFB10
 8588 00a0 00000000 		.4byte	.LFB19
 8589 00a4 A8000000 		.4byte	.LFE19-.LFB19
 8590 00a8 00000000 		.4byte	.LFB21
 8591 00ac 78020000 		.4byte	.LFE21-.LFB21
 8592 00b0 00000000 		.4byte	.LFB22
 8593 00b4 1C000000 		.4byte	.LFE22-.LFB22
 8594 00b8 00000000 		.4byte	.LFB23
 8595 00bc 20010000 		.4byte	.LFE23-.LFB23
 8596 00c0 00000000 		.4byte	0
 8597 00c4 00000000 		.4byte	0
 8598              		.section	.debug_ranges,"",%progbits
 8599              	.Ldebug_ranges0:
 8600 0000 00000000 		.4byte	.LFB11
 8601 0004 34000000 		.4byte	.LFE11
ARM GAS  C:\Users\TERENC~1\AppData\Local\Temp\ccNQUuJb.s 			page 170


 8602 0008 00000000 		.4byte	.LFB4
 8603 000c 74000000 		.4byte	.LFE4
 8604 0010 00000000 		.4byte	.LFB15
 8605 0014 78000000 		.4byte	.LFE15
 8606 0018 00000000 		.4byte	.LFB3
 8607 001c C4000000 		.4byte	.LFE3
 8608 0020 00000000 		.4byte	.LFB5
 8609 0024 8C000000 		.4byte	.LFE5
 8610 0028 00000000 		.4byte	.LFB12
 8611 002c 38000000 		.4byte	.LFE12
 8612 0030 00000000 		.4byte	.LFB14
 8613 0034 3C000000 		.4byte	.LFE14
 8614 0038 00000000 		.4byte	.LFB18
 8615 003c 8C010000 		.4byte	.LFE18
 8616 0040 00000000 		.4byte	.LFB6
 8617 0044 AC000000 		.4byte	.LFE6
 8618 0048 00000000 		.4byte	.LFB7
 8619 004c 34000000 		.4byte	.LFE7
 8620 0050 00000000 		.4byte	.LFB8
 8621 0054 BC000000 		.4byte	.LFE8
 8622 0058 00000000 		.4byte	.LFB9
 8623 005c 78000000 		.4byte	.LFE9
 8624 0060 00000000 		.4byte	.LFB13
 8625 0064 0A000000 		.4byte	.LFE13
 8626 0068 00000000 		.4byte	.LFB16
 8627 006c 34000000 		.4byte	.LFE16
 8628 0070 00000000 		.4byte	.LFB17
 8629 0074 34000000 		.4byte	.LFE17
 8630 0078 00000000 		.4byte	.LFB20
 8631 007c 34000000 		.4byte	.LFE20
 8632 0080 00000000 		.4byte	.LFB2
 8633 0084 44000000 		.4byte	.LFE2
 8634 0088 00000000 		.4byte	.LFB10
 8635 008c A0000000 		.4byte	.LFE10
 8636 0090 00000000 		.4byte	.LFB19
 8637 0094 A8000000 		.4byte	.LFE19
 8638 0098 00000000 		.4byte	.LFB21
 8639 009c 78020000 		.4byte	.LFE21
 8640 00a0 00000000 		.4byte	.LFB22
 8641 00a4 1C000000 		.4byte	.LFE22
 8642 00a8 00000000 		.4byte	.LFB23
 8643 00ac 20010000 		.4byte	.LFE23
 8644 00b0 00000000 		.4byte	0
 8645 00b4 00000000 		.4byte	0
 8646              		.section	.debug_line,"",%progbits
 8647              	.Ldebug_line0:
 8648 0000 6D070000 		.section	.debug_str,"MS",%progbits,1
 8648      02006402 
 8648      00000201 
 8648      FB0E0D00 
 8648      01010101 
 8649              	.LASF71:
 8650 0000 636F756E 		.ascii	"count\000"
 8650      7400
 8651              	.LASF19:
 8652 0006 75696E74 		.ascii	"uint16\000"
 8652      313600
ARM GAS  C:\Users\TERENC~1\AppData\Local\Temp\ccNQUuJb.s 			page 171


 8653              	.LASF87:
 8654 000d 67627566 		.ascii	"gbuf\000"
 8654      00
 8655              	.LASF93:
 8656 0012 73707269 		.ascii	"sprintf\000"
 8656      6E746600 
 8657              	.LASF75:
 8658 001a 5F5F746B 		.ascii	"__tk_shell_verbs_wm\000"
 8658      5F736865 
 8658      6C6C5F76 
 8658      65726273 
 8658      5F776D00 
 8659              	.LASF6:
 8660 002e 5F5F7569 		.ascii	"__uint8_t\000"
 8660      6E74385F 
 8660      7400
 8661              	.LASF86:
 8662 0038 746D7243 		.ascii	"tmrCounter_ms\000"
 8662      6F756E74 
 8662      65725F6D 
 8662      7300
 8663              	.LASF26:
 8664 0046 766F6C5F 		.ascii	"vol_ctrl_left\000"
 8664      6374726C 
 8664      5F6C6566 
 8664      7400
 8665              	.LASF79:
 8666 0054 5F5F746B 		.ascii	"__tk_shell_verbs_cal\000"
 8666      5F736865 
 8666      6C6C5F76 
 8666      65726273 
 8666      5F63616C 
 8667              	.LASF9:
 8668 0069 6C6F6E67 		.ascii	"long int\000"
 8668      20696E74 
 8668      00
 8669              	.LASF108:
 8670 0072 474E5520 		.ascii	"GNU C11 5.4.1 20160609 (release) [ARM/embedded-5-br"
 8670      43313120 
 8670      352E342E 
 8670      31203230 
 8670      31363036 
 8671 00a5 616E6368 		.ascii	"anch revision 237715] -mcpu=cortex-m0 -mthumb -g -O"
 8671      20726576 
 8671      6973696F 
 8671      6E203233 
 8671      37373135 
 8672 00d8 67202D66 		.ascii	"g -ffunction-sections -ffat-lto-objects\000"
 8672      66756E63 
 8672      74696F6E 
 8672      2D736563 
 8672      74696F6E 
 8673              	.LASF12:
 8674 0100 6C6F6E67 		.ascii	"long long unsigned int\000"
 8674      206C6F6E 
 8674      6720756E 
 8674      7369676E 
ARM GAS  C:\Users\TERENC~1\AppData\Local\Temp\ccNQUuJb.s 			page 172


 8674      65642069 
 8675              	.LASF100:
 8676 0117 4C656449 		.ascii	"LedInit\000"
 8676      6E697400 
 8677              	.LASF99:
 8678 011f 4379536F 		.ascii	"CySoftwareReset\000"
 8678      66747761 
 8678      72655265 
 8678      73657400 
 8679              	.LASF89:
 8680 012f 55534255 		.ascii	"USBUART_GetConfiguration\000"
 8680      4152545F 
 8680      47657443 
 8680      6F6E6669 
 8680      67757261 
 8681              	.LASF101:
 8682 0148 4C656444 		.ascii	"LedDeInit\000"
 8682      65496E69 
 8682      7400
 8683              	.LASF1:
 8684 0152 6C6F6E67 		.ascii	"long long int\000"
 8684      206C6F6E 
 8684      6720696E 
 8684      7400
 8685              	.LASF3:
 8686 0160 7369676E 		.ascii	"signed char\000"
 8686      65642063 
 8686      68617200 
 8687              	.LASF104:
 8688 016c 70636D31 		.ascii	"pcm1770_reg_read\000"
 8688      3737305F 
 8688      7265675F 
 8688      72656164 
 8688      00
 8689              	.LASF11:
 8690 017d 6C6F6E67 		.ascii	"long unsigned int\000"
 8690      20756E73 
 8690      69676E65 
 8690      6420696E 
 8690      7400
 8691              	.LASF78:
 8692 018f 5F5F746B 		.ascii	"__tk_shell_verbs_led\000"
 8692      5F736865 
 8692      6C6C5F76 
 8692      65726273 
 8692      5F6C6564 
 8693              	.LASF97:
 8694 01a4 436F6465 		.ascii	"Codec_SendData\000"
 8694      635F5365 
 8694      6E644461 
 8694      746100
 8695              	.LASF76:
 8696 01b3 5F5F746B 		.ascii	"__tk_shell_verbs_pcm\000"
 8696      5F736865 
 8696      6C6C5F76 
 8696      65726273 
 8696      5F70636D 
ARM GAS  C:\Users\TERENC~1\AppData\Local\Temp\ccNQUuJb.s 			page 173


 8697              	.LASF94:
 8698 01c8 436F6465 		.ascii	"Codec_AdjustBothHeadphoneVolume\000"
 8698      635F4164 
 8698      6A757374 
 8698      426F7468 
 8698      48656164 
 8699              	.LASF31:
 8700 01e8 6164635F 		.ascii	"adc_max\000"
 8700      6D617800 
 8701              	.LASF27:
 8702 01f0 766F6C5F 		.ascii	"vol_ctrl_both\000"
 8702      6374726C 
 8702      5F626F74 
 8702      6800
 8703              	.LASF90:
 8704 01fe 55534255 		.ascii	"USBUART_CDCIsReady\000"
 8704      4152545F 
 8704      43444349 
 8704      73526561 
 8704      647900
 8705              	.LASF49:
 8706 0211 73746174 		.ascii	"state\000"
 8706      6500
 8707              	.LASF109:
 8708 0217 546B5368 		.ascii	"TkShell.c\000"
 8708      656C6C2E 
 8708      6300
 8709              	.LASF47:
 8710 0221 5F5F746B 		.ascii	"__tk_shell_led_pwm_period\000"
 8710      5F736865 
 8710      6C6C5F6C 
 8710      65645F70 
 8710      776D5F70 
 8711              	.LASF30:
 8712 023b 6164635F 		.ascii	"adc_min\000"
 8712      6D696E00 
 8713              	.LASF105:
 8714 0243 6D656D63 		.ascii	"memcpy\000"
 8714      707900
 8715              	.LASF82:
 8716 024a 636D645F 		.ascii	"cmd_char_count\000"
 8716      63686172 
 8716      5F636F75 
 8716      6E7400
 8717              	.LASF66:
 8718 0259 72657476 		.ascii	"retval\000"
 8718      616C00
 8719              	.LASF16:
 8720 0260 75696E74 		.ascii	"uint16_t\000"
 8720      31365F74 
 8720      00
 8721              	.LASF23:
 8722 0269 646F7562 		.ascii	"double\000"
 8722      6C6500
 8723              	.LASF20:
 8724 0270 75696E74 		.ascii	"uint32\000"
 8724      333200
ARM GAS  C:\Users\TERENC~1\AppData\Local\Temp\ccNQUuJb.s 			page 174


 8725              	.LASF10:
 8726 0277 5F5F7569 		.ascii	"__uint32_t\000"
 8726      6E743332 
 8726      5F7400
 8727              	.LASF28:
 8728 0282 7369676E 		.ascii	"signature\000"
 8728      61747572 
 8728      6500
 8729              	.LASF45:
 8730 028c 706F7274 		.ascii	"port\000"
 8730      00
 8731              	.LASF39:
 8732 0291 76657262 		.ascii	"verbs\000"
 8732      7300
 8733              	.LASF0:
 8734 0297 756E7369 		.ascii	"unsigned int\000"
 8734      676E6564 
 8734      20696E74 
 8734      00
 8735              	.LASF85:
 8736 02a4 63616C5F 		.ascii	"cal_data\000"
 8736      64617461 
 8736      00
 8737              	.LASF48:
 8738 02ad 5F5F746B 		.ascii	"__tk_shell_gpio_set\000"
 8738      5F736865 
 8738      6C6C5F67 
 8738      70696F5F 
 8738      73657400 
 8739              	.LASF102:
 8740 02c1 43616C69 		.ascii	"CalibrationSave\000"
 8740      62726174 
 8740      696F6E53 
 8740      61766500 
 8741              	.LASF103:
 8742 02d1 70636D31 		.ascii	"pcm1770_reg_write\000"
 8742      3737305F 
 8742      7265675F 
 8742      77726974 
 8742      6500
 8743              	.LASF110:
 8744 02e3 433A5C64 		.ascii	"C:\\dev\\git\\icebreaker\\Icebreaker.cydsn\000"
 8744      65765C67 
 8744      69745C69 
 8744      63656272 
 8744      65616B65 
 8745              	.LASF35:
 8746 030a 6E616D65 		.ascii	"name\000"
 8746      00
 8747              	.LASF32:
 8748 030f 6C65645F 		.ascii	"led_max_brightness\000"
 8748      6D61785F 
 8748      62726967 
 8748      68746E65 
 8748      737300
 8749              	.LASF57:
 8750 0322 64617461 		.ascii	"data\000"
ARM GAS  C:\Users\TERENC~1\AppData\Local\Temp\ccNQUuJb.s 			page 175


 8750      00
 8751              	.LASF8:
 8752 0327 73686F72 		.ascii	"short unsigned int\000"
 8752      7420756E 
 8752      7369676E 
 8752      65642069 
 8752      6E7400
 8753              	.LASF65:
 8754 033a 5F5F746B 		.ascii	"__tk_shell_cal_set\000"
 8754      5F736865 
 8754      6C6C5F63 
 8754      616C5F73 
 8754      657400
 8755              	.LASF62:
 8756 034d 5F5F746B 		.ascii	"__tk_shell_cal_save\000"
 8756      5F736865 
 8756      6C6C5F63 
 8756      616C5F73 
 8756      61766500 
 8757              	.LASF107:
 8758 0361 55534255 		.ascii	"USBUART_GetAll\000"
 8758      4152545F 
 8758      47657441 
 8758      6C6C00
 8759              	.LASF64:
 8760 0370 5F5F746B 		.ascii	"__tk_shell_pcm_reg\000"
 8760      5F736865 
 8760      6C6C5F70 
 8760      636D5F72 
 8760      656700
 8761              	.LASF74:
 8762 0383 5F5F746B 		.ascii	"__tk_shell_verbs_gpio\000"
 8762      5F736865 
 8762      6C6C5F76 
 8762      65726273 
 8762      5F677069 
 8763              	.LASF81:
 8764 0399 636D645F 		.ascii	"cmd_buf\000"
 8764      62756600 
 8765              	.LASF44:
 8766 03a1 5F5F746B 		.ascii	"__tk_shell_gpio_config\000"
 8766      5F736865 
 8766      6C6C5F67 
 8766      70696F5F 
 8766      636F6E66 
 8767              	.LASF5:
 8768 03b8 73686F72 		.ascii	"short int\000"
 8768      7420696E 
 8768      7400
 8769              	.LASF52:
 8770 03c2 5F5F746B 		.ascii	"__tk_shell_sys_adc\000"
 8770      5F736865 
 8770      6C6C5F73 
 8770      79735F61 
 8770      646300
 8771              	.LASF111:
 8772 03d5 546B5368 		.ascii	"TkShellProcessCommand\000"
ARM GAS  C:\Users\TERENC~1\AppData\Local\Temp\ccNQUuJb.s 			page 176


 8772      656C6C50 
 8772      726F6365 
 8772      7373436F 
 8772      6D6D616E 
 8773              	.LASF24:
 8774 03eb 72656733 		.ascii	"reg32\000"
 8774      3200
 8775              	.LASF13:
 8776 03f1 73697A65 		.ascii	"sizetype\000"
 8776      74797065 
 8776      00
 8777              	.LASF50:
 8778 03fa 5F5F746B 		.ascii	"__tk_shell_gpio_get\000"
 8778      5F736865 
 8778      6C6C5F67 
 8778      70696F5F 
 8778      67657400 
 8779              	.LASF2:
 8780 040e 6C6F6E67 		.ascii	"long double\000"
 8780      20646F75 
 8780      626C6500 
 8781              	.LASF77:
 8782 041a 5F5F746B 		.ascii	"__tk_shell_verbs_sys\000"
 8782      5F736865 
 8782      6C6C5F76 
 8782      65726273 
 8782      5F737973 
 8783              	.LASF37:
 8784 042f 64657363 		.ascii	"desc\000"
 8784      00
 8785              	.LASF40:
 8786 0434 746B5F73 		.ascii	"tk_shell_command_s\000"
 8786      68656C6C 
 8786      5F636F6D 
 8786      6D616E64 
 8786      5F7300
 8787              	.LASF54:
 8788 0447 5F5F746B 		.ascii	"__tk_shell_wm_vol_set\000"
 8788      5F736865 
 8788      6C6C5F77 
 8788      6D5F766F 
 8788      6C5F7365 
 8789              	.LASF59:
 8790 045d 5F5F746B 		.ascii	"__tk_shell_sys_reset\000"
 8790      5F736865 
 8790      6C6C5F73 
 8790      79735F72 
 8790      65736574 
 8791              	.LASF69:
 8792 0472 546B5368 		.ascii	"TkShellInit\000"
 8792      656C6C49 
 8792      6E697400 
 8793              	.LASF91:
 8794 047e 55534255 		.ascii	"USBUART_PutString\000"
 8794      4152545F 
 8794      50757453 
 8794      7472696E 
ARM GAS  C:\Users\TERENC~1\AppData\Local\Temp\ccNQUuJb.s 			page 177


 8794      6700
 8795              	.LASF63:
 8796 0490 73747263 		.ascii	"strcicmp\000"
 8796      69636D70 
 8796      00
 8797              	.LASF33:
 8798 0499 64656275 		.ascii	"debug_mask\000"
 8798      675F6D61 
 8798      736B00
 8799              	.LASF56:
 8800 04a4 5F5F746B 		.ascii	"__tk_shell_wm_reg_wr\000"
 8800      5F736865 
 8800      6C6C5F77 
 8800      6D5F7265 
 8800      675F7772 
 8801              	.LASF88:
 8802 04b9 70776D5F 		.ascii	"pwm_period\000"
 8802      70657269 
 8802      6F6400
 8803              	.LASF92:
 8804 04c4 61746F69 		.ascii	"atoi\000"
 8804      00
 8805              	.LASF68:
 8806 04c9 5F426F6F 		.ascii	"_Bool\000"
 8806      6C00
 8807              	.LASF4:
 8808 04cf 756E7369 		.ascii	"unsigned char\000"
 8808      676E6564 
 8808      20636861 
 8808      7200
 8809              	.LASF95:
 8810 04dd 436F6465 		.ascii	"Codec_GetHeadphoneVolume\000"
 8810      635F4765 
 8810      74486561 
 8810      6470686F 
 8810      6E65566F 
 8811              	.LASF34:
 8812 04f6 63616C69 		.ascii	"calibration_data_s\000"
 8812      62726174 
 8812      696F6E5F 
 8812      64617461 
 8812      5F7300
 8813              	.LASF18:
 8814 0509 75696E74 		.ascii	"uint8\000"
 8814      3800
 8815              	.LASF73:
 8816 050f 7265675F 		.ascii	"reg_lookup\000"
 8816      6C6F6F6B 
 8816      757000
 8817              	.LASF55:
 8818 051a 5F5F746B 		.ascii	"__tk_shell_wm_vol_get\000"
 8818      5F736865 
 8818      6C6C5F77 
 8818      6D5F766F 
 8818      6C5F6765 
 8819              	.LASF17:
 8820 0530 75696E74 		.ascii	"uint32_t\000"
ARM GAS  C:\Users\TERENC~1\AppData\Local\Temp\ccNQUuJb.s 			page 178


 8820      33325F74 
 8820      00
 8821              	.LASF70:
 8822 0539 546B5368 		.ascii	"TkShellService\000"
 8822      656C6C53 
 8822      65727669 
 8822      636500
 8823              	.LASF22:
 8824 0548 666C6F61 		.ascii	"float\000"
 8824      7400
 8825              	.LASF53:
 8826 054e 5F5F746B 		.ascii	"__tk_shell_cal_print\000"
 8826      5F736865 
 8826      6C6C5F63 
 8826      616C5F70 
 8826      72696E74 
 8827              	.LASF14:
 8828 0563 63686172 		.ascii	"char\000"
 8828      00
 8829              	.LASF36:
 8830 0568 66756E63 		.ascii	"func\000"
 8830      00
 8831              	.LASF46:
 8832 056d 6D6F6465 		.ascii	"mode\000"
 8832      00
 8833              	.LASF43:
 8834 0572 5F5F746B 		.ascii	"__tk_shell_sys_crash\000"
 8834      5F736865 
 8834      6C6C5F73 
 8834      79735F63 
 8834      72617368 
 8835              	.LASF7:
 8836 0587 5F5F7569 		.ascii	"__uint16_t\000"
 8836      6E743136 
 8836      5F7400
 8837              	.LASF41:
 8838 0592 61726763 		.ascii	"argc\000"
 8838      00
 8839              	.LASF72:
 8840 0597 62756666 		.ascii	"buffer\000"
 8840      657200
 8841              	.LASF29:
 8842 059e 636F756E 		.ascii	"counter\000"
 8842      74657200 
 8843              	.LASF61:
 8844 05a6 5F5F746B 		.ascii	"__tk_shell_led_stop\000"
 8844      5F736865 
 8844      6C6C5F6C 
 8844      65645F73 
 8844      746F7000 
 8845              	.LASF67:
 8846 05ba 666F756E 		.ascii	"found\000"
 8846      6400
 8847              	.LASF80:
 8848 05c0 636F6D6D 		.ascii	"commands\000"
 8848      616E6473 
 8848      00
ARM GAS  C:\Users\TERENC~1\AppData\Local\Temp\ccNQUuJb.s 			page 179


 8849              	.LASF106:
 8850 05c9 6D656D73 		.ascii	"memset\000"
 8850      657400
 8851              	.LASF96:
 8852 05d0 73747274 		.ascii	"strtoul\000"
 8852      6F756C00 
 8853              	.LASF60:
 8854 05d8 5F5F746B 		.ascii	"__tk_shell_led_start\000"
 8854      5F736865 
 8854      6C6C5F6C 
 8854      65645F73 
 8854      74617274 
 8855              	.LASF15:
 8856 05ed 75696E74 		.ascii	"uint8_t\000"
 8856      385F7400 
 8857              	.LASF98:
 8858 05f5 436F6465 		.ascii	"Codec_GetData\000"
 8858      635F4765 
 8858      74446174 
 8858      6100
 8859              	.LASF21:
 8860 0603 696E7431 		.ascii	"int16\000"
 8860      3600
 8861              	.LASF58:
 8862 0609 5F5F746B 		.ascii	"__tk_shell_wm_reg_rd\000"
 8862      5F736865 
 8862      6C6C5F77 
 8862      6D5F7265 
 8862      675F7264 
 8863              	.LASF84:
 8864 061e 61646353 		.ascii	"adcSample\000"
 8864      616D706C 
 8864      6500
 8865              	.LASF51:
 8866 0628 5F5F746B 		.ascii	"__tk_shell_sys_info\000"
 8866      5F736865 
 8866      6C6C5F73 
 8866      79735F69 
 8866      6E666F00 
 8867              	.LASF38:
 8868 063c 746B5F73 		.ascii	"tk_shell_command_verb_s\000"
 8868      68656C6C 
 8868      5F636F6D 
 8868      6D616E64 
 8868      5F766572 
 8869              	.LASF42:
 8870 0654 61726776 		.ascii	"argv\000"
 8870      00
 8871              	.LASF25:
 8872 0659 766F6C5F 		.ascii	"vol_ctrl_right\000"
 8872      6374726C 
 8872      5F726967 
 8872      687400
 8873              	.LASF83:
 8874 0668 5F5F6374 		.ascii	"__ctype_ptr__\000"
 8874      7970655F 
 8874      7074725F 
ARM GAS  C:\Users\TERENC~1\AppData\Local\Temp\ccNQUuJb.s 			page 180


 8874      5F00
 8875              		.ident	"GCC: (GNU Tools for ARM Embedded Processors) 5.4.1 20160609 (release) [ARM/embedded-5-bran
