ARM GAS  C:\Users\TERENC~1\AppData\Local\Temp\cc1rRXTX.s 			page 1


   1              		.syntax unified
   2              		.cpu cortex-m0
   3              		.fpu softvfp
   4              		.eabi_attribute 20, 1
   5              		.eabi_attribute 21, 1
   6              		.eabi_attribute 23, 3
   7              		.eabi_attribute 24, 1
   8              		.eabi_attribute 25, 1
   9              		.eabi_attribute 26, 1
  10              		.eabi_attribute 30, 1
  11              		.eabi_attribute 34, 0
  12              		.eabi_attribute 18, 4
  13              		.thumb
  14              		.syntax unified
  15              		.file	"TkShell.c"
  16              		.text
  17              	.Ltext0:
  18              		.cfi_sections	.debug_frame
  19              		.section	.text.__tk_shell_sys_crash,"ax",%progbits
  20              		.align	2
  21              		.global	__tk_shell_sys_crash
  22              		.code	16
  23              		.thumb_func
  24              		.type	__tk_shell_sys_crash, %function
  25              	__tk_shell_sys_crash:
  26              	.LFB11:
  27              		.file 1 "TkShell.c"
   1:TkShell.c     **** /* ========================================
   2:TkShell.c     ****  *
   3:TkShell.c     ****  * Copyright YOUR COMPANY, THE YEAR
   4:TkShell.c     ****  * All Rights Reserved
   5:TkShell.c     ****  * UNPUBLISHED, LICENSED SOFTWARE.
   6:TkShell.c     ****  *
   7:TkShell.c     ****  * CONFIDENTIAL AND PROPRIETARY INFORMATION
   8:TkShell.c     ****  * WHICH IS THE PROPERTY OF your company.
   9:TkShell.c     ****  *
  10:TkShell.c     ****  * ========================================
  11:TkShell.c     **** */
  12:TkShell.c     **** #include <string.h>
  13:TkShell.c     **** #include <Application.h>
  14:TkShell.c     **** #include <ctype.h>
  15:TkShell.c     **** #include "TkShell.h"
  16:TkShell.c     **** #include <Codec.h>
  17:TkShell.c     **** #include <VolumeControl.h>
  18:TkShell.c     **** #include <pcm1770.h>
  19:TkShell.c     **** #include <Calibration.h>
  20:TkShell.c     **** #include <LED.h>
  21:TkShell.c     **** #include <USBUART_cdc.h>
  22:TkShell.c     **** #include <timers.h>
  23:TkShell.c     **** #include <LedManager.h>
  24:TkShell.c     **** 
  25:TkShell.c     **** #define USBUART_BUFFER_SIZE (64u)
  26:TkShell.c     **** 
  27:TkShell.c     **** #define TK_SHELL_METHOD(c, verb)              int __tk_shell_ ## c ## _ ## verb(int __unused argc, 
  28:TkShell.c     **** #define TK_SHELL_COMMAND(name, desc)          {#name, (tk_shell_command_verb_s *)__tk_shell_verbs_ 
  29:TkShell.c     **** #define TK_SHELL_VERBS(name)                  const tk_shell_command_verb_s __tk_shell_verbs_ ## na
  30:TkShell.c     **** #define TK_SHELL_VERB(c, name, desc)          {#name, __tk_shell_ ## c ## _ ## name, desc}
ARM GAS  C:\Users\TERENC~1\AppData\Local\Temp\cc1rRXTX.s 			page 2


  31:TkShell.c     **** 
  32:TkShell.c     **** #define CMD_BUF_LEN 64
  33:TkShell.c     **** #define TK_SHELL_MAX_ARGS 10
  34:TkShell.c     **** 
  35:TkShell.c     **** typedef struct
  36:TkShell.c     **** {
  37:TkShell.c     ****   const char *name;
  38:TkShell.c     ****   int        (*func)(int argc, char **argv);
  39:TkShell.c     ****   const char *desc;
  40:TkShell.c     **** } tk_shell_command_verb_s;
  41:TkShell.c     **** 
  42:TkShell.c     **** typedef struct
  43:TkShell.c     **** {
  44:TkShell.c     ****   const char *name;
  45:TkShell.c     ****   tk_shell_command_verb_s *verbs;
  46:TkShell.c     ****   const char *desc;
  47:TkShell.c     **** } tk_shell_command_s;
  48:TkShell.c     **** 
  49:TkShell.c     **** 
  50:TkShell.c     **** static const uint32_t reg_lookup[] = 
  51:TkShell.c     **** {
  52:TkShell.c     ****     CYREG_PRT0_DR,  // 0
  53:TkShell.c     ****     CYREG_PRT1_DR,  // 1
  54:TkShell.c     ****     CYREG_PRT2_DR,  // 2
  55:TkShell.c     ****     CYREG_PRT3_DR,  // 3
  56:TkShell.c     ****     CYREG_PRT4_DR,  // 4
  57:TkShell.c     ****     CYREG_PRT5_DR,  // 5
  58:TkShell.c     ****     CYREG_PRT6_DR,  // 6
  59:TkShell.c     ****     CYREG_PRT7_DR,  // 7
  60:TkShell.c     ****     CYREG_PRT8_DR,  // 8
  61:TkShell.c     ****     CYREG_PRT9_DR,  // 9
  62:TkShell.c     ****     CYREG_PRT10_DR, // 10
  63:TkShell.c     ****     CYREG_PRT11_DR, // 11
  64:TkShell.c     ****     CYREG_PRT12_DR, // 12
  65:TkShell.c     ****     CYREG_PRT13_DR, // 13
  66:TkShell.c     **** };
  67:TkShell.c     **** TK_SHELL_METHOD(gpio, set);
  68:TkShell.c     **** TK_SHELL_METHOD(gpio, config);
  69:TkShell.c     **** TK_SHELL_METHOD(gpio, get);
  70:TkShell.c     **** static TK_SHELL_VERBS(gpio) =
  71:TkShell.c     **** {
  72:TkShell.c     ****     TK_SHELL_VERB(gpio, set, "set GPIO state"),
  73:TkShell.c     ****     TK_SHELL_VERB(gpio, config, "configure GPIO"),
  74:TkShell.c     ****     TK_SHELL_VERB(gpio, get, "get GPIO state"),
  75:TkShell.c     ****     { "", NULL, "" }
  76:TkShell.c     **** };
  77:TkShell.c     **** 
  78:TkShell.c     **** TK_SHELL_METHOD(wm, vol_set);
  79:TkShell.c     **** TK_SHELL_METHOD(wm, vol_get);
  80:TkShell.c     **** TK_SHELL_METHOD(wm, reg_wr);
  81:TkShell.c     **** TK_SHELL_METHOD(wm, reg_rd);
  82:TkShell.c     **** static TK_SHELL_VERBS(wm) =
  83:TkShell.c     **** {
  84:TkShell.c     ****     TK_SHELL_VERB(wm, vol_set, "set volume level <vol:uint8>"),
  85:TkShell.c     ****     TK_SHELL_VERB(wm, vol_get, "get volume level"),
  86:TkShell.c     ****     TK_SHELL_VERB(wm, reg_wr, "write register <reg:uint8,data:uint16>)"),
  87:TkShell.c     ****     TK_SHELL_VERB(wm, reg_rd, "read register <reg:uint8>"),
ARM GAS  C:\Users\TERENC~1\AppData\Local\Temp\cc1rRXTX.s 			page 3


  88:TkShell.c     ****     { "", NULL, "" }
  89:TkShell.c     **** };
  90:TkShell.c     **** 
  91:TkShell.c     **** TK_SHELL_METHOD(pcm, reg);
  92:TkShell.c     **** static TK_SHELL_VERBS(pcm) = 
  93:TkShell.c     **** {
  94:TkShell.c     ****     TK_SHELL_VERB(pcm, reg, "register read (rd) and write (wr) <reg:uint8,data:uint8>"),
  95:TkShell.c     ****     { "", NULL, "" }
  96:TkShell.c     **** };
  97:TkShell.c     **** 
  98:TkShell.c     **** TK_SHELL_METHOD(sys, crash);
  99:TkShell.c     **** TK_SHELL_METHOD(sys, info);
 100:TkShell.c     **** TK_SHELL_METHOD(sys, reset);
 101:TkShell.c     **** TK_SHELL_METHOD(sys, adc);
 102:TkShell.c     **** static TK_SHELL_VERBS(sys) = 
 103:TkShell.c     **** {
 104:TkShell.c     ****     TK_SHELL_VERB(sys, crash, "trigger a hard fault"),
 105:TkShell.c     ****     TK_SHELL_VERB(sys, info, "print info"),
 106:TkShell.c     ****     TK_SHELL_VERB(sys, reset, "trigger a SW reset"),
 107:TkShell.c     ****     TK_SHELL_VERB(sys, adc, "print ADC values"),
 108:TkShell.c     ****     { "", NULL, "" }
 109:TkShell.c     **** };
 110:TkShell.c     **** 
 111:TkShell.c     **** TK_SHELL_METHOD(led, pwm_period);
 112:TkShell.c     **** TK_SHELL_METHOD(led, start);
 113:TkShell.c     **** TK_SHELL_METHOD(led, stop);
 114:TkShell.c     **** static TK_SHELL_VERBS(led) =
 115:TkShell.c     **** {
 116:TkShell.c     ****     TK_SHELL_VERB(led, start, "start LED animation <led:red|green|blue> <period:uint32> <compare:ui
 117:TkShell.c     ****     TK_SHELL_VERB(led, stop, "stop LED animation <led:red|green|blue>"),
 118:TkShell.c     ****     { "", NULL, "" }
 119:TkShell.c     **** };
 120:TkShell.c     **** 
 121:TkShell.c     **** TK_SHELL_METHOD(cal, print);
 122:TkShell.c     **** TK_SHELL_METHOD(cal, set);
 123:TkShell.c     **** TK_SHELL_METHOD(cal, save);
 124:TkShell.c     **** static TK_SHELL_VERBS(cal) =
 125:TkShell.c     **** {
 126:TkShell.c     ****     TK_SHELL_VERB(cal, print, "print cal data"),
 127:TkShell.c     ****     TK_SHELL_VERB(cal, set, "set cal data"),
 128:TkShell.c     ****     TK_SHELL_VERB(cal, save, "commit cal data to flash"),
 129:TkShell.c     ****     { "", NULL, "" }
 130:TkShell.c     **** };
 131:TkShell.c     **** 
 132:TkShell.c     **** static const tk_shell_command_s commands[] = 
 133:TkShell.c     **** {
 134:TkShell.c     ****     TK_SHELL_COMMAND(gpio, "GPIO commands"),
 135:TkShell.c     ****     TK_SHELL_COMMAND(wm, "Wolfson Codec commands"),
 136:TkShell.c     ****     TK_SHELL_COMMAND(pcm, "Burr-Brown Codec commands"),
 137:TkShell.c     ****     TK_SHELL_COMMAND(sys, "System commands"),
 138:TkShell.c     ****     TK_SHELL_COMMAND(led, "LED commands"),
 139:TkShell.c     ****     TK_SHELL_COMMAND(cal, "Calibration data commands"),
 140:TkShell.c     ****     { "", NULL, "" }
 141:TkShell.c     **** };
 142:TkShell.c     **** 
 143:TkShell.c     **** static char cmd_buf[CMD_BUF_LEN];
 144:TkShell.c     **** static uint8_t cmd_char_count;
ARM GAS  C:\Users\TERENC~1\AppData\Local\Temp\cc1rRXTX.s 			page 4


 145:TkShell.c     **** 
 146:TkShell.c     **** ////////////////////////////////////////////////////////////////////////////////
 147:TkShell.c     **** int strcicmp(char const *a, char const *b)
 148:TkShell.c     **** {
 149:TkShell.c     ****     for (;; a++, b++)
 150:TkShell.c     ****     {
 151:TkShell.c     ****         int d = tolower(*a) - tolower(*b);
 152:TkShell.c     ****         if (d != 0 || !*a)
 153:TkShell.c     ****             return d;
 154:TkShell.c     ****     }
 155:TkShell.c     **** }
 156:TkShell.c     **** 
 157:TkShell.c     **** TK_SHELL_METHOD(gpio, set)
 158:TkShell.c     **** {
 159:TkShell.c     ****     uint32_t port, pin, state;
 160:TkShell.c     ****     int i = 2;
 161:TkShell.c     ****     
 162:TkShell.c     ****     argc -= i;
 163:TkShell.c     **** 
 164:TkShell.c     ****     if (argc != 3)
 165:TkShell.c     ****     {
 166:TkShell.c     ****         PRINTF("Invalid number of arguments!\n");
 167:TkShell.c     ****         return -1;
 168:TkShell.c     ****     }
 169:TkShell.c     ****     
 170:TkShell.c     ****     port = atoi(argv[i++]);
 171:TkShell.c     ****     pin = atoi(argv[i++]);
 172:TkShell.c     ****     state = atoi(argv[i]);
 173:TkShell.c     ****     
 174:TkShell.c     ****     CY_SYS_PINS_SET_DRIVE_MODE(reg_lookup[port], pin, CY_SYS_PINS_DM_STRONG);
 175:TkShell.c     **** 
 176:TkShell.c     ****     if (state)
 177:TkShell.c     ****     {
 178:TkShell.c     ****         CY_SYS_PINS_SET_PIN(reg_lookup[port], pin);
 179:TkShell.c     ****     }
 180:TkShell.c     ****     else
 181:TkShell.c     ****     {
 182:TkShell.c     ****         CY_SYS_PINS_CLEAR_PIN(reg_lookup[port], pin);
 183:TkShell.c     ****     }
 184:TkShell.c     ****     
 185:TkShell.c     ****     PRINTF("> gpio:ok %d\n", (int)CY_SYS_PINS_READ_PIN(reg_lookup[port], pin));
 186:TkShell.c     ****     return 0;
 187:TkShell.c     **** }
 188:TkShell.c     **** 
 189:TkShell.c     **** TK_SHELL_METHOD(gpio, config)
 190:TkShell.c     **** {
 191:TkShell.c     ****     uint32_t port, pin, mode;
 192:TkShell.c     ****     int i = 2;
 193:TkShell.c     ****     
 194:TkShell.c     ****     argc -= i;
 195:TkShell.c     **** 
 196:TkShell.c     ****     if (argc != 3)
 197:TkShell.c     ****     {
 198:TkShell.c     ****         PRINTF("Invalid number of arguments!\n");
 199:TkShell.c     ****         return -1;
 200:TkShell.c     ****     }
 201:TkShell.c     ****     
ARM GAS  C:\Users\TERENC~1\AppData\Local\Temp\cc1rRXTX.s 			page 5


 202:TkShell.c     ****     port = atoi(argv[i++]);
 203:TkShell.c     ****     pin = atoi(argv[i++]);
 204:TkShell.c     ****     mode = atoi(argv[i]);
 205:TkShell.c     ****     
 206:TkShell.c     ****     CY_SYS_PINS_SET_DRIVE_MODE(reg_lookup[port], pin, mode);
 207:TkShell.c     ****     
 208:TkShell.c     ****     return 0;
 209:TkShell.c     **** }
 210:TkShell.c     **** 
 211:TkShell.c     **** TK_SHELL_METHOD(gpio, get)
 212:TkShell.c     **** {
 213:TkShell.c     ****     uint32_t port, pin;
 214:TkShell.c     ****     int i = 2;
 215:TkShell.c     ****     
 216:TkShell.c     ****     argc -= i;
 217:TkShell.c     **** 
 218:TkShell.c     ****     if (argc != 2)
 219:TkShell.c     ****     {
 220:TkShell.c     ****         PRINTF("Invalid number of arguments!\n");
 221:TkShell.c     ****         return -1;
 222:TkShell.c     ****     }
 223:TkShell.c     ****     
 224:TkShell.c     ****     port = atoi(argv[i++]);
 225:TkShell.c     ****     pin = atoi(argv[i]);
 226:TkShell.c     ****     
 227:TkShell.c     ****     PRINTF("> gpio:ok %d\n", (int)CY_SYS_PINS_READ_PIN(reg_lookup[port], pin));
 228:TkShell.c     ****     
 229:TkShell.c     ****     return 0;
 230:TkShell.c     **** }
 231:TkShell.c     **** 
 232:TkShell.c     **** TK_SHELL_METHOD(wm, vol_set)
 233:TkShell.c     **** {
 234:TkShell.c     ****     int vol;
 235:TkShell.c     ****     int i = 2;
 236:TkShell.c     ****     uint8_t rv;
 237:TkShell.c     ****     
 238:TkShell.c     ****     argc -= i;
 239:TkShell.c     ****     
 240:TkShell.c     ****     if (argc != 1)
 241:TkShell.c     ****     {
 242:TkShell.c     ****         PRINTF("Invalid number of arguments!\n");
 243:TkShell.c     ****         return -1;
 244:TkShell.c     ****     }
 245:TkShell.c     **** 
 246:TkShell.c     ****     vol = atoi(argv[i++]);
 247:TkShell.c     **** 
 248:TkShell.c     ****     if ((rv = Codec_AdjustBothHeadphoneVolume(vol)) == 0)
 249:TkShell.c     ****     {
 250:TkShell.c     ****         PRINTF("> wm:ok\n");
 251:TkShell.c     ****     }
 252:TkShell.c     ****     else
 253:TkShell.c     ****     {
 254:TkShell.c     ****         PRINTF("> wm:er %d\n", rv);
 255:TkShell.c     ****         return -2;
 256:TkShell.c     ****     }
 257:TkShell.c     **** 
 258:TkShell.c     ****     return 0;
ARM GAS  C:\Users\TERENC~1\AppData\Local\Temp\cc1rRXTX.s 			page 6


 259:TkShell.c     **** }
 260:TkShell.c     **** 
 261:TkShell.c     **** TK_SHELL_METHOD(wm, vol_get)
 262:TkShell.c     **** {
 263:TkShell.c     ****     PRINTF("> wm:ok %d\n", (int)Codec_GetHeadphoneVolume());
 264:TkShell.c     **** 
 265:TkShell.c     ****     return 0;
 266:TkShell.c     **** }
 267:TkShell.c     **** 
 268:TkShell.c     **** TK_SHELL_METHOD(wm, reg_wr)
 269:TkShell.c     **** {
 270:TkShell.c     ****     int i = 2;
 271:TkShell.c     ****     uint8_t reg;
 272:TkShell.c     ****     uint16_t data;
 273:TkShell.c     ****     int rv;
 274:TkShell.c     ****     
 275:TkShell.c     ****     argc -= i;
 276:TkShell.c     ****     
 277:TkShell.c     ****     if (argc != 2)
 278:TkShell.c     ****     {
 279:TkShell.c     ****         PRINTF("Invalid number of arguments!\n");
 280:TkShell.c     ****         return -1;
 281:TkShell.c     ****     }
 282:TkShell.c     ****     
 283:TkShell.c     ****     reg = atoi(argv[i++]);
 284:TkShell.c     ****     data = strtoul(argv[i++], NULL, 16);
 285:TkShell.c     ****     
 286:TkShell.c     ****     if ((rv = Codec_SendData(reg, data)) == 0)
 287:TkShell.c     ****     {
 288:TkShell.c     ****         PRINTF("> wm:ok\n");
 289:TkShell.c     ****     }
 290:TkShell.c     ****     else
 291:TkShell.c     ****     {
 292:TkShell.c     ****         PRINTF("> wm:er %d\n", rv);
 293:TkShell.c     ****         return -2;
 294:TkShell.c     ****     }
 295:TkShell.c     ****     
 296:TkShell.c     ****     return 0;
 297:TkShell.c     **** }
 298:TkShell.c     **** 
 299:TkShell.c     **** TK_SHELL_METHOD(wm, reg_rd)
 300:TkShell.c     **** {
 301:TkShell.c     ****     int i = 2;
 302:TkShell.c     ****     uint8_t reg;
 303:TkShell.c     ****     
 304:TkShell.c     ****     argc -= i;
 305:TkShell.c     ****     
 306:TkShell.c     ****     if (argc != 1)
 307:TkShell.c     ****     {
 308:TkShell.c     ****         PRINTF("Invalid number of arguments!\n");
 309:TkShell.c     ****         return -1;
 310:TkShell.c     ****     }
 311:TkShell.c     ****     
 312:TkShell.c     ****     reg = atoi(argv[i++]);
 313:TkShell.c     ****     
 314:TkShell.c     ****     PRINTF("> wm:ok 0x%04X\n", Codec_GetData(reg));
 315:TkShell.c     ****     
ARM GAS  C:\Users\TERENC~1\AppData\Local\Temp\cc1rRXTX.s 			page 7


 316:TkShell.c     ****     return 0;
 317:TkShell.c     **** }
 318:TkShell.c     **** 
 319:TkShell.c     **** TK_SHELL_METHOD(pcm, reg)
 320:TkShell.c     **** {
 321:TkShell.c     ****     int i = 2;
 322:TkShell.c     ****     uint8 reg;
 323:TkShell.c     ****     uint8 data;
 324:TkShell.c     ****     
 325:TkShell.c     ****     argc -= i;
 326:TkShell.c     ****     
 327:TkShell.c     ****     if (argc != 3)
 328:TkShell.c     ****     {
 329:TkShell.c     ****         PRINTF("Invalid number of arguments: %d\n", argc);
 330:TkShell.c     ****         return -1;
 331:TkShell.c     ****     }
 332:TkShell.c     **** 
 333:TkShell.c     ****     reg = atoi(argv[i + 1]);
 334:TkShell.c     ****     data = strtoul(argv[i + 2], NULL, 16);
 335:TkShell.c     **** 
 336:TkShell.c     ****     if (strcicmp(argv[i], "wr") == 0)
 337:TkShell.c     ****     {
 338:TkShell.c     ****         pcm1770_reg_write(reg, data);
 339:TkShell.c     ****     }
 340:TkShell.c     ****     
 341:TkShell.c     ****     PRINTF("> pcm:ok 0x%02X\n", pcm1770_reg_read(reg));
 342:TkShell.c     ****     
 343:TkShell.c     ****     return 0;
 344:TkShell.c     **** }
 345:TkShell.c     **** 
 346:TkShell.c     **** TK_SHELL_METHOD(sys, crash)
 347:TkShell.c     **** {
  28              		.loc 1 347 0
  29              		.cfi_startproc
  30              		@ args = 0, pretend = 0, frame = 0
  31              		@ frame_needed = 0, uses_anonymous_args = 0
  32              	.LVL0:
  33 0000 10B5     		push	{r4, lr}
  34              		.cfi_def_cfa_offset 8
  35              		.cfi_offset 4, -8
  36              		.cfi_offset 14, -4
  37              	.LVL1:
 348:TkShell.c     ****     void (*fp)(void) = NULL;
 349:TkShell.c     ****     
 350:TkShell.c     ****     fp();
  38              		.loc 1 350 0
  39 0002 0023     		movs	r3, #0
  40 0004 9847     		blx	r3
  41              	.LVL2:
 351:TkShell.c     ****     
 352:TkShell.c     ****     PRINTF("> sys:er\n");
  42              		.loc 1 352 0
  43 0006 FFF7FEFF 		bl	USBUART_GetConfiguration
  44              	.LVL3:
  45 000a 0028     		cmp	r0, #0
  46 000c 0CD0     		beq	.L2
  47              	.L3:
ARM GAS  C:\Users\TERENC~1\AppData\Local\Temp\cc1rRXTX.s 			page 8


  48              		.loc 1 352 0 is_stmt 0 discriminator 1
  49 000e FFF7FEFF 		bl	USBUART_CDCIsReady
  50              	.LVL4:
  51 0012 0028     		cmp	r0, #0
  52 0014 FBD0     		beq	.L3
  53              		.loc 1 352 0 discriminator 2
  54 0016 054C     		ldr	r4, .L4
  55 0018 0A22     		movs	r2, #10
  56 001a 0549     		ldr	r1, .L4+4
  57 001c 2000     		movs	r0, r4
  58 001e FFF7FEFF 		bl	memcpy
  59              	.LVL5:
  60 0022 2000     		movs	r0, r4
  61 0024 FFF7FEFF 		bl	USBUART_PutString
  62              	.LVL6:
  63              	.L2:
 353:TkShell.c     ****     
 354:TkShell.c     ****     return 0;
 355:TkShell.c     **** }
  64              		.loc 1 355 0 is_stmt 1
  65 0028 0020     		movs	r0, #0
  66              		@ sp needed
  67 002a 10BD     		pop	{r4, pc}
  68              	.L5:
  69              		.align	2
  70              	.L4:
  71 002c 00000000 		.word	gbuf
  72 0030 00000000 		.word	.LC1
  73              		.cfi_endproc
  74              	.LFE11:
  75              		.size	__tk_shell_sys_crash, .-__tk_shell_sys_crash
  76              		.section	.text.__tk_shell_gpio_config,"ax",%progbits
  77              		.align	2
  78              		.global	__tk_shell_gpio_config
  79              		.code	16
  80              		.thumb_func
  81              		.type	__tk_shell_gpio_config, %function
  82              	__tk_shell_gpio_config:
  83              	.LFB4:
 190:TkShell.c     ****     uint32_t port, pin, mode;
  84              		.loc 1 190 0
  85              		.cfi_startproc
  86              		@ args = 0, pretend = 0, frame = 0
  87              		@ frame_needed = 0, uses_anonymous_args = 0
  88              	.LVL7:
  89 0000 70B5     		push	{r4, r5, r6, lr}
  90              		.cfi_def_cfa_offset 16
  91              		.cfi_offset 4, -16
  92              		.cfi_offset 5, -12
  93              		.cfi_offset 6, -8
  94              		.cfi_offset 14, -4
  95 0002 0C00     		movs	r4, r1
  96              	.LVL8:
 196:TkShell.c     ****     {
  97              		.loc 1 196 0
  98 0004 0528     		cmp	r0, #5
  99 0006 13D0     		beq	.L7
ARM GAS  C:\Users\TERENC~1\AppData\Local\Temp\cc1rRXTX.s 			page 9


 198:TkShell.c     ****         return -1;
 100              		.loc 1 198 0
 101 0008 FFF7FEFF 		bl	USBUART_GetConfiguration
 102              	.LVL9:
 103 000c 0028     		cmp	r0, #0
 104 000e 28D0     		beq	.L10
 105              	.L9:
 198:TkShell.c     ****         return -1;
 106              		.loc 1 198 0 is_stmt 0 discriminator 1
 107 0010 FFF7FEFF 		bl	USBUART_CDCIsReady
 108              	.LVL10:
 109 0014 0028     		cmp	r0, #0
 110 0016 FBD0     		beq	.L9
 198:TkShell.c     ****         return -1;
 111              		.loc 1 198 0 discriminator 2
 112 0018 134C     		ldr	r4, .L11
 113              	.LVL11:
 114 001a 1E22     		movs	r2, #30
 115 001c 1349     		ldr	r1, .L11+4
 116 001e 2000     		movs	r0, r4
 117 0020 FFF7FEFF 		bl	memcpy
 118              	.LVL12:
 119 0024 2000     		movs	r0, r4
 120 0026 FFF7FEFF 		bl	USBUART_PutString
 121              	.LVL13:
 199:TkShell.c     ****     }
 122              		.loc 1 199 0 is_stmt 1 discriminator 2
 123 002a 0120     		movs	r0, #1
 124 002c 4042     		rsbs	r0, r0, #0
 125 002e 1AE0     		b	.L8
 126              	.LVL14:
 127              	.L7:
 202:TkShell.c     ****     pin = atoi(argv[i++]);
 128              		.loc 1 202 0
 129 0030 8868     		ldr	r0, [r1, #8]
 130              	.LVL15:
 131 0032 FFF7FEFF 		bl	atoi
 132              	.LVL16:
 133 0036 0600     		movs	r6, r0
 134              	.LVL17:
 203:TkShell.c     ****     mode = atoi(argv[i]);
 135              		.loc 1 203 0
 136 0038 E068     		ldr	r0, [r4, #12]
 137              	.LVL18:
 138 003a FFF7FEFF 		bl	atoi
 139              	.LVL19:
 140 003e 0500     		movs	r5, r0
 141              	.LVL20:
 204:TkShell.c     ****     
 142              		.loc 1 204 0
 143 0040 2069     		ldr	r0, [r4, #16]
 144              	.LVL21:
 145 0042 FFF7FEFF 		bl	atoi
 146              	.LVL22:
 206:TkShell.c     ****     
 147              		.loc 1 206 0
 148 0046 B600     		lsls	r6, r6, #2
ARM GAS  C:\Users\TERENC~1\AppData\Local\Temp\cc1rRXTX.s 			page 10


 149              	.LVL23:
 150 0048 094B     		ldr	r3, .L11+8
 151 004a F158     		ldr	r1, [r6, r3]
 152 004c 0B68     		ldr	r3, [r1]
 153 004e 6A00     		lsls	r2, r5, #1
 154 0050 5519     		adds	r5, r2, r5
 155              	.LVL24:
 156 0052 0722     		movs	r2, #7
 157 0054 AA40     		lsls	r2, r2, r5
 158 0056 9343     		bics	r3, r2
 159 0058 A840     		lsls	r0, r0, r5
 160              	.LVL25:
 161 005a 1843     		orrs	r0, r3
 162 005c 0860     		str	r0, [r1]
 208:TkShell.c     **** }
 163              		.loc 1 208 0
 164 005e 0020     		movs	r0, #0
 165 0060 01E0     		b	.L8
 166              	.LVL26:
 167              	.L10:
 199:TkShell.c     ****     }
 168              		.loc 1 199 0
 169 0062 0120     		movs	r0, #1
 170 0064 4042     		rsbs	r0, r0, #0
 171              	.LVL27:
 172              	.L8:
 209:TkShell.c     **** 
 173              		.loc 1 209 0
 174              		@ sp needed
 175 0066 70BD     		pop	{r4, r5, r6, pc}
 176              	.L12:
 177              		.align	2
 178              	.L11:
 179 0068 00000000 		.word	gbuf
 180 006c 0C000000 		.word	.LC4
 181 0070 00000000 		.word	.LANCHOR0
 182              		.cfi_endproc
 183              	.LFE4:
 184              		.size	__tk_shell_gpio_config, .-__tk_shell_gpio_config
 185              		.section	.text.__tk_shell_gpio_set,"ax",%progbits
 186              		.align	2
 187              		.global	__tk_shell_gpio_set
 188              		.code	16
 189              		.thumb_func
 190              		.type	__tk_shell_gpio_set, %function
 191              	__tk_shell_gpio_set:
 192              	.LFB3:
 158:TkShell.c     ****     uint32_t port, pin, state;
 193              		.loc 1 158 0
 194              		.cfi_startproc
 195              		@ args = 0, pretend = 0, frame = 0
 196              		@ frame_needed = 0, uses_anonymous_args = 0
 197              	.LVL28:
 198 0000 70B5     		push	{r4, r5, r6, lr}
 199              		.cfi_def_cfa_offset 16
 200              		.cfi_offset 4, -16
 201              		.cfi_offset 5, -12
ARM GAS  C:\Users\TERENC~1\AppData\Local\Temp\cc1rRXTX.s 			page 11


 202              		.cfi_offset 6, -8
 203              		.cfi_offset 14, -4
 204 0002 0C00     		movs	r4, r1
 205              	.LVL29:
 164:TkShell.c     ****     {
 206              		.loc 1 164 0
 207 0004 0528     		cmp	r0, #5
 208 0006 13D0     		beq	.L14
 166:TkShell.c     ****         return -1;
 209              		.loc 1 166 0
 210 0008 FFF7FEFF 		bl	USBUART_GetConfiguration
 211              	.LVL30:
 212 000c 0028     		cmp	r0, #0
 213 000e 4BD0     		beq	.L20
 214              	.L16:
 166:TkShell.c     ****         return -1;
 215              		.loc 1 166 0 is_stmt 0 discriminator 1
 216 0010 FFF7FEFF 		bl	USBUART_CDCIsReady
 217              	.LVL31:
 218 0014 0028     		cmp	r0, #0
 219 0016 FBD0     		beq	.L16
 166:TkShell.c     ****         return -1;
 220              		.loc 1 166 0 discriminator 2
 221 0018 264C     		ldr	r4, .L22
 222              	.LVL32:
 223 001a 1E22     		movs	r2, #30
 224 001c 2649     		ldr	r1, .L22+4
 225 001e 2000     		movs	r0, r4
 226 0020 FFF7FEFF 		bl	memcpy
 227              	.LVL33:
 228 0024 2000     		movs	r0, r4
 229 0026 FFF7FEFF 		bl	USBUART_PutString
 230              	.LVL34:
 167:TkShell.c     ****     }
 231              		.loc 1 167 0 is_stmt 1 discriminator 2
 232 002a 0120     		movs	r0, #1
 233 002c 4042     		rsbs	r0, r0, #0
 234 002e 3FE0     		b	.L15
 235              	.LVL35:
 236              	.L14:
 170:TkShell.c     ****     pin = atoi(argv[i++]);
 237              		.loc 1 170 0
 238 0030 8868     		ldr	r0, [r1, #8]
 239              	.LVL36:
 240 0032 FFF7FEFF 		bl	atoi
 241              	.LVL37:
 242 0036 0600     		movs	r6, r0
 243              	.LVL38:
 171:TkShell.c     ****     state = atoi(argv[i]);
 244              		.loc 1 171 0
 245 0038 E068     		ldr	r0, [r4, #12]
 246              	.LVL39:
 247 003a FFF7FEFF 		bl	atoi
 248              	.LVL40:
 249 003e 0500     		movs	r5, r0
 250              	.LVL41:
 172:TkShell.c     ****     
ARM GAS  C:\Users\TERENC~1\AppData\Local\Temp\cc1rRXTX.s 			page 12


 251              		.loc 1 172 0
 252 0040 2069     		ldr	r0, [r4, #16]
 253              	.LVL42:
 254 0042 FFF7FEFF 		bl	atoi
 255              	.LVL43:
 174:TkShell.c     **** 
 256              		.loc 1 174 0
 257 0046 B600     		lsls	r6, r6, #2
 258              	.LVL44:
 259 0048 1C4B     		ldr	r3, .L22+8
 260 004a F458     		ldr	r4, [r6, r3]
 261              	.LVL45:
 262 004c 2368     		ldr	r3, [r4]
 263 004e 6A00     		lsls	r2, r5, #1
 264 0050 5219     		adds	r2, r2, r5
 265 0052 0721     		movs	r1, #7
 266 0054 9140     		lsls	r1, r1, r2
 267 0056 8B43     		bics	r3, r1
 268 0058 1900     		movs	r1, r3
 269 005a 0623     		movs	r3, #6
 270 005c 9340     		lsls	r3, r3, r2
 271 005e 0B43     		orrs	r3, r1
 272 0060 2360     		str	r3, [r4]
 176:TkShell.c     ****     {
 273              		.loc 1 176 0
 274 0062 0028     		cmp	r0, #0
 275 0064 05D0     		beq	.L17
 178:TkShell.c     ****     }
 276              		.loc 1 178 0
 277 0066 2268     		ldr	r2, [r4]
 278 0068 0123     		movs	r3, #1
 279 006a AB40     		lsls	r3, r3, r5
 280 006c 1343     		orrs	r3, r2
 281 006e 2360     		str	r3, [r4]
 282 0070 04E0     		b	.L18
 283              	.L17:
 182:TkShell.c     ****     }
 284              		.loc 1 182 0
 285 0072 2368     		ldr	r3, [r4]
 286 0074 0122     		movs	r2, #1
 287 0076 AA40     		lsls	r2, r2, r5
 288 0078 9343     		bics	r3, r2
 289 007a 2360     		str	r3, [r4]
 290              	.L18:
 185:TkShell.c     ****     return 0;
 291              		.loc 1 185 0
 292 007c FFF7FEFF 		bl	USBUART_GetConfiguration
 293              	.LVL46:
 294 0080 0028     		cmp	r0, #0
 295 0082 14D0     		beq	.L21
 296              	.L19:
 185:TkShell.c     ****     return 0;
 297              		.loc 1 185 0 is_stmt 0 discriminator 1
 298 0084 FFF7FEFF 		bl	USBUART_CDCIsReady
 299              	.LVL47:
 300 0088 0028     		cmp	r0, #0
 301 008a FBD0     		beq	.L19
ARM GAS  C:\Users\TERENC~1\AppData\Local\Temp\cc1rRXTX.s 			page 13


 185:TkShell.c     ****     return 0;
 302              		.loc 1 185 0 discriminator 2
 303 008c 2268     		ldr	r2, [r4]
 304 008e EA40     		lsrs	r2, r2, r5
 305 0090 0123     		movs	r3, #1
 306 0092 1A40     		ands	r2, r3
 307 0094 074C     		ldr	r4, .L22
 308 0096 0A49     		ldr	r1, .L22+12
 309 0098 2000     		movs	r0, r4
 310 009a FFF7FEFF 		bl	sprintf
 311              	.LVL48:
 312 009e 2000     		movs	r0, r4
 313 00a0 FFF7FEFF 		bl	USBUART_PutString
 314              	.LVL49:
 186:TkShell.c     **** }
 315              		.loc 1 186 0 is_stmt 1 discriminator 2
 316 00a4 0020     		movs	r0, #0
 317 00a6 03E0     		b	.L15
 318              	.LVL50:
 319              	.L20:
 167:TkShell.c     ****     }
 320              		.loc 1 167 0
 321 00a8 0120     		movs	r0, #1
 322 00aa 4042     		rsbs	r0, r0, #0
 323 00ac 00E0     		b	.L15
 324              	.LVL51:
 325              	.L21:
 186:TkShell.c     **** }
 326              		.loc 1 186 0
 327 00ae 0020     		movs	r0, #0
 328              	.LVL52:
 329              	.L15:
 187:TkShell.c     **** 
 330              		.loc 1 187 0
 331              		@ sp needed
 332 00b0 70BD     		pop	{r4, r5, r6, pc}
 333              	.L23:
 334 00b2 C046     		.align	2
 335              	.L22:
 336 00b4 00000000 		.word	gbuf
 337 00b8 0C000000 		.word	.LC4
 338 00bc 00000000 		.word	.LANCHOR0
 339 00c0 2C000000 		.word	.LC10
 340              		.cfi_endproc
 341              	.LFE3:
 342              		.size	__tk_shell_gpio_set, .-__tk_shell_gpio_set
 343              		.section	.text.__tk_shell_gpio_get,"ax",%progbits
 344              		.align	2
 345              		.global	__tk_shell_gpio_get
 346              		.code	16
 347              		.thumb_func
 348              		.type	__tk_shell_gpio_get, %function
 349              	__tk_shell_gpio_get:
 350              	.LFB5:
 212:TkShell.c     ****     uint32_t port, pin;
 351              		.loc 1 212 0
 352              		.cfi_startproc
ARM GAS  C:\Users\TERENC~1\AppData\Local\Temp\cc1rRXTX.s 			page 14


 353              		@ args = 0, pretend = 0, frame = 0
 354              		@ frame_needed = 0, uses_anonymous_args = 0
 355              	.LVL53:
 356 0000 70B5     		push	{r4, r5, r6, lr}
 357              		.cfi_def_cfa_offset 16
 358              		.cfi_offset 4, -16
 359              		.cfi_offset 5, -12
 360              		.cfi_offset 6, -8
 361              		.cfi_offset 14, -4
 362 0002 0C00     		movs	r4, r1
 363              	.LVL54:
 218:TkShell.c     ****     {
 364              		.loc 1 218 0
 365 0004 0428     		cmp	r0, #4
 366 0006 13D0     		beq	.L25
 220:TkShell.c     ****         return -1;
 367              		.loc 1 220 0
 368 0008 FFF7FEFF 		bl	USBUART_GetConfiguration
 369              	.LVL55:
 370 000c 0028     		cmp	r0, #0
 371 000e 30D0     		beq	.L29
 372              	.L27:
 220:TkShell.c     ****         return -1;
 373              		.loc 1 220 0 is_stmt 0 discriminator 1
 374 0010 FFF7FEFF 		bl	USBUART_CDCIsReady
 375              	.LVL56:
 376 0014 0028     		cmp	r0, #0
 377 0016 FBD0     		beq	.L27
 220:TkShell.c     ****         return -1;
 378              		.loc 1 220 0 discriminator 2
 379 0018 184C     		ldr	r4, .L31
 380              	.LVL57:
 381 001a 1E22     		movs	r2, #30
 382 001c 1849     		ldr	r1, .L31+4
 383 001e 2000     		movs	r0, r4
 384 0020 FFF7FEFF 		bl	memcpy
 385              	.LVL58:
 386 0024 2000     		movs	r0, r4
 387 0026 FFF7FEFF 		bl	USBUART_PutString
 388              	.LVL59:
 221:TkShell.c     ****     }
 389              		.loc 1 221 0 is_stmt 1 discriminator 2
 390 002a 0120     		movs	r0, #1
 391 002c 4042     		rsbs	r0, r0, #0
 392 002e 24E0     		b	.L26
 393              	.LVL60:
 394              	.L25:
 224:TkShell.c     ****     pin = atoi(argv[i]);
 395              		.loc 1 224 0
 396 0030 8868     		ldr	r0, [r1, #8]
 397              	.LVL61:
 398 0032 FFF7FEFF 		bl	atoi
 399              	.LVL62:
 400 0036 0500     		movs	r5, r0
 401              	.LVL63:
 225:TkShell.c     ****     
 402              		.loc 1 225 0
ARM GAS  C:\Users\TERENC~1\AppData\Local\Temp\cc1rRXTX.s 			page 15


 403 0038 E068     		ldr	r0, [r4, #12]
 404              	.LVL64:
 405 003a FFF7FEFF 		bl	atoi
 406              	.LVL65:
 407 003e 0400     		movs	r4, r0
 408              	.LVL66:
 227:TkShell.c     ****     
 409              		.loc 1 227 0
 410 0040 FFF7FEFF 		bl	USBUART_GetConfiguration
 411              	.LVL67:
 412 0044 0028     		cmp	r0, #0
 413 0046 17D0     		beq	.L30
 414              	.L28:
 227:TkShell.c     ****     
 415              		.loc 1 227 0 is_stmt 0 discriminator 1
 416 0048 FFF7FEFF 		bl	USBUART_CDCIsReady
 417              	.LVL68:
 418 004c 0028     		cmp	r0, #0
 419 004e FBD0     		beq	.L28
 227:TkShell.c     ****     
 420              		.loc 1 227 0 discriminator 2
 421 0050 AD00     		lsls	r5, r5, #2
 422              	.LVL69:
 423 0052 0C4B     		ldr	r3, .L31+8
 424 0054 EB58     		ldr	r3, [r5, r3]
 425 0056 1A68     		ldr	r2, [r3]
 426 0058 E240     		lsrs	r2, r2, r4
 427 005a 0123     		movs	r3, #1
 428 005c 1A40     		ands	r2, r3
 429 005e 074C     		ldr	r4, .L31
 430              	.LVL70:
 431 0060 0949     		ldr	r1, .L31+12
 432 0062 2000     		movs	r0, r4
 433 0064 FFF7FEFF 		bl	sprintf
 434              	.LVL71:
 435 0068 2000     		movs	r0, r4
 436 006a FFF7FEFF 		bl	USBUART_PutString
 437              	.LVL72:
 229:TkShell.c     **** }
 438              		.loc 1 229 0 is_stmt 1 discriminator 2
 439 006e 0020     		movs	r0, #0
 440 0070 03E0     		b	.L26
 441              	.LVL73:
 442              	.L29:
 221:TkShell.c     ****     }
 443              		.loc 1 221 0
 444 0072 0120     		movs	r0, #1
 445 0074 4042     		rsbs	r0, r0, #0
 446 0076 00E0     		b	.L26
 447              	.LVL74:
 448              	.L30:
 229:TkShell.c     **** }
 449              		.loc 1 229 0
 450 0078 0020     		movs	r0, #0
 451              	.LVL75:
 452              	.L26:
 230:TkShell.c     **** 
ARM GAS  C:\Users\TERENC~1\AppData\Local\Temp\cc1rRXTX.s 			page 16


 453              		.loc 1 230 0
 454              		@ sp needed
 455 007a 70BD     		pop	{r4, r5, r6, pc}
 456              	.L32:
 457              		.align	2
 458              	.L31:
 459 007c 00000000 		.word	gbuf
 460 0080 0C000000 		.word	.LC4
 461 0084 00000000 		.word	.LANCHOR0
 462 0088 2C000000 		.word	.LC10
 463              		.cfi_endproc
 464              	.LFE5:
 465              		.size	__tk_shell_gpio_get, .-__tk_shell_gpio_get
 466              		.section	.text.__tk_shell_sys_info,"ax",%progbits
 467              		.align	2
 468              		.global	__tk_shell_sys_info
 469              		.code	16
 470              		.thumb_func
 471              		.type	__tk_shell_sys_info, %function
 472              	__tk_shell_sys_info:
 473              	.LFB12:
 356:TkShell.c     **** 
 357:TkShell.c     **** TK_SHELL_METHOD(sys, info)
 358:TkShell.c     **** {
 474              		.loc 1 358 0
 475              		.cfi_startproc
 476              		@ args = 0, pretend = 0, frame = 0
 477              		@ frame_needed = 0, uses_anonymous_args = 0
 478              	.LVL76:
 479 0000 10B5     		push	{r4, lr}
 480              		.cfi_def_cfa_offset 8
 481              		.cfi_offset 4, -8
 482              		.cfi_offset 14, -4
 359:TkShell.c     ****     PRINTF("> sys:ok %08lu\n", (unsigned long)tmrGetCounter_ms());
 483              		.loc 1 359 0
 484 0002 FFF7FEFF 		bl	USBUART_GetConfiguration
 485              	.LVL77:
 486 0006 0028     		cmp	r0, #0
 487 0008 0DD0     		beq	.L34
 488              	.L35:
 489              		.loc 1 359 0 is_stmt 0 discriminator 1
 490 000a FFF7FEFF 		bl	USBUART_CDCIsReady
 491              	.LVL78:
 492 000e 0028     		cmp	r0, #0
 493 0010 FBD0     		beq	.L35
 494              		.loc 1 359 0 discriminator 2
 495 0012 064B     		ldr	r3, .L36
 496 0014 1A68     		ldr	r2, [r3]
 497 0016 064C     		ldr	r4, .L36+4
 498 0018 0649     		ldr	r1, .L36+8
 499 001a 2000     		movs	r0, r4
 500 001c FFF7FEFF 		bl	sprintf
 501              	.LVL79:
 502 0020 2000     		movs	r0, r4
 503 0022 FFF7FEFF 		bl	USBUART_PutString
 504              	.LVL80:
 505              	.L34:
ARM GAS  C:\Users\TERENC~1\AppData\Local\Temp\cc1rRXTX.s 			page 17


 360:TkShell.c     **** 
 361:TkShell.c     ****     return 0;
 362:TkShell.c     **** }
 506              		.loc 1 362 0 is_stmt 1
 507 0026 0020     		movs	r0, #0
 508              		@ sp needed
 509 0028 10BD     		pop	{r4, pc}
 510              	.L37:
 511 002a C046     		.align	2
 512              	.L36:
 513 002c 00000000 		.word	tmrCounter_ms
 514 0030 00000000 		.word	gbuf
 515 0034 3C000000 		.word	.LC17
 516              		.cfi_endproc
 517              	.LFE12:
 518              		.size	__tk_shell_sys_info, .-__tk_shell_sys_info
 519              		.section	.text.__tk_shell_sys_adc,"ax",%progbits
 520              		.align	2
 521              		.global	__tk_shell_sys_adc
 522              		.code	16
 523              		.thumb_func
 524              		.type	__tk_shell_sys_adc, %function
 525              	__tk_shell_sys_adc:
 526              	.LFB14:
 363:TkShell.c     **** 
 364:TkShell.c     **** TK_SHELL_METHOD(sys, reset)
 365:TkShell.c     **** {
 366:TkShell.c     ****     CySoftwareReset();
 367:TkShell.c     ****     
 368:TkShell.c     ****     return 0;
 369:TkShell.c     **** }
 370:TkShell.c     **** 
 371:TkShell.c     **** TK_SHELL_METHOD(sys, adc)
 372:TkShell.c     **** {
 527              		.loc 1 372 0
 528              		.cfi_startproc
 529              		@ args = 0, pretend = 0, frame = 0
 530              		@ frame_needed = 0, uses_anonymous_args = 0
 531              	.LVL81:
 532 0000 10B5     		push	{r4, lr}
 533              		.cfi_def_cfa_offset 8
 534              		.cfi_offset 4, -8
 535              		.cfi_offset 14, -4
 373:TkShell.c     ****     PRINTF("> sys:ok %d,%d\n", adcSample[vol_ctrl_left], adcSample[vol_ctrl_right]);
 536              		.loc 1 373 0
 537 0002 FFF7FEFF 		bl	USBUART_GetConfiguration
 538              	.LVL82:
 539 0006 0028     		cmp	r0, #0
 540 0008 10D0     		beq	.L39
 541              	.L40:
 542              		.loc 1 373 0 is_stmt 0 discriminator 1
 543 000a FFF7FEFF 		bl	USBUART_CDCIsReady
 544              	.LVL83:
 545 000e 0028     		cmp	r0, #0
 546 0010 FBD0     		beq	.L40
 547              		.loc 1 373 0 discriminator 2
 548 0012 074B     		ldr	r3, .L41
ARM GAS  C:\Users\TERENC~1\AppData\Local\Temp\cc1rRXTX.s 			page 18


 549 0014 0221     		movs	r1, #2
 550 0016 5A5E     		ldrsh	r2, [r3, r1]
 551 0018 0021     		movs	r1, #0
 552 001a 5B5E     		ldrsh	r3, [r3, r1]
 553 001c 054C     		ldr	r4, .L41+4
 554 001e 0649     		ldr	r1, .L41+8
 555 0020 2000     		movs	r0, r4
 556 0022 FFF7FEFF 		bl	sprintf
 557              	.LVL84:
 558 0026 2000     		movs	r0, r4
 559 0028 FFF7FEFF 		bl	USBUART_PutString
 560              	.LVL85:
 561              	.L39:
 374:TkShell.c     ****     
 375:TkShell.c     ****     return 0;
 376:TkShell.c     **** }
 562              		.loc 1 376 0 is_stmt 1
 563 002c 0020     		movs	r0, #0
 564              		@ sp needed
 565 002e 10BD     		pop	{r4, pc}
 566              	.L42:
 567              		.align	2
 568              	.L41:
 569 0030 00000000 		.word	adcSample
 570 0034 00000000 		.word	gbuf
 571 0038 4C000000 		.word	.LC21
 572              		.cfi_endproc
 573              	.LFE14:
 574              		.size	__tk_shell_sys_adc, .-__tk_shell_sys_adc
 575              		.section	.text.__tk_shell_cal_print,"ax",%progbits
 576              		.align	2
 577              		.global	__tk_shell_cal_print
 578              		.code	16
 579              		.thumb_func
 580              		.type	__tk_shell_cal_print, %function
 581              	__tk_shell_cal_print:
 582              	.LFB17:
 377:TkShell.c     **** 
 378:TkShell.c     **** TK_SHELL_METHOD(led, start)
 379:TkShell.c     **** {
 380:TkShell.c     ****     int i = 2;
 381:TkShell.c     ****     LM_LED_e ledIdx = LM_LED_MAX;
 382:TkShell.c     ****     uint32_t pwmPeriod, pwmCompare, pwmCounter;
 383:TkShell.c     ****     
 384:TkShell.c     ****     argc -= i;
 385:TkShell.c     ****     
 386:TkShell.c     ****     if (argc != 4)
 387:TkShell.c     ****     {
 388:TkShell.c     ****         PRINTF("Invalid number of arguments: %d\n", argc);
 389:TkShell.c     ****         return -1;
 390:TkShell.c     ****     }
 391:TkShell.c     ****     
 392:TkShell.c     ****     if (strcicmp(argv[i], "red") == 0)
 393:TkShell.c     ****     {
 394:TkShell.c     ****         ledIdx = LM_LED_RED;
 395:TkShell.c     ****     }
 396:TkShell.c     ****     else if (strcicmp(argv[i], "green") == 0)
ARM GAS  C:\Users\TERENC~1\AppData\Local\Temp\cc1rRXTX.s 			page 19


 397:TkShell.c     ****     {
 398:TkShell.c     ****         ledIdx = LM_LED_GREEN;
 399:TkShell.c     ****     }
 400:TkShell.c     ****     else if (strcicmp(argv[i], "blue") == 0)
 401:TkShell.c     ****     {
 402:TkShell.c     ****         ledIdx = LM_LED_BLUE;
 403:TkShell.c     ****     }
 404:TkShell.c     ****     else
 405:TkShell.c     ****     {
 406:TkShell.c     ****         PRINTF("Invalid color %s, must be red|green|blue\n", argv[i]);
 407:TkShell.c     ****         return -2;
 408:TkShell.c     ****     }
 409:TkShell.c     ****     
 410:TkShell.c     ****     pwmPeriod = atoi(argv[i + 1]);
 411:TkShell.c     ****     pwmCompare = atoi(argv[i + 2]);
 412:TkShell.c     ****     pwmCounter = atoi(argv[i + 3]);
 413:TkShell.c     ****     
 414:TkShell.c     ****     LedManagerStartOverride(ledIdx, pwmPeriod, pwmCompare, pwmCounter);
 415:TkShell.c     ****     
 416:TkShell.c     ****     PRINTF("> led:ok\n");
 417:TkShell.c     **** 
 418:TkShell.c     ****     return 0;
 419:TkShell.c     **** }
 420:TkShell.c     **** 
 421:TkShell.c     **** TK_SHELL_METHOD(led, stop)
 422:TkShell.c     **** {
 423:TkShell.c     ****     int i = 2;
 424:TkShell.c     ****     LM_LED_e ledIdx = LM_LED_MAX;
 425:TkShell.c     ****     
 426:TkShell.c     ****     argc -= i;
 427:TkShell.c     ****     
 428:TkShell.c     ****     if (argc != 1)
 429:TkShell.c     ****     {
 430:TkShell.c     ****         PRINTF("Invalid number of arguments: %d\n", argc);
 431:TkShell.c     ****         return -1;
 432:TkShell.c     ****     }
 433:TkShell.c     ****     
 434:TkShell.c     ****     if (strcicmp(argv[i], "red") == 0)
 435:TkShell.c     ****     {
 436:TkShell.c     ****         ledIdx = LM_LED_RED;
 437:TkShell.c     ****     }
 438:TkShell.c     ****     else if (strcicmp(argv[i], "green") == 0)
 439:TkShell.c     ****     {
 440:TkShell.c     ****         ledIdx = LM_LED_GREEN;
 441:TkShell.c     ****     }
 442:TkShell.c     ****     else if (strcicmp(argv[i], "blue") == 0)
 443:TkShell.c     ****     {
 444:TkShell.c     ****         ledIdx = LM_LED_BLUE;
 445:TkShell.c     ****     }
 446:TkShell.c     ****     else
 447:TkShell.c     ****     {
 448:TkShell.c     ****         PRINTF("Invalid color %s, must be red|green|blue\n", argv[i]);
 449:TkShell.c     ****         return -2;
 450:TkShell.c     ****     }
 451:TkShell.c     ****     LedManagerStopOverride(ledIdx);
 452:TkShell.c     ****     
 453:TkShell.c     ****     PRINTF("> led:ok\n");
ARM GAS  C:\Users\TERENC~1\AppData\Local\Temp\cc1rRXTX.s 			page 20


 454:TkShell.c     **** 
 455:TkShell.c     ****     return 0;
 456:TkShell.c     **** }
 457:TkShell.c     **** 
 458:TkShell.c     **** TK_SHELL_METHOD(cal, print)
 459:TkShell.c     **** {
 583              		.loc 1 459 0
 584              		.cfi_startproc
 585              		@ args = 0, pretend = 0, frame = 0
 586              		@ frame_needed = 0, uses_anonymous_args = 0
 587              	.LVL86:
 588 0000 10B5     		push	{r4, lr}
 589              		.cfi_def_cfa_offset 8
 590              		.cfi_offset 4, -8
 591              		.cfi_offset 14, -4
 460:TkShell.c     ****     PRINTF("sign = 0x%08X\n", (unsigned int)cal_data->signature);
 592              		.loc 1 460 0
 593 0002 FFF7FEFF 		bl	USBUART_GetConfiguration
 594              	.LVL87:
 595 0006 0028     		cmp	r0, #0
 596 0008 0ED0     		beq	.L44
 597              	.L45:
 598              		.loc 1 460 0 is_stmt 0 discriminator 1
 599 000a FFF7FEFF 		bl	USBUART_CDCIsReady
 600              	.LVL88:
 601 000e 0028     		cmp	r0, #0
 602 0010 FBD0     		beq	.L45
 603              		.loc 1 460 0 discriminator 2
 604 0012 534B     		ldr	r3, .L62
 605 0014 1B68     		ldr	r3, [r3]
 606 0016 1A68     		ldr	r2, [r3]
 607 0018 524C     		ldr	r4, .L62+4
 608 001a 5349     		ldr	r1, .L62+8
 609 001c 2000     		movs	r0, r4
 610 001e FFF7FEFF 		bl	sprintf
 611              	.LVL89:
 612 0022 2000     		movs	r0, r4
 613 0024 FFF7FEFF 		bl	USBUART_PutString
 614              	.LVL90:
 615              	.L44:
 461:TkShell.c     ****     PRINTF("ctr = %lu\n", cal_data->counter);
 616              		.loc 1 461 0 is_stmt 1
 617 0028 FFF7FEFF 		bl	USBUART_GetConfiguration
 618              	.LVL91:
 619 002c 0028     		cmp	r0, #0
 620 002e 0ED0     		beq	.L46
 621              	.L47:
 622              		.loc 1 461 0 is_stmt 0 discriminator 1
 623 0030 FFF7FEFF 		bl	USBUART_CDCIsReady
 624              	.LVL92:
 625 0034 0028     		cmp	r0, #0
 626 0036 FBD0     		beq	.L47
 627              		.loc 1 461 0 discriminator 2
 628 0038 494B     		ldr	r3, .L62
 629 003a 1B68     		ldr	r3, [r3]
 630 003c 5A68     		ldr	r2, [r3, #4]
 631 003e 494C     		ldr	r4, .L62+4
ARM GAS  C:\Users\TERENC~1\AppData\Local\Temp\cc1rRXTX.s 			page 21


 632 0040 4A49     		ldr	r1, .L62+12
 633 0042 2000     		movs	r0, r4
 634 0044 FFF7FEFF 		bl	sprintf
 635              	.LVL93:
 636 0048 2000     		movs	r0, r4
 637 004a FFF7FEFF 		bl	USBUART_PutString
 638              	.LVL94:
 639              	.L46:
 462:TkShell.c     ****     PRINTF("adc_min[R] = %d\n", cal_data->adc_min[vol_ctrl_right]);
 640              		.loc 1 462 0 is_stmt 1
 641 004e FFF7FEFF 		bl	USBUART_GetConfiguration
 642              	.LVL95:
 643 0052 0028     		cmp	r0, #0
 644 0054 0FD0     		beq	.L48
 645              	.L49:
 646              		.loc 1 462 0 is_stmt 0 discriminator 1
 647 0056 FFF7FEFF 		bl	USBUART_CDCIsReady
 648              	.LVL96:
 649 005a 0028     		cmp	r0, #0
 650 005c FBD0     		beq	.L49
 651              		.loc 1 462 0 discriminator 2
 652 005e 404B     		ldr	r3, .L62
 653 0060 1B68     		ldr	r3, [r3]
 654 0062 0822     		movs	r2, #8
 655 0064 9A5E     		ldrsh	r2, [r3, r2]
 656 0066 3F4C     		ldr	r4, .L62+4
 657 0068 4149     		ldr	r1, .L62+16
 658 006a 2000     		movs	r0, r4
 659 006c FFF7FEFF 		bl	sprintf
 660              	.LVL97:
 661 0070 2000     		movs	r0, r4
 662 0072 FFF7FEFF 		bl	USBUART_PutString
 663              	.LVL98:
 664              	.L48:
 463:TkShell.c     ****     PRINTF("adc_max[R] = %d\n", cal_data->adc_max[vol_ctrl_right]);
 665              		.loc 1 463 0 is_stmt 1
 666 0076 FFF7FEFF 		bl	USBUART_GetConfiguration
 667              	.LVL99:
 668 007a 0028     		cmp	r0, #0
 669 007c 0FD0     		beq	.L50
 670              	.L51:
 671              		.loc 1 463 0 is_stmt 0 discriminator 1
 672 007e FFF7FEFF 		bl	USBUART_CDCIsReady
 673              	.LVL100:
 674 0082 0028     		cmp	r0, #0
 675 0084 FBD0     		beq	.L51
 676              		.loc 1 463 0 discriminator 2
 677 0086 364B     		ldr	r3, .L62
 678 0088 1B68     		ldr	r3, [r3]
 679 008a 0C22     		movs	r2, #12
 680 008c 9A5E     		ldrsh	r2, [r3, r2]
 681 008e 354C     		ldr	r4, .L62+4
 682 0090 3849     		ldr	r1, .L62+20
 683 0092 2000     		movs	r0, r4
 684 0094 FFF7FEFF 		bl	sprintf
 685              	.LVL101:
 686 0098 2000     		movs	r0, r4
ARM GAS  C:\Users\TERENC~1\AppData\Local\Temp\cc1rRXTX.s 			page 22


 687 009a FFF7FEFF 		bl	USBUART_PutString
 688              	.LVL102:
 689              	.L50:
 464:TkShell.c     ****     PRINTF("adc_min[L] = %d\n", cal_data->adc_min[vol_ctrl_left]);
 690              		.loc 1 464 0 is_stmt 1
 691 009e FFF7FEFF 		bl	USBUART_GetConfiguration
 692              	.LVL103:
 693 00a2 0028     		cmp	r0, #0
 694 00a4 0FD0     		beq	.L52
 695              	.L53:
 696              		.loc 1 464 0 is_stmt 0 discriminator 1
 697 00a6 FFF7FEFF 		bl	USBUART_CDCIsReady
 698              	.LVL104:
 699 00aa 0028     		cmp	r0, #0
 700 00ac FBD0     		beq	.L53
 701              		.loc 1 464 0 discriminator 2
 702 00ae 2C4B     		ldr	r3, .L62
 703 00b0 1B68     		ldr	r3, [r3]
 704 00b2 0A22     		movs	r2, #10
 705 00b4 9A5E     		ldrsh	r2, [r3, r2]
 706 00b6 2B4C     		ldr	r4, .L62+4
 707 00b8 2F49     		ldr	r1, .L62+24
 708 00ba 2000     		movs	r0, r4
 709 00bc FFF7FEFF 		bl	sprintf
 710              	.LVL105:
 711 00c0 2000     		movs	r0, r4
 712 00c2 FFF7FEFF 		bl	USBUART_PutString
 713              	.LVL106:
 714              	.L52:
 465:TkShell.c     ****     PRINTF("adc_max[L] = %d\n", cal_data->adc_max[vol_ctrl_left]);
 715              		.loc 1 465 0 is_stmt 1
 716 00c6 FFF7FEFF 		bl	USBUART_GetConfiguration
 717              	.LVL107:
 718 00ca 0028     		cmp	r0, #0
 719 00cc 0FD0     		beq	.L54
 720              	.L55:
 721              		.loc 1 465 0 is_stmt 0 discriminator 1
 722 00ce FFF7FEFF 		bl	USBUART_CDCIsReady
 723              	.LVL108:
 724 00d2 0028     		cmp	r0, #0
 725 00d4 FBD0     		beq	.L55
 726              		.loc 1 465 0 discriminator 2
 727 00d6 224B     		ldr	r3, .L62
 728 00d8 1B68     		ldr	r3, [r3]
 729 00da 0E22     		movs	r2, #14
 730 00dc 9A5E     		ldrsh	r2, [r3, r2]
 731 00de 214C     		ldr	r4, .L62+4
 732 00e0 2649     		ldr	r1, .L62+28
 733 00e2 2000     		movs	r0, r4
 734 00e4 FFF7FEFF 		bl	sprintf
 735              	.LVL109:
 736 00e8 2000     		movs	r0, r4
 737 00ea FFF7FEFF 		bl	USBUART_PutString
 738              	.LVL110:
 739              	.L54:
 466:TkShell.c     **** 
 467:TkShell.c     ****     PRINTF("led_max_brightness = %d\n", cal_data->led_max_brightness);
ARM GAS  C:\Users\TERENC~1\AppData\Local\Temp\cc1rRXTX.s 			page 23


 740              		.loc 1 467 0 is_stmt 1
 741 00ee FFF7FEFF 		bl	USBUART_GetConfiguration
 742              	.LVL111:
 743 00f2 0028     		cmp	r0, #0
 744 00f4 0ED0     		beq	.L56
 745              	.L57:
 746              		.loc 1 467 0 is_stmt 0 discriminator 1
 747 00f6 FFF7FEFF 		bl	USBUART_CDCIsReady
 748              	.LVL112:
 749 00fa 0028     		cmp	r0, #0
 750 00fc FBD0     		beq	.L57
 751              		.loc 1 467 0 discriminator 2
 752 00fe 184B     		ldr	r3, .L62
 753 0100 1B68     		ldr	r3, [r3]
 754 0102 1A7C     		ldrb	r2, [r3, #16]
 755 0104 174C     		ldr	r4, .L62+4
 756 0106 1E49     		ldr	r1, .L62+32
 757 0108 2000     		movs	r0, r4
 758 010a FFF7FEFF 		bl	sprintf
 759              	.LVL113:
 760 010e 2000     		movs	r0, r4
 761 0110 FFF7FEFF 		bl	USBUART_PutString
 762              	.LVL114:
 763              	.L56:
 468:TkShell.c     ****     PRINTF("debug_mask = 0x%02X\n", (unsigned int)cal_data->debug_mask);
 764              		.loc 1 468 0 is_stmt 1
 765 0114 FFF7FEFF 		bl	USBUART_GetConfiguration
 766              	.LVL115:
 767 0118 0028     		cmp	r0, #0
 768 011a 0ED0     		beq	.L58
 769              	.L59:
 770              		.loc 1 468 0 is_stmt 0 discriminator 1
 771 011c FFF7FEFF 		bl	USBUART_CDCIsReady
 772              	.LVL116:
 773 0120 0028     		cmp	r0, #0
 774 0122 FBD0     		beq	.L59
 775              		.loc 1 468 0 discriminator 2
 776 0124 0E4B     		ldr	r3, .L62
 777 0126 1B68     		ldr	r3, [r3]
 778 0128 5A7C     		ldrb	r2, [r3, #17]
 779 012a 0E4C     		ldr	r4, .L62+4
 780 012c 1549     		ldr	r1, .L62+36
 781 012e 2000     		movs	r0, r4
 782 0130 FFF7FEFF 		bl	sprintf
 783              	.LVL117:
 784 0134 2000     		movs	r0, r4
 785 0136 FFF7FEFF 		bl	USBUART_PutString
 786              	.LVL118:
 787              	.L58:
 469:TkShell.c     ****     PRINTF("> cal:ok\n");
 788              		.loc 1 469 0 is_stmt 1
 789 013a FFF7FEFF 		bl	USBUART_GetConfiguration
 790              	.LVL119:
 791 013e 0028     		cmp	r0, #0
 792 0140 0CD0     		beq	.L60
 793              	.L61:
 794              		.loc 1 469 0 is_stmt 0 discriminator 1
ARM GAS  C:\Users\TERENC~1\AppData\Local\Temp\cc1rRXTX.s 			page 24


 795 0142 FFF7FEFF 		bl	USBUART_CDCIsReady
 796              	.LVL120:
 797 0146 0028     		cmp	r0, #0
 798 0148 FBD0     		beq	.L61
 799              		.loc 1 469 0 discriminator 2
 800 014a 064C     		ldr	r4, .L62+4
 801 014c 0A22     		movs	r2, #10
 802 014e 0E49     		ldr	r1, .L62+40
 803 0150 2000     		movs	r0, r4
 804 0152 FFF7FEFF 		bl	memcpy
 805              	.LVL121:
 806 0156 2000     		movs	r0, r4
 807 0158 FFF7FEFF 		bl	USBUART_PutString
 808              	.LVL122:
 809              	.L60:
 470:TkShell.c     **** 
 471:TkShell.c     ****     return 0;    
 472:TkShell.c     **** }
 810              		.loc 1 472 0 is_stmt 1
 811 015c 0020     		movs	r0, #0
 812              		@ sp needed
 813 015e 10BD     		pop	{r4, pc}
 814              	.L63:
 815              		.align	2
 816              	.L62:
 817 0160 00000000 		.word	cal_data
 818 0164 00000000 		.word	gbuf
 819 0168 5C000000 		.word	.LC25
 820 016c 6C000000 		.word	.LC28
 821 0170 78000000 		.word	.LC30
 822 0174 8C000000 		.word	.LC32
 823 0178 A0000000 		.word	.LC34
 824 017c B4000000 		.word	.LC36
 825 0180 C8000000 		.word	.LC38
 826 0184 E4000000 		.word	.LC40
 827 0188 FC000000 		.word	.LC42
 828              		.cfi_endproc
 829              	.LFE17:
 830              		.size	__tk_shell_cal_print, .-__tk_shell_cal_print
 831              		.section	.text.__tk_shell_wm_vol_set,"ax",%progbits
 832              		.align	2
 833              		.global	__tk_shell_wm_vol_set
 834              		.code	16
 835              		.thumb_func
 836              		.type	__tk_shell_wm_vol_set, %function
 837              	__tk_shell_wm_vol_set:
 838              	.LFB6:
 233:TkShell.c     ****     int vol;
 839              		.loc 1 233 0
 840              		.cfi_startproc
 841              		@ args = 0, pretend = 0, frame = 0
 842              		@ frame_needed = 0, uses_anonymous_args = 0
 843              	.LVL123:
 844 0000 70B5     		push	{r4, r5, r6, lr}
 845              		.cfi_def_cfa_offset 16
 846              		.cfi_offset 4, -16
 847              		.cfi_offset 5, -12
ARM GAS  C:\Users\TERENC~1\AppData\Local\Temp\cc1rRXTX.s 			page 25


 848              		.cfi_offset 6, -8
 849              		.cfi_offset 14, -4
 850              	.LVL124:
 240:TkShell.c     ****     {
 851              		.loc 1 240 0
 852 0002 0328     		cmp	r0, #3
 853 0004 13D0     		beq	.L65
 242:TkShell.c     ****         return -1;
 854              		.loc 1 242 0
 855 0006 FFF7FEFF 		bl	USBUART_GetConfiguration
 856              	.LVL125:
 857 000a 0028     		cmp	r0, #0
 858 000c 3ED0     		beq	.L71
 859              	.L67:
 242:TkShell.c     ****         return -1;
 860              		.loc 1 242 0 is_stmt 0 discriminator 1
 861 000e FFF7FEFF 		bl	USBUART_CDCIsReady
 862              	.LVL126:
 863 0012 0028     		cmp	r0, #0
 864 0014 FBD0     		beq	.L67
 242:TkShell.c     ****         return -1;
 865              		.loc 1 242 0 discriminator 2
 866 0016 214C     		ldr	r4, .L74
 867 0018 1E22     		movs	r2, #30
 868 001a 2149     		ldr	r1, .L74+4
 869 001c 2000     		movs	r0, r4
 870 001e FFF7FEFF 		bl	memcpy
 871              	.LVL127:
 872 0022 2000     		movs	r0, r4
 873 0024 FFF7FEFF 		bl	USBUART_PutString
 874              	.LVL128:
 243:TkShell.c     ****     }
 875              		.loc 1 243 0 is_stmt 1 discriminator 2
 876 0028 0120     		movs	r0, #1
 877 002a 4042     		rsbs	r0, r0, #0
 878 002c 35E0     		b	.L66
 879              	.LVL129:
 880              	.L65:
 246:TkShell.c     **** 
 881              		.loc 1 246 0
 882 002e 8868     		ldr	r0, [r1, #8]
 883              	.LVL130:
 884 0030 FFF7FEFF 		bl	atoi
 885              	.LVL131:
 248:TkShell.c     ****     {
 886              		.loc 1 248 0
 887 0034 C0B2     		uxtb	r0, r0
 888              	.LVL132:
 889 0036 FFF7FEFF 		bl	Codec_AdjustBothHeadphoneVolume
 890              	.LVL133:
 891 003a 041E     		subs	r4, r0, #0
 892              	.LVL134:
 893 003c 12D1     		bne	.L68
 250:TkShell.c     ****     }
 894              		.loc 1 250 0
 895 003e FFF7FEFF 		bl	USBUART_GetConfiguration
 896              	.LVL135:
ARM GAS  C:\Users\TERENC~1\AppData\Local\Temp\cc1rRXTX.s 			page 26


 897 0042 0028     		cmp	r0, #0
 898 0044 25D0     		beq	.L72
 899              	.L69:
 250:TkShell.c     ****     }
 900              		.loc 1 250 0 is_stmt 0 discriminator 1
 901 0046 FFF7FEFF 		bl	USBUART_CDCIsReady
 902              	.LVL136:
 903 004a 0028     		cmp	r0, #0
 904 004c FBD0     		beq	.L69
 250:TkShell.c     ****     }
 905              		.loc 1 250 0 discriminator 2
 906 004e 134C     		ldr	r4, .L74
 907 0050 0922     		movs	r2, #9
 908 0052 1449     		ldr	r1, .L74+8
 909 0054 2000     		movs	r0, r4
 910 0056 FFF7FEFF 		bl	memcpy
 911              	.LVL137:
 912 005a 2000     		movs	r0, r4
 913 005c FFF7FEFF 		bl	USBUART_PutString
 914              	.LVL138:
 258:TkShell.c     **** }
 915              		.loc 1 258 0 is_stmt 1 discriminator 2
 916 0060 0020     		movs	r0, #0
 917 0062 1AE0     		b	.L66
 918              	.LVL139:
 919              	.L68:
 254:TkShell.c     ****         return -2;
 920              		.loc 1 254 0
 921 0064 FFF7FEFF 		bl	USBUART_GetConfiguration
 922              	.LVL140:
 923 0068 0028     		cmp	r0, #0
 924 006a 14D0     		beq	.L73
 925              	.L70:
 254:TkShell.c     ****         return -2;
 926              		.loc 1 254 0 is_stmt 0 discriminator 1
 927 006c FFF7FEFF 		bl	USBUART_CDCIsReady
 928              	.LVL141:
 929 0070 0028     		cmp	r0, #0
 930 0072 FBD0     		beq	.L70
 254:TkShell.c     ****         return -2;
 931              		.loc 1 254 0 discriminator 2
 932 0074 094D     		ldr	r5, .L74
 933 0076 2200     		movs	r2, r4
 934 0078 0B49     		ldr	r1, .L74+12
 935 007a 2800     		movs	r0, r5
 936 007c FFF7FEFF 		bl	sprintf
 937              	.LVL142:
 938 0080 2800     		movs	r0, r5
 939 0082 FFF7FEFF 		bl	USBUART_PutString
 940              	.LVL143:
 255:TkShell.c     ****     }
 941              		.loc 1 255 0 is_stmt 1 discriminator 2
 942 0086 0220     		movs	r0, #2
 943 0088 4042     		rsbs	r0, r0, #0
 944 008a 06E0     		b	.L66
 945              	.LVL144:
 946              	.L71:
ARM GAS  C:\Users\TERENC~1\AppData\Local\Temp\cc1rRXTX.s 			page 27


 243:TkShell.c     ****     }
 947              		.loc 1 243 0
 948 008c 0120     		movs	r0, #1
 949 008e 4042     		rsbs	r0, r0, #0
 950 0090 03E0     		b	.L66
 951              	.LVL145:
 952              	.L72:
 258:TkShell.c     **** }
 953              		.loc 1 258 0
 954 0092 0020     		movs	r0, #0
 955 0094 01E0     		b	.L66
 956              	.L73:
 255:TkShell.c     ****     }
 957              		.loc 1 255 0
 958 0096 0220     		movs	r0, #2
 959 0098 4042     		rsbs	r0, r0, #0
 960              	.LVL146:
 961              	.L66:
 259:TkShell.c     **** 
 962              		.loc 1 259 0
 963              		@ sp needed
 964 009a 70BD     		pop	{r4, r5, r6, pc}
 965              	.L75:
 966              		.align	2
 967              	.L74:
 968 009c 00000000 		.word	gbuf
 969 00a0 0C000000 		.word	.LC4
 970 00a4 08010000 		.word	.LC46
 971 00a8 14010000 		.word	.LC48
 972              		.cfi_endproc
 973              	.LFE6:
 974              		.size	__tk_shell_wm_vol_set, .-__tk_shell_wm_vol_set
 975              		.section	.text.__tk_shell_wm_vol_get,"ax",%progbits
 976              		.align	2
 977              		.global	__tk_shell_wm_vol_get
 978              		.code	16
 979              		.thumb_func
 980              		.type	__tk_shell_wm_vol_get, %function
 981              	__tk_shell_wm_vol_get:
 982              	.LFB7:
 262:TkShell.c     ****     PRINTF("> wm:ok %d\n", (int)Codec_GetHeadphoneVolume());
 983              		.loc 1 262 0
 984              		.cfi_startproc
 985              		@ args = 0, pretend = 0, frame = 0
 986              		@ frame_needed = 0, uses_anonymous_args = 0
 987              	.LVL147:
 988 0000 10B5     		push	{r4, lr}
 989              		.cfi_def_cfa_offset 8
 990              		.cfi_offset 4, -8
 991              		.cfi_offset 14, -4
 263:TkShell.c     **** 
 992              		.loc 1 263 0
 993 0002 FFF7FEFF 		bl	USBUART_GetConfiguration
 994              	.LVL148:
 995 0006 0028     		cmp	r0, #0
 996 0008 0ED0     		beq	.L77
 997              	.L78:
ARM GAS  C:\Users\TERENC~1\AppData\Local\Temp\cc1rRXTX.s 			page 28


 263:TkShell.c     **** 
 998              		.loc 1 263 0 is_stmt 0 discriminator 1
 999 000a FFF7FEFF 		bl	USBUART_CDCIsReady
 1000              	.LVL149:
 1001 000e 0028     		cmp	r0, #0
 1002 0010 FBD0     		beq	.L78
 263:TkShell.c     **** 
 1003              		.loc 1 263 0 discriminator 2
 1004 0012 FFF7FEFF 		bl	Codec_GetHeadphoneVolume
 1005              	.LVL150:
 1006 0016 0200     		movs	r2, r0
 1007 0018 044C     		ldr	r4, .L79
 1008 001a 0549     		ldr	r1, .L79+4
 1009 001c 2000     		movs	r0, r4
 1010 001e FFF7FEFF 		bl	sprintf
 1011              	.LVL151:
 1012 0022 2000     		movs	r0, r4
 1013 0024 FFF7FEFF 		bl	USBUART_PutString
 1014              	.LVL152:
 1015              	.L77:
 266:TkShell.c     **** 
 1016              		.loc 1 266 0 is_stmt 1
 1017 0028 0020     		movs	r0, #0
 1018              		@ sp needed
 1019 002a 10BD     		pop	{r4, pc}
 1020              	.L80:
 1021              		.align	2
 1022              	.L79:
 1023 002c 00000000 		.word	gbuf
 1024 0030 20010000 		.word	.LC50
 1025              		.cfi_endproc
 1026              	.LFE7:
 1027              		.size	__tk_shell_wm_vol_get, .-__tk_shell_wm_vol_get
 1028              		.section	.text.__tk_shell_wm_reg_wr,"ax",%progbits
 1029              		.align	2
 1030              		.global	__tk_shell_wm_reg_wr
 1031              		.code	16
 1032              		.thumb_func
 1033              		.type	__tk_shell_wm_reg_wr, %function
 1034              	__tk_shell_wm_reg_wr:
 1035              	.LFB8:
 269:TkShell.c     ****     int i = 2;
 1036              		.loc 1 269 0
 1037              		.cfi_startproc
 1038              		@ args = 0, pretend = 0, frame = 0
 1039              		@ frame_needed = 0, uses_anonymous_args = 0
 1040              	.LVL153:
 1041 0000 70B5     		push	{r4, r5, r6, lr}
 1042              		.cfi_def_cfa_offset 16
 1043              		.cfi_offset 4, -16
 1044              		.cfi_offset 5, -12
 1045              		.cfi_offset 6, -8
 1046              		.cfi_offset 14, -4
 1047 0002 0C00     		movs	r4, r1
 1048              	.LVL154:
 277:TkShell.c     ****     {
 1049              		.loc 1 277 0
ARM GAS  C:\Users\TERENC~1\AppData\Local\Temp\cc1rRXTX.s 			page 29


 1050 0004 0428     		cmp	r0, #4
 1051 0006 13D0     		beq	.L82
 279:TkShell.c     ****         return -1;
 1052              		.loc 1 279 0
 1053 0008 FFF7FEFF 		bl	USBUART_GetConfiguration
 1054              	.LVL155:
 1055 000c 0028     		cmp	r0, #0
 1056 000e 45D0     		beq	.L88
 1057              	.L84:
 279:TkShell.c     ****         return -1;
 1058              		.loc 1 279 0 is_stmt 0 discriminator 1
 1059 0010 FFF7FEFF 		bl	USBUART_CDCIsReady
 1060              	.LVL156:
 1061 0014 0028     		cmp	r0, #0
 1062 0016 FBD0     		beq	.L84
 279:TkShell.c     ****         return -1;
 1063              		.loc 1 279 0 discriminator 2
 1064 0018 244C     		ldr	r4, .L91
 1065              	.LVL157:
 1066 001a 1E22     		movs	r2, #30
 1067 001c 2449     		ldr	r1, .L91+4
 1068 001e 2000     		movs	r0, r4
 1069 0020 FFF7FEFF 		bl	memcpy
 1070              	.LVL158:
 1071 0024 2000     		movs	r0, r4
 1072 0026 FFF7FEFF 		bl	USBUART_PutString
 1073              	.LVL159:
 280:TkShell.c     ****     }
 1074              		.loc 1 280 0 is_stmt 1 discriminator 2
 1075 002a 0120     		movs	r0, #1
 1076 002c 4042     		rsbs	r0, r0, #0
 1077 002e 3CE0     		b	.L83
 1078              	.LVL160:
 1079              	.L82:
 283:TkShell.c     ****     data = strtoul(argv[i++], NULL, 16);
 1080              		.loc 1 283 0
 1081 0030 8868     		ldr	r0, [r1, #8]
 1082              	.LVL161:
 1083 0032 FFF7FEFF 		bl	atoi
 1084              	.LVL162:
 1085 0036 C5B2     		uxtb	r5, r0
 1086              	.LVL163:
 284:TkShell.c     ****     
 1087              		.loc 1 284 0
 1088 0038 E068     		ldr	r0, [r4, #12]
 1089 003a 1022     		movs	r2, #16
 1090 003c 0021     		movs	r1, #0
 1091 003e FFF7FEFF 		bl	strtoul
 1092              	.LVL164:
 1093 0042 81B2     		uxth	r1, r0
 1094              	.LVL165:
 286:TkShell.c     ****     {
 1095              		.loc 1 286 0
 1096 0044 2800     		movs	r0, r5
 1097 0046 FFF7FEFF 		bl	Codec_SendData
 1098              	.LVL166:
 1099 004a 041E     		subs	r4, r0, #0
ARM GAS  C:\Users\TERENC~1\AppData\Local\Temp\cc1rRXTX.s 			page 30


 1100              	.LVL167:
 1101 004c 12D1     		bne	.L85
 288:TkShell.c     ****     }
 1102              		.loc 1 288 0
 1103 004e FFF7FEFF 		bl	USBUART_GetConfiguration
 1104              	.LVL168:
 1105 0052 0028     		cmp	r0, #0
 1106 0054 25D0     		beq	.L89
 1107              	.L86:
 288:TkShell.c     ****     }
 1108              		.loc 1 288 0 is_stmt 0 discriminator 1
 1109 0056 FFF7FEFF 		bl	USBUART_CDCIsReady
 1110              	.LVL169:
 1111 005a 0028     		cmp	r0, #0
 1112 005c FBD0     		beq	.L86
 288:TkShell.c     ****     }
 1113              		.loc 1 288 0 discriminator 2
 1114 005e 134C     		ldr	r4, .L91
 1115              	.LVL170:
 1116 0060 0922     		movs	r2, #9
 1117 0062 1449     		ldr	r1, .L91+8
 1118 0064 2000     		movs	r0, r4
 1119 0066 FFF7FEFF 		bl	memcpy
 1120              	.LVL171:
 1121 006a 2000     		movs	r0, r4
 1122 006c FFF7FEFF 		bl	USBUART_PutString
 1123              	.LVL172:
 296:TkShell.c     **** }
 1124              		.loc 1 296 0 is_stmt 1 discriminator 2
 1125 0070 0020     		movs	r0, #0
 1126 0072 1AE0     		b	.L83
 1127              	.LVL173:
 1128              	.L85:
 292:TkShell.c     ****         return -2;
 1129              		.loc 1 292 0
 1130 0074 FFF7FEFF 		bl	USBUART_GetConfiguration
 1131              	.LVL174:
 1132 0078 0028     		cmp	r0, #0
 1133 007a 14D0     		beq	.L90
 1134              	.L87:
 292:TkShell.c     ****         return -2;
 1135              		.loc 1 292 0 is_stmt 0 discriminator 1
 1136 007c FFF7FEFF 		bl	USBUART_CDCIsReady
 1137              	.LVL175:
 1138 0080 0028     		cmp	r0, #0
 1139 0082 FBD0     		beq	.L87
 292:TkShell.c     ****         return -2;
 1140              		.loc 1 292 0 discriminator 2
 1141 0084 094D     		ldr	r5, .L91
 1142              	.LVL176:
 1143 0086 2200     		movs	r2, r4
 1144 0088 0B49     		ldr	r1, .L91+12
 1145 008a 2800     		movs	r0, r5
 1146 008c FFF7FEFF 		bl	sprintf
 1147              	.LVL177:
 1148 0090 2800     		movs	r0, r5
 1149 0092 FFF7FEFF 		bl	USBUART_PutString
ARM GAS  C:\Users\TERENC~1\AppData\Local\Temp\cc1rRXTX.s 			page 31


 1150              	.LVL178:
 293:TkShell.c     ****     }
 1151              		.loc 1 293 0 is_stmt 1 discriminator 2
 1152 0096 0220     		movs	r0, #2
 1153 0098 4042     		rsbs	r0, r0, #0
 1154 009a 06E0     		b	.L83
 1155              	.LVL179:
 1156              	.L88:
 280:TkShell.c     ****     }
 1157              		.loc 1 280 0
 1158 009c 0120     		movs	r0, #1
 1159 009e 4042     		rsbs	r0, r0, #0
 1160 00a0 03E0     		b	.L83
 1161              	.LVL180:
 1162              	.L89:
 296:TkShell.c     **** }
 1163              		.loc 1 296 0
 1164 00a2 0020     		movs	r0, #0
 1165 00a4 01E0     		b	.L83
 1166              	.L90:
 293:TkShell.c     ****     }
 1167              		.loc 1 293 0
 1168 00a6 0220     		movs	r0, #2
 1169 00a8 4042     		rsbs	r0, r0, #0
 1170              	.LVL181:
 1171              	.L83:
 297:TkShell.c     **** 
 1172              		.loc 1 297 0
 1173              		@ sp needed
 1174 00aa 70BD     		pop	{r4, r5, r6, pc}
 1175              	.L92:
 1176              		.align	2
 1177              	.L91:
 1178 00ac 00000000 		.word	gbuf
 1179 00b0 0C000000 		.word	.LC4
 1180 00b4 08010000 		.word	.LC46
 1181 00b8 14010000 		.word	.LC48
 1182              		.cfi_endproc
 1183              	.LFE8:
 1184              		.size	__tk_shell_wm_reg_wr, .-__tk_shell_wm_reg_wr
 1185              		.section	.text.__tk_shell_wm_reg_rd,"ax",%progbits
 1186              		.align	2
 1187              		.global	__tk_shell_wm_reg_rd
 1188              		.code	16
 1189              		.thumb_func
 1190              		.type	__tk_shell_wm_reg_rd, %function
 1191              	__tk_shell_wm_reg_rd:
 1192              	.LFB9:
 300:TkShell.c     ****     int i = 2;
 1193              		.loc 1 300 0
 1194              		.cfi_startproc
 1195              		@ args = 0, pretend = 0, frame = 0
 1196              		@ frame_needed = 0, uses_anonymous_args = 0
 1197              	.LVL182:
 1198 0000 10B5     		push	{r4, lr}
 1199              		.cfi_def_cfa_offset 8
 1200              		.cfi_offset 4, -8
ARM GAS  C:\Users\TERENC~1\AppData\Local\Temp\cc1rRXTX.s 			page 32


 1201              		.cfi_offset 14, -4
 1202              	.LVL183:
 306:TkShell.c     ****     {
 1203              		.loc 1 306 0
 1204 0002 0328     		cmp	r0, #3
 1205 0004 13D0     		beq	.L94
 308:TkShell.c     ****         return -1;
 1206              		.loc 1 308 0
 1207 0006 FFF7FEFF 		bl	USBUART_GetConfiguration
 1208              	.LVL184:
 1209 000a 0028     		cmp	r0, #0
 1210 000c 29D0     		beq	.L98
 1211              	.L96:
 308:TkShell.c     ****         return -1;
 1212              		.loc 1 308 0 is_stmt 0 discriminator 1
 1213 000e FFF7FEFF 		bl	USBUART_CDCIsReady
 1214              	.LVL185:
 1215 0012 0028     		cmp	r0, #0
 1216 0014 FBD0     		beq	.L96
 308:TkShell.c     ****         return -1;
 1217              		.loc 1 308 0 discriminator 2
 1218 0016 154C     		ldr	r4, .L100
 1219 0018 1E22     		movs	r2, #30
 1220 001a 1549     		ldr	r1, .L100+4
 1221 001c 2000     		movs	r0, r4
 1222 001e FFF7FEFF 		bl	memcpy
 1223              	.LVL186:
 1224 0022 2000     		movs	r0, r4
 1225 0024 FFF7FEFF 		bl	USBUART_PutString
 1226              	.LVL187:
 309:TkShell.c     ****     }
 1227              		.loc 1 309 0 is_stmt 1 discriminator 2
 1228 0028 0120     		movs	r0, #1
 1229 002a 4042     		rsbs	r0, r0, #0
 1230 002c 1DE0     		b	.L95
 1231              	.LVL188:
 1232              	.L94:
 312:TkShell.c     ****     
 1233              		.loc 1 312 0
 1234 002e 8868     		ldr	r0, [r1, #8]
 1235              	.LVL189:
 1236 0030 FFF7FEFF 		bl	atoi
 1237              	.LVL190:
 1238 0034 C4B2     		uxtb	r4, r0
 1239              	.LVL191:
 314:TkShell.c     ****     
 1240              		.loc 1 314 0
 1241 0036 FFF7FEFF 		bl	USBUART_GetConfiguration
 1242              	.LVL192:
 1243 003a 0028     		cmp	r0, #0
 1244 003c 14D0     		beq	.L99
 1245              	.L97:
 314:TkShell.c     ****     
 1246              		.loc 1 314 0 is_stmt 0 discriminator 1
 1247 003e FFF7FEFF 		bl	USBUART_CDCIsReady
 1248              	.LVL193:
 1249 0042 0028     		cmp	r0, #0
ARM GAS  C:\Users\TERENC~1\AppData\Local\Temp\cc1rRXTX.s 			page 33


 1250 0044 FBD0     		beq	.L97
 314:TkShell.c     ****     
 1251              		.loc 1 314 0 discriminator 2
 1252 0046 2000     		movs	r0, r4
 1253 0048 FFF7FEFF 		bl	Codec_GetData
 1254              	.LVL194:
 1255 004c 0200     		movs	r2, r0
 1256 004e 074C     		ldr	r4, .L100
 1257              	.LVL195:
 1258 0050 0849     		ldr	r1, .L100+8
 1259 0052 2000     		movs	r0, r4
 1260 0054 FFF7FEFF 		bl	sprintf
 1261              	.LVL196:
 1262 0058 2000     		movs	r0, r4
 1263 005a FFF7FEFF 		bl	USBUART_PutString
 1264              	.LVL197:
 316:TkShell.c     **** }
 1265              		.loc 1 316 0 is_stmt 1 discriminator 2
 1266 005e 0020     		movs	r0, #0
 1267 0060 03E0     		b	.L95
 1268              	.LVL198:
 1269              	.L98:
 309:TkShell.c     ****     }
 1270              		.loc 1 309 0
 1271 0062 0120     		movs	r0, #1
 1272 0064 4042     		rsbs	r0, r0, #0
 1273 0066 00E0     		b	.L95
 1274              	.LVL199:
 1275              	.L99:
 316:TkShell.c     **** }
 1276              		.loc 1 316 0
 1277 0068 0020     		movs	r0, #0
 1278              	.LVL200:
 1279              	.L95:
 317:TkShell.c     **** 
 1280              		.loc 1 317 0
 1281              		@ sp needed
 1282 006a 10BD     		pop	{r4, pc}
 1283              	.L101:
 1284              		.align	2
 1285              	.L100:
 1286 006c 00000000 		.word	gbuf
 1287 0070 0C000000 		.word	.LC4
 1288 0074 2C010000 		.word	.LC59
 1289              		.cfi_endproc
 1290              	.LFE9:
 1291              		.size	__tk_shell_wm_reg_rd, .-__tk_shell_wm_reg_rd
 1292              		.section	.text.__tk_shell_sys_reset,"ax",%progbits
 1293              		.align	2
 1294              		.global	__tk_shell_sys_reset
 1295              		.code	16
 1296              		.thumb_func
 1297              		.type	__tk_shell_sys_reset, %function
 1298              	__tk_shell_sys_reset:
 1299              	.LFB13:
 365:TkShell.c     ****     CySoftwareReset();
 1300              		.loc 1 365 0
ARM GAS  C:\Users\TERENC~1\AppData\Local\Temp\cc1rRXTX.s 			page 34


 1301              		.cfi_startproc
 1302              		@ args = 0, pretend = 0, frame = 0
 1303              		@ frame_needed = 0, uses_anonymous_args = 0
 1304              	.LVL201:
 1305 0000 10B5     		push	{r4, lr}
 1306              		.cfi_def_cfa_offset 8
 1307              		.cfi_offset 4, -8
 1308              		.cfi_offset 14, -4
 366:TkShell.c     ****     
 1309              		.loc 1 366 0
 1310 0002 FFF7FEFF 		bl	CySoftwareReset
 1311              	.LVL202:
 369:TkShell.c     **** 
 1312              		.loc 1 369 0
 1313 0006 0020     		movs	r0, #0
 1314              		@ sp needed
 1315 0008 10BD     		pop	{r4, pc}
 1316              		.cfi_endproc
 1317              	.LFE13:
 1318              		.size	__tk_shell_sys_reset, .-__tk_shell_sys_reset
 1319 000a C046     		.section	.text.__tk_shell_cal_save,"ax",%progbits
 1320              		.align	2
 1321              		.global	__tk_shell_cal_save
 1322              		.code	16
 1323              		.thumb_func
 1324              		.type	__tk_shell_cal_save, %function
 1325              	__tk_shell_cal_save:
 1326              	.LFB19:
 473:TkShell.c     **** 
 474:TkShell.c     **** TK_SHELL_METHOD(cal, set)
 475:TkShell.c     **** {
 476:TkShell.c     ****     int i = 2;
 477:TkShell.c     ****     
 478:TkShell.c     ****     argc -= i;
 479:TkShell.c     ****     
 480:TkShell.c     ****     if (argc == 0)
 481:TkShell.c     ****     {
 482:TkShell.c     ****         PRINTF("Invalid number of arguments!\n");
 483:TkShell.c     ****         return -1;
 484:TkShell.c     ****     }
 485:TkShell.c     ****     
 486:TkShell.c     ****     if (strcicmp(argv[i], "led_max_brightness") == 0)
 487:TkShell.c     ****     {
 488:TkShell.c     ****         cal_data->led_max_brightness = atoi(argv[++i]);
 489:TkShell.c     ****     }
 490:TkShell.c     ****     else if (strcicmp(argv[i], "adc_min_l") == 0)
 491:TkShell.c     ****     {
 492:TkShell.c     ****         cal_data->adc_min[vol_ctrl_left] = atoi(argv[++i]);
 493:TkShell.c     ****     }
 494:TkShell.c     ****     else if (strcicmp(argv[i], "debug_mask") == 0)
 495:TkShell.c     ****     {
 496:TkShell.c     ****         cal_data->debug_mask = strtoul(argv[++i], NULL, 16);
 497:TkShell.c     ****     }
 498:TkShell.c     ****     return 0;
 499:TkShell.c     **** }
 500:TkShell.c     **** 
 501:TkShell.c     **** TK_SHELL_METHOD(cal, save)
ARM GAS  C:\Users\TERENC~1\AppData\Local\Temp\cc1rRXTX.s 			page 35


 502:TkShell.c     **** {
 1327              		.loc 1 502 0
 1328              		.cfi_startproc
 1329              		@ args = 0, pretend = 0, frame = 0
 1330              		@ frame_needed = 0, uses_anonymous_args = 0
 1331              	.LVL203:
 1332 0000 10B5     		push	{r4, lr}
 1333              		.cfi_def_cfa_offset 8
 1334              		.cfi_offset 4, -8
 1335              		.cfi_offset 14, -4
 503:TkShell.c     ****     PRINTF("> cal:ok %d\n", CalibrationSave());
 1336              		.loc 1 503 0
 1337 0002 FFF7FEFF 		bl	USBUART_GetConfiguration
 1338              	.LVL204:
 1339 0006 0028     		cmp	r0, #0
 1340 0008 0ED0     		beq	.L104
 1341              	.L105:
 1342              		.loc 1 503 0 is_stmt 0 discriminator 1
 1343 000a FFF7FEFF 		bl	USBUART_CDCIsReady
 1344              	.LVL205:
 1345 000e 0028     		cmp	r0, #0
 1346 0010 FBD0     		beq	.L105
 1347              		.loc 1 503 0 discriminator 2
 1348 0012 FFF7FEFF 		bl	CalibrationSave
 1349              	.LVL206:
 1350 0016 0200     		movs	r2, r0
 1351 0018 044C     		ldr	r4, .L106
 1352 001a 0549     		ldr	r1, .L106+4
 1353 001c 2000     		movs	r0, r4
 1354 001e FFF7FEFF 		bl	sprintf
 1355              	.LVL207:
 1356 0022 2000     		movs	r0, r4
 1357 0024 FFF7FEFF 		bl	USBUART_PutString
 1358              	.LVL208:
 1359              	.L104:
 504:TkShell.c     ****     return 0;
 505:TkShell.c     **** }
 1360              		.loc 1 505 0 is_stmt 1
 1361 0028 0020     		movs	r0, #0
 1362              		@ sp needed
 1363 002a 10BD     		pop	{r4, pc}
 1364              	.L107:
 1365              		.align	2
 1366              	.L106:
 1367 002c 00000000 		.word	gbuf
 1368 0030 3C010000 		.word	.LC61
 1369              		.cfi_endproc
 1370              	.LFE19:
 1371              		.size	__tk_shell_cal_save, .-__tk_shell_cal_save
 1372              		.section	.text.strcicmp,"ax",%progbits
 1373              		.align	2
 1374              		.global	strcicmp
 1375              		.code	16
 1376              		.thumb_func
 1377              		.type	strcicmp, %function
 1378              	strcicmp:
 1379              	.LFB2:
ARM GAS  C:\Users\TERENC~1\AppData\Local\Temp\cc1rRXTX.s 			page 36


 148:TkShell.c     ****     for (;; a++, b++)
 1380              		.loc 1 148 0
 1381              		.cfi_startproc
 1382              		@ args = 0, pretend = 0, frame = 0
 1383              		@ frame_needed = 0, uses_anonymous_args = 0
 1384              	.LVL209:
 1385 0000 70B5     		push	{r4, r5, r6, lr}
 1386              		.cfi_def_cfa_offset 16
 1387              		.cfi_offset 4, -16
 1388              		.cfi_offset 5, -12
 1389              		.cfi_offset 6, -8
 1390              		.cfi_offset 14, -4
 1391              	.L115:
 1392              	.LBB2:
 1393              	.LBB3:
 151:TkShell.c     ****         if (d != 0 || !*a)
 1394              		.loc 1 151 0
 1395 0002 0578     		ldrb	r5, [r0]
 1396              	.LVL210:
 1397 0004 0E4B     		ldr	r3, .L117
 1398 0006 1A68     		ldr	r2, [r3]
 1399 0008 5319     		adds	r3, r2, r5
 1400 000a 5B78     		ldrb	r3, [r3, #1]
 1401 000c 0324     		movs	r4, #3
 1402 000e 2340     		ands	r3, r4
 1403 0010 012B     		cmp	r3, #1
 1404 0012 02D1     		bne	.L109
 151:TkShell.c     ****         if (d != 0 || !*a)
 1405              		.loc 1 151 0 is_stmt 0 discriminator 1
 1406 0014 2C00     		movs	r4, r5
 1407 0016 2034     		adds	r4, r4, #32
 1408 0018 00E0     		b	.L110
 1409              	.L109:
 151:TkShell.c     ****         if (d != 0 || !*a)
 1410              		.loc 1 151 0 discriminator 2
 1411 001a 2C00     		movs	r4, r5
 1412              	.L110:
 1413              	.LBE3:
 1414              	.LBB4:
 151:TkShell.c     ****         if (d != 0 || !*a)
 1415              		.loc 1 151 0 discriminator 4
 1416 001c 0B78     		ldrb	r3, [r1]
 1417              	.LVL211:
 1418 001e D218     		adds	r2, r2, r3
 1419 0020 5278     		ldrb	r2, [r2, #1]
 1420 0022 0326     		movs	r6, #3
 1421 0024 3240     		ands	r2, r6
 1422 0026 012A     		cmp	r2, #1
 1423 0028 00D1     		bne	.L112
 151:TkShell.c     ****         if (d != 0 || !*a)
 1424              		.loc 1 151 0 discriminator 5
 1425 002a 2033     		adds	r3, r3, #32
 1426              	.LVL212:
 1427              	.L112:
 1428              	.LBE4:
 151:TkShell.c     ****         if (d != 0 || !*a)
 1429              		.loc 1 151 0 discriminator 8
ARM GAS  C:\Users\TERENC~1\AppData\Local\Temp\cc1rRXTX.s 			page 37


 1430 002c E31A     		subs	r3, r4, r3
 1431              	.LVL213:
 152:TkShell.c     ****             return d;
 1432              		.loc 1 152 0 is_stmt 1 discriminator 8
 1433 002e 04D1     		bne	.L116
 152:TkShell.c     ****             return d;
 1434              		.loc 1 152 0 is_stmt 0 discriminator 1
 1435 0030 002D     		cmp	r5, #0
 1436 0032 02D0     		beq	.L116
 1437              	.LBE2:
 149:TkShell.c     ****     {
 1438              		.loc 1 149 0 is_stmt 1
 1439 0034 0130     		adds	r0, r0, #1
 1440              	.LVL214:
 1441 0036 0131     		adds	r1, r1, #1
 1442              	.LVL215:
 154:TkShell.c     **** }
 1443              		.loc 1 154 0
 1444 0038 E3E7     		b	.L115
 1445              	.LVL216:
 1446              	.L116:
 155:TkShell.c     **** 
 1447              		.loc 1 155 0
 1448 003a 1800     		movs	r0, r3
 1449              	.LVL217:
 1450              		@ sp needed
 1451              	.LVL218:
 1452 003c 70BD     		pop	{r4, r5, r6, pc}
 1453              	.L118:
 1454 003e C046     		.align	2
 1455              	.L117:
 1456 0040 00000000 		.word	__ctype_ptr__
 1457              		.cfi_endproc
 1458              	.LFE2:
 1459              		.size	strcicmp, .-strcicmp
 1460              		.section	.text.__tk_shell_pcm_reg,"ax",%progbits
 1461              		.align	2
 1462              		.global	__tk_shell_pcm_reg
 1463              		.code	16
 1464              		.thumb_func
 1465              		.type	__tk_shell_pcm_reg, %function
 1466              	__tk_shell_pcm_reg:
 1467              	.LFB10:
 320:TkShell.c     ****     int i = 2;
 1468              		.loc 1 320 0
 1469              		.cfi_startproc
 1470              		@ args = 0, pretend = 0, frame = 0
 1471              		@ frame_needed = 0, uses_anonymous_args = 0
 1472              	.LVL219:
 1473 0000 70B5     		push	{r4, r5, r6, lr}
 1474              		.cfi_def_cfa_offset 16
 1475              		.cfi_offset 4, -16
 1476              		.cfi_offset 5, -12
 1477              		.cfi_offset 6, -8
 1478              		.cfi_offset 14, -4
 1479 0002 0D00     		movs	r5, r1
 1480              	.LVL220:
ARM GAS  C:\Users\TERENC~1\AppData\Local\Temp\cc1rRXTX.s 			page 38


 325:TkShell.c     ****     
 1481              		.loc 1 325 0
 1482 0004 841E     		subs	r4, r0, #2
 1483              	.LVL221:
 327:TkShell.c     ****     {
 1484              		.loc 1 327 0
 1485 0006 032C     		cmp	r4, #3
 1486 0008 13D0     		beq	.L120
 329:TkShell.c     ****         return -1;
 1487              		.loc 1 329 0
 1488 000a FFF7FEFF 		bl	USBUART_GetConfiguration
 1489              	.LVL222:
 1490 000e 0028     		cmp	r0, #0
 1491 0010 39D0     		beq	.L125
 1492              	.L122:
 329:TkShell.c     ****         return -1;
 1493              		.loc 1 329 0 is_stmt 0 discriminator 1
 1494 0012 FFF7FEFF 		bl	USBUART_CDCIsReady
 1495              	.LVL223:
 1496 0016 0028     		cmp	r0, #0
 1497 0018 FBD0     		beq	.L122
 329:TkShell.c     ****         return -1;
 1498              		.loc 1 329 0 discriminator 2
 1499 001a 1D4D     		ldr	r5, .L127
 1500              	.LVL224:
 1501 001c 2200     		movs	r2, r4
 1502 001e 1D49     		ldr	r1, .L127+4
 1503 0020 2800     		movs	r0, r5
 1504 0022 FFF7FEFF 		bl	sprintf
 1505              	.LVL225:
 1506 0026 2800     		movs	r0, r5
 1507 0028 FFF7FEFF 		bl	USBUART_PutString
 1508              	.LVL226:
 330:TkShell.c     ****     }
 1509              		.loc 1 330 0 is_stmt 1 discriminator 2
 1510 002c 0120     		movs	r0, #1
 1511 002e 4042     		rsbs	r0, r0, #0
 1512 0030 2DE0     		b	.L121
 1513              	.LVL227:
 1514              	.L120:
 333:TkShell.c     ****     data = strtoul(argv[i + 2], NULL, 16);
 1515              		.loc 1 333 0
 1516 0032 C868     		ldr	r0, [r1, #12]
 1517 0034 FFF7FEFF 		bl	atoi
 1518              	.LVL228:
 1519 0038 C4B2     		uxtb	r4, r0
 1520              	.LVL229:
 334:TkShell.c     **** 
 1521              		.loc 1 334 0
 1522 003a 1022     		movs	r2, #16
 1523 003c 0021     		movs	r1, #0
 1524 003e 2869     		ldr	r0, [r5, #16]
 1525 0040 FFF7FEFF 		bl	strtoul
 1526              	.LVL230:
 1527 0044 C6B2     		uxtb	r6, r0
 1528              	.LVL231:
 336:TkShell.c     ****     {
ARM GAS  C:\Users\TERENC~1\AppData\Local\Temp\cc1rRXTX.s 			page 39


 1529              		.loc 1 336 0
 1530 0046 A868     		ldr	r0, [r5, #8]
 1531 0048 1349     		ldr	r1, .L127+8
 1532 004a FFF7FEFF 		bl	strcicmp
 1533              	.LVL232:
 1534 004e 0028     		cmp	r0, #0
 1535 0050 03D1     		bne	.L123
 338:TkShell.c     ****     }
 1536              		.loc 1 338 0
 1537 0052 3100     		movs	r1, r6
 1538 0054 2000     		movs	r0, r4
 1539 0056 FFF7FEFF 		bl	pcm1770_reg_write
 1540              	.LVL233:
 1541              	.L123:
 341:TkShell.c     ****     
 1542              		.loc 1 341 0
 1543 005a FFF7FEFF 		bl	USBUART_GetConfiguration
 1544              	.LVL234:
 1545 005e 0028     		cmp	r0, #0
 1546 0060 14D0     		beq	.L126
 1547              	.L124:
 341:TkShell.c     ****     
 1548              		.loc 1 341 0 is_stmt 0 discriminator 1
 1549 0062 FFF7FEFF 		bl	USBUART_CDCIsReady
 1550              	.LVL235:
 1551 0066 0028     		cmp	r0, #0
 1552 0068 FBD0     		beq	.L124
 341:TkShell.c     ****     
 1553              		.loc 1 341 0 discriminator 2
 1554 006a 2000     		movs	r0, r4
 1555 006c FFF7FEFF 		bl	pcm1770_reg_read
 1556              	.LVL236:
 1557 0070 0200     		movs	r2, r0
 1558 0072 074C     		ldr	r4, .L127
 1559              	.LVL237:
 1560 0074 0949     		ldr	r1, .L127+12
 1561 0076 2000     		movs	r0, r4
 1562 0078 FFF7FEFF 		bl	sprintf
 1563              	.LVL238:
 1564 007c 2000     		movs	r0, r4
 1565 007e FFF7FEFF 		bl	USBUART_PutString
 1566              	.LVL239:
 343:TkShell.c     **** }
 1567              		.loc 1 343 0 is_stmt 1 discriminator 2
 1568 0082 0020     		movs	r0, #0
 1569 0084 03E0     		b	.L121
 1570              	.LVL240:
 1571              	.L125:
 330:TkShell.c     ****     }
 1572              		.loc 1 330 0
 1573 0086 0120     		movs	r0, #1
 1574 0088 4042     		rsbs	r0, r0, #0
 1575 008a 00E0     		b	.L121
 1576              	.LVL241:
 1577              	.L126:
 343:TkShell.c     **** }
 1578              		.loc 1 343 0
ARM GAS  C:\Users\TERENC~1\AppData\Local\Temp\cc1rRXTX.s 			page 40


 1579 008c 0020     		movs	r0, #0
 1580              	.LVL242:
 1581              	.L121:
 344:TkShell.c     **** 
 1582              		.loc 1 344 0
 1583              		@ sp needed
 1584 008e 70BD     		pop	{r4, r5, r6, pc}
 1585              	.L128:
 1586              		.align	2
 1587              	.L127:
 1588 0090 00000000 		.word	gbuf
 1589 0094 4C010000 		.word	.LC65
 1590 0098 70010000 		.word	.LC68
 1591 009c 74010000 		.word	.LC70
 1592              		.cfi_endproc
 1593              	.LFE10:
 1594              		.size	__tk_shell_pcm_reg, .-__tk_shell_pcm_reg
 1595              		.section	.text.__tk_shell_led_start,"ax",%progbits
 1596              		.align	2
 1597              		.global	__tk_shell_led_start
 1598              		.code	16
 1599              		.thumb_func
 1600              		.type	__tk_shell_led_start, %function
 1601              	__tk_shell_led_start:
 1602              	.LFB15:
 379:TkShell.c     ****     int i = 2;
 1603              		.loc 1 379 0
 1604              		.cfi_startproc
 1605              		@ args = 0, pretend = 0, frame = 0
 1606              		@ frame_needed = 0, uses_anonymous_args = 0
 1607              	.LVL243:
 1608 0000 F8B5     		push	{r3, r4, r5, r6, r7, lr}
 1609              		.cfi_def_cfa_offset 24
 1610              		.cfi_offset 3, -24
 1611              		.cfi_offset 4, -20
 1612              		.cfi_offset 5, -16
 1613              		.cfi_offset 6, -12
 1614              		.cfi_offset 7, -8
 1615              		.cfi_offset 14, -4
 1616 0002 0D00     		movs	r5, r1
 1617              	.LVL244:
 384:TkShell.c     ****     
 1618              		.loc 1 384 0
 1619 0004 841E     		subs	r4, r0, #2
 1620              	.LVL245:
 386:TkShell.c     ****     {
 1621              		.loc 1 386 0
 1622 0006 042C     		cmp	r4, #4
 1623 0008 13D0     		beq	.L130
 388:TkShell.c     ****         return -1;
 1624              		.loc 1 388 0
 1625 000a FFF7FEFF 		bl	USBUART_GetConfiguration
 1626              	.LVL246:
 1627 000e 0028     		cmp	r0, #0
 1628 0010 5FD0     		beq	.L136
 1629              	.L132:
 388:TkShell.c     ****         return -1;
ARM GAS  C:\Users\TERENC~1\AppData\Local\Temp\cc1rRXTX.s 			page 41


 1630              		.loc 1 388 0 is_stmt 0 discriminator 1
 1631 0012 FFF7FEFF 		bl	USBUART_CDCIsReady
 1632              	.LVL247:
 1633 0016 0028     		cmp	r0, #0
 1634 0018 FBD0     		beq	.L132
 388:TkShell.c     ****         return -1;
 1635              		.loc 1 388 0 discriminator 2
 1636 001a 324D     		ldr	r5, .L142
 1637              	.LVL248:
 1638 001c 2200     		movs	r2, r4
 1639 001e 3249     		ldr	r1, .L142+4
 1640 0020 2800     		movs	r0, r5
 1641 0022 FFF7FEFF 		bl	sprintf
 1642              	.LVL249:
 1643 0026 2800     		movs	r0, r5
 1644 0028 FFF7FEFF 		bl	USBUART_PutString
 1645              	.LVL250:
 389:TkShell.c     ****     }
 1646              		.loc 1 389 0 is_stmt 1 discriminator 2
 1647 002c 0120     		movs	r0, #1
 1648 002e 4042     		rsbs	r0, r0, #0
 1649 0030 56E0     		b	.L131
 1650              	.LVL251:
 1651              	.L130:
 392:TkShell.c     ****     {
 1652              		.loc 1 392 0
 1653 0032 8C68     		ldr	r4, [r1, #8]
 1654              	.LVL252:
 1655 0034 2D49     		ldr	r1, .L142+8
 1656              	.LVL253:
 1657 0036 2000     		movs	r0, r4
 1658              	.LVL254:
 1659 0038 FFF7FEFF 		bl	strcicmp
 1660              	.LVL255:
 1661 003c 0028     		cmp	r0, #0
 1662 003e 1FD0     		beq	.L137
 396:TkShell.c     ****     {
 1663              		.loc 1 396 0
 1664 0040 2B49     		ldr	r1, .L142+12
 1665 0042 2000     		movs	r0, r4
 1666 0044 FFF7FEFF 		bl	strcicmp
 1667              	.LVL256:
 1668 0048 0028     		cmp	r0, #0
 1669 004a 1BD0     		beq	.L138
 400:TkShell.c     ****     {
 1670              		.loc 1 400 0
 1671 004c 2949     		ldr	r1, .L142+16
 1672 004e 2000     		movs	r0, r4
 1673 0050 FFF7FEFF 		bl	strcicmp
 1674              	.LVL257:
 1675 0054 0028     		cmp	r0, #0
 1676 0056 17D0     		beq	.L139
 406:TkShell.c     ****         return -2;
 1677              		.loc 1 406 0
 1678 0058 FFF7FEFF 		bl	USBUART_GetConfiguration
 1679              	.LVL258:
 1680 005c 0028     		cmp	r0, #0
ARM GAS  C:\Users\TERENC~1\AppData\Local\Temp\cc1rRXTX.s 			page 42


 1681 005e 3BD0     		beq	.L140
 1682              	.L134:
 406:TkShell.c     ****         return -2;
 1683              		.loc 1 406 0 is_stmt 0 discriminator 1
 1684 0060 FFF7FEFF 		bl	USBUART_CDCIsReady
 1685              	.LVL259:
 1686 0064 0028     		cmp	r0, #0
 1687 0066 FBD0     		beq	.L134
 406:TkShell.c     ****         return -2;
 1688              		.loc 1 406 0 discriminator 2
 1689 0068 AA68     		ldr	r2, [r5, #8]
 1690 006a 1E4C     		ldr	r4, .L142
 1691 006c 2249     		ldr	r1, .L142+20
 1692 006e 2000     		movs	r0, r4
 1693 0070 FFF7FEFF 		bl	sprintf
 1694              	.LVL260:
 1695 0074 2000     		movs	r0, r4
 1696 0076 FFF7FEFF 		bl	USBUART_PutString
 1697              	.LVL261:
 407:TkShell.c     ****     }
 1698              		.loc 1 407 0 is_stmt 1 discriminator 2
 1699 007a 0220     		movs	r0, #2
 1700 007c 4042     		rsbs	r0, r0, #0
 1701 007e 2FE0     		b	.L131
 1702              	.L137:
 394:TkShell.c     ****     }
 1703              		.loc 1 394 0
 1704 0080 0027     		movs	r7, #0
 1705 0082 02E0     		b	.L133
 1706              	.L138:
 398:TkShell.c     ****     }
 1707              		.loc 1 398 0
 1708 0084 0127     		movs	r7, #1
 1709 0086 00E0     		b	.L133
 1710              	.L139:
 402:TkShell.c     ****     }
 1711              		.loc 1 402 0
 1712 0088 0227     		movs	r7, #2
 1713              	.L133:
 1714              	.LVL262:
 410:TkShell.c     ****     pwmCompare = atoi(argv[i + 2]);
 1715              		.loc 1 410 0
 1716 008a E868     		ldr	r0, [r5, #12]
 1717 008c FFF7FEFF 		bl	atoi
 1718              	.LVL263:
 1719 0090 0400     		movs	r4, r0
 1720              	.LVL264:
 411:TkShell.c     ****     pwmCounter = atoi(argv[i + 3]);
 1721              		.loc 1 411 0
 1722 0092 2869     		ldr	r0, [r5, #16]
 1723              	.LVL265:
 1724 0094 FFF7FEFF 		bl	atoi
 1725              	.LVL266:
 1726 0098 0600     		movs	r6, r0
 1727              	.LVL267:
 412:TkShell.c     ****     
 1728              		.loc 1 412 0
ARM GAS  C:\Users\TERENC~1\AppData\Local\Temp\cc1rRXTX.s 			page 43


 1729 009a 6869     		ldr	r0, [r5, #20]
 1730              	.LVL268:
 1731 009c FFF7FEFF 		bl	atoi
 1732              	.LVL269:
 1733 00a0 0300     		movs	r3, r0
 1734              	.LVL270:
 414:TkShell.c     ****     
 1735              		.loc 1 414 0
 1736 00a2 3200     		movs	r2, r6
 1737 00a4 2100     		movs	r1, r4
 1738 00a6 3800     		movs	r0, r7
 1739              	.LVL271:
 1740 00a8 FFF7FEFF 		bl	LedManagerStartOverride
 1741              	.LVL272:
 416:TkShell.c     **** 
 1742              		.loc 1 416 0
 1743 00ac FFF7FEFF 		bl	USBUART_GetConfiguration
 1744              	.LVL273:
 1745 00b0 0028     		cmp	r0, #0
 1746 00b2 14D0     		beq	.L141
 1747              	.L135:
 416:TkShell.c     **** 
 1748              		.loc 1 416 0 is_stmt 0 discriminator 1
 1749 00b4 FFF7FEFF 		bl	USBUART_CDCIsReady
 1750              	.LVL274:
 1751 00b8 0028     		cmp	r0, #0
 1752 00ba FBD0     		beq	.L135
 416:TkShell.c     **** 
 1753              		.loc 1 416 0 discriminator 2
 1754 00bc 094C     		ldr	r4, .L142
 1755              	.LVL275:
 1756 00be 0A22     		movs	r2, #10
 1757 00c0 0E49     		ldr	r1, .L142+24
 1758 00c2 2000     		movs	r0, r4
 1759 00c4 FFF7FEFF 		bl	memcpy
 1760              	.LVL276:
 1761 00c8 2000     		movs	r0, r4
 1762 00ca FFF7FEFF 		bl	USBUART_PutString
 1763              	.LVL277:
 418:TkShell.c     **** }
 1764              		.loc 1 418 0 is_stmt 1 discriminator 2
 1765 00ce 0020     		movs	r0, #0
 1766 00d0 06E0     		b	.L131
 1767              	.LVL278:
 1768              	.L136:
 389:TkShell.c     ****     }
 1769              		.loc 1 389 0
 1770 00d2 0120     		movs	r0, #1
 1771 00d4 4042     		rsbs	r0, r0, #0
 1772 00d6 03E0     		b	.L131
 1773              	.LVL279:
 1774              	.L140:
 407:TkShell.c     ****     }
 1775              		.loc 1 407 0
 1776 00d8 0220     		movs	r0, #2
 1777 00da 4042     		rsbs	r0, r0, #0
 1778 00dc 00E0     		b	.L131
ARM GAS  C:\Users\TERENC~1\AppData\Local\Temp\cc1rRXTX.s 			page 44


 1779              	.LVL280:
 1780              	.L141:
 418:TkShell.c     **** }
 1781              		.loc 1 418 0
 1782 00de 0020     		movs	r0, #0
 1783              	.LVL281:
 1784              	.L131:
 419:TkShell.c     **** 
 1785              		.loc 1 419 0
 1786              		@ sp needed
 1787 00e0 F8BD     		pop	{r3, r4, r5, r6, r7, pc}
 1788              	.L143:
 1789 00e2 C046     		.align	2
 1790              	.L142:
 1791 00e4 00000000 		.word	gbuf
 1792 00e8 4C010000 		.word	.LC65
 1793 00ec 88010000 		.word	.LC74
 1794 00f0 8C010000 		.word	.LC76
 1795 00f4 94010000 		.word	.LC78
 1796 00f8 9C010000 		.word	.LC80
 1797 00fc C8010000 		.word	.LC82
 1798              		.cfi_endproc
 1799              	.LFE15:
 1800              		.size	__tk_shell_led_start, .-__tk_shell_led_start
 1801              		.section	.text.__tk_shell_led_stop,"ax",%progbits
 1802              		.align	2
 1803              		.global	__tk_shell_led_stop
 1804              		.code	16
 1805              		.thumb_func
 1806              		.type	__tk_shell_led_stop, %function
 1807              	__tk_shell_led_stop:
 1808              	.LFB16:
 422:TkShell.c     ****     int i = 2;
 1809              		.loc 1 422 0
 1810              		.cfi_startproc
 1811              		@ args = 0, pretend = 0, frame = 0
 1812              		@ frame_needed = 0, uses_anonymous_args = 0
 1813              	.LVL282:
 1814 0000 70B5     		push	{r4, r5, r6, lr}
 1815              		.cfi_def_cfa_offset 16
 1816              		.cfi_offset 4, -16
 1817              		.cfi_offset 5, -12
 1818              		.cfi_offset 6, -8
 1819              		.cfi_offset 14, -4
 1820 0002 0D00     		movs	r5, r1
 1821              	.LVL283:
 426:TkShell.c     ****     
 1822              		.loc 1 426 0
 1823 0004 841E     		subs	r4, r0, #2
 1824              	.LVL284:
 428:TkShell.c     ****     {
 1825              		.loc 1 428 0
 1826 0006 012C     		cmp	r4, #1
 1827 0008 13D0     		beq	.L145
 430:TkShell.c     ****         return -1;
 1828              		.loc 1 430 0
 1829 000a FFF7FEFF 		bl	USBUART_GetConfiguration
ARM GAS  C:\Users\TERENC~1\AppData\Local\Temp\cc1rRXTX.s 			page 45


 1830              	.LVL285:
 1831 000e 0028     		cmp	r0, #0
 1832 0010 50D0     		beq	.L151
 1833              	.L147:
 430:TkShell.c     ****         return -1;
 1834              		.loc 1 430 0 is_stmt 0 discriminator 1
 1835 0012 FFF7FEFF 		bl	USBUART_CDCIsReady
 1836              	.LVL286:
 1837 0016 0028     		cmp	r0, #0
 1838 0018 FBD0     		beq	.L147
 430:TkShell.c     ****         return -1;
 1839              		.loc 1 430 0 discriminator 2
 1840 001a 2A4D     		ldr	r5, .L157
 1841              	.LVL287:
 1842 001c 2200     		movs	r2, r4
 1843 001e 2A49     		ldr	r1, .L157+4
 1844 0020 2800     		movs	r0, r5
 1845 0022 FFF7FEFF 		bl	sprintf
 1846              	.LVL288:
 1847 0026 2800     		movs	r0, r5
 1848 0028 FFF7FEFF 		bl	USBUART_PutString
 1849              	.LVL289:
 431:TkShell.c     ****     }
 1850              		.loc 1 431 0 is_stmt 1 discriminator 2
 1851 002c 0120     		movs	r0, #1
 1852 002e 4042     		rsbs	r0, r0, #0
 1853 0030 47E0     		b	.L146
 1854              	.LVL290:
 1855              	.L145:
 434:TkShell.c     ****     {
 1856              		.loc 1 434 0
 1857 0032 8C68     		ldr	r4, [r1, #8]
 1858              	.LVL291:
 1859 0034 2549     		ldr	r1, .L157+8
 1860              	.LVL292:
 1861 0036 2000     		movs	r0, r4
 1862              	.LVL293:
 1863 0038 FFF7FEFF 		bl	strcicmp
 1864              	.LVL294:
 1865 003c 0028     		cmp	r0, #0
 1866 003e 1FD0     		beq	.L152
 438:TkShell.c     ****     {
 1867              		.loc 1 438 0
 1868 0040 2349     		ldr	r1, .L157+12
 1869 0042 2000     		movs	r0, r4
 1870 0044 FFF7FEFF 		bl	strcicmp
 1871              	.LVL295:
 1872 0048 0028     		cmp	r0, #0
 1873 004a 1BD0     		beq	.L153
 442:TkShell.c     ****     {
 1874              		.loc 1 442 0
 1875 004c 2149     		ldr	r1, .L157+16
 1876 004e 2000     		movs	r0, r4
 1877 0050 FFF7FEFF 		bl	strcicmp
 1878              	.LVL296:
 1879 0054 0028     		cmp	r0, #0
 1880 0056 17D0     		beq	.L154
ARM GAS  C:\Users\TERENC~1\AppData\Local\Temp\cc1rRXTX.s 			page 46


 448:TkShell.c     ****         return -2;
 1881              		.loc 1 448 0
 1882 0058 FFF7FEFF 		bl	USBUART_GetConfiguration
 1883              	.LVL297:
 1884 005c 0028     		cmp	r0, #0
 1885 005e 2CD0     		beq	.L155
 1886              	.L149:
 448:TkShell.c     ****         return -2;
 1887              		.loc 1 448 0 is_stmt 0 discriminator 1
 1888 0060 FFF7FEFF 		bl	USBUART_CDCIsReady
 1889              	.LVL298:
 1890 0064 0028     		cmp	r0, #0
 1891 0066 FBD0     		beq	.L149
 448:TkShell.c     ****         return -2;
 1892              		.loc 1 448 0 discriminator 2
 1893 0068 AA68     		ldr	r2, [r5, #8]
 1894 006a 164C     		ldr	r4, .L157
 1895 006c 1A49     		ldr	r1, .L157+20
 1896 006e 2000     		movs	r0, r4
 1897 0070 FFF7FEFF 		bl	sprintf
 1898              	.LVL299:
 1899 0074 2000     		movs	r0, r4
 1900 0076 FFF7FEFF 		bl	USBUART_PutString
 1901              	.LVL300:
 449:TkShell.c     ****     }
 1902              		.loc 1 449 0 is_stmt 1 discriminator 2
 1903 007a 0220     		movs	r0, #2
 1904 007c 4042     		rsbs	r0, r0, #0
 1905 007e 20E0     		b	.L146
 1906              	.L152:
 436:TkShell.c     ****     }
 1907              		.loc 1 436 0
 1908 0080 0020     		movs	r0, #0
 1909 0082 02E0     		b	.L148
 1910              	.L153:
 440:TkShell.c     ****     }
 1911              		.loc 1 440 0
 1912 0084 0120     		movs	r0, #1
 1913 0086 00E0     		b	.L148
 1914              	.L154:
 444:TkShell.c     ****     }
 1915              		.loc 1 444 0
 1916 0088 0220     		movs	r0, #2
 1917              	.L148:
 1918              	.LVL301:
 451:TkShell.c     ****     
 1919              		.loc 1 451 0
 1920 008a FFF7FEFF 		bl	LedManagerStopOverride
 1921              	.LVL302:
 453:TkShell.c     **** 
 1922              		.loc 1 453 0
 1923 008e FFF7FEFF 		bl	USBUART_GetConfiguration
 1924              	.LVL303:
 1925 0092 0028     		cmp	r0, #0
 1926 0094 14D0     		beq	.L156
 1927              	.L150:
 453:TkShell.c     **** 
ARM GAS  C:\Users\TERENC~1\AppData\Local\Temp\cc1rRXTX.s 			page 47


 1928              		.loc 1 453 0 is_stmt 0 discriminator 1
 1929 0096 FFF7FEFF 		bl	USBUART_CDCIsReady
 1930              	.LVL304:
 1931 009a 0028     		cmp	r0, #0
 1932 009c FBD0     		beq	.L150
 453:TkShell.c     **** 
 1933              		.loc 1 453 0 discriminator 2
 1934 009e 094C     		ldr	r4, .L157
 1935 00a0 0A22     		movs	r2, #10
 1936 00a2 0E49     		ldr	r1, .L157+24
 1937 00a4 2000     		movs	r0, r4
 1938 00a6 FFF7FEFF 		bl	memcpy
 1939              	.LVL305:
 1940 00aa 2000     		movs	r0, r4
 1941 00ac FFF7FEFF 		bl	USBUART_PutString
 1942              	.LVL306:
 455:TkShell.c     **** }
 1943              		.loc 1 455 0 is_stmt 1 discriminator 2
 1944 00b0 0020     		movs	r0, #0
 1945 00b2 06E0     		b	.L146
 1946              	.LVL307:
 1947              	.L151:
 431:TkShell.c     ****     }
 1948              		.loc 1 431 0
 1949 00b4 0120     		movs	r0, #1
 1950 00b6 4042     		rsbs	r0, r0, #0
 1951 00b8 03E0     		b	.L146
 1952              	.LVL308:
 1953              	.L155:
 449:TkShell.c     ****     }
 1954              		.loc 1 449 0
 1955 00ba 0220     		movs	r0, #2
 1956 00bc 4042     		rsbs	r0, r0, #0
 1957 00be 00E0     		b	.L146
 1958              	.LVL309:
 1959              	.L156:
 455:TkShell.c     **** }
 1960              		.loc 1 455 0
 1961 00c0 0020     		movs	r0, #0
 1962              	.LVL310:
 1963              	.L146:
 456:TkShell.c     **** 
 1964              		.loc 1 456 0
 1965              		@ sp needed
 1966 00c2 70BD     		pop	{r4, r5, r6, pc}
 1967              	.L158:
 1968              		.align	2
 1969              	.L157:
 1970 00c4 00000000 		.word	gbuf
 1971 00c8 4C010000 		.word	.LC65
 1972 00cc 88010000 		.word	.LC74
 1973 00d0 8C010000 		.word	.LC76
 1974 00d4 94010000 		.word	.LC78
 1975 00d8 9C010000 		.word	.LC80
 1976 00dc C8010000 		.word	.LC82
 1977              		.cfi_endproc
 1978              	.LFE16:
ARM GAS  C:\Users\TERENC~1\AppData\Local\Temp\cc1rRXTX.s 			page 48


 1979              		.size	__tk_shell_led_stop, .-__tk_shell_led_stop
 1980              		.section	.text.__tk_shell_cal_set,"ax",%progbits
 1981              		.align	2
 1982              		.global	__tk_shell_cal_set
 1983              		.code	16
 1984              		.thumb_func
 1985              		.type	__tk_shell_cal_set, %function
 1986              	__tk_shell_cal_set:
 1987              	.LFB18:
 475:TkShell.c     ****     int i = 2;
 1988              		.loc 1 475 0
 1989              		.cfi_startproc
 1990              		@ args = 0, pretend = 0, frame = 0
 1991              		@ frame_needed = 0, uses_anonymous_args = 0
 1992              	.LVL311:
 1993 0000 70B5     		push	{r4, r5, r6, lr}
 1994              		.cfi_def_cfa_offset 16
 1995              		.cfi_offset 4, -16
 1996              		.cfi_offset 5, -12
 1997              		.cfi_offset 6, -8
 1998              		.cfi_offset 14, -4
 1999 0002 0D00     		movs	r5, r1
 2000              	.LVL312:
 480:TkShell.c     ****     {
 2001              		.loc 1 480 0
 2002 0004 0228     		cmp	r0, #2
 2003 0006 13D1     		bne	.L160
 482:TkShell.c     ****         return -1;
 2004              		.loc 1 482 0
 2005 0008 FFF7FEFF 		bl	USBUART_GetConfiguration
 2006              	.LVL313:
 2007 000c 0028     		cmp	r0, #0
 2008 000e 39D0     		beq	.L165
 2009              	.L162:
 482:TkShell.c     ****         return -1;
 2010              		.loc 1 482 0 is_stmt 0 discriminator 1
 2011 0010 FFF7FEFF 		bl	USBUART_CDCIsReady
 2012              	.LVL314:
 2013 0014 0028     		cmp	r0, #0
 2014 0016 FBD0     		beq	.L162
 482:TkShell.c     ****         return -1;
 2015              		.loc 1 482 0 discriminator 2
 2016 0018 1D4C     		ldr	r4, .L167
 2017 001a 1E22     		movs	r2, #30
 2018 001c 1D49     		ldr	r1, .L167+4
 2019 001e 2000     		movs	r0, r4
 2020 0020 FFF7FEFF 		bl	memcpy
 2021              	.LVL315:
 2022 0024 2000     		movs	r0, r4
 2023 0026 FFF7FEFF 		bl	USBUART_PutString
 2024              	.LVL316:
 483:TkShell.c     ****     }
 2025              		.loc 1 483 0 is_stmt 1 discriminator 2
 2026 002a 0124     		movs	r4, #1
 2027 002c 6442     		rsbs	r4, r4, #0
 2028 002e 2DE0     		b	.L161
 2029              	.LVL317:
ARM GAS  C:\Users\TERENC~1\AppData\Local\Temp\cc1rRXTX.s 			page 49


 2030              	.L160:
 486:TkShell.c     ****     {
 2031              		.loc 1 486 0
 2032 0030 8E68     		ldr	r6, [r1, #8]
 2033 0032 1949     		ldr	r1, .L167+8
 2034              	.LVL318:
 2035 0034 3000     		movs	r0, r6
 2036              	.LVL319:
 2037 0036 FFF7FEFF 		bl	strcicmp
 2038              	.LVL320:
 2039 003a 041E     		subs	r4, r0, #0
 2040 003c 06D1     		bne	.L163
 488:TkShell.c     ****     }
 2041              		.loc 1 488 0
 2042 003e 174B     		ldr	r3, .L167+12
 2043 0040 1E68     		ldr	r6, [r3]
 2044              	.LVL321:
 2045 0042 E868     		ldr	r0, [r5, #12]
 2046 0044 FFF7FEFF 		bl	atoi
 2047              	.LVL322:
 2048 0048 3074     		strb	r0, [r6, #16]
 2049 004a 1FE0     		b	.L161
 2050              	.LVL323:
 2051              	.L163:
 490:TkShell.c     ****     {
 2052              		.loc 1 490 0
 2053 004c 1449     		ldr	r1, .L167+16
 2054 004e 3000     		movs	r0, r6
 2055 0050 FFF7FEFF 		bl	strcicmp
 2056              	.LVL324:
 2057 0054 041E     		subs	r4, r0, #0
 2058 0056 06D1     		bne	.L164
 492:TkShell.c     ****     }
 2059              		.loc 1 492 0
 2060 0058 104B     		ldr	r3, .L167+12
 2061 005a 1E68     		ldr	r6, [r3]
 2062              	.LVL325:
 2063 005c E868     		ldr	r0, [r5, #12]
 2064 005e FFF7FEFF 		bl	atoi
 2065              	.LVL326:
 2066 0062 7081     		strh	r0, [r6, #10]
 2067 0064 12E0     		b	.L161
 2068              	.LVL327:
 2069              	.L164:
 494:TkShell.c     ****     {
 2070              		.loc 1 494 0
 2071 0066 0F49     		ldr	r1, .L167+20
 2072 0068 3000     		movs	r0, r6
 2073 006a FFF7FEFF 		bl	strcicmp
 2074              	.LVL328:
 2075 006e 041E     		subs	r4, r0, #0
 2076 0070 0BD1     		bne	.L166
 496:TkShell.c     ****     }
 2077              		.loc 1 496 0
 2078 0072 0A4B     		ldr	r3, .L167+12
 2079 0074 1E68     		ldr	r6, [r3]
 2080              	.LVL329:
ARM GAS  C:\Users\TERENC~1\AppData\Local\Temp\cc1rRXTX.s 			page 50


 2081 0076 E868     		ldr	r0, [r5, #12]
 2082 0078 1022     		movs	r2, #16
 2083 007a 0021     		movs	r1, #0
 2084 007c FFF7FEFF 		bl	strtoul
 2085              	.LVL330:
 2086 0080 7074     		strb	r0, [r6, #17]
 2087 0082 03E0     		b	.L161
 2088              	.LVL331:
 2089              	.L165:
 483:TkShell.c     ****     }
 2090              		.loc 1 483 0
 2091 0084 0124     		movs	r4, #1
 2092 0086 6442     		rsbs	r4, r4, #0
 2093 0088 00E0     		b	.L161
 2094              	.L166:
 498:TkShell.c     **** }
 2095              		.loc 1 498 0
 2096 008a 0024     		movs	r4, #0
 2097              	.LVL332:
 2098              	.L161:
 499:TkShell.c     **** 
 2099              		.loc 1 499 0
 2100 008c 2000     		movs	r0, r4
 2101              		@ sp needed
 2102              	.LVL333:
 2103 008e 70BD     		pop	{r4, r5, r6, pc}
 2104              	.L168:
 2105              		.align	2
 2106              	.L167:
 2107 0090 00000000 		.word	gbuf
 2108 0094 0C000000 		.word	.LC4
 2109 0098 D4010000 		.word	.LC93
 2110 009c 00000000 		.word	cal_data
 2111 00a0 E8010000 		.word	.LC96
 2112 00a4 F4010000 		.word	.LC98
 2113              		.cfi_endproc
 2114              	.LFE18:
 2115              		.size	__tk_shell_cal_set, .-__tk_shell_cal_set
 2116              		.section	.text.TkShellProcessCommand,"ax",%progbits
 2117              		.align	2
 2118              		.code	16
 2119              		.thumb_func
 2120              		.type	TkShellProcessCommand, %function
 2121              	TkShellProcessCommand:
 2122              	.LFB20:
 506:TkShell.c     **** 
 507:TkShell.c     **** static int TkShellProcessCommand(void)
 508:TkShell.c     **** {
 2123              		.loc 1 508 0
 2124              		.cfi_startproc
 2125              		@ args = 0, pretend = 0, frame = 48
 2126              		@ frame_needed = 0, uses_anonymous_args = 0
 2127 0000 F0B5     		push	{r4, r5, r6, r7, lr}
 2128              		.cfi_def_cfa_offset 20
 2129              		.cfi_offset 4, -20
 2130              		.cfi_offset 5, -16
 2131              		.cfi_offset 6, -12
ARM GAS  C:\Users\TERENC~1\AppData\Local\Temp\cc1rRXTX.s 			page 51


 2132              		.cfi_offset 7, -8
 2133              		.cfi_offset 14, -4
 2134 0002 5F46     		mov	r7, fp
 2135 0004 5646     		mov	r6, r10
 2136 0006 4D46     		mov	r5, r9
 2137 0008 4446     		mov	r4, r8
 2138 000a F0B4     		push	{r4, r5, r6, r7}
 2139              		.cfi_def_cfa_offset 36
 2140              		.cfi_offset 8, -36
 2141              		.cfi_offset 9, -32
 2142              		.cfi_offset 10, -28
 2143              		.cfi_offset 11, -24
 2144 000c 8FB0     		sub	sp, sp, #60
 2145              		.cfi_def_cfa_offset 96
 2146              	.LVL334:
 509:TkShell.c     ****     int retval = -1;
 510:TkShell.c     ****     char *buf = cmd_buf;
 511:TkShell.c     ****     bool found = false;
 512:TkShell.c     ****     char *argv[TK_SHELL_MAX_ARGS];
 513:TkShell.c     ****     int argc = 0;
 2147              		.loc 1 513 0
 2148 000e 0023     		movs	r3, #0
 2149 0010 9946     		mov	r9, r3
 510:TkShell.c     ****     bool found = false;
 2150              		.loc 1 510 0
 2151 0012 8E4A     		ldr	r2, .L208
 2152 0014 02E0     		b	.L170
 2153              	.LVL335:
 2154              	.L172:
 514:TkShell.c     ****     int i = 0, j = 0, k = 0;
 515:TkShell.c     ****     
 516:TkShell.c     ****     while (1)
 517:TkShell.c     ****     {
 518:TkShell.c     ****         // skip over whitespace
 519:TkShell.c     ****         while (*buf && isspace(*buf))
 520:TkShell.c     ****         {
 521:TkShell.c     ****           *buf = '\0';
 2155              		.loc 1 521 0
 2156 0016 0023     		movs	r3, #0
 2157 0018 1370     		strb	r3, [r2]
 522:TkShell.c     ****           ++buf;
 2158              		.loc 1 522 0
 2159 001a 0132     		adds	r2, r2, #1
 2160              	.LVL336:
 2161              	.L170:
 519:TkShell.c     ****         {
 2162              		.loc 1 519 0
 2163 001c 1378     		ldrb	r3, [r2]
 2164 001e 002B     		cmp	r3, #0
 2165 0020 05D0     		beq	.L171
 519:TkShell.c     ****         {
 2166              		.loc 1 519 0 is_stmt 0 discriminator 1
 2167 0022 8B49     		ldr	r1, .L208+4
 2168 0024 0968     		ldr	r1, [r1]
 2169 0026 C918     		adds	r1, r1, r3
 2170 0028 4978     		ldrb	r1, [r1, #1]
 2171 002a 0907     		lsls	r1, r1, #28
ARM GAS  C:\Users\TERENC~1\AppData\Local\Temp\cc1rRXTX.s 			page 52


 2172 002c F3D4     		bmi	.L172
 2173              	.L171:
 523:TkShell.c     ****         }
 524:TkShell.c     **** 
 525:TkShell.c     ****         if (*buf == '\0')
 2174              		.loc 1 525 0 is_stmt 1
 2175 002e 002B     		cmp	r3, #0
 2176 0030 29D0     		beq	.L173
 526:TkShell.c     ****         {
 527:TkShell.c     ****           break;
 528:TkShell.c     ****         }
 529:TkShell.c     ****         
 530:TkShell.c     ****         argv[argc] = buf;
 2177              		.loc 1 530 0
 2178 0032 4B46     		mov	r3, r9
 2179 0034 9B00     		lsls	r3, r3, #2
 2180 0036 04A9     		add	r1, sp, #16
 2181 0038 5A50     		str	r2, [r3, r1]
 531:TkShell.c     ****         
 532:TkShell.c     ****         // skip over the rest of arg until whitespace again
 533:TkShell.c     ****         while (*buf && !isspace(*buf))
 2182              		.loc 1 533 0
 2183 003a 00E0     		b	.L174
 2184              	.L176:
 534:TkShell.c     ****         {
 535:TkShell.c     ****             buf++;
 2185              		.loc 1 535 0
 2186 003c 0132     		adds	r2, r2, #1
 2187              	.LVL337:
 2188              	.L174:
 533:TkShell.c     ****         {
 2189              		.loc 1 533 0
 2190 003e 1378     		ldrb	r3, [r2]
 2191 0040 002B     		cmp	r3, #0
 2192 0042 05D0     		beq	.L175
 533:TkShell.c     ****         {
 2193              		.loc 1 533 0 is_stmt 0 discriminator 1
 2194 0044 8249     		ldr	r1, .L208+4
 2195 0046 0968     		ldr	r1, [r1]
 2196 0048 CB18     		adds	r3, r1, r3
 2197 004a 5B78     		ldrb	r3, [r3, #1]
 2198 004c 1B07     		lsls	r3, r3, #28
 2199 004e F5D5     		bpl	.L176
 2200              	.L175:
 536:TkShell.c     ****         }
 537:TkShell.c     ****         ++argc;
 2201              		.loc 1 537 0 is_stmt 1
 2202 0050 0123     		movs	r3, #1
 2203 0052 9C46     		mov	ip, r3
 2204 0054 E144     		add	r9, r9, ip
 2205              	.LVL338:
 538:TkShell.c     ****         
 539:TkShell.c     ****         if (argc > TK_SHELL_MAX_ARGS)
 2206              		.loc 1 539 0
 2207 0056 4B46     		mov	r3, r9
 2208 0058 0A2B     		cmp	r3, #10
 2209 005a DFDD     		ble	.L170
ARM GAS  C:\Users\TERENC~1\AppData\Local\Temp\cc1rRXTX.s 			page 53


 540:TkShell.c     ****         {
 541:TkShell.c     ****             PRINTF("Too many arguments!\n");
 2210              		.loc 1 541 0
 2211 005c FFF7FEFF 		bl	USBUART_GetConfiguration
 2212              	.LVL339:
 2213 0060 0028     		cmp	r0, #0
 2214 0062 00D1     		bne	.LCB2241
 2215 0064 E4E0     		b	.L203	@long jump
 2216              	.LCB2241:
 2217              	.L179:
 2218              		.loc 1 541 0 is_stmt 0 discriminator 1
 2219 0066 FFF7FEFF 		bl	USBUART_CDCIsReady
 2220              	.LVL340:
 2221 006a 0028     		cmp	r0, #0
 2222 006c FBD0     		beq	.L179
 2223              		.loc 1 541 0 discriminator 2
 2224 006e 794C     		ldr	r4, .L208+8
 2225 0070 1522     		movs	r2, #21
 2226 0072 7949     		ldr	r1, .L208+12
 2227 0074 2000     		movs	r0, r4
 2228 0076 FFF7FEFF 		bl	memcpy
 2229              	.LVL341:
 2230 007a 2000     		movs	r0, r4
 2231 007c FFF7FEFF 		bl	USBUART_PutString
 2232              	.LVL342:
 542:TkShell.c     ****             return -2;
 2233              		.loc 1 542 0 is_stmt 1 discriminator 2
 2234 0080 0220     		movs	r0, #2
 2235 0082 4042     		rsbs	r0, r0, #0
 2236 0084 DAE0     		b	.L178
 2237              	.LVL343:
 2238              	.L173:
 543:TkShell.c     ****         }
 544:TkShell.c     ****     }
 545:TkShell.c     ****     
 546:TkShell.c     ****     if (argc > 0)
 2239              		.loc 1 546 0
 2240 0086 4B46     		mov	r3, r9
 2241 0088 002B     		cmp	r3, #0
 2242 008a 00DD     		ble	.LCB2267
 2243 008c A8E0     		b	.L204	@long jump
 2244              	.LCB2267:
 2245              	.LVL344:
 511:TkShell.c     ****     char *argv[TK_SHELL_MAX_ARGS];
 2246              		.loc 1 511 0
 2247 008e 0023     		movs	r3, #0
 2248              	.LVL345:
 2249 0090 9A46     		mov	r10, r3
 509:TkShell.c     ****     char *buf = cmd_buf;
 2250              		.loc 1 509 0
 2251 0092 013B     		subs	r3, r3, #1
 2252 0094 0393     		str	r3, [sp, #12]
 2253 0096 B5E0     		b	.L181
 2254              	.LVL346:
 2255              	.L201:
 547:TkShell.c     ****     {
 548:TkShell.c     ****         i = j = k = 0;
ARM GAS  C:\Users\TERENC~1\AppData\Local\Temp\cc1rRXTX.s 			page 54


 549:TkShell.c     ****         while (strcmp(commands[i].name, "") != 0)
 550:TkShell.c     ****         {
 551:TkShell.c     ****             if (strcicmp(argv[0], commands[i].name) == 0)
 2256              		.loc 1 551 0
 2257 0098 049D     		ldr	r5, [sp, #16]
 2258 009a 0299     		ldr	r1, [sp, #8]
 2259 009c 2800     		movs	r0, r5
 2260 009e FFF7FEFF 		bl	strcicmp
 2261              	.LVL347:
 2262 00a2 0028     		cmp	r0, #0
 2263 00a4 4AD0     		beq	.L182
 2264 00a6 5DE0     		b	.L207
 2265              	.L193:
 552:TkShell.c     ****             {
 553:TkShell.c     ****                 while (strcmp(commands[i].verbs[j].name, "") != 0)
 554:TkShell.c     ****                 {
 555:TkShell.c     ****                     if (strcicmp(argv[1], commands[i].verbs[j].name) == 0)
 2266              		.loc 1 555 0
 2267 00a8 059D     		ldr	r5, [sp, #20]
 2268 00aa 2800     		movs	r0, r5
 2269 00ac FFF7FEFF 		bl	strcicmp
 2270              	.LVL348:
 2271 00b0 0028     		cmp	r0, #0
 2272 00b2 08D1     		bne	.L184
 556:TkShell.c     ****                     {
 557:TkShell.c     ****                         retval = commands[i].verbs[j].func(argc, argv);
 2273              		.loc 1 557 0
 2274 00b4 5B46     		mov	r3, fp
 2275 00b6 5B68     		ldr	r3, [r3, #4]
 2276 00b8 04A9     		add	r1, sp, #16
 2277 00ba 4846     		mov	r0, r9
 2278 00bc 9847     		blx	r3
 2279              	.LVL349:
 2280 00be 0390     		str	r0, [sp, #12]
 2281              	.LVL350:
 558:TkShell.c     ****                         found = true;
 2282              		.loc 1 558 0
 2283 00c0 0123     		movs	r3, #1
 2284 00c2 9A46     		mov	r10, r3
 559:TkShell.c     ****                         break;
 2285              		.loc 1 559 0
 2286 00c4 4AE0     		b	.L185
 2287              	.LVL351:
 2288              	.L184:
 560:TkShell.c     ****                     }
 561:TkShell.c     ****                     else if (strcicmp(argv[1], "help") == 0)
 2289              		.loc 1 561 0
 2290 00c6 6549     		ldr	r1, .L208+16
 2291 00c8 2800     		movs	r0, r5
 2292 00ca FFF7FEFF 		bl	strcicmp
 2293              	.LVL352:
 2294 00ce 0028     		cmp	r0, #0
 2295 00d0 33D1     		bne	.L186
 2296              	.LVL353:
 562:TkShell.c     ****                     {
 563:TkShell.c     ****                         found = true;
 564:TkShell.c     ****                         PRINTF("Displaying list of %s commands:\n", commands[i].name);
ARM GAS  C:\Users\TERENC~1\AppData\Local\Temp\cc1rRXTX.s 			page 55


 2297              		.loc 1 564 0
 2298 00d2 FFF7FEFF 		bl	USBUART_GetConfiguration
 2299              	.LVL354:
 2300 00d6 0028     		cmp	r0, #0
 2301 00d8 23D0     		beq	.L189
 2302              	.L188:
 2303              		.loc 1 564 0 is_stmt 0 discriminator 1
 2304 00da FFF7FEFF 		bl	USBUART_CDCIsReady
 2305              	.LVL355:
 2306 00de 0028     		cmp	r0, #0
 2307 00e0 FBD0     		beq	.L188
 2308              		.loc 1 564 0 discriminator 2
 2309 00e2 5C4D     		ldr	r5, .L208+8
 2310 00e4 029A     		ldr	r2, [sp, #8]
 2311 00e6 5E49     		ldr	r1, .L208+20
 2312 00e8 2800     		movs	r0, r5
 2313 00ea FFF7FEFF 		bl	sprintf
 2314              	.LVL356:
 2315 00ee 2800     		movs	r0, r5
 2316 00f0 FFF7FEFF 		bl	USBUART_PutString
 2317              	.LVL357:
 2318 00f4 15E0     		b	.L189
 2319              	.L192:
 565:TkShell.c     ****                         while (strcmp(commands[i].verbs[k].name, "") != 0)
 566:TkShell.c     ****                         {
 567:TkShell.c     ****                             PRINTF("\t%s %s: %s\n", commands[i].name, commands[i].verbs[k].name, co
 2320              		.loc 1 567 0 is_stmt 1
 2321 00f6 FFF7FEFF 		bl	USBUART_GetConfiguration
 2322              	.LVL358:
 2323 00fa 0028     		cmp	r0, #0
 2324 00fc 0ED0     		beq	.L190
 2325              	.L191:
 2326              		.loc 1 567 0 is_stmt 0 discriminator 1
 2327 00fe FFF7FEFF 		bl	USBUART_CDCIsReady
 2328              	.LVL359:
 2329 0102 0028     		cmp	r0, #0
 2330 0104 FBD0     		beq	.L191
 2331              		.loc 1 567 0 discriminator 2
 2332 0106 2B68     		ldr	r3, [r5]
 2333 0108 AA68     		ldr	r2, [r5, #8]
 2334 010a 0092     		str	r2, [sp]
 2335 010c 029A     		ldr	r2, [sp, #8]
 2336 010e 5549     		ldr	r1, .L208+24
 2337 0110 5048     		ldr	r0, .L208+8
 2338 0112 FFF7FEFF 		bl	sprintf
 2339              	.LVL360:
 2340 0116 4F48     		ldr	r0, .L208+8
 2341 0118 FFF7FEFF 		bl	USBUART_PutString
 2342              	.LVL361:
 2343              	.L190:
 568:TkShell.c     ****                             k++;
 2344              		.loc 1 568 0 is_stmt 1
 2345 011c 0123     		movs	r3, #1
 2346 011e 9C46     		mov	ip, r3
 2347 0120 E044     		add	r8, r8, ip
 2348              	.LVL362:
 2349              	.L189:
ARM GAS  C:\Users\TERENC~1\AppData\Local\Temp\cc1rRXTX.s 			page 56


 565:TkShell.c     ****                         while (strcmp(commands[i].verbs[k].name, "") != 0)
 2350              		.loc 1 565 0
 2351 0122 4346     		mov	r3, r8
 2352 0124 5B00     		lsls	r3, r3, #1
 2353 0126 4344     		add	r3, r3, r8
 2354 0128 9A00     		lsls	r2, r3, #2
 2355 012a BD18     		adds	r5, r7, r2
 2356 012c 2B68     		ldr	r3, [r5]
 2357 012e 1B78     		ldrb	r3, [r3]
 2358 0130 002B     		cmp	r3, #0
 2359 0132 E0D1     		bne	.L192
 563:TkShell.c     ****                         PRINTF("Displaying list of %s commands:\n", commands[i].name);
 2360              		.loc 1 563 0
 2361 0134 0133     		adds	r3, r3, #1
 2362 0136 9A46     		mov	r10, r3
 2363 0138 10E0     		b	.L185
 2364              	.LVL363:
 2365              	.L186:
 569:TkShell.c     ****                         }
 570:TkShell.c     ****                         break;
 571:TkShell.c     ****                     }
 572:TkShell.c     ****                     j++;
 2366              		.loc 1 572 0
 2367 013a 0134     		adds	r4, r4, #1
 2368              	.LVL364:
 2369              	.L182:
 553:TkShell.c     ****                 {
 2370              		.loc 1 553 0
 2371 013c 7200     		lsls	r2, r6, #1
 2372 013e 9219     		adds	r2, r2, r6
 2373 0140 9300     		lsls	r3, r2, #2
 2374 0142 494A     		ldr	r2, .L208+28
 2375 0144 D318     		adds	r3, r2, r3
 2376 0146 DF6B     		ldr	r7, [r3, #60]
 2377 0148 6300     		lsls	r3, r4, #1
 2378 014a 1B19     		adds	r3, r3, r4
 2379 014c 9A00     		lsls	r2, r3, #2
 2380 014e 9346     		mov	fp, r2
 2381 0150 BB44     		add	fp, fp, r7
 2382 0152 5B46     		mov	r3, fp
 2383 0154 1968     		ldr	r1, [r3]
 2384 0156 0B78     		ldrb	r3, [r1]
 2385 0158 002B     		cmp	r3, #0
 2386 015a A5D1     		bne	.L193
 2387              	.LVL365:
 2388              	.L185:
 573:TkShell.c     ****                 }
 574:TkShell.c     **** 
 575:TkShell.c     ****                 if (found)
 2389              		.loc 1 575 0
 2390 015c 5346     		mov	r3, r10
 2391 015e 002B     		cmp	r3, #0
 2392 0160 3CD0     		beq	.L194
 2393 0162 4FE0     		b	.L181
 2394              	.L207:
 576:TkShell.c     ****                 {
 577:TkShell.c     ****                     break;
ARM GAS  C:\Users\TERENC~1\AppData\Local\Temp\cc1rRXTX.s 			page 57


 578:TkShell.c     ****                 }
 579:TkShell.c     ****             }
 580:TkShell.c     ****             else if (strcicmp(argv[0], "help") == 0)
 2395              		.loc 1 580 0
 2396 0164 3D49     		ldr	r1, .L208+16
 2397 0166 2800     		movs	r0, r5
 2398 0168 FFF7FEFF 		bl	strcicmp
 2399              	.LVL366:
 2400 016c 0028     		cmp	r0, #0
 2401 016e 35D1     		bne	.L194
 2402              	.LVL367:
 581:TkShell.c     ****             {
 582:TkShell.c     ****                 found = true;
 583:TkShell.c     ****                 PRINTF("Displaying list of commands:\n");
 2403              		.loc 1 583 0
 2404 0170 FFF7FEFF 		bl	USBUART_GetConfiguration
 2405              	.LVL368:
 2406 0174 0028     		cmp	r0, #0
 2407 0176 25D0     		beq	.L197
 2408              	.L196:
 2409              		.loc 1 583 0 is_stmt 0 discriminator 1
 2410 0178 FFF7FEFF 		bl	USBUART_CDCIsReady
 2411              	.LVL369:
 2412 017c 0028     		cmp	r0, #0
 2413 017e FBD0     		beq	.L196
 2414              		.loc 1 583 0 discriminator 2
 2415 0180 344D     		ldr	r5, .L208+8
 2416 0182 1E22     		movs	r2, #30
 2417 0184 3949     		ldr	r1, .L208+32
 2418 0186 2800     		movs	r0, r5
 2419 0188 FFF7FEFF 		bl	memcpy
 2420              	.LVL370:
 2421 018c 2800     		movs	r0, r5
 2422 018e FFF7FEFF 		bl	USBUART_PutString
 2423              	.LVL371:
 2424 0192 17E0     		b	.L197
 2425              	.LVL372:
 2426              	.L200:
 584:TkShell.c     ****                 while (strcmp(commands[j].name, "") != 0)
 585:TkShell.c     ****                 {
 586:TkShell.c     ****                     PRINTF("\t%s: %s\n", commands[j].name, commands[j].desc);
 2427              		.loc 1 586 0 is_stmt 1
 2428 0194 FFF7FEFF 		bl	USBUART_GetConfiguration
 2429              	.LVL373:
 2430 0198 0028     		cmp	r0, #0
 2431 019a 12D0     		beq	.L198
 2432              	.L199:
 2433              		.loc 1 586 0 is_stmt 0 discriminator 1
 2434 019c FFF7FEFF 		bl	USBUART_CDCIsReady
 2435              	.LVL374:
 2436 01a0 0028     		cmp	r0, #0
 2437 01a2 FBD0     		beq	.L199
 2438              		.loc 1 586 0 discriminator 2
 2439 01a4 6200     		lsls	r2, r4, #1
 2440 01a6 1219     		adds	r2, r2, r4
 2441 01a8 9300     		lsls	r3, r2, #2
 2442 01aa 2F4A     		ldr	r2, .L208+28
ARM GAS  C:\Users\TERENC~1\AppData\Local\Temp\cc1rRXTX.s 			page 58


 2443 01ac D318     		adds	r3, r2, r3
 2444 01ae 1B6C     		ldr	r3, [r3, #64]
 2445 01b0 284E     		ldr	r6, .L208+8
 2446 01b2 2A00     		movs	r2, r5
 2447 01b4 2E49     		ldr	r1, .L208+36
 2448 01b6 3000     		movs	r0, r6
 2449 01b8 FFF7FEFF 		bl	sprintf
 2450              	.LVL375:
 2451 01bc 3000     		movs	r0, r6
 2452 01be FFF7FEFF 		bl	USBUART_PutString
 2453              	.LVL376:
 2454              	.L198:
 587:TkShell.c     ****                     j++;
 2455              		.loc 1 587 0 is_stmt 1
 2456 01c2 0134     		adds	r4, r4, #1
 2457              	.LVL377:
 2458              	.L197:
 584:TkShell.c     ****                 while (strcmp(commands[j].name, "") != 0)
 2459              		.loc 1 584 0
 2460 01c4 6200     		lsls	r2, r4, #1
 2461 01c6 1219     		adds	r2, r2, r4
 2462 01c8 9300     		lsls	r3, r2, #2
 2463 01ca 274A     		ldr	r2, .L208+28
 2464 01cc D318     		adds	r3, r2, r3
 2465 01ce 9D6B     		ldr	r5, [r3, #56]
 2466 01d0 2B78     		ldrb	r3, [r5]
 2467 01d2 002B     		cmp	r3, #0
 2468 01d4 DED1     		bne	.L200
 582:TkShell.c     ****                 PRINTF("Displaying list of commands:\n");
 2469              		.loc 1 582 0
 2470 01d6 0133     		adds	r3, r3, #1
 2471 01d8 9A46     		mov	r10, r3
 2472 01da 13E0     		b	.L181
 2473              	.LVL378:
 2474              	.L194:
 588:TkShell.c     ****                 }
 589:TkShell.c     ****                 break;
 590:TkShell.c     ****             }
 591:TkShell.c     ****             i++;
 2475              		.loc 1 591 0
 2476 01dc 0136     		adds	r6, r6, #1
 2477              	.LVL379:
 2478 01de 06E0     		b	.L180
 2479              	.LVL380:
 2480              	.L204:
 2481 01e0 0023     		movs	r3, #0
 2482              	.LVL381:
 2483 01e2 9846     		mov	r8, r3
 2484 01e4 0024     		movs	r4, #0
 2485 01e6 0026     		movs	r6, #0
 2486 01e8 9A46     		mov	r10, r3
 2487 01ea 013B     		subs	r3, r3, #1
 2488 01ec 0393     		str	r3, [sp, #12]
 2489              	.LVL382:
 2490              	.L180:
 549:TkShell.c     ****         {
 2491              		.loc 1 549 0
ARM GAS  C:\Users\TERENC~1\AppData\Local\Temp\cc1rRXTX.s 			page 59


 2492 01ee 7200     		lsls	r2, r6, #1
 2493 01f0 9219     		adds	r2, r2, r6
 2494 01f2 9300     		lsls	r3, r2, #2
 2495 01f4 1C4A     		ldr	r2, .L208+28
 2496 01f6 D318     		adds	r3, r2, r3
 2497 01f8 9B6B     		ldr	r3, [r3, #56]
 2498 01fa 0293     		str	r3, [sp, #8]
 2499 01fc 1B78     		ldrb	r3, [r3]
 2500 01fe 002B     		cmp	r3, #0
 2501 0200 00D0     		beq	.LCB2591
 2502 0202 49E7     		b	.L201	@long jump
 2503              	.LCB2591:
 2504              	.LVL383:
 2505              	.L181:
 592:TkShell.c     ****         }
 593:TkShell.c     ****     }
 594:TkShell.c     ****     
 595:TkShell.c     ****     if (!found)
 2506              		.loc 1 595 0
 2507 0204 5346     		mov	r3, r10
 2508 0206 002B     		cmp	r3, #0
 2509 0208 15D1     		bne	.L205
 596:TkShell.c     ****     {
 597:TkShell.c     ****         PRINTF("unknown command: %s\n", argv[0]);
 2510              		.loc 1 597 0
 2511 020a FFF7FEFF 		bl	USBUART_GetConfiguration
 2512              	.LVL384:
 2513 020e 0028     		cmp	r0, #0
 2514 0210 13D0     		beq	.L206
 2515              	.L202:
 2516              		.loc 1 597 0 is_stmt 0 discriminator 1
 2517 0212 FFF7FEFF 		bl	USBUART_CDCIsReady
 2518              	.LVL385:
 2519 0216 0028     		cmp	r0, #0
 2520 0218 FBD0     		beq	.L202
 2521              		.loc 1 597 0 discriminator 2
 2522 021a 0E4C     		ldr	r4, .L208+8
 2523 021c 049A     		ldr	r2, [sp, #16]
 2524 021e 1549     		ldr	r1, .L208+40
 2525 0220 2000     		movs	r0, r4
 2526 0222 FFF7FEFF 		bl	sprintf
 2527              	.LVL386:
 2528 0226 2000     		movs	r0, r4
 2529 0228 FFF7FEFF 		bl	USBUART_PutString
 2530              	.LVL387:
 598:TkShell.c     ****     }
 599:TkShell.c     ****     
 600:TkShell.c     ****     return retval;
 2531              		.loc 1 600 0 is_stmt 1 discriminator 2
 2532 022c 0398     		ldr	r0, [sp, #12]
 2533 022e 05E0     		b	.L178
 2534              	.LVL388:
 2535              	.L203:
 542:TkShell.c     ****         }
 2536              		.loc 1 542 0
 2537 0230 0220     		movs	r0, #2
 2538 0232 4042     		rsbs	r0, r0, #0
ARM GAS  C:\Users\TERENC~1\AppData\Local\Temp\cc1rRXTX.s 			page 60


 2539 0234 02E0     		b	.L178
 2540              	.LVL389:
 2541              	.L205:
 2542              		.loc 1 600 0
 2543 0236 0398     		ldr	r0, [sp, #12]
 2544 0238 00E0     		b	.L178
 2545              	.L206:
 2546 023a 0398     		ldr	r0, [sp, #12]
 2547              	.LVL390:
 2548              	.L178:
 601:TkShell.c     **** }
 2549              		.loc 1 601 0
 2550 023c 0FB0     		add	sp, sp, #60
 2551              		@ sp needed
 2552              	.LVL391:
 2553 023e 3CBC     		pop	{r2, r3, r4, r5}
 2554 0240 9046     		mov	r8, r2
 2555 0242 9946     		mov	r9, r3
 2556 0244 A246     		mov	r10, r4
 2557 0246 AB46     		mov	fp, r5
 2558 0248 F0BD     		pop	{r4, r5, r6, r7, pc}
 2559              	.L209:
 2560 024a C046     		.align	2
 2561              	.L208:
 2562 024c 00000000 		.word	.LANCHOR1
 2563 0250 00000000 		.word	__ctype_ptr__
 2564 0254 00000000 		.word	gbuf
 2565 0258 00020000 		.word	.LC103
 2566 025c 18020000 		.word	.LC105
 2567 0260 20020000 		.word	.LC107
 2568 0264 44020000 		.word	.LC109
 2569 0268 00000000 		.word	.LANCHOR0
 2570 026c 50020000 		.word	.LC112
 2571 0270 70020000 		.word	.LC114
 2572 0274 7C020000 		.word	.LC116
 2573              		.cfi_endproc
 2574              	.LFE20:
 2575              		.size	TkShellProcessCommand, .-TkShellProcessCommand
 2576              		.section	.text.TkShellInit,"ax",%progbits
 2577              		.align	2
 2578              		.global	TkShellInit
 2579              		.code	16
 2580              		.thumb_func
 2581              		.type	TkShellInit, %function
 2582              	TkShellInit:
 2583              	.LFB21:
 602:TkShell.c     **** 
 603:TkShell.c     **** void TkShellInit(void)
 604:TkShell.c     **** {
 2584              		.loc 1 604 0
 2585              		.cfi_startproc
 2586              		@ args = 0, pretend = 0, frame = 0
 2587              		@ frame_needed = 0, uses_anonymous_args = 0
 2588 0000 10B5     		push	{r4, lr}
 2589              		.cfi_def_cfa_offset 8
 2590              		.cfi_offset 4, -8
 2591              		.cfi_offset 14, -4
ARM GAS  C:\Users\TERENC~1\AppData\Local\Temp\cc1rRXTX.s 			page 61


 605:TkShell.c     ****     memset((void *)cmd_buf, 0, CMD_BUF_LEN);
 2592              		.loc 1 605 0
 2593 0002 054C     		ldr	r4, .L211
 2594 0004 4022     		movs	r2, #64
 2595 0006 0021     		movs	r1, #0
 2596 0008 2000     		movs	r0, r4
 2597 000a FFF7FEFF 		bl	memset
 2598              	.LVL392:
 606:TkShell.c     ****     cmd_char_count = 0;
 2599              		.loc 1 606 0
 2600 000e 0022     		movs	r2, #0
 2601 0010 4023     		movs	r3, #64
 2602 0012 E254     		strb	r2, [r4, r3]
 607:TkShell.c     **** }
 2603              		.loc 1 607 0
 2604              		@ sp needed
 2605 0014 10BD     		pop	{r4, pc}
 2606              	.L212:
 2607 0016 C046     		.align	2
 2608              	.L211:
 2609 0018 00000000 		.word	.LANCHOR1
 2610              		.cfi_endproc
 2611              	.LFE21:
 2612              		.size	TkShellInit, .-TkShellInit
 2613              		.section	.text.TkShellService,"ax",%progbits
 2614              		.align	2
 2615              		.global	TkShellService
 2616              		.code	16
 2617              		.thumb_func
 2618              		.type	TkShellService, %function
 2619              	TkShellService:
 2620              	.LFB22:
 608:TkShell.c     **** 
 609:TkShell.c     **** void TkShellService(void)
 610:TkShell.c     **** {
 2621              		.loc 1 610 0
 2622              		.cfi_startproc
 2623              		@ args = 0, pretend = 0, frame = 64
 2624              		@ frame_needed = 0, uses_anonymous_args = 0
 2625 0000 F0B5     		push	{r4, r5, r6, r7, lr}
 2626              		.cfi_def_cfa_offset 20
 2627              		.cfi_offset 4, -20
 2628              		.cfi_offset 5, -16
 2629              		.cfi_offset 6, -12
 2630              		.cfi_offset 7, -8
 2631              		.cfi_offset 14, -4
 2632 0002 91B0     		sub	sp, sp, #68
 2633              		.cfi_def_cfa_offset 88
 2634              	.LVL393:
 611:TkShell.c     ****     char c;
 612:TkShell.c     ****     uint8 i = 0;
 613:TkShell.c     ****     uint16 count;
 614:TkShell.c     ****     uint8 buffer[USBUART_BUFFER_SIZE];
 615:TkShell.c     **** //    
 616:TkShell.c     ****     /* Read received data and re-enable OUT endpoint. */
 617:TkShell.c     ****     count = USBUART_GetAll(buffer);
 2635              		.loc 1 617 0
ARM GAS  C:\Users\TERENC~1\AppData\Local\Temp\cc1rRXTX.s 			page 62


 2636 0004 6846     		mov	r0, sp
 2637 0006 FFF7FEFF 		bl	USBUART_GetAll
 2638              	.LVL394:
 2639 000a 0600     		movs	r6, r0
 2640              	.LVL395:
 612:TkShell.c     ****     uint16 count;
 2641              		.loc 1 612 0
 2642 000c 0025     		movs	r5, #0
 618:TkShell.c     **** //
 619:TkShell.c     **** //                if (0u != count)
 620:TkShell.c     **** //                {
 621:TkShell.c     **** //                    /* Wait until component is ready to send data to host. */
 622:TkShell.c     **** //                    while (0u == USBUART_CDCIsReady())
 623:TkShell.c     **** //                    {
 624:TkShell.c     **** //                    }
 625:TkShell.c     **** //
 626:TkShell.c     **** //                    /* Send data back to host. */
 627:TkShell.c     **** //                    USBUART_PutData(buffer, count);
 628:TkShell.c     **** //
 629:TkShell.c     **** //                    /* If the last sent packet is exactly the maximum packet 
 630:TkShell.c     **** //                    *  size, it is followed by a zero-length packet to assure
 631:TkShell.c     **** //                    *  that the end of the segment is properly identified by 
 632:TkShell.c     **** //                    *  the terminal.
 633:TkShell.c     **** //                    */
 634:TkShell.c     **** //                    if (USBUART_BUFFER_SIZE == count)
 635:TkShell.c     **** //                    {
 636:TkShell.c     **** //                        /* Wait until component is ready to send data to PC. */
 637:TkShell.c     **** //                        while (0u == USBUART_CDCIsReady())
 638:TkShell.c     **** //                        {
 639:TkShell.c     **** //                        }
 640:TkShell.c     **** //
 641:TkShell.c     **** //                        /* Send zero-length packet to PC. */
 642:TkShell.c     **** //                        USBUART_PutData(NULL, 0u);
 643:TkShell.c     **** //                    }
 644:TkShell.c     **** //                }
 645:TkShell.c     **** //
 646:TkShell.c     ****     while ((c = buffer[i]) != 0 && i < count)
 2643              		.loc 1 646 0
 2644 000e 74E0     		b	.L214
 2645              	.LVL396:
 2646              	.L229:
 647:TkShell.c     ****     {
 648:TkShell.c     ****         i++;
 2647              		.loc 1 648 0
 2648 0010 0135     		adds	r5, r5, #1
 2649              	.LVL397:
 2650 0012 EDB2     		uxtb	r5, r5
 2651              	.LVL398:
 649:TkShell.c     ****         switch (c)
 2652              		.loc 1 649 0
 2653 0014 0A2C     		cmp	r4, #10
 2654 0016 0AD0     		beq	.L216
 2655 0018 04D8     		bhi	.L217
 2656 001a 032C     		cmp	r4, #3
 2657 001c 07D0     		beq	.L216
 2658 001e 082C     		cmp	r4, #8
 2659 0020 34D0     		beq	.L218
ARM GAS  C:\Users\TERENC~1\AppData\Local\Temp\cc1rRXTX.s 			page 63


 2660 0022 50E0     		b	.L215
 2661              	.L217:
 2662 0024 0D2C     		cmp	r4, #13
 2663 0026 02D0     		beq	.L216
 2664 0028 7F2C     		cmp	r4, #127
 2665 002a 2FD0     		beq	.L218
 2666 002c 4BE0     		b	.L215
 2667              	.L216:
 650:TkShell.c     ****         {
 651:TkShell.c     ****             case '\r':
 652:TkShell.c     ****             case '\n':
 653:TkShell.c     ****             case 0x03:
 654:TkShell.c     ****                 PRINTF("%c", c);
 2668              		.loc 1 654 0
 2669 002e FFF7FEFF 		bl	USBUART_GetConfiguration
 2670              	.LVL399:
 2671 0032 0028     		cmp	r0, #0
 2672 0034 0CD0     		beq	.L219
 2673              	.L220:
 2674              		.loc 1 654 0 is_stmt 0 discriminator 1
 2675 0036 FFF7FEFF 		bl	USBUART_CDCIsReady
 2676              	.LVL400:
 2677 003a 0028     		cmp	r0, #0
 2678 003c FBD0     		beq	.L220
 2679              		.loc 1 654 0 discriminator 2
 2680 003e 334F     		ldr	r7, .L230
 2681 0040 2200     		movs	r2, r4
 2682 0042 3349     		ldr	r1, .L230+4
 2683 0044 3800     		movs	r0, r7
 2684 0046 FFF7FEFF 		bl	sprintf
 2685              	.LVL401:
 2686 004a 3800     		movs	r0, r7
 2687 004c FFF7FEFF 		bl	USBUART_PutString
 2688              	.LVL402:
 2689              	.L219:
 655:TkShell.c     ****                 if (cmd_char_count > 0)
 2690              		.loc 1 655 0 is_stmt 1
 2691 0050 4023     		movs	r3, #64
 2692 0052 304A     		ldr	r2, .L230+8
 2693 0054 D35C     		ldrb	r3, [r2, r3]
 2694 0056 002B     		cmp	r3, #0
 2695 0058 01D0     		beq	.L221
 656:TkShell.c     ****                 {
 657:TkShell.c     ****                     TkShellProcessCommand();
 2696              		.loc 1 657 0
 2697 005a FFF7FEFF 		bl	TkShellProcessCommand
 2698              	.LVL403:
 2699              	.L221:
 658:TkShell.c     ****                 }
 659:TkShell.c     ****                 PRINTF("\U00002744 ] ");
 2700              		.loc 1 659 0
 2701 005e FFF7FEFF 		bl	USBUART_GetConfiguration
 2702              	.LVL404:
 2703 0062 0028     		cmp	r0, #0
 2704 0064 0CD0     		beq	.L222
 2705              	.L223:
 2706              		.loc 1 659 0 is_stmt 0 discriminator 1
ARM GAS  C:\Users\TERENC~1\AppData\Local\Temp\cc1rRXTX.s 			page 64


 2707 0066 FFF7FEFF 		bl	USBUART_CDCIsReady
 2708              	.LVL405:
 2709 006a 0028     		cmp	r0, #0
 2710 006c FBD0     		beq	.L223
 2711              		.loc 1 659 0 discriminator 2
 2712 006e 274C     		ldr	r4, .L230
 2713              	.LVL406:
 2714 0070 0722     		movs	r2, #7
 2715 0072 2949     		ldr	r1, .L230+12
 2716 0074 2000     		movs	r0, r4
 2717 0076 FFF7FEFF 		bl	memcpy
 2718              	.LVL407:
 2719 007a 2000     		movs	r0, r4
 2720 007c FFF7FEFF 		bl	USBUART_PutString
 2721              	.LVL408:
 2722              	.L222:
 660:TkShell.c     ****                 cmd_char_count = 0;
 2723              		.loc 1 660 0 is_stmt 1
 2724 0080 244B     		ldr	r3, .L230+8
 2725 0082 0022     		movs	r2, #0
 2726 0084 4021     		movs	r1, #64
 2727 0086 5A54     		strb	r2, [r3, r1]
 661:TkShell.c     ****                 cmd_buf[0] = '\0';
 2728              		.loc 1 661 0
 2729 0088 1A70     		strb	r2, [r3]
 662:TkShell.c     ****                 break;
 2730              		.loc 1 662 0
 2731 008a 36E0     		b	.L214
 2732              	.LVL409:
 2733              	.L218:
 663:TkShell.c     ****                 
 664:TkShell.c     ****             case 127:
 665:TkShell.c     ****             case '\b':
 666:TkShell.c     ****                 if (cmd_char_count == 0)
 2734              		.loc 1 666 0
 2735 008c 4023     		movs	r3, #64
 2736 008e 214A     		ldr	r2, .L230+8
 2737 0090 D35C     		ldrb	r3, [r2, r3]
 2738 0092 002B     		cmp	r3, #0
 2739 0094 31D0     		beq	.L214
 667:TkShell.c     ****                 {
 668:TkShell.c     ****                     break;
 669:TkShell.c     ****                 }
 670:TkShell.c     ****                 cmd_buf[--cmd_char_count] = '\0';
 2740              		.loc 1 670 0
 2741 0096 013B     		subs	r3, r3, #1
 2742 0098 DBB2     		uxtb	r3, r3
 2743 009a 4021     		movs	r1, #64
 2744 009c 5354     		strb	r3, [r2, r1]
 2745 009e 0021     		movs	r1, #0
 2746 00a0 D154     		strb	r1, [r2, r3]
 671:TkShell.c     ****                 PRINTF("\b \b");
 2747              		.loc 1 671 0
 2748 00a2 FFF7FEFF 		bl	USBUART_GetConfiguration
 2749              	.LVL410:
 2750 00a6 0028     		cmp	r0, #0
 2751 00a8 27D0     		beq	.L214
ARM GAS  C:\Users\TERENC~1\AppData\Local\Temp\cc1rRXTX.s 			page 65


 2752              	.L225:
 2753              		.loc 1 671 0 is_stmt 0 discriminator 1
 2754 00aa FFF7FEFF 		bl	USBUART_CDCIsReady
 2755              	.LVL411:
 2756 00ae 0028     		cmp	r0, #0
 2757 00b0 FBD0     		beq	.L225
 2758              		.loc 1 671 0 discriminator 2
 2759 00b2 164C     		ldr	r4, .L230
 2760              	.LVL412:
 2761 00b4 0422     		movs	r2, #4
 2762 00b6 1949     		ldr	r1, .L230+16
 2763 00b8 2000     		movs	r0, r4
 2764 00ba FFF7FEFF 		bl	memcpy
 2765              	.LVL413:
 2766 00be 2000     		movs	r0, r4
 2767 00c0 FFF7FEFF 		bl	USBUART_PutString
 2768              	.LVL414:
 2769 00c4 19E0     		b	.L214
 2770              	.LVL415:
 2771              	.L215:
 672:TkShell.c     ****                 break;
 673:TkShell.c     **** 
 674:TkShell.c     ****             default:
 675:TkShell.c     ****                 PRINTF("%c", c);
 2772              		.loc 1 675 0 is_stmt 1
 2773 00c6 FFF7FEFF 		bl	USBUART_GetConfiguration
 2774              	.LVL416:
 2775 00ca 0028     		cmp	r0, #0
 2776 00cc 0CD0     		beq	.L226
 2777              	.L227:
 2778              		.loc 1 675 0 is_stmt 0 discriminator 1
 2779 00ce FFF7FEFF 		bl	USBUART_CDCIsReady
 2780              	.LVL417:
 2781 00d2 0028     		cmp	r0, #0
 2782 00d4 FBD0     		beq	.L227
 2783              		.loc 1 675 0 discriminator 2
 2784 00d6 0D4F     		ldr	r7, .L230
 2785 00d8 2200     		movs	r2, r4
 2786 00da 0D49     		ldr	r1, .L230+4
 2787 00dc 3800     		movs	r0, r7
 2788 00de FFF7FEFF 		bl	sprintf
 2789              	.LVL418:
 2790 00e2 3800     		movs	r0, r7
 2791 00e4 FFF7FEFF 		bl	USBUART_PutString
 2792              	.LVL419:
 2793              	.L226:
 676:TkShell.c     ****                 cmd_buf[cmd_char_count++] = c;
 2794              		.loc 1 676 0 is_stmt 1
 2795 00e8 0A4A     		ldr	r2, .L230+8
 2796 00ea 4020     		movs	r0, #64
 2797 00ec 115C     		ldrb	r1, [r2, r0]
 2798 00ee 4B1C     		adds	r3, r1, #1
 2799 00f0 DBB2     		uxtb	r3, r3
 2800 00f2 1354     		strb	r3, [r2, r0]
 2801 00f4 5454     		strb	r4, [r2, r1]
 677:TkShell.c     ****                 cmd_buf[cmd_char_count] = '\0';
 2802              		.loc 1 677 0
ARM GAS  C:\Users\TERENC~1\AppData\Local\Temp\cc1rRXTX.s 			page 66


 2803 00f6 0021     		movs	r1, #0
 2804 00f8 D154     		strb	r1, [r2, r3]
 2805              	.LVL420:
 2806              	.L214:
 646:TkShell.c     ****     {
 2807              		.loc 1 646 0
 2808 00fa 6B46     		mov	r3, sp
 2809 00fc 5C5D     		ldrb	r4, [r3, r5]
 2810              	.LVL421:
 2811 00fe 002C     		cmp	r4, #0
 2812 0100 02D0     		beq	.L213
 646:TkShell.c     ****     {
 2813              		.loc 1 646 0 is_stmt 0 discriminator 1
 2814 0102 ABB2     		uxth	r3, r5
 2815 0104 9E42     		cmp	r6, r3
 2816 0106 83D8     		bhi	.L229
 2817              	.L213:
 678:TkShell.c     ****                 break;
 679:TkShell.c     ****         }
 680:TkShell.c     ****     }
 681:TkShell.c     **** }
 2818              		.loc 1 681 0 is_stmt 1
 2819 0108 11B0     		add	sp, sp, #68
 2820              		@ sp needed
 2821              	.LVL422:
 2822              	.LVL423:
 2823              	.LVL424:
 2824 010a F0BD     		pop	{r4, r5, r6, r7, pc}
 2825              	.L231:
 2826              		.align	2
 2827              	.L230:
 2828 010c 00000000 		.word	gbuf
 2829 0110 94020000 		.word	.LC119
 2830 0114 00000000 		.word	.LANCHOR1
 2831 0118 98020000 		.word	.LC123
 2832 011c A0020000 		.word	.LC125
 2833              		.cfi_endproc
 2834              	.LFE22:
 2835              		.size	TkShellService, .-TkShellService
 2836              		.section	.rodata
 2837              		.align	2
 2838              		.set	.LANCHOR0,. + 0
 2839              		.type	reg_lookup, %object
 2840              		.size	reg_lookup, 56
 2841              	reg_lookup:
 2842 0000 00000440 		.word	1074003968
 2843 0004 00010440 		.word	1074004224
 2844 0008 00020440 		.word	1074004480
 2845 000c 00030440 		.word	1074004736
 2846 0010 00040440 		.word	1074004992
 2847 0014 00050440 		.word	1074005248
 2848 0018 00060440 		.word	1074005504
 2849 001c 00070440 		.word	1074005760
 2850 0020 00080440 		.word	1074006016
 2851 0024 00090440 		.word	1074006272
 2852 0028 000A0440 		.word	1074006528
 2853 002c 000B0440 		.word	1074006784
ARM GAS  C:\Users\TERENC~1\AppData\Local\Temp\cc1rRXTX.s 			page 67


 2854 0030 000C0440 		.word	1074007040
 2855 0034 000D0440 		.word	1074007296
 2856              		.type	commands, %object
 2857              		.size	commands, 84
 2858              	commands:
 2859 0038 A4020000 		.word	.LC127
 2860 003c 70010000 		.word	__tk_shell_verbs_gpio
 2861 0040 AC020000 		.word	.LC128
 2862 0044 BC020000 		.word	.LC129
 2863 0048 34010000 		.word	__tk_shell_verbs_wm
 2864 004c C0020000 		.word	.LC130
 2865 0050 D8020000 		.word	.LC131
 2866 0054 1C010000 		.word	__tk_shell_verbs_pcm
 2867 0058 DC020000 		.word	.LC132
 2868 005c F8020000 		.word	.LC133
 2869 0060 E0000000 		.word	__tk_shell_verbs_sys
 2870 0064 FC020000 		.word	.LC134
 2871 0068 0C030000 		.word	.LC135
 2872 006c BC000000 		.word	__tk_shell_verbs_led
 2873 0070 10030000 		.word	.LC136
 2874 0074 20030000 		.word	.LC137
 2875 0078 8C000000 		.word	__tk_shell_verbs_cal
 2876 007c 24030000 		.word	.LC138
 2877 0080 40030000 		.word	.LC139
 2878 0084 00000000 		.word	0
 2879 0088 40030000 		.word	.LC139
 2880              		.type	__tk_shell_verbs_cal, %object
 2881              		.size	__tk_shell_verbs_cal, 48
 2882              	__tk_shell_verbs_cal:
 2883 008c 44030000 		.word	.LC140
 2884 0090 00000000 		.word	__tk_shell_cal_print
 2885 0094 4C030000 		.word	.LC141
 2886 0098 5C030000 		.word	.LC142
 2887 009c 00000000 		.word	__tk_shell_cal_set
 2888 00a0 60030000 		.word	.LC143
 2889 00a4 70030000 		.word	.LC144
 2890 00a8 00000000 		.word	__tk_shell_cal_save
 2891 00ac 78030000 		.word	.LC145
 2892 00b0 40030000 		.word	.LC139
 2893 00b4 00000000 		.word	0
 2894 00b8 40030000 		.word	.LC139
 2895              		.type	__tk_shell_verbs_led, %object
 2896              		.size	__tk_shell_verbs_led, 36
 2897              	__tk_shell_verbs_led:
 2898 00bc 94030000 		.word	.LC146
 2899 00c0 00000000 		.word	__tk_shell_led_start
 2900 00c4 9C030000 		.word	.LC147
 2901 00c8 F8030000 		.word	.LC148
 2902 00cc 00000000 		.word	__tk_shell_led_stop
 2903 00d0 00040000 		.word	.LC149
 2904 00d4 40030000 		.word	.LC139
 2905 00d8 00000000 		.word	0
 2906 00dc 40030000 		.word	.LC139
 2907              		.type	__tk_shell_verbs_sys, %object
 2908              		.size	__tk_shell_verbs_sys, 60
 2909              	__tk_shell_verbs_sys:
 2910 00e0 28040000 		.word	.LC150
ARM GAS  C:\Users\TERENC~1\AppData\Local\Temp\cc1rRXTX.s 			page 68


 2911 00e4 00000000 		.word	__tk_shell_sys_crash
 2912 00e8 30040000 		.word	.LC151
 2913 00ec 48040000 		.word	.LC152
 2914 00f0 00000000 		.word	__tk_shell_sys_info
 2915 00f4 50040000 		.word	.LC153
 2916 00f8 5C040000 		.word	.LC154
 2917 00fc 00000000 		.word	__tk_shell_sys_reset
 2918 0100 64040000 		.word	.LC155
 2919 0104 78040000 		.word	.LC156
 2920 0108 00000000 		.word	__tk_shell_sys_adc
 2921 010c 7C040000 		.word	.LC157
 2922 0110 40030000 		.word	.LC139
 2923 0114 00000000 		.word	0
 2924 0118 40030000 		.word	.LC139
 2925              		.type	__tk_shell_verbs_pcm, %object
 2926              		.size	__tk_shell_verbs_pcm, 24
 2927              	__tk_shell_verbs_pcm:
 2928 011c 90040000 		.word	.LC158
 2929 0120 00000000 		.word	__tk_shell_pcm_reg
 2930 0124 94040000 		.word	.LC159
 2931 0128 40030000 		.word	.LC139
 2932 012c 00000000 		.word	0
 2933 0130 40030000 		.word	.LC139
 2934              		.type	__tk_shell_verbs_wm, %object
 2935              		.size	__tk_shell_verbs_wm, 60
 2936              	__tk_shell_verbs_wm:
 2937 0134 D0040000 		.word	.LC160
 2938 0138 00000000 		.word	__tk_shell_wm_vol_set
 2939 013c D8040000 		.word	.LC161
 2940 0140 F8040000 		.word	.LC162
 2941 0144 00000000 		.word	__tk_shell_wm_vol_get
 2942 0148 00050000 		.word	.LC163
 2943 014c 14050000 		.word	.LC164
 2944 0150 00000000 		.word	__tk_shell_wm_reg_wr
 2945 0154 1C050000 		.word	.LC165
 2946 0158 44050000 		.word	.LC166
 2947 015c 00000000 		.word	__tk_shell_wm_reg_rd
 2948 0160 4C050000 		.word	.LC167
 2949 0164 40030000 		.word	.LC139
 2950 0168 00000000 		.word	0
 2951 016c 40030000 		.word	.LC139
 2952              		.type	__tk_shell_verbs_gpio, %object
 2953              		.size	__tk_shell_verbs_gpio, 48
 2954              	__tk_shell_verbs_gpio:
 2955 0170 5C030000 		.word	.LC142
 2956 0174 00000000 		.word	__tk_shell_gpio_set
 2957 0178 68050000 		.word	.LC168
 2958 017c 78050000 		.word	.LC169
 2959 0180 00000000 		.word	__tk_shell_gpio_config
 2960 0184 80050000 		.word	.LC170
 2961 0188 90050000 		.word	.LC171
 2962 018c 00000000 		.word	__tk_shell_gpio_get
 2963 0190 94050000 		.word	.LC172
 2964 0194 40030000 		.word	.LC139
 2965 0198 00000000 		.word	0
 2966 019c 40030000 		.word	.LC139
 2967              		.section	.rodata.str1.4,"aMS",%progbits,1
ARM GAS  C:\Users\TERENC~1\AppData\Local\Temp\cc1rRXTX.s 			page 69


 2968              		.align	2
 2969              	.LC1:
 2970 0000 3E207379 		.ascii	"> sys:er\012\000"
 2970      733A6572 
 2970      0A00
 2971 000a 0000     		.space	2
 2972              	.LC4:
 2973 000c 496E7661 		.ascii	"Invalid number of arguments!\012\000"
 2973      6C696420 
 2973      6E756D62 
 2973      6572206F 
 2973      66206172 
 2974 002a 0000     		.space	2
 2975              	.LC10:
 2976 002c 3E206770 		.ascii	"> gpio:ok %d\012\000"
 2976      696F3A6F 
 2976      6B202564 
 2976      0A00
 2977 003a 0000     		.space	2
 2978              	.LC17:
 2979 003c 3E207379 		.ascii	"> sys:ok %08lu\012\000"
 2979      733A6F6B 
 2979      20253038 
 2979      6C750A00 
 2980              	.LC21:
 2981 004c 3E207379 		.ascii	"> sys:ok %d,%d\012\000"
 2981      733A6F6B 
 2981      2025642C 
 2981      25640A00 
 2982              	.LC25:
 2983 005c 7369676E 		.ascii	"sign = 0x%08X\012\000"
 2983      203D2030 
 2983      78253038 
 2983      580A00
 2984 006b 00       		.space	1
 2985              	.LC28:
 2986 006c 63747220 		.ascii	"ctr = %lu\012\000"
 2986      3D20256C 
 2986      750A00
 2987 0077 00       		.space	1
 2988              	.LC30:
 2989 0078 6164635F 		.ascii	"adc_min[R] = %d\012\000"
 2989      6D696E5B 
 2989      525D203D 
 2989      2025640A 
 2989      00
 2990 0089 000000   		.space	3
 2991              	.LC32:
 2992 008c 6164635F 		.ascii	"adc_max[R] = %d\012\000"
 2992      6D61785B 
 2992      525D203D 
 2992      2025640A 
 2992      00
 2993 009d 000000   		.space	3
 2994              	.LC34:
 2995 00a0 6164635F 		.ascii	"adc_min[L] = %d\012\000"
 2995      6D696E5B 
ARM GAS  C:\Users\TERENC~1\AppData\Local\Temp\cc1rRXTX.s 			page 70


 2995      4C5D203D 
 2995      2025640A 
 2995      00
 2996 00b1 000000   		.space	3
 2997              	.LC36:
 2998 00b4 6164635F 		.ascii	"adc_max[L] = %d\012\000"
 2998      6D61785B 
 2998      4C5D203D 
 2998      2025640A 
 2998      00
 2999 00c5 000000   		.space	3
 3000              	.LC38:
 3001 00c8 6C65645F 		.ascii	"led_max_brightness = %d\012\000"
 3001      6D61785F 
 3001      62726967 
 3001      68746E65 
 3001      7373203D 
 3002 00e1 000000   		.space	3
 3003              	.LC40:
 3004 00e4 64656275 		.ascii	"debug_mask = 0x%02X\012\000"
 3004      675F6D61 
 3004      736B203D 
 3004      20307825 
 3004      3032580A 
 3005 00f9 000000   		.space	3
 3006              	.LC42:
 3007 00fc 3E206361 		.ascii	"> cal:ok\012\000"
 3007      6C3A6F6B 
 3007      0A00
 3008 0106 0000     		.space	2
 3009              	.LC46:
 3010 0108 3E20776D 		.ascii	"> wm:ok\012\000"
 3010      3A6F6B0A 
 3010      00
 3011 0111 000000   		.space	3
 3012              	.LC48:
 3013 0114 3E20776D 		.ascii	"> wm:er %d\012\000"
 3013      3A657220 
 3013      25640A00 
 3014              	.LC50:
 3015 0120 3E20776D 		.ascii	"> wm:ok %d\012\000"
 3015      3A6F6B20 
 3015      25640A00 
 3016              	.LC59:
 3017 012c 3E20776D 		.ascii	"> wm:ok 0x%04X\012\000"
 3017      3A6F6B20 
 3017      30782530 
 3017      34580A00 
 3018              	.LC61:
 3019 013c 3E206361 		.ascii	"> cal:ok %d\012\000"
 3019      6C3A6F6B 
 3019      2025640A 
 3019      00
 3020 0149 000000   		.space	3
 3021              	.LC65:
 3022 014c 496E7661 		.ascii	"Invalid number of arguments: %d\012\000"
 3022      6C696420 
ARM GAS  C:\Users\TERENC~1\AppData\Local\Temp\cc1rRXTX.s 			page 71


 3022      6E756D62 
 3022      6572206F 
 3022      66206172 
 3023 016d 000000   		.space	3
 3024              	.LC68:
 3025 0170 777200   		.ascii	"wr\000"
 3026 0173 00       		.space	1
 3027              	.LC70:
 3028 0174 3E207063 		.ascii	"> pcm:ok 0x%02X\012\000"
 3028      6D3A6F6B 
 3028      20307825 
 3028      3032580A 
 3028      00
 3029 0185 000000   		.space	3
 3030              	.LC74:
 3031 0188 72656400 		.ascii	"red\000"
 3032              	.LC76:
 3033 018c 67726565 		.ascii	"green\000"
 3033      6E00
 3034 0192 0000     		.space	2
 3035              	.LC78:
 3036 0194 626C7565 		.ascii	"blue\000"
 3036      00
 3037 0199 000000   		.space	3
 3038              	.LC80:
 3039 019c 496E7661 		.ascii	"Invalid color %s, must be red|green|blue\012\000"
 3039      6C696420 
 3039      636F6C6F 
 3039      72202573 
 3039      2C206D75 
 3040 01c6 0000     		.space	2
 3041              	.LC82:
 3042 01c8 3E206C65 		.ascii	"> led:ok\012\000"
 3042      643A6F6B 
 3042      0A00
 3043 01d2 0000     		.space	2
 3044              	.LC93:
 3045 01d4 6C65645F 		.ascii	"led_max_brightness\000"
 3045      6D61785F 
 3045      62726967 
 3045      68746E65 
 3045      737300
 3046 01e7 00       		.space	1
 3047              	.LC96:
 3048 01e8 6164635F 		.ascii	"adc_min_l\000"
 3048      6D696E5F 
 3048      6C00
 3049 01f2 0000     		.space	2
 3050              	.LC98:
 3051 01f4 64656275 		.ascii	"debug_mask\000"
 3051      675F6D61 
 3051      736B00
 3052 01ff 00       		.space	1
 3053              	.LC103:
 3054 0200 546F6F20 		.ascii	"Too many arguments!\012\000"
 3054      6D616E79 
 3054      20617267 
ARM GAS  C:\Users\TERENC~1\AppData\Local\Temp\cc1rRXTX.s 			page 72


 3054      756D656E 
 3054      7473210A 
 3055 0215 000000   		.space	3
 3056              	.LC105:
 3057 0218 68656C70 		.ascii	"help\000"
 3057      00
 3058 021d 000000   		.space	3
 3059              	.LC107:
 3060 0220 44697370 		.ascii	"Displaying list of %s commands:\012\000"
 3060      6C617969 
 3060      6E67206C 
 3060      69737420 
 3060      6F662025 
 3061 0241 000000   		.space	3
 3062              	.LC109:
 3063 0244 09257320 		.ascii	"\011%s %s: %s\012\000"
 3063      25733A20 
 3063      25730A00 
 3064              	.LC112:
 3065 0250 44697370 		.ascii	"Displaying list of commands:\012\000"
 3065      6C617969 
 3065      6E67206C 
 3065      69737420 
 3065      6F662063 
 3066 026e 0000     		.space	2
 3067              	.LC114:
 3068 0270 0925733A 		.ascii	"\011%s: %s\012\000"
 3068      2025730A 
 3068      00
 3069 0279 000000   		.space	3
 3070              	.LC116:
 3071 027c 756E6B6E 		.ascii	"unknown command: %s\012\000"
 3071      6F776E20 
 3071      636F6D6D 
 3071      616E643A 
 3071      2025730A 
 3072 0291 000000   		.space	3
 3073              	.LC119:
 3074 0294 256300   		.ascii	"%c\000"
 3075 0297 00       		.space	1
 3076              	.LC123:
 3077 0298 E29D8420 		.ascii	"\342\235\204 ] \000"
 3077      5D2000
 3078 029f 00       		.space	1
 3079              	.LC125:
 3080 02a0 08200800 		.ascii	"\010 \010\000"
 3081              	.LC127:
 3082 02a4 6770696F 		.ascii	"gpio\000"
 3082      00
 3083 02a9 000000   		.space	3
 3084              	.LC128:
 3085 02ac 4750494F 		.ascii	"GPIO commands\000"
 3085      20636F6D 
 3085      6D616E64 
 3085      7300
 3086 02ba 0000     		.space	2
 3087              	.LC129:
ARM GAS  C:\Users\TERENC~1\AppData\Local\Temp\cc1rRXTX.s 			page 73


 3088 02bc 776D00   		.ascii	"wm\000"
 3089 02bf 00       		.space	1
 3090              	.LC130:
 3091 02c0 576F6C66 		.ascii	"Wolfson Codec commands\000"
 3091      736F6E20 
 3091      436F6465 
 3091      6320636F 
 3091      6D6D616E 
 3092 02d7 00       		.space	1
 3093              	.LC131:
 3094 02d8 70636D00 		.ascii	"pcm\000"
 3095              	.LC132:
 3096 02dc 42757272 		.ascii	"Burr-Brown Codec commands\000"
 3096      2D42726F 
 3096      776E2043 
 3096      6F646563 
 3096      20636F6D 
 3097 02f6 0000     		.space	2
 3098              	.LC133:
 3099 02f8 73797300 		.ascii	"sys\000"
 3100              	.LC134:
 3101 02fc 53797374 		.ascii	"System commands\000"
 3101      656D2063 
 3101      6F6D6D61 
 3101      6E647300 
 3102              	.LC135:
 3103 030c 6C656400 		.ascii	"led\000"
 3104              	.LC136:
 3105 0310 4C454420 		.ascii	"LED commands\000"
 3105      636F6D6D 
 3105      616E6473 
 3105      00
 3106 031d 000000   		.space	3
 3107              	.LC137:
 3108 0320 63616C00 		.ascii	"cal\000"
 3109              	.LC138:
 3110 0324 43616C69 		.ascii	"Calibration data commands\000"
 3110      62726174 
 3110      696F6E20 
 3110      64617461 
 3110      20636F6D 
 3111 033e 0000     		.space	2
 3112              	.LC139:
 3113 0340 00       		.ascii	"\000"
 3114 0341 000000   		.space	3
 3115              	.LC140:
 3116 0344 7072696E 		.ascii	"print\000"
 3116      7400
 3117 034a 0000     		.space	2
 3118              	.LC141:
 3119 034c 7072696E 		.ascii	"print cal data\000"
 3119      74206361 
 3119      6C206461 
 3119      746100
 3120 035b 00       		.space	1
 3121              	.LC142:
 3122 035c 73657400 		.ascii	"set\000"
ARM GAS  C:\Users\TERENC~1\AppData\Local\Temp\cc1rRXTX.s 			page 74


 3123              	.LC143:
 3124 0360 73657420 		.ascii	"set cal data\000"
 3124      63616C20 
 3124      64617461 
 3124      00
 3125 036d 000000   		.space	3
 3126              	.LC144:
 3127 0370 73617665 		.ascii	"save\000"
 3127      00
 3128 0375 000000   		.space	3
 3129              	.LC145:
 3130 0378 636F6D6D 		.ascii	"commit cal data to flash\000"
 3130      69742063 
 3130      616C2064 
 3130      61746120 
 3130      746F2066 
 3131 0391 000000   		.space	3
 3132              	.LC146:
 3133 0394 73746172 		.ascii	"start\000"
 3133      7400
 3134 039a 0000     		.space	2
 3135              	.LC147:
 3136 039c 73746172 		.ascii	"start LED animation <led:red|green|blue> <period:ui"
 3136      74204C45 
 3136      4420616E 
 3136      696D6174 
 3136      696F6E20 
 3137 03cf 6E743332 		.ascii	"nt32> <compare:uint32> <counter:uint32>\000"
 3137      3E203C63 
 3137      6F6D7061 
 3137      72653A75 
 3137      696E7433 
 3138 03f7 00       		.space	1
 3139              	.LC148:
 3140 03f8 73746F70 		.ascii	"stop\000"
 3140      00
 3141 03fd 000000   		.space	3
 3142              	.LC149:
 3143 0400 73746F70 		.ascii	"stop LED animation <led:red|green|blue>\000"
 3143      204C4544 
 3143      20616E69 
 3143      6D617469 
 3143      6F6E203C 
 3144              	.LC150:
 3145 0428 63726173 		.ascii	"crash\000"
 3145      6800
 3146 042e 0000     		.space	2
 3147              	.LC151:
 3148 0430 74726967 		.ascii	"trigger a hard fault\000"
 3148      67657220 
 3148      61206861 
 3148      72642066 
 3148      61756C74 
 3149 0445 000000   		.space	3
 3150              	.LC152:
 3151 0448 696E666F 		.ascii	"info\000"
 3151      00
ARM GAS  C:\Users\TERENC~1\AppData\Local\Temp\cc1rRXTX.s 			page 75


 3152 044d 000000   		.space	3
 3153              	.LC153:
 3154 0450 7072696E 		.ascii	"print info\000"
 3154      7420696E 
 3154      666F00
 3155 045b 00       		.space	1
 3156              	.LC154:
 3157 045c 72657365 		.ascii	"reset\000"
 3157      7400
 3158 0462 0000     		.space	2
 3159              	.LC155:
 3160 0464 74726967 		.ascii	"trigger a SW reset\000"
 3160      67657220 
 3160      61205357 
 3160      20726573 
 3160      657400
 3161 0477 00       		.space	1
 3162              	.LC156:
 3163 0478 61646300 		.ascii	"adc\000"
 3164              	.LC157:
 3165 047c 7072696E 		.ascii	"print ADC values\000"
 3165      74204144 
 3165      43207661 
 3165      6C756573 
 3165      00
 3166 048d 000000   		.space	3
 3167              	.LC158:
 3168 0490 72656700 		.ascii	"reg\000"
 3169              	.LC159:
 3170 0494 72656769 		.ascii	"register read (rd) and write (wr) <reg:uint8,data:u"
 3170      73746572 
 3170      20726561 
 3170      64202872 
 3170      64292061 
 3171 04c7 696E7438 		.ascii	"int8>\000"
 3171      3E00
 3172 04cd 000000   		.space	3
 3173              	.LC160:
 3174 04d0 766F6C5F 		.ascii	"vol_set\000"
 3174      73657400 
 3175              	.LC161:
 3176 04d8 73657420 		.ascii	"set volume level <vol:uint8>\000"
 3176      766F6C75 
 3176      6D65206C 
 3176      6576656C 
 3176      203C766F 
 3177 04f5 000000   		.space	3
 3178              	.LC162:
 3179 04f8 766F6C5F 		.ascii	"vol_get\000"
 3179      67657400 
 3180              	.LC163:
 3181 0500 67657420 		.ascii	"get volume level\000"
 3181      766F6C75 
 3181      6D65206C 
 3181      6576656C 
 3181      00
 3182 0511 000000   		.space	3
ARM GAS  C:\Users\TERENC~1\AppData\Local\Temp\cc1rRXTX.s 			page 76


 3183              	.LC164:
 3184 0514 7265675F 		.ascii	"reg_wr\000"
 3184      777200
 3185 051b 00       		.space	1
 3186              	.LC165:
 3187 051c 77726974 		.ascii	"write register <reg:uint8,data:uint16>)\000"
 3187      65207265 
 3187      67697374 
 3187      6572203C 
 3187      7265673A 
 3188              	.LC166:
 3189 0544 7265675F 		.ascii	"reg_rd\000"
 3189      726400
 3190 054b 00       		.space	1
 3191              	.LC167:
 3192 054c 72656164 		.ascii	"read register <reg:uint8>\000"
 3192      20726567 
 3192      69737465 
 3192      72203C72 
 3192      65673A75 
 3193 0566 0000     		.space	2
 3194              	.LC168:
 3195 0568 73657420 		.ascii	"set GPIO state\000"
 3195      4750494F 
 3195      20737461 
 3195      746500
 3196 0577 00       		.space	1
 3197              	.LC169:
 3198 0578 636F6E66 		.ascii	"config\000"
 3198      696700
 3199 057f 00       		.space	1
 3200              	.LC170:
 3201 0580 636F6E66 		.ascii	"configure GPIO\000"
 3201      69677572 
 3201      65204750 
 3201      494F00
 3202 058f 00       		.space	1
 3203              	.LC171:
 3204 0590 67657400 		.ascii	"get\000"
 3205              	.LC172:
 3206 0594 67657420 		.ascii	"get GPIO state\000"
 3206      4750494F 
 3206      20737461 
 3206      746500
 3207              		.bss
 3208              		.align	2
 3209              		.set	.LANCHOR1,. + 0
 3210              		.type	cmd_buf, %object
 3211              		.size	cmd_buf, 64
 3212              	cmd_buf:
 3213 0000 00000000 		.space	64
 3213      00000000 
 3213      00000000 
 3213      00000000 
 3213      00000000 
 3214              		.type	cmd_char_count, %object
 3215              		.size	cmd_char_count, 1
ARM GAS  C:\Users\TERENC~1\AppData\Local\Temp\cc1rRXTX.s 			page 77


 3216              	cmd_char_count:
 3217 0040 00       		.space	1
 3218              		.text
 3219              	.Letext0:
 3220              		.file 2 "c:\\program files (x86)\\cypress\\psoc creator\\4.2\\psoc creator\\import\\gnu\\arm\\5.4.
 3221              		.file 3 "c:\\program files (x86)\\cypress\\psoc creator\\4.2\\psoc creator\\import\\gnu\\arm\\5.4.
 3222              		.file 4 "Generated_Source\\PSoC4/cytypes.h"
 3223              		.file 5 "./Calibration.h"
 3224              		.file 6 "./VolumeControl.h"
 3225              		.file 7 "./LedManager.h"
 3226              		.file 8 "c:\\program files (x86)\\cypress\\psoc creator\\4.2\\psoc creator\\import\\gnu\\arm\\5.4.
 3227              		.file 9 "./timers.h"
 3228              		.file 10 "./Application.h"
 3229              		.file 11 "Generated_Source\\PSoC4/USBUART.h"
 3230              		.file 12 "Generated_Source\\PSoC4/USBUART_cdc.h"
 3231              		.file 13 "c:\\program files (x86)\\cypress\\psoc creator\\4.2\\psoc creator\\import\\gnu\\arm\\5.4
 3232              		.file 14 "c:\\program files (x86)\\cypress\\psoc creator\\4.2\\psoc creator\\import\\gnu\\arm\\5.4
 3233              		.file 15 "./Codec.h"
 3234              		.file 16 "Generated_Source\\PSoC4/CyLib.h"
 3235              		.file 17 "./pcm1770.h"
 3236              		.section	.debug_info,"",%progbits
 3237              	.Ldebug_info0:
 3238 0000 FF1B0000 		.4byte	0x1bff
 3239 0004 0400     		.2byte	0x4
 3240 0006 00000000 		.4byte	.Ldebug_abbrev0
 3241 000a 04       		.byte	0x4
 3242 000b 01       		.uleb128 0x1
 3243 000c BB010000 		.4byte	.LASF115
 3244 0010 0C       		.byte	0xc
 3245 0011 9C010000 		.4byte	.LASF116
 3246 0015 49020000 		.4byte	.LASF117
 3247 0019 00000000 		.4byte	.Ldebug_ranges0+0
 3248 001d 00000000 		.4byte	0
 3249 0021 00000000 		.4byte	.Ldebug_line0
 3250 0025 02       		.uleb128 0x2
 3251 0026 04       		.byte	0x4
 3252 0027 05       		.byte	0x5
 3253 0028 696E7400 		.ascii	"int\000"
 3254 002c 03       		.uleb128 0x3
 3255 002d 04       		.byte	0x4
 3256 002e 07       		.byte	0x7
 3257 002f 61000000 		.4byte	.LASF0
 3258 0033 03       		.uleb128 0x3
 3259 0034 08       		.byte	0x8
 3260 0035 05       		.byte	0x5
 3261 0036 1E030000 		.4byte	.LASF1
 3262 003a 03       		.uleb128 0x3
 3263 003b 08       		.byte	0x8
 3264 003c 04       		.byte	0x4
 3265 003d C1030000 		.4byte	.LASF2
 3266 0041 03       		.uleb128 0x3
 3267 0042 01       		.byte	0x1
 3268 0043 06       		.byte	0x6
 3269 0044 17060000 		.4byte	.LASF3
 3270 0048 04       		.uleb128 0x4
 3271 0049 B1040000 		.4byte	.LASF6
 3272 004d 02       		.byte	0x2
ARM GAS  C:\Users\TERENC~1\AppData\Local\Temp\cc1rRXTX.s 			page 78


 3273 004e 1D       		.byte	0x1d
 3274 004f 53000000 		.4byte	0x53
 3275 0053 03       		.uleb128 0x3
 3276 0054 01       		.byte	0x1
 3277 0055 08       		.byte	0x8
 3278 0056 72050000 		.4byte	.LASF4
 3279 005a 03       		.uleb128 0x3
 3280 005b 02       		.byte	0x2
 3281 005c 05       		.byte	0x5
 3282 005d 2E040000 		.4byte	.LASF5
 3283 0061 04       		.uleb128 0x4
 3284 0062 67010000 		.4byte	.LASF7
 3285 0066 02       		.byte	0x2
 3286 0067 2B       		.byte	0x2b
 3287 0068 6C000000 		.4byte	0x6c
 3288 006c 03       		.uleb128 0x3
 3289 006d 02       		.byte	0x2
 3290 006e 07       		.byte	0x7
 3291 006f 39060000 		.4byte	.LASF8
 3292 0073 03       		.uleb128 0x3
 3293 0074 04       		.byte	0x4
 3294 0075 05       		.byte	0x5
 3295 0076 4C040000 		.4byte	.LASF9
 3296 007a 04       		.uleb128 0x4
 3297 007b 98050000 		.4byte	.LASF10
 3298 007f 02       		.byte	0x2
 3299 0080 41       		.byte	0x41
 3300 0081 85000000 		.4byte	0x85
 3301 0085 03       		.uleb128 0x3
 3302 0086 04       		.byte	0x4
 3303 0087 07       		.byte	0x7
 3304 0088 FC040000 		.4byte	.LASF11
 3305 008c 03       		.uleb128 0x3
 3306 008d 08       		.byte	0x8
 3307 008e 07       		.byte	0x7
 3308 008f 50010000 		.4byte	.LASF12
 3309 0093 03       		.uleb128 0x3
 3310 0094 04       		.byte	0x4
 3311 0095 07       		.byte	0x7
 3312 0096 D8040000 		.4byte	.LASF13
 3313 009a 05       		.uleb128 0x5
 3314 009b 04       		.byte	0x4
 3315 009c A0000000 		.4byte	0xa0
 3316 00a0 03       		.uleb128 0x3
 3317 00a1 01       		.byte	0x1
 3318 00a2 08       		.byte	0x8
 3319 00a3 D6020000 		.4byte	.LASF14
 3320 00a7 05       		.uleb128 0x5
 3321 00a8 04       		.byte	0x4
 3322 00a9 AD000000 		.4byte	0xad
 3323 00ad 06       		.uleb128 0x6
 3324 00ae 05       		.uleb128 0x5
 3325 00af 04       		.byte	0x4
 3326 00b0 B4000000 		.4byte	0xb4
 3327 00b4 07       		.uleb128 0x7
 3328 00b5 A0000000 		.4byte	0xa0
 3329 00b9 04       		.uleb128 0x4
ARM GAS  C:\Users\TERENC~1\AppData\Local\Temp\cc1rRXTX.s 			page 79


 3330 00ba 04030000 		.4byte	.LASF15
 3331 00be 03       		.byte	0x3
 3332 00bf 18       		.byte	0x18
 3333 00c0 48000000 		.4byte	0x48
 3334 00c4 04       		.uleb128 0x4
 3335 00c5 D5030000 		.4byte	.LASF16
 3336 00c9 03       		.byte	0x3
 3337 00ca 24       		.byte	0x24
 3338 00cb 61000000 		.4byte	0x61
 3339 00cf 04       		.uleb128 0x4
 3340 00d0 2F010000 		.4byte	.LASF17
 3341 00d4 03       		.byte	0x3
 3342 00d5 30       		.byte	0x30
 3343 00d6 7A000000 		.4byte	0x7a
 3344 00da 08       		.uleb128 0x8
 3345 00db 67060000 		.4byte	.LASF18
 3346 00df 04       		.byte	0x4
 3347 00e0 E401     		.2byte	0x1e4
 3348 00e2 53000000 		.4byte	0x53
 3349 00e6 08       		.uleb128 0x8
 3350 00e7 EA020000 		.4byte	.LASF19
 3351 00eb 04       		.byte	0x4
 3352 00ec E501     		.2byte	0x1e5
 3353 00ee 6C000000 		.4byte	0x6c
 3354 00f2 08       		.uleb128 0x8
 3355 00f3 84030000 		.4byte	.LASF20
 3356 00f7 04       		.byte	0x4
 3357 00f8 E601     		.2byte	0x1e6
 3358 00fa 85000000 		.4byte	0x85
 3359 00fe 08       		.uleb128 0x8
 3360 00ff 8C000000 		.4byte	.LASF21
 3361 0103 04       		.byte	0x4
 3362 0104 E801     		.2byte	0x1e8
 3363 0106 5A000000 		.4byte	0x5a
 3364 010a 03       		.uleb128 0x3
 3365 010b 04       		.byte	0x4
 3366 010c 04       		.byte	0x4
 3367 010d 44010000 		.4byte	.LASF22
 3368 0111 03       		.uleb128 0x3
 3369 0112 08       		.byte	0x8
 3370 0113 04       		.byte	0x4
 3371 0114 6D060000 		.4byte	.LASF23
 3372 0118 08       		.uleb128 0x8
 3373 0119 DE030000 		.4byte	.LASF24
 3374 011d 04       		.byte	0x4
 3375 011e 9002     		.2byte	0x290
 3376 0120 24010000 		.4byte	0x124
 3377 0124 09       		.uleb128 0x9
 3378 0125 F2000000 		.4byte	0xf2
 3379 0129 0A       		.uleb128 0xa
 3380 012a 01       		.byte	0x1
 3381 012b 53000000 		.4byte	0x53
 3382 012f 06       		.byte	0x6
 3383 0130 14       		.byte	0x14
 3384 0131 48010000 		.4byte	0x148
 3385 0135 0B       		.uleb128 0xb
 3386 0136 38000000 		.4byte	.LASF25
ARM GAS  C:\Users\TERENC~1\AppData\Local\Temp\cc1rRXTX.s 			page 80


 3387 013a 00       		.byte	0
 3388 013b 0B       		.uleb128 0xb
 3389 013c BF060000 		.4byte	.LASF26
 3390 0140 01       		.byte	0x1
 3391 0141 0B       		.uleb128 0xb
 3392 0142 A7000000 		.4byte	.LASF27
 3393 0146 02       		.byte	0x2
 3394 0147 00       		.byte	0
 3395 0148 0C       		.uleb128 0xc
 3396 0149 14       		.byte	0x14
 3397 014a 05       		.byte	0x5
 3398 014b 12       		.byte	0x12
 3399 014c 99010000 		.4byte	0x199
 3400 0150 0D       		.uleb128 0xd
 3401 0151 92010000 		.4byte	.LASF28
 3402 0155 05       		.byte	0x5
 3403 0156 14       		.byte	0x14
 3404 0157 F2000000 		.4byte	0xf2
 3405 015b 00       		.byte	0
 3406 015c 0D       		.uleb128 0xd
 3407 015d 90020000 		.4byte	.LASF29
 3408 0161 05       		.byte	0x5
 3409 0162 15       		.byte	0x15
 3410 0163 F2000000 		.4byte	0xf2
 3411 0167 04       		.byte	0x4
 3412 0168 0D       		.uleb128 0xd
 3413 0169 6A040000 		.4byte	.LASF30
 3414 016d 05       		.byte	0x5
 3415 016e 16       		.byte	0x16
 3416 016f 99010000 		.4byte	0x199
 3417 0173 08       		.byte	0x8
 3418 0174 0D       		.uleb128 0xd
 3419 0175 07010000 		.4byte	.LASF31
 3420 0179 05       		.byte	0x5
 3421 017a 17       		.byte	0x17
 3422 017b 99010000 		.4byte	0x199
 3423 017f 0C       		.byte	0xc
 3424 0180 0D       		.uleb128 0xd
 3425 0181 6E000000 		.4byte	.LASF32
 3426 0185 05       		.byte	0x5
 3427 0186 19       		.byte	0x19
 3428 0187 DA000000 		.4byte	0xda
 3429 018b 10       		.byte	0x10
 3430 018c 0D       		.uleb128 0xd
 3431 018d 0C000000 		.4byte	.LASF33
 3432 0191 05       		.byte	0x5
 3433 0192 1A       		.byte	0x1a
 3434 0193 DA000000 		.4byte	0xda
 3435 0197 11       		.byte	0x11
 3436 0198 00       		.byte	0
 3437 0199 0E       		.uleb128 0xe
 3438 019a FE000000 		.4byte	0xfe
 3439 019e A9010000 		.4byte	0x1a9
 3440 01a2 0F       		.uleb128 0xf
 3441 01a3 93000000 		.4byte	0x93
 3442 01a7 01       		.byte	0x1
 3443 01a8 00       		.byte	0
ARM GAS  C:\Users\TERENC~1\AppData\Local\Temp\cc1rRXTX.s 			page 81


 3444 01a9 04       		.uleb128 0x4
 3445 01aa 95060000 		.4byte	.LASF34
 3446 01ae 05       		.byte	0x5
 3447 01af 1B       		.byte	0x1b
 3448 01b0 48010000 		.4byte	0x148
 3449 01b4 0A       		.uleb128 0xa
 3450 01b5 01       		.byte	0x1
 3451 01b6 53000000 		.4byte	0x53
 3452 01ba 07       		.byte	0x7
 3453 01bb 12       		.byte	0x12
 3454 01bc D9010000 		.4byte	0x1d9
 3455 01c0 0B       		.uleb128 0xb
 3456 01c1 85020000 		.4byte	.LASF35
 3457 01c5 00       		.byte	0
 3458 01c6 0B       		.uleb128 0xb
 3459 01c7 E1050000 		.4byte	.LASF36
 3460 01cb 01       		.byte	0x1
 3461 01cc 0B       		.uleb128 0xb
 3462 01cd 38010000 		.4byte	.LASF37
 3463 01d1 02       		.byte	0x2
 3464 01d2 0B       		.uleb128 0xb
 3465 01d3 81000000 		.4byte	.LASF38
 3466 01d7 03       		.byte	0x3
 3467 01d8 00       		.byte	0
 3468 01d9 04       		.uleb128 0x4
 3469 01da FE000000 		.4byte	.LASF39
 3470 01de 07       		.byte	0x7
 3471 01df 17       		.byte	0x17
 3472 01e0 B4010000 		.4byte	0x1b4
 3473 01e4 0C       		.uleb128 0xc
 3474 01e5 0C       		.byte	0xc
 3475 01e6 01       		.byte	0x1
 3476 01e7 23       		.byte	0x23
 3477 01e8 11020000 		.4byte	0x211
 3478 01ec 0D       		.uleb128 0xd
 3479 01ed D3040000 		.4byte	.LASF40
 3480 01f1 01       		.byte	0x1
 3481 01f2 25       		.byte	0x25
 3482 01f3 AE000000 		.4byte	0xae
 3483 01f7 00       		.byte	0
 3484 01f8 0D       		.uleb128 0xd
 3485 01f9 EE000000 		.4byte	.LASF41
 3486 01fd 01       		.byte	0x1
 3487 01fe 26       		.byte	0x26
 3488 01ff 2B020000 		.4byte	0x22b
 3489 0203 04       		.byte	0x4
 3490 0204 0D       		.uleb128 0xd
 3491 0205 74060000 		.4byte	.LASF42
 3492 0209 01       		.byte	0x1
 3493 020a 27       		.byte	0x27
 3494 020b AE000000 		.4byte	0xae
 3495 020f 08       		.byte	0x8
 3496 0210 00       		.byte	0
 3497 0211 10       		.uleb128 0x10
 3498 0212 25000000 		.4byte	0x25
 3499 0216 25020000 		.4byte	0x225
 3500 021a 11       		.uleb128 0x11
ARM GAS  C:\Users\TERENC~1\AppData\Local\Temp\cc1rRXTX.s 			page 82


 3501 021b 25000000 		.4byte	0x25
 3502 021f 11       		.uleb128 0x11
 3503 0220 25020000 		.4byte	0x225
 3504 0224 00       		.byte	0
 3505 0225 05       		.uleb128 0x5
 3506 0226 04       		.byte	0x4
 3507 0227 9A000000 		.4byte	0x9a
 3508 022b 05       		.uleb128 0x5
 3509 022c 04       		.byte	0x4
 3510 022d 11020000 		.4byte	0x211
 3511 0231 04       		.uleb128 0x4
 3512 0232 80050000 		.4byte	.LASF43
 3513 0236 01       		.byte	0x1
 3514 0237 28       		.byte	0x28
 3515 0238 E4010000 		.4byte	0x1e4
 3516 023c 0C       		.uleb128 0xc
 3517 023d 0C       		.byte	0xc
 3518 023e 01       		.byte	0x1
 3519 023f 2A       		.byte	0x2a
 3520 0240 69020000 		.4byte	0x269
 3521 0244 0D       		.uleb128 0xd
 3522 0245 D3040000 		.4byte	.LASF40
 3523 0249 01       		.byte	0x1
 3524 024a 2C       		.byte	0x2c
 3525 024b AE000000 		.4byte	0xae
 3526 024f 00       		.byte	0
 3527 0250 0D       		.uleb128 0xd
 3528 0251 BB040000 		.4byte	.LASF44
 3529 0255 01       		.byte	0x1
 3530 0256 2D       		.byte	0x2d
 3531 0257 69020000 		.4byte	0x269
 3532 025b 04       		.byte	0x4
 3533 025c 0D       		.uleb128 0xd
 3534 025d 74060000 		.4byte	.LASF42
 3535 0261 01       		.byte	0x1
 3536 0262 2E       		.byte	0x2e
 3537 0263 AE000000 		.4byte	0xae
 3538 0267 08       		.byte	0x8
 3539 0268 00       		.byte	0
 3540 0269 05       		.uleb128 0x5
 3541 026a 04       		.byte	0x4
 3542 026b 31020000 		.4byte	0x231
 3543 026f 04       		.uleb128 0x4
 3544 0270 1B040000 		.4byte	.LASF45
 3545 0274 01       		.byte	0x1
 3546 0275 2F       		.byte	0x2f
 3547 0276 3C020000 		.4byte	0x23c
 3548 027a 12       		.uleb128 0x12
 3549 027b 21050000 		.4byte	.LASF48
 3550 027f 01       		.byte	0x1
 3551 0280 5A01     		.2byte	0x15a
 3552 0282 25000000 		.4byte	0x25
 3553 0286 00000000 		.4byte	.LFB11
 3554 028a 34000000 		.4byte	.LFE11-.LFB11
 3555 028e 01       		.uleb128 0x1
 3556 028f 9C       		.byte	0x9c
 3557 0290 0C030000 		.4byte	0x30c
ARM GAS  C:\Users\TERENC~1\AppData\Local\Temp\cc1rRXTX.s 			page 83


 3558 0294 13       		.uleb128 0x13
 3559 0295 8B030000 		.4byte	.LASF46
 3560 0299 01       		.byte	0x1
 3561 029a 5A01     		.2byte	0x15a
 3562 029c 25000000 		.4byte	0x25
 3563 02a0 00000000 		.4byte	.LLST0
 3564 02a4 13       		.uleb128 0x13
 3565 02a5 BC030000 		.4byte	.LASF47
 3566 02a9 01       		.byte	0x1
 3567 02aa 5A01     		.2byte	0x15a
 3568 02ac 25020000 		.4byte	0x225
 3569 02b0 21000000 		.4byte	.LLST1
 3570 02b4 14       		.uleb128 0x14
 3571 02b5 667000   		.ascii	"fp\000"
 3572 02b8 01       		.byte	0x1
 3573 02b9 5C01     		.2byte	0x15c
 3574 02bb A7000000 		.4byte	0xa7
 3575 02bf 00       		.byte	0
 3576 02c0 15       		.uleb128 0x15
 3577 02c1 06000000 		.4byte	.LVL2
 3578 02c5 01       		.uleb128 0x1
 3579 02c6 30       		.byte	0x30
 3580 02c7 16       		.uleb128 0x16
 3581 02c8 0A000000 		.4byte	.LVL3
 3582 02cc 341B0000 		.4byte	0x1b34
 3583 02d0 16       		.uleb128 0x16
 3584 02d1 12000000 		.4byte	.LVL4
 3585 02d5 401B0000 		.4byte	0x1b40
 3586 02d9 17       		.uleb128 0x17
 3587 02da 22000000 		.4byte	.LVL5
 3588 02de 4B1B0000 		.4byte	0x1b4b
 3589 02e2 FB020000 		.4byte	0x2fb
 3590 02e6 18       		.uleb128 0x18
 3591 02e7 01       		.uleb128 0x1
 3592 02e8 50       		.byte	0x50
 3593 02e9 02       		.uleb128 0x2
 3594 02ea 74       		.byte	0x74
 3595 02eb 00       		.sleb128 0
 3596 02ec 18       		.uleb128 0x18
 3597 02ed 01       		.uleb128 0x1
 3598 02ee 51       		.byte	0x51
 3599 02ef 05       		.uleb128 0x5
 3600 02f0 03       		.byte	0x3
 3601 02f1 00000000 		.4byte	.LC1
 3602 02f5 18       		.uleb128 0x18
 3603 02f6 01       		.uleb128 0x1
 3604 02f7 52       		.byte	0x52
 3605 02f8 01       		.uleb128 0x1
 3606 02f9 3A       		.byte	0x3a
 3607 02fa 00       		.byte	0
 3608 02fb 19       		.uleb128 0x19
 3609 02fc 28000000 		.4byte	.LVL6
 3610 0300 541B0000 		.4byte	0x1b54
 3611 0304 18       		.uleb128 0x18
 3612 0305 01       		.uleb128 0x1
 3613 0306 50       		.byte	0x50
 3614 0307 02       		.uleb128 0x2
ARM GAS  C:\Users\TERENC~1\AppData\Local\Temp\cc1rRXTX.s 			page 84


 3615 0308 74       		.byte	0x74
 3616 0309 00       		.sleb128 0
 3617 030a 00       		.byte	0
 3618 030b 00       		.byte	0
 3619 030c 1A       		.uleb128 0x1a
 3620 030d A6020000 		.4byte	.LASF49
 3621 0311 01       		.byte	0x1
 3622 0312 BD       		.byte	0xbd
 3623 0313 25000000 		.4byte	0x25
 3624 0317 00000000 		.4byte	.LFB4
 3625 031b 74000000 		.4byte	.LFE4-.LFB4
 3626 031f 01       		.uleb128 0x1
 3627 0320 9C       		.byte	0x9c
 3628 0321 E1030000 		.4byte	0x3e1
 3629 0325 1B       		.uleb128 0x1b
 3630 0326 8B030000 		.4byte	.LASF46
 3631 032a 01       		.byte	0x1
 3632 032b BD       		.byte	0xbd
 3633 032c 25000000 		.4byte	0x25
 3634 0330 42000000 		.4byte	.LLST2
 3635 0334 1B       		.uleb128 0x1b
 3636 0335 BC030000 		.4byte	.LASF47
 3637 0339 01       		.byte	0x1
 3638 033a BD       		.byte	0xbd
 3639 033b 25020000 		.4byte	0x225
 3640 033f 8F000000 		.4byte	.LLST3
 3641 0343 1C       		.uleb128 0x1c
 3642 0344 36050000 		.4byte	.LASF50
 3643 0348 01       		.byte	0x1
 3644 0349 BF       		.byte	0xbf
 3645 034a CF000000 		.4byte	0xcf
 3646 034e DF000000 		.4byte	.LLST4
 3647 0352 1D       		.uleb128 0x1d
 3648 0353 70696E00 		.ascii	"pin\000"
 3649 0357 01       		.byte	0x1
 3650 0358 BF       		.byte	0xbf
 3651 0359 CF000000 		.4byte	0xcf
 3652 035d FD000000 		.4byte	.LLST5
 3653 0361 1C       		.uleb128 0x1c
 3654 0362 F3000000 		.4byte	.LASF51
 3655 0366 01       		.byte	0x1
 3656 0367 BF       		.byte	0xbf
 3657 0368 CF000000 		.4byte	0xcf
 3658 036c 1B010000 		.4byte	.LLST6
 3659 0370 1D       		.uleb128 0x1d
 3660 0371 6900     		.ascii	"i\000"
 3661 0373 01       		.byte	0x1
 3662 0374 C0       		.byte	0xc0
 3663 0375 25000000 		.4byte	0x25
 3664 0379 2E010000 		.4byte	.LLST7
 3665 037d 16       		.uleb128 0x16
 3666 037e 0C000000 		.4byte	.LVL9
 3667 0382 341B0000 		.4byte	0x1b34
 3668 0386 16       		.uleb128 0x16
 3669 0387 14000000 		.4byte	.LVL10
 3670 038b 401B0000 		.4byte	0x1b40
 3671 038f 17       		.uleb128 0x17
ARM GAS  C:\Users\TERENC~1\AppData\Local\Temp\cc1rRXTX.s 			page 85


 3672 0390 24000000 		.4byte	.LVL12
 3673 0394 4B1B0000 		.4byte	0x1b4b
 3674 0398 B1030000 		.4byte	0x3b1
 3675 039c 18       		.uleb128 0x18
 3676 039d 01       		.uleb128 0x1
 3677 039e 50       		.byte	0x50
 3678 039f 02       		.uleb128 0x2
 3679 03a0 74       		.byte	0x74
 3680 03a1 00       		.sleb128 0
 3681 03a2 18       		.uleb128 0x18
 3682 03a3 01       		.uleb128 0x1
 3683 03a4 51       		.byte	0x51
 3684 03a5 05       		.uleb128 0x5
 3685 03a6 03       		.byte	0x3
 3686 03a7 0C000000 		.4byte	.LC4
 3687 03ab 18       		.uleb128 0x18
 3688 03ac 01       		.uleb128 0x1
 3689 03ad 52       		.byte	0x52
 3690 03ae 01       		.uleb128 0x1
 3691 03af 4E       		.byte	0x4e
 3692 03b0 00       		.byte	0
 3693 03b1 17       		.uleb128 0x17
 3694 03b2 2A000000 		.4byte	.LVL13
 3695 03b6 541B0000 		.4byte	0x1b54
 3696 03ba C5030000 		.4byte	0x3c5
 3697 03be 18       		.uleb128 0x18
 3698 03bf 01       		.uleb128 0x1
 3699 03c0 50       		.byte	0x50
 3700 03c1 02       		.uleb128 0x2
 3701 03c2 74       		.byte	0x74
 3702 03c3 00       		.sleb128 0
 3703 03c4 00       		.byte	0
 3704 03c5 16       		.uleb128 0x16
 3705 03c6 36000000 		.4byte	.LVL16
 3706 03ca 5F1B0000 		.4byte	0x1b5f
 3707 03ce 16       		.uleb128 0x16
 3708 03cf 3E000000 		.4byte	.LVL19
 3709 03d3 5F1B0000 		.4byte	0x1b5f
 3710 03d7 16       		.uleb128 0x16
 3711 03d8 46000000 		.4byte	.LVL22
 3712 03dc 5F1B0000 		.4byte	0x1b5f
 3713 03e0 00       		.byte	0
 3714 03e1 1A       		.uleb128 0x1a
 3715 03e2 E9030000 		.4byte	.LASF52
 3716 03e6 01       		.byte	0x1
 3717 03e7 9D       		.byte	0x9d
 3718 03e8 25000000 		.4byte	0x25
 3719 03ec 00000000 		.4byte	.LFB3
 3720 03f0 C4000000 		.4byte	.LFE3-.LFB3
 3721 03f4 01       		.uleb128 0x1
 3722 03f5 9C       		.byte	0x9c
 3723 03f6 F5040000 		.4byte	0x4f5
 3724 03fa 1B       		.uleb128 0x1b
 3725 03fb 8B030000 		.4byte	.LASF46
 3726 03ff 01       		.byte	0x1
 3727 0400 9D       		.byte	0x9d
 3728 0401 25000000 		.4byte	0x25
ARM GAS  C:\Users\TERENC~1\AppData\Local\Temp\cc1rRXTX.s 			page 86


 3729 0405 66010000 		.4byte	.LLST8
 3730 0409 1B       		.uleb128 0x1b
 3731 040a BC030000 		.4byte	.LASF47
 3732 040e 01       		.byte	0x1
 3733 040f 9D       		.byte	0x9d
 3734 0410 25020000 		.4byte	0x225
 3735 0414 B3010000 		.4byte	.LLST9
 3736 0418 1C       		.uleb128 0x1c
 3737 0419 36050000 		.4byte	.LASF50
 3738 041d 01       		.byte	0x1
 3739 041e 9F       		.byte	0x9f
 3740 041f CF000000 		.4byte	0xcf
 3741 0423 1C020000 		.4byte	.LLST10
 3742 0427 1D       		.uleb128 0x1d
 3743 0428 70696E00 		.ascii	"pin\000"
 3744 042c 01       		.byte	0x1
 3745 042d 9F       		.byte	0x9f
 3746 042e CF000000 		.4byte	0xcf
 3747 0432 3A020000 		.4byte	.LLST11
 3748 0436 1C       		.uleb128 0x1c
 3749 0437 C8050000 		.4byte	.LASF53
 3750 043b 01       		.byte	0x1
 3751 043c 9F       		.byte	0x9f
 3752 043d CF000000 		.4byte	0xcf
 3753 0441 63020000 		.4byte	.LLST12
 3754 0445 1D       		.uleb128 0x1d
 3755 0446 6900     		.ascii	"i\000"
 3756 0448 01       		.byte	0x1
 3757 0449 A0       		.byte	0xa0
 3758 044a 25000000 		.4byte	0x25
 3759 044e 76020000 		.4byte	.LLST13
 3760 0452 16       		.uleb128 0x16
 3761 0453 0C000000 		.4byte	.LVL30
 3762 0457 341B0000 		.4byte	0x1b34
 3763 045b 16       		.uleb128 0x16
 3764 045c 14000000 		.4byte	.LVL31
 3765 0460 401B0000 		.4byte	0x1b40
 3766 0464 17       		.uleb128 0x17
 3767 0465 24000000 		.4byte	.LVL33
 3768 0469 4B1B0000 		.4byte	0x1b4b
 3769 046d 86040000 		.4byte	0x486
 3770 0471 18       		.uleb128 0x18
 3771 0472 01       		.uleb128 0x1
 3772 0473 50       		.byte	0x50
 3773 0474 02       		.uleb128 0x2
 3774 0475 74       		.byte	0x74
 3775 0476 00       		.sleb128 0
 3776 0477 18       		.uleb128 0x18
 3777 0478 01       		.uleb128 0x1
 3778 0479 51       		.byte	0x51
 3779 047a 05       		.uleb128 0x5
 3780 047b 03       		.byte	0x3
 3781 047c 0C000000 		.4byte	.LC4
 3782 0480 18       		.uleb128 0x18
 3783 0481 01       		.uleb128 0x1
 3784 0482 52       		.byte	0x52
 3785 0483 01       		.uleb128 0x1
ARM GAS  C:\Users\TERENC~1\AppData\Local\Temp\cc1rRXTX.s 			page 87


 3786 0484 4E       		.byte	0x4e
 3787 0485 00       		.byte	0
 3788 0486 17       		.uleb128 0x17
 3789 0487 2A000000 		.4byte	.LVL34
 3790 048b 541B0000 		.4byte	0x1b54
 3791 048f 9A040000 		.4byte	0x49a
 3792 0493 18       		.uleb128 0x18
 3793 0494 01       		.uleb128 0x1
 3794 0495 50       		.byte	0x50
 3795 0496 02       		.uleb128 0x2
 3796 0497 74       		.byte	0x74
 3797 0498 00       		.sleb128 0
 3798 0499 00       		.byte	0
 3799 049a 16       		.uleb128 0x16
 3800 049b 36000000 		.4byte	.LVL37
 3801 049f 5F1B0000 		.4byte	0x1b5f
 3802 04a3 16       		.uleb128 0x16
 3803 04a4 3E000000 		.4byte	.LVL40
 3804 04a8 5F1B0000 		.4byte	0x1b5f
 3805 04ac 16       		.uleb128 0x16
 3806 04ad 46000000 		.4byte	.LVL43
 3807 04b1 5F1B0000 		.4byte	0x1b5f
 3808 04b5 16       		.uleb128 0x16
 3809 04b6 80000000 		.4byte	.LVL46
 3810 04ba 341B0000 		.4byte	0x1b34
 3811 04be 16       		.uleb128 0x16
 3812 04bf 88000000 		.4byte	.LVL47
 3813 04c3 401B0000 		.4byte	0x1b40
 3814 04c7 17       		.uleb128 0x17
 3815 04c8 9E000000 		.4byte	.LVL48
 3816 04cc 6A1B0000 		.4byte	0x1b6a
 3817 04d0 E4040000 		.4byte	0x4e4
 3818 04d4 18       		.uleb128 0x18
 3819 04d5 01       		.uleb128 0x1
 3820 04d6 50       		.byte	0x50
 3821 04d7 02       		.uleb128 0x2
 3822 04d8 74       		.byte	0x74
 3823 04d9 00       		.sleb128 0
 3824 04da 18       		.uleb128 0x18
 3825 04db 01       		.uleb128 0x1
 3826 04dc 51       		.byte	0x51
 3827 04dd 05       		.uleb128 0x5
 3828 04de 03       		.byte	0x3
 3829 04df 2C000000 		.4byte	.LC10
 3830 04e3 00       		.byte	0
 3831 04e4 19       		.uleb128 0x19
 3832 04e5 A4000000 		.4byte	.LVL49
 3833 04e9 541B0000 		.4byte	0x1b54
 3834 04ed 18       		.uleb128 0x18
 3835 04ee 01       		.uleb128 0x1
 3836 04ef 50       		.byte	0x50
 3837 04f0 02       		.uleb128 0x2
 3838 04f1 74       		.byte	0x74
 3839 04f2 00       		.sleb128 0
 3840 04f3 00       		.byte	0
 3841 04f4 00       		.byte	0
 3842 04f5 1A       		.uleb128 0x1a
ARM GAS  C:\Users\TERENC~1\AppData\Local\Temp\cc1rRXTX.s 			page 88


 3843 04f6 EE050000 		.4byte	.LASF54
 3844 04fa 01       		.byte	0x1
 3845 04fb D3       		.byte	0xd3
 3846 04fc 25000000 		.4byte	0x25
 3847 0500 00000000 		.4byte	.LFB5
 3848 0504 8C000000 		.4byte	.LFE5-.LFB5
 3849 0508 01       		.uleb128 0x1
 3850 0509 9C       		.byte	0x9c
 3851 050a F1050000 		.4byte	0x5f1
 3852 050e 1B       		.uleb128 0x1b
 3853 050f 8B030000 		.4byte	.LASF46
 3854 0513 01       		.byte	0x1
 3855 0514 D3       		.byte	0xd3
 3856 0515 25000000 		.4byte	0x25
 3857 0519 BA020000 		.4byte	.LLST14
 3858 051d 1B       		.uleb128 0x1b
 3859 051e BC030000 		.4byte	.LASF47
 3860 0522 01       		.byte	0x1
 3861 0523 D3       		.byte	0xd3
 3862 0524 25020000 		.4byte	0x225
 3863 0528 07030000 		.4byte	.LLST15
 3864 052c 1C       		.uleb128 0x1c
 3865 052d 36050000 		.4byte	.LASF50
 3866 0531 01       		.byte	0x1
 3867 0532 D5       		.byte	0xd5
 3868 0533 CF000000 		.4byte	0xcf
 3869 0537 70030000 		.4byte	.LLST16
 3870 053b 1D       		.uleb128 0x1d
 3871 053c 70696E00 		.ascii	"pin\000"
 3872 0540 01       		.byte	0x1
 3873 0541 D5       		.byte	0xd5
 3874 0542 CF000000 		.4byte	0xcf
 3875 0546 99030000 		.4byte	.LLST17
 3876 054a 1D       		.uleb128 0x1d
 3877 054b 6900     		.ascii	"i\000"
 3878 054d 01       		.byte	0x1
 3879 054e D6       		.byte	0xd6
 3880 054f 25000000 		.4byte	0x25
 3881 0553 C2030000 		.4byte	.LLST18
 3882 0557 16       		.uleb128 0x16
 3883 0558 0C000000 		.4byte	.LVL55
 3884 055c 341B0000 		.4byte	0x1b34
 3885 0560 16       		.uleb128 0x16
 3886 0561 14000000 		.4byte	.LVL56
 3887 0565 401B0000 		.4byte	0x1b40
 3888 0569 17       		.uleb128 0x17
 3889 056a 24000000 		.4byte	.LVL58
 3890 056e 4B1B0000 		.4byte	0x1b4b
 3891 0572 8B050000 		.4byte	0x58b
 3892 0576 18       		.uleb128 0x18
 3893 0577 01       		.uleb128 0x1
 3894 0578 50       		.byte	0x50
 3895 0579 02       		.uleb128 0x2
 3896 057a 74       		.byte	0x74
 3897 057b 00       		.sleb128 0
 3898 057c 18       		.uleb128 0x18
 3899 057d 01       		.uleb128 0x1
ARM GAS  C:\Users\TERENC~1\AppData\Local\Temp\cc1rRXTX.s 			page 89


 3900 057e 51       		.byte	0x51
 3901 057f 05       		.uleb128 0x5
 3902 0580 03       		.byte	0x3
 3903 0581 0C000000 		.4byte	.LC4
 3904 0585 18       		.uleb128 0x18
 3905 0586 01       		.uleb128 0x1
 3906 0587 52       		.byte	0x52
 3907 0588 01       		.uleb128 0x1
 3908 0589 4E       		.byte	0x4e
 3909 058a 00       		.byte	0
 3910 058b 17       		.uleb128 0x17
 3911 058c 2A000000 		.4byte	.LVL59
 3912 0590 541B0000 		.4byte	0x1b54
 3913 0594 9F050000 		.4byte	0x59f
 3914 0598 18       		.uleb128 0x18
 3915 0599 01       		.uleb128 0x1
 3916 059a 50       		.byte	0x50
 3917 059b 02       		.uleb128 0x2
 3918 059c 74       		.byte	0x74
 3919 059d 00       		.sleb128 0
 3920 059e 00       		.byte	0
 3921 059f 16       		.uleb128 0x16
 3922 05a0 36000000 		.4byte	.LVL62
 3923 05a4 5F1B0000 		.4byte	0x1b5f
 3924 05a8 16       		.uleb128 0x16
 3925 05a9 3E000000 		.4byte	.LVL65
 3926 05ad 5F1B0000 		.4byte	0x1b5f
 3927 05b1 16       		.uleb128 0x16
 3928 05b2 44000000 		.4byte	.LVL67
 3929 05b6 341B0000 		.4byte	0x1b34
 3930 05ba 16       		.uleb128 0x16
 3931 05bb 4C000000 		.4byte	.LVL68
 3932 05bf 401B0000 		.4byte	0x1b40
 3933 05c3 17       		.uleb128 0x17
 3934 05c4 68000000 		.4byte	.LVL71
 3935 05c8 6A1B0000 		.4byte	0x1b6a
 3936 05cc E0050000 		.4byte	0x5e0
 3937 05d0 18       		.uleb128 0x18
 3938 05d1 01       		.uleb128 0x1
 3939 05d2 50       		.byte	0x50
 3940 05d3 02       		.uleb128 0x2
 3941 05d4 74       		.byte	0x74
 3942 05d5 00       		.sleb128 0
 3943 05d6 18       		.uleb128 0x18
 3944 05d7 01       		.uleb128 0x1
 3945 05d8 51       		.byte	0x51
 3946 05d9 05       		.uleb128 0x5
 3947 05da 03       		.byte	0x3
 3948 05db 2C000000 		.4byte	.LC10
 3949 05df 00       		.byte	0
 3950 05e0 19       		.uleb128 0x19
 3951 05e1 6E000000 		.4byte	.LVL72
 3952 05e5 541B0000 		.4byte	0x1b54
 3953 05e9 18       		.uleb128 0x18
 3954 05ea 01       		.uleb128 0x1
 3955 05eb 50       		.byte	0x50
 3956 05ec 02       		.uleb128 0x2
ARM GAS  C:\Users\TERENC~1\AppData\Local\Temp\cc1rRXTX.s 			page 90


 3957 05ed 74       		.byte	0x74
 3958 05ee 00       		.sleb128 0
 3959 05ef 00       		.byte	0
 3960 05f0 00       		.byte	0
 3961 05f1 12       		.uleb128 0x12
 3962 05f2 40030000 		.4byte	.LASF55
 3963 05f6 01       		.byte	0x1
 3964 05f7 6501     		.2byte	0x165
 3965 05f9 25000000 		.4byte	0x25
 3966 05fd 00000000 		.4byte	.LFB12
 3967 0601 38000000 		.4byte	.LFE12-.LFB12
 3968 0605 01       		.uleb128 0x1
 3969 0606 9C       		.byte	0x9c
 3970 0607 6B060000 		.4byte	0x66b
 3971 060b 13       		.uleb128 0x13
 3972 060c 8B030000 		.4byte	.LASF46
 3973 0610 01       		.byte	0x1
 3974 0611 6501     		.2byte	0x165
 3975 0613 25000000 		.4byte	0x25
 3976 0617 FA030000 		.4byte	.LLST19
 3977 061b 13       		.uleb128 0x13
 3978 061c BC030000 		.4byte	.LASF47
 3979 0620 01       		.byte	0x1
 3980 0621 6501     		.2byte	0x165
 3981 0623 25020000 		.4byte	0x225
 3982 0627 1B040000 		.4byte	.LLST20
 3983 062b 16       		.uleb128 0x16
 3984 062c 06000000 		.4byte	.LVL77
 3985 0630 341B0000 		.4byte	0x1b34
 3986 0634 16       		.uleb128 0x16
 3987 0635 0E000000 		.4byte	.LVL78
 3988 0639 401B0000 		.4byte	0x1b40
 3989 063d 17       		.uleb128 0x17
 3990 063e 20000000 		.4byte	.LVL79
 3991 0642 6A1B0000 		.4byte	0x1b6a
 3992 0646 5A060000 		.4byte	0x65a
 3993 064a 18       		.uleb128 0x18
 3994 064b 01       		.uleb128 0x1
 3995 064c 50       		.byte	0x50
 3996 064d 02       		.uleb128 0x2
 3997 064e 74       		.byte	0x74
 3998 064f 00       		.sleb128 0
 3999 0650 18       		.uleb128 0x18
 4000 0651 01       		.uleb128 0x1
 4001 0652 51       		.byte	0x51
 4002 0653 05       		.uleb128 0x5
 4003 0654 03       		.byte	0x3
 4004 0655 3C000000 		.4byte	.LC17
 4005 0659 00       		.byte	0
 4006 065a 19       		.uleb128 0x19
 4007 065b 26000000 		.4byte	.LVL80
 4008 065f 541B0000 		.4byte	0x1b54
 4009 0663 18       		.uleb128 0x18
 4010 0664 01       		.uleb128 0x1
 4011 0665 50       		.byte	0x50
 4012 0666 02       		.uleb128 0x2
 4013 0667 74       		.byte	0x74
ARM GAS  C:\Users\TERENC~1\AppData\Local\Temp\cc1rRXTX.s 			page 91


 4014 0668 00       		.sleb128 0
 4015 0669 00       		.byte	0
 4016 066a 00       		.byte	0
 4017 066b 12       		.uleb128 0x12
 4018 066c CE050000 		.4byte	.LASF56
 4019 0670 01       		.byte	0x1
 4020 0671 7301     		.2byte	0x173
 4021 0673 25000000 		.4byte	0x25
 4022 0677 00000000 		.4byte	.LFB14
 4023 067b 3C000000 		.4byte	.LFE14-.LFB14
 4024 067f 01       		.uleb128 0x1
 4025 0680 9C       		.byte	0x9c
 4026 0681 E5060000 		.4byte	0x6e5
 4027 0685 13       		.uleb128 0x13
 4028 0686 8B030000 		.4byte	.LASF46
 4029 068a 01       		.byte	0x1
 4030 068b 7301     		.2byte	0x173
 4031 068d 25000000 		.4byte	0x25
 4032 0691 3C040000 		.4byte	.LLST21
 4033 0695 13       		.uleb128 0x13
 4034 0696 BC030000 		.4byte	.LASF47
 4035 069a 01       		.byte	0x1
 4036 069b 7301     		.2byte	0x173
 4037 069d 25020000 		.4byte	0x225
 4038 06a1 5D040000 		.4byte	.LLST22
 4039 06a5 16       		.uleb128 0x16
 4040 06a6 06000000 		.4byte	.LVL82
 4041 06aa 341B0000 		.4byte	0x1b34
 4042 06ae 16       		.uleb128 0x16
 4043 06af 0E000000 		.4byte	.LVL83
 4044 06b3 401B0000 		.4byte	0x1b40
 4045 06b7 17       		.uleb128 0x17
 4046 06b8 26000000 		.4byte	.LVL84
 4047 06bc 6A1B0000 		.4byte	0x1b6a
 4048 06c0 D4060000 		.4byte	0x6d4
 4049 06c4 18       		.uleb128 0x18
 4050 06c5 01       		.uleb128 0x1
 4051 06c6 50       		.byte	0x50
 4052 06c7 02       		.uleb128 0x2
 4053 06c8 74       		.byte	0x74
 4054 06c9 00       		.sleb128 0
 4055 06ca 18       		.uleb128 0x18
 4056 06cb 01       		.uleb128 0x1
 4057 06cc 51       		.byte	0x51
 4058 06cd 05       		.uleb128 0x5
 4059 06ce 03       		.byte	0x3
 4060 06cf 4C000000 		.4byte	.LC21
 4061 06d3 00       		.byte	0
 4062 06d4 19       		.uleb128 0x19
 4063 06d5 2C000000 		.4byte	.LVL85
 4064 06d9 541B0000 		.4byte	0x1b54
 4065 06dd 18       		.uleb128 0x18
 4066 06de 01       		.uleb128 0x1
 4067 06df 50       		.byte	0x50
 4068 06e0 02       		.uleb128 0x2
 4069 06e1 74       		.byte	0x74
 4070 06e2 00       		.sleb128 0
ARM GAS  C:\Users\TERENC~1\AppData\Local\Temp\cc1rRXTX.s 			page 92


 4071 06e3 00       		.byte	0
 4072 06e4 00       		.byte	0
 4073 06e5 12       		.uleb128 0x12
 4074 06e6 02060000 		.4byte	.LASF57
 4075 06ea 01       		.byte	0x1
 4076 06eb CA01     		.2byte	0x1ca
 4077 06ed 25000000 		.4byte	0x25
 4078 06f1 00000000 		.4byte	.LFB17
 4079 06f5 8C010000 		.4byte	.LFE17-.LFB17
 4080 06f9 01       		.uleb128 0x1
 4081 06fa 9C       		.byte	0x9c
 4082 06fb 7C090000 		.4byte	0x97c
 4083 06ff 13       		.uleb128 0x13
 4084 0700 8B030000 		.4byte	.LASF46
 4085 0704 01       		.byte	0x1
 4086 0705 CA01     		.2byte	0x1ca
 4087 0707 25000000 		.4byte	0x25
 4088 070b 7E040000 		.4byte	.LLST23
 4089 070f 13       		.uleb128 0x13
 4090 0710 BC030000 		.4byte	.LASF47
 4091 0714 01       		.byte	0x1
 4092 0715 CA01     		.2byte	0x1ca
 4093 0717 25020000 		.4byte	0x225
 4094 071b 9F040000 		.4byte	.LLST24
 4095 071f 16       		.uleb128 0x16
 4096 0720 06000000 		.4byte	.LVL87
 4097 0724 341B0000 		.4byte	0x1b34
 4098 0728 16       		.uleb128 0x16
 4099 0729 0E000000 		.4byte	.LVL88
 4100 072d 401B0000 		.4byte	0x1b40
 4101 0731 17       		.uleb128 0x17
 4102 0732 22000000 		.4byte	.LVL89
 4103 0736 6A1B0000 		.4byte	0x1b6a
 4104 073a 4E070000 		.4byte	0x74e
 4105 073e 18       		.uleb128 0x18
 4106 073f 01       		.uleb128 0x1
 4107 0740 50       		.byte	0x50
 4108 0741 02       		.uleb128 0x2
 4109 0742 74       		.byte	0x74
 4110 0743 00       		.sleb128 0
 4111 0744 18       		.uleb128 0x18
 4112 0745 01       		.uleb128 0x1
 4113 0746 51       		.byte	0x51
 4114 0747 05       		.uleb128 0x5
 4115 0748 03       		.byte	0x3
 4116 0749 5C000000 		.4byte	.LC25
 4117 074d 00       		.byte	0
 4118 074e 17       		.uleb128 0x17
 4119 074f 28000000 		.4byte	.LVL90
 4120 0753 541B0000 		.4byte	0x1b54
 4121 0757 62070000 		.4byte	0x762
 4122 075b 18       		.uleb128 0x18
 4123 075c 01       		.uleb128 0x1
 4124 075d 50       		.byte	0x50
 4125 075e 02       		.uleb128 0x2
 4126 075f 74       		.byte	0x74
 4127 0760 00       		.sleb128 0
ARM GAS  C:\Users\TERENC~1\AppData\Local\Temp\cc1rRXTX.s 			page 93


 4128 0761 00       		.byte	0
 4129 0762 16       		.uleb128 0x16
 4130 0763 2C000000 		.4byte	.LVL91
 4131 0767 341B0000 		.4byte	0x1b34
 4132 076b 16       		.uleb128 0x16
 4133 076c 34000000 		.4byte	.LVL92
 4134 0770 401B0000 		.4byte	0x1b40
 4135 0774 17       		.uleb128 0x17
 4136 0775 48000000 		.4byte	.LVL93
 4137 0779 6A1B0000 		.4byte	0x1b6a
 4138 077d 91070000 		.4byte	0x791
 4139 0781 18       		.uleb128 0x18
 4140 0782 01       		.uleb128 0x1
 4141 0783 50       		.byte	0x50
 4142 0784 02       		.uleb128 0x2
 4143 0785 74       		.byte	0x74
 4144 0786 00       		.sleb128 0
 4145 0787 18       		.uleb128 0x18
 4146 0788 01       		.uleb128 0x1
 4147 0789 51       		.byte	0x51
 4148 078a 05       		.uleb128 0x5
 4149 078b 03       		.byte	0x3
 4150 078c 6C000000 		.4byte	.LC28
 4151 0790 00       		.byte	0
 4152 0791 17       		.uleb128 0x17
 4153 0792 4E000000 		.4byte	.LVL94
 4154 0796 541B0000 		.4byte	0x1b54
 4155 079a A5070000 		.4byte	0x7a5
 4156 079e 18       		.uleb128 0x18
 4157 079f 01       		.uleb128 0x1
 4158 07a0 50       		.byte	0x50
 4159 07a1 02       		.uleb128 0x2
 4160 07a2 74       		.byte	0x74
 4161 07a3 00       		.sleb128 0
 4162 07a4 00       		.byte	0
 4163 07a5 16       		.uleb128 0x16
 4164 07a6 52000000 		.4byte	.LVL95
 4165 07aa 341B0000 		.4byte	0x1b34
 4166 07ae 16       		.uleb128 0x16
 4167 07af 5A000000 		.4byte	.LVL96
 4168 07b3 401B0000 		.4byte	0x1b40
 4169 07b7 17       		.uleb128 0x17
 4170 07b8 70000000 		.4byte	.LVL97
 4171 07bc 6A1B0000 		.4byte	0x1b6a
 4172 07c0 D4070000 		.4byte	0x7d4
 4173 07c4 18       		.uleb128 0x18
 4174 07c5 01       		.uleb128 0x1
 4175 07c6 50       		.byte	0x50
 4176 07c7 02       		.uleb128 0x2
 4177 07c8 74       		.byte	0x74
 4178 07c9 00       		.sleb128 0
 4179 07ca 18       		.uleb128 0x18
 4180 07cb 01       		.uleb128 0x1
 4181 07cc 51       		.byte	0x51
 4182 07cd 05       		.uleb128 0x5
 4183 07ce 03       		.byte	0x3
 4184 07cf 78000000 		.4byte	.LC30
ARM GAS  C:\Users\TERENC~1\AppData\Local\Temp\cc1rRXTX.s 			page 94


 4185 07d3 00       		.byte	0
 4186 07d4 17       		.uleb128 0x17
 4187 07d5 76000000 		.4byte	.LVL98
 4188 07d9 541B0000 		.4byte	0x1b54
 4189 07dd E8070000 		.4byte	0x7e8
 4190 07e1 18       		.uleb128 0x18
 4191 07e2 01       		.uleb128 0x1
 4192 07e3 50       		.byte	0x50
 4193 07e4 02       		.uleb128 0x2
 4194 07e5 74       		.byte	0x74
 4195 07e6 00       		.sleb128 0
 4196 07e7 00       		.byte	0
 4197 07e8 16       		.uleb128 0x16
 4198 07e9 7A000000 		.4byte	.LVL99
 4199 07ed 341B0000 		.4byte	0x1b34
 4200 07f1 16       		.uleb128 0x16
 4201 07f2 82000000 		.4byte	.LVL100
 4202 07f6 401B0000 		.4byte	0x1b40
 4203 07fa 17       		.uleb128 0x17
 4204 07fb 98000000 		.4byte	.LVL101
 4205 07ff 6A1B0000 		.4byte	0x1b6a
 4206 0803 17080000 		.4byte	0x817
 4207 0807 18       		.uleb128 0x18
 4208 0808 01       		.uleb128 0x1
 4209 0809 50       		.byte	0x50
 4210 080a 02       		.uleb128 0x2
 4211 080b 74       		.byte	0x74
 4212 080c 00       		.sleb128 0
 4213 080d 18       		.uleb128 0x18
 4214 080e 01       		.uleb128 0x1
 4215 080f 51       		.byte	0x51
 4216 0810 05       		.uleb128 0x5
 4217 0811 03       		.byte	0x3
 4218 0812 8C000000 		.4byte	.LC32
 4219 0816 00       		.byte	0
 4220 0817 17       		.uleb128 0x17
 4221 0818 9E000000 		.4byte	.LVL102
 4222 081c 541B0000 		.4byte	0x1b54
 4223 0820 2B080000 		.4byte	0x82b
 4224 0824 18       		.uleb128 0x18
 4225 0825 01       		.uleb128 0x1
 4226 0826 50       		.byte	0x50
 4227 0827 02       		.uleb128 0x2
 4228 0828 74       		.byte	0x74
 4229 0829 00       		.sleb128 0
 4230 082a 00       		.byte	0
 4231 082b 16       		.uleb128 0x16
 4232 082c A2000000 		.4byte	.LVL103
 4233 0830 341B0000 		.4byte	0x1b34
 4234 0834 16       		.uleb128 0x16
 4235 0835 AA000000 		.4byte	.LVL104
 4236 0839 401B0000 		.4byte	0x1b40
 4237 083d 17       		.uleb128 0x17
 4238 083e C0000000 		.4byte	.LVL105
 4239 0842 6A1B0000 		.4byte	0x1b6a
 4240 0846 5A080000 		.4byte	0x85a
 4241 084a 18       		.uleb128 0x18
ARM GAS  C:\Users\TERENC~1\AppData\Local\Temp\cc1rRXTX.s 			page 95


 4242 084b 01       		.uleb128 0x1
 4243 084c 50       		.byte	0x50
 4244 084d 02       		.uleb128 0x2
 4245 084e 74       		.byte	0x74
 4246 084f 00       		.sleb128 0
 4247 0850 18       		.uleb128 0x18
 4248 0851 01       		.uleb128 0x1
 4249 0852 51       		.byte	0x51
 4250 0853 05       		.uleb128 0x5
 4251 0854 03       		.byte	0x3
 4252 0855 A0000000 		.4byte	.LC34
 4253 0859 00       		.byte	0
 4254 085a 17       		.uleb128 0x17
 4255 085b C6000000 		.4byte	.LVL106
 4256 085f 541B0000 		.4byte	0x1b54
 4257 0863 6E080000 		.4byte	0x86e
 4258 0867 18       		.uleb128 0x18
 4259 0868 01       		.uleb128 0x1
 4260 0869 50       		.byte	0x50
 4261 086a 02       		.uleb128 0x2
 4262 086b 74       		.byte	0x74
 4263 086c 00       		.sleb128 0
 4264 086d 00       		.byte	0
 4265 086e 16       		.uleb128 0x16
 4266 086f CA000000 		.4byte	.LVL107
 4267 0873 341B0000 		.4byte	0x1b34
 4268 0877 16       		.uleb128 0x16
 4269 0878 D2000000 		.4byte	.LVL108
 4270 087c 401B0000 		.4byte	0x1b40
 4271 0880 17       		.uleb128 0x17
 4272 0881 E8000000 		.4byte	.LVL109
 4273 0885 6A1B0000 		.4byte	0x1b6a
 4274 0889 9D080000 		.4byte	0x89d
 4275 088d 18       		.uleb128 0x18
 4276 088e 01       		.uleb128 0x1
 4277 088f 50       		.byte	0x50
 4278 0890 02       		.uleb128 0x2
 4279 0891 74       		.byte	0x74
 4280 0892 00       		.sleb128 0
 4281 0893 18       		.uleb128 0x18
 4282 0894 01       		.uleb128 0x1
 4283 0895 51       		.byte	0x51
 4284 0896 05       		.uleb128 0x5
 4285 0897 03       		.byte	0x3
 4286 0898 B4000000 		.4byte	.LC36
 4287 089c 00       		.byte	0
 4288 089d 17       		.uleb128 0x17
 4289 089e EE000000 		.4byte	.LVL110
 4290 08a2 541B0000 		.4byte	0x1b54
 4291 08a6 B1080000 		.4byte	0x8b1
 4292 08aa 18       		.uleb128 0x18
 4293 08ab 01       		.uleb128 0x1
 4294 08ac 50       		.byte	0x50
 4295 08ad 02       		.uleb128 0x2
 4296 08ae 74       		.byte	0x74
 4297 08af 00       		.sleb128 0
 4298 08b0 00       		.byte	0
ARM GAS  C:\Users\TERENC~1\AppData\Local\Temp\cc1rRXTX.s 			page 96


 4299 08b1 16       		.uleb128 0x16
 4300 08b2 F2000000 		.4byte	.LVL111
 4301 08b6 341B0000 		.4byte	0x1b34
 4302 08ba 16       		.uleb128 0x16
 4303 08bb FA000000 		.4byte	.LVL112
 4304 08bf 401B0000 		.4byte	0x1b40
 4305 08c3 17       		.uleb128 0x17
 4306 08c4 0E010000 		.4byte	.LVL113
 4307 08c8 6A1B0000 		.4byte	0x1b6a
 4308 08cc E0080000 		.4byte	0x8e0
 4309 08d0 18       		.uleb128 0x18
 4310 08d1 01       		.uleb128 0x1
 4311 08d2 50       		.byte	0x50
 4312 08d3 02       		.uleb128 0x2
 4313 08d4 74       		.byte	0x74
 4314 08d5 00       		.sleb128 0
 4315 08d6 18       		.uleb128 0x18
 4316 08d7 01       		.uleb128 0x1
 4317 08d8 51       		.byte	0x51
 4318 08d9 05       		.uleb128 0x5
 4319 08da 03       		.byte	0x3
 4320 08db C8000000 		.4byte	.LC38
 4321 08df 00       		.byte	0
 4322 08e0 17       		.uleb128 0x17
 4323 08e1 14010000 		.4byte	.LVL114
 4324 08e5 541B0000 		.4byte	0x1b54
 4325 08e9 F4080000 		.4byte	0x8f4
 4326 08ed 18       		.uleb128 0x18
 4327 08ee 01       		.uleb128 0x1
 4328 08ef 50       		.byte	0x50
 4329 08f0 02       		.uleb128 0x2
 4330 08f1 74       		.byte	0x74
 4331 08f2 00       		.sleb128 0
 4332 08f3 00       		.byte	0
 4333 08f4 16       		.uleb128 0x16
 4334 08f5 18010000 		.4byte	.LVL115
 4335 08f9 341B0000 		.4byte	0x1b34
 4336 08fd 16       		.uleb128 0x16
 4337 08fe 20010000 		.4byte	.LVL116
 4338 0902 401B0000 		.4byte	0x1b40
 4339 0906 17       		.uleb128 0x17
 4340 0907 34010000 		.4byte	.LVL117
 4341 090b 6A1B0000 		.4byte	0x1b6a
 4342 090f 23090000 		.4byte	0x923
 4343 0913 18       		.uleb128 0x18
 4344 0914 01       		.uleb128 0x1
 4345 0915 50       		.byte	0x50
 4346 0916 02       		.uleb128 0x2
 4347 0917 74       		.byte	0x74
 4348 0918 00       		.sleb128 0
 4349 0919 18       		.uleb128 0x18
 4350 091a 01       		.uleb128 0x1
 4351 091b 51       		.byte	0x51
 4352 091c 05       		.uleb128 0x5
 4353 091d 03       		.byte	0x3
 4354 091e E4000000 		.4byte	.LC40
 4355 0922 00       		.byte	0
ARM GAS  C:\Users\TERENC~1\AppData\Local\Temp\cc1rRXTX.s 			page 97


 4356 0923 17       		.uleb128 0x17
 4357 0924 3A010000 		.4byte	.LVL118
 4358 0928 541B0000 		.4byte	0x1b54
 4359 092c 37090000 		.4byte	0x937
 4360 0930 18       		.uleb128 0x18
 4361 0931 01       		.uleb128 0x1
 4362 0932 50       		.byte	0x50
 4363 0933 02       		.uleb128 0x2
 4364 0934 74       		.byte	0x74
 4365 0935 00       		.sleb128 0
 4366 0936 00       		.byte	0
 4367 0937 16       		.uleb128 0x16
 4368 0938 3E010000 		.4byte	.LVL119
 4369 093c 341B0000 		.4byte	0x1b34
 4370 0940 16       		.uleb128 0x16
 4371 0941 46010000 		.4byte	.LVL120
 4372 0945 401B0000 		.4byte	0x1b40
 4373 0949 17       		.uleb128 0x17
 4374 094a 56010000 		.4byte	.LVL121
 4375 094e 4B1B0000 		.4byte	0x1b4b
 4376 0952 6B090000 		.4byte	0x96b
 4377 0956 18       		.uleb128 0x18
 4378 0957 01       		.uleb128 0x1
 4379 0958 50       		.byte	0x50
 4380 0959 02       		.uleb128 0x2
 4381 095a 74       		.byte	0x74
 4382 095b 00       		.sleb128 0
 4383 095c 18       		.uleb128 0x18
 4384 095d 01       		.uleb128 0x1
 4385 095e 51       		.byte	0x51
 4386 095f 05       		.uleb128 0x5
 4387 0960 03       		.byte	0x3
 4388 0961 FC000000 		.4byte	.LC42
 4389 0965 18       		.uleb128 0x18
 4390 0966 01       		.uleb128 0x1
 4391 0967 52       		.byte	0x52
 4392 0968 01       		.uleb128 0x1
 4393 0969 3A       		.byte	0x3a
 4394 096a 00       		.byte	0
 4395 096b 19       		.uleb128 0x19
 4396 096c 5C010000 		.4byte	.LVL122
 4397 0970 541B0000 		.4byte	0x1b54
 4398 0974 18       		.uleb128 0x18
 4399 0975 01       		.uleb128 0x1
 4400 0976 50       		.byte	0x50
 4401 0977 02       		.uleb128 0x2
 4402 0978 74       		.byte	0x74
 4403 0979 00       		.sleb128 0
 4404 097a 00       		.byte	0
 4405 097b 00       		.byte	0
 4406 097c 1A       		.uleb128 0x1a
 4407 097d A3050000 		.4byte	.LASF58
 4408 0981 01       		.byte	0x1
 4409 0982 E8       		.byte	0xe8
 4410 0983 25000000 		.4byte	0x25
 4411 0987 00000000 		.4byte	.LFB6
 4412 098b AC000000 		.4byte	.LFE6-.LFB6
ARM GAS  C:\Users\TERENC~1\AppData\Local\Temp\cc1rRXTX.s 			page 98


 4413 098f 01       		.uleb128 0x1
 4414 0990 9C       		.byte	0x9c
 4415 0991 C50A0000 		.4byte	0xac5
 4416 0995 1B       		.uleb128 0x1b
 4417 0996 8B030000 		.4byte	.LASF46
 4418 099a 01       		.byte	0x1
 4419 099b E8       		.byte	0xe8
 4420 099c 25000000 		.4byte	0x25
 4421 09a0 C0040000 		.4byte	.LLST25
 4422 09a4 1B       		.uleb128 0x1b
 4423 09a5 BC030000 		.4byte	.LASF47
 4424 09a9 01       		.byte	0x1
 4425 09aa E8       		.byte	0xe8
 4426 09ab 25020000 		.4byte	0x225
 4427 09af 0D050000 		.4byte	.LLST26
 4428 09b3 1D       		.uleb128 0x1d
 4429 09b4 766F6C00 		.ascii	"vol\000"
 4430 09b8 01       		.byte	0x1
 4431 09b9 EA       		.byte	0xea
 4432 09ba 25000000 		.4byte	0x25
 4433 09be 47050000 		.4byte	.LLST27
 4434 09c2 1D       		.uleb128 0x1d
 4435 09c3 6900     		.ascii	"i\000"
 4436 09c5 01       		.byte	0x1
 4437 09c6 EB       		.byte	0xeb
 4438 09c7 25000000 		.4byte	0x25
 4439 09cb 5A050000 		.4byte	.LLST28
 4440 09cf 1D       		.uleb128 0x1d
 4441 09d0 727600   		.ascii	"rv\000"
 4442 09d3 01       		.byte	0x1
 4443 09d4 EC       		.byte	0xec
 4444 09d5 B9000000 		.4byte	0xb9
 4445 09d9 92050000 		.4byte	.LLST29
 4446 09dd 16       		.uleb128 0x16
 4447 09de 0A000000 		.4byte	.LVL125
 4448 09e2 341B0000 		.4byte	0x1b34
 4449 09e6 16       		.uleb128 0x16
 4450 09e7 12000000 		.4byte	.LVL126
 4451 09eb 401B0000 		.4byte	0x1b40
 4452 09ef 17       		.uleb128 0x17
 4453 09f0 22000000 		.4byte	.LVL127
 4454 09f4 4B1B0000 		.4byte	0x1b4b
 4455 09f8 110A0000 		.4byte	0xa11
 4456 09fc 18       		.uleb128 0x18
 4457 09fd 01       		.uleb128 0x1
 4458 09fe 50       		.byte	0x50
 4459 09ff 02       		.uleb128 0x2
 4460 0a00 74       		.byte	0x74
 4461 0a01 00       		.sleb128 0
 4462 0a02 18       		.uleb128 0x18
 4463 0a03 01       		.uleb128 0x1
 4464 0a04 51       		.byte	0x51
 4465 0a05 05       		.uleb128 0x5
 4466 0a06 03       		.byte	0x3
 4467 0a07 0C000000 		.4byte	.LC4
 4468 0a0b 18       		.uleb128 0x18
 4469 0a0c 01       		.uleb128 0x1
ARM GAS  C:\Users\TERENC~1\AppData\Local\Temp\cc1rRXTX.s 			page 99


 4470 0a0d 52       		.byte	0x52
 4471 0a0e 01       		.uleb128 0x1
 4472 0a0f 4E       		.byte	0x4e
 4473 0a10 00       		.byte	0
 4474 0a11 17       		.uleb128 0x17
 4475 0a12 28000000 		.4byte	.LVL128
 4476 0a16 541B0000 		.4byte	0x1b54
 4477 0a1a 250A0000 		.4byte	0xa25
 4478 0a1e 18       		.uleb128 0x18
 4479 0a1f 01       		.uleb128 0x1
 4480 0a20 50       		.byte	0x50
 4481 0a21 02       		.uleb128 0x2
 4482 0a22 74       		.byte	0x74
 4483 0a23 00       		.sleb128 0
 4484 0a24 00       		.byte	0
 4485 0a25 16       		.uleb128 0x16
 4486 0a26 34000000 		.4byte	.LVL131
 4487 0a2a 5F1B0000 		.4byte	0x1b5f
 4488 0a2e 16       		.uleb128 0x16
 4489 0a2f 3A000000 		.4byte	.LVL133
 4490 0a33 751B0000 		.4byte	0x1b75
 4491 0a37 16       		.uleb128 0x16
 4492 0a38 42000000 		.4byte	.LVL135
 4493 0a3c 341B0000 		.4byte	0x1b34
 4494 0a40 16       		.uleb128 0x16
 4495 0a41 4A000000 		.4byte	.LVL136
 4496 0a45 401B0000 		.4byte	0x1b40
 4497 0a49 17       		.uleb128 0x17
 4498 0a4a 5A000000 		.4byte	.LVL137
 4499 0a4e 4B1B0000 		.4byte	0x1b4b
 4500 0a52 6B0A0000 		.4byte	0xa6b
 4501 0a56 18       		.uleb128 0x18
 4502 0a57 01       		.uleb128 0x1
 4503 0a58 50       		.byte	0x50
 4504 0a59 02       		.uleb128 0x2
 4505 0a5a 74       		.byte	0x74
 4506 0a5b 00       		.sleb128 0
 4507 0a5c 18       		.uleb128 0x18
 4508 0a5d 01       		.uleb128 0x1
 4509 0a5e 51       		.byte	0x51
 4510 0a5f 05       		.uleb128 0x5
 4511 0a60 03       		.byte	0x3
 4512 0a61 08010000 		.4byte	.LC46
 4513 0a65 18       		.uleb128 0x18
 4514 0a66 01       		.uleb128 0x1
 4515 0a67 52       		.byte	0x52
 4516 0a68 01       		.uleb128 0x1
 4517 0a69 39       		.byte	0x39
 4518 0a6a 00       		.byte	0
 4519 0a6b 17       		.uleb128 0x17
 4520 0a6c 60000000 		.4byte	.LVL138
 4521 0a70 541B0000 		.4byte	0x1b54
 4522 0a74 7F0A0000 		.4byte	0xa7f
 4523 0a78 18       		.uleb128 0x18
 4524 0a79 01       		.uleb128 0x1
 4525 0a7a 50       		.byte	0x50
 4526 0a7b 02       		.uleb128 0x2
ARM GAS  C:\Users\TERENC~1\AppData\Local\Temp\cc1rRXTX.s 			page 100


 4527 0a7c 74       		.byte	0x74
 4528 0a7d 00       		.sleb128 0
 4529 0a7e 00       		.byte	0
 4530 0a7f 16       		.uleb128 0x16
 4531 0a80 68000000 		.4byte	.LVL140
 4532 0a84 341B0000 		.4byte	0x1b34
 4533 0a88 16       		.uleb128 0x16
 4534 0a89 70000000 		.4byte	.LVL141
 4535 0a8d 401B0000 		.4byte	0x1b40
 4536 0a91 17       		.uleb128 0x17
 4537 0a92 80000000 		.4byte	.LVL142
 4538 0a96 6A1B0000 		.4byte	0x1b6a
 4539 0a9a B40A0000 		.4byte	0xab4
 4540 0a9e 18       		.uleb128 0x18
 4541 0a9f 01       		.uleb128 0x1
 4542 0aa0 50       		.byte	0x50
 4543 0aa1 02       		.uleb128 0x2
 4544 0aa2 75       		.byte	0x75
 4545 0aa3 00       		.sleb128 0
 4546 0aa4 18       		.uleb128 0x18
 4547 0aa5 01       		.uleb128 0x1
 4548 0aa6 51       		.byte	0x51
 4549 0aa7 05       		.uleb128 0x5
 4550 0aa8 03       		.byte	0x3
 4551 0aa9 14010000 		.4byte	.LC48
 4552 0aad 18       		.uleb128 0x18
 4553 0aae 01       		.uleb128 0x1
 4554 0aaf 52       		.byte	0x52
 4555 0ab0 02       		.uleb128 0x2
 4556 0ab1 74       		.byte	0x74
 4557 0ab2 00       		.sleb128 0
 4558 0ab3 00       		.byte	0
 4559 0ab4 19       		.uleb128 0x19
 4560 0ab5 86000000 		.4byte	.LVL143
 4561 0ab9 541B0000 		.4byte	0x1b54
 4562 0abd 18       		.uleb128 0x18
 4563 0abe 01       		.uleb128 0x1
 4564 0abf 50       		.byte	0x50
 4565 0ac0 02       		.uleb128 0x2
 4566 0ac1 75       		.byte	0x75
 4567 0ac2 00       		.sleb128 0
 4568 0ac3 00       		.byte	0
 4569 0ac4 00       		.byte	0
 4570 0ac5 12       		.uleb128 0x12
 4571 0ac6 72010000 		.4byte	.LASF59
 4572 0aca 01       		.byte	0x1
 4573 0acb 0501     		.2byte	0x105
 4574 0acd 25000000 		.4byte	0x25
 4575 0ad1 00000000 		.4byte	.LFB7
 4576 0ad5 34000000 		.4byte	.LFE7-.LFB7
 4577 0ad9 01       		.uleb128 0x1
 4578 0ada 9C       		.byte	0x9c
 4579 0adb 480B0000 		.4byte	0xb48
 4580 0adf 13       		.uleb128 0x13
 4581 0ae0 8B030000 		.4byte	.LASF46
 4582 0ae4 01       		.byte	0x1
 4583 0ae5 0501     		.2byte	0x105
ARM GAS  C:\Users\TERENC~1\AppData\Local\Temp\cc1rRXTX.s 			page 101


 4584 0ae7 25000000 		.4byte	0x25
 4585 0aeb B0050000 		.4byte	.LLST30
 4586 0aef 13       		.uleb128 0x13
 4587 0af0 BC030000 		.4byte	.LASF47
 4588 0af4 01       		.byte	0x1
 4589 0af5 0501     		.2byte	0x105
 4590 0af7 25020000 		.4byte	0x225
 4591 0afb D1050000 		.4byte	.LLST31
 4592 0aff 16       		.uleb128 0x16
 4593 0b00 06000000 		.4byte	.LVL148
 4594 0b04 341B0000 		.4byte	0x1b34
 4595 0b08 16       		.uleb128 0x16
 4596 0b09 0E000000 		.4byte	.LVL149
 4597 0b0d 401B0000 		.4byte	0x1b40
 4598 0b11 16       		.uleb128 0x16
 4599 0b12 16000000 		.4byte	.LVL150
 4600 0b16 801B0000 		.4byte	0x1b80
 4601 0b1a 17       		.uleb128 0x17
 4602 0b1b 22000000 		.4byte	.LVL151
 4603 0b1f 6A1B0000 		.4byte	0x1b6a
 4604 0b23 370B0000 		.4byte	0xb37
 4605 0b27 18       		.uleb128 0x18
 4606 0b28 01       		.uleb128 0x1
 4607 0b29 50       		.byte	0x50
 4608 0b2a 02       		.uleb128 0x2
 4609 0b2b 74       		.byte	0x74
 4610 0b2c 00       		.sleb128 0
 4611 0b2d 18       		.uleb128 0x18
 4612 0b2e 01       		.uleb128 0x1
 4613 0b2f 51       		.byte	0x51
 4614 0b30 05       		.uleb128 0x5
 4615 0b31 03       		.byte	0x3
 4616 0b32 20010000 		.4byte	.LC50
 4617 0b36 00       		.byte	0
 4618 0b37 19       		.uleb128 0x19
 4619 0b38 28000000 		.4byte	.LVL152
 4620 0b3c 541B0000 		.4byte	0x1b54
 4621 0b40 18       		.uleb128 0x18
 4622 0b41 01       		.uleb128 0x1
 4623 0b42 50       		.byte	0x50
 4624 0b43 02       		.uleb128 0x2
 4625 0b44 74       		.byte	0x74
 4626 0b45 00       		.sleb128 0
 4627 0b46 00       		.byte	0
 4628 0b47 00       		.byte	0
 4629 0b48 12       		.uleb128 0x12
 4630 0b49 70020000 		.4byte	.LASF60
 4631 0b4d 01       		.byte	0x1
 4632 0b4e 0C01     		.2byte	0x10c
 4633 0b50 25000000 		.4byte	0x25
 4634 0b54 00000000 		.4byte	.LFB8
 4635 0b58 BC000000 		.4byte	.LFE8-.LFB8
 4636 0b5c 01       		.uleb128 0x1
 4637 0b5d 9C       		.byte	0x9c
 4638 0b5e CA0C0000 		.4byte	0xcca
 4639 0b62 13       		.uleb128 0x13
 4640 0b63 8B030000 		.4byte	.LASF46
ARM GAS  C:\Users\TERENC~1\AppData\Local\Temp\cc1rRXTX.s 			page 102


 4641 0b67 01       		.byte	0x1
 4642 0b68 0C01     		.2byte	0x10c
 4643 0b6a 25000000 		.4byte	0x25
 4644 0b6e F2050000 		.4byte	.LLST32
 4645 0b72 13       		.uleb128 0x13
 4646 0b73 BC030000 		.4byte	.LASF47
 4647 0b77 01       		.byte	0x1
 4648 0b78 0C01     		.2byte	0x10c
 4649 0b7a 25020000 		.4byte	0x225
 4650 0b7e 3F060000 		.4byte	.LLST33
 4651 0b82 1E       		.uleb128 0x1e
 4652 0b83 6900     		.ascii	"i\000"
 4653 0b85 01       		.byte	0x1
 4654 0b86 0E01     		.2byte	0x10e
 4655 0b88 25000000 		.4byte	0x25
 4656 0b8c A8060000 		.4byte	.LLST34
 4657 0b90 1E       		.uleb128 0x1e
 4658 0b91 72656700 		.ascii	"reg\000"
 4659 0b95 01       		.byte	0x1
 4660 0b96 0F01     		.2byte	0x10f
 4661 0b98 B9000000 		.4byte	0xb9
 4662 0b9c EC060000 		.4byte	.LLST35
 4663 0ba0 1F       		.uleb128 0x1f
 4664 0ba1 F1020000 		.4byte	.LASF61
 4665 0ba5 01       		.byte	0x1
 4666 0ba6 1001     		.2byte	0x110
 4667 0ba8 C4000000 		.4byte	0xc4
 4668 0bac 0A070000 		.4byte	.LLST36
 4669 0bb0 1E       		.uleb128 0x1e
 4670 0bb1 727600   		.ascii	"rv\000"
 4671 0bb4 01       		.byte	0x1
 4672 0bb5 1101     		.2byte	0x111
 4673 0bb7 25000000 		.4byte	0x25
 4674 0bbb 1D070000 		.4byte	.LLST37
 4675 0bbf 16       		.uleb128 0x16
 4676 0bc0 0C000000 		.4byte	.LVL155
 4677 0bc4 341B0000 		.4byte	0x1b34
 4678 0bc8 16       		.uleb128 0x16
 4679 0bc9 14000000 		.4byte	.LVL156
 4680 0bcd 401B0000 		.4byte	0x1b40
 4681 0bd1 17       		.uleb128 0x17
 4682 0bd2 24000000 		.4byte	.LVL158
 4683 0bd6 4B1B0000 		.4byte	0x1b4b
 4684 0bda F30B0000 		.4byte	0xbf3
 4685 0bde 18       		.uleb128 0x18
 4686 0bdf 01       		.uleb128 0x1
 4687 0be0 50       		.byte	0x50
 4688 0be1 02       		.uleb128 0x2
 4689 0be2 74       		.byte	0x74
 4690 0be3 00       		.sleb128 0
 4691 0be4 18       		.uleb128 0x18
 4692 0be5 01       		.uleb128 0x1
 4693 0be6 51       		.byte	0x51
 4694 0be7 05       		.uleb128 0x5
 4695 0be8 03       		.byte	0x3
 4696 0be9 0C000000 		.4byte	.LC4
 4697 0bed 18       		.uleb128 0x18
ARM GAS  C:\Users\TERENC~1\AppData\Local\Temp\cc1rRXTX.s 			page 103


 4698 0bee 01       		.uleb128 0x1
 4699 0bef 52       		.byte	0x52
 4700 0bf0 01       		.uleb128 0x1
 4701 0bf1 4E       		.byte	0x4e
 4702 0bf2 00       		.byte	0
 4703 0bf3 17       		.uleb128 0x17
 4704 0bf4 2A000000 		.4byte	.LVL159
 4705 0bf8 541B0000 		.4byte	0x1b54
 4706 0bfc 070C0000 		.4byte	0xc07
 4707 0c00 18       		.uleb128 0x18
 4708 0c01 01       		.uleb128 0x1
 4709 0c02 50       		.byte	0x50
 4710 0c03 02       		.uleb128 0x2
 4711 0c04 74       		.byte	0x74
 4712 0c05 00       		.sleb128 0
 4713 0c06 00       		.byte	0
 4714 0c07 16       		.uleb128 0x16
 4715 0c08 36000000 		.4byte	.LVL162
 4716 0c0c 5F1B0000 		.4byte	0x1b5f
 4717 0c10 17       		.uleb128 0x17
 4718 0c11 42000000 		.4byte	.LVL164
 4719 0c15 8B1B0000 		.4byte	0x1b8b
 4720 0c19 280C0000 		.4byte	0xc28
 4721 0c1d 18       		.uleb128 0x18
 4722 0c1e 01       		.uleb128 0x1
 4723 0c1f 51       		.byte	0x51
 4724 0c20 01       		.uleb128 0x1
 4725 0c21 30       		.byte	0x30
 4726 0c22 18       		.uleb128 0x18
 4727 0c23 01       		.uleb128 0x1
 4728 0c24 52       		.byte	0x52
 4729 0c25 01       		.uleb128 0x1
 4730 0c26 40       		.byte	0x40
 4731 0c27 00       		.byte	0
 4732 0c28 17       		.uleb128 0x17
 4733 0c29 4A000000 		.4byte	.LVL166
 4734 0c2d 961B0000 		.4byte	0x1b96
 4735 0c31 3C0C0000 		.4byte	0xc3c
 4736 0c35 18       		.uleb128 0x18
 4737 0c36 01       		.uleb128 0x1
 4738 0c37 50       		.byte	0x50
 4739 0c38 02       		.uleb128 0x2
 4740 0c39 75       		.byte	0x75
 4741 0c3a 00       		.sleb128 0
 4742 0c3b 00       		.byte	0
 4743 0c3c 16       		.uleb128 0x16
 4744 0c3d 52000000 		.4byte	.LVL168
 4745 0c41 341B0000 		.4byte	0x1b34
 4746 0c45 16       		.uleb128 0x16
 4747 0c46 5A000000 		.4byte	.LVL169
 4748 0c4a 401B0000 		.4byte	0x1b40
 4749 0c4e 17       		.uleb128 0x17
 4750 0c4f 6A000000 		.4byte	.LVL171
 4751 0c53 4B1B0000 		.4byte	0x1b4b
 4752 0c57 700C0000 		.4byte	0xc70
 4753 0c5b 18       		.uleb128 0x18
 4754 0c5c 01       		.uleb128 0x1
ARM GAS  C:\Users\TERENC~1\AppData\Local\Temp\cc1rRXTX.s 			page 104


 4755 0c5d 50       		.byte	0x50
 4756 0c5e 02       		.uleb128 0x2
 4757 0c5f 74       		.byte	0x74
 4758 0c60 00       		.sleb128 0
 4759 0c61 18       		.uleb128 0x18
 4760 0c62 01       		.uleb128 0x1
 4761 0c63 51       		.byte	0x51
 4762 0c64 05       		.uleb128 0x5
 4763 0c65 03       		.byte	0x3
 4764 0c66 08010000 		.4byte	.LC46
 4765 0c6a 18       		.uleb128 0x18
 4766 0c6b 01       		.uleb128 0x1
 4767 0c6c 52       		.byte	0x52
 4768 0c6d 01       		.uleb128 0x1
 4769 0c6e 39       		.byte	0x39
 4770 0c6f 00       		.byte	0
 4771 0c70 17       		.uleb128 0x17
 4772 0c71 70000000 		.4byte	.LVL172
 4773 0c75 541B0000 		.4byte	0x1b54
 4774 0c79 840C0000 		.4byte	0xc84
 4775 0c7d 18       		.uleb128 0x18
 4776 0c7e 01       		.uleb128 0x1
 4777 0c7f 50       		.byte	0x50
 4778 0c80 02       		.uleb128 0x2
 4779 0c81 74       		.byte	0x74
 4780 0c82 00       		.sleb128 0
 4781 0c83 00       		.byte	0
 4782 0c84 16       		.uleb128 0x16
 4783 0c85 78000000 		.4byte	.LVL174
 4784 0c89 341B0000 		.4byte	0x1b34
 4785 0c8d 16       		.uleb128 0x16
 4786 0c8e 80000000 		.4byte	.LVL175
 4787 0c92 401B0000 		.4byte	0x1b40
 4788 0c96 17       		.uleb128 0x17
 4789 0c97 90000000 		.4byte	.LVL177
 4790 0c9b 6A1B0000 		.4byte	0x1b6a
 4791 0c9f B90C0000 		.4byte	0xcb9
 4792 0ca3 18       		.uleb128 0x18
 4793 0ca4 01       		.uleb128 0x1
 4794 0ca5 50       		.byte	0x50
 4795 0ca6 02       		.uleb128 0x2
 4796 0ca7 75       		.byte	0x75
 4797 0ca8 00       		.sleb128 0
 4798 0ca9 18       		.uleb128 0x18
 4799 0caa 01       		.uleb128 0x1
 4800 0cab 51       		.byte	0x51
 4801 0cac 05       		.uleb128 0x5
 4802 0cad 03       		.byte	0x3
 4803 0cae 14010000 		.4byte	.LC48
 4804 0cb2 18       		.uleb128 0x18
 4805 0cb3 01       		.uleb128 0x1
 4806 0cb4 52       		.byte	0x52
 4807 0cb5 02       		.uleb128 0x2
 4808 0cb6 74       		.byte	0x74
 4809 0cb7 00       		.sleb128 0
 4810 0cb8 00       		.byte	0
 4811 0cb9 19       		.uleb128 0x19
ARM GAS  C:\Users\TERENC~1\AppData\Local\Temp\cc1rRXTX.s 			page 105


 4812 0cba 96000000 		.4byte	.LVL178
 4813 0cbe 541B0000 		.4byte	0x1b54
 4814 0cc2 18       		.uleb128 0x18
 4815 0cc3 01       		.uleb128 0x1
 4816 0cc4 50       		.byte	0x50
 4817 0cc5 02       		.uleb128 0x2
 4818 0cc6 75       		.byte	0x75
 4819 0cc7 00       		.sleb128 0
 4820 0cc8 00       		.byte	0
 4821 0cc9 00       		.byte	0
 4822 0cca 12       		.uleb128 0x12
 4823 0ccb 92000000 		.4byte	.LASF62
 4824 0ccf 01       		.byte	0x1
 4825 0cd0 2B01     		.2byte	0x12b
 4826 0cd2 25000000 		.4byte	0x25
 4827 0cd6 00000000 		.4byte	.LFB9
 4828 0cda 78000000 		.4byte	.LFE9-.LFB9
 4829 0cde 01       		.uleb128 0x1
 4830 0cdf 9C       		.byte	0x9c
 4831 0ce0 C70D0000 		.4byte	0xdc7
 4832 0ce4 13       		.uleb128 0x13
 4833 0ce5 8B030000 		.4byte	.LASF46
 4834 0ce9 01       		.byte	0x1
 4835 0cea 2B01     		.2byte	0x12b
 4836 0cec 25000000 		.4byte	0x25
 4837 0cf0 5C070000 		.4byte	.LLST38
 4838 0cf4 13       		.uleb128 0x13
 4839 0cf5 BC030000 		.4byte	.LASF47
 4840 0cf9 01       		.byte	0x1
 4841 0cfa 2B01     		.2byte	0x12b
 4842 0cfc 25020000 		.4byte	0x225
 4843 0d00 A9070000 		.4byte	.LLST39
 4844 0d04 1E       		.uleb128 0x1e
 4845 0d05 6900     		.ascii	"i\000"
 4846 0d07 01       		.byte	0x1
 4847 0d08 2D01     		.2byte	0x12d
 4848 0d0a 25000000 		.4byte	0x25
 4849 0d0e E3070000 		.4byte	.LLST40
 4850 0d12 1E       		.uleb128 0x1e
 4851 0d13 72656700 		.ascii	"reg\000"
 4852 0d17 01       		.byte	0x1
 4853 0d18 2E01     		.2byte	0x12e
 4854 0d1a B9000000 		.4byte	0xb9
 4855 0d1e 1B080000 		.4byte	.LLST41
 4856 0d22 16       		.uleb128 0x16
 4857 0d23 0A000000 		.4byte	.LVL184
 4858 0d27 341B0000 		.4byte	0x1b34
 4859 0d2b 16       		.uleb128 0x16
 4860 0d2c 12000000 		.4byte	.LVL185
 4861 0d30 401B0000 		.4byte	0x1b40
 4862 0d34 17       		.uleb128 0x17
 4863 0d35 22000000 		.4byte	.LVL186
 4864 0d39 4B1B0000 		.4byte	0x1b4b
 4865 0d3d 560D0000 		.4byte	0xd56
 4866 0d41 18       		.uleb128 0x18
 4867 0d42 01       		.uleb128 0x1
 4868 0d43 50       		.byte	0x50
ARM GAS  C:\Users\TERENC~1\AppData\Local\Temp\cc1rRXTX.s 			page 106


 4869 0d44 02       		.uleb128 0x2
 4870 0d45 74       		.byte	0x74
 4871 0d46 00       		.sleb128 0
 4872 0d47 18       		.uleb128 0x18
 4873 0d48 01       		.uleb128 0x1
 4874 0d49 51       		.byte	0x51
 4875 0d4a 05       		.uleb128 0x5
 4876 0d4b 03       		.byte	0x3
 4877 0d4c 0C000000 		.4byte	.LC4
 4878 0d50 18       		.uleb128 0x18
 4879 0d51 01       		.uleb128 0x1
 4880 0d52 52       		.byte	0x52
 4881 0d53 01       		.uleb128 0x1
 4882 0d54 4E       		.byte	0x4e
 4883 0d55 00       		.byte	0
 4884 0d56 17       		.uleb128 0x17
 4885 0d57 28000000 		.4byte	.LVL187
 4886 0d5b 541B0000 		.4byte	0x1b54
 4887 0d5f 6A0D0000 		.4byte	0xd6a
 4888 0d63 18       		.uleb128 0x18
 4889 0d64 01       		.uleb128 0x1
 4890 0d65 50       		.byte	0x50
 4891 0d66 02       		.uleb128 0x2
 4892 0d67 74       		.byte	0x74
 4893 0d68 00       		.sleb128 0
 4894 0d69 00       		.byte	0
 4895 0d6a 16       		.uleb128 0x16
 4896 0d6b 34000000 		.4byte	.LVL190
 4897 0d6f 5F1B0000 		.4byte	0x1b5f
 4898 0d73 16       		.uleb128 0x16
 4899 0d74 3A000000 		.4byte	.LVL192
 4900 0d78 341B0000 		.4byte	0x1b34
 4901 0d7c 16       		.uleb128 0x16
 4902 0d7d 42000000 		.4byte	.LVL193
 4903 0d81 401B0000 		.4byte	0x1b40
 4904 0d85 17       		.uleb128 0x17
 4905 0d86 4C000000 		.4byte	.LVL194
 4906 0d8a A11B0000 		.4byte	0x1ba1
 4907 0d8e 990D0000 		.4byte	0xd99
 4908 0d92 18       		.uleb128 0x18
 4909 0d93 01       		.uleb128 0x1
 4910 0d94 50       		.byte	0x50
 4911 0d95 02       		.uleb128 0x2
 4912 0d96 74       		.byte	0x74
 4913 0d97 00       		.sleb128 0
 4914 0d98 00       		.byte	0
 4915 0d99 17       		.uleb128 0x17
 4916 0d9a 58000000 		.4byte	.LVL196
 4917 0d9e 6A1B0000 		.4byte	0x1b6a
 4918 0da2 B60D0000 		.4byte	0xdb6
 4919 0da6 18       		.uleb128 0x18
 4920 0da7 01       		.uleb128 0x1
 4921 0da8 50       		.byte	0x50
 4922 0da9 02       		.uleb128 0x2
 4923 0daa 74       		.byte	0x74
 4924 0dab 00       		.sleb128 0
 4925 0dac 18       		.uleb128 0x18
ARM GAS  C:\Users\TERENC~1\AppData\Local\Temp\cc1rRXTX.s 			page 107


 4926 0dad 01       		.uleb128 0x1
 4927 0dae 51       		.byte	0x51
 4928 0daf 05       		.uleb128 0x5
 4929 0db0 03       		.byte	0x3
 4930 0db1 2C010000 		.4byte	.LC59
 4931 0db5 00       		.byte	0
 4932 0db6 19       		.uleb128 0x19
 4933 0db7 5E000000 		.4byte	.LVL197
 4934 0dbb 541B0000 		.4byte	0x1b54
 4935 0dbf 18       		.uleb128 0x18
 4936 0dc0 01       		.uleb128 0x1
 4937 0dc1 50       		.byte	0x50
 4938 0dc2 02       		.uleb128 0x2
 4939 0dc3 74       		.byte	0x74
 4940 0dc4 00       		.sleb128 0
 4941 0dc5 00       		.byte	0
 4942 0dc6 00       		.byte	0
 4943 0dc7 12       		.uleb128 0x12
 4944 0dc8 A6010000 		.4byte	.LASF63
 4945 0dcc 01       		.byte	0x1
 4946 0dcd 6C01     		.2byte	0x16c
 4947 0dcf 25000000 		.4byte	0x25
 4948 0dd3 00000000 		.4byte	.LFB13
 4949 0dd7 0A000000 		.4byte	.LFE13-.LFB13
 4950 0ddb 01       		.uleb128 0x1
 4951 0ddc 9C       		.byte	0x9c
 4952 0ddd 0B0E0000 		.4byte	0xe0b
 4953 0de1 13       		.uleb128 0x13
 4954 0de2 8B030000 		.4byte	.LASF46
 4955 0de6 01       		.byte	0x1
 4956 0de7 6C01     		.2byte	0x16c
 4957 0de9 25000000 		.4byte	0x25
 4958 0ded 39080000 		.4byte	.LLST42
 4959 0df1 13       		.uleb128 0x13
 4960 0df2 BC030000 		.4byte	.LASF47
 4961 0df6 01       		.byte	0x1
 4962 0df7 6C01     		.2byte	0x16c
 4963 0df9 25020000 		.4byte	0x225
 4964 0dfd 5A080000 		.4byte	.LLST43
 4965 0e01 16       		.uleb128 0x16
 4966 0e02 06000000 		.4byte	.LVL202
 4967 0e06 AC1B0000 		.4byte	0x1bac
 4968 0e0a 00       		.byte	0
 4969 0e0b 12       		.uleb128 0x12
 4970 0e0c 38040000 		.4byte	.LASF64
 4971 0e10 01       		.byte	0x1
 4972 0e11 F501     		.2byte	0x1f5
 4973 0e13 25000000 		.4byte	0x25
 4974 0e17 00000000 		.4byte	.LFB19
 4975 0e1b 34000000 		.4byte	.LFE19-.LFB19
 4976 0e1f 01       		.uleb128 0x1
 4977 0e20 9C       		.byte	0x9c
 4978 0e21 8E0E0000 		.4byte	0xe8e
 4979 0e25 13       		.uleb128 0x13
 4980 0e26 8B030000 		.4byte	.LASF46
 4981 0e2a 01       		.byte	0x1
 4982 0e2b F501     		.2byte	0x1f5
ARM GAS  C:\Users\TERENC~1\AppData\Local\Temp\cc1rRXTX.s 			page 108


 4983 0e2d 25000000 		.4byte	0x25
 4984 0e31 7B080000 		.4byte	.LLST44
 4985 0e35 13       		.uleb128 0x13
 4986 0e36 BC030000 		.4byte	.LASF47
 4987 0e3a 01       		.byte	0x1
 4988 0e3b F501     		.2byte	0x1f5
 4989 0e3d 25020000 		.4byte	0x225
 4990 0e41 9C080000 		.4byte	.LLST45
 4991 0e45 16       		.uleb128 0x16
 4992 0e46 06000000 		.4byte	.LVL204
 4993 0e4a 341B0000 		.4byte	0x1b34
 4994 0e4e 16       		.uleb128 0x16
 4995 0e4f 0E000000 		.4byte	.LVL205
 4996 0e53 401B0000 		.4byte	0x1b40
 4997 0e57 16       		.uleb128 0x16
 4998 0e58 16000000 		.4byte	.LVL206
 4999 0e5c B71B0000 		.4byte	0x1bb7
 5000 0e60 17       		.uleb128 0x17
 5001 0e61 22000000 		.4byte	.LVL207
 5002 0e65 6A1B0000 		.4byte	0x1b6a
 5003 0e69 7D0E0000 		.4byte	0xe7d
 5004 0e6d 18       		.uleb128 0x18
 5005 0e6e 01       		.uleb128 0x1
 5006 0e6f 50       		.byte	0x50
 5007 0e70 02       		.uleb128 0x2
 5008 0e71 74       		.byte	0x74
 5009 0e72 00       		.sleb128 0
 5010 0e73 18       		.uleb128 0x18
 5011 0e74 01       		.uleb128 0x1
 5012 0e75 51       		.byte	0x51
 5013 0e76 05       		.uleb128 0x5
 5014 0e77 03       		.byte	0x3
 5015 0e78 3C010000 		.4byte	.LC61
 5016 0e7c 00       		.byte	0
 5017 0e7d 19       		.uleb128 0x19
 5018 0e7e 28000000 		.4byte	.LVL208
 5019 0e82 541B0000 		.4byte	0x1b54
 5020 0e86 18       		.uleb128 0x18
 5021 0e87 01       		.uleb128 0x1
 5022 0e88 50       		.byte	0x50
 5023 0e89 02       		.uleb128 0x2
 5024 0e8a 74       		.byte	0x74
 5025 0e8b 00       		.sleb128 0
 5026 0e8c 00       		.byte	0
 5027 0e8d 00       		.byte	0
 5028 0e8e 1A       		.uleb128 0x1a
 5029 0e8f 69030000 		.4byte	.LASF65
 5030 0e93 01       		.byte	0x1
 5031 0e94 93       		.byte	0x93
 5032 0e95 25000000 		.4byte	0x25
 5033 0e99 00000000 		.4byte	.LFB2
 5034 0e9d 44000000 		.4byte	.LFE2-.LFB2
 5035 0ea1 01       		.uleb128 0x1
 5036 0ea2 9C       		.byte	0x9c
 5037 0ea3 0D0F0000 		.4byte	0xf0d
 5038 0ea7 20       		.uleb128 0x20
 5039 0ea8 6100     		.ascii	"a\000"
ARM GAS  C:\Users\TERENC~1\AppData\Local\Temp\cc1rRXTX.s 			page 109


 5040 0eaa 01       		.byte	0x1
 5041 0eab 93       		.byte	0x93
 5042 0eac AE000000 		.4byte	0xae
 5043 0eb0 BD080000 		.4byte	.LLST46
 5044 0eb4 20       		.uleb128 0x20
 5045 0eb5 6200     		.ascii	"b\000"
 5046 0eb7 01       		.byte	0x1
 5047 0eb8 93       		.byte	0x93
 5048 0eb9 AE000000 		.4byte	0xae
 5049 0ebd DB080000 		.4byte	.LLST47
 5050 0ec1 21       		.uleb128 0x21
 5051 0ec2 02000000 		.4byte	.LBB2
 5052 0ec6 32000000 		.4byte	.LBE2-.LBB2
 5053 0eca 22       		.uleb128 0x22
 5054 0ecb 6400     		.ascii	"d\000"
 5055 0ecd 01       		.byte	0x1
 5056 0ece 97       		.byte	0x97
 5057 0ecf 25000000 		.4byte	0x25
 5058 0ed3 01       		.uleb128 0x1
 5059 0ed4 53       		.byte	0x53
 5060 0ed5 23       		.uleb128 0x23
 5061 0ed6 02000000 		.4byte	.LBB3
 5062 0eda 1A000000 		.4byte	.LBE3-.LBB3
 5063 0ede F20E0000 		.4byte	0xef2
 5064 0ee2 1D       		.uleb128 0x1d
 5065 0ee3 5F5F7800 		.ascii	"__x\000"
 5066 0ee7 01       		.byte	0x1
 5067 0ee8 97       		.byte	0x97
 5068 0ee9 B4000000 		.4byte	0xb4
 5069 0eed F9080000 		.4byte	.LLST48
 5070 0ef1 00       		.byte	0
 5071 0ef2 21       		.uleb128 0x21
 5072 0ef3 1C000000 		.4byte	.LBB4
 5073 0ef7 10000000 		.4byte	.LBE4-.LBB4
 5074 0efb 1D       		.uleb128 0x1d
 5075 0efc 5F5F7800 		.ascii	"__x\000"
 5076 0f00 01       		.byte	0x1
 5077 0f01 97       		.byte	0x97
 5078 0f02 B4000000 		.4byte	0xb4
 5079 0f06 0C090000 		.4byte	.LLST49
 5080 0f0a 00       		.byte	0
 5081 0f0b 00       		.byte	0
 5082 0f0c 00       		.byte	0
 5083 0f0d 12       		.uleb128 0x12
 5084 0f0e E9040000 		.4byte	.LASF66
 5085 0f12 01       		.byte	0x1
 5086 0f13 3F01     		.2byte	0x13f
 5087 0f15 25000000 		.4byte	0x25
 5088 0f19 00000000 		.4byte	.LFB10
 5089 0f1d A0000000 		.4byte	.LFE10-.LFB10
 5090 0f21 01       		.uleb128 0x1
 5091 0f22 9C       		.byte	0x9c
 5092 0f23 61100000 		.4byte	0x1061
 5093 0f27 13       		.uleb128 0x13
 5094 0f28 8B030000 		.4byte	.LASF46
 5095 0f2c 01       		.byte	0x1
 5096 0f2d 3F01     		.2byte	0x13f
ARM GAS  C:\Users\TERENC~1\AppData\Local\Temp\cc1rRXTX.s 			page 110


 5097 0f2f 25000000 		.4byte	0x25
 5098 0f33 43090000 		.4byte	.LLST50
 5099 0f37 13       		.uleb128 0x13
 5100 0f38 BC030000 		.4byte	.LASF47
 5101 0f3c 01       		.byte	0x1
 5102 0f3d 3F01     		.2byte	0x13f
 5103 0f3f 25020000 		.4byte	0x225
 5104 0f43 8C090000 		.4byte	.LLST51
 5105 0f47 14       		.uleb128 0x14
 5106 0f48 6900     		.ascii	"i\000"
 5107 0f4a 01       		.byte	0x1
 5108 0f4b 4101     		.2byte	0x141
 5109 0f4d 25000000 		.4byte	0x25
 5110 0f51 02       		.byte	0x2
 5111 0f52 1E       		.uleb128 0x1e
 5112 0f53 72656700 		.ascii	"reg\000"
 5113 0f57 01       		.byte	0x1
 5114 0f58 4201     		.2byte	0x142
 5115 0f5a DA000000 		.4byte	0xda
 5116 0f5e DC090000 		.4byte	.LLST52
 5117 0f62 1F       		.uleb128 0x1f
 5118 0f63 F1020000 		.4byte	.LASF61
 5119 0f67 01       		.byte	0x1
 5120 0f68 4301     		.2byte	0x143
 5121 0f6a DA000000 		.4byte	0xda
 5122 0f6e FA090000 		.4byte	.LLST53
 5123 0f72 16       		.uleb128 0x16
 5124 0f73 0E000000 		.4byte	.LVL222
 5125 0f77 341B0000 		.4byte	0x1b34
 5126 0f7b 16       		.uleb128 0x16
 5127 0f7c 16000000 		.4byte	.LVL223
 5128 0f80 401B0000 		.4byte	0x1b40
 5129 0f84 17       		.uleb128 0x17
 5130 0f85 26000000 		.4byte	.LVL225
 5131 0f89 6A1B0000 		.4byte	0x1b6a
 5132 0f8d A70F0000 		.4byte	0xfa7
 5133 0f91 18       		.uleb128 0x18
 5134 0f92 01       		.uleb128 0x1
 5135 0f93 50       		.byte	0x50
 5136 0f94 02       		.uleb128 0x2
 5137 0f95 75       		.byte	0x75
 5138 0f96 00       		.sleb128 0
 5139 0f97 18       		.uleb128 0x18
 5140 0f98 01       		.uleb128 0x1
 5141 0f99 51       		.byte	0x51
 5142 0f9a 05       		.uleb128 0x5
 5143 0f9b 03       		.byte	0x3
 5144 0f9c 4C010000 		.4byte	.LC65
 5145 0fa0 18       		.uleb128 0x18
 5146 0fa1 01       		.uleb128 0x1
 5147 0fa2 52       		.byte	0x52
 5148 0fa3 02       		.uleb128 0x2
 5149 0fa4 74       		.byte	0x74
 5150 0fa5 00       		.sleb128 0
 5151 0fa6 00       		.byte	0
 5152 0fa7 17       		.uleb128 0x17
 5153 0fa8 2C000000 		.4byte	.LVL226
ARM GAS  C:\Users\TERENC~1\AppData\Local\Temp\cc1rRXTX.s 			page 111


 5154 0fac 541B0000 		.4byte	0x1b54
 5155 0fb0 BB0F0000 		.4byte	0xfbb
 5156 0fb4 18       		.uleb128 0x18
 5157 0fb5 01       		.uleb128 0x1
 5158 0fb6 50       		.byte	0x50
 5159 0fb7 02       		.uleb128 0x2
 5160 0fb8 75       		.byte	0x75
 5161 0fb9 00       		.sleb128 0
 5162 0fba 00       		.byte	0
 5163 0fbb 16       		.uleb128 0x16
 5164 0fbc 38000000 		.4byte	.LVL228
 5165 0fc0 5F1B0000 		.4byte	0x1b5f
 5166 0fc4 17       		.uleb128 0x17
 5167 0fc5 44000000 		.4byte	.LVL230
 5168 0fc9 8B1B0000 		.4byte	0x1b8b
 5169 0fcd DC0F0000 		.4byte	0xfdc
 5170 0fd1 18       		.uleb128 0x18
 5171 0fd2 01       		.uleb128 0x1
 5172 0fd3 51       		.byte	0x51
 5173 0fd4 01       		.uleb128 0x1
 5174 0fd5 30       		.byte	0x30
 5175 0fd6 18       		.uleb128 0x18
 5176 0fd7 01       		.uleb128 0x1
 5177 0fd8 52       		.byte	0x52
 5178 0fd9 01       		.uleb128 0x1
 5179 0fda 40       		.byte	0x40
 5180 0fdb 00       		.byte	0
 5181 0fdc 17       		.uleb128 0x17
 5182 0fdd 4E000000 		.4byte	.LVL232
 5183 0fe1 8E0E0000 		.4byte	0xe8e
 5184 0fe5 F30F0000 		.4byte	0xff3
 5185 0fe9 18       		.uleb128 0x18
 5186 0fea 01       		.uleb128 0x1
 5187 0feb 51       		.byte	0x51
 5188 0fec 05       		.uleb128 0x5
 5189 0fed 03       		.byte	0x3
 5190 0fee 70010000 		.4byte	.LC68
 5191 0ff2 00       		.byte	0
 5192 0ff3 17       		.uleb128 0x17
 5193 0ff4 5A000000 		.4byte	.LVL233
 5194 0ff8 C21B0000 		.4byte	0x1bc2
 5195 0ffc 0D100000 		.4byte	0x100d
 5196 1000 18       		.uleb128 0x18
 5197 1001 01       		.uleb128 0x1
 5198 1002 50       		.byte	0x50
 5199 1003 02       		.uleb128 0x2
 5200 1004 74       		.byte	0x74
 5201 1005 00       		.sleb128 0
 5202 1006 18       		.uleb128 0x18
 5203 1007 01       		.uleb128 0x1
 5204 1008 51       		.byte	0x51
 5205 1009 02       		.uleb128 0x2
 5206 100a 76       		.byte	0x76
 5207 100b 00       		.sleb128 0
 5208 100c 00       		.byte	0
 5209 100d 16       		.uleb128 0x16
 5210 100e 5E000000 		.4byte	.LVL234
ARM GAS  C:\Users\TERENC~1\AppData\Local\Temp\cc1rRXTX.s 			page 112


 5211 1012 341B0000 		.4byte	0x1b34
 5212 1016 16       		.uleb128 0x16
 5213 1017 66000000 		.4byte	.LVL235
 5214 101b 401B0000 		.4byte	0x1b40
 5215 101f 17       		.uleb128 0x17
 5216 1020 70000000 		.4byte	.LVL236
 5217 1024 CD1B0000 		.4byte	0x1bcd
 5218 1028 33100000 		.4byte	0x1033
 5219 102c 18       		.uleb128 0x18
 5220 102d 01       		.uleb128 0x1
 5221 102e 50       		.byte	0x50
 5222 102f 02       		.uleb128 0x2
 5223 1030 74       		.byte	0x74
 5224 1031 00       		.sleb128 0
 5225 1032 00       		.byte	0
 5226 1033 17       		.uleb128 0x17
 5227 1034 7C000000 		.4byte	.LVL238
 5228 1038 6A1B0000 		.4byte	0x1b6a
 5229 103c 50100000 		.4byte	0x1050
 5230 1040 18       		.uleb128 0x18
 5231 1041 01       		.uleb128 0x1
 5232 1042 50       		.byte	0x50
 5233 1043 02       		.uleb128 0x2
 5234 1044 74       		.byte	0x74
 5235 1045 00       		.sleb128 0
 5236 1046 18       		.uleb128 0x18
 5237 1047 01       		.uleb128 0x1
 5238 1048 51       		.byte	0x51
 5239 1049 05       		.uleb128 0x5
 5240 104a 03       		.byte	0x3
 5241 104b 74010000 		.4byte	.LC70
 5242 104f 00       		.byte	0
 5243 1050 19       		.uleb128 0x19
 5244 1051 82000000 		.4byte	.LVL239
 5245 1055 541B0000 		.4byte	0x1b54
 5246 1059 18       		.uleb128 0x18
 5247 105a 01       		.uleb128 0x1
 5248 105b 50       		.byte	0x50
 5249 105c 02       		.uleb128 0x2
 5250 105d 74       		.byte	0x74
 5251 105e 00       		.sleb128 0
 5252 105f 00       		.byte	0
 5253 1060 00       		.byte	0
 5254 1061 12       		.uleb128 0x12
 5255 1062 FD030000 		.4byte	.LASF67
 5256 1066 01       		.byte	0x1
 5257 1067 7A01     		.2byte	0x17a
 5258 1069 25000000 		.4byte	0x25
 5259 106d 00000000 		.4byte	.LFB15
 5260 1071 00010000 		.4byte	.LFE15-.LFB15
 5261 1075 01       		.uleb128 0x1
 5262 1076 9C       		.byte	0x9c
 5263 1077 49120000 		.4byte	0x1249
 5264 107b 13       		.uleb128 0x13
 5265 107c 8B030000 		.4byte	.LASF46
 5266 1080 01       		.byte	0x1
 5267 1081 7A01     		.2byte	0x17a
ARM GAS  C:\Users\TERENC~1\AppData\Local\Temp\cc1rRXTX.s 			page 113


 5268 1083 25000000 		.4byte	0x25
 5269 1087 180A0000 		.4byte	.LLST54
 5270 108b 13       		.uleb128 0x13
 5271 108c BC030000 		.4byte	.LASF47
 5272 1090 01       		.byte	0x1
 5273 1091 7A01     		.2byte	0x17a
 5274 1093 25020000 		.4byte	0x225
 5275 1097 6E0A0000 		.4byte	.LLST55
 5276 109b 14       		.uleb128 0x14
 5277 109c 6900     		.ascii	"i\000"
 5278 109e 01       		.byte	0x1
 5279 109f 7C01     		.2byte	0x17c
 5280 10a1 25000000 		.4byte	0x25
 5281 10a5 02       		.byte	0x2
 5282 10a6 1F       		.uleb128 0x1f
 5283 10a7 8E060000 		.4byte	.LASF68
 5284 10ab 01       		.byte	0x1
 5285 10ac 7D01     		.2byte	0x17d
 5286 10ae D9010000 		.4byte	0x1d9
 5287 10b2 BE0A0000 		.4byte	.LLST56
 5288 10b6 1F       		.uleb128 0x1f
 5289 10b7 E4000000 		.4byte	.LASF69
 5290 10bb 01       		.byte	0x1
 5291 10bc 7E01     		.2byte	0x17e
 5292 10be CF000000 		.4byte	0xcf
 5293 10c2 F40A0000 		.4byte	.LLST57
 5294 10c6 1F       		.uleb128 0x1f
 5295 10c7 86040000 		.4byte	.LASF70
 5296 10cb 01       		.byte	0x1
 5297 10cc 7E01     		.2byte	0x17e
 5298 10ce CF000000 		.4byte	0xcf
 5299 10d2 1D0B0000 		.4byte	.LLST58
 5300 10d6 1F       		.uleb128 0x1f
 5301 10d7 0C030000 		.4byte	.LASF71
 5302 10db 01       		.byte	0x1
 5303 10dc 7E01     		.2byte	0x17e
 5304 10de CF000000 		.4byte	0xcf
 5305 10e2 460B0000 		.4byte	.LLST59
 5306 10e6 16       		.uleb128 0x16
 5307 10e7 0E000000 		.4byte	.LVL246
 5308 10eb 341B0000 		.4byte	0x1b34
 5309 10ef 16       		.uleb128 0x16
 5310 10f0 16000000 		.4byte	.LVL247
 5311 10f4 401B0000 		.4byte	0x1b40
 5312 10f8 17       		.uleb128 0x17
 5313 10f9 26000000 		.4byte	.LVL249
 5314 10fd 6A1B0000 		.4byte	0x1b6a
 5315 1101 1B110000 		.4byte	0x111b
 5316 1105 18       		.uleb128 0x18
 5317 1106 01       		.uleb128 0x1
 5318 1107 50       		.byte	0x50
 5319 1108 02       		.uleb128 0x2
 5320 1109 75       		.byte	0x75
 5321 110a 00       		.sleb128 0
 5322 110b 18       		.uleb128 0x18
 5323 110c 01       		.uleb128 0x1
 5324 110d 51       		.byte	0x51
ARM GAS  C:\Users\TERENC~1\AppData\Local\Temp\cc1rRXTX.s 			page 114


 5325 110e 05       		.uleb128 0x5
 5326 110f 03       		.byte	0x3
 5327 1110 4C010000 		.4byte	.LC65
 5328 1114 18       		.uleb128 0x18
 5329 1115 01       		.uleb128 0x1
 5330 1116 52       		.byte	0x52
 5331 1117 02       		.uleb128 0x2
 5332 1118 74       		.byte	0x74
 5333 1119 00       		.sleb128 0
 5334 111a 00       		.byte	0
 5335 111b 17       		.uleb128 0x17
 5336 111c 2C000000 		.4byte	.LVL250
 5337 1120 541B0000 		.4byte	0x1b54
 5338 1124 2F110000 		.4byte	0x112f
 5339 1128 18       		.uleb128 0x18
 5340 1129 01       		.uleb128 0x1
 5341 112a 50       		.byte	0x50
 5342 112b 02       		.uleb128 0x2
 5343 112c 75       		.byte	0x75
 5344 112d 00       		.sleb128 0
 5345 112e 00       		.byte	0
 5346 112f 17       		.uleb128 0x17
 5347 1130 3C000000 		.4byte	.LVL255
 5348 1134 8E0E0000 		.4byte	0xe8e
 5349 1138 4C110000 		.4byte	0x114c
 5350 113c 18       		.uleb128 0x18
 5351 113d 01       		.uleb128 0x1
 5352 113e 50       		.byte	0x50
 5353 113f 02       		.uleb128 0x2
 5354 1140 74       		.byte	0x74
 5355 1141 00       		.sleb128 0
 5356 1142 18       		.uleb128 0x18
 5357 1143 01       		.uleb128 0x1
 5358 1144 51       		.byte	0x51
 5359 1145 05       		.uleb128 0x5
 5360 1146 03       		.byte	0x3
 5361 1147 88010000 		.4byte	.LC74
 5362 114b 00       		.byte	0
 5363 114c 17       		.uleb128 0x17
 5364 114d 48000000 		.4byte	.LVL256
 5365 1151 8E0E0000 		.4byte	0xe8e
 5366 1155 69110000 		.4byte	0x1169
 5367 1159 18       		.uleb128 0x18
 5368 115a 01       		.uleb128 0x1
 5369 115b 50       		.byte	0x50
 5370 115c 02       		.uleb128 0x2
 5371 115d 74       		.byte	0x74
 5372 115e 00       		.sleb128 0
 5373 115f 18       		.uleb128 0x18
 5374 1160 01       		.uleb128 0x1
 5375 1161 51       		.byte	0x51
 5376 1162 05       		.uleb128 0x5
 5377 1163 03       		.byte	0x3
 5378 1164 8C010000 		.4byte	.LC76
 5379 1168 00       		.byte	0
 5380 1169 17       		.uleb128 0x17
 5381 116a 54000000 		.4byte	.LVL257
ARM GAS  C:\Users\TERENC~1\AppData\Local\Temp\cc1rRXTX.s 			page 115


 5382 116e 8E0E0000 		.4byte	0xe8e
 5383 1172 86110000 		.4byte	0x1186
 5384 1176 18       		.uleb128 0x18
 5385 1177 01       		.uleb128 0x1
 5386 1178 50       		.byte	0x50
 5387 1179 02       		.uleb128 0x2
 5388 117a 74       		.byte	0x74
 5389 117b 00       		.sleb128 0
 5390 117c 18       		.uleb128 0x18
 5391 117d 01       		.uleb128 0x1
 5392 117e 51       		.byte	0x51
 5393 117f 05       		.uleb128 0x5
 5394 1180 03       		.byte	0x3
 5395 1181 94010000 		.4byte	.LC78
 5396 1185 00       		.byte	0
 5397 1186 16       		.uleb128 0x16
 5398 1187 5C000000 		.4byte	.LVL258
 5399 118b 341B0000 		.4byte	0x1b34
 5400 118f 16       		.uleb128 0x16
 5401 1190 64000000 		.4byte	.LVL259
 5402 1194 401B0000 		.4byte	0x1b40
 5403 1198 17       		.uleb128 0x17
 5404 1199 74000000 		.4byte	.LVL260
 5405 119d 6A1B0000 		.4byte	0x1b6a
 5406 11a1 B5110000 		.4byte	0x11b5
 5407 11a5 18       		.uleb128 0x18
 5408 11a6 01       		.uleb128 0x1
 5409 11a7 50       		.byte	0x50
 5410 11a8 02       		.uleb128 0x2
 5411 11a9 74       		.byte	0x74
 5412 11aa 00       		.sleb128 0
 5413 11ab 18       		.uleb128 0x18
 5414 11ac 01       		.uleb128 0x1
 5415 11ad 51       		.byte	0x51
 5416 11ae 05       		.uleb128 0x5
 5417 11af 03       		.byte	0x3
 5418 11b0 9C010000 		.4byte	.LC80
 5419 11b4 00       		.byte	0
 5420 11b5 17       		.uleb128 0x17
 5421 11b6 7A000000 		.4byte	.LVL261
 5422 11ba 541B0000 		.4byte	0x1b54
 5423 11be C9110000 		.4byte	0x11c9
 5424 11c2 18       		.uleb128 0x18
 5425 11c3 01       		.uleb128 0x1
 5426 11c4 50       		.byte	0x50
 5427 11c5 02       		.uleb128 0x2
 5428 11c6 74       		.byte	0x74
 5429 11c7 00       		.sleb128 0
 5430 11c8 00       		.byte	0
 5431 11c9 16       		.uleb128 0x16
 5432 11ca 90000000 		.4byte	.LVL263
 5433 11ce 5F1B0000 		.4byte	0x1b5f
 5434 11d2 16       		.uleb128 0x16
 5435 11d3 98000000 		.4byte	.LVL266
 5436 11d7 5F1B0000 		.4byte	0x1b5f
 5437 11db 16       		.uleb128 0x16
 5438 11dc A0000000 		.4byte	.LVL269
ARM GAS  C:\Users\TERENC~1\AppData\Local\Temp\cc1rRXTX.s 			page 116


 5439 11e0 5F1B0000 		.4byte	0x1b5f
 5440 11e4 17       		.uleb128 0x17
 5441 11e5 AC000000 		.4byte	.LVL272
 5442 11e9 D81B0000 		.4byte	0x1bd8
 5443 11ed 04120000 		.4byte	0x1204
 5444 11f1 18       		.uleb128 0x18
 5445 11f2 01       		.uleb128 0x1
 5446 11f3 50       		.byte	0x50
 5447 11f4 02       		.uleb128 0x2
 5448 11f5 77       		.byte	0x77
 5449 11f6 00       		.sleb128 0
 5450 11f7 18       		.uleb128 0x18
 5451 11f8 01       		.uleb128 0x1
 5452 11f9 51       		.byte	0x51
 5453 11fa 02       		.uleb128 0x2
 5454 11fb 74       		.byte	0x74
 5455 11fc 00       		.sleb128 0
 5456 11fd 18       		.uleb128 0x18
 5457 11fe 01       		.uleb128 0x1
 5458 11ff 52       		.byte	0x52
 5459 1200 02       		.uleb128 0x2
 5460 1201 76       		.byte	0x76
 5461 1202 00       		.sleb128 0
 5462 1203 00       		.byte	0
 5463 1204 16       		.uleb128 0x16
 5464 1205 B0000000 		.4byte	.LVL273
 5465 1209 341B0000 		.4byte	0x1b34
 5466 120d 16       		.uleb128 0x16
 5467 120e B8000000 		.4byte	.LVL274
 5468 1212 401B0000 		.4byte	0x1b40
 5469 1216 17       		.uleb128 0x17
 5470 1217 C8000000 		.4byte	.LVL276
 5471 121b 4B1B0000 		.4byte	0x1b4b
 5472 121f 38120000 		.4byte	0x1238
 5473 1223 18       		.uleb128 0x18
 5474 1224 01       		.uleb128 0x1
 5475 1225 50       		.byte	0x50
 5476 1226 02       		.uleb128 0x2
 5477 1227 74       		.byte	0x74
 5478 1228 00       		.sleb128 0
 5479 1229 18       		.uleb128 0x18
 5480 122a 01       		.uleb128 0x1
 5481 122b 51       		.byte	0x51
 5482 122c 05       		.uleb128 0x5
 5483 122d 03       		.byte	0x3
 5484 122e C8010000 		.4byte	.LC82
 5485 1232 18       		.uleb128 0x18
 5486 1233 01       		.uleb128 0x1
 5487 1234 52       		.byte	0x52
 5488 1235 01       		.uleb128 0x1
 5489 1236 3A       		.byte	0x3a
 5490 1237 00       		.byte	0
 5491 1238 19       		.uleb128 0x19
 5492 1239 CE000000 		.4byte	.LVL277
 5493 123d 541B0000 		.4byte	0x1b54
 5494 1241 18       		.uleb128 0x18
 5495 1242 01       		.uleb128 0x1
ARM GAS  C:\Users\TERENC~1\AppData\Local\Temp\cc1rRXTX.s 			page 117


 5496 1243 50       		.byte	0x50
 5497 1244 02       		.uleb128 0x2
 5498 1245 74       		.byte	0x74
 5499 1246 00       		.sleb128 0
 5500 1247 00       		.byte	0
 5501 1248 00       		.byte	0
 5502 1249 12       		.uleb128 0x12
 5503 124a 2C030000 		.4byte	.LASF72
 5504 124e 01       		.byte	0x1
 5505 124f A501     		.2byte	0x1a5
 5506 1251 25000000 		.4byte	0x25
 5507 1255 00000000 		.4byte	.LFB16
 5508 1259 E0000000 		.4byte	.LFE16-.LFB16
 5509 125d 01       		.uleb128 0x1
 5510 125e 9C       		.byte	0x9c
 5511 125f CF130000 		.4byte	0x13cf
 5512 1263 13       		.uleb128 0x13
 5513 1264 8B030000 		.4byte	.LASF46
 5514 1268 01       		.byte	0x1
 5515 1269 A501     		.2byte	0x1a5
 5516 126b 25000000 		.4byte	0x25
 5517 126f 640B0000 		.4byte	.LLST60
 5518 1273 13       		.uleb128 0x13
 5519 1274 BC030000 		.4byte	.LASF47
 5520 1278 01       		.byte	0x1
 5521 1279 A501     		.2byte	0x1a5
 5522 127b 25020000 		.4byte	0x225
 5523 127f BA0B0000 		.4byte	.LLST61
 5524 1283 14       		.uleb128 0x14
 5525 1284 6900     		.ascii	"i\000"
 5526 1286 01       		.byte	0x1
 5527 1287 A701     		.2byte	0x1a7
 5528 1289 25000000 		.4byte	0x25
 5529 128d 02       		.byte	0x2
 5530 128e 1F       		.uleb128 0x1f
 5531 128f 8E060000 		.4byte	.LASF68
 5532 1293 01       		.byte	0x1
 5533 1294 A801     		.2byte	0x1a8
 5534 1296 D9010000 		.4byte	0x1d9
 5535 129a 0A0C0000 		.4byte	.LLST62
 5536 129e 16       		.uleb128 0x16
 5537 129f 0E000000 		.4byte	.LVL285
 5538 12a3 341B0000 		.4byte	0x1b34
 5539 12a7 16       		.uleb128 0x16
 5540 12a8 16000000 		.4byte	.LVL286
 5541 12ac 401B0000 		.4byte	0x1b40
 5542 12b0 17       		.uleb128 0x17
 5543 12b1 26000000 		.4byte	.LVL288
 5544 12b5 6A1B0000 		.4byte	0x1b6a
 5545 12b9 D3120000 		.4byte	0x12d3
 5546 12bd 18       		.uleb128 0x18
 5547 12be 01       		.uleb128 0x1
 5548 12bf 50       		.byte	0x50
 5549 12c0 02       		.uleb128 0x2
 5550 12c1 75       		.byte	0x75
 5551 12c2 00       		.sleb128 0
 5552 12c3 18       		.uleb128 0x18
ARM GAS  C:\Users\TERENC~1\AppData\Local\Temp\cc1rRXTX.s 			page 118


 5553 12c4 01       		.uleb128 0x1
 5554 12c5 51       		.byte	0x51
 5555 12c6 05       		.uleb128 0x5
 5556 12c7 03       		.byte	0x3
 5557 12c8 4C010000 		.4byte	.LC65
 5558 12cc 18       		.uleb128 0x18
 5559 12cd 01       		.uleb128 0x1
 5560 12ce 52       		.byte	0x52
 5561 12cf 02       		.uleb128 0x2
 5562 12d0 74       		.byte	0x74
 5563 12d1 00       		.sleb128 0
 5564 12d2 00       		.byte	0
 5565 12d3 17       		.uleb128 0x17
 5566 12d4 2C000000 		.4byte	.LVL289
 5567 12d8 541B0000 		.4byte	0x1b54
 5568 12dc E7120000 		.4byte	0x12e7
 5569 12e0 18       		.uleb128 0x18
 5570 12e1 01       		.uleb128 0x1
 5571 12e2 50       		.byte	0x50
 5572 12e3 02       		.uleb128 0x2
 5573 12e4 75       		.byte	0x75
 5574 12e5 00       		.sleb128 0
 5575 12e6 00       		.byte	0
 5576 12e7 17       		.uleb128 0x17
 5577 12e8 3C000000 		.4byte	.LVL294
 5578 12ec 8E0E0000 		.4byte	0xe8e
 5579 12f0 04130000 		.4byte	0x1304
 5580 12f4 18       		.uleb128 0x18
 5581 12f5 01       		.uleb128 0x1
 5582 12f6 50       		.byte	0x50
 5583 12f7 02       		.uleb128 0x2
 5584 12f8 74       		.byte	0x74
 5585 12f9 00       		.sleb128 0
 5586 12fa 18       		.uleb128 0x18
 5587 12fb 01       		.uleb128 0x1
 5588 12fc 51       		.byte	0x51
 5589 12fd 05       		.uleb128 0x5
 5590 12fe 03       		.byte	0x3
 5591 12ff 88010000 		.4byte	.LC74
 5592 1303 00       		.byte	0
 5593 1304 17       		.uleb128 0x17
 5594 1305 48000000 		.4byte	.LVL295
 5595 1309 8E0E0000 		.4byte	0xe8e
 5596 130d 21130000 		.4byte	0x1321
 5597 1311 18       		.uleb128 0x18
 5598 1312 01       		.uleb128 0x1
 5599 1313 50       		.byte	0x50
 5600 1314 02       		.uleb128 0x2
 5601 1315 74       		.byte	0x74
 5602 1316 00       		.sleb128 0
 5603 1317 18       		.uleb128 0x18
 5604 1318 01       		.uleb128 0x1
 5605 1319 51       		.byte	0x51
 5606 131a 05       		.uleb128 0x5
 5607 131b 03       		.byte	0x3
 5608 131c 8C010000 		.4byte	.LC76
 5609 1320 00       		.byte	0
ARM GAS  C:\Users\TERENC~1\AppData\Local\Temp\cc1rRXTX.s 			page 119


 5610 1321 17       		.uleb128 0x17
 5611 1322 54000000 		.4byte	.LVL296
 5612 1326 8E0E0000 		.4byte	0xe8e
 5613 132a 3E130000 		.4byte	0x133e
 5614 132e 18       		.uleb128 0x18
 5615 132f 01       		.uleb128 0x1
 5616 1330 50       		.byte	0x50
 5617 1331 02       		.uleb128 0x2
 5618 1332 74       		.byte	0x74
 5619 1333 00       		.sleb128 0
 5620 1334 18       		.uleb128 0x18
 5621 1335 01       		.uleb128 0x1
 5622 1336 51       		.byte	0x51
 5623 1337 05       		.uleb128 0x5
 5624 1338 03       		.byte	0x3
 5625 1339 94010000 		.4byte	.LC78
 5626 133d 00       		.byte	0
 5627 133e 16       		.uleb128 0x16
 5628 133f 5C000000 		.4byte	.LVL297
 5629 1343 341B0000 		.4byte	0x1b34
 5630 1347 16       		.uleb128 0x16
 5631 1348 64000000 		.4byte	.LVL298
 5632 134c 401B0000 		.4byte	0x1b40
 5633 1350 17       		.uleb128 0x17
 5634 1351 74000000 		.4byte	.LVL299
 5635 1355 6A1B0000 		.4byte	0x1b6a
 5636 1359 6D130000 		.4byte	0x136d
 5637 135d 18       		.uleb128 0x18
 5638 135e 01       		.uleb128 0x1
 5639 135f 50       		.byte	0x50
 5640 1360 02       		.uleb128 0x2
 5641 1361 74       		.byte	0x74
 5642 1362 00       		.sleb128 0
 5643 1363 18       		.uleb128 0x18
 5644 1364 01       		.uleb128 0x1
 5645 1365 51       		.byte	0x51
 5646 1366 05       		.uleb128 0x5
 5647 1367 03       		.byte	0x3
 5648 1368 9C010000 		.4byte	.LC80
 5649 136c 00       		.byte	0
 5650 136d 17       		.uleb128 0x17
 5651 136e 7A000000 		.4byte	.LVL300
 5652 1372 541B0000 		.4byte	0x1b54
 5653 1376 81130000 		.4byte	0x1381
 5654 137a 18       		.uleb128 0x18
 5655 137b 01       		.uleb128 0x1
 5656 137c 50       		.byte	0x50
 5657 137d 02       		.uleb128 0x2
 5658 137e 74       		.byte	0x74
 5659 137f 00       		.sleb128 0
 5660 1380 00       		.byte	0
 5661 1381 16       		.uleb128 0x16
 5662 1382 8E000000 		.4byte	.LVL302
 5663 1386 E31B0000 		.4byte	0x1be3
 5664 138a 16       		.uleb128 0x16
 5665 138b 92000000 		.4byte	.LVL303
 5666 138f 341B0000 		.4byte	0x1b34
ARM GAS  C:\Users\TERENC~1\AppData\Local\Temp\cc1rRXTX.s 			page 120


 5667 1393 16       		.uleb128 0x16
 5668 1394 9A000000 		.4byte	.LVL304
 5669 1398 401B0000 		.4byte	0x1b40
 5670 139c 17       		.uleb128 0x17
 5671 139d AA000000 		.4byte	.LVL305
 5672 13a1 4B1B0000 		.4byte	0x1b4b
 5673 13a5 BE130000 		.4byte	0x13be
 5674 13a9 18       		.uleb128 0x18
 5675 13aa 01       		.uleb128 0x1
 5676 13ab 50       		.byte	0x50
 5677 13ac 02       		.uleb128 0x2
 5678 13ad 74       		.byte	0x74
 5679 13ae 00       		.sleb128 0
 5680 13af 18       		.uleb128 0x18
 5681 13b0 01       		.uleb128 0x1
 5682 13b1 51       		.byte	0x51
 5683 13b2 05       		.uleb128 0x5
 5684 13b3 03       		.byte	0x3
 5685 13b4 C8010000 		.4byte	.LC82
 5686 13b8 18       		.uleb128 0x18
 5687 13b9 01       		.uleb128 0x1
 5688 13ba 52       		.byte	0x52
 5689 13bb 01       		.uleb128 0x1
 5690 13bc 3A       		.byte	0x3a
 5691 13bd 00       		.byte	0
 5692 13be 19       		.uleb128 0x19
 5693 13bf B0000000 		.4byte	.LVL306
 5694 13c3 541B0000 		.4byte	0x1b54
 5695 13c7 18       		.uleb128 0x18
 5696 13c8 01       		.uleb128 0x1
 5697 13c9 50       		.byte	0x50
 5698 13ca 02       		.uleb128 0x2
 5699 13cb 74       		.byte	0x74
 5700 13cc 00       		.sleb128 0
 5701 13cd 00       		.byte	0
 5702 13ce 00       		.byte	0
 5703 13cf 12       		.uleb128 0x12
 5704 13d0 47000000 		.4byte	.LASF73
 5705 13d4 01       		.byte	0x1
 5706 13d5 DA01     		.2byte	0x1da
 5707 13d7 25000000 		.4byte	0x25
 5708 13db 00000000 		.4byte	.LFB18
 5709 13df A8000000 		.4byte	.LFE18-.LFB18
 5710 13e3 01       		.uleb128 0x1
 5711 13e4 9C       		.byte	0x9c
 5712 13e5 DD140000 		.4byte	0x14dd
 5713 13e9 13       		.uleb128 0x13
 5714 13ea 8B030000 		.4byte	.LASF46
 5715 13ee 01       		.byte	0x1
 5716 13ef DA01     		.2byte	0x1da
 5717 13f1 25000000 		.4byte	0x25
 5718 13f5 350C0000 		.4byte	.LLST63
 5719 13f9 13       		.uleb128 0x13
 5720 13fa BC030000 		.4byte	.LASF47
 5721 13fe 01       		.byte	0x1
 5722 13ff DA01     		.2byte	0x1da
 5723 1401 25020000 		.4byte	0x225
ARM GAS  C:\Users\TERENC~1\AppData\Local\Temp\cc1rRXTX.s 			page 121


 5724 1405 820C0000 		.4byte	.LLST64
 5725 1409 1E       		.uleb128 0x1e
 5726 140a 6900     		.ascii	"i\000"
 5727 140c 01       		.byte	0x1
 5728 140d DC01     		.2byte	0x1dc
 5729 140f 25000000 		.4byte	0x25
 5730 1413 C40C0000 		.4byte	.LLST65
 5731 1417 16       		.uleb128 0x16
 5732 1418 0C000000 		.4byte	.LVL313
 5733 141c 341B0000 		.4byte	0x1b34
 5734 1420 16       		.uleb128 0x16
 5735 1421 14000000 		.4byte	.LVL314
 5736 1425 401B0000 		.4byte	0x1b40
 5737 1429 17       		.uleb128 0x17
 5738 142a 24000000 		.4byte	.LVL315
 5739 142e 4B1B0000 		.4byte	0x1b4b
 5740 1432 4B140000 		.4byte	0x144b
 5741 1436 18       		.uleb128 0x18
 5742 1437 01       		.uleb128 0x1
 5743 1438 50       		.byte	0x50
 5744 1439 02       		.uleb128 0x2
 5745 143a 74       		.byte	0x74
 5746 143b 00       		.sleb128 0
 5747 143c 18       		.uleb128 0x18
 5748 143d 01       		.uleb128 0x1
 5749 143e 51       		.byte	0x51
 5750 143f 05       		.uleb128 0x5
 5751 1440 03       		.byte	0x3
 5752 1441 0C000000 		.4byte	.LC4
 5753 1445 18       		.uleb128 0x18
 5754 1446 01       		.uleb128 0x1
 5755 1447 52       		.byte	0x52
 5756 1448 01       		.uleb128 0x1
 5757 1449 4E       		.byte	0x4e
 5758 144a 00       		.byte	0
 5759 144b 17       		.uleb128 0x17
 5760 144c 2A000000 		.4byte	.LVL316
 5761 1450 541B0000 		.4byte	0x1b54
 5762 1454 5F140000 		.4byte	0x145f
 5763 1458 18       		.uleb128 0x18
 5764 1459 01       		.uleb128 0x1
 5765 145a 50       		.byte	0x50
 5766 145b 02       		.uleb128 0x2
 5767 145c 74       		.byte	0x74
 5768 145d 00       		.sleb128 0
 5769 145e 00       		.byte	0
 5770 145f 17       		.uleb128 0x17
 5771 1460 3A000000 		.4byte	.LVL320
 5772 1464 8E0E0000 		.4byte	0xe8e
 5773 1468 7C140000 		.4byte	0x147c
 5774 146c 18       		.uleb128 0x18
 5775 146d 01       		.uleb128 0x1
 5776 146e 50       		.byte	0x50
 5777 146f 02       		.uleb128 0x2
 5778 1470 76       		.byte	0x76
 5779 1471 00       		.sleb128 0
 5780 1472 18       		.uleb128 0x18
ARM GAS  C:\Users\TERENC~1\AppData\Local\Temp\cc1rRXTX.s 			page 122


 5781 1473 01       		.uleb128 0x1
 5782 1474 51       		.byte	0x51
 5783 1475 05       		.uleb128 0x5
 5784 1476 03       		.byte	0x3
 5785 1477 D4010000 		.4byte	.LC93
 5786 147b 00       		.byte	0
 5787 147c 16       		.uleb128 0x16
 5788 147d 48000000 		.4byte	.LVL322
 5789 1481 5F1B0000 		.4byte	0x1b5f
 5790 1485 17       		.uleb128 0x17
 5791 1486 54000000 		.4byte	.LVL324
 5792 148a 8E0E0000 		.4byte	0xe8e
 5793 148e A2140000 		.4byte	0x14a2
 5794 1492 18       		.uleb128 0x18
 5795 1493 01       		.uleb128 0x1
 5796 1494 50       		.byte	0x50
 5797 1495 02       		.uleb128 0x2
 5798 1496 76       		.byte	0x76
 5799 1497 00       		.sleb128 0
 5800 1498 18       		.uleb128 0x18
 5801 1499 01       		.uleb128 0x1
 5802 149a 51       		.byte	0x51
 5803 149b 05       		.uleb128 0x5
 5804 149c 03       		.byte	0x3
 5805 149d E8010000 		.4byte	.LC96
 5806 14a1 00       		.byte	0
 5807 14a2 16       		.uleb128 0x16
 5808 14a3 62000000 		.4byte	.LVL326
 5809 14a7 5F1B0000 		.4byte	0x1b5f
 5810 14ab 17       		.uleb128 0x17
 5811 14ac 6E000000 		.4byte	.LVL328
 5812 14b0 8E0E0000 		.4byte	0xe8e
 5813 14b4 C8140000 		.4byte	0x14c8
 5814 14b8 18       		.uleb128 0x18
 5815 14b9 01       		.uleb128 0x1
 5816 14ba 50       		.byte	0x50
 5817 14bb 02       		.uleb128 0x2
 5818 14bc 76       		.byte	0x76
 5819 14bd 00       		.sleb128 0
 5820 14be 18       		.uleb128 0x18
 5821 14bf 01       		.uleb128 0x1
 5822 14c0 51       		.byte	0x51
 5823 14c1 05       		.uleb128 0x5
 5824 14c2 03       		.byte	0x3
 5825 14c3 F4010000 		.4byte	.LC98
 5826 14c7 00       		.byte	0
 5827 14c8 19       		.uleb128 0x19
 5828 14c9 80000000 		.4byte	.LVL330
 5829 14cd 8B1B0000 		.4byte	0x1b8b
 5830 14d1 18       		.uleb128 0x18
 5831 14d2 01       		.uleb128 0x1
 5832 14d3 51       		.byte	0x51
 5833 14d4 01       		.uleb128 0x1
 5834 14d5 30       		.byte	0x30
 5835 14d6 18       		.uleb128 0x18
 5836 14d7 01       		.uleb128 0x1
 5837 14d8 52       		.byte	0x52
ARM GAS  C:\Users\TERENC~1\AppData\Local\Temp\cc1rRXTX.s 			page 123


 5838 14d9 01       		.uleb128 0x1
 5839 14da 40       		.byte	0x40
 5840 14db 00       		.byte	0
 5841 14dc 00       		.byte	0
 5842 14dd 24       		.uleb128 0x24
 5843 14de CE000000 		.4byte	.LASF118
 5844 14e2 01       		.byte	0x1
 5845 14e3 FB01     		.2byte	0x1fb
 5846 14e5 25000000 		.4byte	0x25
 5847 14e9 00000000 		.4byte	.LFB20
 5848 14ed 78020000 		.4byte	.LFE20-.LFB20
 5849 14f1 01       		.uleb128 0x1
 5850 14f2 9C       		.byte	0x9c
 5851 14f3 A4170000 		.4byte	0x17a4
 5852 14f7 1F       		.uleb128 0x1f
 5853 14f8 17030000 		.4byte	.LASF74
 5854 14fc 01       		.byte	0x1
 5855 14fd FD01     		.2byte	0x1fd
 5856 14ff 25000000 		.4byte	0x25
 5857 1503 200D0000 		.4byte	.LLST66
 5858 1507 1E       		.uleb128 0x1e
 5859 1508 62756600 		.ascii	"buf\000"
 5860 150c 01       		.byte	0x1
 5861 150d FE01     		.2byte	0x1fe
 5862 150f 9A000000 		.4byte	0x9a
 5863 1513 8E0D0000 		.4byte	.LLST67
 5864 1517 1F       		.uleb128 0x1f
 5865 1518 F8000000 		.4byte	.LASF75
 5866 151c 01       		.byte	0x1
 5867 151d FF01     		.2byte	0x1ff
 5868 151f A4170000 		.4byte	0x17a4
 5869 1523 C70D0000 		.4byte	.LLST68
 5870 1527 25       		.uleb128 0x25
 5871 1528 BC030000 		.4byte	.LASF47
 5872 152c 01       		.byte	0x1
 5873 152d 0002     		.2byte	0x200
 5874 152f AB170000 		.4byte	0x17ab
 5875 1533 03       		.uleb128 0x3
 5876 1534 91       		.byte	0x91
 5877 1535 B07F     		.sleb128 -80
 5878 1537 1F       		.uleb128 0x1f
 5879 1538 8B030000 		.4byte	.LASF46
 5880 153c 01       		.byte	0x1
 5881 153d 0102     		.2byte	0x201
 5882 153f 25000000 		.4byte	0x25
 5883 1543 590E0000 		.4byte	.LLST69
 5884 1547 1E       		.uleb128 0x1e
 5885 1548 6900     		.ascii	"i\000"
 5886 154a 01       		.byte	0x1
 5887 154b 0202     		.2byte	0x202
 5888 154d 25000000 		.4byte	0x25
 5889 1551 A40E0000 		.4byte	.LLST70
 5890 1555 1E       		.uleb128 0x1e
 5891 1556 6A00     		.ascii	"j\000"
 5892 1558 01       		.byte	0x1
 5893 1559 0202     		.2byte	0x202
 5894 155b 25000000 		.4byte	0x25
ARM GAS  C:\Users\TERENC~1\AppData\Local\Temp\cc1rRXTX.s 			page 124


 5895 155f F10E0000 		.4byte	.LLST71
 5896 1563 1E       		.uleb128 0x1e
 5897 1564 6B00     		.ascii	"k\000"
 5898 1566 01       		.byte	0x1
 5899 1567 0202     		.2byte	0x202
 5900 1569 25000000 		.4byte	0x25
 5901 156d 330F0000 		.4byte	.LLST72
 5902 1571 16       		.uleb128 0x16
 5903 1572 60000000 		.4byte	.LVL339
 5904 1576 341B0000 		.4byte	0x1b34
 5905 157a 16       		.uleb128 0x16
 5906 157b 6A000000 		.4byte	.LVL340
 5907 157f 401B0000 		.4byte	0x1b40
 5908 1583 17       		.uleb128 0x17
 5909 1584 7A000000 		.4byte	.LVL341
 5910 1588 4B1B0000 		.4byte	0x1b4b
 5911 158c A5150000 		.4byte	0x15a5
 5912 1590 18       		.uleb128 0x18
 5913 1591 01       		.uleb128 0x1
 5914 1592 50       		.byte	0x50
 5915 1593 02       		.uleb128 0x2
 5916 1594 74       		.byte	0x74
 5917 1595 00       		.sleb128 0
 5918 1596 18       		.uleb128 0x18
 5919 1597 01       		.uleb128 0x1
 5920 1598 51       		.byte	0x51
 5921 1599 05       		.uleb128 0x5
 5922 159a 03       		.byte	0x3
 5923 159b 00020000 		.4byte	.LC103
 5924 159f 18       		.uleb128 0x18
 5925 15a0 01       		.uleb128 0x1
 5926 15a1 52       		.byte	0x52
 5927 15a2 01       		.uleb128 0x1
 5928 15a3 45       		.byte	0x45
 5929 15a4 00       		.byte	0
 5930 15a5 17       		.uleb128 0x17
 5931 15a6 80000000 		.4byte	.LVL342
 5932 15aa 541B0000 		.4byte	0x1b54
 5933 15ae B9150000 		.4byte	0x15b9
 5934 15b2 18       		.uleb128 0x18
 5935 15b3 01       		.uleb128 0x1
 5936 15b4 50       		.byte	0x50
 5937 15b5 02       		.uleb128 0x2
 5938 15b6 74       		.byte	0x74
 5939 15b7 00       		.sleb128 0
 5940 15b8 00       		.byte	0
 5941 15b9 17       		.uleb128 0x17
 5942 15ba A2000000 		.4byte	.LVL347
 5943 15be 8E0E0000 		.4byte	0xe8e
 5944 15c2 D5150000 		.4byte	0x15d5
 5945 15c6 18       		.uleb128 0x18
 5946 15c7 01       		.uleb128 0x1
 5947 15c8 50       		.byte	0x50
 5948 15c9 02       		.uleb128 0x2
 5949 15ca 75       		.byte	0x75
 5950 15cb 00       		.sleb128 0
 5951 15cc 18       		.uleb128 0x18
ARM GAS  C:\Users\TERENC~1\AppData\Local\Temp\cc1rRXTX.s 			page 125


 5952 15cd 01       		.uleb128 0x1
 5953 15ce 51       		.byte	0x51
 5954 15cf 04       		.uleb128 0x4
 5955 15d0 91       		.byte	0x91
 5956 15d1 A87F     		.sleb128 -88
 5957 15d3 06       		.byte	0x6
 5958 15d4 00       		.byte	0
 5959 15d5 17       		.uleb128 0x17
 5960 15d6 B0000000 		.4byte	.LVL348
 5961 15da 8E0E0000 		.4byte	0xe8e
 5962 15de E9150000 		.4byte	0x15e9
 5963 15e2 18       		.uleb128 0x18
 5964 15e3 01       		.uleb128 0x1
 5965 15e4 50       		.byte	0x50
 5966 15e5 02       		.uleb128 0x2
 5967 15e6 75       		.byte	0x75
 5968 15e7 00       		.sleb128 0
 5969 15e8 00       		.byte	0
 5970 15e9 26       		.uleb128 0x26
 5971 15ea BE000000 		.4byte	.LVL349
 5972 15ee 00160000 		.4byte	0x1600
 5973 15f2 18       		.uleb128 0x18
 5974 15f3 01       		.uleb128 0x1
 5975 15f4 50       		.byte	0x50
 5976 15f5 02       		.uleb128 0x2
 5977 15f6 79       		.byte	0x79
 5978 15f7 00       		.sleb128 0
 5979 15f8 18       		.uleb128 0x18
 5980 15f9 01       		.uleb128 0x1
 5981 15fa 51       		.byte	0x51
 5982 15fb 03       		.uleb128 0x3
 5983 15fc 91       		.byte	0x91
 5984 15fd B07F     		.sleb128 -80
 5985 15ff 00       		.byte	0
 5986 1600 17       		.uleb128 0x17
 5987 1601 CE000000 		.4byte	.LVL352
 5988 1605 8E0E0000 		.4byte	0xe8e
 5989 1609 1D160000 		.4byte	0x161d
 5990 160d 18       		.uleb128 0x18
 5991 160e 01       		.uleb128 0x1
 5992 160f 50       		.byte	0x50
 5993 1610 02       		.uleb128 0x2
 5994 1611 75       		.byte	0x75
 5995 1612 00       		.sleb128 0
 5996 1613 18       		.uleb128 0x18
 5997 1614 01       		.uleb128 0x1
 5998 1615 51       		.byte	0x51
 5999 1616 05       		.uleb128 0x5
 6000 1617 03       		.byte	0x3
 6001 1618 18020000 		.4byte	.LC105
 6002 161c 00       		.byte	0
 6003 161d 16       		.uleb128 0x16
 6004 161e D6000000 		.4byte	.LVL354
 6005 1622 341B0000 		.4byte	0x1b34
 6006 1626 16       		.uleb128 0x16
 6007 1627 DE000000 		.4byte	.LVL355
 6008 162b 401B0000 		.4byte	0x1b40
ARM GAS  C:\Users\TERENC~1\AppData\Local\Temp\cc1rRXTX.s 			page 126


 6009 162f 17       		.uleb128 0x17
 6010 1630 EE000000 		.4byte	.LVL356
 6011 1634 6A1B0000 		.4byte	0x1b6a
 6012 1638 54160000 		.4byte	0x1654
 6013 163c 18       		.uleb128 0x18
 6014 163d 01       		.uleb128 0x1
 6015 163e 50       		.byte	0x50
 6016 163f 02       		.uleb128 0x2
 6017 1640 75       		.byte	0x75
 6018 1641 00       		.sleb128 0
 6019 1642 18       		.uleb128 0x18
 6020 1643 01       		.uleb128 0x1
 6021 1644 51       		.byte	0x51
 6022 1645 05       		.uleb128 0x5
 6023 1646 03       		.byte	0x3
 6024 1647 20020000 		.4byte	.LC107
 6025 164b 18       		.uleb128 0x18
 6026 164c 01       		.uleb128 0x1
 6027 164d 52       		.byte	0x52
 6028 164e 04       		.uleb128 0x4
 6029 164f 91       		.byte	0x91
 6030 1650 A87F     		.sleb128 -88
 6031 1652 06       		.byte	0x6
 6032 1653 00       		.byte	0
 6033 1654 17       		.uleb128 0x17
 6034 1655 F4000000 		.4byte	.LVL357
 6035 1659 541B0000 		.4byte	0x1b54
 6036 165d 68160000 		.4byte	0x1668
 6037 1661 18       		.uleb128 0x18
 6038 1662 01       		.uleb128 0x1
 6039 1663 50       		.byte	0x50
 6040 1664 02       		.uleb128 0x2
 6041 1665 75       		.byte	0x75
 6042 1666 00       		.sleb128 0
 6043 1667 00       		.byte	0
 6044 1668 16       		.uleb128 0x16
 6045 1669 FA000000 		.4byte	.LVL358
 6046 166d 341B0000 		.4byte	0x1b34
 6047 1671 16       		.uleb128 0x16
 6048 1672 02010000 		.4byte	.LVL359
 6049 1676 401B0000 		.4byte	0x1b40
 6050 167a 17       		.uleb128 0x17
 6051 167b 16010000 		.4byte	.LVL360
 6052 167f 6A1B0000 		.4byte	0x1b6a
 6053 1683 99160000 		.4byte	0x1699
 6054 1687 18       		.uleb128 0x18
 6055 1688 01       		.uleb128 0x1
 6056 1689 51       		.byte	0x51
 6057 168a 05       		.uleb128 0x5
 6058 168b 03       		.byte	0x3
 6059 168c 44020000 		.4byte	.LC109
 6060 1690 18       		.uleb128 0x18
 6061 1691 01       		.uleb128 0x1
 6062 1692 52       		.byte	0x52
 6063 1693 04       		.uleb128 0x4
 6064 1694 91       		.byte	0x91
 6065 1695 A87F     		.sleb128 -88
ARM GAS  C:\Users\TERENC~1\AppData\Local\Temp\cc1rRXTX.s 			page 127


 6066 1697 06       		.byte	0x6
 6067 1698 00       		.byte	0
 6068 1699 16       		.uleb128 0x16
 6069 169a 1C010000 		.4byte	.LVL361
 6070 169e 541B0000 		.4byte	0x1b54
 6071 16a2 17       		.uleb128 0x17
 6072 16a3 6C010000 		.4byte	.LVL366
 6073 16a7 8E0E0000 		.4byte	0xe8e
 6074 16ab BF160000 		.4byte	0x16bf
 6075 16af 18       		.uleb128 0x18
 6076 16b0 01       		.uleb128 0x1
 6077 16b1 50       		.byte	0x50
 6078 16b2 02       		.uleb128 0x2
 6079 16b3 75       		.byte	0x75
 6080 16b4 00       		.sleb128 0
 6081 16b5 18       		.uleb128 0x18
 6082 16b6 01       		.uleb128 0x1
 6083 16b7 51       		.byte	0x51
 6084 16b8 05       		.uleb128 0x5
 6085 16b9 03       		.byte	0x3
 6086 16ba 18020000 		.4byte	.LC105
 6087 16be 00       		.byte	0
 6088 16bf 16       		.uleb128 0x16
 6089 16c0 74010000 		.4byte	.LVL368
 6090 16c4 341B0000 		.4byte	0x1b34
 6091 16c8 16       		.uleb128 0x16
 6092 16c9 7C010000 		.4byte	.LVL369
 6093 16cd 401B0000 		.4byte	0x1b40
 6094 16d1 17       		.uleb128 0x17
 6095 16d2 8C010000 		.4byte	.LVL370
 6096 16d6 4B1B0000 		.4byte	0x1b4b
 6097 16da F3160000 		.4byte	0x16f3
 6098 16de 18       		.uleb128 0x18
 6099 16df 01       		.uleb128 0x1
 6100 16e0 50       		.byte	0x50
 6101 16e1 02       		.uleb128 0x2
 6102 16e2 75       		.byte	0x75
 6103 16e3 00       		.sleb128 0
 6104 16e4 18       		.uleb128 0x18
 6105 16e5 01       		.uleb128 0x1
 6106 16e6 51       		.byte	0x51
 6107 16e7 05       		.uleb128 0x5
 6108 16e8 03       		.byte	0x3
 6109 16e9 50020000 		.4byte	.LC112
 6110 16ed 18       		.uleb128 0x18
 6111 16ee 01       		.uleb128 0x1
 6112 16ef 52       		.byte	0x52
 6113 16f0 01       		.uleb128 0x1
 6114 16f1 4E       		.byte	0x4e
 6115 16f2 00       		.byte	0
 6116 16f3 17       		.uleb128 0x17
 6117 16f4 92010000 		.4byte	.LVL371
 6118 16f8 541B0000 		.4byte	0x1b54
 6119 16fc 07170000 		.4byte	0x1707
 6120 1700 18       		.uleb128 0x18
 6121 1701 01       		.uleb128 0x1
 6122 1702 50       		.byte	0x50
ARM GAS  C:\Users\TERENC~1\AppData\Local\Temp\cc1rRXTX.s 			page 128


 6123 1703 02       		.uleb128 0x2
 6124 1704 75       		.byte	0x75
 6125 1705 00       		.sleb128 0
 6126 1706 00       		.byte	0
 6127 1707 16       		.uleb128 0x16
 6128 1708 98010000 		.4byte	.LVL373
 6129 170c 341B0000 		.4byte	0x1b34
 6130 1710 16       		.uleb128 0x16
 6131 1711 A0010000 		.4byte	.LVL374
 6132 1715 401B0000 		.4byte	0x1b40
 6133 1719 17       		.uleb128 0x17
 6134 171a BC010000 		.4byte	.LVL375
 6135 171e 6A1B0000 		.4byte	0x1b6a
 6136 1722 50170000 		.4byte	0x1750
 6137 1726 18       		.uleb128 0x18
 6138 1727 01       		.uleb128 0x1
 6139 1728 50       		.byte	0x50
 6140 1729 02       		.uleb128 0x2
 6141 172a 76       		.byte	0x76
 6142 172b 00       		.sleb128 0
 6143 172c 18       		.uleb128 0x18
 6144 172d 01       		.uleb128 0x1
 6145 172e 51       		.byte	0x51
 6146 172f 05       		.uleb128 0x5
 6147 1730 03       		.byte	0x3
 6148 1731 70020000 		.4byte	.LC114
 6149 1735 18       		.uleb128 0x18
 6150 1736 01       		.uleb128 0x1
 6151 1737 52       		.byte	0x52
 6152 1738 02       		.uleb128 0x2
 6153 1739 75       		.byte	0x75
 6154 173a 00       		.sleb128 0
 6155 173b 18       		.uleb128 0x18
 6156 173c 01       		.uleb128 0x1
 6157 173d 53       		.byte	0x53
 6158 173e 10       		.uleb128 0x10
 6159 173f 74       		.byte	0x74
 6160 1740 00       		.sleb128 0
 6161 1741 31       		.byte	0x31
 6162 1742 24       		.byte	0x24
 6163 1743 74       		.byte	0x74
 6164 1744 00       		.sleb128 0
 6165 1745 22       		.byte	0x22
 6166 1746 32       		.byte	0x32
 6167 1747 24       		.byte	0x24
 6168 1748 03       		.byte	0x3
 6169 1749 40000000 		.4byte	.LANCHOR0+64
 6170 174d 22       		.byte	0x22
 6171 174e 06       		.byte	0x6
 6172 174f 00       		.byte	0
 6173 1750 17       		.uleb128 0x17
 6174 1751 C2010000 		.4byte	.LVL376
 6175 1755 541B0000 		.4byte	0x1b54
 6176 1759 64170000 		.4byte	0x1764
 6177 175d 18       		.uleb128 0x18
 6178 175e 01       		.uleb128 0x1
 6179 175f 50       		.byte	0x50
ARM GAS  C:\Users\TERENC~1\AppData\Local\Temp\cc1rRXTX.s 			page 129


 6180 1760 02       		.uleb128 0x2
 6181 1761 76       		.byte	0x76
 6182 1762 00       		.sleb128 0
 6183 1763 00       		.byte	0
 6184 1764 16       		.uleb128 0x16
 6185 1765 0E020000 		.4byte	.LVL384
 6186 1769 341B0000 		.4byte	0x1b34
 6187 176d 16       		.uleb128 0x16
 6188 176e 16020000 		.4byte	.LVL385
 6189 1772 401B0000 		.4byte	0x1b40
 6190 1776 17       		.uleb128 0x17
 6191 1777 26020000 		.4byte	.LVL386
 6192 177b 6A1B0000 		.4byte	0x1b6a
 6193 177f 93170000 		.4byte	0x1793
 6194 1783 18       		.uleb128 0x18
 6195 1784 01       		.uleb128 0x1
 6196 1785 50       		.byte	0x50
 6197 1786 02       		.uleb128 0x2
 6198 1787 74       		.byte	0x74
 6199 1788 00       		.sleb128 0
 6200 1789 18       		.uleb128 0x18
 6201 178a 01       		.uleb128 0x1
 6202 178b 51       		.byte	0x51
 6203 178c 05       		.uleb128 0x5
 6204 178d 03       		.byte	0x3
 6205 178e 7C020000 		.4byte	.LC116
 6206 1792 00       		.byte	0
 6207 1793 19       		.uleb128 0x19
 6208 1794 2C020000 		.4byte	.LVL387
 6209 1798 541B0000 		.4byte	0x1b54
 6210 179c 18       		.uleb128 0x18
 6211 179d 01       		.uleb128 0x1
 6212 179e 50       		.byte	0x50
 6213 179f 02       		.uleb128 0x2
 6214 17a0 74       		.byte	0x74
 6215 17a1 00       		.sleb128 0
 6216 17a2 00       		.byte	0
 6217 17a3 00       		.byte	0
 6218 17a4 03       		.uleb128 0x3
 6219 17a5 01       		.byte	0x1
 6220 17a6 02       		.byte	0x2
 6221 17a7 A0020000 		.4byte	.LASF76
 6222 17ab 0E       		.uleb128 0xe
 6223 17ac 9A000000 		.4byte	0x9a
 6224 17b0 BB170000 		.4byte	0x17bb
 6225 17b4 0F       		.uleb128 0xf
 6226 17b5 93000000 		.4byte	0x93
 6227 17b9 09       		.byte	0x9
 6228 17ba 00       		.byte	0
 6229 17bb 27       		.uleb128 0x27
 6230 17bc 00000000 		.4byte	.LASF77
 6231 17c0 01       		.byte	0x1
 6232 17c1 5B02     		.2byte	0x25b
 6233 17c3 00000000 		.4byte	.LFB21
 6234 17c7 1C000000 		.4byte	.LFE21-.LFB21
 6235 17cb 01       		.uleb128 0x1
 6236 17cc 9C       		.byte	0x9c
ARM GAS  C:\Users\TERENC~1\AppData\Local\Temp\cc1rRXTX.s 			page 130


 6237 17cd ED170000 		.4byte	0x17ed
 6238 17d1 19       		.uleb128 0x19
 6239 17d2 0E000000 		.4byte	.LVL392
 6240 17d6 EE1B0000 		.4byte	0x1bee
 6241 17da 18       		.uleb128 0x18
 6242 17db 01       		.uleb128 0x1
 6243 17dc 50       		.byte	0x50
 6244 17dd 02       		.uleb128 0x2
 6245 17de 74       		.byte	0x74
 6246 17df 00       		.sleb128 0
 6247 17e0 18       		.uleb128 0x18
 6248 17e1 01       		.uleb128 0x1
 6249 17e2 51       		.byte	0x51
 6250 17e3 01       		.uleb128 0x1
 6251 17e4 30       		.byte	0x30
 6252 17e5 18       		.uleb128 0x18
 6253 17e6 01       		.uleb128 0x1
 6254 17e7 52       		.byte	0x52
 6255 17e8 02       		.uleb128 0x2
 6256 17e9 08       		.byte	0x8
 6257 17ea 40       		.byte	0x40
 6258 17eb 00       		.byte	0
 6259 17ec 00       		.byte	0
 6260 17ed 27       		.uleb128 0x27
 6261 17ee 3B050000 		.4byte	.LASF78
 6262 17f2 01       		.byte	0x1
 6263 17f3 6102     		.2byte	0x261
 6264 17f5 00000000 		.4byte	.LFB22
 6265 17f9 20010000 		.4byte	.LFE22-.LFB22
 6266 17fd 01       		.uleb128 0x1
 6267 17fe 9C       		.byte	0x9c
 6268 17ff 7B190000 		.4byte	0x197b
 6269 1803 1E       		.uleb128 0x1e
 6270 1804 6300     		.ascii	"c\000"
 6271 1806 01       		.byte	0x1
 6272 1807 6302     		.2byte	0x263
 6273 1809 A0000000 		.4byte	0xa0
 6274 180d 750F0000 		.4byte	.LLST73
 6275 1811 1E       		.uleb128 0x1e
 6276 1812 6900     		.ascii	"i\000"
 6277 1814 01       		.byte	0x1
 6278 1815 6402     		.2byte	0x264
 6279 1817 DA000000 		.4byte	0xda
 6280 181b BB0F0000 		.4byte	.LLST74
 6281 181f 1F       		.uleb128 0x1f
 6282 1820 4A010000 		.4byte	.LASF79
 6283 1824 01       		.byte	0x1
 6284 1825 6502     		.2byte	0x265
 6285 1827 E6000000 		.4byte	0xe6
 6286 182b E50F0000 		.4byte	.LLST75
 6287 182f 25       		.uleb128 0x25
 6288 1830 5A000000 		.4byte	.LASF80
 6289 1834 01       		.byte	0x1
 6290 1835 6602     		.2byte	0x266
 6291 1837 7B190000 		.4byte	0x197b
 6292 183b 03       		.uleb128 0x3
 6293 183c 91       		.byte	0x91
ARM GAS  C:\Users\TERENC~1\AppData\Local\Temp\cc1rRXTX.s 			page 131


 6294 183d A87F     		.sleb128 -88
 6295 183f 17       		.uleb128 0x17
 6296 1840 0A000000 		.4byte	.LVL394
 6297 1844 F71B0000 		.4byte	0x1bf7
 6298 1848 53180000 		.4byte	0x1853
 6299 184c 18       		.uleb128 0x18
 6300 184d 01       		.uleb128 0x1
 6301 184e 50       		.byte	0x50
 6302 184f 02       		.uleb128 0x2
 6303 1850 7D       		.byte	0x7d
 6304 1851 00       		.sleb128 0
 6305 1852 00       		.byte	0
 6306 1853 16       		.uleb128 0x16
 6307 1854 32000000 		.4byte	.LVL399
 6308 1858 341B0000 		.4byte	0x1b34
 6309 185c 16       		.uleb128 0x16
 6310 185d 3A000000 		.4byte	.LVL400
 6311 1861 401B0000 		.4byte	0x1b40
 6312 1865 17       		.uleb128 0x17
 6313 1866 4A000000 		.4byte	.LVL401
 6314 186a 6A1B0000 		.4byte	0x1b6a
 6315 186e 88180000 		.4byte	0x1888
 6316 1872 18       		.uleb128 0x18
 6317 1873 01       		.uleb128 0x1
 6318 1874 50       		.byte	0x50
 6319 1875 02       		.uleb128 0x2
 6320 1876 77       		.byte	0x77
 6321 1877 00       		.sleb128 0
 6322 1878 18       		.uleb128 0x18
 6323 1879 01       		.uleb128 0x1
 6324 187a 51       		.byte	0x51
 6325 187b 05       		.uleb128 0x5
 6326 187c 03       		.byte	0x3
 6327 187d 94020000 		.4byte	.LC119
 6328 1881 18       		.uleb128 0x18
 6329 1882 01       		.uleb128 0x1
 6330 1883 52       		.byte	0x52
 6331 1884 02       		.uleb128 0x2
 6332 1885 74       		.byte	0x74
 6333 1886 00       		.sleb128 0
 6334 1887 00       		.byte	0
 6335 1888 17       		.uleb128 0x17
 6336 1889 50000000 		.4byte	.LVL402
 6337 188d 541B0000 		.4byte	0x1b54
 6338 1891 9C180000 		.4byte	0x189c
 6339 1895 18       		.uleb128 0x18
 6340 1896 01       		.uleb128 0x1
 6341 1897 50       		.byte	0x50
 6342 1898 02       		.uleb128 0x2
 6343 1899 77       		.byte	0x77
 6344 189a 00       		.sleb128 0
 6345 189b 00       		.byte	0
 6346 189c 16       		.uleb128 0x16
 6347 189d 5E000000 		.4byte	.LVL403
 6348 18a1 DD140000 		.4byte	0x14dd
 6349 18a5 16       		.uleb128 0x16
 6350 18a6 62000000 		.4byte	.LVL404
ARM GAS  C:\Users\TERENC~1\AppData\Local\Temp\cc1rRXTX.s 			page 132


 6351 18aa 341B0000 		.4byte	0x1b34
 6352 18ae 16       		.uleb128 0x16
 6353 18af 6A000000 		.4byte	.LVL405
 6354 18b3 401B0000 		.4byte	0x1b40
 6355 18b7 17       		.uleb128 0x17
 6356 18b8 7A000000 		.4byte	.LVL407
 6357 18bc 4B1B0000 		.4byte	0x1b4b
 6358 18c0 D9180000 		.4byte	0x18d9
 6359 18c4 18       		.uleb128 0x18
 6360 18c5 01       		.uleb128 0x1
 6361 18c6 50       		.byte	0x50
 6362 18c7 02       		.uleb128 0x2
 6363 18c8 74       		.byte	0x74
 6364 18c9 00       		.sleb128 0
 6365 18ca 18       		.uleb128 0x18
 6366 18cb 01       		.uleb128 0x1
 6367 18cc 51       		.byte	0x51
 6368 18cd 05       		.uleb128 0x5
 6369 18ce 03       		.byte	0x3
 6370 18cf 98020000 		.4byte	.LC123
 6371 18d3 18       		.uleb128 0x18
 6372 18d4 01       		.uleb128 0x1
 6373 18d5 52       		.byte	0x52
 6374 18d6 01       		.uleb128 0x1
 6375 18d7 37       		.byte	0x37
 6376 18d8 00       		.byte	0
 6377 18d9 17       		.uleb128 0x17
 6378 18da 80000000 		.4byte	.LVL408
 6379 18de 541B0000 		.4byte	0x1b54
 6380 18e2 ED180000 		.4byte	0x18ed
 6381 18e6 18       		.uleb128 0x18
 6382 18e7 01       		.uleb128 0x1
 6383 18e8 50       		.byte	0x50
 6384 18e9 02       		.uleb128 0x2
 6385 18ea 74       		.byte	0x74
 6386 18eb 00       		.sleb128 0
 6387 18ec 00       		.byte	0
 6388 18ed 16       		.uleb128 0x16
 6389 18ee A6000000 		.4byte	.LVL410
 6390 18f2 341B0000 		.4byte	0x1b34
 6391 18f6 16       		.uleb128 0x16
 6392 18f7 AE000000 		.4byte	.LVL411
 6393 18fb 401B0000 		.4byte	0x1b40
 6394 18ff 17       		.uleb128 0x17
 6395 1900 BE000000 		.4byte	.LVL413
 6396 1904 4B1B0000 		.4byte	0x1b4b
 6397 1908 21190000 		.4byte	0x1921
 6398 190c 18       		.uleb128 0x18
 6399 190d 01       		.uleb128 0x1
 6400 190e 50       		.byte	0x50
 6401 190f 02       		.uleb128 0x2
 6402 1910 74       		.byte	0x74
 6403 1911 00       		.sleb128 0
 6404 1912 18       		.uleb128 0x18
 6405 1913 01       		.uleb128 0x1
 6406 1914 51       		.byte	0x51
 6407 1915 05       		.uleb128 0x5
ARM GAS  C:\Users\TERENC~1\AppData\Local\Temp\cc1rRXTX.s 			page 133


 6408 1916 03       		.byte	0x3
 6409 1917 A0020000 		.4byte	.LC125
 6410 191b 18       		.uleb128 0x18
 6411 191c 01       		.uleb128 0x1
 6412 191d 52       		.byte	0x52
 6413 191e 01       		.uleb128 0x1
 6414 191f 34       		.byte	0x34
 6415 1920 00       		.byte	0
 6416 1921 17       		.uleb128 0x17
 6417 1922 C4000000 		.4byte	.LVL414
 6418 1926 541B0000 		.4byte	0x1b54
 6419 192a 35190000 		.4byte	0x1935
 6420 192e 18       		.uleb128 0x18
 6421 192f 01       		.uleb128 0x1
 6422 1930 50       		.byte	0x50
 6423 1931 02       		.uleb128 0x2
 6424 1932 74       		.byte	0x74
 6425 1933 00       		.sleb128 0
 6426 1934 00       		.byte	0
 6427 1935 16       		.uleb128 0x16
 6428 1936 CA000000 		.4byte	.LVL416
 6429 193a 341B0000 		.4byte	0x1b34
 6430 193e 16       		.uleb128 0x16
 6431 193f D2000000 		.4byte	.LVL417
 6432 1943 401B0000 		.4byte	0x1b40
 6433 1947 17       		.uleb128 0x17
 6434 1948 E2000000 		.4byte	.LVL418
 6435 194c 6A1B0000 		.4byte	0x1b6a
 6436 1950 6A190000 		.4byte	0x196a
 6437 1954 18       		.uleb128 0x18
 6438 1955 01       		.uleb128 0x1
 6439 1956 50       		.byte	0x50
 6440 1957 02       		.uleb128 0x2
 6441 1958 77       		.byte	0x77
 6442 1959 00       		.sleb128 0
 6443 195a 18       		.uleb128 0x18
 6444 195b 01       		.uleb128 0x1
 6445 195c 51       		.byte	0x51
 6446 195d 05       		.uleb128 0x5
 6447 195e 03       		.byte	0x3
 6448 195f 94020000 		.4byte	.LC119
 6449 1963 18       		.uleb128 0x18
 6450 1964 01       		.uleb128 0x1
 6451 1965 52       		.byte	0x52
 6452 1966 02       		.uleb128 0x2
 6453 1967 74       		.byte	0x74
 6454 1968 00       		.sleb128 0
 6455 1969 00       		.byte	0
 6456 196a 19       		.uleb128 0x19
 6457 196b E8000000 		.4byte	.LVL419
 6458 196f 541B0000 		.4byte	0x1b54
 6459 1973 18       		.uleb128 0x18
 6460 1974 01       		.uleb128 0x1
 6461 1975 50       		.byte	0x50
 6462 1976 02       		.uleb128 0x2
 6463 1977 77       		.byte	0x77
 6464 1978 00       		.sleb128 0
ARM GAS  C:\Users\TERENC~1\AppData\Local\Temp\cc1rRXTX.s 			page 134


 6465 1979 00       		.byte	0
 6466 197a 00       		.byte	0
 6467 197b 0E       		.uleb128 0xe
 6468 197c DA000000 		.4byte	0xda
 6469 1980 8B190000 		.4byte	0x198b
 6470 1984 0F       		.uleb128 0xf
 6471 1985 93000000 		.4byte	0x93
 6472 1989 3F       		.byte	0x3f
 6473 198a 00       		.byte	0
 6474 198b 0E       		.uleb128 0xe
 6475 198c 9B190000 		.4byte	0x199b
 6476 1990 9B190000 		.4byte	0x199b
 6477 1994 0F       		.uleb128 0xf
 6478 1995 93000000 		.4byte	0x93
 6479 1999 0D       		.byte	0xd
 6480 199a 00       		.byte	0
 6481 199b 07       		.uleb128 0x7
 6482 199c CF000000 		.4byte	0xcf
 6483 19a0 28       		.uleb128 0x28
 6484 19a1 72030000 		.4byte	.LASF81
 6485 19a5 01       		.byte	0x1
 6486 19a6 32       		.byte	0x32
 6487 19a7 B1190000 		.4byte	0x19b1
 6488 19ab 05       		.uleb128 0x5
 6489 19ac 03       		.byte	0x3
 6490 19ad 00000000 		.4byte	reg_lookup
 6491 19b1 07       		.uleb128 0x7
 6492 19b2 8B190000 		.4byte	0x198b
 6493 19b6 0E       		.uleb128 0xe
 6494 19b7 C6190000 		.4byte	0x19c6
 6495 19bb C6190000 		.4byte	0x19c6
 6496 19bf 0F       		.uleb128 0xf
 6497 19c0 93000000 		.4byte	0x93
 6498 19c4 03       		.byte	0x3
 6499 19c5 00       		.byte	0
 6500 19c6 07       		.uleb128 0x7
 6501 19c7 31020000 		.4byte	0x231
 6502 19cb 28       		.uleb128 0x28
 6503 19cc 23060000 		.4byte	.LASF82
 6504 19d0 01       		.byte	0x1
 6505 19d1 46       		.byte	0x46
 6506 19d2 DC190000 		.4byte	0x19dc
 6507 19d6 05       		.uleb128 0x5
 6508 19d7 03       		.byte	0x3
 6509 19d8 70010000 		.4byte	__tk_shell_verbs_gpio
 6510 19dc 07       		.uleb128 0x7
 6511 19dd B6190000 		.4byte	0x19b6
 6512 19e1 0E       		.uleb128 0xe
 6513 19e2 C6190000 		.4byte	0x19c6
 6514 19e6 F1190000 		.4byte	0x19f1
 6515 19ea 0F       		.uleb128 0xf
 6516 19eb 93000000 		.4byte	0x93
 6517 19ef 04       		.byte	0x4
 6518 19f0 00       		.byte	0
 6519 19f1 28       		.uleb128 0x28
 6520 19f2 72040000 		.4byte	.LASF83
 6521 19f6 01       		.byte	0x1
ARM GAS  C:\Users\TERENC~1\AppData\Local\Temp\cc1rRXTX.s 			page 135


 6522 19f7 52       		.byte	0x52
 6523 19f8 021A0000 		.4byte	0x1a02
 6524 19fc 05       		.uleb128 0x5
 6525 19fd 03       		.byte	0x3
 6526 19fe 34010000 		.4byte	__tk_shell_verbs_wm
 6527 1a02 07       		.uleb128 0x7
 6528 1a03 E1190000 		.4byte	0x19e1
 6529 1a07 0E       		.uleb128 0xe
 6530 1a08 C6190000 		.4byte	0x19c6
 6531 1a0c 171A0000 		.4byte	0x1a17
 6532 1a10 0F       		.uleb128 0xf
 6533 1a11 93000000 		.4byte	0x93
 6534 1a15 01       		.byte	0x1
 6535 1a16 00       		.byte	0
 6536 1a17 28       		.uleb128 0x28
 6537 1a18 79060000 		.4byte	.LASF84
 6538 1a1c 01       		.byte	0x1
 6539 1a1d 5C       		.byte	0x5c
 6540 1a1e 281A0000 		.4byte	0x1a28
 6541 1a22 05       		.uleb128 0x5
 6542 1a23 03       		.byte	0x3
 6543 1a24 1C010000 		.4byte	__tk_shell_verbs_pcm
 6544 1a28 07       		.uleb128 0x7
 6545 1a29 071A0000 		.4byte	0x1a07
 6546 1a2d 28       		.uleb128 0x28
 6547 1a2e A7030000 		.4byte	.LASF85
 6548 1a32 01       		.byte	0x1
 6549 1a33 66       		.byte	0x66
 6550 1a34 3E1A0000 		.4byte	0x1a3e
 6551 1a38 05       		.uleb128 0x5
 6552 1a39 03       		.byte	0x3
 6553 1a3a E0000000 		.4byte	__tk_shell_verbs_sys
 6554 1a3e 07       		.uleb128 0x7
 6555 1a3f E1190000 		.4byte	0x19e1
 6556 1a43 0E       		.uleb128 0xe
 6557 1a44 C6190000 		.4byte	0x19c6
 6558 1a48 531A0000 		.4byte	0x1a53
 6559 1a4c 0F       		.uleb128 0xf
 6560 1a4d 93000000 		.4byte	0x93
 6561 1a51 02       		.byte	0x2
 6562 1a52 00       		.byte	0
 6563 1a53 28       		.uleb128 0x28
 6564 1a54 54030000 		.4byte	.LASF86
 6565 1a58 01       		.byte	0x1
 6566 1a59 72       		.byte	0x72
 6567 1a5a 641A0000 		.4byte	0x1a64
 6568 1a5e 05       		.uleb128 0x5
 6569 1a5f 03       		.byte	0x3
 6570 1a60 BC000000 		.4byte	__tk_shell_verbs_led
 6571 1a64 07       		.uleb128 0x7
 6572 1a65 431A0000 		.4byte	0x1a43
 6573 1a69 28       		.uleb128 0x28
 6574 1a6a 55040000 		.4byte	.LASF87
 6575 1a6e 01       		.byte	0x1
 6576 1a6f 7C       		.byte	0x7c
 6577 1a70 7A1A0000 		.4byte	0x1a7a
 6578 1a74 05       		.uleb128 0x5
ARM GAS  C:\Users\TERENC~1\AppData\Local\Temp\cc1rRXTX.s 			page 136


 6579 1a75 03       		.byte	0x3
 6580 1a76 8C000000 		.4byte	__tk_shell_verbs_cal
 6581 1a7a 07       		.uleb128 0x7
 6582 1a7b B6190000 		.4byte	0x19b6
 6583 1a7f 0E       		.uleb128 0xe
 6584 1a80 8F1A0000 		.4byte	0x1a8f
 6585 1a84 8F1A0000 		.4byte	0x1a8f
 6586 1a88 0F       		.uleb128 0xf
 6587 1a89 93000000 		.4byte	0x93
 6588 1a8d 06       		.byte	0x6
 6589 1a8e 00       		.byte	0
 6590 1a8f 07       		.uleb128 0x7
 6591 1a90 6F020000 		.4byte	0x26f
 6592 1a94 28       		.uleb128 0x28
 6593 1a95 9E030000 		.4byte	.LASF88
 6594 1a99 01       		.byte	0x1
 6595 1a9a 84       		.byte	0x84
 6596 1a9b A51A0000 		.4byte	0x1aa5
 6597 1a9f 05       		.uleb128 0x5
 6598 1aa0 03       		.byte	0x3
 6599 1aa1 38000000 		.4byte	commands
 6600 1aa5 07       		.uleb128 0x7
 6601 1aa6 7F1A0000 		.4byte	0x1a7f
 6602 1aaa 0E       		.uleb128 0xe
 6603 1aab A0000000 		.4byte	0xa0
 6604 1aaf BA1A0000 		.4byte	0x1aba
 6605 1ab3 0F       		.uleb128 0xf
 6606 1ab4 93000000 		.4byte	0x93
 6607 1ab8 3F       		.byte	0x3f
 6608 1ab9 00       		.byte	0
 6609 1aba 28       		.uleb128 0x28
 6610 1abb 98020000 		.4byte	.LASF89
 6611 1abf 01       		.byte	0x1
 6612 1ac0 8F       		.byte	0x8f
 6613 1ac1 AA1A0000 		.4byte	0x1aaa
 6614 1ac5 05       		.uleb128 0x5
 6615 1ac6 03       		.byte	0x3
 6616 1ac7 00000000 		.4byte	cmd_buf
 6617 1acb 28       		.uleb128 0x28
 6618 1acc 58060000 		.4byte	.LASF90
 6619 1ad0 01       		.byte	0x1
 6620 1ad1 90       		.byte	0x90
 6621 1ad2 B9000000 		.4byte	0xb9
 6622 1ad6 05       		.uleb128 0x5
 6623 1ad7 03       		.byte	0x3
 6624 1ad8 40000000 		.4byte	cmd_char_count
 6625 1adc 29       		.uleb128 0x29
 6626 1add 90030000 		.4byte	.LASF91
 6627 1ae1 08       		.byte	0x8
 6628 1ae2 2E       		.byte	0x2e
 6629 1ae3 AE000000 		.4byte	0xae
 6630 1ae7 0E       		.uleb128 0xe
 6631 1ae8 FE000000 		.4byte	0xfe
 6632 1aec F21A0000 		.4byte	0x1af2
 6633 1af0 2A       		.uleb128 0x2a
 6634 1af1 00       		.byte	0
 6635 1af2 29       		.uleb128 0x29
ARM GAS  C:\Users\TERENC~1\AppData\Local\Temp\cc1rRXTX.s 			page 137


 6636 1af3 88010000 		.4byte	.LASF92
 6637 1af7 06       		.byte	0x6
 6638 1af8 1A       		.byte	0x1a
 6639 1af9 E71A0000 		.4byte	0x1ae7
 6640 1afd 29       		.uleb128 0x29
 6641 1afe 12040000 		.4byte	.LASF93
 6642 1b02 05       		.byte	0x5
 6643 1b03 1D       		.byte	0x1d
 6644 1b04 081B0000 		.4byte	0x1b08
 6645 1b08 05       		.uleb128 0x5
 6646 1b09 04       		.byte	0x4
 6647 1b0a A9010000 		.4byte	0x1a9
 6648 1b0e 29       		.uleb128 0x29
 6649 1b0f F6020000 		.4byte	.LASF94
 6650 1b13 09       		.byte	0x9
 6651 1b14 13       		.byte	0x13
 6652 1b15 191B0000 		.4byte	0x1b19
 6653 1b19 09       		.uleb128 0x9
 6654 1b1a CF000000 		.4byte	0xcf
 6655 1b1e 0E       		.uleb128 0xe
 6656 1b1f A0000000 		.4byte	0xa0
 6657 1b23 291B0000 		.4byte	0x1b29
 6658 1b27 2A       		.uleb128 0x2a
 6659 1b28 00       		.byte	0
 6660 1b29 29       		.uleb128 0x29
 6661 1b2a E4030000 		.4byte	.LASF95
 6662 1b2e 0A       		.byte	0xa
 6663 1b2f 3C       		.byte	0x3c
 6664 1b30 1E1B0000 		.4byte	0x1b1e
 6665 1b34 2B       		.uleb128 0x2b
 6666 1b35 B5000000 		.4byte	.LASF96
 6667 1b39 B5000000 		.4byte	.LASF96
 6668 1b3d 0B       		.byte	0xb
 6669 1b3e 3201     		.2byte	0x132
 6670 1b40 2C       		.uleb128 0x2c
 6671 1b41 0E050000 		.4byte	.LASF97
 6672 1b45 0E050000 		.4byte	.LASF97
 6673 1b49 0C       		.byte	0xc
 6674 1b4a 28       		.byte	0x28
 6675 1b4b 2D       		.uleb128 0x2d
 6676 1b4c 4C060000 		.4byte	.LASF112
 6677 1b50 4C060000 		.4byte	.LASF112
 6678 1b54 2C       		.uleb128 0x2c
 6679 1b55 C1040000 		.4byte	.LASF98
 6680 1b59 C1040000 		.4byte	.LASF98
 6681 1b5d 0C       		.byte	0xc
 6682 1b5e 24       		.byte	0x24
 6683 1b5f 2C       		.uleb128 0x2c
 6684 1b60 53060000 		.4byte	.LASF99
 6685 1b64 53060000 		.4byte	.LASF99
 6686 1b68 0D       		.byte	0xd
 6687 1b69 4D       		.byte	0x4d
 6688 1b6a 2C       		.uleb128 0x2c
 6689 1b6b CD030000 		.4byte	.LASF100
 6690 1b6f CD030000 		.4byte	.LASF100
 6691 1b73 0E       		.byte	0xe
 6692 1b74 E7       		.byte	0xe7
ARM GAS  C:\Users\TERENC~1\AppData\Local\Temp\cc1rRXTX.s 			page 138


 6693 1b75 2C       		.uleb128 0x2c
 6694 1b76 0F010000 		.4byte	.LASF101
 6695 1b7a 0F010000 		.4byte	.LASF101
 6696 1b7e 0F       		.byte	0xf
 6697 1b7f AB       		.byte	0xab
 6698 1b80 2C       		.uleb128 0x2c
 6699 1b81 BD020000 		.4byte	.LASF102
 6700 1b85 BD020000 		.4byte	.LASF102
 6701 1b89 0F       		.byte	0xf
 6702 1b8a AD       		.byte	0xad
 6703 1b8b 2C       		.uleb128 0x2c
 6704 1b8c E1040000 		.4byte	.LASF103
 6705 1b90 E1040000 		.4byte	.LASF103
 6706 1b94 0D       		.byte	0xd
 6707 1b95 A4       		.byte	0xa4
 6708 1b96 2C       		.uleb128 0x2c
 6709 1b97 B9050000 		.4byte	.LASF104
 6710 1b9b B9050000 		.4byte	.LASF104
 6711 1b9f 0F       		.byte	0xf
 6712 1ba0 B5       		.byte	0xb5
 6713 1ba1 2C       		.uleb128 0x2c
 6714 1ba2 A3040000 		.4byte	.LASF105
 6715 1ba6 A3040000 		.4byte	.LASF105
 6716 1baa 0F       		.byte	0xf
 6717 1bab B6       		.byte	0xb6
 6718 1bac 2C       		.uleb128 0x2c
 6719 1bad 62050000 		.4byte	.LASF106
 6720 1bb1 62050000 		.4byte	.LASF106
 6721 1bb5 10       		.byte	0x10
 6722 1bb6 E4       		.byte	0xe4
 6723 1bb7 2C       		.uleb128 0x2c
 6724 1bb8 17000000 		.4byte	.LASF107
 6725 1bbc 17000000 		.4byte	.LASF107
 6726 1bc0 05       		.byte	0x5
 6727 1bc1 21       		.byte	0x21
 6728 1bc2 2C       		.uleb128 0x2c
 6729 1bc3 91040000 		.4byte	.LASF108
 6730 1bc7 91040000 		.4byte	.LASF108
 6731 1bcb 11       		.byte	0x11
 6732 1bcc 23       		.byte	0x23
 6733 1bcd 2C       		.uleb128 0x2c
 6734 1bce 27000000 		.4byte	.LASF109
 6735 1bd2 27000000 		.4byte	.LASF109
 6736 1bd6 11       		.byte	0x11
 6737 1bd7 24       		.byte	0x24
 6738 1bd8 2C       		.uleb128 0x2c
 6739 1bd9 4A050000 		.4byte	.LASF110
 6740 1bdd 4A050000 		.4byte	.LASF110
 6741 1be1 07       		.byte	0x7
 6742 1be2 19       		.byte	0x19
 6743 1be3 2C       		.uleb128 0x2c
 6744 1be4 A8060000 		.4byte	.LASF111
 6745 1be8 A8060000 		.4byte	.LASF111
 6746 1bec 07       		.byte	0x7
 6747 1bed 1A       		.byte	0x1a
 6748 1bee 2D       		.uleb128 0x2d
 6749 1bef 7D030000 		.4byte	.LASF113
ARM GAS  C:\Users\TERENC~1\AppData\Local\Temp\cc1rRXTX.s 			page 139


 6750 1bf3 7D030000 		.4byte	.LASF113
 6751 1bf7 2C       		.uleb128 0x2c
 6752 1bf8 DB020000 		.4byte	.LASF114
 6753 1bfc DB020000 		.4byte	.LASF114
 6754 1c00 0C       		.byte	0xc
 6755 1c01 2B       		.byte	0x2b
 6756 1c02 00       		.byte	0
 6757              		.section	.debug_abbrev,"",%progbits
 6758              	.Ldebug_abbrev0:
 6759 0000 01       		.uleb128 0x1
 6760 0001 11       		.uleb128 0x11
 6761 0002 01       		.byte	0x1
 6762 0003 25       		.uleb128 0x25
 6763 0004 0E       		.uleb128 0xe
 6764 0005 13       		.uleb128 0x13
 6765 0006 0B       		.uleb128 0xb
 6766 0007 03       		.uleb128 0x3
 6767 0008 0E       		.uleb128 0xe
 6768 0009 1B       		.uleb128 0x1b
 6769 000a 0E       		.uleb128 0xe
 6770 000b 55       		.uleb128 0x55
 6771 000c 17       		.uleb128 0x17
 6772 000d 11       		.uleb128 0x11
 6773 000e 01       		.uleb128 0x1
 6774 000f 10       		.uleb128 0x10
 6775 0010 17       		.uleb128 0x17
 6776 0011 00       		.byte	0
 6777 0012 00       		.byte	0
 6778 0013 02       		.uleb128 0x2
 6779 0014 24       		.uleb128 0x24
 6780 0015 00       		.byte	0
 6781 0016 0B       		.uleb128 0xb
 6782 0017 0B       		.uleb128 0xb
 6783 0018 3E       		.uleb128 0x3e
 6784 0019 0B       		.uleb128 0xb
 6785 001a 03       		.uleb128 0x3
 6786 001b 08       		.uleb128 0x8
 6787 001c 00       		.byte	0
 6788 001d 00       		.byte	0
 6789 001e 03       		.uleb128 0x3
 6790 001f 24       		.uleb128 0x24
 6791 0020 00       		.byte	0
 6792 0021 0B       		.uleb128 0xb
 6793 0022 0B       		.uleb128 0xb
 6794 0023 3E       		.uleb128 0x3e
 6795 0024 0B       		.uleb128 0xb
 6796 0025 03       		.uleb128 0x3
 6797 0026 0E       		.uleb128 0xe
 6798 0027 00       		.byte	0
 6799 0028 00       		.byte	0
 6800 0029 04       		.uleb128 0x4
 6801 002a 16       		.uleb128 0x16
 6802 002b 00       		.byte	0
 6803 002c 03       		.uleb128 0x3
 6804 002d 0E       		.uleb128 0xe
 6805 002e 3A       		.uleb128 0x3a
 6806 002f 0B       		.uleb128 0xb
ARM GAS  C:\Users\TERENC~1\AppData\Local\Temp\cc1rRXTX.s 			page 140


 6807 0030 3B       		.uleb128 0x3b
 6808 0031 0B       		.uleb128 0xb
 6809 0032 49       		.uleb128 0x49
 6810 0033 13       		.uleb128 0x13
 6811 0034 00       		.byte	0
 6812 0035 00       		.byte	0
 6813 0036 05       		.uleb128 0x5
 6814 0037 0F       		.uleb128 0xf
 6815 0038 00       		.byte	0
 6816 0039 0B       		.uleb128 0xb
 6817 003a 0B       		.uleb128 0xb
 6818 003b 49       		.uleb128 0x49
 6819 003c 13       		.uleb128 0x13
 6820 003d 00       		.byte	0
 6821 003e 00       		.byte	0
 6822 003f 06       		.uleb128 0x6
 6823 0040 15       		.uleb128 0x15
 6824 0041 00       		.byte	0
 6825 0042 27       		.uleb128 0x27
 6826 0043 19       		.uleb128 0x19
 6827 0044 00       		.byte	0
 6828 0045 00       		.byte	0
 6829 0046 07       		.uleb128 0x7
 6830 0047 26       		.uleb128 0x26
 6831 0048 00       		.byte	0
 6832 0049 49       		.uleb128 0x49
 6833 004a 13       		.uleb128 0x13
 6834 004b 00       		.byte	0
 6835 004c 00       		.byte	0
 6836 004d 08       		.uleb128 0x8
 6837 004e 16       		.uleb128 0x16
 6838 004f 00       		.byte	0
 6839 0050 03       		.uleb128 0x3
 6840 0051 0E       		.uleb128 0xe
 6841 0052 3A       		.uleb128 0x3a
 6842 0053 0B       		.uleb128 0xb
 6843 0054 3B       		.uleb128 0x3b
 6844 0055 05       		.uleb128 0x5
 6845 0056 49       		.uleb128 0x49
 6846 0057 13       		.uleb128 0x13
 6847 0058 00       		.byte	0
 6848 0059 00       		.byte	0
 6849 005a 09       		.uleb128 0x9
 6850 005b 35       		.uleb128 0x35
 6851 005c 00       		.byte	0
 6852 005d 49       		.uleb128 0x49
 6853 005e 13       		.uleb128 0x13
 6854 005f 00       		.byte	0
 6855 0060 00       		.byte	0
 6856 0061 0A       		.uleb128 0xa
 6857 0062 04       		.uleb128 0x4
 6858 0063 01       		.byte	0x1
 6859 0064 0B       		.uleb128 0xb
 6860 0065 0B       		.uleb128 0xb
 6861 0066 49       		.uleb128 0x49
 6862 0067 13       		.uleb128 0x13
 6863 0068 3A       		.uleb128 0x3a
ARM GAS  C:\Users\TERENC~1\AppData\Local\Temp\cc1rRXTX.s 			page 141


 6864 0069 0B       		.uleb128 0xb
 6865 006a 3B       		.uleb128 0x3b
 6866 006b 0B       		.uleb128 0xb
 6867 006c 01       		.uleb128 0x1
 6868 006d 13       		.uleb128 0x13
 6869 006e 00       		.byte	0
 6870 006f 00       		.byte	0
 6871 0070 0B       		.uleb128 0xb
 6872 0071 28       		.uleb128 0x28
 6873 0072 00       		.byte	0
 6874 0073 03       		.uleb128 0x3
 6875 0074 0E       		.uleb128 0xe
 6876 0075 1C       		.uleb128 0x1c
 6877 0076 0B       		.uleb128 0xb
 6878 0077 00       		.byte	0
 6879 0078 00       		.byte	0
 6880 0079 0C       		.uleb128 0xc
 6881 007a 13       		.uleb128 0x13
 6882 007b 01       		.byte	0x1
 6883 007c 0B       		.uleb128 0xb
 6884 007d 0B       		.uleb128 0xb
 6885 007e 3A       		.uleb128 0x3a
 6886 007f 0B       		.uleb128 0xb
 6887 0080 3B       		.uleb128 0x3b
 6888 0081 0B       		.uleb128 0xb
 6889 0082 01       		.uleb128 0x1
 6890 0083 13       		.uleb128 0x13
 6891 0084 00       		.byte	0
 6892 0085 00       		.byte	0
 6893 0086 0D       		.uleb128 0xd
 6894 0087 0D       		.uleb128 0xd
 6895 0088 00       		.byte	0
 6896 0089 03       		.uleb128 0x3
 6897 008a 0E       		.uleb128 0xe
 6898 008b 3A       		.uleb128 0x3a
 6899 008c 0B       		.uleb128 0xb
 6900 008d 3B       		.uleb128 0x3b
 6901 008e 0B       		.uleb128 0xb
 6902 008f 49       		.uleb128 0x49
 6903 0090 13       		.uleb128 0x13
 6904 0091 38       		.uleb128 0x38
 6905 0092 0B       		.uleb128 0xb
 6906 0093 00       		.byte	0
 6907 0094 00       		.byte	0
 6908 0095 0E       		.uleb128 0xe
 6909 0096 01       		.uleb128 0x1
 6910 0097 01       		.byte	0x1
 6911 0098 49       		.uleb128 0x49
 6912 0099 13       		.uleb128 0x13
 6913 009a 01       		.uleb128 0x1
 6914 009b 13       		.uleb128 0x13
 6915 009c 00       		.byte	0
 6916 009d 00       		.byte	0
 6917 009e 0F       		.uleb128 0xf
 6918 009f 21       		.uleb128 0x21
 6919 00a0 00       		.byte	0
 6920 00a1 49       		.uleb128 0x49
ARM GAS  C:\Users\TERENC~1\AppData\Local\Temp\cc1rRXTX.s 			page 142


 6921 00a2 13       		.uleb128 0x13
 6922 00a3 2F       		.uleb128 0x2f
 6923 00a4 0B       		.uleb128 0xb
 6924 00a5 00       		.byte	0
 6925 00a6 00       		.byte	0
 6926 00a7 10       		.uleb128 0x10
 6927 00a8 15       		.uleb128 0x15
 6928 00a9 01       		.byte	0x1
 6929 00aa 27       		.uleb128 0x27
 6930 00ab 19       		.uleb128 0x19
 6931 00ac 49       		.uleb128 0x49
 6932 00ad 13       		.uleb128 0x13
 6933 00ae 01       		.uleb128 0x1
 6934 00af 13       		.uleb128 0x13
 6935 00b0 00       		.byte	0
 6936 00b1 00       		.byte	0
 6937 00b2 11       		.uleb128 0x11
 6938 00b3 05       		.uleb128 0x5
 6939 00b4 00       		.byte	0
 6940 00b5 49       		.uleb128 0x49
 6941 00b6 13       		.uleb128 0x13
 6942 00b7 00       		.byte	0
 6943 00b8 00       		.byte	0
 6944 00b9 12       		.uleb128 0x12
 6945 00ba 2E       		.uleb128 0x2e
 6946 00bb 01       		.byte	0x1
 6947 00bc 3F       		.uleb128 0x3f
 6948 00bd 19       		.uleb128 0x19
 6949 00be 03       		.uleb128 0x3
 6950 00bf 0E       		.uleb128 0xe
 6951 00c0 3A       		.uleb128 0x3a
 6952 00c1 0B       		.uleb128 0xb
 6953 00c2 3B       		.uleb128 0x3b
 6954 00c3 05       		.uleb128 0x5
 6955 00c4 27       		.uleb128 0x27
 6956 00c5 19       		.uleb128 0x19
 6957 00c6 49       		.uleb128 0x49
 6958 00c7 13       		.uleb128 0x13
 6959 00c8 11       		.uleb128 0x11
 6960 00c9 01       		.uleb128 0x1
 6961 00ca 12       		.uleb128 0x12
 6962 00cb 06       		.uleb128 0x6
 6963 00cc 40       		.uleb128 0x40
 6964 00cd 18       		.uleb128 0x18
 6965 00ce 9742     		.uleb128 0x2117
 6966 00d0 19       		.uleb128 0x19
 6967 00d1 01       		.uleb128 0x1
 6968 00d2 13       		.uleb128 0x13
 6969 00d3 00       		.byte	0
 6970 00d4 00       		.byte	0
 6971 00d5 13       		.uleb128 0x13
 6972 00d6 05       		.uleb128 0x5
 6973 00d7 00       		.byte	0
 6974 00d8 03       		.uleb128 0x3
 6975 00d9 0E       		.uleb128 0xe
 6976 00da 3A       		.uleb128 0x3a
 6977 00db 0B       		.uleb128 0xb
ARM GAS  C:\Users\TERENC~1\AppData\Local\Temp\cc1rRXTX.s 			page 143


 6978 00dc 3B       		.uleb128 0x3b
 6979 00dd 05       		.uleb128 0x5
 6980 00de 49       		.uleb128 0x49
 6981 00df 13       		.uleb128 0x13
 6982 00e0 02       		.uleb128 0x2
 6983 00e1 17       		.uleb128 0x17
 6984 00e2 00       		.byte	0
 6985 00e3 00       		.byte	0
 6986 00e4 14       		.uleb128 0x14
 6987 00e5 34       		.uleb128 0x34
 6988 00e6 00       		.byte	0
 6989 00e7 03       		.uleb128 0x3
 6990 00e8 08       		.uleb128 0x8
 6991 00e9 3A       		.uleb128 0x3a
 6992 00ea 0B       		.uleb128 0xb
 6993 00eb 3B       		.uleb128 0x3b
 6994 00ec 05       		.uleb128 0x5
 6995 00ed 49       		.uleb128 0x49
 6996 00ee 13       		.uleb128 0x13
 6997 00ef 1C       		.uleb128 0x1c
 6998 00f0 0B       		.uleb128 0xb
 6999 00f1 00       		.byte	0
 7000 00f2 00       		.byte	0
 7001 00f3 15       		.uleb128 0x15
 7002 00f4 898201   		.uleb128 0x4109
 7003 00f7 00       		.byte	0
 7004 00f8 11       		.uleb128 0x11
 7005 00f9 01       		.uleb128 0x1
 7006 00fa 9342     		.uleb128 0x2113
 7007 00fc 18       		.uleb128 0x18
 7008 00fd 00       		.byte	0
 7009 00fe 00       		.byte	0
 7010 00ff 16       		.uleb128 0x16
 7011 0100 898201   		.uleb128 0x4109
 7012 0103 00       		.byte	0
 7013 0104 11       		.uleb128 0x11
 7014 0105 01       		.uleb128 0x1
 7015 0106 31       		.uleb128 0x31
 7016 0107 13       		.uleb128 0x13
 7017 0108 00       		.byte	0
 7018 0109 00       		.byte	0
 7019 010a 17       		.uleb128 0x17
 7020 010b 898201   		.uleb128 0x4109
 7021 010e 01       		.byte	0x1
 7022 010f 11       		.uleb128 0x11
 7023 0110 01       		.uleb128 0x1
 7024 0111 31       		.uleb128 0x31
 7025 0112 13       		.uleb128 0x13
 7026 0113 01       		.uleb128 0x1
 7027 0114 13       		.uleb128 0x13
 7028 0115 00       		.byte	0
 7029 0116 00       		.byte	0
 7030 0117 18       		.uleb128 0x18
 7031 0118 8A8201   		.uleb128 0x410a
 7032 011b 00       		.byte	0
 7033 011c 02       		.uleb128 0x2
 7034 011d 18       		.uleb128 0x18
ARM GAS  C:\Users\TERENC~1\AppData\Local\Temp\cc1rRXTX.s 			page 144


 7035 011e 9142     		.uleb128 0x2111
 7036 0120 18       		.uleb128 0x18
 7037 0121 00       		.byte	0
 7038 0122 00       		.byte	0
 7039 0123 19       		.uleb128 0x19
 7040 0124 898201   		.uleb128 0x4109
 7041 0127 01       		.byte	0x1
 7042 0128 11       		.uleb128 0x11
 7043 0129 01       		.uleb128 0x1
 7044 012a 31       		.uleb128 0x31
 7045 012b 13       		.uleb128 0x13
 7046 012c 00       		.byte	0
 7047 012d 00       		.byte	0
 7048 012e 1A       		.uleb128 0x1a
 7049 012f 2E       		.uleb128 0x2e
 7050 0130 01       		.byte	0x1
 7051 0131 3F       		.uleb128 0x3f
 7052 0132 19       		.uleb128 0x19
 7053 0133 03       		.uleb128 0x3
 7054 0134 0E       		.uleb128 0xe
 7055 0135 3A       		.uleb128 0x3a
 7056 0136 0B       		.uleb128 0xb
 7057 0137 3B       		.uleb128 0x3b
 7058 0138 0B       		.uleb128 0xb
 7059 0139 27       		.uleb128 0x27
 7060 013a 19       		.uleb128 0x19
 7061 013b 49       		.uleb128 0x49
 7062 013c 13       		.uleb128 0x13
 7063 013d 11       		.uleb128 0x11
 7064 013e 01       		.uleb128 0x1
 7065 013f 12       		.uleb128 0x12
 7066 0140 06       		.uleb128 0x6
 7067 0141 40       		.uleb128 0x40
 7068 0142 18       		.uleb128 0x18
 7069 0143 9742     		.uleb128 0x2117
 7070 0145 19       		.uleb128 0x19
 7071 0146 01       		.uleb128 0x1
 7072 0147 13       		.uleb128 0x13
 7073 0148 00       		.byte	0
 7074 0149 00       		.byte	0
 7075 014a 1B       		.uleb128 0x1b
 7076 014b 05       		.uleb128 0x5
 7077 014c 00       		.byte	0
 7078 014d 03       		.uleb128 0x3
 7079 014e 0E       		.uleb128 0xe
 7080 014f 3A       		.uleb128 0x3a
 7081 0150 0B       		.uleb128 0xb
 7082 0151 3B       		.uleb128 0x3b
 7083 0152 0B       		.uleb128 0xb
 7084 0153 49       		.uleb128 0x49
 7085 0154 13       		.uleb128 0x13
 7086 0155 02       		.uleb128 0x2
 7087 0156 17       		.uleb128 0x17
 7088 0157 00       		.byte	0
 7089 0158 00       		.byte	0
 7090 0159 1C       		.uleb128 0x1c
 7091 015a 34       		.uleb128 0x34
ARM GAS  C:\Users\TERENC~1\AppData\Local\Temp\cc1rRXTX.s 			page 145


 7092 015b 00       		.byte	0
 7093 015c 03       		.uleb128 0x3
 7094 015d 0E       		.uleb128 0xe
 7095 015e 3A       		.uleb128 0x3a
 7096 015f 0B       		.uleb128 0xb
 7097 0160 3B       		.uleb128 0x3b
 7098 0161 0B       		.uleb128 0xb
 7099 0162 49       		.uleb128 0x49
 7100 0163 13       		.uleb128 0x13
 7101 0164 02       		.uleb128 0x2
 7102 0165 17       		.uleb128 0x17
 7103 0166 00       		.byte	0
 7104 0167 00       		.byte	0
 7105 0168 1D       		.uleb128 0x1d
 7106 0169 34       		.uleb128 0x34
 7107 016a 00       		.byte	0
 7108 016b 03       		.uleb128 0x3
 7109 016c 08       		.uleb128 0x8
 7110 016d 3A       		.uleb128 0x3a
 7111 016e 0B       		.uleb128 0xb
 7112 016f 3B       		.uleb128 0x3b
 7113 0170 0B       		.uleb128 0xb
 7114 0171 49       		.uleb128 0x49
 7115 0172 13       		.uleb128 0x13
 7116 0173 02       		.uleb128 0x2
 7117 0174 17       		.uleb128 0x17
 7118 0175 00       		.byte	0
 7119 0176 00       		.byte	0
 7120 0177 1E       		.uleb128 0x1e
 7121 0178 34       		.uleb128 0x34
 7122 0179 00       		.byte	0
 7123 017a 03       		.uleb128 0x3
 7124 017b 08       		.uleb128 0x8
 7125 017c 3A       		.uleb128 0x3a
 7126 017d 0B       		.uleb128 0xb
 7127 017e 3B       		.uleb128 0x3b
 7128 017f 05       		.uleb128 0x5
 7129 0180 49       		.uleb128 0x49
 7130 0181 13       		.uleb128 0x13
 7131 0182 02       		.uleb128 0x2
 7132 0183 17       		.uleb128 0x17
 7133 0184 00       		.byte	0
 7134 0185 00       		.byte	0
 7135 0186 1F       		.uleb128 0x1f
 7136 0187 34       		.uleb128 0x34
 7137 0188 00       		.byte	0
 7138 0189 03       		.uleb128 0x3
 7139 018a 0E       		.uleb128 0xe
 7140 018b 3A       		.uleb128 0x3a
 7141 018c 0B       		.uleb128 0xb
 7142 018d 3B       		.uleb128 0x3b
 7143 018e 05       		.uleb128 0x5
 7144 018f 49       		.uleb128 0x49
 7145 0190 13       		.uleb128 0x13
 7146 0191 02       		.uleb128 0x2
 7147 0192 17       		.uleb128 0x17
 7148 0193 00       		.byte	0
ARM GAS  C:\Users\TERENC~1\AppData\Local\Temp\cc1rRXTX.s 			page 146


 7149 0194 00       		.byte	0
 7150 0195 20       		.uleb128 0x20
 7151 0196 05       		.uleb128 0x5
 7152 0197 00       		.byte	0
 7153 0198 03       		.uleb128 0x3
 7154 0199 08       		.uleb128 0x8
 7155 019a 3A       		.uleb128 0x3a
 7156 019b 0B       		.uleb128 0xb
 7157 019c 3B       		.uleb128 0x3b
 7158 019d 0B       		.uleb128 0xb
 7159 019e 49       		.uleb128 0x49
 7160 019f 13       		.uleb128 0x13
 7161 01a0 02       		.uleb128 0x2
 7162 01a1 17       		.uleb128 0x17
 7163 01a2 00       		.byte	0
 7164 01a3 00       		.byte	0
 7165 01a4 21       		.uleb128 0x21
 7166 01a5 0B       		.uleb128 0xb
 7167 01a6 01       		.byte	0x1
 7168 01a7 11       		.uleb128 0x11
 7169 01a8 01       		.uleb128 0x1
 7170 01a9 12       		.uleb128 0x12
 7171 01aa 06       		.uleb128 0x6
 7172 01ab 00       		.byte	0
 7173 01ac 00       		.byte	0
 7174 01ad 22       		.uleb128 0x22
 7175 01ae 34       		.uleb128 0x34
 7176 01af 00       		.byte	0
 7177 01b0 03       		.uleb128 0x3
 7178 01b1 08       		.uleb128 0x8
 7179 01b2 3A       		.uleb128 0x3a
 7180 01b3 0B       		.uleb128 0xb
 7181 01b4 3B       		.uleb128 0x3b
 7182 01b5 0B       		.uleb128 0xb
 7183 01b6 49       		.uleb128 0x49
 7184 01b7 13       		.uleb128 0x13
 7185 01b8 02       		.uleb128 0x2
 7186 01b9 18       		.uleb128 0x18
 7187 01ba 00       		.byte	0
 7188 01bb 00       		.byte	0
 7189 01bc 23       		.uleb128 0x23
 7190 01bd 0B       		.uleb128 0xb
 7191 01be 01       		.byte	0x1
 7192 01bf 11       		.uleb128 0x11
 7193 01c0 01       		.uleb128 0x1
 7194 01c1 12       		.uleb128 0x12
 7195 01c2 06       		.uleb128 0x6
 7196 01c3 01       		.uleb128 0x1
 7197 01c4 13       		.uleb128 0x13
 7198 01c5 00       		.byte	0
 7199 01c6 00       		.byte	0
 7200 01c7 24       		.uleb128 0x24
 7201 01c8 2E       		.uleb128 0x2e
 7202 01c9 01       		.byte	0x1
 7203 01ca 03       		.uleb128 0x3
 7204 01cb 0E       		.uleb128 0xe
 7205 01cc 3A       		.uleb128 0x3a
ARM GAS  C:\Users\TERENC~1\AppData\Local\Temp\cc1rRXTX.s 			page 147


 7206 01cd 0B       		.uleb128 0xb
 7207 01ce 3B       		.uleb128 0x3b
 7208 01cf 05       		.uleb128 0x5
 7209 01d0 27       		.uleb128 0x27
 7210 01d1 19       		.uleb128 0x19
 7211 01d2 49       		.uleb128 0x49
 7212 01d3 13       		.uleb128 0x13
 7213 01d4 11       		.uleb128 0x11
 7214 01d5 01       		.uleb128 0x1
 7215 01d6 12       		.uleb128 0x12
 7216 01d7 06       		.uleb128 0x6
 7217 01d8 40       		.uleb128 0x40
 7218 01d9 18       		.uleb128 0x18
 7219 01da 9742     		.uleb128 0x2117
 7220 01dc 19       		.uleb128 0x19
 7221 01dd 01       		.uleb128 0x1
 7222 01de 13       		.uleb128 0x13
 7223 01df 00       		.byte	0
 7224 01e0 00       		.byte	0
 7225 01e1 25       		.uleb128 0x25
 7226 01e2 34       		.uleb128 0x34
 7227 01e3 00       		.byte	0
 7228 01e4 03       		.uleb128 0x3
 7229 01e5 0E       		.uleb128 0xe
 7230 01e6 3A       		.uleb128 0x3a
 7231 01e7 0B       		.uleb128 0xb
 7232 01e8 3B       		.uleb128 0x3b
 7233 01e9 05       		.uleb128 0x5
 7234 01ea 49       		.uleb128 0x49
 7235 01eb 13       		.uleb128 0x13
 7236 01ec 02       		.uleb128 0x2
 7237 01ed 18       		.uleb128 0x18
 7238 01ee 00       		.byte	0
 7239 01ef 00       		.byte	0
 7240 01f0 26       		.uleb128 0x26
 7241 01f1 898201   		.uleb128 0x4109
 7242 01f4 01       		.byte	0x1
 7243 01f5 11       		.uleb128 0x11
 7244 01f6 01       		.uleb128 0x1
 7245 01f7 01       		.uleb128 0x1
 7246 01f8 13       		.uleb128 0x13
 7247 01f9 00       		.byte	0
 7248 01fa 00       		.byte	0
 7249 01fb 27       		.uleb128 0x27
 7250 01fc 2E       		.uleb128 0x2e
 7251 01fd 01       		.byte	0x1
 7252 01fe 3F       		.uleb128 0x3f
 7253 01ff 19       		.uleb128 0x19
 7254 0200 03       		.uleb128 0x3
 7255 0201 0E       		.uleb128 0xe
 7256 0202 3A       		.uleb128 0x3a
 7257 0203 0B       		.uleb128 0xb
 7258 0204 3B       		.uleb128 0x3b
 7259 0205 05       		.uleb128 0x5
 7260 0206 27       		.uleb128 0x27
 7261 0207 19       		.uleb128 0x19
 7262 0208 11       		.uleb128 0x11
ARM GAS  C:\Users\TERENC~1\AppData\Local\Temp\cc1rRXTX.s 			page 148


 7263 0209 01       		.uleb128 0x1
 7264 020a 12       		.uleb128 0x12
 7265 020b 06       		.uleb128 0x6
 7266 020c 40       		.uleb128 0x40
 7267 020d 18       		.uleb128 0x18
 7268 020e 9742     		.uleb128 0x2117
 7269 0210 19       		.uleb128 0x19
 7270 0211 01       		.uleb128 0x1
 7271 0212 13       		.uleb128 0x13
 7272 0213 00       		.byte	0
 7273 0214 00       		.byte	0
 7274 0215 28       		.uleb128 0x28
 7275 0216 34       		.uleb128 0x34
 7276 0217 00       		.byte	0
 7277 0218 03       		.uleb128 0x3
 7278 0219 0E       		.uleb128 0xe
 7279 021a 3A       		.uleb128 0x3a
 7280 021b 0B       		.uleb128 0xb
 7281 021c 3B       		.uleb128 0x3b
 7282 021d 0B       		.uleb128 0xb
 7283 021e 49       		.uleb128 0x49
 7284 021f 13       		.uleb128 0x13
 7285 0220 02       		.uleb128 0x2
 7286 0221 18       		.uleb128 0x18
 7287 0222 00       		.byte	0
 7288 0223 00       		.byte	0
 7289 0224 29       		.uleb128 0x29
 7290 0225 34       		.uleb128 0x34
 7291 0226 00       		.byte	0
 7292 0227 03       		.uleb128 0x3
 7293 0228 0E       		.uleb128 0xe
 7294 0229 3A       		.uleb128 0x3a
 7295 022a 0B       		.uleb128 0xb
 7296 022b 3B       		.uleb128 0x3b
 7297 022c 0B       		.uleb128 0xb
 7298 022d 49       		.uleb128 0x49
 7299 022e 13       		.uleb128 0x13
 7300 022f 3F       		.uleb128 0x3f
 7301 0230 19       		.uleb128 0x19
 7302 0231 3C       		.uleb128 0x3c
 7303 0232 19       		.uleb128 0x19
 7304 0233 00       		.byte	0
 7305 0234 00       		.byte	0
 7306 0235 2A       		.uleb128 0x2a
 7307 0236 21       		.uleb128 0x21
 7308 0237 00       		.byte	0
 7309 0238 00       		.byte	0
 7310 0239 00       		.byte	0
 7311 023a 2B       		.uleb128 0x2b
 7312 023b 2E       		.uleb128 0x2e
 7313 023c 00       		.byte	0
 7314 023d 3F       		.uleb128 0x3f
 7315 023e 19       		.uleb128 0x19
 7316 023f 3C       		.uleb128 0x3c
 7317 0240 19       		.uleb128 0x19
 7318 0241 6E       		.uleb128 0x6e
 7319 0242 0E       		.uleb128 0xe
ARM GAS  C:\Users\TERENC~1\AppData\Local\Temp\cc1rRXTX.s 			page 149


 7320 0243 03       		.uleb128 0x3
 7321 0244 0E       		.uleb128 0xe
 7322 0245 3A       		.uleb128 0x3a
 7323 0246 0B       		.uleb128 0xb
 7324 0247 3B       		.uleb128 0x3b
 7325 0248 05       		.uleb128 0x5
 7326 0249 00       		.byte	0
 7327 024a 00       		.byte	0
 7328 024b 2C       		.uleb128 0x2c
 7329 024c 2E       		.uleb128 0x2e
 7330 024d 00       		.byte	0
 7331 024e 3F       		.uleb128 0x3f
 7332 024f 19       		.uleb128 0x19
 7333 0250 3C       		.uleb128 0x3c
 7334 0251 19       		.uleb128 0x19
 7335 0252 6E       		.uleb128 0x6e
 7336 0253 0E       		.uleb128 0xe
 7337 0254 03       		.uleb128 0x3
 7338 0255 0E       		.uleb128 0xe
 7339 0256 3A       		.uleb128 0x3a
 7340 0257 0B       		.uleb128 0xb
 7341 0258 3B       		.uleb128 0x3b
 7342 0259 0B       		.uleb128 0xb
 7343 025a 00       		.byte	0
 7344 025b 00       		.byte	0
 7345 025c 2D       		.uleb128 0x2d
 7346 025d 2E       		.uleb128 0x2e
 7347 025e 00       		.byte	0
 7348 025f 3F       		.uleb128 0x3f
 7349 0260 19       		.uleb128 0x19
 7350 0261 3C       		.uleb128 0x3c
 7351 0262 19       		.uleb128 0x19
 7352 0263 6E       		.uleb128 0x6e
 7353 0264 0E       		.uleb128 0xe
 7354 0265 03       		.uleb128 0x3
 7355 0266 0E       		.uleb128 0xe
 7356 0267 00       		.byte	0
 7357 0268 00       		.byte	0
 7358 0269 00       		.byte	0
 7359              		.section	.debug_loc,"",%progbits
 7360              	.Ldebug_loc0:
 7361              	.LLST0:
 7362 0000 00000000 		.4byte	.LVL0
 7363 0004 05000000 		.4byte	.LVL2-1
 7364 0008 0100     		.2byte	0x1
 7365 000a 50       		.byte	0x50
 7366 000b 05000000 		.4byte	.LVL2-1
 7367 000f 34000000 		.4byte	.LFE11
 7368 0013 0400     		.2byte	0x4
 7369 0015 F3       		.byte	0xf3
 7370 0016 01       		.uleb128 0x1
 7371 0017 50       		.byte	0x50
 7372 0018 9F       		.byte	0x9f
 7373 0019 00000000 		.4byte	0
 7374 001d 00000000 		.4byte	0
 7375              	.LLST1:
 7376 0021 00000000 		.4byte	.LVL0
ARM GAS  C:\Users\TERENC~1\AppData\Local\Temp\cc1rRXTX.s 			page 150


 7377 0025 05000000 		.4byte	.LVL2-1
 7378 0029 0100     		.2byte	0x1
 7379 002b 51       		.byte	0x51
 7380 002c 05000000 		.4byte	.LVL2-1
 7381 0030 34000000 		.4byte	.LFE11
 7382 0034 0400     		.2byte	0x4
 7383 0036 F3       		.byte	0xf3
 7384 0037 01       		.uleb128 0x1
 7385 0038 51       		.byte	0x51
 7386 0039 9F       		.byte	0x9f
 7387 003a 00000000 		.4byte	0
 7388 003e 00000000 		.4byte	0
 7389              	.LLST2:
 7390 0042 00000000 		.4byte	.LVL7
 7391 0046 04000000 		.4byte	.LVL8
 7392 004a 0100     		.2byte	0x1
 7393 004c 50       		.byte	0x50
 7394 004d 04000000 		.4byte	.LVL8
 7395 0051 0B000000 		.4byte	.LVL9-1
 7396 0055 0300     		.2byte	0x3
 7397 0057 70       		.byte	0x70
 7398 0058 7E       		.sleb128 -2
 7399 0059 9F       		.byte	0x9f
 7400 005a 0B000000 		.4byte	.LVL9-1
 7401 005e 30000000 		.4byte	.LVL14
 7402 0062 0600     		.2byte	0x6
 7403 0064 F3       		.byte	0xf3
 7404 0065 01       		.uleb128 0x1
 7405 0066 50       		.byte	0x50
 7406 0067 32       		.byte	0x32
 7407 0068 1C       		.byte	0x1c
 7408 0069 9F       		.byte	0x9f
 7409 006a 30000000 		.4byte	.LVL14
 7410 006e 32000000 		.4byte	.LVL15
 7411 0072 0300     		.2byte	0x3
 7412 0074 70       		.byte	0x70
 7413 0075 7E       		.sleb128 -2
 7414 0076 9F       		.byte	0x9f
 7415 0077 32000000 		.4byte	.LVL15
 7416 007b 74000000 		.4byte	.LFE4
 7417 007f 0600     		.2byte	0x6
 7418 0081 F3       		.byte	0xf3
 7419 0082 01       		.uleb128 0x1
 7420 0083 50       		.byte	0x50
 7421 0084 32       		.byte	0x32
 7422 0085 1C       		.byte	0x1c
 7423 0086 9F       		.byte	0x9f
 7424 0087 00000000 		.4byte	0
 7425 008b 00000000 		.4byte	0
 7426              	.LLST3:
 7427 008f 00000000 		.4byte	.LVL7
 7428 0093 0B000000 		.4byte	.LVL9-1
 7429 0097 0100     		.2byte	0x1
 7430 0099 51       		.byte	0x51
 7431 009a 0B000000 		.4byte	.LVL9-1
 7432 009e 1A000000 		.4byte	.LVL11
 7433 00a2 0100     		.2byte	0x1
ARM GAS  C:\Users\TERENC~1\AppData\Local\Temp\cc1rRXTX.s 			page 151


 7434 00a4 54       		.byte	0x54
 7435 00a5 1A000000 		.4byte	.LVL11
 7436 00a9 30000000 		.4byte	.LVL14
 7437 00ad 0400     		.2byte	0x4
 7438 00af F3       		.byte	0xf3
 7439 00b0 01       		.uleb128 0x1
 7440 00b1 51       		.byte	0x51
 7441 00b2 9F       		.byte	0x9f
 7442 00b3 30000000 		.4byte	.LVL14
 7443 00b7 35000000 		.4byte	.LVL16-1
 7444 00bb 0100     		.2byte	0x1
 7445 00bd 51       		.byte	0x51
 7446 00be 35000000 		.4byte	.LVL16-1
 7447 00c2 66000000 		.4byte	.LVL27
 7448 00c6 0100     		.2byte	0x1
 7449 00c8 54       		.byte	0x54
 7450 00c9 66000000 		.4byte	.LVL27
 7451 00cd 74000000 		.4byte	.LFE4
 7452 00d1 0400     		.2byte	0x4
 7453 00d3 F3       		.byte	0xf3
 7454 00d4 01       		.uleb128 0x1
 7455 00d5 51       		.byte	0x51
 7456 00d6 9F       		.byte	0x9f
 7457 00d7 00000000 		.4byte	0
 7458 00db 00000000 		.4byte	0
 7459              	.LLST4:
 7460 00df 38000000 		.4byte	.LVL17
 7461 00e3 3A000000 		.4byte	.LVL18
 7462 00e7 0100     		.2byte	0x1
 7463 00e9 50       		.byte	0x50
 7464 00ea 3A000000 		.4byte	.LVL18
 7465 00ee 48000000 		.4byte	.LVL23
 7466 00f2 0100     		.2byte	0x1
 7467 00f4 56       		.byte	0x56
 7468 00f5 00000000 		.4byte	0
 7469 00f9 00000000 		.4byte	0
 7470              	.LLST5:
 7471 00fd 40000000 		.4byte	.LVL20
 7472 0101 42000000 		.4byte	.LVL21
 7473 0105 0100     		.2byte	0x1
 7474 0107 50       		.byte	0x50
 7475 0108 42000000 		.4byte	.LVL21
 7476 010c 52000000 		.4byte	.LVL24
 7477 0110 0100     		.2byte	0x1
 7478 0112 55       		.byte	0x55
 7479 0113 00000000 		.4byte	0
 7480 0117 00000000 		.4byte	0
 7481              	.LLST6:
 7482 011b 46000000 		.4byte	.LVL22
 7483 011f 5A000000 		.4byte	.LVL25
 7484 0123 0100     		.2byte	0x1
 7485 0125 50       		.byte	0x50
 7486 0126 00000000 		.4byte	0
 7487 012a 00000000 		.4byte	0
 7488              	.LLST7:
 7489 012e 04000000 		.4byte	.LVL8
 7490 0132 30000000 		.4byte	.LVL14
ARM GAS  C:\Users\TERENC~1\AppData\Local\Temp\cc1rRXTX.s 			page 152


 7491 0136 0200     		.2byte	0x2
 7492 0138 32       		.byte	0x32
 7493 0139 9F       		.byte	0x9f
 7494 013a 30000000 		.4byte	.LVL14
 7495 013e 38000000 		.4byte	.LVL17
 7496 0142 0200     		.2byte	0x2
 7497 0144 33       		.byte	0x33
 7498 0145 9F       		.byte	0x9f
 7499 0146 38000000 		.4byte	.LVL17
 7500 014a 62000000 		.4byte	.LVL26
 7501 014e 0200     		.2byte	0x2
 7502 0150 34       		.byte	0x34
 7503 0151 9F       		.byte	0x9f
 7504 0152 62000000 		.4byte	.LVL26
 7505 0156 66000000 		.4byte	.LVL27
 7506 015a 0200     		.2byte	0x2
 7507 015c 32       		.byte	0x32
 7508 015d 9F       		.byte	0x9f
 7509 015e 00000000 		.4byte	0
 7510 0162 00000000 		.4byte	0
 7511              	.LLST8:
 7512 0166 00000000 		.4byte	.LVL28
 7513 016a 04000000 		.4byte	.LVL29
 7514 016e 0100     		.2byte	0x1
 7515 0170 50       		.byte	0x50
 7516 0171 04000000 		.4byte	.LVL29
 7517 0175 0B000000 		.4byte	.LVL30-1
 7518 0179 0300     		.2byte	0x3
 7519 017b 70       		.byte	0x70
 7520 017c 7E       		.sleb128 -2
 7521 017d 9F       		.byte	0x9f
 7522 017e 0B000000 		.4byte	.LVL30-1
 7523 0182 30000000 		.4byte	.LVL35
 7524 0186 0600     		.2byte	0x6
 7525 0188 F3       		.byte	0xf3
 7526 0189 01       		.uleb128 0x1
 7527 018a 50       		.byte	0x50
 7528 018b 32       		.byte	0x32
 7529 018c 1C       		.byte	0x1c
 7530 018d 9F       		.byte	0x9f
 7531 018e 30000000 		.4byte	.LVL35
 7532 0192 32000000 		.4byte	.LVL36
 7533 0196 0300     		.2byte	0x3
 7534 0198 70       		.byte	0x70
 7535 0199 7E       		.sleb128 -2
 7536 019a 9F       		.byte	0x9f
 7537 019b 32000000 		.4byte	.LVL36
 7538 019f C4000000 		.4byte	.LFE3
 7539 01a3 0600     		.2byte	0x6
 7540 01a5 F3       		.byte	0xf3
 7541 01a6 01       		.uleb128 0x1
 7542 01a7 50       		.byte	0x50
 7543 01a8 32       		.byte	0x32
 7544 01a9 1C       		.byte	0x1c
 7545 01aa 9F       		.byte	0x9f
 7546 01ab 00000000 		.4byte	0
 7547 01af 00000000 		.4byte	0
ARM GAS  C:\Users\TERENC~1\AppData\Local\Temp\cc1rRXTX.s 			page 153


 7548              	.LLST9:
 7549 01b3 00000000 		.4byte	.LVL28
 7550 01b7 0B000000 		.4byte	.LVL30-1
 7551 01bb 0100     		.2byte	0x1
 7552 01bd 51       		.byte	0x51
 7553 01be 0B000000 		.4byte	.LVL30-1
 7554 01c2 1A000000 		.4byte	.LVL32
 7555 01c6 0100     		.2byte	0x1
 7556 01c8 54       		.byte	0x54
 7557 01c9 1A000000 		.4byte	.LVL32
 7558 01cd 30000000 		.4byte	.LVL35
 7559 01d1 0400     		.2byte	0x4
 7560 01d3 F3       		.byte	0xf3
 7561 01d4 01       		.uleb128 0x1
 7562 01d5 51       		.byte	0x51
 7563 01d6 9F       		.byte	0x9f
 7564 01d7 30000000 		.4byte	.LVL35
 7565 01db 35000000 		.4byte	.LVL37-1
 7566 01df 0100     		.2byte	0x1
 7567 01e1 51       		.byte	0x51
 7568 01e2 35000000 		.4byte	.LVL37-1
 7569 01e6 4C000000 		.4byte	.LVL45
 7570 01ea 0100     		.2byte	0x1
 7571 01ec 54       		.byte	0x54
 7572 01ed 4C000000 		.4byte	.LVL45
 7573 01f1 A8000000 		.4byte	.LVL50
 7574 01f5 0400     		.2byte	0x4
 7575 01f7 F3       		.byte	0xf3
 7576 01f8 01       		.uleb128 0x1
 7577 01f9 51       		.byte	0x51
 7578 01fa 9F       		.byte	0x9f
 7579 01fb A8000000 		.4byte	.LVL50
 7580 01ff AE000000 		.4byte	.LVL51
 7581 0203 0100     		.2byte	0x1
 7582 0205 54       		.byte	0x54
 7583 0206 AE000000 		.4byte	.LVL51
 7584 020a C4000000 		.4byte	.LFE3
 7585 020e 0400     		.2byte	0x4
 7586 0210 F3       		.byte	0xf3
 7587 0211 01       		.uleb128 0x1
 7588 0212 51       		.byte	0x51
 7589 0213 9F       		.byte	0x9f
 7590 0214 00000000 		.4byte	0
 7591 0218 00000000 		.4byte	0
 7592              	.LLST10:
 7593 021c 38000000 		.4byte	.LVL38
 7594 0220 3A000000 		.4byte	.LVL39
 7595 0224 0100     		.2byte	0x1
 7596 0226 50       		.byte	0x50
 7597 0227 3A000000 		.4byte	.LVL39
 7598 022b 48000000 		.4byte	.LVL44
 7599 022f 0100     		.2byte	0x1
 7600 0231 56       		.byte	0x56
 7601 0232 00000000 		.4byte	0
 7602 0236 00000000 		.4byte	0
 7603              	.LLST11:
 7604 023a 40000000 		.4byte	.LVL41
ARM GAS  C:\Users\TERENC~1\AppData\Local\Temp\cc1rRXTX.s 			page 154


 7605 023e 42000000 		.4byte	.LVL42
 7606 0242 0100     		.2byte	0x1
 7607 0244 50       		.byte	0x50
 7608 0245 42000000 		.4byte	.LVL42
 7609 0249 A8000000 		.4byte	.LVL50
 7610 024d 0100     		.2byte	0x1
 7611 024f 55       		.byte	0x55
 7612 0250 AE000000 		.4byte	.LVL51
 7613 0254 B0000000 		.4byte	.LVL52
 7614 0258 0100     		.2byte	0x1
 7615 025a 55       		.byte	0x55
 7616 025b 00000000 		.4byte	0
 7617 025f 00000000 		.4byte	0
 7618              	.LLST12:
 7619 0263 46000000 		.4byte	.LVL43
 7620 0267 7F000000 		.4byte	.LVL46-1
 7621 026b 0100     		.2byte	0x1
 7622 026d 50       		.byte	0x50
 7623 026e 00000000 		.4byte	0
 7624 0272 00000000 		.4byte	0
 7625              	.LLST13:
 7626 0276 04000000 		.4byte	.LVL29
 7627 027a 30000000 		.4byte	.LVL35
 7628 027e 0200     		.2byte	0x2
 7629 0280 32       		.byte	0x32
 7630 0281 9F       		.byte	0x9f
 7631 0282 30000000 		.4byte	.LVL35
 7632 0286 38000000 		.4byte	.LVL38
 7633 028a 0200     		.2byte	0x2
 7634 028c 33       		.byte	0x33
 7635 028d 9F       		.byte	0x9f
 7636 028e 38000000 		.4byte	.LVL38
 7637 0292 A8000000 		.4byte	.LVL50
 7638 0296 0200     		.2byte	0x2
 7639 0298 34       		.byte	0x34
 7640 0299 9F       		.byte	0x9f
 7641 029a A8000000 		.4byte	.LVL50
 7642 029e AE000000 		.4byte	.LVL51
 7643 02a2 0200     		.2byte	0x2
 7644 02a4 32       		.byte	0x32
 7645 02a5 9F       		.byte	0x9f
 7646 02a6 AE000000 		.4byte	.LVL51
 7647 02aa B0000000 		.4byte	.LVL52
 7648 02ae 0200     		.2byte	0x2
 7649 02b0 34       		.byte	0x34
 7650 02b1 9F       		.byte	0x9f
 7651 02b2 00000000 		.4byte	0
 7652 02b6 00000000 		.4byte	0
 7653              	.LLST14:
 7654 02ba 00000000 		.4byte	.LVL53
 7655 02be 04000000 		.4byte	.LVL54
 7656 02c2 0100     		.2byte	0x1
 7657 02c4 50       		.byte	0x50
 7658 02c5 04000000 		.4byte	.LVL54
 7659 02c9 0B000000 		.4byte	.LVL55-1
 7660 02cd 0300     		.2byte	0x3
 7661 02cf 70       		.byte	0x70
ARM GAS  C:\Users\TERENC~1\AppData\Local\Temp\cc1rRXTX.s 			page 155


 7662 02d0 7E       		.sleb128 -2
 7663 02d1 9F       		.byte	0x9f
 7664 02d2 0B000000 		.4byte	.LVL55-1
 7665 02d6 30000000 		.4byte	.LVL60
 7666 02da 0600     		.2byte	0x6
 7667 02dc F3       		.byte	0xf3
 7668 02dd 01       		.uleb128 0x1
 7669 02de 50       		.byte	0x50
 7670 02df 32       		.byte	0x32
 7671 02e0 1C       		.byte	0x1c
 7672 02e1 9F       		.byte	0x9f
 7673 02e2 30000000 		.4byte	.LVL60
 7674 02e6 32000000 		.4byte	.LVL61
 7675 02ea 0300     		.2byte	0x3
 7676 02ec 70       		.byte	0x70
 7677 02ed 7E       		.sleb128 -2
 7678 02ee 9F       		.byte	0x9f
 7679 02ef 32000000 		.4byte	.LVL61
 7680 02f3 8C000000 		.4byte	.LFE5
 7681 02f7 0600     		.2byte	0x6
 7682 02f9 F3       		.byte	0xf3
 7683 02fa 01       		.uleb128 0x1
 7684 02fb 50       		.byte	0x50
 7685 02fc 32       		.byte	0x32
 7686 02fd 1C       		.byte	0x1c
 7687 02fe 9F       		.byte	0x9f
 7688 02ff 00000000 		.4byte	0
 7689 0303 00000000 		.4byte	0
 7690              	.LLST15:
 7691 0307 00000000 		.4byte	.LVL53
 7692 030b 0B000000 		.4byte	.LVL55-1
 7693 030f 0100     		.2byte	0x1
 7694 0311 51       		.byte	0x51
 7695 0312 0B000000 		.4byte	.LVL55-1
 7696 0316 1A000000 		.4byte	.LVL57
 7697 031a 0100     		.2byte	0x1
 7698 031c 54       		.byte	0x54
 7699 031d 1A000000 		.4byte	.LVL57
 7700 0321 30000000 		.4byte	.LVL60
 7701 0325 0400     		.2byte	0x4
 7702 0327 F3       		.byte	0xf3
 7703 0328 01       		.uleb128 0x1
 7704 0329 51       		.byte	0x51
 7705 032a 9F       		.byte	0x9f
 7706 032b 30000000 		.4byte	.LVL60
 7707 032f 35000000 		.4byte	.LVL62-1
 7708 0333 0100     		.2byte	0x1
 7709 0335 51       		.byte	0x51
 7710 0336 35000000 		.4byte	.LVL62-1
 7711 033a 40000000 		.4byte	.LVL66
 7712 033e 0100     		.2byte	0x1
 7713 0340 54       		.byte	0x54
 7714 0341 40000000 		.4byte	.LVL66
 7715 0345 72000000 		.4byte	.LVL73
 7716 0349 0400     		.2byte	0x4
 7717 034b F3       		.byte	0xf3
 7718 034c 01       		.uleb128 0x1
ARM GAS  C:\Users\TERENC~1\AppData\Local\Temp\cc1rRXTX.s 			page 156


 7719 034d 51       		.byte	0x51
 7720 034e 9F       		.byte	0x9f
 7721 034f 72000000 		.4byte	.LVL73
 7722 0353 78000000 		.4byte	.LVL74
 7723 0357 0100     		.2byte	0x1
 7724 0359 54       		.byte	0x54
 7725 035a 78000000 		.4byte	.LVL74
 7726 035e 8C000000 		.4byte	.LFE5
 7727 0362 0400     		.2byte	0x4
 7728 0364 F3       		.byte	0xf3
 7729 0365 01       		.uleb128 0x1
 7730 0366 51       		.byte	0x51
 7731 0367 9F       		.byte	0x9f
 7732 0368 00000000 		.4byte	0
 7733 036c 00000000 		.4byte	0
 7734              	.LLST16:
 7735 0370 38000000 		.4byte	.LVL63
 7736 0374 3A000000 		.4byte	.LVL64
 7737 0378 0100     		.2byte	0x1
 7738 037a 50       		.byte	0x50
 7739 037b 3A000000 		.4byte	.LVL64
 7740 037f 52000000 		.4byte	.LVL69
 7741 0383 0100     		.2byte	0x1
 7742 0385 55       		.byte	0x55
 7743 0386 78000000 		.4byte	.LVL74
 7744 038a 7A000000 		.4byte	.LVL75
 7745 038e 0100     		.2byte	0x1
 7746 0390 55       		.byte	0x55
 7747 0391 00000000 		.4byte	0
 7748 0395 00000000 		.4byte	0
 7749              	.LLST17:
 7750 0399 40000000 		.4byte	.LVL66
 7751 039d 43000000 		.4byte	.LVL67-1
 7752 03a1 0100     		.2byte	0x1
 7753 03a3 50       		.byte	0x50
 7754 03a4 43000000 		.4byte	.LVL67-1
 7755 03a8 60000000 		.4byte	.LVL70
 7756 03ac 0100     		.2byte	0x1
 7757 03ae 54       		.byte	0x54
 7758 03af 78000000 		.4byte	.LVL74
 7759 03b3 7A000000 		.4byte	.LVL75
 7760 03b7 0100     		.2byte	0x1
 7761 03b9 54       		.byte	0x54
 7762 03ba 00000000 		.4byte	0
 7763 03be 00000000 		.4byte	0
 7764              	.LLST18:
 7765 03c2 04000000 		.4byte	.LVL54
 7766 03c6 30000000 		.4byte	.LVL60
 7767 03ca 0200     		.2byte	0x2
 7768 03cc 32       		.byte	0x32
 7769 03cd 9F       		.byte	0x9f
 7770 03ce 30000000 		.4byte	.LVL60
 7771 03d2 72000000 		.4byte	.LVL73
 7772 03d6 0200     		.2byte	0x2
 7773 03d8 33       		.byte	0x33
 7774 03d9 9F       		.byte	0x9f
 7775 03da 72000000 		.4byte	.LVL73
ARM GAS  C:\Users\TERENC~1\AppData\Local\Temp\cc1rRXTX.s 			page 157


 7776 03de 78000000 		.4byte	.LVL74
 7777 03e2 0200     		.2byte	0x2
 7778 03e4 32       		.byte	0x32
 7779 03e5 9F       		.byte	0x9f
 7780 03e6 78000000 		.4byte	.LVL74
 7781 03ea 7A000000 		.4byte	.LVL75
 7782 03ee 0200     		.2byte	0x2
 7783 03f0 33       		.byte	0x33
 7784 03f1 9F       		.byte	0x9f
 7785 03f2 00000000 		.4byte	0
 7786 03f6 00000000 		.4byte	0
 7787              	.LLST19:
 7788 03fa 00000000 		.4byte	.LVL76
 7789 03fe 05000000 		.4byte	.LVL77-1
 7790 0402 0100     		.2byte	0x1
 7791 0404 50       		.byte	0x50
 7792 0405 05000000 		.4byte	.LVL77-1
 7793 0409 38000000 		.4byte	.LFE12
 7794 040d 0400     		.2byte	0x4
 7795 040f F3       		.byte	0xf3
 7796 0410 01       		.uleb128 0x1
 7797 0411 50       		.byte	0x50
 7798 0412 9F       		.byte	0x9f
 7799 0413 00000000 		.4byte	0
 7800 0417 00000000 		.4byte	0
 7801              	.LLST20:
 7802 041b 00000000 		.4byte	.LVL76
 7803 041f 05000000 		.4byte	.LVL77-1
 7804 0423 0100     		.2byte	0x1
 7805 0425 51       		.byte	0x51
 7806 0426 05000000 		.4byte	.LVL77-1
 7807 042a 38000000 		.4byte	.LFE12
 7808 042e 0400     		.2byte	0x4
 7809 0430 F3       		.byte	0xf3
 7810 0431 01       		.uleb128 0x1
 7811 0432 51       		.byte	0x51
 7812 0433 9F       		.byte	0x9f
 7813 0434 00000000 		.4byte	0
 7814 0438 00000000 		.4byte	0
 7815              	.LLST21:
 7816 043c 00000000 		.4byte	.LVL81
 7817 0440 05000000 		.4byte	.LVL82-1
 7818 0444 0100     		.2byte	0x1
 7819 0446 50       		.byte	0x50
 7820 0447 05000000 		.4byte	.LVL82-1
 7821 044b 3C000000 		.4byte	.LFE14
 7822 044f 0400     		.2byte	0x4
 7823 0451 F3       		.byte	0xf3
 7824 0452 01       		.uleb128 0x1
 7825 0453 50       		.byte	0x50
 7826 0454 9F       		.byte	0x9f
 7827 0455 00000000 		.4byte	0
 7828 0459 00000000 		.4byte	0
 7829              	.LLST22:
 7830 045d 00000000 		.4byte	.LVL81
 7831 0461 05000000 		.4byte	.LVL82-1
 7832 0465 0100     		.2byte	0x1
ARM GAS  C:\Users\TERENC~1\AppData\Local\Temp\cc1rRXTX.s 			page 158


 7833 0467 51       		.byte	0x51
 7834 0468 05000000 		.4byte	.LVL82-1
 7835 046c 3C000000 		.4byte	.LFE14
 7836 0470 0400     		.2byte	0x4
 7837 0472 F3       		.byte	0xf3
 7838 0473 01       		.uleb128 0x1
 7839 0474 51       		.byte	0x51
 7840 0475 9F       		.byte	0x9f
 7841 0476 00000000 		.4byte	0
 7842 047a 00000000 		.4byte	0
 7843              	.LLST23:
 7844 047e 00000000 		.4byte	.LVL86
 7845 0482 05000000 		.4byte	.LVL87-1
 7846 0486 0100     		.2byte	0x1
 7847 0488 50       		.byte	0x50
 7848 0489 05000000 		.4byte	.LVL87-1
 7849 048d 8C010000 		.4byte	.LFE17
 7850 0491 0400     		.2byte	0x4
 7851 0493 F3       		.byte	0xf3
 7852 0494 01       		.uleb128 0x1
 7853 0495 50       		.byte	0x50
 7854 0496 9F       		.byte	0x9f
 7855 0497 00000000 		.4byte	0
 7856 049b 00000000 		.4byte	0
 7857              	.LLST24:
 7858 049f 00000000 		.4byte	.LVL86
 7859 04a3 05000000 		.4byte	.LVL87-1
 7860 04a7 0100     		.2byte	0x1
 7861 04a9 51       		.byte	0x51
 7862 04aa 05000000 		.4byte	.LVL87-1
 7863 04ae 8C010000 		.4byte	.LFE17
 7864 04b2 0400     		.2byte	0x4
 7865 04b4 F3       		.byte	0xf3
 7866 04b5 01       		.uleb128 0x1
 7867 04b6 51       		.byte	0x51
 7868 04b7 9F       		.byte	0x9f
 7869 04b8 00000000 		.4byte	0
 7870 04bc 00000000 		.4byte	0
 7871              	.LLST25:
 7872 04c0 00000000 		.4byte	.LVL123
 7873 04c4 02000000 		.4byte	.LVL124
 7874 04c8 0100     		.2byte	0x1
 7875 04ca 50       		.byte	0x50
 7876 04cb 02000000 		.4byte	.LVL124
 7877 04cf 09000000 		.4byte	.LVL125-1
 7878 04d3 0300     		.2byte	0x3
 7879 04d5 70       		.byte	0x70
 7880 04d6 7E       		.sleb128 -2
 7881 04d7 9F       		.byte	0x9f
 7882 04d8 09000000 		.4byte	.LVL125-1
 7883 04dc 2E000000 		.4byte	.LVL129
 7884 04e0 0600     		.2byte	0x6
 7885 04e2 F3       		.byte	0xf3
 7886 04e3 01       		.uleb128 0x1
 7887 04e4 50       		.byte	0x50
 7888 04e5 32       		.byte	0x32
 7889 04e6 1C       		.byte	0x1c
ARM GAS  C:\Users\TERENC~1\AppData\Local\Temp\cc1rRXTX.s 			page 159


 7890 04e7 9F       		.byte	0x9f
 7891 04e8 2E000000 		.4byte	.LVL129
 7892 04ec 30000000 		.4byte	.LVL130
 7893 04f0 0300     		.2byte	0x3
 7894 04f2 70       		.byte	0x70
 7895 04f3 7E       		.sleb128 -2
 7896 04f4 9F       		.byte	0x9f
 7897 04f5 30000000 		.4byte	.LVL130
 7898 04f9 AC000000 		.4byte	.LFE6
 7899 04fd 0600     		.2byte	0x6
 7900 04ff F3       		.byte	0xf3
 7901 0500 01       		.uleb128 0x1
 7902 0501 50       		.byte	0x50
 7903 0502 32       		.byte	0x32
 7904 0503 1C       		.byte	0x1c
 7905 0504 9F       		.byte	0x9f
 7906 0505 00000000 		.4byte	0
 7907 0509 00000000 		.4byte	0
 7908              	.LLST26:
 7909 050d 00000000 		.4byte	.LVL123
 7910 0511 09000000 		.4byte	.LVL125-1
 7911 0515 0100     		.2byte	0x1
 7912 0517 51       		.byte	0x51
 7913 0518 09000000 		.4byte	.LVL125-1
 7914 051c 2E000000 		.4byte	.LVL129
 7915 0520 0400     		.2byte	0x4
 7916 0522 F3       		.byte	0xf3
 7917 0523 01       		.uleb128 0x1
 7918 0524 51       		.byte	0x51
 7919 0525 9F       		.byte	0x9f
 7920 0526 2E000000 		.4byte	.LVL129
 7921 052a 33000000 		.4byte	.LVL131-1
 7922 052e 0100     		.2byte	0x1
 7923 0530 51       		.byte	0x51
 7924 0531 33000000 		.4byte	.LVL131-1
 7925 0535 AC000000 		.4byte	.LFE6
 7926 0539 0400     		.2byte	0x4
 7927 053b F3       		.byte	0xf3
 7928 053c 01       		.uleb128 0x1
 7929 053d 51       		.byte	0x51
 7930 053e 9F       		.byte	0x9f
 7931 053f 00000000 		.4byte	0
 7932 0543 00000000 		.4byte	0
 7933              	.LLST27:
 7934 0547 34000000 		.4byte	.LVL131
 7935 054b 36000000 		.4byte	.LVL132
 7936 054f 0100     		.2byte	0x1
 7937 0551 50       		.byte	0x50
 7938 0552 00000000 		.4byte	0
 7939 0556 00000000 		.4byte	0
 7940              	.LLST28:
 7941 055a 02000000 		.4byte	.LVL124
 7942 055e 2E000000 		.4byte	.LVL129
 7943 0562 0200     		.2byte	0x2
 7944 0564 32       		.byte	0x32
 7945 0565 9F       		.byte	0x9f
 7946 0566 2E000000 		.4byte	.LVL129
ARM GAS  C:\Users\TERENC~1\AppData\Local\Temp\cc1rRXTX.s 			page 160


 7947 056a 8C000000 		.4byte	.LVL144
 7948 056e 0200     		.2byte	0x2
 7949 0570 33       		.byte	0x33
 7950 0571 9F       		.byte	0x9f
 7951 0572 8C000000 		.4byte	.LVL144
 7952 0576 92000000 		.4byte	.LVL145
 7953 057a 0200     		.2byte	0x2
 7954 057c 32       		.byte	0x32
 7955 057d 9F       		.byte	0x9f
 7956 057e 92000000 		.4byte	.LVL145
 7957 0582 9A000000 		.4byte	.LVL146
 7958 0586 0200     		.2byte	0x2
 7959 0588 33       		.byte	0x33
 7960 0589 9F       		.byte	0x9f
 7961 058a 00000000 		.4byte	0
 7962 058e 00000000 		.4byte	0
 7963              	.LLST29:
 7964 0592 3C000000 		.4byte	.LVL134
 7965 0596 41000000 		.4byte	.LVL135-1
 7966 059a 0100     		.2byte	0x1
 7967 059c 50       		.byte	0x50
 7968 059d 64000000 		.4byte	.LVL139
 7969 05a1 67000000 		.4byte	.LVL140-1
 7970 05a5 0100     		.2byte	0x1
 7971 05a7 50       		.byte	0x50
 7972 05a8 00000000 		.4byte	0
 7973 05ac 00000000 		.4byte	0
 7974              	.LLST30:
 7975 05b0 00000000 		.4byte	.LVL147
 7976 05b4 05000000 		.4byte	.LVL148-1
 7977 05b8 0100     		.2byte	0x1
 7978 05ba 50       		.byte	0x50
 7979 05bb 05000000 		.4byte	.LVL148-1
 7980 05bf 34000000 		.4byte	.LFE7
 7981 05c3 0400     		.2byte	0x4
 7982 05c5 F3       		.byte	0xf3
 7983 05c6 01       		.uleb128 0x1
 7984 05c7 50       		.byte	0x50
 7985 05c8 9F       		.byte	0x9f
 7986 05c9 00000000 		.4byte	0
 7987 05cd 00000000 		.4byte	0
 7988              	.LLST31:
 7989 05d1 00000000 		.4byte	.LVL147
 7990 05d5 05000000 		.4byte	.LVL148-1
 7991 05d9 0100     		.2byte	0x1
 7992 05db 51       		.byte	0x51
 7993 05dc 05000000 		.4byte	.LVL148-1
 7994 05e0 34000000 		.4byte	.LFE7
 7995 05e4 0400     		.2byte	0x4
 7996 05e6 F3       		.byte	0xf3
 7997 05e7 01       		.uleb128 0x1
 7998 05e8 51       		.byte	0x51
 7999 05e9 9F       		.byte	0x9f
 8000 05ea 00000000 		.4byte	0
 8001 05ee 00000000 		.4byte	0
 8002              	.LLST32:
 8003 05f2 00000000 		.4byte	.LVL153
ARM GAS  C:\Users\TERENC~1\AppData\Local\Temp\cc1rRXTX.s 			page 161


 8004 05f6 04000000 		.4byte	.LVL154
 8005 05fa 0100     		.2byte	0x1
 8006 05fc 50       		.byte	0x50
 8007 05fd 04000000 		.4byte	.LVL154
 8008 0601 0B000000 		.4byte	.LVL155-1
 8009 0605 0300     		.2byte	0x3
 8010 0607 70       		.byte	0x70
 8011 0608 7E       		.sleb128 -2
 8012 0609 9F       		.byte	0x9f
 8013 060a 0B000000 		.4byte	.LVL155-1
 8014 060e 30000000 		.4byte	.LVL160
 8015 0612 0600     		.2byte	0x6
 8016 0614 F3       		.byte	0xf3
 8017 0615 01       		.uleb128 0x1
 8018 0616 50       		.byte	0x50
 8019 0617 32       		.byte	0x32
 8020 0618 1C       		.byte	0x1c
 8021 0619 9F       		.byte	0x9f
 8022 061a 30000000 		.4byte	.LVL160
 8023 061e 32000000 		.4byte	.LVL161
 8024 0622 0300     		.2byte	0x3
 8025 0624 70       		.byte	0x70
 8026 0625 7E       		.sleb128 -2
 8027 0626 9F       		.byte	0x9f
 8028 0627 32000000 		.4byte	.LVL161
 8029 062b BC000000 		.4byte	.LFE8
 8030 062f 0600     		.2byte	0x6
 8031 0631 F3       		.byte	0xf3
 8032 0632 01       		.uleb128 0x1
 8033 0633 50       		.byte	0x50
 8034 0634 32       		.byte	0x32
 8035 0635 1C       		.byte	0x1c
 8036 0636 9F       		.byte	0x9f
 8037 0637 00000000 		.4byte	0
 8038 063b 00000000 		.4byte	0
 8039              	.LLST33:
 8040 063f 00000000 		.4byte	.LVL153
 8041 0643 0B000000 		.4byte	.LVL155-1
 8042 0647 0100     		.2byte	0x1
 8043 0649 51       		.byte	0x51
 8044 064a 0B000000 		.4byte	.LVL155-1
 8045 064e 1A000000 		.4byte	.LVL157
 8046 0652 0100     		.2byte	0x1
 8047 0654 54       		.byte	0x54
 8048 0655 1A000000 		.4byte	.LVL157
 8049 0659 30000000 		.4byte	.LVL160
 8050 065d 0400     		.2byte	0x4
 8051 065f F3       		.byte	0xf3
 8052 0660 01       		.uleb128 0x1
 8053 0661 51       		.byte	0x51
 8054 0662 9F       		.byte	0x9f
 8055 0663 30000000 		.4byte	.LVL160
 8056 0667 35000000 		.4byte	.LVL162-1
 8057 066b 0100     		.2byte	0x1
 8058 066d 51       		.byte	0x51
 8059 066e 35000000 		.4byte	.LVL162-1
 8060 0672 4C000000 		.4byte	.LVL167
ARM GAS  C:\Users\TERENC~1\AppData\Local\Temp\cc1rRXTX.s 			page 162


 8061 0676 0100     		.2byte	0x1
 8062 0678 54       		.byte	0x54
 8063 0679 4C000000 		.4byte	.LVL167
 8064 067d 9C000000 		.4byte	.LVL179
 8065 0681 0400     		.2byte	0x4
 8066 0683 F3       		.byte	0xf3
 8067 0684 01       		.uleb128 0x1
 8068 0685 51       		.byte	0x51
 8069 0686 9F       		.byte	0x9f
 8070 0687 9C000000 		.4byte	.LVL179
 8071 068b A2000000 		.4byte	.LVL180
 8072 068f 0100     		.2byte	0x1
 8073 0691 54       		.byte	0x54
 8074 0692 A2000000 		.4byte	.LVL180
 8075 0696 BC000000 		.4byte	.LFE8
 8076 069a 0400     		.2byte	0x4
 8077 069c F3       		.byte	0xf3
 8078 069d 01       		.uleb128 0x1
 8079 069e 51       		.byte	0x51
 8080 069f 9F       		.byte	0x9f
 8081 06a0 00000000 		.4byte	0
 8082 06a4 00000000 		.4byte	0
 8083              	.LLST34:
 8084 06a8 04000000 		.4byte	.LVL154
 8085 06ac 30000000 		.4byte	.LVL160
 8086 06b0 0200     		.2byte	0x2
 8087 06b2 32       		.byte	0x32
 8088 06b3 9F       		.byte	0x9f
 8089 06b4 30000000 		.4byte	.LVL160
 8090 06b8 38000000 		.4byte	.LVL163
 8091 06bc 0200     		.2byte	0x2
 8092 06be 33       		.byte	0x33
 8093 06bf 9F       		.byte	0x9f
 8094 06c0 38000000 		.4byte	.LVL163
 8095 06c4 9C000000 		.4byte	.LVL179
 8096 06c8 0200     		.2byte	0x2
 8097 06ca 34       		.byte	0x34
 8098 06cb 9F       		.byte	0x9f
 8099 06cc 9C000000 		.4byte	.LVL179
 8100 06d0 A2000000 		.4byte	.LVL180
 8101 06d4 0200     		.2byte	0x2
 8102 06d6 32       		.byte	0x32
 8103 06d7 9F       		.byte	0x9f
 8104 06d8 A2000000 		.4byte	.LVL180
 8105 06dc AA000000 		.4byte	.LVL181
 8106 06e0 0200     		.2byte	0x2
 8107 06e2 34       		.byte	0x34
 8108 06e3 9F       		.byte	0x9f
 8109 06e4 00000000 		.4byte	0
 8110 06e8 00000000 		.4byte	0
 8111              	.LLST35:
 8112 06ec 38000000 		.4byte	.LVL163
 8113 06f0 86000000 		.4byte	.LVL176
 8114 06f4 0100     		.2byte	0x1
 8115 06f6 55       		.byte	0x55
 8116 06f7 A2000000 		.4byte	.LVL180
 8117 06fb AA000000 		.4byte	.LVL181
ARM GAS  C:\Users\TERENC~1\AppData\Local\Temp\cc1rRXTX.s 			page 163


 8118 06ff 0100     		.2byte	0x1
 8119 0701 55       		.byte	0x55
 8120 0702 00000000 		.4byte	0
 8121 0706 00000000 		.4byte	0
 8122              	.LLST36:
 8123 070a 44000000 		.4byte	.LVL165
 8124 070e 49000000 		.4byte	.LVL166-1
 8125 0712 0100     		.2byte	0x1
 8126 0714 51       		.byte	0x51
 8127 0715 00000000 		.4byte	0
 8128 0719 00000000 		.4byte	0
 8129              	.LLST37:
 8130 071d 4C000000 		.4byte	.LVL167
 8131 0721 51000000 		.4byte	.LVL168-1
 8132 0725 0100     		.2byte	0x1
 8133 0727 50       		.byte	0x50
 8134 0728 51000000 		.4byte	.LVL168-1
 8135 072c 60000000 		.4byte	.LVL170
 8136 0730 0100     		.2byte	0x1
 8137 0732 54       		.byte	0x54
 8138 0733 74000000 		.4byte	.LVL173
 8139 0737 77000000 		.4byte	.LVL174-1
 8140 073b 0100     		.2byte	0x1
 8141 073d 50       		.byte	0x50
 8142 073e 77000000 		.4byte	.LVL174-1
 8143 0742 9C000000 		.4byte	.LVL179
 8144 0746 0100     		.2byte	0x1
 8145 0748 54       		.byte	0x54
 8146 0749 A2000000 		.4byte	.LVL180
 8147 074d AA000000 		.4byte	.LVL181
 8148 0751 0100     		.2byte	0x1
 8149 0753 54       		.byte	0x54
 8150 0754 00000000 		.4byte	0
 8151 0758 00000000 		.4byte	0
 8152              	.LLST38:
 8153 075c 00000000 		.4byte	.LVL182
 8154 0760 02000000 		.4byte	.LVL183
 8155 0764 0100     		.2byte	0x1
 8156 0766 50       		.byte	0x50
 8157 0767 02000000 		.4byte	.LVL183
 8158 076b 09000000 		.4byte	.LVL184-1
 8159 076f 0300     		.2byte	0x3
 8160 0771 70       		.byte	0x70
 8161 0772 7E       		.sleb128 -2
 8162 0773 9F       		.byte	0x9f
 8163 0774 09000000 		.4byte	.LVL184-1
 8164 0778 2E000000 		.4byte	.LVL188
 8165 077c 0600     		.2byte	0x6
 8166 077e F3       		.byte	0xf3
 8167 077f 01       		.uleb128 0x1
 8168 0780 50       		.byte	0x50
 8169 0781 32       		.byte	0x32
 8170 0782 1C       		.byte	0x1c
 8171 0783 9F       		.byte	0x9f
 8172 0784 2E000000 		.4byte	.LVL188
 8173 0788 30000000 		.4byte	.LVL189
 8174 078c 0300     		.2byte	0x3
ARM GAS  C:\Users\TERENC~1\AppData\Local\Temp\cc1rRXTX.s 			page 164


 8175 078e 70       		.byte	0x70
 8176 078f 7E       		.sleb128 -2
 8177 0790 9F       		.byte	0x9f
 8178 0791 30000000 		.4byte	.LVL189
 8179 0795 78000000 		.4byte	.LFE9
 8180 0799 0600     		.2byte	0x6
 8181 079b F3       		.byte	0xf3
 8182 079c 01       		.uleb128 0x1
 8183 079d 50       		.byte	0x50
 8184 079e 32       		.byte	0x32
 8185 079f 1C       		.byte	0x1c
 8186 07a0 9F       		.byte	0x9f
 8187 07a1 00000000 		.4byte	0
 8188 07a5 00000000 		.4byte	0
 8189              	.LLST39:
 8190 07a9 00000000 		.4byte	.LVL182
 8191 07ad 09000000 		.4byte	.LVL184-1
 8192 07b1 0100     		.2byte	0x1
 8193 07b3 51       		.byte	0x51
 8194 07b4 09000000 		.4byte	.LVL184-1
 8195 07b8 2E000000 		.4byte	.LVL188
 8196 07bc 0400     		.2byte	0x4
 8197 07be F3       		.byte	0xf3
 8198 07bf 01       		.uleb128 0x1
 8199 07c0 51       		.byte	0x51
 8200 07c1 9F       		.byte	0x9f
 8201 07c2 2E000000 		.4byte	.LVL188
 8202 07c6 33000000 		.4byte	.LVL190-1
 8203 07ca 0100     		.2byte	0x1
 8204 07cc 51       		.byte	0x51
 8205 07cd 33000000 		.4byte	.LVL190-1
 8206 07d1 78000000 		.4byte	.LFE9
 8207 07d5 0400     		.2byte	0x4
 8208 07d7 F3       		.byte	0xf3
 8209 07d8 01       		.uleb128 0x1
 8210 07d9 51       		.byte	0x51
 8211 07da 9F       		.byte	0x9f
 8212 07db 00000000 		.4byte	0
 8213 07df 00000000 		.4byte	0
 8214              	.LLST40:
 8215 07e3 02000000 		.4byte	.LVL183
 8216 07e7 2E000000 		.4byte	.LVL188
 8217 07eb 0200     		.2byte	0x2
 8218 07ed 32       		.byte	0x32
 8219 07ee 9F       		.byte	0x9f
 8220 07ef 2E000000 		.4byte	.LVL188
 8221 07f3 62000000 		.4byte	.LVL198
 8222 07f7 0200     		.2byte	0x2
 8223 07f9 33       		.byte	0x33
 8224 07fa 9F       		.byte	0x9f
 8225 07fb 62000000 		.4byte	.LVL198
 8226 07ff 68000000 		.4byte	.LVL199
 8227 0803 0200     		.2byte	0x2
 8228 0805 32       		.byte	0x32
 8229 0806 9F       		.byte	0x9f
 8230 0807 68000000 		.4byte	.LVL199
 8231 080b 6A000000 		.4byte	.LVL200
ARM GAS  C:\Users\TERENC~1\AppData\Local\Temp\cc1rRXTX.s 			page 165


 8232 080f 0200     		.2byte	0x2
 8233 0811 33       		.byte	0x33
 8234 0812 9F       		.byte	0x9f
 8235 0813 00000000 		.4byte	0
 8236 0817 00000000 		.4byte	0
 8237              	.LLST41:
 8238 081b 36000000 		.4byte	.LVL191
 8239 081f 50000000 		.4byte	.LVL195
 8240 0823 0100     		.2byte	0x1
 8241 0825 54       		.byte	0x54
 8242 0826 68000000 		.4byte	.LVL199
 8243 082a 6A000000 		.4byte	.LVL200
 8244 082e 0100     		.2byte	0x1
 8245 0830 54       		.byte	0x54
 8246 0831 00000000 		.4byte	0
 8247 0835 00000000 		.4byte	0
 8248              	.LLST42:
 8249 0839 00000000 		.4byte	.LVL201
 8250 083d 05000000 		.4byte	.LVL202-1
 8251 0841 0100     		.2byte	0x1
 8252 0843 50       		.byte	0x50
 8253 0844 05000000 		.4byte	.LVL202-1
 8254 0848 0A000000 		.4byte	.LFE13
 8255 084c 0400     		.2byte	0x4
 8256 084e F3       		.byte	0xf3
 8257 084f 01       		.uleb128 0x1
 8258 0850 50       		.byte	0x50
 8259 0851 9F       		.byte	0x9f
 8260 0852 00000000 		.4byte	0
 8261 0856 00000000 		.4byte	0
 8262              	.LLST43:
 8263 085a 00000000 		.4byte	.LVL201
 8264 085e 05000000 		.4byte	.LVL202-1
 8265 0862 0100     		.2byte	0x1
 8266 0864 51       		.byte	0x51
 8267 0865 05000000 		.4byte	.LVL202-1
 8268 0869 0A000000 		.4byte	.LFE13
 8269 086d 0400     		.2byte	0x4
 8270 086f F3       		.byte	0xf3
 8271 0870 01       		.uleb128 0x1
 8272 0871 51       		.byte	0x51
 8273 0872 9F       		.byte	0x9f
 8274 0873 00000000 		.4byte	0
 8275 0877 00000000 		.4byte	0
 8276              	.LLST44:
 8277 087b 00000000 		.4byte	.LVL203
 8278 087f 05000000 		.4byte	.LVL204-1
 8279 0883 0100     		.2byte	0x1
 8280 0885 50       		.byte	0x50
 8281 0886 05000000 		.4byte	.LVL204-1
 8282 088a 34000000 		.4byte	.LFE19
 8283 088e 0400     		.2byte	0x4
 8284 0890 F3       		.byte	0xf3
 8285 0891 01       		.uleb128 0x1
 8286 0892 50       		.byte	0x50
 8287 0893 9F       		.byte	0x9f
 8288 0894 00000000 		.4byte	0
ARM GAS  C:\Users\TERENC~1\AppData\Local\Temp\cc1rRXTX.s 			page 166


 8289 0898 00000000 		.4byte	0
 8290              	.LLST45:
 8291 089c 00000000 		.4byte	.LVL203
 8292 08a0 05000000 		.4byte	.LVL204-1
 8293 08a4 0100     		.2byte	0x1
 8294 08a6 51       		.byte	0x51
 8295 08a7 05000000 		.4byte	.LVL204-1
 8296 08ab 34000000 		.4byte	.LFE19
 8297 08af 0400     		.2byte	0x4
 8298 08b1 F3       		.byte	0xf3
 8299 08b2 01       		.uleb128 0x1
 8300 08b3 51       		.byte	0x51
 8301 08b4 9F       		.byte	0x9f
 8302 08b5 00000000 		.4byte	0
 8303 08b9 00000000 		.4byte	0
 8304              	.LLST46:
 8305 08bd 00000000 		.4byte	.LVL209
 8306 08c1 36000000 		.4byte	.LVL214
 8307 08c5 0100     		.2byte	0x1
 8308 08c7 50       		.byte	0x50
 8309 08c8 36000000 		.4byte	.LVL214
 8310 08cc 3C000000 		.4byte	.LVL217
 8311 08d0 0100     		.2byte	0x1
 8312 08d2 50       		.byte	0x50
 8313 08d3 00000000 		.4byte	0
 8314 08d7 00000000 		.4byte	0
 8315              	.LLST47:
 8316 08db 00000000 		.4byte	.LVL209
 8317 08df 38000000 		.4byte	.LVL215
 8318 08e3 0100     		.2byte	0x1
 8319 08e5 51       		.byte	0x51
 8320 08e6 38000000 		.4byte	.LVL215
 8321 08ea 44000000 		.4byte	.LFE2
 8322 08ee 0100     		.2byte	0x1
 8323 08f0 51       		.byte	0x51
 8324 08f1 00000000 		.4byte	0
 8325 08f5 00000000 		.4byte	0
 8326              	.LLST48:
 8327 08f9 04000000 		.4byte	.LVL210
 8328 08fd 3C000000 		.4byte	.LVL218
 8329 0901 0100     		.2byte	0x1
 8330 0903 55       		.byte	0x55
 8331 0904 00000000 		.4byte	0
 8332 0908 00000000 		.4byte	0
 8333              	.LLST49:
 8334 090c 1E000000 		.4byte	.LVL211
 8335 0910 2C000000 		.4byte	.LVL212
 8336 0914 0100     		.2byte	0x1
 8337 0916 53       		.byte	0x53
 8338 0917 2C000000 		.4byte	.LVL212
 8339 091b 38000000 		.4byte	.LVL215
 8340 091f 0200     		.2byte	0x2
 8341 0921 71       		.byte	0x71
 8342 0922 00       		.sleb128 0
 8343 0923 38000000 		.4byte	.LVL215
 8344 0927 3A000000 		.4byte	.LVL216
 8345 092b 0200     		.2byte	0x2
ARM GAS  C:\Users\TERENC~1\AppData\Local\Temp\cc1rRXTX.s 			page 167


 8346 092d 71       		.byte	0x71
 8347 092e 7F       		.sleb128 -1
 8348 092f 3A000000 		.4byte	.LVL216
 8349 0933 44000000 		.4byte	.LFE2
 8350 0937 0200     		.2byte	0x2
 8351 0939 71       		.byte	0x71
 8352 093a 00       		.sleb128 0
 8353 093b 00000000 		.4byte	0
 8354 093f 00000000 		.4byte	0
 8355              	.LLST50:
 8356 0943 00000000 		.4byte	.LVL219
 8357 0947 06000000 		.4byte	.LVL221
 8358 094b 0100     		.2byte	0x1
 8359 094d 50       		.byte	0x50
 8360 094e 06000000 		.4byte	.LVL221
 8361 0952 3A000000 		.4byte	.LVL229
 8362 0956 0100     		.2byte	0x1
 8363 0958 54       		.byte	0x54
 8364 0959 3A000000 		.4byte	.LVL229
 8365 095d 86000000 		.4byte	.LVL240
 8366 0961 0600     		.2byte	0x6
 8367 0963 F3       		.byte	0xf3
 8368 0964 01       		.uleb128 0x1
 8369 0965 50       		.byte	0x50
 8370 0966 32       		.byte	0x32
 8371 0967 1C       		.byte	0x1c
 8372 0968 9F       		.byte	0x9f
 8373 0969 86000000 		.4byte	.LVL240
 8374 096d 8C000000 		.4byte	.LVL241
 8375 0971 0100     		.2byte	0x1
 8376 0973 54       		.byte	0x54
 8377 0974 8C000000 		.4byte	.LVL241
 8378 0978 A0000000 		.4byte	.LFE10
 8379 097c 0600     		.2byte	0x6
 8380 097e F3       		.byte	0xf3
 8381 097f 01       		.uleb128 0x1
 8382 0980 50       		.byte	0x50
 8383 0981 32       		.byte	0x32
 8384 0982 1C       		.byte	0x1c
 8385 0983 9F       		.byte	0x9f
 8386 0984 00000000 		.4byte	0
 8387 0988 00000000 		.4byte	0
 8388              	.LLST51:
 8389 098c 00000000 		.4byte	.LVL219
 8390 0990 0D000000 		.4byte	.LVL222-1
 8391 0994 0100     		.2byte	0x1
 8392 0996 51       		.byte	0x51
 8393 0997 0D000000 		.4byte	.LVL222-1
 8394 099b 1C000000 		.4byte	.LVL224
 8395 099f 0100     		.2byte	0x1
 8396 09a1 55       		.byte	0x55
 8397 09a2 1C000000 		.4byte	.LVL224
 8398 09a6 32000000 		.4byte	.LVL227
 8399 09aa 0400     		.2byte	0x4
 8400 09ac F3       		.byte	0xf3
 8401 09ad 01       		.uleb128 0x1
 8402 09ae 51       		.byte	0x51
ARM GAS  C:\Users\TERENC~1\AppData\Local\Temp\cc1rRXTX.s 			page 168


 8403 09af 9F       		.byte	0x9f
 8404 09b0 32000000 		.4byte	.LVL227
 8405 09b4 37000000 		.4byte	.LVL228-1
 8406 09b8 0100     		.2byte	0x1
 8407 09ba 51       		.byte	0x51
 8408 09bb 37000000 		.4byte	.LVL228-1
 8409 09bf 8E000000 		.4byte	.LVL242
 8410 09c3 0100     		.2byte	0x1
 8411 09c5 55       		.byte	0x55
 8412 09c6 8E000000 		.4byte	.LVL242
 8413 09ca A0000000 		.4byte	.LFE10
 8414 09ce 0400     		.2byte	0x4
 8415 09d0 F3       		.byte	0xf3
 8416 09d1 01       		.uleb128 0x1
 8417 09d2 51       		.byte	0x51
 8418 09d3 9F       		.byte	0x9f
 8419 09d4 00000000 		.4byte	0
 8420 09d8 00000000 		.4byte	0
 8421              	.LLST52:
 8422 09dc 3A000000 		.4byte	.LVL229
 8423 09e0 74000000 		.4byte	.LVL237
 8424 09e4 0100     		.2byte	0x1
 8425 09e6 54       		.byte	0x54
 8426 09e7 8C000000 		.4byte	.LVL241
 8427 09eb 8E000000 		.4byte	.LVL242
 8428 09ef 0100     		.2byte	0x1
 8429 09f1 54       		.byte	0x54
 8430 09f2 00000000 		.4byte	0
 8431 09f6 00000000 		.4byte	0
 8432              	.LLST53:
 8433 09fa 46000000 		.4byte	.LVL231
 8434 09fe 86000000 		.4byte	.LVL240
 8435 0a02 0100     		.2byte	0x1
 8436 0a04 56       		.byte	0x56
 8437 0a05 8C000000 		.4byte	.LVL241
 8438 0a09 8E000000 		.4byte	.LVL242
 8439 0a0d 0100     		.2byte	0x1
 8440 0a0f 56       		.byte	0x56
 8441 0a10 00000000 		.4byte	0
 8442 0a14 00000000 		.4byte	0
 8443              	.LLST54:
 8444 0a18 00000000 		.4byte	.LVL243
 8445 0a1c 06000000 		.4byte	.LVL245
 8446 0a20 0100     		.2byte	0x1
 8447 0a22 50       		.byte	0x50
 8448 0a23 06000000 		.4byte	.LVL245
 8449 0a27 34000000 		.4byte	.LVL252
 8450 0a2b 0100     		.2byte	0x1
 8451 0a2d 54       		.byte	0x54
 8452 0a2e 34000000 		.4byte	.LVL252
 8453 0a32 38000000 		.4byte	.LVL254
 8454 0a36 0300     		.2byte	0x3
 8455 0a38 70       		.byte	0x70
 8456 0a39 7E       		.sleb128 -2
 8457 0a3a 9F       		.byte	0x9f
 8458 0a3b 38000000 		.4byte	.LVL254
 8459 0a3f D2000000 		.4byte	.LVL278
ARM GAS  C:\Users\TERENC~1\AppData\Local\Temp\cc1rRXTX.s 			page 169


 8460 0a43 0600     		.2byte	0x6
 8461 0a45 F3       		.byte	0xf3
 8462 0a46 01       		.uleb128 0x1
 8463 0a47 50       		.byte	0x50
 8464 0a48 32       		.byte	0x32
 8465 0a49 1C       		.byte	0x1c
 8466 0a4a 9F       		.byte	0x9f
 8467 0a4b D2000000 		.4byte	.LVL278
 8468 0a4f D8000000 		.4byte	.LVL279
 8469 0a53 0100     		.2byte	0x1
 8470 0a55 54       		.byte	0x54
 8471 0a56 D8000000 		.4byte	.LVL279
 8472 0a5a 00010000 		.4byte	.LFE15
 8473 0a5e 0600     		.2byte	0x6
 8474 0a60 F3       		.byte	0xf3
 8475 0a61 01       		.uleb128 0x1
 8476 0a62 50       		.byte	0x50
 8477 0a63 32       		.byte	0x32
 8478 0a64 1C       		.byte	0x1c
 8479 0a65 9F       		.byte	0x9f
 8480 0a66 00000000 		.4byte	0
 8481 0a6a 00000000 		.4byte	0
 8482              	.LLST55:
 8483 0a6e 00000000 		.4byte	.LVL243
 8484 0a72 0D000000 		.4byte	.LVL246-1
 8485 0a76 0100     		.2byte	0x1
 8486 0a78 51       		.byte	0x51
 8487 0a79 0D000000 		.4byte	.LVL246-1
 8488 0a7d 1C000000 		.4byte	.LVL248
 8489 0a81 0100     		.2byte	0x1
 8490 0a83 55       		.byte	0x55
 8491 0a84 1C000000 		.4byte	.LVL248
 8492 0a88 32000000 		.4byte	.LVL251
 8493 0a8c 0400     		.2byte	0x4
 8494 0a8e F3       		.byte	0xf3
 8495 0a8f 01       		.uleb128 0x1
 8496 0a90 51       		.byte	0x51
 8497 0a91 9F       		.byte	0x9f
 8498 0a92 32000000 		.4byte	.LVL251
 8499 0a96 36000000 		.4byte	.LVL253
 8500 0a9a 0100     		.2byte	0x1
 8501 0a9c 51       		.byte	0x51
 8502 0a9d 36000000 		.4byte	.LVL253
 8503 0aa1 E0000000 		.4byte	.LVL281
 8504 0aa5 0100     		.2byte	0x1
 8505 0aa7 55       		.byte	0x55
 8506 0aa8 E0000000 		.4byte	.LVL281
 8507 0aac 00010000 		.4byte	.LFE15
 8508 0ab0 0400     		.2byte	0x4
 8509 0ab2 F3       		.byte	0xf3
 8510 0ab3 01       		.uleb128 0x1
 8511 0ab4 51       		.byte	0x51
 8512 0ab5 9F       		.byte	0x9f
 8513 0ab6 00000000 		.4byte	0
 8514 0aba 00000000 		.4byte	0
 8515              	.LLST56:
 8516 0abe 04000000 		.4byte	.LVL244
ARM GAS  C:\Users\TERENC~1\AppData\Local\Temp\cc1rRXTX.s 			page 170


 8517 0ac2 8A000000 		.4byte	.LVL262
 8518 0ac6 0200     		.2byte	0x2
 8519 0ac8 33       		.byte	0x33
 8520 0ac9 9F       		.byte	0x9f
 8521 0aca 8A000000 		.4byte	.LVL262
 8522 0ace D2000000 		.4byte	.LVL278
 8523 0ad2 0100     		.2byte	0x1
 8524 0ad4 57       		.byte	0x57
 8525 0ad5 D2000000 		.4byte	.LVL278
 8526 0ad9 DE000000 		.4byte	.LVL280
 8527 0add 0200     		.2byte	0x2
 8528 0adf 33       		.byte	0x33
 8529 0ae0 9F       		.byte	0x9f
 8530 0ae1 DE000000 		.4byte	.LVL280
 8531 0ae5 E0000000 		.4byte	.LVL281
 8532 0ae9 0100     		.2byte	0x1
 8533 0aeb 57       		.byte	0x57
 8534 0aec 00000000 		.4byte	0
 8535 0af0 00000000 		.4byte	0
 8536              	.LLST57:
 8537 0af4 92000000 		.4byte	.LVL264
 8538 0af8 94000000 		.4byte	.LVL265
 8539 0afc 0100     		.2byte	0x1
 8540 0afe 50       		.byte	0x50
 8541 0aff 94000000 		.4byte	.LVL265
 8542 0b03 BE000000 		.4byte	.LVL275
 8543 0b07 0100     		.2byte	0x1
 8544 0b09 54       		.byte	0x54
 8545 0b0a DE000000 		.4byte	.LVL280
 8546 0b0e E0000000 		.4byte	.LVL281
 8547 0b12 0100     		.2byte	0x1
 8548 0b14 54       		.byte	0x54
 8549 0b15 00000000 		.4byte	0
 8550 0b19 00000000 		.4byte	0
 8551              	.LLST58:
 8552 0b1d 9A000000 		.4byte	.LVL267
 8553 0b21 9C000000 		.4byte	.LVL268
 8554 0b25 0100     		.2byte	0x1
 8555 0b27 50       		.byte	0x50
 8556 0b28 9C000000 		.4byte	.LVL268
 8557 0b2c D2000000 		.4byte	.LVL278
 8558 0b30 0100     		.2byte	0x1
 8559 0b32 56       		.byte	0x56
 8560 0b33 DE000000 		.4byte	.LVL280
 8561 0b37 E0000000 		.4byte	.LVL281
 8562 0b3b 0100     		.2byte	0x1
 8563 0b3d 56       		.byte	0x56
 8564 0b3e 00000000 		.4byte	0
 8565 0b42 00000000 		.4byte	0
 8566              	.LLST59:
 8567 0b46 A2000000 		.4byte	.LVL270
 8568 0b4a A8000000 		.4byte	.LVL271
 8569 0b4e 0100     		.2byte	0x1
 8570 0b50 50       		.byte	0x50
 8571 0b51 A8000000 		.4byte	.LVL271
 8572 0b55 AB000000 		.4byte	.LVL272-1
 8573 0b59 0100     		.2byte	0x1
ARM GAS  C:\Users\TERENC~1\AppData\Local\Temp\cc1rRXTX.s 			page 171


 8574 0b5b 53       		.byte	0x53
 8575 0b5c 00000000 		.4byte	0
 8576 0b60 00000000 		.4byte	0
 8577              	.LLST60:
 8578 0b64 00000000 		.4byte	.LVL282
 8579 0b68 06000000 		.4byte	.LVL284
 8580 0b6c 0100     		.2byte	0x1
 8581 0b6e 50       		.byte	0x50
 8582 0b6f 06000000 		.4byte	.LVL284
 8583 0b73 34000000 		.4byte	.LVL291
 8584 0b77 0100     		.2byte	0x1
 8585 0b79 54       		.byte	0x54
 8586 0b7a 34000000 		.4byte	.LVL291
 8587 0b7e 38000000 		.4byte	.LVL293
 8588 0b82 0300     		.2byte	0x3
 8589 0b84 70       		.byte	0x70
 8590 0b85 7E       		.sleb128 -2
 8591 0b86 9F       		.byte	0x9f
 8592 0b87 38000000 		.4byte	.LVL293
 8593 0b8b B4000000 		.4byte	.LVL307
 8594 0b8f 0600     		.2byte	0x6
 8595 0b91 F3       		.byte	0xf3
 8596 0b92 01       		.uleb128 0x1
 8597 0b93 50       		.byte	0x50
 8598 0b94 32       		.byte	0x32
 8599 0b95 1C       		.byte	0x1c
 8600 0b96 9F       		.byte	0x9f
 8601 0b97 B4000000 		.4byte	.LVL307
 8602 0b9b BA000000 		.4byte	.LVL308
 8603 0b9f 0100     		.2byte	0x1
 8604 0ba1 54       		.byte	0x54
 8605 0ba2 BA000000 		.4byte	.LVL308
 8606 0ba6 E0000000 		.4byte	.LFE16
 8607 0baa 0600     		.2byte	0x6
 8608 0bac F3       		.byte	0xf3
 8609 0bad 01       		.uleb128 0x1
 8610 0bae 50       		.byte	0x50
 8611 0baf 32       		.byte	0x32
 8612 0bb0 1C       		.byte	0x1c
 8613 0bb1 9F       		.byte	0x9f
 8614 0bb2 00000000 		.4byte	0
 8615 0bb6 00000000 		.4byte	0
 8616              	.LLST61:
 8617 0bba 00000000 		.4byte	.LVL282
 8618 0bbe 0D000000 		.4byte	.LVL285-1
 8619 0bc2 0100     		.2byte	0x1
 8620 0bc4 51       		.byte	0x51
 8621 0bc5 0D000000 		.4byte	.LVL285-1
 8622 0bc9 1C000000 		.4byte	.LVL287
 8623 0bcd 0100     		.2byte	0x1
 8624 0bcf 55       		.byte	0x55
 8625 0bd0 1C000000 		.4byte	.LVL287
 8626 0bd4 32000000 		.4byte	.LVL290
 8627 0bd8 0400     		.2byte	0x4
 8628 0bda F3       		.byte	0xf3
 8629 0bdb 01       		.uleb128 0x1
 8630 0bdc 51       		.byte	0x51
ARM GAS  C:\Users\TERENC~1\AppData\Local\Temp\cc1rRXTX.s 			page 172


 8631 0bdd 9F       		.byte	0x9f
 8632 0bde 32000000 		.4byte	.LVL290
 8633 0be2 36000000 		.4byte	.LVL292
 8634 0be6 0100     		.2byte	0x1
 8635 0be8 51       		.byte	0x51
 8636 0be9 36000000 		.4byte	.LVL292
 8637 0bed C2000000 		.4byte	.LVL310
 8638 0bf1 0100     		.2byte	0x1
 8639 0bf3 55       		.byte	0x55
 8640 0bf4 C2000000 		.4byte	.LVL310
 8641 0bf8 E0000000 		.4byte	.LFE16
 8642 0bfc 0400     		.2byte	0x4
 8643 0bfe F3       		.byte	0xf3
 8644 0bff 01       		.uleb128 0x1
 8645 0c00 51       		.byte	0x51
 8646 0c01 9F       		.byte	0x9f
 8647 0c02 00000000 		.4byte	0
 8648 0c06 00000000 		.4byte	0
 8649              	.LLST62:
 8650 0c0a 04000000 		.4byte	.LVL283
 8651 0c0e 8A000000 		.4byte	.LVL301
 8652 0c12 0200     		.2byte	0x2
 8653 0c14 33       		.byte	0x33
 8654 0c15 9F       		.byte	0x9f
 8655 0c16 8A000000 		.4byte	.LVL301
 8656 0c1a 8D000000 		.4byte	.LVL302-1
 8657 0c1e 0100     		.2byte	0x1
 8658 0c20 50       		.byte	0x50
 8659 0c21 B4000000 		.4byte	.LVL307
 8660 0c25 C0000000 		.4byte	.LVL309
 8661 0c29 0200     		.2byte	0x2
 8662 0c2b 33       		.byte	0x33
 8663 0c2c 9F       		.byte	0x9f
 8664 0c2d 00000000 		.4byte	0
 8665 0c31 00000000 		.4byte	0
 8666              	.LLST63:
 8667 0c35 00000000 		.4byte	.LVL311
 8668 0c39 04000000 		.4byte	.LVL312
 8669 0c3d 0100     		.2byte	0x1
 8670 0c3f 50       		.byte	0x50
 8671 0c40 04000000 		.4byte	.LVL312
 8672 0c44 0B000000 		.4byte	.LVL313-1
 8673 0c48 0300     		.2byte	0x3
 8674 0c4a 70       		.byte	0x70
 8675 0c4b 7E       		.sleb128 -2
 8676 0c4c 9F       		.byte	0x9f
 8677 0c4d 0B000000 		.4byte	.LVL313-1
 8678 0c51 30000000 		.4byte	.LVL317
 8679 0c55 0600     		.2byte	0x6
 8680 0c57 F3       		.byte	0xf3
 8681 0c58 01       		.uleb128 0x1
 8682 0c59 50       		.byte	0x50
 8683 0c5a 32       		.byte	0x32
 8684 0c5b 1C       		.byte	0x1c
 8685 0c5c 9F       		.byte	0x9f
 8686 0c5d 30000000 		.4byte	.LVL317
 8687 0c61 36000000 		.4byte	.LVL319
ARM GAS  C:\Users\TERENC~1\AppData\Local\Temp\cc1rRXTX.s 			page 173


 8688 0c65 0300     		.2byte	0x3
 8689 0c67 70       		.byte	0x70
 8690 0c68 7E       		.sleb128 -2
 8691 0c69 9F       		.byte	0x9f
 8692 0c6a 36000000 		.4byte	.LVL319
 8693 0c6e A8000000 		.4byte	.LFE18
 8694 0c72 0600     		.2byte	0x6
 8695 0c74 F3       		.byte	0xf3
 8696 0c75 01       		.uleb128 0x1
 8697 0c76 50       		.byte	0x50
 8698 0c77 32       		.byte	0x32
 8699 0c78 1C       		.byte	0x1c
 8700 0c79 9F       		.byte	0x9f
 8701 0c7a 00000000 		.4byte	0
 8702 0c7e 00000000 		.4byte	0
 8703              	.LLST64:
 8704 0c82 00000000 		.4byte	.LVL311
 8705 0c86 0B000000 		.4byte	.LVL313-1
 8706 0c8a 0100     		.2byte	0x1
 8707 0c8c 51       		.byte	0x51
 8708 0c8d 0B000000 		.4byte	.LVL313-1
 8709 0c91 30000000 		.4byte	.LVL317
 8710 0c95 0100     		.2byte	0x1
 8711 0c97 55       		.byte	0x55
 8712 0c98 30000000 		.4byte	.LVL317
 8713 0c9c 34000000 		.4byte	.LVL318
 8714 0ca0 0100     		.2byte	0x1
 8715 0ca2 51       		.byte	0x51
 8716 0ca3 34000000 		.4byte	.LVL318
 8717 0ca7 8E000000 		.4byte	.LVL333
 8718 0cab 0100     		.2byte	0x1
 8719 0cad 55       		.byte	0x55
 8720 0cae 8E000000 		.4byte	.LVL333
 8721 0cb2 A8000000 		.4byte	.LFE18
 8722 0cb6 0400     		.2byte	0x4
 8723 0cb8 F3       		.byte	0xf3
 8724 0cb9 01       		.uleb128 0x1
 8725 0cba 51       		.byte	0x51
 8726 0cbb 9F       		.byte	0x9f
 8727 0cbc 00000000 		.4byte	0
 8728 0cc0 00000000 		.4byte	0
 8729              	.LLST65:
 8730 0cc4 04000000 		.4byte	.LVL312
 8731 0cc8 42000000 		.4byte	.LVL321
 8732 0ccc 0200     		.2byte	0x2
 8733 0cce 32       		.byte	0x32
 8734 0ccf 9F       		.byte	0x9f
 8735 0cd0 42000000 		.4byte	.LVL321
 8736 0cd4 4C000000 		.4byte	.LVL323
 8737 0cd8 0200     		.2byte	0x2
 8738 0cda 33       		.byte	0x33
 8739 0cdb 9F       		.byte	0x9f
 8740 0cdc 4C000000 		.4byte	.LVL323
 8741 0ce0 5C000000 		.4byte	.LVL325
 8742 0ce4 0200     		.2byte	0x2
 8743 0ce6 32       		.byte	0x32
 8744 0ce7 9F       		.byte	0x9f
ARM GAS  C:\Users\TERENC~1\AppData\Local\Temp\cc1rRXTX.s 			page 174


 8745 0ce8 5C000000 		.4byte	.LVL325
 8746 0cec 66000000 		.4byte	.LVL327
 8747 0cf0 0200     		.2byte	0x2
 8748 0cf2 33       		.byte	0x33
 8749 0cf3 9F       		.byte	0x9f
 8750 0cf4 66000000 		.4byte	.LVL327
 8751 0cf8 76000000 		.4byte	.LVL329
 8752 0cfc 0200     		.2byte	0x2
 8753 0cfe 32       		.byte	0x32
 8754 0cff 9F       		.byte	0x9f
 8755 0d00 76000000 		.4byte	.LVL329
 8756 0d04 84000000 		.4byte	.LVL331
 8757 0d08 0200     		.2byte	0x2
 8758 0d0a 33       		.byte	0x33
 8759 0d0b 9F       		.byte	0x9f
 8760 0d0c 84000000 		.4byte	.LVL331
 8761 0d10 8C000000 		.4byte	.LVL332
 8762 0d14 0200     		.2byte	0x2
 8763 0d16 32       		.byte	0x32
 8764 0d17 9F       		.byte	0x9f
 8765 0d18 00000000 		.4byte	0
 8766 0d1c 00000000 		.4byte	0
 8767              	.LLST66:
 8768 0d20 0E000000 		.4byte	.LVL334
 8769 0d24 98000000 		.4byte	.LVL346
 8770 0d28 0300     		.2byte	0x3
 8771 0d2a 09       		.byte	0x9
 8772 0d2b FF       		.byte	0xff
 8773 0d2c 9F       		.byte	0x9f
 8774 0d2d 98000000 		.4byte	.LVL346
 8775 0d31 C0000000 		.4byte	.LVL350
 8776 0d35 0300     		.2byte	0x3
 8777 0d37 91       		.byte	0x91
 8778 0d38 AC7F     		.sleb128 -84
 8779 0d3a C0000000 		.4byte	.LVL350
 8780 0d3e C6000000 		.4byte	.LVL351
 8781 0d42 0100     		.2byte	0x1
 8782 0d44 50       		.byte	0x50
 8783 0d45 C6000000 		.4byte	.LVL351
 8784 0d49 E0010000 		.4byte	.LVL380
 8785 0d4d 0300     		.2byte	0x3
 8786 0d4f 91       		.byte	0x91
 8787 0d50 AC7F     		.sleb128 -84
 8788 0d52 E0010000 		.4byte	.LVL380
 8789 0d56 EE010000 		.4byte	.LVL382
 8790 0d5a 0300     		.2byte	0x3
 8791 0d5c 09       		.byte	0x9
 8792 0d5d FF       		.byte	0xff
 8793 0d5e 9F       		.byte	0x9f
 8794 0d5f EE010000 		.4byte	.LVL382
 8795 0d63 30020000 		.4byte	.LVL388
 8796 0d67 0300     		.2byte	0x3
 8797 0d69 91       		.byte	0x91
 8798 0d6a AC7F     		.sleb128 -84
 8799 0d6c 30020000 		.4byte	.LVL388
 8800 0d70 36020000 		.4byte	.LVL389
 8801 0d74 0300     		.2byte	0x3
ARM GAS  C:\Users\TERENC~1\AppData\Local\Temp\cc1rRXTX.s 			page 175


 8802 0d76 09       		.byte	0x9
 8803 0d77 FF       		.byte	0xff
 8804 0d78 9F       		.byte	0x9f
 8805 0d79 36020000 		.4byte	.LVL389
 8806 0d7d 3C020000 		.4byte	.LVL390
 8807 0d81 0300     		.2byte	0x3
 8808 0d83 91       		.byte	0x91
 8809 0d84 AC7F     		.sleb128 -84
 8810 0d86 00000000 		.4byte	0
 8811 0d8a 00000000 		.4byte	0
 8812              	.LLST67:
 8813 0d8e 0E000000 		.4byte	.LVL334
 8814 0d92 16000000 		.4byte	.LVL335
 8815 0d96 0600     		.2byte	0x6
 8816 0d98 03       		.byte	0x3
 8817 0d99 00000000 		.4byte	cmd_buf
 8818 0d9d 9F       		.byte	0x9f
 8819 0d9e 16000000 		.4byte	.LVL335
 8820 0da2 5F000000 		.4byte	.LVL339-1
 8821 0da6 0100     		.2byte	0x1
 8822 0da8 52       		.byte	0x52
 8823 0da9 86000000 		.4byte	.LVL343
 8824 0dad 98000000 		.4byte	.LVL346
 8825 0db1 0100     		.2byte	0x1
 8826 0db3 52       		.byte	0x52
 8827 0db4 E0010000 		.4byte	.LVL380
 8828 0db8 EE010000 		.4byte	.LVL382
 8829 0dbc 0100     		.2byte	0x1
 8830 0dbe 52       		.byte	0x52
 8831 0dbf 00000000 		.4byte	0
 8832 0dc3 00000000 		.4byte	0
 8833              	.LLST68:
 8834 0dc7 0E000000 		.4byte	.LVL334
 8835 0dcb 98000000 		.4byte	.LVL346
 8836 0dcf 0200     		.2byte	0x2
 8837 0dd1 30       		.byte	0x30
 8838 0dd2 9F       		.byte	0x9f
 8839 0dd3 98000000 		.4byte	.LVL346
 8840 0dd7 C0000000 		.4byte	.LVL350
 8841 0ddb 0100     		.2byte	0x1
 8842 0ddd 5A       		.byte	0x5a
 8843 0dde C0000000 		.4byte	.LVL350
 8844 0de2 C6000000 		.4byte	.LVL351
 8845 0de6 0200     		.2byte	0x2
 8846 0de8 31       		.byte	0x31
 8847 0de9 9F       		.byte	0x9f
 8848 0dea C6000000 		.4byte	.LVL351
 8849 0dee D2000000 		.4byte	.LVL353
 8850 0df2 0100     		.2byte	0x1
 8851 0df4 5A       		.byte	0x5a
 8852 0df5 D2000000 		.4byte	.LVL353
 8853 0df9 3A010000 		.4byte	.LVL363
 8854 0dfd 0200     		.2byte	0x2
 8855 0dff 31       		.byte	0x31
 8856 0e00 9F       		.byte	0x9f
 8857 0e01 3A010000 		.4byte	.LVL363
 8858 0e05 70010000 		.4byte	.LVL367
ARM GAS  C:\Users\TERENC~1\AppData\Local\Temp\cc1rRXTX.s 			page 176


 8859 0e09 0100     		.2byte	0x1
 8860 0e0b 5A       		.byte	0x5a
 8861 0e0c 70010000 		.4byte	.LVL367
 8862 0e10 DC010000 		.4byte	.LVL378
 8863 0e14 0200     		.2byte	0x2
 8864 0e16 31       		.byte	0x31
 8865 0e17 9F       		.byte	0x9f
 8866 0e18 DC010000 		.4byte	.LVL378
 8867 0e1c E0010000 		.4byte	.LVL380
 8868 0e20 0100     		.2byte	0x1
 8869 0e22 5A       		.byte	0x5a
 8870 0e23 E0010000 		.4byte	.LVL380
 8871 0e27 EE010000 		.4byte	.LVL382
 8872 0e2b 0200     		.2byte	0x2
 8873 0e2d 30       		.byte	0x30
 8874 0e2e 9F       		.byte	0x9f
 8875 0e2f EE010000 		.4byte	.LVL382
 8876 0e33 30020000 		.4byte	.LVL388
 8877 0e37 0100     		.2byte	0x1
 8878 0e39 5A       		.byte	0x5a
 8879 0e3a 30020000 		.4byte	.LVL388
 8880 0e3e 36020000 		.4byte	.LVL389
 8881 0e42 0200     		.2byte	0x2
 8882 0e44 30       		.byte	0x30
 8883 0e45 9F       		.byte	0x9f
 8884 0e46 36020000 		.4byte	.LVL389
 8885 0e4a 3C020000 		.4byte	.LVL390
 8886 0e4e 0100     		.2byte	0x1
 8887 0e50 5A       		.byte	0x5a
 8888 0e51 00000000 		.4byte	0
 8889 0e55 00000000 		.4byte	0
 8890              	.LLST69:
 8891 0e59 0E000000 		.4byte	.LVL334
 8892 0e5d 16000000 		.4byte	.LVL335
 8893 0e61 0200     		.2byte	0x2
 8894 0e63 30       		.byte	0x30
 8895 0e64 9F       		.byte	0x9f
 8896 0e65 16000000 		.4byte	.LVL335
 8897 0e69 8E000000 		.4byte	.LVL344
 8898 0e6d 0100     		.2byte	0x1
 8899 0e6f 59       		.byte	0x59
 8900 0e70 8E000000 		.4byte	.LVL344
 8901 0e74 90000000 		.4byte	.LVL345
 8902 0e78 0100     		.2byte	0x1
 8903 0e7a 53       		.byte	0x53
 8904 0e7b 90000000 		.4byte	.LVL345
 8905 0e7f E0010000 		.4byte	.LVL380
 8906 0e83 0100     		.2byte	0x1
 8907 0e85 59       		.byte	0x59
 8908 0e86 E0010000 		.4byte	.LVL380
 8909 0e8a E2010000 		.4byte	.LVL381
 8910 0e8e 0100     		.2byte	0x1
 8911 0e90 53       		.byte	0x53
 8912 0e91 E2010000 		.4byte	.LVL381
 8913 0e95 3E020000 		.4byte	.LVL391
 8914 0e99 0100     		.2byte	0x1
 8915 0e9b 59       		.byte	0x59
ARM GAS  C:\Users\TERENC~1\AppData\Local\Temp\cc1rRXTX.s 			page 177


 8916 0e9c 00000000 		.4byte	0
 8917 0ea0 00000000 		.4byte	0
 8918              	.LLST70:
 8919 0ea4 0E000000 		.4byte	.LVL334
 8920 0ea8 98000000 		.4byte	.LVL346
 8921 0eac 0200     		.2byte	0x2
 8922 0eae 30       		.byte	0x30
 8923 0eaf 9F       		.byte	0x9f
 8924 0eb0 98000000 		.4byte	.LVL346
 8925 0eb4 94010000 		.4byte	.LVL372
 8926 0eb8 0100     		.2byte	0x1
 8927 0eba 56       		.byte	0x56
 8928 0ebb DC010000 		.4byte	.LVL378
 8929 0ebf E0010000 		.4byte	.LVL380
 8930 0ec3 0100     		.2byte	0x1
 8931 0ec5 56       		.byte	0x56
 8932 0ec6 E0010000 		.4byte	.LVL380
 8933 0eca EE010000 		.4byte	.LVL382
 8934 0ece 0200     		.2byte	0x2
 8935 0ed0 30       		.byte	0x30
 8936 0ed1 9F       		.byte	0x9f
 8937 0ed2 EE010000 		.4byte	.LVL382
 8938 0ed6 04020000 		.4byte	.LVL383
 8939 0eda 0100     		.2byte	0x1
 8940 0edc 56       		.byte	0x56
 8941 0edd 30020000 		.4byte	.LVL388
 8942 0ee1 36020000 		.4byte	.LVL389
 8943 0ee5 0200     		.2byte	0x2
 8944 0ee7 30       		.byte	0x30
 8945 0ee8 9F       		.byte	0x9f
 8946 0ee9 00000000 		.4byte	0
 8947 0eed 00000000 		.4byte	0
 8948              	.LLST71:
 8949 0ef1 0E000000 		.4byte	.LVL334
 8950 0ef5 98000000 		.4byte	.LVL346
 8951 0ef9 0200     		.2byte	0x2
 8952 0efb 30       		.byte	0x30
 8953 0efc 9F       		.byte	0x9f
 8954 0efd 98000000 		.4byte	.LVL346
 8955 0f01 E0010000 		.4byte	.LVL380
 8956 0f05 0100     		.2byte	0x1
 8957 0f07 54       		.byte	0x54
 8958 0f08 E0010000 		.4byte	.LVL380
 8959 0f0c EE010000 		.4byte	.LVL382
 8960 0f10 0200     		.2byte	0x2
 8961 0f12 30       		.byte	0x30
 8962 0f13 9F       		.byte	0x9f
 8963 0f14 EE010000 		.4byte	.LVL382
 8964 0f18 04020000 		.4byte	.LVL383
 8965 0f1c 0100     		.2byte	0x1
 8966 0f1e 54       		.byte	0x54
 8967 0f1f 30020000 		.4byte	.LVL388
 8968 0f23 36020000 		.4byte	.LVL389
 8969 0f27 0200     		.2byte	0x2
 8970 0f29 30       		.byte	0x30
 8971 0f2a 9F       		.byte	0x9f
 8972 0f2b 00000000 		.4byte	0
ARM GAS  C:\Users\TERENC~1\AppData\Local\Temp\cc1rRXTX.s 			page 178


 8973 0f2f 00000000 		.4byte	0
 8974              	.LLST72:
 8975 0f33 0E000000 		.4byte	.LVL334
 8976 0f37 98000000 		.4byte	.LVL346
 8977 0f3b 0200     		.2byte	0x2
 8978 0f3d 30       		.byte	0x30
 8979 0f3e 9F       		.byte	0x9f
 8980 0f3f 98000000 		.4byte	.LVL346
 8981 0f43 E0010000 		.4byte	.LVL380
 8982 0f47 0100     		.2byte	0x1
 8983 0f49 58       		.byte	0x58
 8984 0f4a E0010000 		.4byte	.LVL380
 8985 0f4e EE010000 		.4byte	.LVL382
 8986 0f52 0200     		.2byte	0x2
 8987 0f54 30       		.byte	0x30
 8988 0f55 9F       		.byte	0x9f
 8989 0f56 EE010000 		.4byte	.LVL382
 8990 0f5a 04020000 		.4byte	.LVL383
 8991 0f5e 0100     		.2byte	0x1
 8992 0f60 58       		.byte	0x58
 8993 0f61 30020000 		.4byte	.LVL388
 8994 0f65 36020000 		.4byte	.LVL389
 8995 0f69 0200     		.2byte	0x2
 8996 0f6b 30       		.byte	0x30
 8997 0f6c 9F       		.byte	0x9f
 8998 0f6d 00000000 		.4byte	0
 8999 0f71 00000000 		.4byte	0
 9000              	.LLST73:
 9001 0f75 10000000 		.4byte	.LVL396
 9002 0f79 70000000 		.4byte	.LVL406
 9003 0f7d 0100     		.2byte	0x1
 9004 0f7f 54       		.byte	0x54
 9005 0f80 8C000000 		.4byte	.LVL409
 9006 0f84 B4000000 		.4byte	.LVL412
 9007 0f88 0100     		.2byte	0x1
 9008 0f8a 54       		.byte	0x54
 9009 0f8b C6000000 		.4byte	.LVL415
 9010 0f8f FA000000 		.4byte	.LVL420
 9011 0f93 0100     		.2byte	0x1
 9012 0f95 54       		.byte	0x54
 9013 0f96 FE000000 		.4byte	.LVL421
 9014 0f9a 0A010000 		.4byte	.LVL422
 9015 0f9e 0100     		.2byte	0x1
 9016 0fa0 54       		.byte	0x54
 9017 0fa1 0A010000 		.4byte	.LVL422
 9018 0fa5 0A010000 		.4byte	.LVL423
 9019 0fa9 0800     		.2byte	0x8
 9020 0fab 91       		.byte	0x91
 9021 0fac 00       		.sleb128 0
 9022 0fad 75       		.byte	0x75
 9023 0fae 00       		.sleb128 0
 9024 0faf 22       		.byte	0x22
 9025 0fb0 08       		.byte	0x8
 9026 0fb1 58       		.byte	0x58
 9027 0fb2 1C       		.byte	0x1c
 9028 0fb3 00000000 		.4byte	0
 9029 0fb7 00000000 		.4byte	0
ARM GAS  C:\Users\TERENC~1\AppData\Local\Temp\cc1rRXTX.s 			page 179


 9030              	.LLST74:
 9031 0fbb 04000000 		.4byte	.LVL393
 9032 0fbf 10000000 		.4byte	.LVL396
 9033 0fc3 0200     		.2byte	0x2
 9034 0fc5 30       		.byte	0x30
 9035 0fc6 9F       		.byte	0x9f
 9036 0fc7 10000000 		.4byte	.LVL396
 9037 0fcb 12000000 		.4byte	.LVL397
 9038 0fcf 0100     		.2byte	0x1
 9039 0fd1 55       		.byte	0x55
 9040 0fd2 14000000 		.4byte	.LVL398
 9041 0fd6 0A010000 		.4byte	.LVL423
 9042 0fda 0100     		.2byte	0x1
 9043 0fdc 55       		.byte	0x55
 9044 0fdd 00000000 		.4byte	0
 9045 0fe1 00000000 		.4byte	0
 9046              	.LLST75:
 9047 0fe5 0C000000 		.4byte	.LVL395
 9048 0fe9 10000000 		.4byte	.LVL396
 9049 0fed 0100     		.2byte	0x1
 9050 0fef 50       		.byte	0x50
 9051 0ff0 10000000 		.4byte	.LVL396
 9052 0ff4 0A010000 		.4byte	.LVL424
 9053 0ff8 0100     		.2byte	0x1
 9054 0ffa 56       		.byte	0x56
 9055 0ffb 00000000 		.4byte	0
 9056 0fff 00000000 		.4byte	0
 9057              		.section	.debug_aranges,"",%progbits
 9058 0000 BC000000 		.4byte	0xbc
 9059 0004 0200     		.2byte	0x2
 9060 0006 00000000 		.4byte	.Ldebug_info0
 9061 000a 04       		.byte	0x4
 9062 000b 00       		.byte	0
 9063 000c 0000     		.2byte	0
 9064 000e 0000     		.2byte	0
 9065 0010 00000000 		.4byte	.LFB11
 9066 0014 34000000 		.4byte	.LFE11-.LFB11
 9067 0018 00000000 		.4byte	.LFB4
 9068 001c 74000000 		.4byte	.LFE4-.LFB4
 9069 0020 00000000 		.4byte	.LFB3
 9070 0024 C4000000 		.4byte	.LFE3-.LFB3
 9071 0028 00000000 		.4byte	.LFB5
 9072 002c 8C000000 		.4byte	.LFE5-.LFB5
 9073 0030 00000000 		.4byte	.LFB12
 9074 0034 38000000 		.4byte	.LFE12-.LFB12
 9075 0038 00000000 		.4byte	.LFB14
 9076 003c 3C000000 		.4byte	.LFE14-.LFB14
 9077 0040 00000000 		.4byte	.LFB17
 9078 0044 8C010000 		.4byte	.LFE17-.LFB17
 9079 0048 00000000 		.4byte	.LFB6
 9080 004c AC000000 		.4byte	.LFE6-.LFB6
 9081 0050 00000000 		.4byte	.LFB7
 9082 0054 34000000 		.4byte	.LFE7-.LFB7
 9083 0058 00000000 		.4byte	.LFB8
 9084 005c BC000000 		.4byte	.LFE8-.LFB8
 9085 0060 00000000 		.4byte	.LFB9
 9086 0064 78000000 		.4byte	.LFE9-.LFB9
ARM GAS  C:\Users\TERENC~1\AppData\Local\Temp\cc1rRXTX.s 			page 180


 9087 0068 00000000 		.4byte	.LFB13
 9088 006c 0A000000 		.4byte	.LFE13-.LFB13
 9089 0070 00000000 		.4byte	.LFB19
 9090 0074 34000000 		.4byte	.LFE19-.LFB19
 9091 0078 00000000 		.4byte	.LFB2
 9092 007c 44000000 		.4byte	.LFE2-.LFB2
 9093 0080 00000000 		.4byte	.LFB10
 9094 0084 A0000000 		.4byte	.LFE10-.LFB10
 9095 0088 00000000 		.4byte	.LFB15
 9096 008c 00010000 		.4byte	.LFE15-.LFB15
 9097 0090 00000000 		.4byte	.LFB16
 9098 0094 E0000000 		.4byte	.LFE16-.LFB16
 9099 0098 00000000 		.4byte	.LFB18
 9100 009c A8000000 		.4byte	.LFE18-.LFB18
 9101 00a0 00000000 		.4byte	.LFB20
 9102 00a4 78020000 		.4byte	.LFE20-.LFB20
 9103 00a8 00000000 		.4byte	.LFB21
 9104 00ac 1C000000 		.4byte	.LFE21-.LFB21
 9105 00b0 00000000 		.4byte	.LFB22
 9106 00b4 20010000 		.4byte	.LFE22-.LFB22
 9107 00b8 00000000 		.4byte	0
 9108 00bc 00000000 		.4byte	0
 9109              		.section	.debug_ranges,"",%progbits
 9110              	.Ldebug_ranges0:
 9111 0000 00000000 		.4byte	.LFB11
 9112 0004 34000000 		.4byte	.LFE11
 9113 0008 00000000 		.4byte	.LFB4
 9114 000c 74000000 		.4byte	.LFE4
 9115 0010 00000000 		.4byte	.LFB3
 9116 0014 C4000000 		.4byte	.LFE3
 9117 0018 00000000 		.4byte	.LFB5
 9118 001c 8C000000 		.4byte	.LFE5
 9119 0020 00000000 		.4byte	.LFB12
 9120 0024 38000000 		.4byte	.LFE12
 9121 0028 00000000 		.4byte	.LFB14
 9122 002c 3C000000 		.4byte	.LFE14
 9123 0030 00000000 		.4byte	.LFB17
 9124 0034 8C010000 		.4byte	.LFE17
 9125 0038 00000000 		.4byte	.LFB6
 9126 003c AC000000 		.4byte	.LFE6
 9127 0040 00000000 		.4byte	.LFB7
 9128 0044 34000000 		.4byte	.LFE7
 9129 0048 00000000 		.4byte	.LFB8
 9130 004c BC000000 		.4byte	.LFE8
 9131 0050 00000000 		.4byte	.LFB9
 9132 0054 78000000 		.4byte	.LFE9
 9133 0058 00000000 		.4byte	.LFB13
 9134 005c 0A000000 		.4byte	.LFE13
 9135 0060 00000000 		.4byte	.LFB19
 9136 0064 34000000 		.4byte	.LFE19
 9137 0068 00000000 		.4byte	.LFB2
 9138 006c 44000000 		.4byte	.LFE2
 9139 0070 00000000 		.4byte	.LFB10
 9140 0074 A0000000 		.4byte	.LFE10
 9141 0078 00000000 		.4byte	.LFB15
 9142 007c 00010000 		.4byte	.LFE15
 9143 0080 00000000 		.4byte	.LFB16
ARM GAS  C:\Users\TERENC~1\AppData\Local\Temp\cc1rRXTX.s 			page 181


 9144 0084 E0000000 		.4byte	.LFE16
 9145 0088 00000000 		.4byte	.LFB18
 9146 008c A8000000 		.4byte	.LFE18
 9147 0090 00000000 		.4byte	.LFB20
 9148 0094 78020000 		.4byte	.LFE20
 9149 0098 00000000 		.4byte	.LFB21
 9150 009c 1C000000 		.4byte	.LFE21
 9151 00a0 00000000 		.4byte	.LFB22
 9152 00a4 20010000 		.4byte	.LFE22
 9153 00a8 00000000 		.4byte	0
 9154 00ac 00000000 		.4byte	0
 9155              		.section	.debug_line,"",%progbits
 9156              	.Ldebug_line0:
 9157 0000 B3070000 		.section	.debug_str,"MS",%progbits,1
 9157      02006B02 
 9157      00000201 
 9157      FB0E0D00 
 9157      01010101 
 9158              	.LASF77:
 9159 0000 546B5368 		.ascii	"TkShellInit\000"
 9159      656C6C49 
 9159      6E697400 
 9160              	.LASF33:
 9161 000c 64656275 		.ascii	"debug_mask\000"
 9161      675F6D61 
 9161      736B00
 9162              	.LASF107:
 9163 0017 43616C69 		.ascii	"CalibrationSave\000"
 9163      62726174 
 9163      696F6E53 
 9163      61766500 
 9164              	.LASF109:
 9165 0027 70636D31 		.ascii	"pcm1770_reg_read\000"
 9165      3737305F 
 9165      7265675F 
 9165      72656164 
 9165      00
 9166              	.LASF25:
 9167 0038 766F6C5F 		.ascii	"vol_ctrl_right\000"
 9167      6374726C 
 9167      5F726967 
 9167      687400
 9168              	.LASF73:
 9169 0047 5F5F746B 		.ascii	"__tk_shell_cal_set\000"
 9169      5F736865 
 9169      6C6C5F63 
 9169      616C5F73 
 9169      657400
 9170              	.LASF80:
 9171 005a 62756666 		.ascii	"buffer\000"
 9171      657200
 9172              	.LASF0:
 9173 0061 756E7369 		.ascii	"unsigned int\000"
 9173      676E6564 
 9173      20696E74 
 9173      00
 9174              	.LASF32:
ARM GAS  C:\Users\TERENC~1\AppData\Local\Temp\cc1rRXTX.s 			page 182


 9175 006e 6C65645F 		.ascii	"led_max_brightness\000"
 9175      6D61785F 
 9175      62726967 
 9175      68746E65 
 9175      737300
 9176              	.LASF38:
 9177 0081 4C4D5F4C 		.ascii	"LM_LED_MAX\000"
 9177      45445F4D 
 9177      415800
 9178              	.LASF21:
 9179 008c 696E7431 		.ascii	"int16\000"
 9179      3600
 9180              	.LASF62:
 9181 0092 5F5F746B 		.ascii	"__tk_shell_wm_reg_rd\000"
 9181      5F736865 
 9181      6C6C5F77 
 9181      6D5F7265 
 9181      675F7264 
 9182              	.LASF27:
 9183 00a7 766F6C5F 		.ascii	"vol_ctrl_both\000"
 9183      6374726C 
 9183      5F626F74 
 9183      6800
 9184              	.LASF96:
 9185 00b5 55534255 		.ascii	"USBUART_GetConfiguration\000"
 9185      4152545F 
 9185      47657443 
 9185      6F6E6669 
 9185      67757261 
 9186              	.LASF118:
 9187 00ce 546B5368 		.ascii	"TkShellProcessCommand\000"
 9187      656C6C50 
 9187      726F6365 
 9187      7373436F 
 9187      6D6D616E 
 9188              	.LASF69:
 9189 00e4 70776D50 		.ascii	"pwmPeriod\000"
 9189      6572696F 
 9189      6400
 9190              	.LASF41:
 9191 00ee 66756E63 		.ascii	"func\000"
 9191      00
 9192              	.LASF51:
 9193 00f3 6D6F6465 		.ascii	"mode\000"
 9193      00
 9194              	.LASF75:
 9195 00f8 666F756E 		.ascii	"found\000"
 9195      6400
 9196              	.LASF39:
 9197 00fe 4C4D5F4C 		.ascii	"LM_LED_e\000"
 9197      45445F65 
 9197      00
 9198              	.LASF31:
 9199 0107 6164635F 		.ascii	"adc_max\000"
 9199      6D617800 
 9200              	.LASF101:
 9201 010f 436F6465 		.ascii	"Codec_AdjustBothHeadphoneVolume\000"
ARM GAS  C:\Users\TERENC~1\AppData\Local\Temp\cc1rRXTX.s 			page 183


 9201      635F4164 
 9201      6A757374 
 9201      426F7468 
 9201      48656164 
 9202              	.LASF17:
 9203 012f 75696E74 		.ascii	"uint32_t\000"
 9203      33325F74 
 9203      00
 9204              	.LASF37:
 9205 0138 4C4D5F4C 		.ascii	"LM_LED_BLUE\000"
 9205      45445F42 
 9205      4C554500 
 9206              	.LASF22:
 9207 0144 666C6F61 		.ascii	"float\000"
 9207      7400
 9208              	.LASF79:
 9209 014a 636F756E 		.ascii	"count\000"
 9209      7400
 9210              	.LASF12:
 9211 0150 6C6F6E67 		.ascii	"long long unsigned int\000"
 9211      206C6F6E 
 9211      6720756E 
 9211      7369676E 
 9211      65642069 
 9212              	.LASF7:
 9213 0167 5F5F7569 		.ascii	"__uint16_t\000"
 9213      6E743136 
 9213      5F7400
 9214              	.LASF59:
 9215 0172 5F5F746B 		.ascii	"__tk_shell_wm_vol_get\000"
 9215      5F736865 
 9215      6C6C5F77 
 9215      6D5F766F 
 9215      6C5F6765 
 9216              	.LASF92:
 9217 0188 61646353 		.ascii	"adcSample\000"
 9217      616D706C 
 9217      6500
 9218              	.LASF28:
 9219 0192 7369676E 		.ascii	"signature\000"
 9219      61747572 
 9219      6500
 9220              	.LASF116:
 9221 019c 546B5368 		.ascii	"TkShell.c\000"
 9221      656C6C2E 
 9221      6300
 9222              	.LASF63:
 9223 01a6 5F5F746B 		.ascii	"__tk_shell_sys_reset\000"
 9223      5F736865 
 9223      6C6C5F73 
 9223      79735F72 
 9223      65736574 
 9224              	.LASF115:
 9225 01bb 474E5520 		.ascii	"GNU C11 5.4.1 20160609 (release) [ARM/embedded-5-br"
 9225      43313120 
 9225      352E342E 
 9225      31203230 
ARM GAS  C:\Users\TERENC~1\AppData\Local\Temp\cc1rRXTX.s 			page 184


 9225      31363036 
 9226 01ee 616E6368 		.ascii	"anch revision 237715] -mcpu=cortex-m0 -mthumb -g -O"
 9226      20726576 
 9226      6973696F 
 9226      6E203233 
 9226      37373135 
 9227 0221 67202D66 		.ascii	"g -ffunction-sections -ffat-lto-objects\000"
 9227      66756E63 
 9227      74696F6E 
 9227      2D736563 
 9227      74696F6E 
 9228              	.LASF117:
 9229 0249 433A5C64 		.ascii	"C:\\dev\\git\\icebreaker\\Icebreaker.cydsn\000"
 9229      65765C67 
 9229      69745C69 
 9229      63656272 
 9229      65616B65 
 9230              	.LASF60:
 9231 0270 5F5F746B 		.ascii	"__tk_shell_wm_reg_wr\000"
 9231      5F736865 
 9231      6C6C5F77 
 9231      6D5F7265 
 9231      675F7772 
 9232              	.LASF35:
 9233 0285 4C4D5F4C 		.ascii	"LM_LED_RED\000"
 9233      45445F52 
 9233      454400
 9234              	.LASF29:
 9235 0290 636F756E 		.ascii	"counter\000"
 9235      74657200 
 9236              	.LASF89:
 9237 0298 636D645F 		.ascii	"cmd_buf\000"
 9237      62756600 
 9238              	.LASF76:
 9239 02a0 5F426F6F 		.ascii	"_Bool\000"
 9239      6C00
 9240              	.LASF49:
 9241 02a6 5F5F746B 		.ascii	"__tk_shell_gpio_config\000"
 9241      5F736865 
 9241      6C6C5F67 
 9241      70696F5F 
 9241      636F6E66 
 9242              	.LASF102:
 9243 02bd 436F6465 		.ascii	"Codec_GetHeadphoneVolume\000"
 9243      635F4765 
 9243      74486561 
 9243      6470686F 
 9243      6E65566F 
 9244              	.LASF14:
 9245 02d6 63686172 		.ascii	"char\000"
 9245      00
 9246              	.LASF114:
 9247 02db 55534255 		.ascii	"USBUART_GetAll\000"
 9247      4152545F 
 9247      47657441 
 9247      6C6C00
 9248              	.LASF19:
ARM GAS  C:\Users\TERENC~1\AppData\Local\Temp\cc1rRXTX.s 			page 185


 9249 02ea 75696E74 		.ascii	"uint16\000"
 9249      313600
 9250              	.LASF61:
 9251 02f1 64617461 		.ascii	"data\000"
 9251      00
 9252              	.LASF94:
 9253 02f6 746D7243 		.ascii	"tmrCounter_ms\000"
 9253      6F756E74 
 9253      65725F6D 
 9253      7300
 9254              	.LASF15:
 9255 0304 75696E74 		.ascii	"uint8_t\000"
 9255      385F7400 
 9256              	.LASF71:
 9257 030c 70776D43 		.ascii	"pwmCounter\000"
 9257      6F756E74 
 9257      657200
 9258              	.LASF74:
 9259 0317 72657476 		.ascii	"retval\000"
 9259      616C00
 9260              	.LASF1:
 9261 031e 6C6F6E67 		.ascii	"long long int\000"
 9261      206C6F6E 
 9261      6720696E 
 9261      7400
 9262              	.LASF72:
 9263 032c 5F5F746B 		.ascii	"__tk_shell_led_stop\000"
 9263      5F736865 
 9263      6C6C5F6C 
 9263      65645F73 
 9263      746F7000 
 9264              	.LASF55:
 9265 0340 5F5F746B 		.ascii	"__tk_shell_sys_info\000"
 9265      5F736865 
 9265      6C6C5F73 
 9265      79735F69 
 9265      6E666F00 
 9266              	.LASF86:
 9267 0354 5F5F746B 		.ascii	"__tk_shell_verbs_led\000"
 9267      5F736865 
 9267      6C6C5F76 
 9267      65726273 
 9267      5F6C6564 
 9268              	.LASF65:
 9269 0369 73747263 		.ascii	"strcicmp\000"
 9269      69636D70 
 9269      00
 9270              	.LASF81:
 9271 0372 7265675F 		.ascii	"reg_lookup\000"
 9271      6C6F6F6B 
 9271      757000
 9272              	.LASF113:
 9273 037d 6D656D73 		.ascii	"memset\000"
 9273      657400
 9274              	.LASF20:
 9275 0384 75696E74 		.ascii	"uint32\000"
 9275      333200
ARM GAS  C:\Users\TERENC~1\AppData\Local\Temp\cc1rRXTX.s 			page 186


 9276              	.LASF46:
 9277 038b 61726763 		.ascii	"argc\000"
 9277      00
 9278              	.LASF91:
 9279 0390 5F5F6374 		.ascii	"__ctype_ptr__\000"
 9279      7970655F 
 9279      7074725F 
 9279      5F00
 9280              	.LASF88:
 9281 039e 636F6D6D 		.ascii	"commands\000"
 9281      616E6473 
 9281      00
 9282              	.LASF85:
 9283 03a7 5F5F746B 		.ascii	"__tk_shell_verbs_sys\000"
 9283      5F736865 
 9283      6C6C5F76 
 9283      65726273 
 9283      5F737973 
 9284              	.LASF47:
 9285 03bc 61726776 		.ascii	"argv\000"
 9285      00
 9286              	.LASF2:
 9287 03c1 6C6F6E67 		.ascii	"long double\000"
 9287      20646F75 
 9287      626C6500 
 9288              	.LASF100:
 9289 03cd 73707269 		.ascii	"sprintf\000"
 9289      6E746600 
 9290              	.LASF16:
 9291 03d5 75696E74 		.ascii	"uint16_t\000"
 9291      31365F74 
 9291      00
 9292              	.LASF24:
 9293 03de 72656733 		.ascii	"reg32\000"
 9293      3200
 9294              	.LASF95:
 9295 03e4 67627566 		.ascii	"gbuf\000"
 9295      00
 9296              	.LASF52:
 9297 03e9 5F5F746B 		.ascii	"__tk_shell_gpio_set\000"
 9297      5F736865 
 9297      6C6C5F67 
 9297      70696F5F 
 9297      73657400 
 9298              	.LASF67:
 9299 03fd 5F5F746B 		.ascii	"__tk_shell_led_start\000"
 9299      5F736865 
 9299      6C6C5F6C 
 9299      65645F73 
 9299      74617274 
 9300              	.LASF93:
 9301 0412 63616C5F 		.ascii	"cal_data\000"
 9301      64617461 
 9301      00
 9302              	.LASF45:
 9303 041b 746B5F73 		.ascii	"tk_shell_command_s\000"
 9303      68656C6C 
ARM GAS  C:\Users\TERENC~1\AppData\Local\Temp\cc1rRXTX.s 			page 187


 9303      5F636F6D 
 9303      6D616E64 
 9303      5F7300
 9304              	.LASF5:
 9305 042e 73686F72 		.ascii	"short int\000"
 9305      7420696E 
 9305      7400
 9306              	.LASF64:
 9307 0438 5F5F746B 		.ascii	"__tk_shell_cal_save\000"
 9307      5F736865 
 9307      6C6C5F63 
 9307      616C5F73 
 9307      61766500 
 9308              	.LASF9:
 9309 044c 6C6F6E67 		.ascii	"long int\000"
 9309      20696E74 
 9309      00
 9310              	.LASF87:
 9311 0455 5F5F746B 		.ascii	"__tk_shell_verbs_cal\000"
 9311      5F736865 
 9311      6C6C5F76 
 9311      65726273 
 9311      5F63616C 
 9312              	.LASF30:
 9313 046a 6164635F 		.ascii	"adc_min\000"
 9313      6D696E00 
 9314              	.LASF83:
 9315 0472 5F5F746B 		.ascii	"__tk_shell_verbs_wm\000"
 9315      5F736865 
 9315      6C6C5F76 
 9315      65726273 
 9315      5F776D00 
 9316              	.LASF70:
 9317 0486 70776D43 		.ascii	"pwmCompare\000"
 9317      6F6D7061 
 9317      726500
 9318              	.LASF108:
 9319 0491 70636D31 		.ascii	"pcm1770_reg_write\000"
 9319      3737305F 
 9319      7265675F 
 9319      77726974 
 9319      6500
 9320              	.LASF105:
 9321 04a3 436F6465 		.ascii	"Codec_GetData\000"
 9321      635F4765 
 9321      74446174 
 9321      6100
 9322              	.LASF6:
 9323 04b1 5F5F7569 		.ascii	"__uint8_t\000"
 9323      6E74385F 
 9323      7400
 9324              	.LASF44:
 9325 04bb 76657262 		.ascii	"verbs\000"
 9325      7300
 9326              	.LASF98:
 9327 04c1 55534255 		.ascii	"USBUART_PutString\000"
 9327      4152545F 
ARM GAS  C:\Users\TERENC~1\AppData\Local\Temp\cc1rRXTX.s 			page 188


 9327      50757453 
 9327      7472696E 
 9327      6700
 9328              	.LASF40:
 9329 04d3 6E616D65 		.ascii	"name\000"
 9329      00
 9330              	.LASF13:
 9331 04d8 73697A65 		.ascii	"sizetype\000"
 9331      74797065 
 9331      00
 9332              	.LASF103:
 9333 04e1 73747274 		.ascii	"strtoul\000"
 9333      6F756C00 
 9334              	.LASF66:
 9335 04e9 5F5F746B 		.ascii	"__tk_shell_pcm_reg\000"
 9335      5F736865 
 9335      6C6C5F70 
 9335      636D5F72 
 9335      656700
 9336              	.LASF11:
 9337 04fc 6C6F6E67 		.ascii	"long unsigned int\000"
 9337      20756E73 
 9337      69676E65 
 9337      6420696E 
 9337      7400
 9338              	.LASF97:
 9339 050e 55534255 		.ascii	"USBUART_CDCIsReady\000"
 9339      4152545F 
 9339      43444349 
 9339      73526561 
 9339      647900
 9340              	.LASF48:
 9341 0521 5F5F746B 		.ascii	"__tk_shell_sys_crash\000"
 9341      5F736865 
 9341      6C6C5F73 
 9341      79735F63 
 9341      72617368 
 9342              	.LASF50:
 9343 0536 706F7274 		.ascii	"port\000"
 9343      00
 9344              	.LASF78:
 9345 053b 546B5368 		.ascii	"TkShellService\000"
 9345      656C6C53 
 9345      65727669 
 9345      636500
 9346              	.LASF110:
 9347 054a 4C65644D 		.ascii	"LedManagerStartOverride\000"
 9347      616E6167 
 9347      65725374 
 9347      6172744F 
 9347      76657272 
 9348              	.LASF106:
 9349 0562 4379536F 		.ascii	"CySoftwareReset\000"
 9349      66747761 
 9349      72655265 
 9349      73657400 
 9350              	.LASF4:
ARM GAS  C:\Users\TERENC~1\AppData\Local\Temp\cc1rRXTX.s 			page 189


 9351 0572 756E7369 		.ascii	"unsigned char\000"
 9351      676E6564 
 9351      20636861 
 9351      7200
 9352              	.LASF43:
 9353 0580 746B5F73 		.ascii	"tk_shell_command_verb_s\000"
 9353      68656C6C 
 9353      5F636F6D 
 9353      6D616E64 
 9353      5F766572 
 9354              	.LASF10:
 9355 0598 5F5F7569 		.ascii	"__uint32_t\000"
 9355      6E743332 
 9355      5F7400
 9356              	.LASF58:
 9357 05a3 5F5F746B 		.ascii	"__tk_shell_wm_vol_set\000"
 9357      5F736865 
 9357      6C6C5F77 
 9357      6D5F766F 
 9357      6C5F7365 
 9358              	.LASF104:
 9359 05b9 436F6465 		.ascii	"Codec_SendData\000"
 9359      635F5365 
 9359      6E644461 
 9359      746100
 9360              	.LASF53:
 9361 05c8 73746174 		.ascii	"state\000"
 9361      6500
 9362              	.LASF56:
 9363 05ce 5F5F746B 		.ascii	"__tk_shell_sys_adc\000"
 9363      5F736865 
 9363      6C6C5F73 
 9363      79735F61 
 9363      646300
 9364              	.LASF36:
 9365 05e1 4C4D5F4C 		.ascii	"LM_LED_GREEN\000"
 9365      45445F47 
 9365      5245454E 
 9365      00
 9366              	.LASF54:
 9367 05ee 5F5F746B 		.ascii	"__tk_shell_gpio_get\000"
 9367      5F736865 
 9367      6C6C5F67 
 9367      70696F5F 
 9367      67657400 
 9368              	.LASF57:
 9369 0602 5F5F746B 		.ascii	"__tk_shell_cal_print\000"
 9369      5F736865 
 9369      6C6C5F63 
 9369      616C5F70 
 9369      72696E74 
 9370              	.LASF3:
 9371 0617 7369676E 		.ascii	"signed char\000"
 9371      65642063 
 9371      68617200 
 9372              	.LASF82:
 9373 0623 5F5F746B 		.ascii	"__tk_shell_verbs_gpio\000"
ARM GAS  C:\Users\TERENC~1\AppData\Local\Temp\cc1rRXTX.s 			page 190


 9373      5F736865 
 9373      6C6C5F76 
 9373      65726273 
 9373      5F677069 
 9374              	.LASF8:
 9375 0639 73686F72 		.ascii	"short unsigned int\000"
 9375      7420756E 
 9375      7369676E 
 9375      65642069 
 9375      6E7400
 9376              	.LASF112:
 9377 064c 6D656D63 		.ascii	"memcpy\000"
 9377      707900
 9378              	.LASF99:
 9379 0653 61746F69 		.ascii	"atoi\000"
 9379      00
 9380              	.LASF90:
 9381 0658 636D645F 		.ascii	"cmd_char_count\000"
 9381      63686172 
 9381      5F636F75 
 9381      6E7400
 9382              	.LASF18:
 9383 0667 75696E74 		.ascii	"uint8\000"
 9383      3800
 9384              	.LASF23:
 9385 066d 646F7562 		.ascii	"double\000"
 9385      6C6500
 9386              	.LASF42:
 9387 0674 64657363 		.ascii	"desc\000"
 9387      00
 9388              	.LASF84:
 9389 0679 5F5F746B 		.ascii	"__tk_shell_verbs_pcm\000"
 9389      5F736865 
 9389      6C6C5F76 
 9389      65726273 
 9389      5F70636D 
 9390              	.LASF68:
 9391 068e 6C656449 		.ascii	"ledIdx\000"
 9391      647800
 9392              	.LASF34:
 9393 0695 63616C69 		.ascii	"calibration_data_s\000"
 9393      62726174 
 9393      696F6E5F 
 9393      64617461 
 9393      5F7300
 9394              	.LASF111:
 9395 06a8 4C65644D 		.ascii	"LedManagerStopOverride\000"
 9395      616E6167 
 9395      65725374 
 9395      6F704F76 
 9395      65727269 
 9396              	.LASF26:
 9397 06bf 766F6C5F 		.ascii	"vol_ctrl_left\000"
 9397      6374726C 
 9397      5F6C6566 
 9397      7400
 9398              		.ident	"GCC: (GNU Tools for ARM Embedded Processors) 5.4.1 20160609 (release) [ARM/embedded-5-bran
ARM GAS  C:\Users\TERENC~1\AppData\Local\Temp\cc1rRXTX.s 			page 191


