ARM GAS  C:\Users\TERENC~1\AppData\Local\Temp\cc9BPywF.s 			page 1


   1              		.syntax unified
   2              		.cpu cortex-m0
   3              		.fpu softvfp
   4              		.eabi_attribute 20, 1
   5              		.eabi_attribute 21, 1
   6              		.eabi_attribute 23, 3
   7              		.eabi_attribute 24, 1
   8              		.eabi_attribute 25, 1
   9              		.eabi_attribute 26, 1
  10              		.eabi_attribute 30, 1
  11              		.eabi_attribute 34, 0
  12              		.eabi_attribute 18, 4
  13              		.thumb
  14              		.syntax unified
  15              		.file	"TkShell.c"
  16              		.text
  17              	.Ltext0:
  18              		.cfi_sections	.debug_frame
  19              		.section	.text.__tk_shell_sys_crash,"ax",%progbits
  20              		.align	2
  21              		.global	__tk_shell_sys_crash
  22              		.code	16
  23              		.thumb_func
  24              		.type	__tk_shell_sys_crash, %function
  25              	__tk_shell_sys_crash:
  26              	.LFB19:
  27              		.file 1 "TkShell.c"
   1:TkShell.c     **** /* ========================================
   2:TkShell.c     ****  *
   3:TkShell.c     ****  * Copyright YOUR COMPANY, THE YEAR
   4:TkShell.c     ****  * All Rights Reserved
   5:TkShell.c     ****  * UNPUBLISHED, LICENSED SOFTWARE.
   6:TkShell.c     ****  *
   7:TkShell.c     ****  * CONFIDENTIAL AND PROPRIETARY INFORMATION
   8:TkShell.c     ****  * WHICH IS THE PROPERTY OF your company.
   9:TkShell.c     ****  *
  10:TkShell.c     ****  * ========================================
  11:TkShell.c     **** */
  12:TkShell.c     **** #include <string.h>
  13:TkShell.c     **** #include <Application.h>
  14:TkShell.c     **** #include <ctype.h>
  15:TkShell.c     **** #include "TkShell.h"
  16:TkShell.c     **** #include <Codec.h>
  17:TkShell.c     **** #include <VolumeControl.h>
  18:TkShell.c     **** #include <Calibration.h>
  19:TkShell.c     **** #include <LED.h>
  20:TkShell.c     **** #include <USBUART_cdc.h>
  21:TkShell.c     **** #include <timers.h>
  22:TkShell.c     **** #include <LedManager.h>
  23:TkShell.c     **** #include <AudioManager.h>
  24:TkShell.c     **** #include <cc85xx.h>
  25:TkShell.c     **** 
  26:TkShell.c     **** #define USBUART_BUFFER_SIZE (64u)
  27:TkShell.c     **** 
  28:TkShell.c     **** #define TK_SHELL_METHOD(c, verb)              int __tk_shell_ ## c ## _ ## verb(int __unused argc, 
  29:TkShell.c     **** #define TK_SHELL_COMMAND(name, desc)          {#name, (tk_shell_command_verb_s *)__tk_shell_verbs_ 
  30:TkShell.c     **** #define TK_SHELL_VERBS(name)                  const tk_shell_command_verb_s __tk_shell_verbs_ ## na
ARM GAS  C:\Users\TERENC~1\AppData\Local\Temp\cc9BPywF.s 			page 2


  31:TkShell.c     **** #define TK_SHELL_VERB(c, name, desc)          {#name, __tk_shell_ ## c ## _ ## name, desc}
  32:TkShell.c     **** 
  33:TkShell.c     **** #define CMD_BUF_LEN 64
  34:TkShell.c     **** #define TK_SHELL_MAX_ARGS 10
  35:TkShell.c     **** 
  36:TkShell.c     **** typedef struct
  37:TkShell.c     **** {
  38:TkShell.c     ****   const char *name;
  39:TkShell.c     ****   int        (*func)(int argc, char **argv);
  40:TkShell.c     ****   const char *desc;
  41:TkShell.c     **** } tk_shell_command_verb_s;
  42:TkShell.c     **** 
  43:TkShell.c     **** typedef struct
  44:TkShell.c     **** {
  45:TkShell.c     ****   const char *name;
  46:TkShell.c     ****   tk_shell_command_verb_s *verbs;
  47:TkShell.c     ****   const char *desc;
  48:TkShell.c     **** } tk_shell_command_s;
  49:TkShell.c     **** 
  50:TkShell.c     **** 
  51:TkShell.c     **** static const uint32_t reg_lookup[] = 
  52:TkShell.c     **** {
  53:TkShell.c     ****     CYREG_PRT0_DR,  // 0
  54:TkShell.c     ****     CYREG_PRT1_DR,  // 1
  55:TkShell.c     ****     CYREG_PRT2_DR,  // 2
  56:TkShell.c     ****     CYREG_PRT3_DR,  // 3
  57:TkShell.c     ****     CYREG_PRT4_DR,  // 4
  58:TkShell.c     ****     CYREG_PRT5_DR,  // 5
  59:TkShell.c     ****     CYREG_PRT6_DR,  // 6
  60:TkShell.c     ****     CYREG_PRT7_DR,  // 7
  61:TkShell.c     ****     CYREG_PRT8_DR,  // 8
  62:TkShell.c     ****     CYREG_PRT9_DR,  // 9
  63:TkShell.c     ****     CYREG_PRT10_DR, // 10
  64:TkShell.c     ****     CYREG_PRT11_DR, // 11
  65:TkShell.c     ****     CYREG_PRT12_DR, // 12
  66:TkShell.c     ****     CYREG_PRT13_DR, // 13
  67:TkShell.c     **** };
  68:TkShell.c     **** TK_SHELL_METHOD(gpio, set);
  69:TkShell.c     **** TK_SHELL_METHOD(gpio, config);
  70:TkShell.c     **** TK_SHELL_METHOD(gpio, get);
  71:TkShell.c     **** static TK_SHELL_VERBS(gpio) =
  72:TkShell.c     **** {
  73:TkShell.c     ****     TK_SHELL_VERB(gpio, set, "set GPIO state"),
  74:TkShell.c     ****     TK_SHELL_VERB(gpio, config, "configure GPIO"),
  75:TkShell.c     ****     TK_SHELL_VERB(gpio, get, "get GPIO state"),
  76:TkShell.c     ****     { "", NULL, "" }
  77:TkShell.c     **** };
  78:TkShell.c     **** 
  79:TkShell.c     **** TK_SHELL_METHOD(wm, vol_set);
  80:TkShell.c     **** TK_SHELL_METHOD(wm, vol_get);
  81:TkShell.c     **** TK_SHELL_METHOD(wm, reg_wr);
  82:TkShell.c     **** TK_SHELL_METHOD(wm, reg_rd);
  83:TkShell.c     **** static TK_SHELL_VERBS(wm) =
  84:TkShell.c     **** {
  85:TkShell.c     ****     TK_SHELL_VERB(wm, vol_set, "set volume level <vol:uint8>"),
  86:TkShell.c     ****     TK_SHELL_VERB(wm, vol_get, "get volume level"),
  87:TkShell.c     ****     TK_SHELL_VERB(wm, reg_wr, "write register <reg:uint8,data:uint16>)"),
ARM GAS  C:\Users\TERENC~1\AppData\Local\Temp\cc9BPywF.s 			page 3


  88:TkShell.c     ****     TK_SHELL_VERB(wm, reg_rd, "read register <reg:uint8>"),
  89:TkShell.c     ****     { "", NULL, "" }
  90:TkShell.c     **** };
  91:TkShell.c     **** 
  92:TkShell.c     **** TK_SHELL_METHOD(rf, init);
  93:TkShell.c     **** TK_SHELL_METHOD(rf, reset);
  94:TkShell.c     **** TK_SHELL_METHOD(rf, bl_reset);
  95:TkShell.c     **** TK_SHELL_METHOD(rf, bl_unlock);
  96:TkShell.c     **** TK_SHELL_METHOD(rf, bl_erase);
  97:TkShell.c     **** TK_SHELL_METHOD(rf, bl_verify);
  98:TkShell.c     **** TK_SHELL_METHOD(rf, bl_flash);
  99:TkShell.c     **** TK_SHELL_METHOD(rf, status);
 100:TkShell.c     **** TK_SHELL_METHOD(rf, info);
 101:TkShell.c     **** static TK_SHELL_VERBS(rf) =
 102:TkShell.c     **** {
 103:TkShell.c     ****   TK_SHELL_VERB(rf, init, "initialize RF chip"),
 104:TkShell.c     ****   TK_SHELL_VERB(rf, reset, "perform sys reset"),
 105:TkShell.c     ****   TK_SHELL_VERB(rf, bl_reset, "perform boot reset"),
 106:TkShell.c     ****   TK_SHELL_VERB(rf, bl_unlock, "unlock bootloader SPI"),
 107:TkShell.c     ****   TK_SHELL_VERB(rf, bl_erase, "perform mass erase"),
 108:TkShell.c     ****   TK_SHELL_VERB(rf, bl_verify, "perform image verification"),
 109:TkShell.c     ****   TK_SHELL_VERB(rf, bl_flash, "flash a chunk: <addr> <data:uint8[]>"),
 110:TkShell.c     ****   TK_SHELL_VERB(rf, status, "get status"),
 111:TkShell.c     ****   TK_SHELL_VERB(rf, info, "print dev_chip_info"),
 112:TkShell.c     ****   { "", NULL, "" }
 113:TkShell.c     **** };
 114:TkShell.c     **** 
 115:TkShell.c     **** TK_SHELL_METHOD(sys, crash);
 116:TkShell.c     **** TK_SHELL_METHOD(sys, info);
 117:TkShell.c     **** TK_SHELL_METHOD(sys, reset);
 118:TkShell.c     **** TK_SHELL_METHOD(sys, adc);
 119:TkShell.c     **** static TK_SHELL_VERBS(sys) = 
 120:TkShell.c     **** {
 121:TkShell.c     ****     TK_SHELL_VERB(sys, crash, "trigger a hard fault"),
 122:TkShell.c     ****     TK_SHELL_VERB(sys, info, "print info"),
 123:TkShell.c     ****     TK_SHELL_VERB(sys, reset, "trigger a SW reset"),
 124:TkShell.c     ****     TK_SHELL_VERB(sys, adc, "print ADC values"),
 125:TkShell.c     ****     { "", NULL, "" }
 126:TkShell.c     **** };
 127:TkShell.c     **** 
 128:TkShell.c     **** TK_SHELL_METHOD(led, pwm_period);
 129:TkShell.c     **** TK_SHELL_METHOD(led, start);
 130:TkShell.c     **** TK_SHELL_METHOD(led, stop);
 131:TkShell.c     **** static TK_SHELL_VERBS(led) =
 132:TkShell.c     **** {
 133:TkShell.c     ****     TK_SHELL_VERB(led, start, "start LED animation <led:red|green|blue> <period:uint32> <compare:ui
 134:TkShell.c     ****     TK_SHELL_VERB(led, stop, "stop LED animation <led:red|green|blue>"),
 135:TkShell.c     ****     { "", NULL, "" }
 136:TkShell.c     **** };
 137:TkShell.c     **** 
 138:TkShell.c     **** TK_SHELL_METHOD(cal, print);
 139:TkShell.c     **** TK_SHELL_METHOD(cal, set);
 140:TkShell.c     **** TK_SHELL_METHOD(cal, save);
 141:TkShell.c     **** static TK_SHELL_VERBS(cal) =
 142:TkShell.c     **** {
 143:TkShell.c     ****     TK_SHELL_VERB(cal, print, "print cal data"),
 144:TkShell.c     ****     TK_SHELL_VERB(cal, set, "set cal data"),
ARM GAS  C:\Users\TERENC~1\AppData\Local\Temp\cc9BPywF.s 			page 4


 145:TkShell.c     ****     TK_SHELL_VERB(cal, save, "commit cal data to flash"),
 146:TkShell.c     ****     { "", NULL, "" }
 147:TkShell.c     **** };
 148:TkShell.c     **** 
 149:TkShell.c     **** TK_SHELL_METHOD(audio, play_tone);
 150:TkShell.c     **** TK_SHELL_METHOD(audio, stop_tone);
 151:TkShell.c     **** static TK_SHELL_VERBS(audio) =
 152:TkShell.c     **** {
 153:TkShell.c     ****   TK_SHELL_VERB(audio, play_tone, "play tone"),
 154:TkShell.c     ****   TK_SHELL_VERB(audio, stop_tone, "stop tone"),
 155:TkShell.c     ****   { "", NULL, "" }
 156:TkShell.c     **** };
 157:TkShell.c     **** 
 158:TkShell.c     **** static const tk_shell_command_s commands[] = 
 159:TkShell.c     **** {
 160:TkShell.c     ****     TK_SHELL_COMMAND(gpio, "GPIO commands"),
 161:TkShell.c     ****     TK_SHELL_COMMAND(wm, "Wolfson Codec commands"),
 162:TkShell.c     ****     TK_SHELL_COMMAND(rf, "RF chip commands"),
 163:TkShell.c     ****     TK_SHELL_COMMAND(sys, "System commands"),
 164:TkShell.c     ****     TK_SHELL_COMMAND(led, "LED commands"),
 165:TkShell.c     ****     TK_SHELL_COMMAND(cal, "Calibration data commands"),
 166:TkShell.c     ****     TK_SHELL_COMMAND(audio, "Audio commands"),
 167:TkShell.c     ****     { "", NULL, "" }
 168:TkShell.c     **** };
 169:TkShell.c     **** 
 170:TkShell.c     **** static const char OK_STR[] = "ok";
 171:TkShell.c     **** static const char ER_STR[] = "er";
 172:TkShell.c     **** 
 173:TkShell.c     **** static char cmd_buf[CMD_BUF_LEN];
 174:TkShell.c     **** static uint8_t cmd_char_count;
 175:TkShell.c     **** 
 176:TkShell.c     **** ////////////////////////////////////////////////////////////////////////////////
 177:TkShell.c     **** int strcicmp(char const *a, char const *b)
 178:TkShell.c     **** {
 179:TkShell.c     ****     for (;; a++, b++)
 180:TkShell.c     ****     {
 181:TkShell.c     ****         int d = tolower(*a) - tolower(*b);
 182:TkShell.c     ****         if (d != 0 || !*a)
 183:TkShell.c     ****             return d;
 184:TkShell.c     ****     }
 185:TkShell.c     **** }
 186:TkShell.c     **** 
 187:TkShell.c     **** TK_SHELL_METHOD(gpio, set)
 188:TkShell.c     **** {
 189:TkShell.c     ****     uint32_t port, pin, state;
 190:TkShell.c     ****     int i = 2;
 191:TkShell.c     ****     
 192:TkShell.c     ****     argc -= i;
 193:TkShell.c     **** 
 194:TkShell.c     ****     if (argc != 3)
 195:TkShell.c     ****     {
 196:TkShell.c     ****         PRINTF("Invalid number of arguments!\n");
 197:TkShell.c     ****         return -1;
 198:TkShell.c     ****     }
 199:TkShell.c     ****     
 200:TkShell.c     ****     port = atoi(argv[i++]);
 201:TkShell.c     ****     pin = atoi(argv[i++]);
ARM GAS  C:\Users\TERENC~1\AppData\Local\Temp\cc9BPywF.s 			page 5


 202:TkShell.c     ****     state = atoi(argv[i]);
 203:TkShell.c     ****     
 204:TkShell.c     ****     CY_SYS_PINS_SET_DRIVE_MODE(reg_lookup[port], pin, CY_SYS_PINS_DM_STRONG);
 205:TkShell.c     **** 
 206:TkShell.c     ****     if (state)
 207:TkShell.c     ****     {
 208:TkShell.c     ****         CY_SYS_PINS_SET_PIN(reg_lookup[port], pin);
 209:TkShell.c     ****     }
 210:TkShell.c     ****     else
 211:TkShell.c     ****     {
 212:TkShell.c     ****         CY_SYS_PINS_CLEAR_PIN(reg_lookup[port], pin);
 213:TkShell.c     ****     }
 214:TkShell.c     ****     
 215:TkShell.c     ****     PRINTF("> gpio:ok %d\n", (int)CY_SYS_PINS_READ_PIN(reg_lookup[port], pin));
 216:TkShell.c     ****     return 0;
 217:TkShell.c     **** }
 218:TkShell.c     **** 
 219:TkShell.c     **** TK_SHELL_METHOD(gpio, config)
 220:TkShell.c     **** {
 221:TkShell.c     ****     uint32_t port, pin, mode;
 222:TkShell.c     ****     int i = 2;
 223:TkShell.c     ****     
 224:TkShell.c     ****     argc -= i;
 225:TkShell.c     **** 
 226:TkShell.c     ****     if (argc != 3)
 227:TkShell.c     ****     {
 228:TkShell.c     ****         PRINTF("Invalid number of arguments!\n");
 229:TkShell.c     ****         return -1;
 230:TkShell.c     ****     }
 231:TkShell.c     ****     
 232:TkShell.c     ****     port = atoi(argv[i++]);
 233:TkShell.c     ****     pin = atoi(argv[i++]);
 234:TkShell.c     ****     mode = atoi(argv[i]);
 235:TkShell.c     ****     
 236:TkShell.c     ****     CY_SYS_PINS_SET_DRIVE_MODE(reg_lookup[port], pin, mode);
 237:TkShell.c     ****     
 238:TkShell.c     ****     return 0;
 239:TkShell.c     **** }
 240:TkShell.c     **** 
 241:TkShell.c     **** TK_SHELL_METHOD(gpio, get)
 242:TkShell.c     **** {
 243:TkShell.c     ****     uint32_t port, pin;
 244:TkShell.c     ****     int i = 2;
 245:TkShell.c     ****     
 246:TkShell.c     ****     argc -= i;
 247:TkShell.c     **** 
 248:TkShell.c     ****     if (argc != 2)
 249:TkShell.c     ****     {
 250:TkShell.c     ****         PRINTF("Invalid number of arguments!\n");
 251:TkShell.c     ****         return -1;
 252:TkShell.c     ****     }
 253:TkShell.c     ****     
 254:TkShell.c     ****     port = atoi(argv[i++]);
 255:TkShell.c     ****     pin = atoi(argv[i]);
 256:TkShell.c     ****     
 257:TkShell.c     ****     PRINTF("> gpio:ok %d\n", (int)CY_SYS_PINS_READ_PIN(reg_lookup[port], pin));
 258:TkShell.c     ****     
ARM GAS  C:\Users\TERENC~1\AppData\Local\Temp\cc9BPywF.s 			page 6


 259:TkShell.c     ****     return 0;
 260:TkShell.c     **** }
 261:TkShell.c     **** 
 262:TkShell.c     **** TK_SHELL_METHOD(wm, vol_set)
 263:TkShell.c     **** {
 264:TkShell.c     ****     int vol;
 265:TkShell.c     ****     int i = 2;
 266:TkShell.c     ****     uint8_t rv;
 267:TkShell.c     ****     
 268:TkShell.c     ****     argc -= i;
 269:TkShell.c     ****     
 270:TkShell.c     ****     if (argc != 1)
 271:TkShell.c     ****     {
 272:TkShell.c     ****         PRINTF("Invalid number of arguments!\n");
 273:TkShell.c     ****         return -1;
 274:TkShell.c     ****     }
 275:TkShell.c     **** 
 276:TkShell.c     ****     vol = atoi(argv[i++]);
 277:TkShell.c     **** 
 278:TkShell.c     ****     if ((rv = Codec_AdjustBothHeadphoneVolume(vol)) == 0)
 279:TkShell.c     ****     {
 280:TkShell.c     ****         PRINTF("> wm:ok\n");
 281:TkShell.c     ****     }
 282:TkShell.c     ****     else
 283:TkShell.c     ****     {
 284:TkShell.c     ****         PRINTF("> wm:er %d\n", rv);
 285:TkShell.c     ****         return -2;
 286:TkShell.c     ****     }
 287:TkShell.c     **** 
 288:TkShell.c     ****     return 0;
 289:TkShell.c     **** }
 290:TkShell.c     **** 
 291:TkShell.c     **** TK_SHELL_METHOD(wm, vol_get)
 292:TkShell.c     **** {
 293:TkShell.c     ****     PRINTF("> wm:ok %d\n", (int)Codec_GetHeadphoneVolume());
 294:TkShell.c     **** 
 295:TkShell.c     ****     return 0;
 296:TkShell.c     **** }
 297:TkShell.c     **** 
 298:TkShell.c     **** TK_SHELL_METHOD(wm, reg_wr)
 299:TkShell.c     **** {
 300:TkShell.c     ****     int i = 2;
 301:TkShell.c     ****     uint8_t reg;
 302:TkShell.c     ****     uint16_t data;
 303:TkShell.c     ****     int rv;
 304:TkShell.c     ****     
 305:TkShell.c     ****     argc -= i;
 306:TkShell.c     ****     
 307:TkShell.c     ****     if (argc != 2)
 308:TkShell.c     ****     {
 309:TkShell.c     ****         PRINTF("Invalid number of arguments!\n");
 310:TkShell.c     ****         return -1;
 311:TkShell.c     ****     }
 312:TkShell.c     ****     
 313:TkShell.c     ****     reg = atoi(argv[i++]);
 314:TkShell.c     ****     data = strtoul(argv[i++], NULL, 16);
 315:TkShell.c     ****     
ARM GAS  C:\Users\TERENC~1\AppData\Local\Temp\cc9BPywF.s 			page 7


 316:TkShell.c     ****     if ((rv = Codec_SendData(reg, data)) == 0)
 317:TkShell.c     ****     {
 318:TkShell.c     ****         PRINTF("> wm:ok\n");
 319:TkShell.c     ****     }
 320:TkShell.c     ****     else
 321:TkShell.c     ****     {
 322:TkShell.c     ****         PRINTF("> wm:er %d\n", rv);
 323:TkShell.c     ****         return -2;
 324:TkShell.c     ****     }
 325:TkShell.c     ****     
 326:TkShell.c     ****     return 0;
 327:TkShell.c     **** }
 328:TkShell.c     **** 
 329:TkShell.c     **** TK_SHELL_METHOD(wm, reg_rd)
 330:TkShell.c     **** {
 331:TkShell.c     ****     int i = 2;
 332:TkShell.c     ****     uint8_t reg;
 333:TkShell.c     ****     
 334:TkShell.c     ****     argc -= i;
 335:TkShell.c     ****     
 336:TkShell.c     ****     if (argc != 1)
 337:TkShell.c     ****     {
 338:TkShell.c     ****         PRINTF("Invalid number of arguments!\n");
 339:TkShell.c     ****         return -1;
 340:TkShell.c     ****     }
 341:TkShell.c     ****     
 342:TkShell.c     ****     reg = atoi(argv[i++]);
 343:TkShell.c     ****     
 344:TkShell.c     ****     PRINTF("> wm:ok 0x%04X\n", Codec_GetData(reg));
 345:TkShell.c     ****     
 346:TkShell.c     ****     return 0;
 347:TkShell.c     **** }
 348:TkShell.c     **** 
 349:TkShell.c     **** TK_SHELL_METHOD(rf, init)
 350:TkShell.c     **** {
 351:TkShell.c     ****   cc85xx_init();
 352:TkShell.c     ****   PRINTF("> rf:ok\n");
 353:TkShell.c     ****   return 0;
 354:TkShell.c     **** }
 355:TkShell.c     **** 
 356:TkShell.c     **** TK_SHELL_METHOD(rf, reset)
 357:TkShell.c     **** {
 358:TkShell.c     ****   PRINTF("> rf:%s\n", (cc85xx_sys_reset()) ? OK_STR : ER_STR);
 359:TkShell.c     ****   return 0;
 360:TkShell.c     **** }
 361:TkShell.c     **** 
 362:TkShell.c     **** TK_SHELL_METHOD(rf, bl_reset)
 363:TkShell.c     **** {
 364:TkShell.c     ****   PRINTF("> rf:%s\n", (cc85xx_boot_reset()) ? OK_STR : ER_STR);
 365:TkShell.c     ****   return 0;
 366:TkShell.c     **** }
 367:TkShell.c     **** 
 368:TkShell.c     **** TK_SHELL_METHOD(rf, bl_unlock)
 369:TkShell.c     **** {
 370:TkShell.c     ****   PRINTF("> rf:%s\n", (cc85xx_bl_unlock_spi()) ? OK_STR : ER_STR);
 371:TkShell.c     ****   return 0;
 372:TkShell.c     **** }
ARM GAS  C:\Users\TERENC~1\AppData\Local\Temp\cc9BPywF.s 			page 8


 373:TkShell.c     **** 
 374:TkShell.c     **** TK_SHELL_METHOD(rf, bl_erase)
 375:TkShell.c     **** {
 376:TkShell.c     ****   PRINTF("> rf:%s\n", (cc85xx_bl_mass_erase()) ? OK_STR : ER_STR);
 377:TkShell.c     ****   return 0;
 378:TkShell.c     **** }
 379:TkShell.c     **** 
 380:TkShell.c     **** TK_SHELL_METHOD(rf, bl_verify)
 381:TkShell.c     **** {
 382:TkShell.c     ****   uint32_t crc;
 383:TkShell.c     ****   bool ret = cc85xx_bl_flash_verify(&crc);
 384:TkShell.c     **** 
 385:TkShell.c     ****   PRINTF("> rf:%s 0x%08X\n", (ret) ? OK_STR : ER_STR, crc);
 386:TkShell.c     **** 
 387:TkShell.c     ****   return 0;
 388:TkShell.c     **** }
 389:TkShell.c     **** 
 390:TkShell.c     **** TK_SHELL_METHOD(rf, bl_flash)
 391:TkShell.c     **** {
 392:TkShell.c     ****   int i = 2, j;
 393:TkShell.c     ****   uint16_t addr;
 394:TkShell.c     ****   uint8_t data[CMD_BUF_LEN];
 395:TkShell.c     ****   char hex[3];
 396:TkShell.c     ****   
 397:TkShell.c     ****   argc -= i;
 398:TkShell.c     ****   
 399:TkShell.c     ****   if (argc != 2)
 400:TkShell.c     ****   {
 401:TkShell.c     ****       PRINTF("Invalid number of arguments: %d\n", argc);
 402:TkShell.c     ****       return -1;
 403:TkShell.c     ****   }
 404:TkShell.c     ****   
 405:TkShell.c     ****   addr = strtoul(argv[i++], NULL, 16);
 406:TkShell.c     ****   
 407:TkShell.c     ****   for (j = 0; j < (int)strlen(argv[i]); j += 2)
 408:TkShell.c     ****   {
 409:TkShell.c     ****     hex[0] = argv[i][j];
 410:TkShell.c     ****     hex[1] = argv[i][j + 1];
 411:TkShell.c     ****     hex[2] = '\0';
 412:TkShell.c     ****     data[j/2] = strtoul(hex, NULL, 16);
 413:TkShell.c     ****   }
 414:TkShell.c     ****   
 415:TkShell.c     ****   PRINTF("> rf:%s\n", (cc85xx_flash_bytes(addr, data, j/2)) ? OK_STR : ER_STR);
 416:TkShell.c     ****   return 0;
 417:TkShell.c     **** }
 418:TkShell.c     **** 
 419:TkShell.c     **** TK_SHELL_METHOD(rf, status)
 420:TkShell.c     **** {
 421:TkShell.c     ****   PRINTF("> rf:ok 0x%04X\n", cc85xx_get_status());
 422:TkShell.c     ****   return 0;
 423:TkShell.c     **** }
 424:TkShell.c     **** 
 425:TkShell.c     **** TK_SHELL_METHOD(rf, info)
 426:TkShell.c     **** {
 427:TkShell.c     ****   PRINTF("> rf:%s\n", (cc85xx_print_info()) ? OK_STR : ER_STR);
 428:TkShell.c     ****   return 0;
 429:TkShell.c     **** }
ARM GAS  C:\Users\TERENC~1\AppData\Local\Temp\cc9BPywF.s 			page 9


 430:TkShell.c     **** 
 431:TkShell.c     **** TK_SHELL_METHOD(sys, crash)
 432:TkShell.c     **** {
  28              		.loc 1 432 0
  29              		.cfi_startproc
  30              		@ args = 0, pretend = 0, frame = 0
  31              		@ frame_needed = 0, uses_anonymous_args = 0
  32              	.LVL0:
  33 0000 10B5     		push	{r4, lr}
  34              		.cfi_def_cfa_offset 8
  35              		.cfi_offset 4, -8
  36              		.cfi_offset 14, -4
  37              	.LVL1:
 433:TkShell.c     ****     void (*fp)(void) = NULL;
 434:TkShell.c     ****     
 435:TkShell.c     ****     fp();
  38              		.loc 1 435 0
  39 0002 0023     		movs	r3, #0
  40 0004 9847     		blx	r3
  41              	.LVL2:
 436:TkShell.c     ****     
 437:TkShell.c     ****     PRINTF("> sys:er\n");
  42              		.loc 1 437 0
  43 0006 FFF7FEFF 		bl	USBUART_GetConfiguration
  44              	.LVL3:
  45 000a 0028     		cmp	r0, #0
  46 000c 14D0     		beq	.L2
  47              	.LBB2:
  48              		.loc 1 437 0 is_stmt 0 discriminator 1
  49 000e 0B4B     		ldr	r3, .L5
  50 0010 1C68     		ldr	r4, [r3]
  51              	.LVL4:
  52              	.L4:
  53              		.loc 1 437 0 discriminator 5
  54 0012 FFF7FEFF 		bl	USBUART_CDCIsReady
  55              	.LVL5:
  56 0016 0028     		cmp	r0, #0
  57 0018 05D1     		bne	.L3
  58              		.loc 1 437 0 discriminator 3
  59 001a 084B     		ldr	r3, .L5
  60 001c 1B68     		ldr	r3, [r3]
  61 001e 1B1B     		subs	r3, r3, r4
  62 0020 074A     		ldr	r2, .L5+4
  63 0022 9342     		cmp	r3, r2
  64 0024 F5D9     		bls	.L4
  65              	.L3:
  66              		.loc 1 437 0 discriminator 6
  67 0026 074C     		ldr	r4, .L5+8
  68              	.LVL6:
  69 0028 0A22     		movs	r2, #10
  70 002a 0749     		ldr	r1, .L5+12
  71 002c 2000     		movs	r0, r4
  72 002e FFF7FEFF 		bl	memcpy
  73              	.LVL7:
  74 0032 2000     		movs	r0, r4
  75 0034 FFF7FEFF 		bl	USBUART_PutString
  76              	.LVL8:
ARM GAS  C:\Users\TERENC~1\AppData\Local\Temp\cc9BPywF.s 			page 10


  77              	.L2:
  78              	.LBE2:
 438:TkShell.c     ****     
 439:TkShell.c     ****     return 0;
 440:TkShell.c     **** }
  79              		.loc 1 440 0 is_stmt 1
  80 0038 0020     		movs	r0, #0
  81              		@ sp needed
  82 003a 10BD     		pop	{r4, pc}
  83              	.L6:
  84              		.align	2
  85              	.L5:
  86 003c 00000000 		.word	tmrCounter_ms
  87 0040 E7030000 		.word	999
  88 0044 00000000 		.word	gbuf
  89 0048 00000000 		.word	.LC2
  90              		.cfi_endproc
  91              	.LFE19:
  92              		.size	__tk_shell_sys_crash, .-__tk_shell_sys_crash
  93              		.section	.text.__tk_shell_gpio_config,"ax",%progbits
  94              		.align	2
  95              		.global	__tk_shell_gpio_config
  96              		.code	16
  97              		.thumb_func
  98              		.type	__tk_shell_gpio_config, %function
  99              	__tk_shell_gpio_config:
 100              	.LFB4:
 220:TkShell.c     ****     uint32_t port, pin, mode;
 101              		.loc 1 220 0
 102              		.cfi_startproc
 103              		@ args = 0, pretend = 0, frame = 0
 104              		@ frame_needed = 0, uses_anonymous_args = 0
 105              	.LVL9:
 106 0000 70B5     		push	{r4, r5, r6, lr}
 107              		.cfi_def_cfa_offset 16
 108              		.cfi_offset 4, -16
 109              		.cfi_offset 5, -12
 110              		.cfi_offset 6, -8
 111              		.cfi_offset 14, -4
 112 0002 0C00     		movs	r4, r1
 113              	.LVL10:
 226:TkShell.c     ****     {
 114              		.loc 1 226 0
 115 0004 0528     		cmp	r0, #5
 116 0006 1BD0     		beq	.L8
 228:TkShell.c     ****         return -1;
 117              		.loc 1 228 0
 118 0008 FFF7FEFF 		bl	USBUART_GetConfiguration
 119              	.LVL11:
 120 000c 0028     		cmp	r0, #0
 121 000e 30D0     		beq	.L12
 122              	.LBB3:
 228:TkShell.c     ****         return -1;
 123              		.loc 1 228 0 is_stmt 0 discriminator 1
 124 0010 194B     		ldr	r3, .L13
 125 0012 1C68     		ldr	r4, [r3]
 126              	.LVL12:
ARM GAS  C:\Users\TERENC~1\AppData\Local\Temp\cc9BPywF.s 			page 11


 127              	.L11:
 228:TkShell.c     ****         return -1;
 128              		.loc 1 228 0 discriminator 5
 129 0014 FFF7FEFF 		bl	USBUART_CDCIsReady
 130              	.LVL13:
 131 0018 0028     		cmp	r0, #0
 132 001a 05D1     		bne	.L10
 228:TkShell.c     ****         return -1;
 133              		.loc 1 228 0 discriminator 3
 134 001c 164B     		ldr	r3, .L13
 135 001e 1B68     		ldr	r3, [r3]
 136 0020 1B1B     		subs	r3, r3, r4
 137 0022 164A     		ldr	r2, .L13+4
 138 0024 9342     		cmp	r3, r2
 139 0026 F5D9     		bls	.L11
 140              	.L10:
 228:TkShell.c     ****         return -1;
 141              		.loc 1 228 0 discriminator 6
 142 0028 154C     		ldr	r4, .L13+8
 143              	.LVL14:
 144 002a 1E22     		movs	r2, #30
 145 002c 1549     		ldr	r1, .L13+12
 146 002e 2000     		movs	r0, r4
 147 0030 FFF7FEFF 		bl	memcpy
 148              	.LVL15:
 149 0034 2000     		movs	r0, r4
 150 0036 FFF7FEFF 		bl	USBUART_PutString
 151              	.LVL16:
 152              	.LBE3:
 229:TkShell.c     ****     }
 153              		.loc 1 229 0 is_stmt 1 discriminator 6
 154 003a 0120     		movs	r0, #1
 155 003c 4042     		rsbs	r0, r0, #0
 156 003e 1AE0     		b	.L9
 157              	.LVL17:
 158              	.L8:
 232:TkShell.c     ****     pin = atoi(argv[i++]);
 159              		.loc 1 232 0
 160 0040 8868     		ldr	r0, [r1, #8]
 161              	.LVL18:
 162 0042 FFF7FEFF 		bl	atoi
 163              	.LVL19:
 164 0046 0600     		movs	r6, r0
 165              	.LVL20:
 233:TkShell.c     ****     mode = atoi(argv[i]);
 166              		.loc 1 233 0
 167 0048 E068     		ldr	r0, [r4, #12]
 168              	.LVL21:
 169 004a FFF7FEFF 		bl	atoi
 170              	.LVL22:
 171 004e 0500     		movs	r5, r0
 172              	.LVL23:
 234:TkShell.c     ****     
 173              		.loc 1 234 0
 174 0050 2069     		ldr	r0, [r4, #16]
 175              	.LVL24:
 176 0052 FFF7FEFF 		bl	atoi
ARM GAS  C:\Users\TERENC~1\AppData\Local\Temp\cc9BPywF.s 			page 12


 177              	.LVL25:
 236:TkShell.c     ****     
 178              		.loc 1 236 0
 179 0056 B600     		lsls	r6, r6, #2
 180              	.LVL26:
 181 0058 0B4B     		ldr	r3, .L13+16
 182 005a F158     		ldr	r1, [r6, r3]
 183 005c 0B68     		ldr	r3, [r1]
 184 005e 6A00     		lsls	r2, r5, #1
 185 0060 5519     		adds	r5, r2, r5
 186              	.LVL27:
 187 0062 0722     		movs	r2, #7
 188 0064 AA40     		lsls	r2, r2, r5
 189 0066 9343     		bics	r3, r2
 190 0068 A840     		lsls	r0, r0, r5
 191              	.LVL28:
 192 006a 1843     		orrs	r0, r3
 193 006c 0860     		str	r0, [r1]
 238:TkShell.c     **** }
 194              		.loc 1 238 0
 195 006e 0020     		movs	r0, #0
 196 0070 01E0     		b	.L9
 197              	.LVL29:
 198              	.L12:
 229:TkShell.c     ****     }
 199              		.loc 1 229 0
 200 0072 0120     		movs	r0, #1
 201 0074 4042     		rsbs	r0, r0, #0
 202              	.LVL30:
 203              	.L9:
 239:TkShell.c     **** 
 204              		.loc 1 239 0
 205              		@ sp needed
 206 0076 70BD     		pop	{r4, r5, r6, pc}
 207              	.L14:
 208              		.align	2
 209              	.L13:
 210 0078 00000000 		.word	tmrCounter_ms
 211 007c E7030000 		.word	999
 212 0080 00000000 		.word	gbuf
 213 0084 0C000000 		.word	.LC6
 214 0088 00000000 		.word	.LANCHOR0
 215              		.cfi_endproc
 216              	.LFE4:
 217              		.size	__tk_shell_gpio_config, .-__tk_shell_gpio_config
 218              		.section	.text.__tk_shell_gpio_set,"ax",%progbits
 219              		.align	2
 220              		.global	__tk_shell_gpio_set
 221              		.code	16
 222              		.thumb_func
 223              		.type	__tk_shell_gpio_set, %function
 224              	__tk_shell_gpio_set:
 225              	.LFB3:
 188:TkShell.c     ****     uint32_t port, pin, state;
 226              		.loc 1 188 0
 227              		.cfi_startproc
 228              		@ args = 0, pretend = 0, frame = 0
ARM GAS  C:\Users\TERENC~1\AppData\Local\Temp\cc9BPywF.s 			page 13


 229              		@ frame_needed = 0, uses_anonymous_args = 0
 230              	.LVL31:
 231 0000 70B5     		push	{r4, r5, r6, lr}
 232              		.cfi_def_cfa_offset 16
 233              		.cfi_offset 4, -16
 234              		.cfi_offset 5, -12
 235              		.cfi_offset 6, -8
 236              		.cfi_offset 14, -4
 237 0002 0C00     		movs	r4, r1
 238              	.LVL32:
 194:TkShell.c     ****     {
 239              		.loc 1 194 0
 240 0004 0528     		cmp	r0, #5
 241 0006 1BD0     		beq	.L16
 196:TkShell.c     ****         return -1;
 242              		.loc 1 196 0
 243 0008 FFF7FEFF 		bl	USBUART_GetConfiguration
 244              	.LVL33:
 245 000c 0028     		cmp	r0, #0
 246 000e 5BD0     		beq	.L24
 247              	.LBB4:
 196:TkShell.c     ****         return -1;
 248              		.loc 1 196 0 is_stmt 0 discriminator 1
 249 0010 304B     		ldr	r3, .L26
 250 0012 1C68     		ldr	r4, [r3]
 251              	.LVL34:
 252              	.L19:
 196:TkShell.c     ****         return -1;
 253              		.loc 1 196 0 discriminator 5
 254 0014 FFF7FEFF 		bl	USBUART_CDCIsReady
 255              	.LVL35:
 256 0018 0028     		cmp	r0, #0
 257 001a 05D1     		bne	.L18
 196:TkShell.c     ****         return -1;
 258              		.loc 1 196 0 discriminator 3
 259 001c 2D4B     		ldr	r3, .L26
 260 001e 1B68     		ldr	r3, [r3]
 261 0020 1B1B     		subs	r3, r3, r4
 262 0022 2D4A     		ldr	r2, .L26+4
 263 0024 9342     		cmp	r3, r2
 264 0026 F5D9     		bls	.L19
 265              	.L18:
 196:TkShell.c     ****         return -1;
 266              		.loc 1 196 0 discriminator 6
 267 0028 2C4C     		ldr	r4, .L26+8
 268              	.LVL36:
 269 002a 1E22     		movs	r2, #30
 270 002c 2C49     		ldr	r1, .L26+12
 271 002e 2000     		movs	r0, r4
 272 0030 FFF7FEFF 		bl	memcpy
 273              	.LVL37:
 274 0034 2000     		movs	r0, r4
 275 0036 FFF7FEFF 		bl	USBUART_PutString
 276              	.LVL38:
 277              	.LBE4:
 197:TkShell.c     ****     }
 278              		.loc 1 197 0 is_stmt 1 discriminator 6
ARM GAS  C:\Users\TERENC~1\AppData\Local\Temp\cc9BPywF.s 			page 14


 279 003a 0120     		movs	r0, #1
 280 003c 4042     		rsbs	r0, r0, #0
 281 003e 47E0     		b	.L17
 282              	.LVL39:
 283              	.L16:
 200:TkShell.c     ****     pin = atoi(argv[i++]);
 284              		.loc 1 200 0
 285 0040 8868     		ldr	r0, [r1, #8]
 286              	.LVL40:
 287 0042 FFF7FEFF 		bl	atoi
 288              	.LVL41:
 289 0046 0600     		movs	r6, r0
 290              	.LVL42:
 201:TkShell.c     ****     state = atoi(argv[i]);
 291              		.loc 1 201 0
 292 0048 E068     		ldr	r0, [r4, #12]
 293              	.LVL43:
 294 004a FFF7FEFF 		bl	atoi
 295              	.LVL44:
 296 004e 0500     		movs	r5, r0
 297              	.LVL45:
 202:TkShell.c     ****     
 298              		.loc 1 202 0
 299 0050 2069     		ldr	r0, [r4, #16]
 300              	.LVL46:
 301 0052 FFF7FEFF 		bl	atoi
 302              	.LVL47:
 204:TkShell.c     **** 
 303              		.loc 1 204 0
 304 0056 B600     		lsls	r6, r6, #2
 305              	.LVL48:
 306 0058 224B     		ldr	r3, .L26+16
 307 005a F658     		ldr	r6, [r6, r3]
 308 005c 3368     		ldr	r3, [r6]
 309 005e 6A00     		lsls	r2, r5, #1
 310 0060 5219     		adds	r2, r2, r5
 311 0062 0721     		movs	r1, #7
 312 0064 9140     		lsls	r1, r1, r2
 313 0066 8B43     		bics	r3, r1
 314 0068 1900     		movs	r1, r3
 315 006a 0623     		movs	r3, #6
 316 006c 9340     		lsls	r3, r3, r2
 317 006e 0B43     		orrs	r3, r1
 318 0070 3360     		str	r3, [r6]
 206:TkShell.c     ****     {
 319              		.loc 1 206 0
 320 0072 0028     		cmp	r0, #0
 321 0074 05D0     		beq	.L20
 208:TkShell.c     ****     }
 322              		.loc 1 208 0
 323 0076 3268     		ldr	r2, [r6]
 324 0078 0123     		movs	r3, #1
 325 007a AB40     		lsls	r3, r3, r5
 326 007c 1343     		orrs	r3, r2
 327 007e 3360     		str	r3, [r6]
 328 0080 04E0     		b	.L21
 329              	.L20:
ARM GAS  C:\Users\TERENC~1\AppData\Local\Temp\cc9BPywF.s 			page 15


 212:TkShell.c     ****     }
 330              		.loc 1 212 0
 331 0082 3368     		ldr	r3, [r6]
 332 0084 0122     		movs	r2, #1
 333 0086 AA40     		lsls	r2, r2, r5
 334 0088 9343     		bics	r3, r2
 335 008a 3360     		str	r3, [r6]
 336              	.L21:
 215:TkShell.c     ****     return 0;
 337              		.loc 1 215 0
 338 008c FFF7FEFF 		bl	USBUART_GetConfiguration
 339              	.LVL49:
 340 0090 0028     		cmp	r0, #0
 341 0092 1CD0     		beq	.L25
 342              	.LBB5:
 215:TkShell.c     ****     return 0;
 343              		.loc 1 215 0 is_stmt 0 discriminator 1
 344 0094 0F4B     		ldr	r3, .L26
 345 0096 1C68     		ldr	r4, [r3]
 346              	.LVL50:
 347              	.L23:
 215:TkShell.c     ****     return 0;
 348              		.loc 1 215 0 discriminator 5
 349 0098 FFF7FEFF 		bl	USBUART_CDCIsReady
 350              	.LVL51:
 351 009c 0028     		cmp	r0, #0
 352 009e 05D1     		bne	.L22
 215:TkShell.c     ****     return 0;
 353              		.loc 1 215 0 discriminator 3
 354 00a0 0C4B     		ldr	r3, .L26
 355 00a2 1B68     		ldr	r3, [r3]
 356 00a4 1B1B     		subs	r3, r3, r4
 357 00a6 0C4A     		ldr	r2, .L26+4
 358 00a8 9342     		cmp	r3, r2
 359 00aa F5D9     		bls	.L23
 360              	.L22:
 215:TkShell.c     ****     return 0;
 361              		.loc 1 215 0 discriminator 6
 362 00ac 3268     		ldr	r2, [r6]
 363 00ae EA40     		lsrs	r2, r2, r5
 364 00b0 0123     		movs	r3, #1
 365 00b2 1A40     		ands	r2, r3
 366 00b4 094C     		ldr	r4, .L26+8
 367              	.LVL52:
 368 00b6 0C49     		ldr	r1, .L26+20
 369 00b8 2000     		movs	r0, r4
 370 00ba FFF7FEFF 		bl	sprintf
 371              	.LVL53:
 372 00be 2000     		movs	r0, r4
 373 00c0 FFF7FEFF 		bl	USBUART_PutString
 374              	.LVL54:
 375              	.LBE5:
 216:TkShell.c     **** }
 376              		.loc 1 216 0 is_stmt 1 discriminator 6
 377 00c4 0020     		movs	r0, #0
 378 00c6 03E0     		b	.L17
 379              	.LVL55:
ARM GAS  C:\Users\TERENC~1\AppData\Local\Temp\cc9BPywF.s 			page 16


 380              	.L24:
 197:TkShell.c     ****     }
 381              		.loc 1 197 0
 382 00c8 0120     		movs	r0, #1
 383 00ca 4042     		rsbs	r0, r0, #0
 384 00cc 00E0     		b	.L17
 385              	.LVL56:
 386              	.L25:
 216:TkShell.c     **** }
 387              		.loc 1 216 0
 388 00ce 0020     		movs	r0, #0
 389              	.LVL57:
 390              	.L17:
 217:TkShell.c     **** 
 391              		.loc 1 217 0
 392              		@ sp needed
 393 00d0 70BD     		pop	{r4, r5, r6, pc}
 394              	.L27:
 395 00d2 C046     		.align	2
 396              	.L26:
 397 00d4 00000000 		.word	tmrCounter_ms
 398 00d8 E7030000 		.word	999
 399 00dc 00000000 		.word	gbuf
 400 00e0 0C000000 		.word	.LC6
 401 00e4 00000000 		.word	.LANCHOR0
 402 00e8 2C000000 		.word	.LC13
 403              		.cfi_endproc
 404              	.LFE3:
 405              		.size	__tk_shell_gpio_set, .-__tk_shell_gpio_set
 406              		.section	.text.__tk_shell_gpio_get,"ax",%progbits
 407              		.align	2
 408              		.global	__tk_shell_gpio_get
 409              		.code	16
 410              		.thumb_func
 411              		.type	__tk_shell_gpio_get, %function
 412              	__tk_shell_gpio_get:
 413              	.LFB5:
 242:TkShell.c     ****     uint32_t port, pin;
 414              		.loc 1 242 0
 415              		.cfi_startproc
 416              		@ args = 0, pretend = 0, frame = 0
 417              		@ frame_needed = 0, uses_anonymous_args = 0
 418              	.LVL58:
 419 0000 70B5     		push	{r4, r5, r6, lr}
 420              		.cfi_def_cfa_offset 16
 421              		.cfi_offset 4, -16
 422              		.cfi_offset 5, -12
 423              		.cfi_offset 6, -8
 424              		.cfi_offset 14, -4
 425 0002 0D00     		movs	r5, r1
 426              	.LVL59:
 248:TkShell.c     ****     {
 427              		.loc 1 248 0
 428 0004 0428     		cmp	r0, #4
 429 0006 1BD0     		beq	.L29
 250:TkShell.c     ****         return -1;
 430              		.loc 1 250 0
ARM GAS  C:\Users\TERENC~1\AppData\Local\Temp\cc9BPywF.s 			page 17


 431 0008 FFF7FEFF 		bl	USBUART_GetConfiguration
 432              	.LVL60:
 433 000c 0028     		cmp	r0, #0
 434 000e 40D0     		beq	.L35
 435              	.LBB6:
 250:TkShell.c     ****         return -1;
 436              		.loc 1 250 0 is_stmt 0 discriminator 1
 437 0010 224B     		ldr	r3, .L37
 438 0012 1C68     		ldr	r4, [r3]
 439              	.LVL61:
 440              	.L32:
 250:TkShell.c     ****         return -1;
 441              		.loc 1 250 0 discriminator 5
 442 0014 FFF7FEFF 		bl	USBUART_CDCIsReady
 443              	.LVL62:
 444 0018 0028     		cmp	r0, #0
 445 001a 05D1     		bne	.L31
 250:TkShell.c     ****         return -1;
 446              		.loc 1 250 0 discriminator 3
 447 001c 1F4B     		ldr	r3, .L37
 448 001e 1B68     		ldr	r3, [r3]
 449 0020 1B1B     		subs	r3, r3, r4
 450 0022 1F4A     		ldr	r2, .L37+4
 451 0024 9342     		cmp	r3, r2
 452 0026 F5D9     		bls	.L32
 453              	.L31:
 250:TkShell.c     ****         return -1;
 454              		.loc 1 250 0 discriminator 6
 455 0028 1E4C     		ldr	r4, .L37+8
 456              	.LVL63:
 457 002a 1E22     		movs	r2, #30
 458 002c 1E49     		ldr	r1, .L37+12
 459 002e 2000     		movs	r0, r4
 460 0030 FFF7FEFF 		bl	memcpy
 461              	.LVL64:
 462 0034 2000     		movs	r0, r4
 463 0036 FFF7FEFF 		bl	USBUART_PutString
 464              	.LVL65:
 465              	.LBE6:
 251:TkShell.c     ****     }
 466              		.loc 1 251 0 is_stmt 1 discriminator 6
 467 003a 0120     		movs	r0, #1
 468 003c 4042     		rsbs	r0, r0, #0
 469 003e 2CE0     		b	.L30
 470              	.LVL66:
 471              	.L29:
 254:TkShell.c     ****     pin = atoi(argv[i]);
 472              		.loc 1 254 0
 473 0040 8868     		ldr	r0, [r1, #8]
 474              	.LVL67:
 475 0042 FFF7FEFF 		bl	atoi
 476              	.LVL68:
 477 0046 0400     		movs	r4, r0
 478              	.LVL69:
 255:TkShell.c     ****     
 479              		.loc 1 255 0
 480 0048 E868     		ldr	r0, [r5, #12]
ARM GAS  C:\Users\TERENC~1\AppData\Local\Temp\cc9BPywF.s 			page 18


 481              	.LVL70:
 482 004a FFF7FEFF 		bl	atoi
 483              	.LVL71:
 484 004e 0500     		movs	r5, r0
 485              	.LVL72:
 257:TkShell.c     ****     
 486              		.loc 1 257 0
 487 0050 FFF7FEFF 		bl	USBUART_GetConfiguration
 488              	.LVL73:
 489 0054 0028     		cmp	r0, #0
 490 0056 1FD0     		beq	.L36
 491              	.LBB7:
 257:TkShell.c     ****     
 492              		.loc 1 257 0 is_stmt 0 discriminator 1
 493 0058 104B     		ldr	r3, .L37
 494 005a 1E68     		ldr	r6, [r3]
 495              	.LVL74:
 496              	.L34:
 257:TkShell.c     ****     
 497              		.loc 1 257 0 discriminator 5
 498 005c FFF7FEFF 		bl	USBUART_CDCIsReady
 499              	.LVL75:
 500 0060 0028     		cmp	r0, #0
 501 0062 05D1     		bne	.L33
 257:TkShell.c     ****     
 502              		.loc 1 257 0 discriminator 3
 503 0064 0D4B     		ldr	r3, .L37
 504 0066 1B68     		ldr	r3, [r3]
 505 0068 9B1B     		subs	r3, r3, r6
 506 006a 0D4A     		ldr	r2, .L37+4
 507 006c 9342     		cmp	r3, r2
 508 006e F5D9     		bls	.L34
 509              	.L33:
 257:TkShell.c     ****     
 510              		.loc 1 257 0 discriminator 6
 511 0070 A400     		lsls	r4, r4, #2
 512              	.LVL76:
 513 0072 0E4B     		ldr	r3, .L37+16
 514 0074 E358     		ldr	r3, [r4, r3]
 515 0076 1A68     		ldr	r2, [r3]
 516 0078 EA40     		lsrs	r2, r2, r5
 517 007a 0123     		movs	r3, #1
 518 007c 1A40     		ands	r2, r3
 519 007e 094C     		ldr	r4, .L37+8
 520 0080 0B49     		ldr	r1, .L37+20
 521 0082 2000     		movs	r0, r4
 522 0084 FFF7FEFF 		bl	sprintf
 523              	.LVL77:
 524 0088 2000     		movs	r0, r4
 525 008a FFF7FEFF 		bl	USBUART_PutString
 526              	.LVL78:
 527              	.LBE7:
 259:TkShell.c     **** }
 528              		.loc 1 259 0 is_stmt 1 discriminator 6
 529 008e 0020     		movs	r0, #0
 530 0090 03E0     		b	.L30
 531              	.LVL79:
ARM GAS  C:\Users\TERENC~1\AppData\Local\Temp\cc9BPywF.s 			page 19


 532              	.L35:
 251:TkShell.c     ****     }
 533              		.loc 1 251 0
 534 0092 0120     		movs	r0, #1
 535 0094 4042     		rsbs	r0, r0, #0
 536 0096 00E0     		b	.L30
 537              	.LVL80:
 538              	.L36:
 259:TkShell.c     **** }
 539              		.loc 1 259 0
 540 0098 0020     		movs	r0, #0
 541              	.LVL81:
 542              	.L30:
 260:TkShell.c     **** 
 543              		.loc 1 260 0
 544              		@ sp needed
 545 009a 70BD     		pop	{r4, r5, r6, pc}
 546              	.L38:
 547              		.align	2
 548              	.L37:
 549 009c 00000000 		.word	tmrCounter_ms
 550 00a0 E7030000 		.word	999
 551 00a4 00000000 		.word	gbuf
 552 00a8 0C000000 		.word	.LC6
 553 00ac 00000000 		.word	.LANCHOR0
 554 00b0 2C000000 		.word	.LC13
 555              		.cfi_endproc
 556              	.LFE5:
 557              		.size	__tk_shell_gpio_get, .-__tk_shell_gpio_get
 558              		.section	.text.__tk_shell_sys_info,"ax",%progbits
 559              		.align	2
 560              		.global	__tk_shell_sys_info
 561              		.code	16
 562              		.thumb_func
 563              		.type	__tk_shell_sys_info, %function
 564              	__tk_shell_sys_info:
 565              	.LFB20:
 441:TkShell.c     **** 
 442:TkShell.c     **** TK_SHELL_METHOD(sys, info)
 443:TkShell.c     **** {
 566              		.loc 1 443 0
 567              		.cfi_startproc
 568              		@ args = 0, pretend = 0, frame = 0
 569              		@ frame_needed = 0, uses_anonymous_args = 0
 570              	.LVL82:
 571 0000 10B5     		push	{r4, lr}
 572              		.cfi_def_cfa_offset 8
 573              		.cfi_offset 4, -8
 574              		.cfi_offset 14, -4
 444:TkShell.c     ****     PRINTF("> sys:ok %08lu\n", (unsigned long)tmrGetCounter_ms());
 575              		.loc 1 444 0
 576 0002 FFF7FEFF 		bl	USBUART_GetConfiguration
 577              	.LVL83:
 578 0006 0028     		cmp	r0, #0
 579 0008 15D0     		beq	.L40
 580              	.LBB8:
 581              		.loc 1 444 0 is_stmt 0 discriminator 1
ARM GAS  C:\Users\TERENC~1\AppData\Local\Temp\cc9BPywF.s 			page 20


 582 000a 0C4B     		ldr	r3, .L43
 583 000c 1C68     		ldr	r4, [r3]
 584              	.LVL84:
 585              	.L42:
 586              		.loc 1 444 0 discriminator 5
 587 000e FFF7FEFF 		bl	USBUART_CDCIsReady
 588              	.LVL85:
 589 0012 0028     		cmp	r0, #0
 590 0014 05D1     		bne	.L41
 591              		.loc 1 444 0 discriminator 3
 592 0016 094B     		ldr	r3, .L43
 593 0018 1B68     		ldr	r3, [r3]
 594 001a 1B1B     		subs	r3, r3, r4
 595 001c 084A     		ldr	r2, .L43+4
 596 001e 9342     		cmp	r3, r2
 597 0020 F5D9     		bls	.L42
 598              	.L41:
 599              		.loc 1 444 0 discriminator 6
 600 0022 064B     		ldr	r3, .L43
 601 0024 1A68     		ldr	r2, [r3]
 602 0026 074C     		ldr	r4, .L43+8
 603              	.LVL86:
 604 0028 0749     		ldr	r1, .L43+12
 605 002a 2000     		movs	r0, r4
 606 002c FFF7FEFF 		bl	sprintf
 607              	.LVL87:
 608 0030 2000     		movs	r0, r4
 609 0032 FFF7FEFF 		bl	USBUART_PutString
 610              	.LVL88:
 611              	.L40:
 612              	.LBE8:
 445:TkShell.c     **** 
 446:TkShell.c     ****     return 0;
 447:TkShell.c     **** }
 613              		.loc 1 447 0 is_stmt 1
 614 0036 0020     		movs	r0, #0
 615              		@ sp needed
 616 0038 10BD     		pop	{r4, pc}
 617              	.L44:
 618 003a C046     		.align	2
 619              	.L43:
 620 003c 00000000 		.word	tmrCounter_ms
 621 0040 E7030000 		.word	999
 622 0044 00000000 		.word	gbuf
 623 0048 3C000000 		.word	.LC21
 624              		.cfi_endproc
 625              	.LFE20:
 626              		.size	__tk_shell_sys_info, .-__tk_shell_sys_info
 627              		.section	.text.__tk_shell_sys_adc,"ax",%progbits
 628              		.align	2
 629              		.global	__tk_shell_sys_adc
 630              		.code	16
 631              		.thumb_func
 632              		.type	__tk_shell_sys_adc, %function
 633              	__tk_shell_sys_adc:
 634              	.LFB22:
 448:TkShell.c     **** 
ARM GAS  C:\Users\TERENC~1\AppData\Local\Temp\cc9BPywF.s 			page 21


 449:TkShell.c     **** TK_SHELL_METHOD(sys, reset)
 450:TkShell.c     **** {
 451:TkShell.c     ****     CySoftwareReset();
 452:TkShell.c     ****     
 453:TkShell.c     ****     return 0;
 454:TkShell.c     **** }
 455:TkShell.c     **** 
 456:TkShell.c     **** TK_SHELL_METHOD(sys, adc)
 457:TkShell.c     **** {
 635              		.loc 1 457 0
 636              		.cfi_startproc
 637              		@ args = 0, pretend = 0, frame = 0
 638              		@ frame_needed = 0, uses_anonymous_args = 0
 639              	.LVL89:
 640 0000 10B5     		push	{r4, lr}
 641              		.cfi_def_cfa_offset 8
 642              		.cfi_offset 4, -8
 643              		.cfi_offset 14, -4
 458:TkShell.c     ****     PRINTF("> sys:ok %d,%d\n", adcSample[vol_ctrl_left], adcSample[vol_ctrl_right]);
 644              		.loc 1 458 0
 645 0002 FFF7FEFF 		bl	USBUART_GetConfiguration
 646              	.LVL90:
 647 0006 0028     		cmp	r0, #0
 648 0008 18D0     		beq	.L46
 649              	.LBB9:
 650              		.loc 1 458 0 is_stmt 0 discriminator 1
 651 000a 0D4B     		ldr	r3, .L49
 652 000c 1C68     		ldr	r4, [r3]
 653              	.LVL91:
 654              	.L48:
 655              		.loc 1 458 0 discriminator 5
 656 000e FFF7FEFF 		bl	USBUART_CDCIsReady
 657              	.LVL92:
 658 0012 0028     		cmp	r0, #0
 659 0014 05D1     		bne	.L47
 660              		.loc 1 458 0 discriminator 3
 661 0016 0A4B     		ldr	r3, .L49
 662 0018 1B68     		ldr	r3, [r3]
 663 001a 1B1B     		subs	r3, r3, r4
 664 001c 094A     		ldr	r2, .L49+4
 665 001e 9342     		cmp	r3, r2
 666 0020 F5D9     		bls	.L48
 667              	.L47:
 668              		.loc 1 458 0 discriminator 6
 669 0022 094B     		ldr	r3, .L49+8
 670 0024 0221     		movs	r1, #2
 671 0026 5A5E     		ldrsh	r2, [r3, r1]
 672 0028 0021     		movs	r1, #0
 673 002a 5B5E     		ldrsh	r3, [r3, r1]
 674 002c 074C     		ldr	r4, .L49+12
 675              	.LVL93:
 676 002e 0849     		ldr	r1, .L49+16
 677 0030 2000     		movs	r0, r4
 678 0032 FFF7FEFF 		bl	sprintf
 679              	.LVL94:
 680 0036 2000     		movs	r0, r4
 681 0038 FFF7FEFF 		bl	USBUART_PutString
ARM GAS  C:\Users\TERENC~1\AppData\Local\Temp\cc9BPywF.s 			page 22


 682              	.LVL95:
 683              	.L46:
 684              	.LBE9:
 459:TkShell.c     ****     
 460:TkShell.c     ****     return 0;
 461:TkShell.c     **** }
 685              		.loc 1 461 0 is_stmt 1
 686 003c 0020     		movs	r0, #0
 687              		@ sp needed
 688 003e 10BD     		pop	{r4, pc}
 689              	.L50:
 690              		.align	2
 691              	.L49:
 692 0040 00000000 		.word	tmrCounter_ms
 693 0044 E7030000 		.word	999
 694 0048 00000000 		.word	adcSample
 695 004c 00000000 		.word	gbuf
 696 0050 4C000000 		.word	.LC26
 697              		.cfi_endproc
 698              	.LFE22:
 699              		.size	__tk_shell_sys_adc, .-__tk_shell_sys_adc
 700              		.section	.text.__tk_shell_cal_print,"ax",%progbits
 701              		.align	2
 702              		.global	__tk_shell_cal_print
 703              		.code	16
 704              		.thumb_func
 705              		.type	__tk_shell_cal_print, %function
 706              	__tk_shell_cal_print:
 707              	.LFB25:
 462:TkShell.c     **** 
 463:TkShell.c     **** TK_SHELL_METHOD(led, start)
 464:TkShell.c     **** {
 465:TkShell.c     ****     int i = 2;
 466:TkShell.c     ****     LM_LED_e ledIdx = LM_LED_MAX;
 467:TkShell.c     ****     uint32_t pwmPeriod, pwmCompare, pwmCounter;
 468:TkShell.c     ****     
 469:TkShell.c     ****     argc -= i;
 470:TkShell.c     ****     
 471:TkShell.c     ****     if (argc != 4)
 472:TkShell.c     ****     {
 473:TkShell.c     ****         PRINTF("Invalid number of arguments: %d\n", argc);
 474:TkShell.c     ****         return -1;
 475:TkShell.c     ****     }
 476:TkShell.c     ****     
 477:TkShell.c     ****     if (strcicmp(argv[i], "red") == 0)
 478:TkShell.c     ****     {
 479:TkShell.c     ****         ledIdx = LM_LED_RED;
 480:TkShell.c     ****     }
 481:TkShell.c     ****     else if (strcicmp(argv[i], "green") == 0)
 482:TkShell.c     ****     {
 483:TkShell.c     ****         ledIdx = LM_LED_GREEN;
 484:TkShell.c     ****     }
 485:TkShell.c     ****     else if (strcicmp(argv[i], "blue") == 0)
 486:TkShell.c     ****     {
 487:TkShell.c     ****         ledIdx = LM_LED_BLUE;
 488:TkShell.c     ****     }
 489:TkShell.c     ****     else
ARM GAS  C:\Users\TERENC~1\AppData\Local\Temp\cc9BPywF.s 			page 23


 490:TkShell.c     ****     {
 491:TkShell.c     ****         PRINTF("Invalid color %s, must be red|green|blue\n", argv[i]);
 492:TkShell.c     ****         return -2;
 493:TkShell.c     ****     }
 494:TkShell.c     ****     
 495:TkShell.c     ****     pwmPeriod = atoi(argv[i + 1]);
 496:TkShell.c     ****     pwmCompare = atoi(argv[i + 2]);
 497:TkShell.c     ****     pwmCounter = atoi(argv[i + 3]);
 498:TkShell.c     ****     
 499:TkShell.c     ****     LedManagerStartOverride(ledIdx, pwmPeriod, pwmCompare, pwmCounter);
 500:TkShell.c     ****     
 501:TkShell.c     ****     PRINTF("> led:ok\n");
 502:TkShell.c     **** 
 503:TkShell.c     ****     return 0;
 504:TkShell.c     **** }
 505:TkShell.c     **** 
 506:TkShell.c     **** TK_SHELL_METHOD(led, stop)
 507:TkShell.c     **** {
 508:TkShell.c     ****     int i = 2;
 509:TkShell.c     ****     LM_LED_e ledIdx = LM_LED_MAX;
 510:TkShell.c     ****     
 511:TkShell.c     ****     argc -= i;
 512:TkShell.c     ****     
 513:TkShell.c     ****     if (argc != 1)
 514:TkShell.c     ****     {
 515:TkShell.c     ****         PRINTF("Invalid number of arguments: %d\n", argc);
 516:TkShell.c     ****         return -1;
 517:TkShell.c     ****     }
 518:TkShell.c     ****     
 519:TkShell.c     ****     if (strcicmp(argv[i], "red") == 0)
 520:TkShell.c     ****     {
 521:TkShell.c     ****         ledIdx = LM_LED_RED;
 522:TkShell.c     ****     }
 523:TkShell.c     ****     else if (strcicmp(argv[i], "green") == 0)
 524:TkShell.c     ****     {
 525:TkShell.c     ****         ledIdx = LM_LED_GREEN;
 526:TkShell.c     ****     }
 527:TkShell.c     ****     else if (strcicmp(argv[i], "blue") == 0)
 528:TkShell.c     ****     {
 529:TkShell.c     ****         ledIdx = LM_LED_BLUE;
 530:TkShell.c     ****     }
 531:TkShell.c     ****     else
 532:TkShell.c     ****     {
 533:TkShell.c     ****         PRINTF("Invalid color %s, must be red|green|blue\n", argv[i]);
 534:TkShell.c     ****         return -2;
 535:TkShell.c     ****     }
 536:TkShell.c     ****     LedManagerStopOverride(ledIdx);
 537:TkShell.c     ****     
 538:TkShell.c     ****     PRINTF("> led:ok\n");
 539:TkShell.c     **** 
 540:TkShell.c     ****     return 0;
 541:TkShell.c     **** }
 542:TkShell.c     **** 
 543:TkShell.c     **** TK_SHELL_METHOD(cal, print)
 544:TkShell.c     **** {
 708              		.loc 1 544 0
 709              		.cfi_startproc
ARM GAS  C:\Users\TERENC~1\AppData\Local\Temp\cc9BPywF.s 			page 24


 710              		@ args = 0, pretend = 0, frame = 0
 711              		@ frame_needed = 0, uses_anonymous_args = 0
 712              	.LVL96:
 713 0000 10B5     		push	{r4, lr}
 714              		.cfi_def_cfa_offset 8
 715              		.cfi_offset 4, -8
 716              		.cfi_offset 14, -4
 545:TkShell.c     ****     PRINTF("sign = 0x%08X\n", (unsigned int)cal_data->signature);
 717              		.loc 1 545 0
 718 0002 FFF7FEFF 		bl	USBUART_GetConfiguration
 719              	.LVL97:
 720 0006 0028     		cmp	r0, #0
 721 0008 16D0     		beq	.L52
 722              	.LBB10:
 723              		.loc 1 545 0 is_stmt 0 discriminator 1
 724 000a 794B     		ldr	r3, .L79
 725 000c 1C68     		ldr	r4, [r3]
 726              	.LVL98:
 727              	.L54:
 728              		.loc 1 545 0 discriminator 5
 729 000e FFF7FEFF 		bl	USBUART_CDCIsReady
 730              	.LVL99:
 731 0012 0028     		cmp	r0, #0
 732 0014 05D1     		bne	.L53
 733              		.loc 1 545 0 discriminator 3
 734 0016 764B     		ldr	r3, .L79
 735 0018 1B68     		ldr	r3, [r3]
 736 001a 1B1B     		subs	r3, r3, r4
 737 001c 754A     		ldr	r2, .L79+4
 738 001e 9342     		cmp	r3, r2
 739 0020 F5D9     		bls	.L54
 740              	.L53:
 741              		.loc 1 545 0 discriminator 6
 742 0022 754B     		ldr	r3, .L79+8
 743 0024 1B68     		ldr	r3, [r3]
 744 0026 1A68     		ldr	r2, [r3]
 745 0028 744C     		ldr	r4, .L79+12
 746              	.LVL100:
 747 002a 7549     		ldr	r1, .L79+16
 748 002c 2000     		movs	r0, r4
 749 002e FFF7FEFF 		bl	sprintf
 750              	.LVL101:
 751 0032 2000     		movs	r0, r4
 752 0034 FFF7FEFF 		bl	USBUART_PutString
 753              	.LVL102:
 754              	.L52:
 755              	.LBE10:
 546:TkShell.c     ****     PRINTF("ctr = %lu\n", cal_data->counter);
 756              		.loc 1 546 0 is_stmt 1
 757 0038 FFF7FEFF 		bl	USBUART_GetConfiguration
 758              	.LVL103:
 759 003c 0028     		cmp	r0, #0
 760 003e 16D0     		beq	.L55
 761              	.LBB11:
 762              		.loc 1 546 0 is_stmt 0 discriminator 1
 763 0040 6B4B     		ldr	r3, .L79
 764 0042 1C68     		ldr	r4, [r3]
ARM GAS  C:\Users\TERENC~1\AppData\Local\Temp\cc9BPywF.s 			page 25


 765              	.LVL104:
 766              	.L57:
 767              		.loc 1 546 0 discriminator 5
 768 0044 FFF7FEFF 		bl	USBUART_CDCIsReady
 769              	.LVL105:
 770 0048 0028     		cmp	r0, #0
 771 004a 05D1     		bne	.L56
 772              		.loc 1 546 0 discriminator 3
 773 004c 684B     		ldr	r3, .L79
 774 004e 1B68     		ldr	r3, [r3]
 775 0050 1B1B     		subs	r3, r3, r4
 776 0052 684A     		ldr	r2, .L79+4
 777 0054 9342     		cmp	r3, r2
 778 0056 F5D9     		bls	.L57
 779              	.L56:
 780              		.loc 1 546 0 discriminator 6
 781 0058 674B     		ldr	r3, .L79+8
 782 005a 1B68     		ldr	r3, [r3]
 783 005c 5A68     		ldr	r2, [r3, #4]
 784 005e 674C     		ldr	r4, .L79+12
 785              	.LVL106:
 786 0060 6849     		ldr	r1, .L79+20
 787 0062 2000     		movs	r0, r4
 788 0064 FFF7FEFF 		bl	sprintf
 789              	.LVL107:
 790 0068 2000     		movs	r0, r4
 791 006a FFF7FEFF 		bl	USBUART_PutString
 792              	.LVL108:
 793              	.L55:
 794              	.LBE11:
 547:TkShell.c     ****     PRINTF("adc_min[R] = %d\n", cal_data->adc_min[vol_ctrl_right]);
 795              		.loc 1 547 0 is_stmt 1
 796 006e FFF7FEFF 		bl	USBUART_GetConfiguration
 797              	.LVL109:
 798 0072 0028     		cmp	r0, #0
 799 0074 17D0     		beq	.L58
 800              	.LBB12:
 801              		.loc 1 547 0 is_stmt 0 discriminator 1
 802 0076 5E4B     		ldr	r3, .L79
 803 0078 1C68     		ldr	r4, [r3]
 804              	.LVL110:
 805              	.L60:
 806              		.loc 1 547 0 discriminator 5
 807 007a FFF7FEFF 		bl	USBUART_CDCIsReady
 808              	.LVL111:
 809 007e 0028     		cmp	r0, #0
 810 0080 05D1     		bne	.L59
 811              		.loc 1 547 0 discriminator 3
 812 0082 5B4B     		ldr	r3, .L79
 813 0084 1B68     		ldr	r3, [r3]
 814 0086 1B1B     		subs	r3, r3, r4
 815 0088 5A4A     		ldr	r2, .L79+4
 816 008a 9342     		cmp	r3, r2
 817 008c F5D9     		bls	.L60
 818              	.L59:
 819              		.loc 1 547 0 discriminator 6
 820 008e 5A4B     		ldr	r3, .L79+8
ARM GAS  C:\Users\TERENC~1\AppData\Local\Temp\cc9BPywF.s 			page 26


 821 0090 1B68     		ldr	r3, [r3]
 822 0092 0822     		movs	r2, #8
 823 0094 9A5E     		ldrsh	r2, [r3, r2]
 824 0096 594C     		ldr	r4, .L79+12
 825              	.LVL112:
 826 0098 5B49     		ldr	r1, .L79+24
 827 009a 2000     		movs	r0, r4
 828 009c FFF7FEFF 		bl	sprintf
 829              	.LVL113:
 830 00a0 2000     		movs	r0, r4
 831 00a2 FFF7FEFF 		bl	USBUART_PutString
 832              	.LVL114:
 833              	.L58:
 834              	.LBE12:
 548:TkShell.c     ****     PRINTF("adc_max[R] = %d\n", cal_data->adc_max[vol_ctrl_right]);
 835              		.loc 1 548 0 is_stmt 1
 836 00a6 FFF7FEFF 		bl	USBUART_GetConfiguration
 837              	.LVL115:
 838 00aa 0028     		cmp	r0, #0
 839 00ac 17D0     		beq	.L61
 840              	.LBB13:
 841              		.loc 1 548 0 is_stmt 0 discriminator 1
 842 00ae 504B     		ldr	r3, .L79
 843 00b0 1C68     		ldr	r4, [r3]
 844              	.LVL116:
 845              	.L63:
 846              		.loc 1 548 0 discriminator 5
 847 00b2 FFF7FEFF 		bl	USBUART_CDCIsReady
 848              	.LVL117:
 849 00b6 0028     		cmp	r0, #0
 850 00b8 05D1     		bne	.L62
 851              		.loc 1 548 0 discriminator 3
 852 00ba 4D4B     		ldr	r3, .L79
 853 00bc 1B68     		ldr	r3, [r3]
 854 00be 1B1B     		subs	r3, r3, r4
 855 00c0 4C4A     		ldr	r2, .L79+4
 856 00c2 9342     		cmp	r3, r2
 857 00c4 F5D9     		bls	.L63
 858              	.L62:
 859              		.loc 1 548 0 discriminator 6
 860 00c6 4C4B     		ldr	r3, .L79+8
 861 00c8 1B68     		ldr	r3, [r3]
 862 00ca 0C22     		movs	r2, #12
 863 00cc 9A5E     		ldrsh	r2, [r3, r2]
 864 00ce 4B4C     		ldr	r4, .L79+12
 865              	.LVL118:
 866 00d0 4E49     		ldr	r1, .L79+28
 867 00d2 2000     		movs	r0, r4
 868 00d4 FFF7FEFF 		bl	sprintf
 869              	.LVL119:
 870 00d8 2000     		movs	r0, r4
 871 00da FFF7FEFF 		bl	USBUART_PutString
 872              	.LVL120:
 873              	.L61:
 874              	.LBE13:
 549:TkShell.c     ****     PRINTF("adc_min[L] = %d\n", cal_data->adc_min[vol_ctrl_left]);
 875              		.loc 1 549 0 is_stmt 1
ARM GAS  C:\Users\TERENC~1\AppData\Local\Temp\cc9BPywF.s 			page 27


 876 00de FFF7FEFF 		bl	USBUART_GetConfiguration
 877              	.LVL121:
 878 00e2 0028     		cmp	r0, #0
 879 00e4 17D0     		beq	.L64
 880              	.LBB14:
 881              		.loc 1 549 0 is_stmt 0 discriminator 1
 882 00e6 424B     		ldr	r3, .L79
 883 00e8 1C68     		ldr	r4, [r3]
 884              	.LVL122:
 885              	.L66:
 886              		.loc 1 549 0 discriminator 5
 887 00ea FFF7FEFF 		bl	USBUART_CDCIsReady
 888              	.LVL123:
 889 00ee 0028     		cmp	r0, #0
 890 00f0 05D1     		bne	.L65
 891              		.loc 1 549 0 discriminator 3
 892 00f2 3F4B     		ldr	r3, .L79
 893 00f4 1B68     		ldr	r3, [r3]
 894 00f6 1B1B     		subs	r3, r3, r4
 895 00f8 3E4A     		ldr	r2, .L79+4
 896 00fa 9342     		cmp	r3, r2
 897 00fc F5D9     		bls	.L66
 898              	.L65:
 899              		.loc 1 549 0 discriminator 6
 900 00fe 3E4B     		ldr	r3, .L79+8
 901 0100 1B68     		ldr	r3, [r3]
 902 0102 0A22     		movs	r2, #10
 903 0104 9A5E     		ldrsh	r2, [r3, r2]
 904 0106 3D4C     		ldr	r4, .L79+12
 905              	.LVL124:
 906 0108 4149     		ldr	r1, .L79+32
 907 010a 2000     		movs	r0, r4
 908 010c FFF7FEFF 		bl	sprintf
 909              	.LVL125:
 910 0110 2000     		movs	r0, r4
 911 0112 FFF7FEFF 		bl	USBUART_PutString
 912              	.LVL126:
 913              	.L64:
 914              	.LBE14:
 550:TkShell.c     ****     PRINTF("adc_max[L] = %d\n", cal_data->adc_max[vol_ctrl_left]);
 915              		.loc 1 550 0 is_stmt 1
 916 0116 FFF7FEFF 		bl	USBUART_GetConfiguration
 917              	.LVL127:
 918 011a 0028     		cmp	r0, #0
 919 011c 17D0     		beq	.L67
 920              	.LBB15:
 921              		.loc 1 550 0 is_stmt 0 discriminator 1
 922 011e 344B     		ldr	r3, .L79
 923 0120 1C68     		ldr	r4, [r3]
 924              	.LVL128:
 925              	.L69:
 926              		.loc 1 550 0 discriminator 5
 927 0122 FFF7FEFF 		bl	USBUART_CDCIsReady
 928              	.LVL129:
 929 0126 0028     		cmp	r0, #0
 930 0128 05D1     		bne	.L68
 931              		.loc 1 550 0 discriminator 3
ARM GAS  C:\Users\TERENC~1\AppData\Local\Temp\cc9BPywF.s 			page 28


 932 012a 314B     		ldr	r3, .L79
 933 012c 1B68     		ldr	r3, [r3]
 934 012e 1B1B     		subs	r3, r3, r4
 935 0130 304A     		ldr	r2, .L79+4
 936 0132 9342     		cmp	r3, r2
 937 0134 F5D9     		bls	.L69
 938              	.L68:
 939              		.loc 1 550 0 discriminator 6
 940 0136 304B     		ldr	r3, .L79+8
 941 0138 1B68     		ldr	r3, [r3]
 942 013a 0E22     		movs	r2, #14
 943 013c 9A5E     		ldrsh	r2, [r3, r2]
 944 013e 2F4C     		ldr	r4, .L79+12
 945              	.LVL130:
 946 0140 3449     		ldr	r1, .L79+36
 947 0142 2000     		movs	r0, r4
 948 0144 FFF7FEFF 		bl	sprintf
 949              	.LVL131:
 950 0148 2000     		movs	r0, r4
 951 014a FFF7FEFF 		bl	USBUART_PutString
 952              	.LVL132:
 953              	.L67:
 954              	.LBE15:
 551:TkShell.c     **** 
 552:TkShell.c     ****     PRINTF("led_max_brightness = %d\n", cal_data->led_max_brightness);
 955              		.loc 1 552 0 is_stmt 1
 956 014e FFF7FEFF 		bl	USBUART_GetConfiguration
 957              	.LVL133:
 958 0152 0028     		cmp	r0, #0
 959 0154 16D0     		beq	.L70
 960              	.LBB16:
 961              		.loc 1 552 0 is_stmt 0 discriminator 1
 962 0156 264B     		ldr	r3, .L79
 963 0158 1C68     		ldr	r4, [r3]
 964              	.LVL134:
 965              	.L72:
 966              		.loc 1 552 0 discriminator 5
 967 015a FFF7FEFF 		bl	USBUART_CDCIsReady
 968              	.LVL135:
 969 015e 0028     		cmp	r0, #0
 970 0160 05D1     		bne	.L71
 971              		.loc 1 552 0 discriminator 3
 972 0162 234B     		ldr	r3, .L79
 973 0164 1B68     		ldr	r3, [r3]
 974 0166 1B1B     		subs	r3, r3, r4
 975 0168 224A     		ldr	r2, .L79+4
 976 016a 9342     		cmp	r3, r2
 977 016c F5D9     		bls	.L72
 978              	.L71:
 979              		.loc 1 552 0 discriminator 6
 980 016e 224B     		ldr	r3, .L79+8
 981 0170 1B68     		ldr	r3, [r3]
 982 0172 1A7C     		ldrb	r2, [r3, #16]
 983 0174 214C     		ldr	r4, .L79+12
 984              	.LVL136:
 985 0176 2849     		ldr	r1, .L79+40
 986 0178 2000     		movs	r0, r4
ARM GAS  C:\Users\TERENC~1\AppData\Local\Temp\cc9BPywF.s 			page 29


 987 017a FFF7FEFF 		bl	sprintf
 988              	.LVL137:
 989 017e 2000     		movs	r0, r4
 990 0180 FFF7FEFF 		bl	USBUART_PutString
 991              	.LVL138:
 992              	.L70:
 993              	.LBE16:
 553:TkShell.c     ****     PRINTF("debug_mask = 0x%02X\n", (unsigned int)cal_data->debug_mask);
 994              		.loc 1 553 0 is_stmt 1
 995 0184 FFF7FEFF 		bl	USBUART_GetConfiguration
 996              	.LVL139:
 997 0188 0028     		cmp	r0, #0
 998 018a 16D0     		beq	.L73
 999              	.LBB17:
 1000              		.loc 1 553 0 is_stmt 0 discriminator 1
 1001 018c 184B     		ldr	r3, .L79
 1002 018e 1C68     		ldr	r4, [r3]
 1003              	.LVL140:
 1004              	.L75:
 1005              		.loc 1 553 0 discriminator 5
 1006 0190 FFF7FEFF 		bl	USBUART_CDCIsReady
 1007              	.LVL141:
 1008 0194 0028     		cmp	r0, #0
 1009 0196 05D1     		bne	.L74
 1010              		.loc 1 553 0 discriminator 3
 1011 0198 154B     		ldr	r3, .L79
 1012 019a 1B68     		ldr	r3, [r3]
 1013 019c 1B1B     		subs	r3, r3, r4
 1014 019e 154A     		ldr	r2, .L79+4
 1015 01a0 9342     		cmp	r3, r2
 1016 01a2 F5D9     		bls	.L75
 1017              	.L74:
 1018              		.loc 1 553 0 discriminator 6
 1019 01a4 144B     		ldr	r3, .L79+8
 1020 01a6 1B68     		ldr	r3, [r3]
 1021 01a8 5A7C     		ldrb	r2, [r3, #17]
 1022 01aa 144C     		ldr	r4, .L79+12
 1023              	.LVL142:
 1024 01ac 1B49     		ldr	r1, .L79+44
 1025 01ae 2000     		movs	r0, r4
 1026 01b0 FFF7FEFF 		bl	sprintf
 1027              	.LVL143:
 1028 01b4 2000     		movs	r0, r4
 1029 01b6 FFF7FEFF 		bl	USBUART_PutString
 1030              	.LVL144:
 1031              	.L73:
 1032              	.LBE17:
 554:TkShell.c     ****     PRINTF("> cal:ok\n");
 1033              		.loc 1 554 0 is_stmt 1
 1034 01ba FFF7FEFF 		bl	USBUART_GetConfiguration
 1035              	.LVL145:
 1036 01be 0028     		cmp	r0, #0
 1037 01c0 14D0     		beq	.L76
 1038              	.LBB18:
 1039              		.loc 1 554 0 is_stmt 0 discriminator 1
 1040 01c2 0B4B     		ldr	r3, .L79
 1041 01c4 1C68     		ldr	r4, [r3]
ARM GAS  C:\Users\TERENC~1\AppData\Local\Temp\cc9BPywF.s 			page 30


 1042              	.LVL146:
 1043              	.L78:
 1044              		.loc 1 554 0 discriminator 5
 1045 01c6 FFF7FEFF 		bl	USBUART_CDCIsReady
 1046              	.LVL147:
 1047 01ca 0028     		cmp	r0, #0
 1048 01cc 05D1     		bne	.L77
 1049              		.loc 1 554 0 discriminator 3
 1050 01ce 084B     		ldr	r3, .L79
 1051 01d0 1B68     		ldr	r3, [r3]
 1052 01d2 1B1B     		subs	r3, r3, r4
 1053 01d4 074A     		ldr	r2, .L79+4
 1054 01d6 9342     		cmp	r3, r2
 1055 01d8 F5D9     		bls	.L78
 1056              	.L77:
 1057              		.loc 1 554 0 discriminator 6
 1058 01da 084C     		ldr	r4, .L79+12
 1059              	.LVL148:
 1060 01dc 0A22     		movs	r2, #10
 1061 01de 1049     		ldr	r1, .L79+48
 1062 01e0 2000     		movs	r0, r4
 1063 01e2 FFF7FEFF 		bl	memcpy
 1064              	.LVL149:
 1065 01e6 2000     		movs	r0, r4
 1066 01e8 FFF7FEFF 		bl	USBUART_PutString
 1067              	.LVL150:
 1068              	.L76:
 1069              	.LBE18:
 555:TkShell.c     **** 
 556:TkShell.c     ****     return 0;    
 557:TkShell.c     **** }
 1070              		.loc 1 557 0 is_stmt 1
 1071 01ec 0020     		movs	r0, #0
 1072              		@ sp needed
 1073 01ee 10BD     		pop	{r4, pc}
 1074              	.L80:
 1075              		.align	2
 1076              	.L79:
 1077 01f0 00000000 		.word	tmrCounter_ms
 1078 01f4 E7030000 		.word	999
 1079 01f8 00000000 		.word	cal_data
 1080 01fc 00000000 		.word	gbuf
 1081 0200 5C000000 		.word	.LC31
 1082 0204 6C000000 		.word	.LC34
 1083 0208 78000000 		.word	.LC36
 1084 020c 8C000000 		.word	.LC38
 1085 0210 A0000000 		.word	.LC40
 1086 0214 B4000000 		.word	.LC42
 1087 0218 C8000000 		.word	.LC44
 1088 021c E4000000 		.word	.LC46
 1089 0220 FC000000 		.word	.LC48
 1090              		.cfi_endproc
 1091              	.LFE25:
 1092              		.size	__tk_shell_cal_print, .-__tk_shell_cal_print
 1093              		.section	.text.__tk_shell_wm_vol_set,"ax",%progbits
 1094              		.align	2
 1095              		.global	__tk_shell_wm_vol_set
ARM GAS  C:\Users\TERENC~1\AppData\Local\Temp\cc9BPywF.s 			page 31


 1096              		.code	16
 1097              		.thumb_func
 1098              		.type	__tk_shell_wm_vol_set, %function
 1099              	__tk_shell_wm_vol_set:
 1100              	.LFB6:
 263:TkShell.c     ****     int vol;
 1101              		.loc 1 263 0
 1102              		.cfi_startproc
 1103              		@ args = 0, pretend = 0, frame = 0
 1104              		@ frame_needed = 0, uses_anonymous_args = 0
 1105              	.LVL151:
 1106 0000 70B5     		push	{r4, r5, r6, lr}
 1107              		.cfi_def_cfa_offset 16
 1108              		.cfi_offset 4, -16
 1109              		.cfi_offset 5, -12
 1110              		.cfi_offset 6, -8
 1111              		.cfi_offset 14, -4
 1112              	.LVL152:
 270:TkShell.c     ****     {
 1113              		.loc 1 270 0
 1114 0002 0328     		cmp	r0, #3
 1115 0004 1BD0     		beq	.L82
 272:TkShell.c     ****         return -1;
 1116              		.loc 1 272 0
 1117 0006 FFF7FEFF 		bl	USBUART_GetConfiguration
 1118              	.LVL153:
 1119 000a 0028     		cmp	r0, #0
 1120 000c 56D0     		beq	.L91
 1121              	.LBB19:
 272:TkShell.c     ****         return -1;
 1122              		.loc 1 272 0 is_stmt 0 discriminator 1
 1123 000e 2F4B     		ldr	r3, .L94
 1124 0010 1C68     		ldr	r4, [r3]
 1125              	.LVL154:
 1126              	.L85:
 272:TkShell.c     ****         return -1;
 1127              		.loc 1 272 0 discriminator 5
 1128 0012 FFF7FEFF 		bl	USBUART_CDCIsReady
 1129              	.LVL155:
 1130 0016 0028     		cmp	r0, #0
 1131 0018 05D1     		bne	.L84
 272:TkShell.c     ****         return -1;
 1132              		.loc 1 272 0 discriminator 3
 1133 001a 2C4B     		ldr	r3, .L94
 1134 001c 1B68     		ldr	r3, [r3]
 1135 001e 1B1B     		subs	r3, r3, r4
 1136 0020 2B4A     		ldr	r2, .L94+4
 1137 0022 9342     		cmp	r3, r2
 1138 0024 F5D9     		bls	.L85
 1139              	.L84:
 272:TkShell.c     ****         return -1;
 1140              		.loc 1 272 0 discriminator 6
 1141 0026 2B4C     		ldr	r4, .L94+8
 1142              	.LVL156:
 1143 0028 1E22     		movs	r2, #30
 1144 002a 2B49     		ldr	r1, .L94+12
 1145 002c 2000     		movs	r0, r4
ARM GAS  C:\Users\TERENC~1\AppData\Local\Temp\cc9BPywF.s 			page 32


 1146 002e FFF7FEFF 		bl	memcpy
 1147              	.LVL157:
 1148 0032 2000     		movs	r0, r4
 1149 0034 FFF7FEFF 		bl	USBUART_PutString
 1150              	.LVL158:
 1151              	.LBE19:
 273:TkShell.c     ****     }
 1152              		.loc 1 273 0 is_stmt 1 discriminator 6
 1153 0038 0120     		movs	r0, #1
 1154 003a 4042     		rsbs	r0, r0, #0
 1155 003c 45E0     		b	.L83
 1156              	.LVL159:
 1157              	.L82:
 276:TkShell.c     **** 
 1158              		.loc 1 276 0
 1159 003e 8868     		ldr	r0, [r1, #8]
 1160              	.LVL160:
 1161 0040 FFF7FEFF 		bl	atoi
 1162              	.LVL161:
 278:TkShell.c     ****     {
 1163              		.loc 1 278 0
 1164 0044 C0B2     		uxtb	r0, r0
 1165              	.LVL162:
 1166 0046 FFF7FEFF 		bl	Codec_AdjustBothHeadphoneVolume
 1167              	.LVL163:
 1168 004a 051E     		subs	r5, r0, #0
 1169              	.LVL164:
 1170 004c 1AD1     		bne	.L86
 280:TkShell.c     ****     }
 1171              		.loc 1 280 0
 1172 004e FFF7FEFF 		bl	USBUART_GetConfiguration
 1173              	.LVL165:
 1174 0052 0028     		cmp	r0, #0
 1175 0054 35D0     		beq	.L92
 1176              	.LBB20:
 280:TkShell.c     ****     }
 1177              		.loc 1 280 0 is_stmt 0 discriminator 1
 1178 0056 1D4B     		ldr	r3, .L94
 1179 0058 1C68     		ldr	r4, [r3]
 1180              	.LVL166:
 1181              	.L88:
 280:TkShell.c     ****     }
 1182              		.loc 1 280 0 discriminator 5
 1183 005a FFF7FEFF 		bl	USBUART_CDCIsReady
 1184              	.LVL167:
 1185 005e 0028     		cmp	r0, #0
 1186 0060 05D1     		bne	.L87
 280:TkShell.c     ****     }
 1187              		.loc 1 280 0 discriminator 3
 1188 0062 1A4B     		ldr	r3, .L94
 1189 0064 1B68     		ldr	r3, [r3]
 1190 0066 1B1B     		subs	r3, r3, r4
 1191 0068 194A     		ldr	r2, .L94+4
 1192 006a 9342     		cmp	r3, r2
 1193 006c F5D9     		bls	.L88
 1194              	.L87:
 280:TkShell.c     ****     }
ARM GAS  C:\Users\TERENC~1\AppData\Local\Temp\cc9BPywF.s 			page 33


 1195              		.loc 1 280 0 discriminator 6
 1196 006e 194C     		ldr	r4, .L94+8
 1197              	.LVL168:
 1198 0070 0922     		movs	r2, #9
 1199 0072 1A49     		ldr	r1, .L94+16
 1200 0074 2000     		movs	r0, r4
 1201 0076 FFF7FEFF 		bl	memcpy
 1202              	.LVL169:
 1203 007a 2000     		movs	r0, r4
 1204 007c FFF7FEFF 		bl	USBUART_PutString
 1205              	.LVL170:
 1206              	.LBE20:
 288:TkShell.c     **** }
 1207              		.loc 1 288 0 is_stmt 1 discriminator 6
 1208 0080 0020     		movs	r0, #0
 1209 0082 22E0     		b	.L83
 1210              	.LVL171:
 1211              	.L86:
 284:TkShell.c     ****         return -2;
 1212              		.loc 1 284 0
 1213 0084 FFF7FEFF 		bl	USBUART_GetConfiguration
 1214              	.LVL172:
 1215 0088 0028     		cmp	r0, #0
 1216 008a 1CD0     		beq	.L93
 1217              	.LBB21:
 284:TkShell.c     ****         return -2;
 1218              		.loc 1 284 0 is_stmt 0 discriminator 1
 1219 008c 0F4B     		ldr	r3, .L94
 1220 008e 1C68     		ldr	r4, [r3]
 1221              	.LVL173:
 1222              	.L90:
 284:TkShell.c     ****         return -2;
 1223              		.loc 1 284 0 discriminator 5
 1224 0090 FFF7FEFF 		bl	USBUART_CDCIsReady
 1225              	.LVL174:
 1226 0094 0028     		cmp	r0, #0
 1227 0096 05D1     		bne	.L89
 284:TkShell.c     ****         return -2;
 1228              		.loc 1 284 0 discriminator 3
 1229 0098 0C4B     		ldr	r3, .L94
 1230 009a 1B68     		ldr	r3, [r3]
 1231 009c 1B1B     		subs	r3, r3, r4
 1232 009e 0C4A     		ldr	r2, .L94+4
 1233 00a0 9342     		cmp	r3, r2
 1234 00a2 F5D9     		bls	.L90
 1235              	.L89:
 284:TkShell.c     ****         return -2;
 1236              		.loc 1 284 0 discriminator 6
 1237 00a4 0B4C     		ldr	r4, .L94+8
 1238              	.LVL175:
 1239 00a6 2A00     		movs	r2, r5
 1240 00a8 0D49     		ldr	r1, .L94+20
 1241 00aa 2000     		movs	r0, r4
 1242 00ac FFF7FEFF 		bl	sprintf
 1243              	.LVL176:
 1244 00b0 2000     		movs	r0, r4
 1245 00b2 FFF7FEFF 		bl	USBUART_PutString
ARM GAS  C:\Users\TERENC~1\AppData\Local\Temp\cc9BPywF.s 			page 34


 1246              	.LVL177:
 1247              	.LBE21:
 285:TkShell.c     ****     }
 1248              		.loc 1 285 0 is_stmt 1 discriminator 6
 1249 00b6 0220     		movs	r0, #2
 1250 00b8 4042     		rsbs	r0, r0, #0
 1251 00ba 06E0     		b	.L83
 1252              	.LVL178:
 1253              	.L91:
 273:TkShell.c     ****     }
 1254              		.loc 1 273 0
 1255 00bc 0120     		movs	r0, #1
 1256 00be 4042     		rsbs	r0, r0, #0
 1257 00c0 03E0     		b	.L83
 1258              	.LVL179:
 1259              	.L92:
 288:TkShell.c     **** }
 1260              		.loc 1 288 0
 1261 00c2 0020     		movs	r0, #0
 1262 00c4 01E0     		b	.L83
 1263              	.L93:
 285:TkShell.c     ****     }
 1264              		.loc 1 285 0
 1265 00c6 0220     		movs	r0, #2
 1266 00c8 4042     		rsbs	r0, r0, #0
 1267              	.LVL180:
 1268              	.L83:
 289:TkShell.c     **** 
 1269              		.loc 1 289 0
 1270              		@ sp needed
 1271 00ca 70BD     		pop	{r4, r5, r6, pc}
 1272              	.L95:
 1273              		.align	2
 1274              	.L94:
 1275 00cc 00000000 		.word	tmrCounter_ms
 1276 00d0 E7030000 		.word	999
 1277 00d4 00000000 		.word	gbuf
 1278 00d8 0C000000 		.word	.LC6
 1279 00dc 08010000 		.word	.LC53
 1280 00e0 14010000 		.word	.LC55
 1281              		.cfi_endproc
 1282              	.LFE6:
 1283              		.size	__tk_shell_wm_vol_set, .-__tk_shell_wm_vol_set
 1284              		.section	.text.__tk_shell_wm_vol_get,"ax",%progbits
 1285              		.align	2
 1286              		.global	__tk_shell_wm_vol_get
 1287              		.code	16
 1288              		.thumb_func
 1289              		.type	__tk_shell_wm_vol_get, %function
 1290              	__tk_shell_wm_vol_get:
 1291              	.LFB7:
 292:TkShell.c     ****     PRINTF("> wm:ok %d\n", (int)Codec_GetHeadphoneVolume());
 1292              		.loc 1 292 0
 1293              		.cfi_startproc
 1294              		@ args = 0, pretend = 0, frame = 0
 1295              		@ frame_needed = 0, uses_anonymous_args = 0
 1296              	.LVL181:
ARM GAS  C:\Users\TERENC~1\AppData\Local\Temp\cc9BPywF.s 			page 35


 1297 0000 10B5     		push	{r4, lr}
 1298              		.cfi_def_cfa_offset 8
 1299              		.cfi_offset 4, -8
 1300              		.cfi_offset 14, -4
 293:TkShell.c     **** 
 1301              		.loc 1 293 0
 1302 0002 FFF7FEFF 		bl	USBUART_GetConfiguration
 1303              	.LVL182:
 1304 0006 0028     		cmp	r0, #0
 1305 0008 16D0     		beq	.L97
 1306              	.LBB22:
 293:TkShell.c     **** 
 1307              		.loc 1 293 0 is_stmt 0 discriminator 1
 1308 000a 0C4B     		ldr	r3, .L100
 1309 000c 1C68     		ldr	r4, [r3]
 1310              	.LVL183:
 1311              	.L99:
 293:TkShell.c     **** 
 1312              		.loc 1 293 0 discriminator 5
 1313 000e FFF7FEFF 		bl	USBUART_CDCIsReady
 1314              	.LVL184:
 1315 0012 0028     		cmp	r0, #0
 1316 0014 05D1     		bne	.L98
 293:TkShell.c     **** 
 1317              		.loc 1 293 0 discriminator 3
 1318 0016 094B     		ldr	r3, .L100
 1319 0018 1B68     		ldr	r3, [r3]
 1320 001a 1B1B     		subs	r3, r3, r4
 1321 001c 084A     		ldr	r2, .L100+4
 1322 001e 9342     		cmp	r3, r2
 1323 0020 F5D9     		bls	.L99
 1324              	.L98:
 293:TkShell.c     **** 
 1325              		.loc 1 293 0 discriminator 6
 1326 0022 FFF7FEFF 		bl	Codec_GetHeadphoneVolume
 1327              	.LVL185:
 1328 0026 0200     		movs	r2, r0
 1329 0028 064C     		ldr	r4, .L100+8
 1330              	.LVL186:
 1331 002a 0749     		ldr	r1, .L100+12
 1332 002c 2000     		movs	r0, r4
 1333 002e FFF7FEFF 		bl	sprintf
 1334              	.LVL187:
 1335 0032 2000     		movs	r0, r4
 1336 0034 FFF7FEFF 		bl	USBUART_PutString
 1337              	.LVL188:
 1338              	.L97:
 1339              	.LBE22:
 296:TkShell.c     **** 
 1340              		.loc 1 296 0 is_stmt 1
 1341 0038 0020     		movs	r0, #0
 1342              		@ sp needed
 1343 003a 10BD     		pop	{r4, pc}
 1344              	.L101:
 1345              		.align	2
 1346              	.L100:
 1347 003c 00000000 		.word	tmrCounter_ms
ARM GAS  C:\Users\TERENC~1\AppData\Local\Temp\cc9BPywF.s 			page 36


 1348 0040 E7030000 		.word	999
 1349 0044 00000000 		.word	gbuf
 1350 0048 20010000 		.word	.LC58
 1351              		.cfi_endproc
 1352              	.LFE7:
 1353              		.size	__tk_shell_wm_vol_get, .-__tk_shell_wm_vol_get
 1354              		.section	.text.__tk_shell_wm_reg_wr,"ax",%progbits
 1355              		.align	2
 1356              		.global	__tk_shell_wm_reg_wr
 1357              		.code	16
 1358              		.thumb_func
 1359              		.type	__tk_shell_wm_reg_wr, %function
 1360              	__tk_shell_wm_reg_wr:
 1361              	.LFB8:
 299:TkShell.c     ****     int i = 2;
 1362              		.loc 1 299 0
 1363              		.cfi_startproc
 1364              		@ args = 0, pretend = 0, frame = 0
 1365              		@ frame_needed = 0, uses_anonymous_args = 0
 1366              	.LVL189:
 1367 0000 70B5     		push	{r4, r5, r6, lr}
 1368              		.cfi_def_cfa_offset 16
 1369              		.cfi_offset 4, -16
 1370              		.cfi_offset 5, -12
 1371              		.cfi_offset 6, -8
 1372              		.cfi_offset 14, -4
 1373 0002 0C00     		movs	r4, r1
 1374              	.LVL190:
 307:TkShell.c     ****     {
 1375              		.loc 1 307 0
 1376 0004 0428     		cmp	r0, #4
 1377 0006 1BD0     		beq	.L103
 309:TkShell.c     ****         return -1;
 1378              		.loc 1 309 0
 1379 0008 FFF7FEFF 		bl	USBUART_GetConfiguration
 1380              	.LVL191:
 1381 000c 0028     		cmp	r0, #0
 1382 000e 5DD0     		beq	.L112
 1383              	.LBB23:
 309:TkShell.c     ****         return -1;
 1384              		.loc 1 309 0 is_stmt 0 discriminator 1
 1385 0010 324B     		ldr	r3, .L115
 1386 0012 1C68     		ldr	r4, [r3]
 1387              	.LVL192:
 1388              	.L106:
 309:TkShell.c     ****         return -1;
 1389              		.loc 1 309 0 discriminator 5
 1390 0014 FFF7FEFF 		bl	USBUART_CDCIsReady
 1391              	.LVL193:
 1392 0018 0028     		cmp	r0, #0
 1393 001a 05D1     		bne	.L105
 309:TkShell.c     ****         return -1;
 1394              		.loc 1 309 0 discriminator 3
 1395 001c 2F4B     		ldr	r3, .L115
 1396 001e 1B68     		ldr	r3, [r3]
 1397 0020 1B1B     		subs	r3, r3, r4
 1398 0022 2F4A     		ldr	r2, .L115+4
ARM GAS  C:\Users\TERENC~1\AppData\Local\Temp\cc9BPywF.s 			page 37


 1399 0024 9342     		cmp	r3, r2
 1400 0026 F5D9     		bls	.L106
 1401              	.L105:
 309:TkShell.c     ****         return -1;
 1402              		.loc 1 309 0 discriminator 6
 1403 0028 2E4C     		ldr	r4, .L115+8
 1404              	.LVL194:
 1405 002a 1E22     		movs	r2, #30
 1406 002c 2E49     		ldr	r1, .L115+12
 1407 002e 2000     		movs	r0, r4
 1408 0030 FFF7FEFF 		bl	memcpy
 1409              	.LVL195:
 1410 0034 2000     		movs	r0, r4
 1411 0036 FFF7FEFF 		bl	USBUART_PutString
 1412              	.LVL196:
 1413              	.LBE23:
 310:TkShell.c     ****     }
 1414              		.loc 1 310 0 is_stmt 1 discriminator 6
 1415 003a 0120     		movs	r0, #1
 1416 003c 4042     		rsbs	r0, r0, #0
 1417 003e 4CE0     		b	.L104
 1418              	.LVL197:
 1419              	.L103:
 313:TkShell.c     ****     data = strtoul(argv[i++], NULL, 16);
 1420              		.loc 1 313 0
 1421 0040 8868     		ldr	r0, [r1, #8]
 1422              	.LVL198:
 1423 0042 FFF7FEFF 		bl	atoi
 1424              	.LVL199:
 1425 0046 C5B2     		uxtb	r5, r0
 1426              	.LVL200:
 314:TkShell.c     ****     
 1427              		.loc 1 314 0
 1428 0048 E068     		ldr	r0, [r4, #12]
 1429 004a 1022     		movs	r2, #16
 1430 004c 0021     		movs	r1, #0
 1431 004e FFF7FEFF 		bl	strtoul
 1432              	.LVL201:
 1433 0052 81B2     		uxth	r1, r0
 1434              	.LVL202:
 316:TkShell.c     ****     {
 1435              		.loc 1 316 0
 1436 0054 2800     		movs	r0, r5
 1437 0056 FFF7FEFF 		bl	Codec_SendData
 1438              	.LVL203:
 1439 005a 051E     		subs	r5, r0, #0
 1440              	.LVL204:
 1441 005c 1AD1     		bne	.L107
 318:TkShell.c     ****     }
 1442              		.loc 1 318 0
 1443 005e FFF7FEFF 		bl	USBUART_GetConfiguration
 1444              	.LVL205:
 1445 0062 0028     		cmp	r0, #0
 1446 0064 35D0     		beq	.L113
 1447              	.LBB24:
 318:TkShell.c     ****     }
 1448              		.loc 1 318 0 is_stmt 0 discriminator 1
ARM GAS  C:\Users\TERENC~1\AppData\Local\Temp\cc9BPywF.s 			page 38


 1449 0066 1D4B     		ldr	r3, .L115
 1450 0068 1C68     		ldr	r4, [r3]
 1451              	.LVL206:
 1452              	.L109:
 318:TkShell.c     ****     }
 1453              		.loc 1 318 0 discriminator 5
 1454 006a FFF7FEFF 		bl	USBUART_CDCIsReady
 1455              	.LVL207:
 1456 006e 0028     		cmp	r0, #0
 1457 0070 05D1     		bne	.L108
 318:TkShell.c     ****     }
 1458              		.loc 1 318 0 discriminator 3
 1459 0072 1A4B     		ldr	r3, .L115
 1460 0074 1B68     		ldr	r3, [r3]
 1461 0076 1B1B     		subs	r3, r3, r4
 1462 0078 194A     		ldr	r2, .L115+4
 1463 007a 9342     		cmp	r3, r2
 1464 007c F5D9     		bls	.L109
 1465              	.L108:
 318:TkShell.c     ****     }
 1466              		.loc 1 318 0 discriminator 6
 1467 007e 194C     		ldr	r4, .L115+8
 1468              	.LVL208:
 1469 0080 0922     		movs	r2, #9
 1470 0082 1A49     		ldr	r1, .L115+16
 1471 0084 2000     		movs	r0, r4
 1472 0086 FFF7FEFF 		bl	memcpy
 1473              	.LVL209:
 1474 008a 2000     		movs	r0, r4
 1475 008c FFF7FEFF 		bl	USBUART_PutString
 1476              	.LVL210:
 1477              	.LBE24:
 326:TkShell.c     **** }
 1478              		.loc 1 326 0 is_stmt 1 discriminator 6
 1479 0090 0020     		movs	r0, #0
 1480 0092 22E0     		b	.L104
 1481              	.LVL211:
 1482              	.L107:
 322:TkShell.c     ****         return -2;
 1483              		.loc 1 322 0
 1484 0094 FFF7FEFF 		bl	USBUART_GetConfiguration
 1485              	.LVL212:
 1486 0098 0028     		cmp	r0, #0
 1487 009a 1CD0     		beq	.L114
 1488              	.LBB25:
 322:TkShell.c     ****         return -2;
 1489              		.loc 1 322 0 is_stmt 0 discriminator 1
 1490 009c 0F4B     		ldr	r3, .L115
 1491 009e 1C68     		ldr	r4, [r3]
 1492              	.LVL213:
 1493              	.L111:
 322:TkShell.c     ****         return -2;
 1494              		.loc 1 322 0 discriminator 5
 1495 00a0 FFF7FEFF 		bl	USBUART_CDCIsReady
 1496              	.LVL214:
 1497 00a4 0028     		cmp	r0, #0
 1498 00a6 05D1     		bne	.L110
ARM GAS  C:\Users\TERENC~1\AppData\Local\Temp\cc9BPywF.s 			page 39


 322:TkShell.c     ****         return -2;
 1499              		.loc 1 322 0 discriminator 3
 1500 00a8 0C4B     		ldr	r3, .L115
 1501 00aa 1B68     		ldr	r3, [r3]
 1502 00ac 1B1B     		subs	r3, r3, r4
 1503 00ae 0C4A     		ldr	r2, .L115+4
 1504 00b0 9342     		cmp	r3, r2
 1505 00b2 F5D9     		bls	.L111
 1506              	.L110:
 322:TkShell.c     ****         return -2;
 1507              		.loc 1 322 0 discriminator 6
 1508 00b4 0B4C     		ldr	r4, .L115+8
 1509              	.LVL215:
 1510 00b6 2A00     		movs	r2, r5
 1511 00b8 0D49     		ldr	r1, .L115+20
 1512 00ba 2000     		movs	r0, r4
 1513 00bc FFF7FEFF 		bl	sprintf
 1514              	.LVL216:
 1515 00c0 2000     		movs	r0, r4
 1516 00c2 FFF7FEFF 		bl	USBUART_PutString
 1517              	.LVL217:
 1518              	.LBE25:
 323:TkShell.c     ****     }
 1519              		.loc 1 323 0 is_stmt 1 discriminator 6
 1520 00c6 0220     		movs	r0, #2
 1521 00c8 4042     		rsbs	r0, r0, #0
 1522 00ca 06E0     		b	.L104
 1523              	.LVL218:
 1524              	.L112:
 310:TkShell.c     ****     }
 1525              		.loc 1 310 0
 1526 00cc 0120     		movs	r0, #1
 1527 00ce 4042     		rsbs	r0, r0, #0
 1528 00d0 03E0     		b	.L104
 1529              	.LVL219:
 1530              	.L113:
 326:TkShell.c     **** }
 1531              		.loc 1 326 0
 1532 00d2 0020     		movs	r0, #0
 1533 00d4 01E0     		b	.L104
 1534              	.L114:
 323:TkShell.c     ****     }
 1535              		.loc 1 323 0
 1536 00d6 0220     		movs	r0, #2
 1537 00d8 4042     		rsbs	r0, r0, #0
 1538              	.LVL220:
 1539              	.L104:
 327:TkShell.c     **** 
 1540              		.loc 1 327 0
 1541              		@ sp needed
 1542 00da 70BD     		pop	{r4, r5, r6, pc}
 1543              	.L116:
 1544              		.align	2
 1545              	.L115:
 1546 00dc 00000000 		.word	tmrCounter_ms
 1547 00e0 E7030000 		.word	999
 1548 00e4 00000000 		.word	gbuf
ARM GAS  C:\Users\TERENC~1\AppData\Local\Temp\cc9BPywF.s 			page 40


 1549 00e8 0C000000 		.word	.LC6
 1550 00ec 08010000 		.word	.LC53
 1551 00f0 14010000 		.word	.LC55
 1552              		.cfi_endproc
 1553              	.LFE8:
 1554              		.size	__tk_shell_wm_reg_wr, .-__tk_shell_wm_reg_wr
 1555              		.section	.text.__tk_shell_wm_reg_rd,"ax",%progbits
 1556              		.align	2
 1557              		.global	__tk_shell_wm_reg_rd
 1558              		.code	16
 1559              		.thumb_func
 1560              		.type	__tk_shell_wm_reg_rd, %function
 1561              	__tk_shell_wm_reg_rd:
 1562              	.LFB9:
 330:TkShell.c     ****     int i = 2;
 1563              		.loc 1 330 0
 1564              		.cfi_startproc
 1565              		@ args = 0, pretend = 0, frame = 0
 1566              		@ frame_needed = 0, uses_anonymous_args = 0
 1567              	.LVL221:
 1568 0000 70B5     		push	{r4, r5, r6, lr}
 1569              		.cfi_def_cfa_offset 16
 1570              		.cfi_offset 4, -16
 1571              		.cfi_offset 5, -12
 1572              		.cfi_offset 6, -8
 1573              		.cfi_offset 14, -4
 1574              	.LVL222:
 336:TkShell.c     ****     {
 1575              		.loc 1 336 0
 1576 0002 0328     		cmp	r0, #3
 1577 0004 1BD0     		beq	.L118
 338:TkShell.c     ****         return -1;
 1578              		.loc 1 338 0
 1579 0006 FFF7FEFF 		bl	USBUART_GetConfiguration
 1580              	.LVL223:
 1581 000a 0028     		cmp	r0, #0
 1582 000c 39D0     		beq	.L124
 1583              	.LBB26:
 338:TkShell.c     ****         return -1;
 1584              		.loc 1 338 0 is_stmt 0 discriminator 1
 1585 000e 1F4B     		ldr	r3, .L126
 1586 0010 1C68     		ldr	r4, [r3]
 1587              	.LVL224:
 1588              	.L121:
 338:TkShell.c     ****         return -1;
 1589              		.loc 1 338 0 discriminator 5
 1590 0012 FFF7FEFF 		bl	USBUART_CDCIsReady
 1591              	.LVL225:
 1592 0016 0028     		cmp	r0, #0
 1593 0018 05D1     		bne	.L120
 338:TkShell.c     ****         return -1;
 1594              		.loc 1 338 0 discriminator 3
 1595 001a 1C4B     		ldr	r3, .L126
 1596 001c 1B68     		ldr	r3, [r3]
 1597 001e 1B1B     		subs	r3, r3, r4
 1598 0020 1B4A     		ldr	r2, .L126+4
 1599 0022 9342     		cmp	r3, r2
ARM GAS  C:\Users\TERENC~1\AppData\Local\Temp\cc9BPywF.s 			page 41


 1600 0024 F5D9     		bls	.L121
 1601              	.L120:
 338:TkShell.c     ****         return -1;
 1602              		.loc 1 338 0 discriminator 6
 1603 0026 1B4C     		ldr	r4, .L126+8
 1604              	.LVL226:
 1605 0028 1E22     		movs	r2, #30
 1606 002a 1B49     		ldr	r1, .L126+12
 1607 002c 2000     		movs	r0, r4
 1608 002e FFF7FEFF 		bl	memcpy
 1609              	.LVL227:
 1610 0032 2000     		movs	r0, r4
 1611 0034 FFF7FEFF 		bl	USBUART_PutString
 1612              	.LVL228:
 1613              	.LBE26:
 339:TkShell.c     ****     }
 1614              		.loc 1 339 0 is_stmt 1 discriminator 6
 1615 0038 0120     		movs	r0, #1
 1616 003a 4042     		rsbs	r0, r0, #0
 1617 003c 25E0     		b	.L119
 1618              	.LVL229:
 1619              	.L118:
 342:TkShell.c     ****     
 1620              		.loc 1 342 0
 1621 003e 8868     		ldr	r0, [r1, #8]
 1622              	.LVL230:
 1623 0040 FFF7FEFF 		bl	atoi
 1624              	.LVL231:
 1625 0044 C5B2     		uxtb	r5, r0
 1626              	.LVL232:
 344:TkShell.c     ****     
 1627              		.loc 1 344 0
 1628 0046 FFF7FEFF 		bl	USBUART_GetConfiguration
 1629              	.LVL233:
 1630 004a 0028     		cmp	r0, #0
 1631 004c 1CD0     		beq	.L125
 1632              	.LBB27:
 344:TkShell.c     ****     
 1633              		.loc 1 344 0 is_stmt 0 discriminator 1
 1634 004e 0F4B     		ldr	r3, .L126
 1635 0050 1C68     		ldr	r4, [r3]
 1636              	.LVL234:
 1637              	.L123:
 344:TkShell.c     ****     
 1638              		.loc 1 344 0 discriminator 5
 1639 0052 FFF7FEFF 		bl	USBUART_CDCIsReady
 1640              	.LVL235:
 1641 0056 0028     		cmp	r0, #0
 1642 0058 05D1     		bne	.L122
 344:TkShell.c     ****     
 1643              		.loc 1 344 0 discriminator 3
 1644 005a 0C4B     		ldr	r3, .L126
 1645 005c 1B68     		ldr	r3, [r3]
 1646 005e 1B1B     		subs	r3, r3, r4
 1647 0060 0B4A     		ldr	r2, .L126+4
 1648 0062 9342     		cmp	r3, r2
 1649 0064 F5D9     		bls	.L123
ARM GAS  C:\Users\TERENC~1\AppData\Local\Temp\cc9BPywF.s 			page 42


 1650              	.L122:
 344:TkShell.c     ****     
 1651              		.loc 1 344 0 discriminator 6
 1652 0066 2800     		movs	r0, r5
 1653 0068 FFF7FEFF 		bl	Codec_GetData
 1654              	.LVL236:
 1655 006c 0200     		movs	r2, r0
 1656 006e 094C     		ldr	r4, .L126+8
 1657              	.LVL237:
 1658 0070 0A49     		ldr	r1, .L126+16
 1659 0072 2000     		movs	r0, r4
 1660 0074 FFF7FEFF 		bl	sprintf
 1661              	.LVL238:
 1662 0078 2000     		movs	r0, r4
 1663 007a FFF7FEFF 		bl	USBUART_PutString
 1664              	.LVL239:
 1665              	.LBE27:
 346:TkShell.c     **** }
 1666              		.loc 1 346 0 is_stmt 1 discriminator 6
 1667 007e 0020     		movs	r0, #0
 1668 0080 03E0     		b	.L119
 1669              	.LVL240:
 1670              	.L124:
 339:TkShell.c     ****     }
 1671              		.loc 1 339 0
 1672 0082 0120     		movs	r0, #1
 1673 0084 4042     		rsbs	r0, r0, #0
 1674 0086 00E0     		b	.L119
 1675              	.LVL241:
 1676              	.L125:
 346:TkShell.c     **** }
 1677              		.loc 1 346 0
 1678 0088 0020     		movs	r0, #0
 1679              	.LVL242:
 1680              	.L119:
 347:TkShell.c     **** 
 1681              		.loc 1 347 0
 1682              		@ sp needed
 1683 008a 70BD     		pop	{r4, r5, r6, pc}
 1684              	.L127:
 1685              		.align	2
 1686              	.L126:
 1687 008c 00000000 		.word	tmrCounter_ms
 1688 0090 E7030000 		.word	999
 1689 0094 00000000 		.word	gbuf
 1690 0098 0C000000 		.word	.LC6
 1691 009c 2C010000 		.word	.LC69
 1692              		.cfi_endproc
 1693              	.LFE9:
 1694              		.size	__tk_shell_wm_reg_rd, .-__tk_shell_wm_reg_rd
 1695              		.section	.text.__tk_shell_rf_init,"ax",%progbits
 1696              		.align	2
 1697              		.global	__tk_shell_rf_init
 1698              		.code	16
 1699              		.thumb_func
 1700              		.type	__tk_shell_rf_init, %function
 1701              	__tk_shell_rf_init:
ARM GAS  C:\Users\TERENC~1\AppData\Local\Temp\cc9BPywF.s 			page 43


 1702              	.LFB10:
 350:TkShell.c     ****   cc85xx_init();
 1703              		.loc 1 350 0
 1704              		.cfi_startproc
 1705              		@ args = 0, pretend = 0, frame = 0
 1706              		@ frame_needed = 0, uses_anonymous_args = 0
 1707              	.LVL243:
 1708 0000 10B5     		push	{r4, lr}
 1709              		.cfi_def_cfa_offset 8
 1710              		.cfi_offset 4, -8
 1711              		.cfi_offset 14, -4
 351:TkShell.c     ****   PRINTF("> rf:ok\n");
 1712              		.loc 1 351 0
 1713 0002 FFF7FEFF 		bl	cc85xx_init
 1714              	.LVL244:
 352:TkShell.c     ****   return 0;
 1715              		.loc 1 352 0
 1716 0006 FFF7FEFF 		bl	USBUART_GetConfiguration
 1717              	.LVL245:
 1718 000a 0028     		cmp	r0, #0
 1719 000c 14D0     		beq	.L129
 1720              	.LBB28:
 352:TkShell.c     ****   return 0;
 1721              		.loc 1 352 0 is_stmt 0 discriminator 1
 1722 000e 0B4B     		ldr	r3, .L132
 1723 0010 1C68     		ldr	r4, [r3]
 1724              	.LVL246:
 1725              	.L131:
 352:TkShell.c     ****   return 0;
 1726              		.loc 1 352 0 discriminator 5
 1727 0012 FFF7FEFF 		bl	USBUART_CDCIsReady
 1728              	.LVL247:
 1729 0016 0028     		cmp	r0, #0
 1730 0018 05D1     		bne	.L130
 352:TkShell.c     ****   return 0;
 1731              		.loc 1 352 0 discriminator 3
 1732 001a 084B     		ldr	r3, .L132
 1733 001c 1B68     		ldr	r3, [r3]
 1734 001e 1B1B     		subs	r3, r3, r4
 1735 0020 074A     		ldr	r2, .L132+4
 1736 0022 9342     		cmp	r3, r2
 1737 0024 F5D9     		bls	.L131
 1738              	.L130:
 352:TkShell.c     ****   return 0;
 1739              		.loc 1 352 0 discriminator 6
 1740 0026 074C     		ldr	r4, .L132+8
 1741              	.LVL248:
 1742 0028 0922     		movs	r2, #9
 1743 002a 0749     		ldr	r1, .L132+12
 1744 002c 2000     		movs	r0, r4
 1745 002e FFF7FEFF 		bl	memcpy
 1746              	.LVL249:
 1747 0032 2000     		movs	r0, r4
 1748 0034 FFF7FEFF 		bl	USBUART_PutString
 1749              	.LVL250:
 1750              	.L129:
 1751              	.LBE28:
ARM GAS  C:\Users\TERENC~1\AppData\Local\Temp\cc9BPywF.s 			page 44


 354:TkShell.c     **** 
 1752              		.loc 1 354 0 is_stmt 1
 1753 0038 0020     		movs	r0, #0
 1754              		@ sp needed
 1755 003a 10BD     		pop	{r4, pc}
 1756              	.L133:
 1757              		.align	2
 1758              	.L132:
 1759 003c 00000000 		.word	tmrCounter_ms
 1760 0040 E7030000 		.word	999
 1761 0044 00000000 		.word	gbuf
 1762 0048 3C010000 		.word	.LC73
 1763              		.cfi_endproc
 1764              	.LFE10:
 1765              		.size	__tk_shell_rf_init, .-__tk_shell_rf_init
 1766              		.section	.text.__tk_shell_rf_reset,"ax",%progbits
 1767              		.align	2
 1768              		.global	__tk_shell_rf_reset
 1769              		.code	16
 1770              		.thumb_func
 1771              		.type	__tk_shell_rf_reset, %function
 1772              	__tk_shell_rf_reset:
 1773              	.LFB11:
 357:TkShell.c     ****   PRINTF("> rf:%s\n", (cc85xx_sys_reset()) ? OK_STR : ER_STR);
 1774              		.loc 1 357 0
 1775              		.cfi_startproc
 1776              		@ args = 0, pretend = 0, frame = 0
 1777              		@ frame_needed = 0, uses_anonymous_args = 0
 1778              	.LVL251:
 1779 0000 10B5     		push	{r4, lr}
 1780              		.cfi_def_cfa_offset 8
 1781              		.cfi_offset 4, -8
 1782              		.cfi_offset 14, -4
 358:TkShell.c     ****   return 0;
 1783              		.loc 1 358 0
 1784 0002 FFF7FEFF 		bl	USBUART_GetConfiguration
 1785              	.LVL252:
 1786 0006 0028     		cmp	r0, #0
 1787 0008 1CD0     		beq	.L135
 1788              	.LBB29:
 358:TkShell.c     ****   return 0;
 1789              		.loc 1 358 0 is_stmt 0 discriminator 1
 1790 000a 0F4B     		ldr	r3, .L140
 1791 000c 1C68     		ldr	r4, [r3]
 1792              	.LVL253:
 1793              	.L137:
 358:TkShell.c     ****   return 0;
 1794              		.loc 1 358 0 discriminator 5
 1795 000e FFF7FEFF 		bl	USBUART_CDCIsReady
 1796              	.LVL254:
 1797 0012 0028     		cmp	r0, #0
 1798 0014 05D1     		bne	.L136
 358:TkShell.c     ****   return 0;
 1799              		.loc 1 358 0 discriminator 3
 1800 0016 0C4B     		ldr	r3, .L140
 1801 0018 1B68     		ldr	r3, [r3]
 1802 001a 1B1B     		subs	r3, r3, r4
ARM GAS  C:\Users\TERENC~1\AppData\Local\Temp\cc9BPywF.s 			page 45


 1803 001c 0B4A     		ldr	r2, .L140+4
 1804 001e 9342     		cmp	r3, r2
 1805 0020 F5D9     		bls	.L137
 1806              	.L136:
 358:TkShell.c     ****   return 0;
 1807              		.loc 1 358 0 discriminator 6
 1808 0022 FFF7FEFF 		bl	cc85xx_sys_reset
 1809              	.LVL255:
 1810 0026 0028     		cmp	r0, #0
 1811 0028 02D0     		beq	.L139
 358:TkShell.c     ****   return 0;
 1812              		.loc 1 358 0
 1813 002a 094A     		ldr	r2, .L140+8
 1814 002c 3832     		adds	r2, r2, #56
 1815 002e 01E0     		b	.L138
 1816              	.L139:
 1817 0030 074A     		ldr	r2, .L140+8
 1818 0032 3C32     		adds	r2, r2, #60
 1819              	.L138:
 358:TkShell.c     ****   return 0;
 1820              		.loc 1 358 0 discriminator 10
 1821 0034 074C     		ldr	r4, .L140+12
 1822              	.LVL256:
 1823 0036 0849     		ldr	r1, .L140+16
 1824 0038 2000     		movs	r0, r4
 1825 003a FFF7FEFF 		bl	sprintf
 1826              	.LVL257:
 1827 003e 2000     		movs	r0, r4
 1828 0040 FFF7FEFF 		bl	USBUART_PutString
 1829              	.LVL258:
 1830              	.L135:
 1831              	.LBE29:
 360:TkShell.c     **** 
 1832              		.loc 1 360 0 is_stmt 1
 1833 0044 0020     		movs	r0, #0
 1834              		@ sp needed
 1835 0046 10BD     		pop	{r4, pc}
 1836              	.L141:
 1837              		.align	2
 1838              	.L140:
 1839 0048 00000000 		.word	tmrCounter_ms
 1840 004c E7030000 		.word	999
 1841 0050 00000000 		.word	.LANCHOR0
 1842 0054 00000000 		.word	gbuf
 1843 0058 48010000 		.word	.LC77
 1844              		.cfi_endproc
 1845              	.LFE11:
 1846              		.size	__tk_shell_rf_reset, .-__tk_shell_rf_reset
 1847              		.section	.text.__tk_shell_rf_bl_reset,"ax",%progbits
 1848              		.align	2
 1849              		.global	__tk_shell_rf_bl_reset
 1850              		.code	16
 1851              		.thumb_func
 1852              		.type	__tk_shell_rf_bl_reset, %function
 1853              	__tk_shell_rf_bl_reset:
 1854              	.LFB12:
 363:TkShell.c     ****   PRINTF("> rf:%s\n", (cc85xx_boot_reset()) ? OK_STR : ER_STR);
ARM GAS  C:\Users\TERENC~1\AppData\Local\Temp\cc9BPywF.s 			page 46


 1855              		.loc 1 363 0
 1856              		.cfi_startproc
 1857              		@ args = 0, pretend = 0, frame = 0
 1858              		@ frame_needed = 0, uses_anonymous_args = 0
 1859              	.LVL259:
 1860 0000 10B5     		push	{r4, lr}
 1861              		.cfi_def_cfa_offset 8
 1862              		.cfi_offset 4, -8
 1863              		.cfi_offset 14, -4
 364:TkShell.c     ****   return 0;
 1864              		.loc 1 364 0
 1865 0002 FFF7FEFF 		bl	USBUART_GetConfiguration
 1866              	.LVL260:
 1867 0006 0028     		cmp	r0, #0
 1868 0008 1CD0     		beq	.L143
 1869              	.LBB30:
 364:TkShell.c     ****   return 0;
 1870              		.loc 1 364 0 is_stmt 0 discriminator 1
 1871 000a 0F4B     		ldr	r3, .L148
 1872 000c 1C68     		ldr	r4, [r3]
 1873              	.LVL261:
 1874              	.L145:
 364:TkShell.c     ****   return 0;
 1875              		.loc 1 364 0 discriminator 5
 1876 000e FFF7FEFF 		bl	USBUART_CDCIsReady
 1877              	.LVL262:
 1878 0012 0028     		cmp	r0, #0
 1879 0014 05D1     		bne	.L144
 364:TkShell.c     ****   return 0;
 1880              		.loc 1 364 0 discriminator 3
 1881 0016 0C4B     		ldr	r3, .L148
 1882 0018 1B68     		ldr	r3, [r3]
 1883 001a 1B1B     		subs	r3, r3, r4
 1884 001c 0B4A     		ldr	r2, .L148+4
 1885 001e 9342     		cmp	r3, r2
 1886 0020 F5D9     		bls	.L145
 1887              	.L144:
 364:TkShell.c     ****   return 0;
 1888              		.loc 1 364 0 discriminator 6
 1889 0022 FFF7FEFF 		bl	cc85xx_boot_reset
 1890              	.LVL263:
 1891 0026 0028     		cmp	r0, #0
 1892 0028 02D0     		beq	.L147
 364:TkShell.c     ****   return 0;
 1893              		.loc 1 364 0
 1894 002a 094A     		ldr	r2, .L148+8
 1895 002c 3832     		adds	r2, r2, #56
 1896 002e 01E0     		b	.L146
 1897              	.L147:
 1898 0030 074A     		ldr	r2, .L148+8
 1899 0032 3C32     		adds	r2, r2, #60
 1900              	.L146:
 364:TkShell.c     ****   return 0;
 1901              		.loc 1 364 0 discriminator 10
 1902 0034 074C     		ldr	r4, .L148+12
 1903              	.LVL264:
 1904 0036 0849     		ldr	r1, .L148+16
ARM GAS  C:\Users\TERENC~1\AppData\Local\Temp\cc9BPywF.s 			page 47


 1905 0038 2000     		movs	r0, r4
 1906 003a FFF7FEFF 		bl	sprintf
 1907              	.LVL265:
 1908 003e 2000     		movs	r0, r4
 1909 0040 FFF7FEFF 		bl	USBUART_PutString
 1910              	.LVL266:
 1911              	.L143:
 1912              	.LBE30:
 366:TkShell.c     **** 
 1913              		.loc 1 366 0 is_stmt 1
 1914 0044 0020     		movs	r0, #0
 1915              		@ sp needed
 1916 0046 10BD     		pop	{r4, pc}
 1917              	.L149:
 1918              		.align	2
 1919              	.L148:
 1920 0048 00000000 		.word	tmrCounter_ms
 1921 004c E7030000 		.word	999
 1922 0050 00000000 		.word	.LANCHOR0
 1923 0054 00000000 		.word	gbuf
 1924 0058 48010000 		.word	.LC77
 1925              		.cfi_endproc
 1926              	.LFE12:
 1927              		.size	__tk_shell_rf_bl_reset, .-__tk_shell_rf_bl_reset
 1928              		.section	.text.__tk_shell_rf_bl_unlock,"ax",%progbits
 1929              		.align	2
 1930              		.global	__tk_shell_rf_bl_unlock
 1931              		.code	16
 1932              		.thumb_func
 1933              		.type	__tk_shell_rf_bl_unlock, %function
 1934              	__tk_shell_rf_bl_unlock:
 1935              	.LFB13:
 369:TkShell.c     ****   PRINTF("> rf:%s\n", (cc85xx_bl_unlock_spi()) ? OK_STR : ER_STR);
 1936              		.loc 1 369 0
 1937              		.cfi_startproc
 1938              		@ args = 0, pretend = 0, frame = 0
 1939              		@ frame_needed = 0, uses_anonymous_args = 0
 1940              	.LVL267:
 1941 0000 10B5     		push	{r4, lr}
 1942              		.cfi_def_cfa_offset 8
 1943              		.cfi_offset 4, -8
 1944              		.cfi_offset 14, -4
 370:TkShell.c     ****   return 0;
 1945              		.loc 1 370 0
 1946 0002 FFF7FEFF 		bl	USBUART_GetConfiguration
 1947              	.LVL268:
 1948 0006 0028     		cmp	r0, #0
 1949 0008 1CD0     		beq	.L151
 1950              	.LBB31:
 370:TkShell.c     ****   return 0;
 1951              		.loc 1 370 0 is_stmt 0 discriminator 1
 1952 000a 0F4B     		ldr	r3, .L156
 1953 000c 1C68     		ldr	r4, [r3]
 1954              	.LVL269:
 1955              	.L153:
 370:TkShell.c     ****   return 0;
 1956              		.loc 1 370 0 discriminator 5
ARM GAS  C:\Users\TERENC~1\AppData\Local\Temp\cc9BPywF.s 			page 48


 1957 000e FFF7FEFF 		bl	USBUART_CDCIsReady
 1958              	.LVL270:
 1959 0012 0028     		cmp	r0, #0
 1960 0014 05D1     		bne	.L152
 370:TkShell.c     ****   return 0;
 1961              		.loc 1 370 0 discriminator 3
 1962 0016 0C4B     		ldr	r3, .L156
 1963 0018 1B68     		ldr	r3, [r3]
 1964 001a 1B1B     		subs	r3, r3, r4
 1965 001c 0B4A     		ldr	r2, .L156+4
 1966 001e 9342     		cmp	r3, r2
 1967 0020 F5D9     		bls	.L153
 1968              	.L152:
 370:TkShell.c     ****   return 0;
 1969              		.loc 1 370 0 discriminator 6
 1970 0022 FFF7FEFF 		bl	cc85xx_bl_unlock_spi
 1971              	.LVL271:
 1972 0026 0028     		cmp	r0, #0
 1973 0028 02D0     		beq	.L155
 370:TkShell.c     ****   return 0;
 1974              		.loc 1 370 0
 1975 002a 094A     		ldr	r2, .L156+8
 1976 002c 3832     		adds	r2, r2, #56
 1977 002e 01E0     		b	.L154
 1978              	.L155:
 1979 0030 074A     		ldr	r2, .L156+8
 1980 0032 3C32     		adds	r2, r2, #60
 1981              	.L154:
 370:TkShell.c     ****   return 0;
 1982              		.loc 1 370 0 discriminator 10
 1983 0034 074C     		ldr	r4, .L156+12
 1984              	.LVL272:
 1985 0036 0849     		ldr	r1, .L156+16
 1986 0038 2000     		movs	r0, r4
 1987 003a FFF7FEFF 		bl	sprintf
 1988              	.LVL273:
 1989 003e 2000     		movs	r0, r4
 1990 0040 FFF7FEFF 		bl	USBUART_PutString
 1991              	.LVL274:
 1992              	.L151:
 1993              	.LBE31:
 372:TkShell.c     **** 
 1994              		.loc 1 372 0 is_stmt 1
 1995 0044 0020     		movs	r0, #0
 1996              		@ sp needed
 1997 0046 10BD     		pop	{r4, pc}
 1998              	.L157:
 1999              		.align	2
 2000              	.L156:
 2001 0048 00000000 		.word	tmrCounter_ms
 2002 004c E7030000 		.word	999
 2003 0050 00000000 		.word	.LANCHOR0
 2004 0054 00000000 		.word	gbuf
 2005 0058 48010000 		.word	.LC77
 2006              		.cfi_endproc
 2007              	.LFE13:
 2008              		.size	__tk_shell_rf_bl_unlock, .-__tk_shell_rf_bl_unlock
ARM GAS  C:\Users\TERENC~1\AppData\Local\Temp\cc9BPywF.s 			page 49


 2009              		.section	.text.__tk_shell_rf_bl_erase,"ax",%progbits
 2010              		.align	2
 2011              		.global	__tk_shell_rf_bl_erase
 2012              		.code	16
 2013              		.thumb_func
 2014              		.type	__tk_shell_rf_bl_erase, %function
 2015              	__tk_shell_rf_bl_erase:
 2016              	.LFB14:
 375:TkShell.c     ****   PRINTF("> rf:%s\n", (cc85xx_bl_mass_erase()) ? OK_STR : ER_STR);
 2017              		.loc 1 375 0
 2018              		.cfi_startproc
 2019              		@ args = 0, pretend = 0, frame = 0
 2020              		@ frame_needed = 0, uses_anonymous_args = 0
 2021              	.LVL275:
 2022 0000 10B5     		push	{r4, lr}
 2023              		.cfi_def_cfa_offset 8
 2024              		.cfi_offset 4, -8
 2025              		.cfi_offset 14, -4
 376:TkShell.c     ****   return 0;
 2026              		.loc 1 376 0
 2027 0002 FFF7FEFF 		bl	USBUART_GetConfiguration
 2028              	.LVL276:
 2029 0006 0028     		cmp	r0, #0
 2030 0008 1CD0     		beq	.L159
 2031              	.LBB32:
 376:TkShell.c     ****   return 0;
 2032              		.loc 1 376 0 is_stmt 0 discriminator 1
 2033 000a 0F4B     		ldr	r3, .L164
 2034 000c 1C68     		ldr	r4, [r3]
 2035              	.LVL277:
 2036              	.L161:
 376:TkShell.c     ****   return 0;
 2037              		.loc 1 376 0 discriminator 5
 2038 000e FFF7FEFF 		bl	USBUART_CDCIsReady
 2039              	.LVL278:
 2040 0012 0028     		cmp	r0, #0
 2041 0014 05D1     		bne	.L160
 376:TkShell.c     ****   return 0;
 2042              		.loc 1 376 0 discriminator 3
 2043 0016 0C4B     		ldr	r3, .L164
 2044 0018 1B68     		ldr	r3, [r3]
 2045 001a 1B1B     		subs	r3, r3, r4
 2046 001c 0B4A     		ldr	r2, .L164+4
 2047 001e 9342     		cmp	r3, r2
 2048 0020 F5D9     		bls	.L161
 2049              	.L160:
 376:TkShell.c     ****   return 0;
 2050              		.loc 1 376 0 discriminator 6
 2051 0022 FFF7FEFF 		bl	cc85xx_bl_mass_erase
 2052              	.LVL279:
 2053 0026 0028     		cmp	r0, #0
 2054 0028 02D0     		beq	.L163
 376:TkShell.c     ****   return 0;
 2055              		.loc 1 376 0
 2056 002a 094A     		ldr	r2, .L164+8
 2057 002c 3832     		adds	r2, r2, #56
 2058 002e 01E0     		b	.L162
ARM GAS  C:\Users\TERENC~1\AppData\Local\Temp\cc9BPywF.s 			page 50


 2059              	.L163:
 2060 0030 074A     		ldr	r2, .L164+8
 2061 0032 3C32     		adds	r2, r2, #60
 2062              	.L162:
 376:TkShell.c     ****   return 0;
 2063              		.loc 1 376 0 discriminator 10
 2064 0034 074C     		ldr	r4, .L164+12
 2065              	.LVL280:
 2066 0036 0849     		ldr	r1, .L164+16
 2067 0038 2000     		movs	r0, r4
 2068 003a FFF7FEFF 		bl	sprintf
 2069              	.LVL281:
 2070 003e 2000     		movs	r0, r4
 2071 0040 FFF7FEFF 		bl	USBUART_PutString
 2072              	.LVL282:
 2073              	.L159:
 2074              	.LBE32:
 378:TkShell.c     **** 
 2075              		.loc 1 378 0 is_stmt 1
 2076 0044 0020     		movs	r0, #0
 2077              		@ sp needed
 2078 0046 10BD     		pop	{r4, pc}
 2079              	.L165:
 2080              		.align	2
 2081              	.L164:
 2082 0048 00000000 		.word	tmrCounter_ms
 2083 004c E7030000 		.word	999
 2084 0050 00000000 		.word	.LANCHOR0
 2085 0054 00000000 		.word	gbuf
 2086 0058 48010000 		.word	.LC77
 2087              		.cfi_endproc
 2088              	.LFE14:
 2089              		.size	__tk_shell_rf_bl_erase, .-__tk_shell_rf_bl_erase
 2090              		.section	.text.__tk_shell_rf_bl_verify,"ax",%progbits
 2091              		.align	2
 2092              		.global	__tk_shell_rf_bl_verify
 2093              		.code	16
 2094              		.thumb_func
 2095              		.type	__tk_shell_rf_bl_verify, %function
 2096              	__tk_shell_rf_bl_verify:
 2097              	.LFB15:
 381:TkShell.c     ****   uint32_t crc;
 2098              		.loc 1 381 0
 2099              		.cfi_startproc
 2100              		@ args = 0, pretend = 0, frame = 8
 2101              		@ frame_needed = 0, uses_anonymous_args = 0
 2102              	.LVL283:
 2103 0000 30B5     		push	{r4, r5, lr}
 2104              		.cfi_def_cfa_offset 12
 2105              		.cfi_offset 4, -12
 2106              		.cfi_offset 5, -8
 2107              		.cfi_offset 14, -4
 2108 0002 83B0     		sub	sp, sp, #12
 2109              		.cfi_def_cfa_offset 24
 383:TkShell.c     **** 
 2110              		.loc 1 383 0
 2111 0004 01A8     		add	r0, sp, #4
ARM GAS  C:\Users\TERENC~1\AppData\Local\Temp\cc9BPywF.s 			page 51


 2112              	.LVL284:
 2113 0006 FFF7FEFF 		bl	cc85xx_bl_flash_verify
 2114              	.LVL285:
 2115 000a 0400     		movs	r4, r0
 2116              	.LVL286:
 385:TkShell.c     **** 
 2117              		.loc 1 385 0
 2118 000c FFF7FEFF 		bl	USBUART_GetConfiguration
 2119              	.LVL287:
 2120 0010 0028     		cmp	r0, #0
 2121 0012 1BD0     		beq	.L167
 2122              	.LBB33:
 385:TkShell.c     **** 
 2123              		.loc 1 385 0 is_stmt 0 discriminator 1
 2124 0014 0F4B     		ldr	r3, .L172
 2125 0016 1D68     		ldr	r5, [r3]
 2126              	.LVL288:
 2127              	.L169:
 385:TkShell.c     **** 
 2128              		.loc 1 385 0 discriminator 5
 2129 0018 FFF7FEFF 		bl	USBUART_CDCIsReady
 2130              	.LVL289:
 2131 001c 0028     		cmp	r0, #0
 2132 001e 05D1     		bne	.L168
 385:TkShell.c     **** 
 2133              		.loc 1 385 0 discriminator 3
 2134 0020 0C4B     		ldr	r3, .L172
 2135 0022 1B68     		ldr	r3, [r3]
 2136 0024 5B1B     		subs	r3, r3, r5
 2137 0026 0C4A     		ldr	r2, .L172+4
 2138 0028 9342     		cmp	r3, r2
 2139 002a F5D9     		bls	.L169
 2140              	.L168:
 385:TkShell.c     **** 
 2141              		.loc 1 385 0 discriminator 6
 2142 002c 002C     		cmp	r4, #0
 2143 002e 02D0     		beq	.L171
 385:TkShell.c     **** 
 2144              		.loc 1 385 0
 2145 0030 0A4A     		ldr	r2, .L172+8
 2146 0032 3832     		adds	r2, r2, #56
 2147 0034 01E0     		b	.L170
 2148              	.L171:
 2149 0036 094A     		ldr	r2, .L172+8
 2150 0038 3C32     		adds	r2, r2, #60
 2151              	.L170:
 385:TkShell.c     **** 
 2152              		.loc 1 385 0 discriminator 10
 2153 003a 094C     		ldr	r4, .L172+12
 2154              	.LVL290:
 2155 003c 019B     		ldr	r3, [sp, #4]
 2156 003e 0949     		ldr	r1, .L172+16
 2157 0040 2000     		movs	r0, r4
 2158 0042 FFF7FEFF 		bl	sprintf
 2159              	.LVL291:
 2160 0046 2000     		movs	r0, r4
 2161 0048 FFF7FEFF 		bl	USBUART_PutString
ARM GAS  C:\Users\TERENC~1\AppData\Local\Temp\cc9BPywF.s 			page 52


 2162              	.LVL292:
 2163              	.L167:
 2164              	.LBE33:
 388:TkShell.c     **** 
 2165              		.loc 1 388 0 is_stmt 1
 2166 004c 0020     		movs	r0, #0
 2167 004e 03B0     		add	sp, sp, #12
 2168              		@ sp needed
 2169 0050 30BD     		pop	{r4, r5, pc}
 2170              	.L173:
 2171 0052 C046     		.align	2
 2172              	.L172:
 2173 0054 00000000 		.word	tmrCounter_ms
 2174 0058 E7030000 		.word	999
 2175 005c 00000000 		.word	.LANCHOR0
 2176 0060 00000000 		.word	gbuf
 2177 0064 54010000 		.word	.LC94
 2178              		.cfi_endproc
 2179              	.LFE15:
 2180              		.size	__tk_shell_rf_bl_verify, .-__tk_shell_rf_bl_verify
 2181              		.section	.text.__tk_shell_rf_bl_flash,"ax",%progbits
 2182              		.align	2
 2183              		.global	__tk_shell_rf_bl_flash
 2184              		.code	16
 2185              		.thumb_func
 2186              		.type	__tk_shell_rf_bl_flash, %function
 2187              	__tk_shell_rf_bl_flash:
 2188              	.LFB16:
 391:TkShell.c     ****   int i = 2, j;
 2189              		.loc 1 391 0
 2190              		.cfi_startproc
 2191              		@ args = 0, pretend = 0, frame = 72
 2192              		@ frame_needed = 0, uses_anonymous_args = 0
 2193              	.LVL293:
 2194 0000 F0B5     		push	{r4, r5, r6, r7, lr}
 2195              		.cfi_def_cfa_offset 20
 2196              		.cfi_offset 4, -20
 2197              		.cfi_offset 5, -16
 2198              		.cfi_offset 6, -12
 2199              		.cfi_offset 7, -8
 2200              		.cfi_offset 14, -4
 2201 0002 93B0     		sub	sp, sp, #76
 2202              		.cfi_def_cfa_offset 96
 2203 0004 0F00     		movs	r7, r1
 2204              	.LVL294:
 397:TkShell.c     ****   
 2205              		.loc 1 397 0
 2206 0006 841E     		subs	r4, r0, #2
 2207              	.LVL295:
 399:TkShell.c     ****   {
 2208              		.loc 1 399 0
 2209 0008 022C     		cmp	r4, #2
 2210 000a 1BD0     		beq	.L175
 401:TkShell.c     ****       return -1;
 2211              		.loc 1 401 0
 2212 000c FFF7FEFF 		bl	USBUART_GetConfiguration
 2213              	.LVL296:
ARM GAS  C:\Users\TERENC~1\AppData\Local\Temp\cc9BPywF.s 			page 53


 2214 0010 0028     		cmp	r0, #0
 2215 0012 61D0     		beq	.L184
 2216              	.LBB34:
 401:TkShell.c     ****       return -1;
 2217              		.loc 1 401 0 is_stmt 0 discriminator 1
 2218 0014 334B     		ldr	r3, .L187
 2219 0016 1D68     		ldr	r5, [r3]
 2220              	.LVL297:
 2221              	.L178:
 401:TkShell.c     ****       return -1;
 2222              		.loc 1 401 0 discriminator 5
 2223 0018 FFF7FEFF 		bl	USBUART_CDCIsReady
 2224              	.LVL298:
 2225 001c 0028     		cmp	r0, #0
 2226 001e 05D1     		bne	.L177
 401:TkShell.c     ****       return -1;
 2227              		.loc 1 401 0 discriminator 3
 2228 0020 304B     		ldr	r3, .L187
 2229 0022 1B68     		ldr	r3, [r3]
 2230 0024 5B1B     		subs	r3, r3, r5
 2231 0026 304A     		ldr	r2, .L187+4
 2232 0028 9342     		cmp	r3, r2
 2233 002a F5D9     		bls	.L178
 2234              	.L177:
 401:TkShell.c     ****       return -1;
 2235              		.loc 1 401 0 discriminator 6
 2236 002c 2F4D     		ldr	r5, .L187+8
 2237              	.LVL299:
 2238 002e 2200     		movs	r2, r4
 2239 0030 2F49     		ldr	r1, .L187+12
 2240 0032 2800     		movs	r0, r5
 2241 0034 FFF7FEFF 		bl	sprintf
 2242              	.LVL300:
 2243 0038 2800     		movs	r0, r5
 2244 003a FFF7FEFF 		bl	USBUART_PutString
 2245              	.LVL301:
 2246              	.LBE34:
 402:TkShell.c     ****   }
 2247              		.loc 1 402 0 is_stmt 1 discriminator 6
 2248 003e 0120     		movs	r0, #1
 2249 0040 4042     		rsbs	r0, r0, #0
 2250 0042 4DE0     		b	.L176
 2251              	.LVL302:
 2252              	.L175:
 405:TkShell.c     ****   
 2253              		.loc 1 405 0
 2254 0044 1022     		movs	r2, #16
 2255 0046 0021     		movs	r1, #0
 2256              	.LVL303:
 2257 0048 B868     		ldr	r0, [r7, #8]
 2258 004a FFF7FEFF 		bl	strtoul
 2259              	.LVL304:
 2260 004e 86B2     		uxth	r6, r0
 2261              	.LVL305:
 407:TkShell.c     ****   {
 2262              		.loc 1 407 0
 2263 0050 0024     		movs	r4, #0
ARM GAS  C:\Users\TERENC~1\AppData\Local\Temp\cc9BPywF.s 			page 54


 2264              	.LVL306:
 2265 0052 12E0     		b	.L179
 2266              	.LVL307:
 2267              	.L180:
 409:TkShell.c     ****     hex[1] = argv[i][j + 1];
 2268              		.loc 1 409 0 discriminator 3
 2269 0054 2B5D     		ldrb	r3, [r5, r4]
 2270 0056 01A8     		add	r0, sp, #4
 2271 0058 0370     		strb	r3, [r0]
 410:TkShell.c     ****     hex[2] = '\0';
 2272              		.loc 1 410 0 discriminator 3
 2273 005a FB68     		ldr	r3, [r7, #12]
 2274 005c 1B19     		adds	r3, r3, r4
 2275 005e 5B78     		ldrb	r3, [r3, #1]
 2276 0060 4370     		strb	r3, [r0, #1]
 411:TkShell.c     ****     data[j/2] = strtoul(hex, NULL, 16);
 2277              		.loc 1 411 0 discriminator 3
 2278 0062 0023     		movs	r3, #0
 2279 0064 8370     		strb	r3, [r0, #2]
 412:TkShell.c     ****   }
 2280              		.loc 1 412 0 discriminator 3
 2281 0066 E50F     		lsrs	r5, r4, #31
 2282 0068 2D19     		adds	r5, r5, r4
 2283 006a 6D10     		asrs	r5, r5, #1
 2284 006c 1022     		movs	r2, #16
 2285 006e 0021     		movs	r1, #0
 2286 0070 FFF7FEFF 		bl	strtoul
 2287              	.LVL308:
 2288 0074 02AB     		add	r3, sp, #8
 2289 0076 5855     		strb	r0, [r3, r5]
 407:TkShell.c     ****   {
 2290              		.loc 1 407 0 discriminator 3
 2291 0078 0234     		adds	r4, r4, #2
 2292              	.LVL309:
 2293              	.L179:
 407:TkShell.c     ****   {
 2294              		.loc 1 407 0 is_stmt 0 discriminator 1
 2295 007a FD68     		ldr	r5, [r7, #12]
 2296 007c 2800     		movs	r0, r5
 2297 007e FFF7FEFF 		bl	strlen
 2298              	.LVL310:
 2299 0082 8442     		cmp	r4, r0
 2300 0084 E6DB     		blt	.L180
 415:TkShell.c     ****   return 0;
 2301              		.loc 1 415 0 is_stmt 1
 2302 0086 FFF7FEFF 		bl	USBUART_GetConfiguration
 2303              	.LVL311:
 2304 008a 0028     		cmp	r0, #0
 2305 008c 27D0     		beq	.L185
 2306              	.LBB35:
 415:TkShell.c     ****   return 0;
 2307              		.loc 1 415 0 is_stmt 0 discriminator 1
 2308 008e 154B     		ldr	r3, .L187
 2309 0090 1D68     		ldr	r5, [r3]
 2310              	.LVL312:
 2311              	.L182:
 415:TkShell.c     ****   return 0;
ARM GAS  C:\Users\TERENC~1\AppData\Local\Temp\cc9BPywF.s 			page 55


 2312              		.loc 1 415 0 discriminator 5
 2313 0092 FFF7FEFF 		bl	USBUART_CDCIsReady
 2314              	.LVL313:
 2315 0096 0028     		cmp	r0, #0
 2316 0098 05D1     		bne	.L181
 415:TkShell.c     ****   return 0;
 2317              		.loc 1 415 0 discriminator 3
 2318 009a 124B     		ldr	r3, .L187
 2319 009c 1B68     		ldr	r3, [r3]
 2320 009e 5B1B     		subs	r3, r3, r5
 2321 00a0 114A     		ldr	r2, .L187+4
 2322 00a2 9342     		cmp	r3, r2
 2323 00a4 F5D9     		bls	.L182
 2324              	.L181:
 415:TkShell.c     ****   return 0;
 2325              		.loc 1 415 0 discriminator 6
 2326 00a6 E20F     		lsrs	r2, r4, #31
 2327 00a8 1419     		adds	r4, r2, r4
 2328              	.LVL314:
 2329 00aa 6410     		asrs	r4, r4, #1
 2330 00ac A2B2     		uxth	r2, r4
 2331 00ae 02A9     		add	r1, sp, #8
 2332 00b0 3000     		movs	r0, r6
 2333 00b2 FFF7FEFF 		bl	cc85xx_flash_bytes
 2334              	.LVL315:
 2335 00b6 0028     		cmp	r0, #0
 2336 00b8 02D0     		beq	.L186
 415:TkShell.c     ****   return 0;
 2337              		.loc 1 415 0
 2338 00ba 0E4A     		ldr	r2, .L187+16
 2339 00bc 3832     		adds	r2, r2, #56
 2340 00be 01E0     		b	.L183
 2341              	.L186:
 2342 00c0 0C4A     		ldr	r2, .L187+16
 2343 00c2 3C32     		adds	r2, r2, #60
 2344              	.L183:
 415:TkShell.c     ****   return 0;
 2345              		.loc 1 415 0 discriminator 10
 2346 00c4 094C     		ldr	r4, .L187+8
 2347 00c6 0C49     		ldr	r1, .L187+20
 2348 00c8 2000     		movs	r0, r4
 2349 00ca FFF7FEFF 		bl	sprintf
 2350              	.LVL316:
 2351 00ce 2000     		movs	r0, r4
 2352 00d0 FFF7FEFF 		bl	USBUART_PutString
 2353              	.LVL317:
 2354              	.LBE35:
 416:TkShell.c     **** }
 2355              		.loc 1 416 0 is_stmt 1 discriminator 10
 2356 00d4 0020     		movs	r0, #0
 2357 00d6 03E0     		b	.L176
 2358              	.LVL318:
 2359              	.L184:
 402:TkShell.c     ****   }
 2360              		.loc 1 402 0
 2361 00d8 0120     		movs	r0, #1
 2362 00da 4042     		rsbs	r0, r0, #0
ARM GAS  C:\Users\TERENC~1\AppData\Local\Temp\cc9BPywF.s 			page 56


 2363 00dc 00E0     		b	.L176
 2364              	.LVL319:
 2365              	.L185:
 416:TkShell.c     **** }
 2366              		.loc 1 416 0
 2367 00de 0020     		movs	r0, #0
 2368              	.LVL320:
 2369              	.L176:
 417:TkShell.c     **** 
 2370              		.loc 1 417 0
 2371 00e0 13B0     		add	sp, sp, #76
 2372              		@ sp needed
 2373              	.LVL321:
 2374 00e2 F0BD     		pop	{r4, r5, r6, r7, pc}
 2375              	.L188:
 2376              		.align	2
 2377              	.L187:
 2378 00e4 00000000 		.word	tmrCounter_ms
 2379 00e8 E7030000 		.word	999
 2380 00ec 00000000 		.word	gbuf
 2381 00f0 64010000 		.word	.LC99
 2382 00f4 00000000 		.word	.LANCHOR0
 2383 00f8 48010000 		.word	.LC77
 2384              		.cfi_endproc
 2385              	.LFE16:
 2386              		.size	__tk_shell_rf_bl_flash, .-__tk_shell_rf_bl_flash
 2387              		.section	.text.__tk_shell_rf_status,"ax",%progbits
 2388              		.align	2
 2389              		.global	__tk_shell_rf_status
 2390              		.code	16
 2391              		.thumb_func
 2392              		.type	__tk_shell_rf_status, %function
 2393              	__tk_shell_rf_status:
 2394              	.LFB17:
 420:TkShell.c     ****   PRINTF("> rf:ok 0x%04X\n", cc85xx_get_status());
 2395              		.loc 1 420 0
 2396              		.cfi_startproc
 2397              		@ args = 0, pretend = 0, frame = 0
 2398              		@ frame_needed = 0, uses_anonymous_args = 0
 2399              	.LVL322:
 2400 0000 10B5     		push	{r4, lr}
 2401              		.cfi_def_cfa_offset 8
 2402              		.cfi_offset 4, -8
 2403              		.cfi_offset 14, -4
 421:TkShell.c     ****   return 0;
 2404              		.loc 1 421 0
 2405 0002 FFF7FEFF 		bl	USBUART_GetConfiguration
 2406              	.LVL323:
 2407 0006 0028     		cmp	r0, #0
 2408 0008 16D0     		beq	.L190
 2409              	.LBB36:
 421:TkShell.c     ****   return 0;
 2410              		.loc 1 421 0 is_stmt 0 discriminator 1
 2411 000a 0C4B     		ldr	r3, .L193
 2412 000c 1C68     		ldr	r4, [r3]
 2413              	.LVL324:
 2414              	.L192:
ARM GAS  C:\Users\TERENC~1\AppData\Local\Temp\cc9BPywF.s 			page 57


 421:TkShell.c     ****   return 0;
 2415              		.loc 1 421 0 discriminator 5
 2416 000e FFF7FEFF 		bl	USBUART_CDCIsReady
 2417              	.LVL325:
 2418 0012 0028     		cmp	r0, #0
 2419 0014 05D1     		bne	.L191
 421:TkShell.c     ****   return 0;
 2420              		.loc 1 421 0 discriminator 3
 2421 0016 094B     		ldr	r3, .L193
 2422 0018 1B68     		ldr	r3, [r3]
 2423 001a 1B1B     		subs	r3, r3, r4
 2424 001c 084A     		ldr	r2, .L193+4
 2425 001e 9342     		cmp	r3, r2
 2426 0020 F5D9     		bls	.L192
 2427              	.L191:
 421:TkShell.c     ****   return 0;
 2428              		.loc 1 421 0 discriminator 6
 2429 0022 FFF7FEFF 		bl	cc85xx_get_status
 2430              	.LVL326:
 2431 0026 0200     		movs	r2, r0
 2432 0028 064C     		ldr	r4, .L193+8
 2433              	.LVL327:
 2434 002a 0749     		ldr	r1, .L193+12
 2435 002c 2000     		movs	r0, r4
 2436 002e FFF7FEFF 		bl	sprintf
 2437              	.LVL328:
 2438 0032 2000     		movs	r0, r4
 2439 0034 FFF7FEFF 		bl	USBUART_PutString
 2440              	.LVL329:
 2441              	.L190:
 2442              	.LBE36:
 423:TkShell.c     **** 
 2443              		.loc 1 423 0 is_stmt 1
 2444 0038 0020     		movs	r0, #0
 2445              		@ sp needed
 2446 003a 10BD     		pop	{r4, pc}
 2447              	.L194:
 2448              		.align	2
 2449              	.L193:
 2450 003c 00000000 		.word	tmrCounter_ms
 2451 0040 E7030000 		.word	999
 2452 0044 00000000 		.word	gbuf
 2453 0048 88010000 		.word	.LC104
 2454              		.cfi_endproc
 2455              	.LFE17:
 2456              		.size	__tk_shell_rf_status, .-__tk_shell_rf_status
 2457              		.section	.text.__tk_shell_rf_info,"ax",%progbits
 2458              		.align	2
 2459              		.global	__tk_shell_rf_info
 2460              		.code	16
 2461              		.thumb_func
 2462              		.type	__tk_shell_rf_info, %function
 2463              	__tk_shell_rf_info:
 2464              	.LFB18:
 426:TkShell.c     ****   PRINTF("> rf:%s\n", (cc85xx_print_info()) ? OK_STR : ER_STR);
 2465              		.loc 1 426 0
 2466              		.cfi_startproc
ARM GAS  C:\Users\TERENC~1\AppData\Local\Temp\cc9BPywF.s 			page 58


 2467              		@ args = 0, pretend = 0, frame = 0
 2468              		@ frame_needed = 0, uses_anonymous_args = 0
 2469              	.LVL330:
 2470 0000 10B5     		push	{r4, lr}
 2471              		.cfi_def_cfa_offset 8
 2472              		.cfi_offset 4, -8
 2473              		.cfi_offset 14, -4
 427:TkShell.c     ****   return 0;
 2474              		.loc 1 427 0
 2475 0002 FFF7FEFF 		bl	USBUART_GetConfiguration
 2476              	.LVL331:
 2477 0006 0028     		cmp	r0, #0
 2478 0008 1CD0     		beq	.L196
 2479              	.LBB37:
 427:TkShell.c     ****   return 0;
 2480              		.loc 1 427 0 is_stmt 0 discriminator 1
 2481 000a 0F4B     		ldr	r3, .L201
 2482 000c 1C68     		ldr	r4, [r3]
 2483              	.LVL332:
 2484              	.L198:
 427:TkShell.c     ****   return 0;
 2485              		.loc 1 427 0 discriminator 5
 2486 000e FFF7FEFF 		bl	USBUART_CDCIsReady
 2487              	.LVL333:
 2488 0012 0028     		cmp	r0, #0
 2489 0014 05D1     		bne	.L197
 427:TkShell.c     ****   return 0;
 2490              		.loc 1 427 0 discriminator 3
 2491 0016 0C4B     		ldr	r3, .L201
 2492 0018 1B68     		ldr	r3, [r3]
 2493 001a 1B1B     		subs	r3, r3, r4
 2494 001c 0B4A     		ldr	r2, .L201+4
 2495 001e 9342     		cmp	r3, r2
 2496 0020 F5D9     		bls	.L198
 2497              	.L197:
 427:TkShell.c     ****   return 0;
 2498              		.loc 1 427 0 discriminator 6
 2499 0022 FFF7FEFF 		bl	cc85xx_print_info
 2500              	.LVL334:
 2501 0026 0028     		cmp	r0, #0
 2502 0028 02D0     		beq	.L200
 427:TkShell.c     ****   return 0;
 2503              		.loc 1 427 0
 2504 002a 094A     		ldr	r2, .L201+8
 2505 002c 3832     		adds	r2, r2, #56
 2506 002e 01E0     		b	.L199
 2507              	.L200:
 2508 0030 074A     		ldr	r2, .L201+8
 2509 0032 3C32     		adds	r2, r2, #60
 2510              	.L199:
 427:TkShell.c     ****   return 0;
 2511              		.loc 1 427 0 discriminator 10
 2512 0034 074C     		ldr	r4, .L201+12
 2513              	.LVL335:
 2514 0036 0849     		ldr	r1, .L201+16
 2515 0038 2000     		movs	r0, r4
 2516 003a FFF7FEFF 		bl	sprintf
ARM GAS  C:\Users\TERENC~1\AppData\Local\Temp\cc9BPywF.s 			page 59


 2517              	.LVL336:
 2518 003e 2000     		movs	r0, r4
 2519 0040 FFF7FEFF 		bl	USBUART_PutString
 2520              	.LVL337:
 2521              	.L196:
 2522              	.LBE37:
 429:TkShell.c     **** 
 2523              		.loc 1 429 0 is_stmt 1
 2524 0044 0020     		movs	r0, #0
 2525              		@ sp needed
 2526 0046 10BD     		pop	{r4, pc}
 2527              	.L202:
 2528              		.align	2
 2529              	.L201:
 2530 0048 00000000 		.word	tmrCounter_ms
 2531 004c E7030000 		.word	999
 2532 0050 00000000 		.word	.LANCHOR0
 2533 0054 00000000 		.word	gbuf
 2534 0058 48010000 		.word	.LC77
 2535              		.cfi_endproc
 2536              	.LFE18:
 2537              		.size	__tk_shell_rf_info, .-__tk_shell_rf_info
 2538              		.section	.text.__tk_shell_sys_reset,"ax",%progbits
 2539              		.align	2
 2540              		.global	__tk_shell_sys_reset
 2541              		.code	16
 2542              		.thumb_func
 2543              		.type	__tk_shell_sys_reset, %function
 2544              	__tk_shell_sys_reset:
 2545              	.LFB21:
 450:TkShell.c     ****     CySoftwareReset();
 2546              		.loc 1 450 0
 2547              		.cfi_startproc
 2548              		@ args = 0, pretend = 0, frame = 0
 2549              		@ frame_needed = 0, uses_anonymous_args = 0
 2550              	.LVL338:
 2551 0000 10B5     		push	{r4, lr}
 2552              		.cfi_def_cfa_offset 8
 2553              		.cfi_offset 4, -8
 2554              		.cfi_offset 14, -4
 451:TkShell.c     ****     
 2555              		.loc 1 451 0
 2556 0002 FFF7FEFF 		bl	CySoftwareReset
 2557              	.LVL339:
 454:TkShell.c     **** 
 2558              		.loc 1 454 0
 2559 0006 0020     		movs	r0, #0
 2560              		@ sp needed
 2561 0008 10BD     		pop	{r4, pc}
 2562              		.cfi_endproc
 2563              	.LFE21:
 2564              		.size	__tk_shell_sys_reset, .-__tk_shell_sys_reset
 2565 000a C046     		.section	.text.__tk_shell_cal_save,"ax",%progbits
 2566              		.align	2
 2567              		.global	__tk_shell_cal_save
 2568              		.code	16
 2569              		.thumb_func
ARM GAS  C:\Users\TERENC~1\AppData\Local\Temp\cc9BPywF.s 			page 60


 2570              		.type	__tk_shell_cal_save, %function
 2571              	__tk_shell_cal_save:
 2572              	.LFB27:
 558:TkShell.c     **** 
 559:TkShell.c     **** TK_SHELL_METHOD(cal, set)
 560:TkShell.c     **** {
 561:TkShell.c     ****     int i = 2;
 562:TkShell.c     ****     
 563:TkShell.c     ****     argc -= i;
 564:TkShell.c     ****     
 565:TkShell.c     ****     if (argc == 0)
 566:TkShell.c     ****     {
 567:TkShell.c     ****         PRINTF("Invalid number of arguments!\n");
 568:TkShell.c     ****         return -1;
 569:TkShell.c     ****     }
 570:TkShell.c     ****     
 571:TkShell.c     ****     if (strcicmp(argv[i], "led_max_brightness") == 0)
 572:TkShell.c     ****     {
 573:TkShell.c     ****         cal_data->led_max_brightness = atoi(argv[++i]);
 574:TkShell.c     ****     }
 575:TkShell.c     ****     else if (strcicmp(argv[i], "adc_min_l") == 0)
 576:TkShell.c     ****     {
 577:TkShell.c     ****         cal_data->adc_min[vol_ctrl_left] = atoi(argv[++i]);
 578:TkShell.c     ****     }
 579:TkShell.c     ****     else if (strcicmp(argv[i], "debug_mask") == 0)
 580:TkShell.c     ****     {
 581:TkShell.c     ****         cal_data->debug_mask = strtoul(argv[++i], NULL, 16);
 582:TkShell.c     ****     }
 583:TkShell.c     ****     return 0;
 584:TkShell.c     **** }
 585:TkShell.c     **** 
 586:TkShell.c     **** TK_SHELL_METHOD(cal, save)
 587:TkShell.c     **** {
 2573              		.loc 1 587 0
 2574              		.cfi_startproc
 2575              		@ args = 0, pretend = 0, frame = 0
 2576              		@ frame_needed = 0, uses_anonymous_args = 0
 2577              	.LVL340:
 2578 0000 10B5     		push	{r4, lr}
 2579              		.cfi_def_cfa_offset 8
 2580              		.cfi_offset 4, -8
 2581              		.cfi_offset 14, -4
 588:TkShell.c     ****     PRINTF("> cal:ok %d\n", CalibrationSave());
 2582              		.loc 1 588 0
 2583 0002 FFF7FEFF 		bl	USBUART_GetConfiguration
 2584              	.LVL341:
 2585 0006 0028     		cmp	r0, #0
 2586 0008 16D0     		beq	.L205
 2587              	.LBB38:
 2588              		.loc 1 588 0 is_stmt 0 discriminator 1
 2589 000a 0C4B     		ldr	r3, .L208
 2590 000c 1C68     		ldr	r4, [r3]
 2591              	.LVL342:
 2592              	.L207:
 2593              		.loc 1 588 0 discriminator 5
 2594 000e FFF7FEFF 		bl	USBUART_CDCIsReady
 2595              	.LVL343:
ARM GAS  C:\Users\TERENC~1\AppData\Local\Temp\cc9BPywF.s 			page 61


 2596 0012 0028     		cmp	r0, #0
 2597 0014 05D1     		bne	.L206
 2598              		.loc 1 588 0 discriminator 3
 2599 0016 094B     		ldr	r3, .L208
 2600 0018 1B68     		ldr	r3, [r3]
 2601 001a 1B1B     		subs	r3, r3, r4
 2602 001c 084A     		ldr	r2, .L208+4
 2603 001e 9342     		cmp	r3, r2
 2604 0020 F5D9     		bls	.L207
 2605              	.L206:
 2606              		.loc 1 588 0 discriminator 6
 2607 0022 FFF7FEFF 		bl	CalibrationSave
 2608              	.LVL344:
 2609 0026 0200     		movs	r2, r0
 2610 0028 064C     		ldr	r4, .L208+8
 2611              	.LVL345:
 2612 002a 0749     		ldr	r1, .L208+12
 2613 002c 2000     		movs	r0, r4
 2614 002e FFF7FEFF 		bl	sprintf
 2615              	.LVL346:
 2616 0032 2000     		movs	r0, r4
 2617 0034 FFF7FEFF 		bl	USBUART_PutString
 2618              	.LVL347:
 2619              	.L205:
 2620              	.LBE38:
 589:TkShell.c     ****     return 0;
 590:TkShell.c     **** }
 2621              		.loc 1 590 0 is_stmt 1
 2622 0038 0020     		movs	r0, #0
 2623              		@ sp needed
 2624 003a 10BD     		pop	{r4, pc}
 2625              	.L209:
 2626              		.align	2
 2627              	.L208:
 2628 003c 00000000 		.word	tmrCounter_ms
 2629 0040 E7030000 		.word	999
 2630 0044 00000000 		.word	gbuf
 2631 0048 98010000 		.word	.LC112
 2632              		.cfi_endproc
 2633              	.LFE27:
 2634              		.size	__tk_shell_cal_save, .-__tk_shell_cal_save
 2635              		.section	.text.__tk_shell_audio_play_tone,"ax",%progbits
 2636              		.align	2
 2637              		.global	__tk_shell_audio_play_tone
 2638              		.code	16
 2639              		.thumb_func
 2640              		.type	__tk_shell_audio_play_tone, %function
 2641              	__tk_shell_audio_play_tone:
 2642              	.LFB28:
 591:TkShell.c     **** 
 592:TkShell.c     **** TK_SHELL_METHOD(audio, play_tone)
 593:TkShell.c     **** {
 2643              		.loc 1 593 0
 2644              		.cfi_startproc
 2645              		@ args = 0, pretend = 0, frame = 0
 2646              		@ frame_needed = 0, uses_anonymous_args = 0
 2647              	.LVL348:
ARM GAS  C:\Users\TERENC~1\AppData\Local\Temp\cc9BPywF.s 			page 62


 2648 0000 10B5     		push	{r4, lr}
 2649              		.cfi_def_cfa_offset 8
 2650              		.cfi_offset 4, -8
 2651              		.cfi_offset 14, -4
 594:TkShell.c     ****   AudioManagerToneStart(strtoul(argv[2], NULL, 16));
 2652              		.loc 1 594 0
 2653 0002 8868     		ldr	r0, [r1, #8]
 2654              	.LVL349:
 2655 0004 1022     		movs	r2, #16
 2656 0006 0021     		movs	r1, #0
 2657              	.LVL350:
 2658 0008 FFF7FEFF 		bl	strtoul
 2659              	.LVL351:
 2660 000c FFF7FEFF 		bl	AudioManagerToneStart
 2661              	.LVL352:
 595:TkShell.c     ****   
 596:TkShell.c     ****   PRINTF("> audio:ok\n");
 2662              		.loc 1 596 0
 2663 0010 FFF7FEFF 		bl	USBUART_GetConfiguration
 2664              	.LVL353:
 2665 0014 0028     		cmp	r0, #0
 2666 0016 14D0     		beq	.L211
 2667              	.LBB39:
 2668              		.loc 1 596 0 is_stmt 0 discriminator 1
 2669 0018 0B4B     		ldr	r3, .L214
 2670 001a 1C68     		ldr	r4, [r3]
 2671              	.LVL354:
 2672              	.L213:
 2673              		.loc 1 596 0 discriminator 5
 2674 001c FFF7FEFF 		bl	USBUART_CDCIsReady
 2675              	.LVL355:
 2676 0020 0028     		cmp	r0, #0
 2677 0022 05D1     		bne	.L212
 2678              		.loc 1 596 0 discriminator 3
 2679 0024 084B     		ldr	r3, .L214
 2680 0026 1B68     		ldr	r3, [r3]
 2681 0028 1B1B     		subs	r3, r3, r4
 2682 002a 084A     		ldr	r2, .L214+4
 2683 002c 9342     		cmp	r3, r2
 2684 002e F5D9     		bls	.L213
 2685              	.L212:
 2686              		.loc 1 596 0 discriminator 6
 2687 0030 074C     		ldr	r4, .L214+8
 2688              	.LVL356:
 2689 0032 0C22     		movs	r2, #12
 2690 0034 0749     		ldr	r1, .L214+12
 2691 0036 2000     		movs	r0, r4
 2692 0038 FFF7FEFF 		bl	memcpy
 2693              	.LVL357:
 2694 003c 2000     		movs	r0, r4
 2695 003e FFF7FEFF 		bl	USBUART_PutString
 2696              	.LVL358:
 2697              	.L211:
 2698              	.LBE39:
 597:TkShell.c     **** 
 598:TkShell.c     ****   return 0;
 599:TkShell.c     **** }
ARM GAS  C:\Users\TERENC~1\AppData\Local\Temp\cc9BPywF.s 			page 63


 2699              		.loc 1 599 0 is_stmt 1
 2700 0042 0020     		movs	r0, #0
 2701              		@ sp needed
 2702 0044 10BD     		pop	{r4, pc}
 2703              	.L215:
 2704 0046 C046     		.align	2
 2705              	.L214:
 2706 0048 00000000 		.word	tmrCounter_ms
 2707 004c E7030000 		.word	999
 2708 0050 00000000 		.word	gbuf
 2709 0054 A8010000 		.word	.LC117
 2710              		.cfi_endproc
 2711              	.LFE28:
 2712              		.size	__tk_shell_audio_play_tone, .-__tk_shell_audio_play_tone
 2713              		.section	.text.__tk_shell_audio_stop_tone,"ax",%progbits
 2714              		.align	2
 2715              		.global	__tk_shell_audio_stop_tone
 2716              		.code	16
 2717              		.thumb_func
 2718              		.type	__tk_shell_audio_stop_tone, %function
 2719              	__tk_shell_audio_stop_tone:
 2720              	.LFB29:
 600:TkShell.c     **** 
 601:TkShell.c     **** TK_SHELL_METHOD(audio, stop_tone)
 602:TkShell.c     **** {
 2721              		.loc 1 602 0
 2722              		.cfi_startproc
 2723              		@ args = 0, pretend = 0, frame = 0
 2724              		@ frame_needed = 0, uses_anonymous_args = 0
 2725              	.LVL359:
 2726 0000 10B5     		push	{r4, lr}
 2727              		.cfi_def_cfa_offset 8
 2728              		.cfi_offset 4, -8
 2729              		.cfi_offset 14, -4
 603:TkShell.c     ****   AudioManagerToneStop();
 2730              		.loc 1 603 0
 2731 0002 FFF7FEFF 		bl	AudioManagerToneStop
 2732              	.LVL360:
 604:TkShell.c     ****   PRINTF("> audio:ok\n");
 2733              		.loc 1 604 0
 2734 0006 FFF7FEFF 		bl	USBUART_GetConfiguration
 2735              	.LVL361:
 2736 000a 0028     		cmp	r0, #0
 2737 000c 14D0     		beq	.L217
 2738              	.LBB40:
 2739              		.loc 1 604 0 is_stmt 0 discriminator 1
 2740 000e 0B4B     		ldr	r3, .L220
 2741 0010 1C68     		ldr	r4, [r3]
 2742              	.LVL362:
 2743              	.L219:
 2744              		.loc 1 604 0 discriminator 5
 2745 0012 FFF7FEFF 		bl	USBUART_CDCIsReady
 2746              	.LVL363:
 2747 0016 0028     		cmp	r0, #0
 2748 0018 05D1     		bne	.L218
 2749              		.loc 1 604 0 discriminator 3
 2750 001a 084B     		ldr	r3, .L220
ARM GAS  C:\Users\TERENC~1\AppData\Local\Temp\cc9BPywF.s 			page 64


 2751 001c 1B68     		ldr	r3, [r3]
 2752 001e 1B1B     		subs	r3, r3, r4
 2753 0020 074A     		ldr	r2, .L220+4
 2754 0022 9342     		cmp	r3, r2
 2755 0024 F5D9     		bls	.L219
 2756              	.L218:
 2757              		.loc 1 604 0 discriminator 6
 2758 0026 074C     		ldr	r4, .L220+8
 2759              	.LVL364:
 2760 0028 0C22     		movs	r2, #12
 2761 002a 0749     		ldr	r1, .L220+12
 2762 002c 2000     		movs	r0, r4
 2763 002e FFF7FEFF 		bl	memcpy
 2764              	.LVL365:
 2765 0032 2000     		movs	r0, r4
 2766 0034 FFF7FEFF 		bl	USBUART_PutString
 2767              	.LVL366:
 2768              	.L217:
 2769              	.LBE40:
 605:TkShell.c     ****   return 0;
 606:TkShell.c     **** }
 2770              		.loc 1 606 0 is_stmt 1
 2771 0038 0020     		movs	r0, #0
 2772              		@ sp needed
 2773 003a 10BD     		pop	{r4, pc}
 2774              	.L221:
 2775              		.align	2
 2776              	.L220:
 2777 003c 00000000 		.word	tmrCounter_ms
 2778 0040 E7030000 		.word	999
 2779 0044 00000000 		.word	gbuf
 2780 0048 A8010000 		.word	.LC117
 2781              		.cfi_endproc
 2782              	.LFE29:
 2783              		.size	__tk_shell_audio_stop_tone, .-__tk_shell_audio_stop_tone
 2784              		.section	.text.strcicmp,"ax",%progbits
 2785              		.align	2
 2786              		.global	strcicmp
 2787              		.code	16
 2788              		.thumb_func
 2789              		.type	strcicmp, %function
 2790              	strcicmp:
 2791              	.LFB2:
 178:TkShell.c     ****     for (;; a++, b++)
 2792              		.loc 1 178 0
 2793              		.cfi_startproc
 2794              		@ args = 0, pretend = 0, frame = 0
 2795              		@ frame_needed = 0, uses_anonymous_args = 0
 2796              	.LVL367:
 2797 0000 70B5     		push	{r4, r5, r6, lr}
 2798              		.cfi_def_cfa_offset 16
 2799              		.cfi_offset 4, -16
 2800              		.cfi_offset 5, -12
 2801              		.cfi_offset 6, -8
 2802              		.cfi_offset 14, -4
 2803              	.L229:
 2804              	.LBB41:
ARM GAS  C:\Users\TERENC~1\AppData\Local\Temp\cc9BPywF.s 			page 65


 2805              	.LBB42:
 181:TkShell.c     ****         if (d != 0 || !*a)
 2806              		.loc 1 181 0
 2807 0002 0578     		ldrb	r5, [r0]
 2808              	.LVL368:
 2809 0004 0E4B     		ldr	r3, .L231
 2810 0006 1A68     		ldr	r2, [r3]
 2811 0008 5319     		adds	r3, r2, r5
 2812 000a 5B78     		ldrb	r3, [r3, #1]
 2813 000c 0324     		movs	r4, #3
 2814 000e 2340     		ands	r3, r4
 2815 0010 012B     		cmp	r3, #1
 2816 0012 02D1     		bne	.L223
 181:TkShell.c     ****         if (d != 0 || !*a)
 2817              		.loc 1 181 0 is_stmt 0 discriminator 1
 2818 0014 2C00     		movs	r4, r5
 2819 0016 2034     		adds	r4, r4, #32
 2820 0018 00E0     		b	.L224
 2821              	.L223:
 181:TkShell.c     ****         if (d != 0 || !*a)
 2822              		.loc 1 181 0 discriminator 2
 2823 001a 2C00     		movs	r4, r5
 2824              	.L224:
 2825              	.LBE42:
 2826              	.LBB43:
 181:TkShell.c     ****         if (d != 0 || !*a)
 2827              		.loc 1 181 0 discriminator 4
 2828 001c 0B78     		ldrb	r3, [r1]
 2829              	.LVL369:
 2830 001e D218     		adds	r2, r2, r3
 2831 0020 5278     		ldrb	r2, [r2, #1]
 2832 0022 0326     		movs	r6, #3
 2833 0024 3240     		ands	r2, r6
 2834 0026 012A     		cmp	r2, #1
 2835 0028 00D1     		bne	.L226
 181:TkShell.c     ****         if (d != 0 || !*a)
 2836              		.loc 1 181 0 discriminator 5
 2837 002a 2033     		adds	r3, r3, #32
 2838              	.LVL370:
 2839              	.L226:
 2840              	.LBE43:
 181:TkShell.c     ****         if (d != 0 || !*a)
 2841              		.loc 1 181 0 discriminator 8
 2842 002c E31A     		subs	r3, r4, r3
 2843              	.LVL371:
 182:TkShell.c     ****             return d;
 2844              		.loc 1 182 0 is_stmt 1 discriminator 8
 2845 002e 04D1     		bne	.L230
 182:TkShell.c     ****             return d;
 2846              		.loc 1 182 0 is_stmt 0 discriminator 1
 2847 0030 002D     		cmp	r5, #0
 2848 0032 02D0     		beq	.L230
 2849              	.LBE41:
 179:TkShell.c     ****     {
 2850              		.loc 1 179 0 is_stmt 1
 2851 0034 0130     		adds	r0, r0, #1
 2852              	.LVL372:
ARM GAS  C:\Users\TERENC~1\AppData\Local\Temp\cc9BPywF.s 			page 66


 2853 0036 0131     		adds	r1, r1, #1
 2854              	.LVL373:
 184:TkShell.c     **** }
 2855              		.loc 1 184 0
 2856 0038 E3E7     		b	.L229
 2857              	.LVL374:
 2858              	.L230:
 185:TkShell.c     **** 
 2859              		.loc 1 185 0
 2860 003a 1800     		movs	r0, r3
 2861              	.LVL375:
 2862              		@ sp needed
 2863              	.LVL376:
 2864 003c 70BD     		pop	{r4, r5, r6, pc}
 2865              	.L232:
 2866 003e C046     		.align	2
 2867              	.L231:
 2868 0040 00000000 		.word	__ctype_ptr__
 2869              		.cfi_endproc
 2870              	.LFE2:
 2871              		.size	strcicmp, .-strcicmp
 2872              		.section	.text.__tk_shell_led_start,"ax",%progbits
 2873              		.align	2
 2874              		.global	__tk_shell_led_start
 2875              		.code	16
 2876              		.thumb_func
 2877              		.type	__tk_shell_led_start, %function
 2878              	__tk_shell_led_start:
 2879              	.LFB23:
 464:TkShell.c     ****     int i = 2;
 2880              		.loc 1 464 0
 2881              		.cfi_startproc
 2882              		@ args = 0, pretend = 0, frame = 0
 2883              		@ frame_needed = 0, uses_anonymous_args = 0
 2884              	.LVL377:
 2885 0000 F8B5     		push	{r3, r4, r5, r6, r7, lr}
 2886              		.cfi_def_cfa_offset 24
 2887              		.cfi_offset 3, -24
 2888              		.cfi_offset 4, -20
 2889              		.cfi_offset 5, -16
 2890              		.cfi_offset 6, -12
 2891              		.cfi_offset 7, -8
 2892              		.cfi_offset 14, -4
 2893 0002 0D00     		movs	r5, r1
 2894              	.LVL378:
 469:TkShell.c     ****     
 2895              		.loc 1 469 0
 2896 0004 841E     		subs	r4, r0, #2
 2897              	.LVL379:
 471:TkShell.c     ****     {
 2898              		.loc 1 471 0
 2899 0006 042C     		cmp	r4, #4
 2900 0008 1BD0     		beq	.L234
 473:TkShell.c     ****         return -1;
 2901              		.loc 1 473 0
 2902 000a FFF7FEFF 		bl	USBUART_GetConfiguration
 2903              	.LVL380:
ARM GAS  C:\Users\TERENC~1\AppData\Local\Temp\cc9BPywF.s 			page 67


 2904 000e 0028     		cmp	r0, #0
 2905 0010 77D0     		beq	.L243
 2906              	.LBB44:
 473:TkShell.c     ****         return -1;
 2907              		.loc 1 473 0 is_stmt 0 discriminator 1
 2908 0012 404B     		ldr	r3, .L249
 2909 0014 1D68     		ldr	r5, [r3]
 2910              	.LVL381:
 2911              	.L237:
 473:TkShell.c     ****         return -1;
 2912              		.loc 1 473 0 discriminator 5
 2913 0016 FFF7FEFF 		bl	USBUART_CDCIsReady
 2914              	.LVL382:
 2915 001a 0028     		cmp	r0, #0
 2916 001c 05D1     		bne	.L236
 473:TkShell.c     ****         return -1;
 2917              		.loc 1 473 0 discriminator 3
 2918 001e 3D4B     		ldr	r3, .L249
 2919 0020 1B68     		ldr	r3, [r3]
 2920 0022 5B1B     		subs	r3, r3, r5
 2921 0024 3C4A     		ldr	r2, .L249+4
 2922 0026 9342     		cmp	r3, r2
 2923 0028 F5D9     		bls	.L237
 2924              	.L236:
 473:TkShell.c     ****         return -1;
 2925              		.loc 1 473 0 discriminator 6
 2926 002a 3C4D     		ldr	r5, .L249+8
 2927              	.LVL383:
 2928 002c 2200     		movs	r2, r4
 2929 002e 3C49     		ldr	r1, .L249+12
 2930 0030 2800     		movs	r0, r5
 2931 0032 FFF7FEFF 		bl	sprintf
 2932              	.LVL384:
 2933 0036 2800     		movs	r0, r5
 2934 0038 FFF7FEFF 		bl	USBUART_PutString
 2935              	.LVL385:
 2936              	.LBE44:
 474:TkShell.c     ****     }
 2937              		.loc 1 474 0 is_stmt 1 discriminator 6
 2938 003c 0120     		movs	r0, #1
 2939 003e 4042     		rsbs	r0, r0, #0
 2940 0040 66E0     		b	.L235
 2941              	.LVL386:
 2942              	.L234:
 477:TkShell.c     ****     {
 2943              		.loc 1 477 0
 2944 0042 8C68     		ldr	r4, [r1, #8]
 2945              	.LVL387:
 2946 0044 3749     		ldr	r1, .L249+16
 2947              	.LVL388:
 2948 0046 2000     		movs	r0, r4
 2949              	.LVL389:
 2950 0048 FFF7FEFF 		bl	strcicmp
 2951              	.LVL390:
 2952 004c 0028     		cmp	r0, #0
 2953 004e 27D0     		beq	.L244
 481:TkShell.c     ****     {
ARM GAS  C:\Users\TERENC~1\AppData\Local\Temp\cc9BPywF.s 			page 68


 2954              		.loc 1 481 0
 2955 0050 3549     		ldr	r1, .L249+20
 2956 0052 2000     		movs	r0, r4
 2957 0054 FFF7FEFF 		bl	strcicmp
 2958              	.LVL391:
 2959 0058 0028     		cmp	r0, #0
 2960 005a 23D0     		beq	.L245
 485:TkShell.c     ****     {
 2961              		.loc 1 485 0
 2962 005c 3349     		ldr	r1, .L249+24
 2963 005e 2000     		movs	r0, r4
 2964 0060 FFF7FEFF 		bl	strcicmp
 2965              	.LVL392:
 2966 0064 0028     		cmp	r0, #0
 2967 0066 1FD0     		beq	.L246
 491:TkShell.c     ****         return -2;
 2968              		.loc 1 491 0
 2969 0068 FFF7FEFF 		bl	USBUART_GetConfiguration
 2970              	.LVL393:
 2971 006c 0028     		cmp	r0, #0
 2972 006e 4BD0     		beq	.L247
 2973              	.LBB45:
 491:TkShell.c     ****         return -2;
 2974              		.loc 1 491 0 is_stmt 0 discriminator 1
 2975 0070 284B     		ldr	r3, .L249
 2976 0072 1C68     		ldr	r4, [r3]
 2977              	.LVL394:
 2978              	.L240:
 491:TkShell.c     ****         return -2;
 2979              		.loc 1 491 0 discriminator 5
 2980 0074 FFF7FEFF 		bl	USBUART_CDCIsReady
 2981              	.LVL395:
 2982 0078 0028     		cmp	r0, #0
 2983 007a 05D1     		bne	.L239
 491:TkShell.c     ****         return -2;
 2984              		.loc 1 491 0 discriminator 3
 2985 007c 254B     		ldr	r3, .L249
 2986 007e 1B68     		ldr	r3, [r3]
 2987 0080 1B1B     		subs	r3, r3, r4
 2988 0082 254A     		ldr	r2, .L249+4
 2989 0084 9342     		cmp	r3, r2
 2990 0086 F5D9     		bls	.L240
 2991              	.L239:
 491:TkShell.c     ****         return -2;
 2992              		.loc 1 491 0 discriminator 6
 2993 0088 AA68     		ldr	r2, [r5, #8]
 2994 008a 244C     		ldr	r4, .L249+8
 2995              	.LVL396:
 2996 008c 2849     		ldr	r1, .L249+28
 2997 008e 2000     		movs	r0, r4
 2998 0090 FFF7FEFF 		bl	sprintf
 2999              	.LVL397:
 3000 0094 2000     		movs	r0, r4
 3001 0096 FFF7FEFF 		bl	USBUART_PutString
 3002              	.LVL398:
 3003              	.LBE45:
 492:TkShell.c     ****     }
ARM GAS  C:\Users\TERENC~1\AppData\Local\Temp\cc9BPywF.s 			page 69


 3004              		.loc 1 492 0 is_stmt 1 discriminator 6
 3005 009a 0220     		movs	r0, #2
 3006 009c 4042     		rsbs	r0, r0, #0
 3007 009e 37E0     		b	.L235
 3008              	.L244:
 479:TkShell.c     ****     }
 3009              		.loc 1 479 0
 3010 00a0 0024     		movs	r4, #0
 3011 00a2 02E0     		b	.L238
 3012              	.L245:
 483:TkShell.c     ****     }
 3013              		.loc 1 483 0
 3014 00a4 0124     		movs	r4, #1
 3015 00a6 00E0     		b	.L238
 3016              	.L246:
 487:TkShell.c     ****     }
 3017              		.loc 1 487 0
 3018 00a8 0224     		movs	r4, #2
 3019              	.L238:
 3020              	.LVL399:
 495:TkShell.c     ****     pwmCompare = atoi(argv[i + 2]);
 3021              		.loc 1 495 0
 3022 00aa E868     		ldr	r0, [r5, #12]
 3023 00ac FFF7FEFF 		bl	atoi
 3024              	.LVL400:
 3025 00b0 0600     		movs	r6, r0
 3026              	.LVL401:
 496:TkShell.c     ****     pwmCounter = atoi(argv[i + 3]);
 3027              		.loc 1 496 0
 3028 00b2 2869     		ldr	r0, [r5, #16]
 3029              	.LVL402:
 3030 00b4 FFF7FEFF 		bl	atoi
 3031              	.LVL403:
 3032 00b8 0700     		movs	r7, r0
 3033              	.LVL404:
 497:TkShell.c     ****     
 3034              		.loc 1 497 0
 3035 00ba 6869     		ldr	r0, [r5, #20]
 3036              	.LVL405:
 3037 00bc FFF7FEFF 		bl	atoi
 3038              	.LVL406:
 3039 00c0 0300     		movs	r3, r0
 3040              	.LVL407:
 499:TkShell.c     ****     
 3041              		.loc 1 499 0
 3042 00c2 3A00     		movs	r2, r7
 3043 00c4 3100     		movs	r1, r6
 3044 00c6 2000     		movs	r0, r4
 3045              	.LVL408:
 3046 00c8 FFF7FEFF 		bl	LedManagerStartOverride
 3047              	.LVL409:
 501:TkShell.c     **** 
 3048              		.loc 1 501 0
 3049 00cc FFF7FEFF 		bl	USBUART_GetConfiguration
 3050              	.LVL410:
 3051 00d0 0028     		cmp	r0, #0
 3052 00d2 1CD0     		beq	.L248
ARM GAS  C:\Users\TERENC~1\AppData\Local\Temp\cc9BPywF.s 			page 70


 3053              	.LBB46:
 501:TkShell.c     **** 
 3054              		.loc 1 501 0 is_stmt 0 discriminator 1
 3055 00d4 0F4B     		ldr	r3, .L249
 3056 00d6 1C68     		ldr	r4, [r3]
 3057              	.LVL411:
 3058              	.L242:
 501:TkShell.c     **** 
 3059              		.loc 1 501 0 discriminator 5
 3060 00d8 FFF7FEFF 		bl	USBUART_CDCIsReady
 3061              	.LVL412:
 3062 00dc 0028     		cmp	r0, #0
 3063 00de 05D1     		bne	.L241
 501:TkShell.c     **** 
 3064              		.loc 1 501 0 discriminator 3
 3065 00e0 0C4B     		ldr	r3, .L249
 3066 00e2 1B68     		ldr	r3, [r3]
 3067 00e4 1B1B     		subs	r3, r3, r4
 3068 00e6 0C4A     		ldr	r2, .L249+4
 3069 00e8 9342     		cmp	r3, r2
 3070 00ea F5D9     		bls	.L242
 3071              	.L241:
 501:TkShell.c     **** 
 3072              		.loc 1 501 0 discriminator 6
 3073 00ec 0B4C     		ldr	r4, .L249+8
 3074              	.LVL413:
 3075 00ee 0A22     		movs	r2, #10
 3076 00f0 1049     		ldr	r1, .L249+32
 3077 00f2 2000     		movs	r0, r4
 3078 00f4 FFF7FEFF 		bl	memcpy
 3079              	.LVL414:
 3080 00f8 2000     		movs	r0, r4
 3081 00fa FFF7FEFF 		bl	USBUART_PutString
 3082              	.LVL415:
 3083              	.LBE46:
 503:TkShell.c     **** }
 3084              		.loc 1 503 0 is_stmt 1 discriminator 6
 3085 00fe 0020     		movs	r0, #0
 3086 0100 06E0     		b	.L235
 3087              	.LVL416:
 3088              	.L243:
 474:TkShell.c     ****     }
 3089              		.loc 1 474 0
 3090 0102 0120     		movs	r0, #1
 3091 0104 4042     		rsbs	r0, r0, #0
 3092 0106 03E0     		b	.L235
 3093              	.LVL417:
 3094              	.L247:
 492:TkShell.c     ****     }
 3095              		.loc 1 492 0
 3096 0108 0220     		movs	r0, #2
 3097 010a 4042     		rsbs	r0, r0, #0
 3098 010c 00E0     		b	.L235
 3099              	.LVL418:
 3100              	.L248:
 503:TkShell.c     **** }
 3101              		.loc 1 503 0
ARM GAS  C:\Users\TERENC~1\AppData\Local\Temp\cc9BPywF.s 			page 71


 3102 010e 0020     		movs	r0, #0
 3103              	.LVL419:
 3104              	.L235:
 504:TkShell.c     **** 
 3105              		.loc 1 504 0
 3106              		@ sp needed
 3107 0110 F8BD     		pop	{r3, r4, r5, r6, r7, pc}
 3108              	.L250:
 3109 0112 C046     		.align	2
 3110              	.L249:
 3111 0114 00000000 		.word	tmrCounter_ms
 3112 0118 E7030000 		.word	999
 3113 011c 00000000 		.word	gbuf
 3114 0120 64010000 		.word	.LC99
 3115 0124 B4010000 		.word	.LC126
 3116 0128 B8010000 		.word	.LC128
 3117 012c C0010000 		.word	.LC130
 3118 0130 C8010000 		.word	.LC132
 3119 0134 F4010000 		.word	.LC134
 3120              		.cfi_endproc
 3121              	.LFE23:
 3122              		.size	__tk_shell_led_start, .-__tk_shell_led_start
 3123              		.section	.text.__tk_shell_led_stop,"ax",%progbits
 3124              		.align	2
 3125              		.global	__tk_shell_led_stop
 3126              		.code	16
 3127              		.thumb_func
 3128              		.type	__tk_shell_led_stop, %function
 3129              	__tk_shell_led_stop:
 3130              	.LFB24:
 507:TkShell.c     ****     int i = 2;
 3131              		.loc 1 507 0
 3132              		.cfi_startproc
 3133              		@ args = 0, pretend = 0, frame = 0
 3134              		@ frame_needed = 0, uses_anonymous_args = 0
 3135              	.LVL420:
 3136 0000 70B5     		push	{r4, r5, r6, lr}
 3137              		.cfi_def_cfa_offset 16
 3138              		.cfi_offset 4, -16
 3139              		.cfi_offset 5, -12
 3140              		.cfi_offset 6, -8
 3141              		.cfi_offset 14, -4
 3142 0002 0D00     		movs	r5, r1
 3143              	.LVL421:
 511:TkShell.c     ****     
 3144              		.loc 1 511 0
 3145 0004 841E     		subs	r4, r0, #2
 3146              	.LVL422:
 513:TkShell.c     ****     {
 3147              		.loc 1 513 0
 3148 0006 012C     		cmp	r4, #1
 3149 0008 1BD0     		beq	.L252
 515:TkShell.c     ****         return -1;
 3150              		.loc 1 515 0
 3151 000a FFF7FEFF 		bl	USBUART_GetConfiguration
 3152              	.LVL423:
 3153 000e 0028     		cmp	r0, #0
ARM GAS  C:\Users\TERENC~1\AppData\Local\Temp\cc9BPywF.s 			page 72


 3154 0010 68D0     		beq	.L261
 3155              	.LBB47:
 515:TkShell.c     ****         return -1;
 3156              		.loc 1 515 0 is_stmt 0 discriminator 1
 3157 0012 384B     		ldr	r3, .L267
 3158 0014 1D68     		ldr	r5, [r3]
 3159              	.LVL424:
 3160              	.L255:
 515:TkShell.c     ****         return -1;
 3161              		.loc 1 515 0 discriminator 5
 3162 0016 FFF7FEFF 		bl	USBUART_CDCIsReady
 3163              	.LVL425:
 3164 001a 0028     		cmp	r0, #0
 3165 001c 05D1     		bne	.L254
 515:TkShell.c     ****         return -1;
 3166              		.loc 1 515 0 discriminator 3
 3167 001e 354B     		ldr	r3, .L267
 3168 0020 1B68     		ldr	r3, [r3]
 3169 0022 5B1B     		subs	r3, r3, r5
 3170 0024 344A     		ldr	r2, .L267+4
 3171 0026 9342     		cmp	r3, r2
 3172 0028 F5D9     		bls	.L255
 3173              	.L254:
 515:TkShell.c     ****         return -1;
 3174              		.loc 1 515 0 discriminator 6
 3175 002a 344D     		ldr	r5, .L267+8
 3176              	.LVL426:
 3177 002c 2200     		movs	r2, r4
 3178 002e 3449     		ldr	r1, .L267+12
 3179 0030 2800     		movs	r0, r5
 3180 0032 FFF7FEFF 		bl	sprintf
 3181              	.LVL427:
 3182 0036 2800     		movs	r0, r5
 3183 0038 FFF7FEFF 		bl	USBUART_PutString
 3184              	.LVL428:
 3185              	.LBE47:
 516:TkShell.c     ****     }
 3186              		.loc 1 516 0 is_stmt 1 discriminator 6
 3187 003c 0120     		movs	r0, #1
 3188 003e 4042     		rsbs	r0, r0, #0
 3189 0040 57E0     		b	.L253
 3190              	.LVL429:
 3191              	.L252:
 519:TkShell.c     ****     {
 3192              		.loc 1 519 0
 3193 0042 8C68     		ldr	r4, [r1, #8]
 3194              	.LVL430:
 3195 0044 2F49     		ldr	r1, .L267+16
 3196              	.LVL431:
 3197 0046 2000     		movs	r0, r4
 3198              	.LVL432:
 3199 0048 FFF7FEFF 		bl	strcicmp
 3200              	.LVL433:
 3201 004c 0028     		cmp	r0, #0
 3202 004e 27D0     		beq	.L262
 523:TkShell.c     ****     {
 3203              		.loc 1 523 0
ARM GAS  C:\Users\TERENC~1\AppData\Local\Temp\cc9BPywF.s 			page 73


 3204 0050 2D49     		ldr	r1, .L267+20
 3205 0052 2000     		movs	r0, r4
 3206 0054 FFF7FEFF 		bl	strcicmp
 3207              	.LVL434:
 3208 0058 0028     		cmp	r0, #0
 3209 005a 23D0     		beq	.L263
 527:TkShell.c     ****     {
 3210              		.loc 1 527 0
 3211 005c 2B49     		ldr	r1, .L267+24
 3212 005e 2000     		movs	r0, r4
 3213 0060 FFF7FEFF 		bl	strcicmp
 3214              	.LVL435:
 3215 0064 0028     		cmp	r0, #0
 3216 0066 1FD0     		beq	.L264
 533:TkShell.c     ****         return -2;
 3217              		.loc 1 533 0
 3218 0068 FFF7FEFF 		bl	USBUART_GetConfiguration
 3219              	.LVL436:
 3220 006c 0028     		cmp	r0, #0
 3221 006e 3CD0     		beq	.L265
 3222              	.LBB48:
 533:TkShell.c     ****         return -2;
 3223              		.loc 1 533 0 is_stmt 0 discriminator 1
 3224 0070 204B     		ldr	r3, .L267
 3225 0072 1C68     		ldr	r4, [r3]
 3226              	.LVL437:
 3227              	.L258:
 533:TkShell.c     ****         return -2;
 3228              		.loc 1 533 0 discriminator 5
 3229 0074 FFF7FEFF 		bl	USBUART_CDCIsReady
 3230              	.LVL438:
 3231 0078 0028     		cmp	r0, #0
 3232 007a 05D1     		bne	.L257
 533:TkShell.c     ****         return -2;
 3233              		.loc 1 533 0 discriminator 3
 3234 007c 1D4B     		ldr	r3, .L267
 3235 007e 1B68     		ldr	r3, [r3]
 3236 0080 1B1B     		subs	r3, r3, r4
 3237 0082 1D4A     		ldr	r2, .L267+4
 3238 0084 9342     		cmp	r3, r2
 3239 0086 F5D9     		bls	.L258
 3240              	.L257:
 533:TkShell.c     ****         return -2;
 3241              		.loc 1 533 0 discriminator 6
 3242 0088 AA68     		ldr	r2, [r5, #8]
 3243 008a 1C4C     		ldr	r4, .L267+8
 3244              	.LVL439:
 3245 008c 2049     		ldr	r1, .L267+28
 3246 008e 2000     		movs	r0, r4
 3247 0090 FFF7FEFF 		bl	sprintf
 3248              	.LVL440:
 3249 0094 2000     		movs	r0, r4
 3250 0096 FFF7FEFF 		bl	USBUART_PutString
 3251              	.LVL441:
 3252              	.LBE48:
 534:TkShell.c     ****     }
 3253              		.loc 1 534 0 is_stmt 1 discriminator 6
ARM GAS  C:\Users\TERENC~1\AppData\Local\Temp\cc9BPywF.s 			page 74


 3254 009a 0220     		movs	r0, #2
 3255 009c 4042     		rsbs	r0, r0, #0
 3256 009e 28E0     		b	.L253
 3257              	.L262:
 521:TkShell.c     ****     }
 3258              		.loc 1 521 0
 3259 00a0 0020     		movs	r0, #0
 3260 00a2 02E0     		b	.L256
 3261              	.L263:
 525:TkShell.c     ****     }
 3262              		.loc 1 525 0
 3263 00a4 0120     		movs	r0, #1
 3264 00a6 00E0     		b	.L256
 3265              	.L264:
 529:TkShell.c     ****     }
 3266              		.loc 1 529 0
 3267 00a8 0220     		movs	r0, #2
 3268              	.L256:
 3269              	.LVL442:
 536:TkShell.c     ****     
 3270              		.loc 1 536 0
 3271 00aa FFF7FEFF 		bl	LedManagerStopOverride
 3272              	.LVL443:
 538:TkShell.c     **** 
 3273              		.loc 1 538 0
 3274 00ae FFF7FEFF 		bl	USBUART_GetConfiguration
 3275              	.LVL444:
 3276 00b2 0028     		cmp	r0, #0
 3277 00b4 1CD0     		beq	.L266
 3278              	.LBB49:
 538:TkShell.c     **** 
 3279              		.loc 1 538 0 is_stmt 0 discriminator 1
 3280 00b6 0F4B     		ldr	r3, .L267
 3281 00b8 1C68     		ldr	r4, [r3]
 3282              	.LVL445:
 3283              	.L260:
 538:TkShell.c     **** 
 3284              		.loc 1 538 0 discriminator 5
 3285 00ba FFF7FEFF 		bl	USBUART_CDCIsReady
 3286              	.LVL446:
 3287 00be 0028     		cmp	r0, #0
 3288 00c0 05D1     		bne	.L259
 538:TkShell.c     **** 
 3289              		.loc 1 538 0 discriminator 3
 3290 00c2 0C4B     		ldr	r3, .L267
 3291 00c4 1B68     		ldr	r3, [r3]
 3292 00c6 1B1B     		subs	r3, r3, r4
 3293 00c8 0B4A     		ldr	r2, .L267+4
 3294 00ca 9342     		cmp	r3, r2
 3295 00cc F5D9     		bls	.L260
 3296              	.L259:
 538:TkShell.c     **** 
 3297              		.loc 1 538 0 discriminator 6
 3298 00ce 0B4C     		ldr	r4, .L267+8
 3299              	.LVL447:
 3300 00d0 0A22     		movs	r2, #10
 3301 00d2 1049     		ldr	r1, .L267+32
ARM GAS  C:\Users\TERENC~1\AppData\Local\Temp\cc9BPywF.s 			page 75


 3302 00d4 2000     		movs	r0, r4
 3303 00d6 FFF7FEFF 		bl	memcpy
 3304              	.LVL448:
 3305 00da 2000     		movs	r0, r4
 3306 00dc FFF7FEFF 		bl	USBUART_PutString
 3307              	.LVL449:
 3308              	.LBE49:
 540:TkShell.c     **** }
 3309              		.loc 1 540 0 is_stmt 1 discriminator 6
 3310 00e0 0020     		movs	r0, #0
 3311 00e2 06E0     		b	.L253
 3312              	.LVL450:
 3313              	.L261:
 516:TkShell.c     ****     }
 3314              		.loc 1 516 0
 3315 00e4 0120     		movs	r0, #1
 3316 00e6 4042     		rsbs	r0, r0, #0
 3317 00e8 03E0     		b	.L253
 3318              	.LVL451:
 3319              	.L265:
 534:TkShell.c     ****     }
 3320              		.loc 1 534 0
 3321 00ea 0220     		movs	r0, #2
 3322 00ec 4042     		rsbs	r0, r0, #0
 3323 00ee 00E0     		b	.L253
 3324              	.LVL452:
 3325              	.L266:
 540:TkShell.c     **** }
 3326              		.loc 1 540 0
 3327 00f0 0020     		movs	r0, #0
 3328              	.LVL453:
 3329              	.L253:
 541:TkShell.c     **** 
 3330              		.loc 1 541 0
 3331              		@ sp needed
 3332 00f2 70BD     		pop	{r4, r5, r6, pc}
 3333              	.L268:
 3334              		.align	2
 3335              	.L267:
 3336 00f4 00000000 		.word	tmrCounter_ms
 3337 00f8 E7030000 		.word	999
 3338 00fc 00000000 		.word	gbuf
 3339 0100 64010000 		.word	.LC99
 3340 0104 B4010000 		.word	.LC126
 3341 0108 B8010000 		.word	.LC128
 3342 010c C0010000 		.word	.LC130
 3343 0110 C8010000 		.word	.LC132
 3344 0114 F4010000 		.word	.LC134
 3345              		.cfi_endproc
 3346              	.LFE24:
 3347              		.size	__tk_shell_led_stop, .-__tk_shell_led_stop
 3348              		.section	.text.__tk_shell_cal_set,"ax",%progbits
 3349              		.align	2
 3350              		.global	__tk_shell_cal_set
 3351              		.code	16
 3352              		.thumb_func
 3353              		.type	__tk_shell_cal_set, %function
ARM GAS  C:\Users\TERENC~1\AppData\Local\Temp\cc9BPywF.s 			page 76


 3354              	__tk_shell_cal_set:
 3355              	.LFB26:
 560:TkShell.c     ****     int i = 2;
 3356              		.loc 1 560 0
 3357              		.cfi_startproc
 3358              		@ args = 0, pretend = 0, frame = 0
 3359              		@ frame_needed = 0, uses_anonymous_args = 0
 3360              	.LVL454:
 3361 0000 70B5     		push	{r4, r5, r6, lr}
 3362              		.cfi_def_cfa_offset 16
 3363              		.cfi_offset 4, -16
 3364              		.cfi_offset 5, -12
 3365              		.cfi_offset 6, -8
 3366              		.cfi_offset 14, -4
 3367 0002 0D00     		movs	r5, r1
 3368              	.LVL455:
 565:TkShell.c     ****     {
 3369              		.loc 1 565 0
 3370 0004 0228     		cmp	r0, #2
 3371 0006 1BD1     		bne	.L270
 567:TkShell.c     ****         return -1;
 3372              		.loc 1 567 0
 3373 0008 FFF7FEFF 		bl	USBUART_GetConfiguration
 3374              	.LVL456:
 3375 000c 0028     		cmp	r0, #0
 3376 000e 41D0     		beq	.L276
 3377              	.LBB50:
 567:TkShell.c     ****         return -1;
 3378              		.loc 1 567 0 is_stmt 0 discriminator 1
 3379 0010 234B     		ldr	r3, .L278
 3380 0012 1C68     		ldr	r4, [r3]
 3381              	.LVL457:
 3382              	.L273:
 567:TkShell.c     ****         return -1;
 3383              		.loc 1 567 0 discriminator 5
 3384 0014 FFF7FEFF 		bl	USBUART_CDCIsReady
 3385              	.LVL458:
 3386 0018 0028     		cmp	r0, #0
 3387 001a 05D1     		bne	.L272
 567:TkShell.c     ****         return -1;
 3388              		.loc 1 567 0 discriminator 3
 3389 001c 204B     		ldr	r3, .L278
 3390 001e 1B68     		ldr	r3, [r3]
 3391 0020 1B1B     		subs	r3, r3, r4
 3392 0022 204A     		ldr	r2, .L278+4
 3393 0024 9342     		cmp	r3, r2
 3394 0026 F5D9     		bls	.L273
 3395              	.L272:
 567:TkShell.c     ****         return -1;
 3396              		.loc 1 567 0 discriminator 6
 3397 0028 1F4C     		ldr	r4, .L278+8
 3398              	.LVL459:
 3399 002a 1E22     		movs	r2, #30
 3400 002c 1F49     		ldr	r1, .L278+12
 3401 002e 2000     		movs	r0, r4
 3402 0030 FFF7FEFF 		bl	memcpy
 3403              	.LVL460:
ARM GAS  C:\Users\TERENC~1\AppData\Local\Temp\cc9BPywF.s 			page 77


 3404 0034 2000     		movs	r0, r4
 3405 0036 FFF7FEFF 		bl	USBUART_PutString
 3406              	.LVL461:
 3407              	.LBE50:
 568:TkShell.c     ****     }
 3408              		.loc 1 568 0 is_stmt 1 discriminator 6
 3409 003a 0124     		movs	r4, #1
 3410 003c 6442     		rsbs	r4, r4, #0
 3411 003e 2DE0     		b	.L271
 3412              	.LVL462:
 3413              	.L270:
 571:TkShell.c     ****     {
 3414              		.loc 1 571 0
 3415 0040 8E68     		ldr	r6, [r1, #8]
 3416 0042 1B49     		ldr	r1, .L278+16
 3417              	.LVL463:
 3418 0044 3000     		movs	r0, r6
 3419              	.LVL464:
 3420 0046 FFF7FEFF 		bl	strcicmp
 3421              	.LVL465:
 3422 004a 041E     		subs	r4, r0, #0
 3423 004c 06D1     		bne	.L274
 573:TkShell.c     ****     }
 3424              		.loc 1 573 0
 3425 004e 194B     		ldr	r3, .L278+20
 3426 0050 1E68     		ldr	r6, [r3]
 3427              	.LVL466:
 3428 0052 E868     		ldr	r0, [r5, #12]
 3429 0054 FFF7FEFF 		bl	atoi
 3430              	.LVL467:
 3431 0058 3074     		strb	r0, [r6, #16]
 3432 005a 1FE0     		b	.L271
 3433              	.LVL468:
 3434              	.L274:
 575:TkShell.c     ****     {
 3435              		.loc 1 575 0
 3436 005c 1649     		ldr	r1, .L278+24
 3437 005e 3000     		movs	r0, r6
 3438 0060 FFF7FEFF 		bl	strcicmp
 3439              	.LVL469:
 3440 0064 041E     		subs	r4, r0, #0
 3441 0066 06D1     		bne	.L275
 577:TkShell.c     ****     }
 3442              		.loc 1 577 0
 3443 0068 124B     		ldr	r3, .L278+20
 3444 006a 1E68     		ldr	r6, [r3]
 3445              	.LVL470:
 3446 006c E868     		ldr	r0, [r5, #12]
 3447 006e FFF7FEFF 		bl	atoi
 3448              	.LVL471:
 3449 0072 7081     		strh	r0, [r6, #10]
 3450 0074 12E0     		b	.L271
 3451              	.LVL472:
 3452              	.L275:
 579:TkShell.c     ****     {
 3453              		.loc 1 579 0
 3454 0076 1149     		ldr	r1, .L278+28
ARM GAS  C:\Users\TERENC~1\AppData\Local\Temp\cc9BPywF.s 			page 78


 3455 0078 3000     		movs	r0, r6
 3456 007a FFF7FEFF 		bl	strcicmp
 3457              	.LVL473:
 3458 007e 041E     		subs	r4, r0, #0
 3459 0080 0BD1     		bne	.L277
 581:TkShell.c     ****     }
 3460              		.loc 1 581 0
 3461 0082 0C4B     		ldr	r3, .L278+20
 3462 0084 1E68     		ldr	r6, [r3]
 3463              	.LVL474:
 3464 0086 E868     		ldr	r0, [r5, #12]
 3465 0088 1022     		movs	r2, #16
 3466 008a 0021     		movs	r1, #0
 3467 008c FFF7FEFF 		bl	strtoul
 3468              	.LVL475:
 3469 0090 7074     		strb	r0, [r6, #17]
 3470 0092 03E0     		b	.L271
 3471              	.LVL476:
 3472              	.L276:
 568:TkShell.c     ****     }
 3473              		.loc 1 568 0
 3474 0094 0124     		movs	r4, #1
 3475 0096 6442     		rsbs	r4, r4, #0
 3476 0098 00E0     		b	.L271
 3477              	.L277:
 583:TkShell.c     **** }
 3478              		.loc 1 583 0
 3479 009a 0024     		movs	r4, #0
 3480              	.LVL477:
 3481              	.L271:
 584:TkShell.c     **** 
 3482              		.loc 1 584 0
 3483 009c 2000     		movs	r0, r4
 3484              		@ sp needed
 3485              	.LVL478:
 3486 009e 70BD     		pop	{r4, r5, r6, pc}
 3487              	.L279:
 3488              		.align	2
 3489              	.L278:
 3490 00a0 00000000 		.word	tmrCounter_ms
 3491 00a4 E7030000 		.word	999
 3492 00a8 00000000 		.word	gbuf
 3493 00ac 0C000000 		.word	.LC6
 3494 00b0 00020000 		.word	.LC147
 3495 00b4 00000000 		.word	cal_data
 3496 00b8 14020000 		.word	.LC150
 3497 00bc 20020000 		.word	.LC152
 3498              		.cfi_endproc
 3499              	.LFE26:
 3500              		.size	__tk_shell_cal_set, .-__tk_shell_cal_set
 3501              		.section	.text.TkShellProcessCommand,"ax",%progbits
 3502              		.align	2
 3503              		.code	16
 3504              		.thumb_func
 3505              		.type	TkShellProcessCommand, %function
 3506              	TkShellProcessCommand:
 3507              	.LFB30:
ARM GAS  C:\Users\TERENC~1\AppData\Local\Temp\cc9BPywF.s 			page 79


 607:TkShell.c     **** 
 608:TkShell.c     **** static int TkShellProcessCommand(void)
 609:TkShell.c     **** {
 3508              		.loc 1 609 0
 3509              		.cfi_startproc
 3510              		@ args = 0, pretend = 0, frame = 48
 3511              		@ frame_needed = 0, uses_anonymous_args = 0
 3512 0000 F0B5     		push	{r4, r5, r6, r7, lr}
 3513              		.cfi_def_cfa_offset 20
 3514              		.cfi_offset 4, -20
 3515              		.cfi_offset 5, -16
 3516              		.cfi_offset 6, -12
 3517              		.cfi_offset 7, -8
 3518              		.cfi_offset 14, -4
 3519 0002 5F46     		mov	r7, fp
 3520 0004 5646     		mov	r6, r10
 3521 0006 4D46     		mov	r5, r9
 3522 0008 4446     		mov	r4, r8
 3523 000a F0B4     		push	{r4, r5, r6, r7}
 3524              		.cfi_def_cfa_offset 36
 3525              		.cfi_offset 8, -36
 3526              		.cfi_offset 9, -32
 3527              		.cfi_offset 10, -28
 3528              		.cfi_offset 11, -24
 3529 000c 8FB0     		sub	sp, sp, #60
 3530              		.cfi_def_cfa_offset 96
 3531              	.LVL479:
 610:TkShell.c     ****     int retval = -1;
 611:TkShell.c     ****     char *buf = cmd_buf;
 612:TkShell.c     ****     bool found = false;
 613:TkShell.c     ****     char *argv[TK_SHELL_MAX_ARGS];
 614:TkShell.c     ****     int argc = 0;
 3532              		.loc 1 614 0
 3533 000e 0023     		movs	r3, #0
 3534 0010 9946     		mov	r9, r3
 611:TkShell.c     ****     bool found = false;
 3535              		.loc 1 611 0
 3536 0012 A84A     		ldr	r2, .L325
 3537 0014 02E0     		b	.L281
 3538              	.LVL480:
 3539              	.L283:
 615:TkShell.c     ****     int i = 0, j = 0, k = 0;
 616:TkShell.c     ****     
 617:TkShell.c     ****     while (1)
 618:TkShell.c     ****     {
 619:TkShell.c     ****         // skip over whitespace
 620:TkShell.c     ****         while (*buf && isspace(*buf))
 621:TkShell.c     ****         {
 622:TkShell.c     ****           *buf = '\0';
 3540              		.loc 1 622 0
 3541 0016 0023     		movs	r3, #0
 3542 0018 1370     		strb	r3, [r2]
 623:TkShell.c     ****           ++buf;
 3543              		.loc 1 623 0
 3544 001a 0132     		adds	r2, r2, #1
 3545              	.LVL481:
 3546              	.L281:
ARM GAS  C:\Users\TERENC~1\AppData\Local\Temp\cc9BPywF.s 			page 80


 620:TkShell.c     ****         {
 3547              		.loc 1 620 0
 3548 001c 1378     		ldrb	r3, [r2]
 3549 001e 002B     		cmp	r3, #0
 3550 0020 05D0     		beq	.L282
 620:TkShell.c     ****         {
 3551              		.loc 1 620 0 is_stmt 0 discriminator 1
 3552 0022 A549     		ldr	r1, .L325+4
 3553 0024 0968     		ldr	r1, [r1]
 3554 0026 C918     		adds	r1, r1, r3
 3555 0028 4978     		ldrb	r1, [r1, #1]
 3556 002a 0907     		lsls	r1, r1, #28
 3557 002c F3D4     		bmi	.L283
 3558              	.L282:
 624:TkShell.c     ****         }
 625:TkShell.c     **** 
 626:TkShell.c     ****         if (*buf == '\0')
 3559              		.loc 1 626 0 is_stmt 1
 3560 002e 002B     		cmp	r3, #0
 3561 0030 31D0     		beq	.L284
 627:TkShell.c     ****         {
 628:TkShell.c     ****           break;
 629:TkShell.c     ****         }
 630:TkShell.c     ****         
 631:TkShell.c     ****         argv[argc] = buf;
 3562              		.loc 1 631 0
 3563 0032 4B46     		mov	r3, r9
 3564 0034 9B00     		lsls	r3, r3, #2
 3565 0036 04A9     		add	r1, sp, #16
 3566 0038 5A50     		str	r2, [r3, r1]
 632:TkShell.c     ****         
 633:TkShell.c     ****         // skip over the rest of arg until whitespace again
 634:TkShell.c     ****         while (*buf && !isspace(*buf))
 3567              		.loc 1 634 0
 3568 003a 00E0     		b	.L285
 3569              	.L287:
 635:TkShell.c     ****         {
 636:TkShell.c     ****             buf++;
 3570              		.loc 1 636 0
 3571 003c 0132     		adds	r2, r2, #1
 3572              	.LVL482:
 3573              	.L285:
 634:TkShell.c     ****         {
 3574              		.loc 1 634 0
 3575 003e 1378     		ldrb	r3, [r2]
 3576 0040 002B     		cmp	r3, #0
 3577 0042 05D0     		beq	.L286
 634:TkShell.c     ****         {
 3578              		.loc 1 634 0 is_stmt 0 discriminator 1
 3579 0044 9C49     		ldr	r1, .L325+4
 3580 0046 0968     		ldr	r1, [r1]
 3581 0048 CB18     		adds	r3, r1, r3
 3582 004a 5B78     		ldrb	r3, [r3, #1]
 3583 004c 1B07     		lsls	r3, r3, #28
 3584 004e F5D5     		bpl	.L287
 3585              	.L286:
 637:TkShell.c     ****         }
ARM GAS  C:\Users\TERENC~1\AppData\Local\Temp\cc9BPywF.s 			page 81


 638:TkShell.c     ****         ++argc;
 3586              		.loc 1 638 0 is_stmt 1
 3587 0050 0123     		movs	r3, #1
 3588 0052 9C46     		mov	ip, r3
 3589 0054 E144     		add	r9, r9, ip
 3590              	.LVL483:
 639:TkShell.c     ****         
 640:TkShell.c     ****         if (argc > TK_SHELL_MAX_ARGS)
 3591              		.loc 1 640 0
 3592 0056 4B46     		mov	r3, r9
 3593 0058 0A2B     		cmp	r3, #10
 3594 005a DFDD     		ble	.L281
 641:TkShell.c     ****         {
 642:TkShell.c     ****             PRINTF("Too many arguments!\n");
 3595              		.loc 1 642 0
 3596 005c FFF7FEFF 		bl	USBUART_GetConfiguration
 3597              	.LVL484:
 3598 0060 0028     		cmp	r0, #0
 3599 0062 00D1     		bne	.LCB3655
 3600 0064 19E1     		b	.L320	@long jump
 3601              	.LCB3655:
 3602              	.LBB51:
 3603              		.loc 1 642 0 is_stmt 0 discriminator 1
 3604 0066 954B     		ldr	r3, .L325+8
 3605 0068 1C68     		ldr	r4, [r3]
 3606              	.LVL485:
 3607              	.L291:
 3608              		.loc 1 642 0 discriminator 5
 3609 006a FFF7FEFF 		bl	USBUART_CDCIsReady
 3610              	.LVL486:
 3611 006e 0028     		cmp	r0, #0
 3612 0070 05D1     		bne	.L290
 3613              		.loc 1 642 0 discriminator 3
 3614 0072 924B     		ldr	r3, .L325+8
 3615 0074 1B68     		ldr	r3, [r3]
 3616 0076 1B1B     		subs	r3, r3, r4
 3617 0078 914A     		ldr	r2, .L325+12
 3618 007a 9342     		cmp	r3, r2
 3619 007c F5D9     		bls	.L291
 3620              	.L290:
 3621              		.loc 1 642 0 discriminator 6
 3622 007e 914C     		ldr	r4, .L325+16
 3623              	.LVL487:
 3624 0080 1522     		movs	r2, #21
 3625 0082 9149     		ldr	r1, .L325+20
 3626 0084 2000     		movs	r0, r4
 3627 0086 FFF7FEFF 		bl	memcpy
 3628              	.LVL488:
 3629 008a 2000     		movs	r0, r4
 3630 008c FFF7FEFF 		bl	USBUART_PutString
 3631              	.LVL489:
 3632              	.LBE51:
 643:TkShell.c     ****             return -2;
 3633              		.loc 1 643 0 is_stmt 1 discriminator 6
 3634 0090 0220     		movs	r0, #2
 3635 0092 4042     		rsbs	r0, r0, #0
 3636 0094 07E1     		b	.L289
ARM GAS  C:\Users\TERENC~1\AppData\Local\Temp\cc9BPywF.s 			page 82


 3637              	.LVL490:
 3638              	.L284:
 644:TkShell.c     ****         }
 645:TkShell.c     ****     }
 646:TkShell.c     ****     
 647:TkShell.c     ****     if (argc > 0)
 3639              		.loc 1 647 0
 3640 0096 4B46     		mov	r3, r9
 3641 0098 002B     		cmp	r3, #0
 3642 009a 00DD     		ble	.LCB3697
 3643 009c CDE0     		b	.L321	@long jump
 3644              	.LCB3697:
 3645              	.LVL491:
 612:TkShell.c     ****     char *argv[TK_SHELL_MAX_ARGS];
 3646              		.loc 1 612 0
 3647 009e 0023     		movs	r3, #0
 3648              	.LVL492:
 3649 00a0 9A46     		mov	r10, r3
 610:TkShell.c     ****     char *buf = cmd_buf;
 3650              		.loc 1 610 0
 3651 00a2 013B     		subs	r3, r3, #1
 3652 00a4 0393     		str	r3, [sp, #12]
 3653 00a6 DAE0     		b	.L293
 3654              	.LVL493:
 3655              	.L317:
 648:TkShell.c     ****     {
 649:TkShell.c     ****         i = j = k = 0;
 650:TkShell.c     ****         while (strcmp(commands[i].name, "") != 0)
 651:TkShell.c     ****         {
 652:TkShell.c     ****             if (strcicmp(argv[0], commands[i].name) == 0)
 3656              		.loc 1 652 0
 3657 00a8 049D     		ldr	r5, [sp, #16]
 3658 00aa 0299     		ldr	r1, [sp, #8]
 3659 00ac 2800     		movs	r0, r5
 3660 00ae FFF7FEFF 		bl	strcicmp
 3661              	.LVL494:
 3662 00b2 0028     		cmp	r0, #0
 3663 00b4 5FD0     		beq	.L294
 3664 00b6 72E0     		b	.L324
 3665              	.L307:
 653:TkShell.c     ****             {
 654:TkShell.c     ****                 while (strcmp(commands[i].verbs[j].name, "") != 0)
 655:TkShell.c     ****                 {
 656:TkShell.c     ****                     if (strcicmp(argv[1], commands[i].verbs[j].name) == 0)
 3666              		.loc 1 656 0
 3667 00b8 059D     		ldr	r5, [sp, #20]
 3668 00ba 2800     		movs	r0, r5
 3669 00bc FFF7FEFF 		bl	strcicmp
 3670              	.LVL495:
 3671 00c0 0028     		cmp	r0, #0
 3672 00c2 08D1     		bne	.L296
 657:TkShell.c     ****                     {
 658:TkShell.c     ****                         retval = commands[i].verbs[j].func(argc, argv);
 3673              		.loc 1 658 0
 3674 00c4 5B46     		mov	r3, fp
 3675 00c6 5B68     		ldr	r3, [r3, #4]
 3676 00c8 04A9     		add	r1, sp, #16
ARM GAS  C:\Users\TERENC~1\AppData\Local\Temp\cc9BPywF.s 			page 83


 3677 00ca 4846     		mov	r0, r9
 3678 00cc 9847     		blx	r3
 3679              	.LVL496:
 3680 00ce 0390     		str	r0, [sp, #12]
 3681              	.LVL497:
 659:TkShell.c     ****                         found = true;
 3682              		.loc 1 659 0
 3683 00d0 0123     		movs	r3, #1
 3684 00d2 9A46     		mov	r10, r3
 660:TkShell.c     ****                         break;
 3685              		.loc 1 660 0
 3686 00d4 5FE0     		b	.L297
 3687              	.LVL498:
 3688              	.L296:
 661:TkShell.c     ****                     }
 662:TkShell.c     ****                     else if (strcicmp(argv[1], "help") == 0)
 3689              		.loc 1 662 0
 3690 00d6 7D49     		ldr	r1, .L325+24
 3691 00d8 2800     		movs	r0, r5
 3692 00da FFF7FEFF 		bl	strcicmp
 3693              	.LVL499:
 3694 00de 0028     		cmp	r0, #0
 3695 00e0 48D1     		bne	.L298
 3696              	.LVL500:
 663:TkShell.c     ****                     {
 664:TkShell.c     ****                         found = true;
 665:TkShell.c     ****                         PRINTF("Displaying list of %s commands:\n", commands[i].name);
 3697              		.loc 1 665 0
 3698 00e2 FFF7FEFF 		bl	USBUART_GetConfiguration
 3699              	.LVL501:
 3700 00e6 0028     		cmp	r0, #0
 3701 00e8 36D0     		beq	.L302
 3702              	.LBB52:
 3703              		.loc 1 665 0 is_stmt 0 discriminator 1
 3704 00ea 744B     		ldr	r3, .L325+8
 3705 00ec 1D68     		ldr	r5, [r3]
 3706              	.LVL502:
 3707              	.L301:
 3708              		.loc 1 665 0 discriminator 5
 3709 00ee FFF7FEFF 		bl	USBUART_CDCIsReady
 3710              	.LVL503:
 3711 00f2 0028     		cmp	r0, #0
 3712 00f4 05D1     		bne	.L300
 3713              		.loc 1 665 0 discriminator 3
 3714 00f6 714B     		ldr	r3, .L325+8
 3715 00f8 1B68     		ldr	r3, [r3]
 3716 00fa 5B1B     		subs	r3, r3, r5
 3717 00fc 704A     		ldr	r2, .L325+12
 3718 00fe 9342     		cmp	r3, r2
 3719 0100 F5D9     		bls	.L301
 3720              	.L300:
 3721              		.loc 1 665 0 discriminator 6
 3722 0102 704D     		ldr	r5, .L325+16
 3723              	.LVL504:
 3724 0104 029A     		ldr	r2, [sp, #8]
 3725 0106 7249     		ldr	r1, .L325+28
 3726 0108 2800     		movs	r0, r5
ARM GAS  C:\Users\TERENC~1\AppData\Local\Temp\cc9BPywF.s 			page 84


 3727 010a FFF7FEFF 		bl	sprintf
 3728              	.LVL505:
 3729 010e 2800     		movs	r0, r5
 3730 0110 FFF7FEFF 		bl	USBUART_PutString
 3731              	.LVL506:
 3732 0114 20E0     		b	.L302
 3733              	.L306:
 3734              	.LBE52:
 666:TkShell.c     ****                         while (strcmp(commands[i].verbs[k].name, "") != 0)
 667:TkShell.c     ****                         {
 668:TkShell.c     ****                             PRINTF("\t%s %s: %s\n", commands[i].name, commands[i].verbs[k].name, co
 3735              		.loc 1 668 0 is_stmt 1
 3736 0116 FFF7FEFF 		bl	USBUART_GetConfiguration
 3737              	.LVL507:
 3738 011a 0028     		cmp	r0, #0
 3739 011c 19D0     		beq	.L303
 3740              	.LBB53:
 3741              		.loc 1 668 0 is_stmt 0 discriminator 1
 3742 011e 674B     		ldr	r3, .L325+8
 3743 0120 1D68     		ldr	r5, [r3]
 3744              	.LVL508:
 3745              	.L305:
 3746              		.loc 1 668 0 discriminator 5
 3747 0122 FFF7FEFF 		bl	USBUART_CDCIsReady
 3748              	.LVL509:
 3749 0126 0028     		cmp	r0, #0
 3750 0128 05D1     		bne	.L304
 3751              		.loc 1 668 0 discriminator 3
 3752 012a 644B     		ldr	r3, .L325+8
 3753 012c 1B68     		ldr	r3, [r3]
 3754 012e 5B1B     		subs	r3, r3, r5
 3755 0130 634A     		ldr	r2, .L325+12
 3756 0132 9342     		cmp	r3, r2
 3757 0134 F5D9     		bls	.L305
 3758              	.L304:
 3759              		.loc 1 668 0 discriminator 6
 3760 0136 5B46     		mov	r3, fp
 3761 0138 1B68     		ldr	r3, [r3]
 3762 013a 624D     		ldr	r5, .L325+16
 3763              	.LVL510:
 3764 013c 5A46     		mov	r2, fp
 3765 013e 9268     		ldr	r2, [r2, #8]
 3766 0140 0092     		str	r2, [sp]
 3767 0142 029A     		ldr	r2, [sp, #8]
 3768 0144 6349     		ldr	r1, .L325+32
 3769 0146 2800     		movs	r0, r5
 3770 0148 FFF7FEFF 		bl	sprintf
 3771              	.LVL511:
 3772 014c 2800     		movs	r0, r5
 3773 014e FFF7FEFF 		bl	USBUART_PutString
 3774              	.LVL512:
 3775              	.L303:
 3776              	.LBE53:
 669:TkShell.c     ****                             k++;
 3777              		.loc 1 669 0 is_stmt 1
 3778 0152 0123     		movs	r3, #1
 3779 0154 9C46     		mov	ip, r3
ARM GAS  C:\Users\TERENC~1\AppData\Local\Temp\cc9BPywF.s 			page 85


 3780 0156 E044     		add	r8, r8, ip
 3781              	.LVL513:
 3782              	.L302:
 666:TkShell.c     ****                         while (strcmp(commands[i].verbs[k].name, "") != 0)
 3783              		.loc 1 666 0
 3784 0158 4346     		mov	r3, r8
 3785 015a 5B00     		lsls	r3, r3, #1
 3786 015c 4344     		add	r3, r3, r8
 3787 015e 9A00     		lsls	r2, r3, #2
 3788 0160 9346     		mov	fp, r2
 3789 0162 BB44     		add	fp, fp, r7
 3790 0164 5B46     		mov	r3, fp
 3791 0166 1B68     		ldr	r3, [r3]
 3792 0168 1B78     		ldrb	r3, [r3]
 3793 016a 002B     		cmp	r3, #0
 3794 016c D3D1     		bne	.L306
 664:TkShell.c     ****                         PRINTF("Displaying list of %s commands:\n", commands[i].name);
 3795              		.loc 1 664 0
 3796 016e 0133     		adds	r3, r3, #1
 3797 0170 9A46     		mov	r10, r3
 3798 0172 10E0     		b	.L297
 3799              	.LVL514:
 3800              	.L298:
 670:TkShell.c     ****                         }
 671:TkShell.c     ****                         break;
 672:TkShell.c     ****                     }
 673:TkShell.c     ****                     j++;
 3801              		.loc 1 673 0
 3802 0174 0134     		adds	r4, r4, #1
 3803              	.LVL515:
 3804              	.L294:
 654:TkShell.c     ****                 {
 3805              		.loc 1 654 0
 3806 0176 7200     		lsls	r2, r6, #1
 3807 0178 9219     		adds	r2, r2, r6
 3808 017a 9300     		lsls	r3, r2, #2
 3809 017c 564A     		ldr	r2, .L325+36
 3810 017e D318     		adds	r3, r2, r3
 3811 0180 5F6C     		ldr	r7, [r3, #68]
 3812 0182 6300     		lsls	r3, r4, #1
 3813 0184 1B19     		adds	r3, r3, r4
 3814 0186 9A00     		lsls	r2, r3, #2
 3815 0188 9346     		mov	fp, r2
 3816 018a BB44     		add	fp, fp, r7
 3817 018c 5B46     		mov	r3, fp
 3818 018e 1968     		ldr	r1, [r3]
 3819 0190 0B78     		ldrb	r3, [r1]
 3820 0192 002B     		cmp	r3, #0
 3821 0194 90D1     		bne	.L307
 3822              	.LVL516:
 3823              	.L297:
 674:TkShell.c     ****                 }
 675:TkShell.c     **** 
 676:TkShell.c     ****                 if (found)
 3824              		.loc 1 676 0
 3825 0196 5346     		mov	r3, r10
 3826 0198 002B     		cmp	r3, #0
ARM GAS  C:\Users\TERENC~1\AppData\Local\Temp\cc9BPywF.s 			page 86


 3827 019a 4CD0     		beq	.L308
 3828 019c 5FE0     		b	.L293
 3829              	.L324:
 677:TkShell.c     ****                 {
 678:TkShell.c     ****                     break;
 679:TkShell.c     ****                 }
 680:TkShell.c     ****             }
 681:TkShell.c     ****             else if (strcicmp(argv[0], "help") == 0)
 3830              		.loc 1 681 0
 3831 019e 4B49     		ldr	r1, .L325+24
 3832 01a0 2800     		movs	r0, r5
 3833 01a2 FFF7FEFF 		bl	strcicmp
 3834              	.LVL517:
 3835 01a6 0028     		cmp	r0, #0
 3836 01a8 45D1     		bne	.L308
 3837              	.LVL518:
 682:TkShell.c     ****             {
 683:TkShell.c     ****                 found = true;
 684:TkShell.c     ****                 PRINTF("Displaying list of commands:\n");
 3838              		.loc 1 684 0
 3839 01aa FFF7FEFF 		bl	USBUART_GetConfiguration
 3840              	.LVL519:
 3841 01ae 0028     		cmp	r0, #0
 3842 01b0 35D0     		beq	.L312
 3843              	.LBB54:
 3844              		.loc 1 684 0 is_stmt 0 discriminator 1
 3845 01b2 424B     		ldr	r3, .L325+8
 3846 01b4 1D68     		ldr	r5, [r3]
 3847              	.LVL520:
 3848              	.L311:
 3849              		.loc 1 684 0 discriminator 5
 3850 01b6 FFF7FEFF 		bl	USBUART_CDCIsReady
 3851              	.LVL521:
 3852 01ba 0028     		cmp	r0, #0
 3853 01bc 05D1     		bne	.L310
 3854              		.loc 1 684 0 discriminator 3
 3855 01be 3F4B     		ldr	r3, .L325+8
 3856 01c0 1B68     		ldr	r3, [r3]
 3857 01c2 5B1B     		subs	r3, r3, r5
 3858 01c4 3E4A     		ldr	r2, .L325+12
 3859 01c6 9342     		cmp	r3, r2
 3860 01c8 F5D9     		bls	.L311
 3861              	.L310:
 3862              		.loc 1 684 0 discriminator 6
 3863 01ca 3E4D     		ldr	r5, .L325+16
 3864              	.LVL522:
 3865 01cc 1E22     		movs	r2, #30
 3866 01ce 4349     		ldr	r1, .L325+40
 3867 01d0 2800     		movs	r0, r5
 3868 01d2 FFF7FEFF 		bl	memcpy
 3869              	.LVL523:
 3870 01d6 2800     		movs	r0, r5
 3871 01d8 FFF7FEFF 		bl	USBUART_PutString
 3872              	.LVL524:
 3873 01dc 1FE0     		b	.L312
 3874              	.LVL525:
 3875              	.L316:
ARM GAS  C:\Users\TERENC~1\AppData\Local\Temp\cc9BPywF.s 			page 87


 3876              	.LBE54:
 685:TkShell.c     ****                 while (strcmp(commands[j].name, "") != 0)
 686:TkShell.c     ****                 {
 687:TkShell.c     ****                     PRINTF("\t%s: %s\n", commands[j].name, commands[j].desc);
 3877              		.loc 1 687 0 is_stmt 1
 3878 01de FFF7FEFF 		bl	USBUART_GetConfiguration
 3879              	.LVL526:
 3880 01e2 0028     		cmp	r0, #0
 3881 01e4 1AD0     		beq	.L313
 3882              	.LBB55:
 3883              		.loc 1 687 0 is_stmt 0 discriminator 1
 3884 01e6 354B     		ldr	r3, .L325+8
 3885 01e8 1D68     		ldr	r5, [r3]
 3886              	.LVL527:
 3887              	.L315:
 3888              		.loc 1 687 0 discriminator 5
 3889 01ea FFF7FEFF 		bl	USBUART_CDCIsReady
 3890              	.LVL528:
 3891 01ee 0028     		cmp	r0, #0
 3892 01f0 05D1     		bne	.L314
 3893              		.loc 1 687 0 discriminator 3
 3894 01f2 324B     		ldr	r3, .L325+8
 3895 01f4 1B68     		ldr	r3, [r3]
 3896 01f6 5B1B     		subs	r3, r3, r5
 3897 01f8 314A     		ldr	r2, .L325+12
 3898 01fa 9342     		cmp	r3, r2
 3899 01fc F5D9     		bls	.L315
 3900              	.L314:
 3901              		.loc 1 687 0 discriminator 6
 3902 01fe 6200     		lsls	r2, r4, #1
 3903 0200 1219     		adds	r2, r2, r4
 3904 0202 9300     		lsls	r3, r2, #2
 3905 0204 344A     		ldr	r2, .L325+36
 3906 0206 D318     		adds	r3, r2, r3
 3907 0208 9B6C     		ldr	r3, [r3, #72]
 3908 020a 2E4D     		ldr	r5, .L325+16
 3909              	.LVL529:
 3910 020c 3200     		movs	r2, r6
 3911 020e 3449     		ldr	r1, .L325+44
 3912 0210 2800     		movs	r0, r5
 3913 0212 FFF7FEFF 		bl	sprintf
 3914              	.LVL530:
 3915 0216 2800     		movs	r0, r5
 3916 0218 FFF7FEFF 		bl	USBUART_PutString
 3917              	.LVL531:
 3918              	.L313:
 3919              	.LBE55:
 688:TkShell.c     ****                     j++;
 3920              		.loc 1 688 0 is_stmt 1
 3921 021c 0134     		adds	r4, r4, #1
 3922              	.LVL532:
 3923              	.L312:
 685:TkShell.c     ****                 while (strcmp(commands[j].name, "") != 0)
 3924              		.loc 1 685 0
 3925 021e 6200     		lsls	r2, r4, #1
 3926 0220 1219     		adds	r2, r2, r4
 3927 0222 9300     		lsls	r3, r2, #2
ARM GAS  C:\Users\TERENC~1\AppData\Local\Temp\cc9BPywF.s 			page 88


 3928 0224 2C4A     		ldr	r2, .L325+36
 3929 0226 D318     		adds	r3, r2, r3
 3930 0228 1E6C     		ldr	r6, [r3, #64]
 3931 022a 3378     		ldrb	r3, [r6]
 3932 022c 002B     		cmp	r3, #0
 3933 022e D6D1     		bne	.L316
 683:TkShell.c     ****                 PRINTF("Displaying list of commands:\n");
 3934              		.loc 1 683 0
 3935 0230 0133     		adds	r3, r3, #1
 3936 0232 9A46     		mov	r10, r3
 3937 0234 13E0     		b	.L293
 3938              	.LVL533:
 3939              	.L308:
 689:TkShell.c     ****                 }
 690:TkShell.c     ****                 break;
 691:TkShell.c     ****             }
 692:TkShell.c     ****             i++;
 3940              		.loc 1 692 0
 3941 0236 0136     		adds	r6, r6, #1
 3942              	.LVL534:
 3943 0238 06E0     		b	.L292
 3944              	.LVL535:
 3945              	.L321:
 3946 023a 0023     		movs	r3, #0
 3947              	.LVL536:
 3948 023c 9846     		mov	r8, r3
 3949 023e 0024     		movs	r4, #0
 3950 0240 0026     		movs	r6, #0
 3951 0242 9A46     		mov	r10, r3
 3952 0244 013B     		subs	r3, r3, #1
 3953 0246 0393     		str	r3, [sp, #12]
 3954              	.LVL537:
 3955              	.L292:
 650:TkShell.c     ****         {
 3956              		.loc 1 650 0
 3957 0248 7200     		lsls	r2, r6, #1
 3958 024a 9219     		adds	r2, r2, r6
 3959 024c 9300     		lsls	r3, r2, #2
 3960 024e 224A     		ldr	r2, .L325+36
 3961 0250 D318     		adds	r3, r2, r3
 3962 0252 1B6C     		ldr	r3, [r3, #64]
 3963 0254 0293     		str	r3, [sp, #8]
 3964 0256 1B78     		ldrb	r3, [r3]
 3965 0258 002B     		cmp	r3, #0
 3966 025a 00D0     		beq	.LCB4089
 3967 025c 24E7     		b	.L317	@long jump
 3968              	.LCB4089:
 3969              	.LVL538:
 3970              	.L293:
 693:TkShell.c     ****         }
 694:TkShell.c     ****     }
 695:TkShell.c     ****     
 696:TkShell.c     ****     if (!found)
 3971              		.loc 1 696 0
 3972 025e 5346     		mov	r3, r10
 3973 0260 002B     		cmp	r3, #0
 3974 0262 1DD1     		bne	.L322
ARM GAS  C:\Users\TERENC~1\AppData\Local\Temp\cc9BPywF.s 			page 89


 697:TkShell.c     ****     {
 698:TkShell.c     ****         PRINTF("unknown command: %s\n", argv[0]);
 3975              		.loc 1 698 0
 3976 0264 FFF7FEFF 		bl	USBUART_GetConfiguration
 3977              	.LVL539:
 3978 0268 0028     		cmp	r0, #0
 3979 026a 1BD0     		beq	.L323
 3980              	.LBB56:
 3981              		.loc 1 698 0 is_stmt 0 discriminator 1
 3982 026c 134B     		ldr	r3, .L325+8
 3983 026e 1C68     		ldr	r4, [r3]
 3984              	.LVL540:
 3985              	.L319:
 3986              		.loc 1 698 0 discriminator 5
 3987 0270 FFF7FEFF 		bl	USBUART_CDCIsReady
 3988              	.LVL541:
 3989 0274 0028     		cmp	r0, #0
 3990 0276 05D1     		bne	.L318
 3991              		.loc 1 698 0 discriminator 3
 3992 0278 104B     		ldr	r3, .L325+8
 3993 027a 1B68     		ldr	r3, [r3]
 3994 027c 1B1B     		subs	r3, r3, r4
 3995 027e 104A     		ldr	r2, .L325+12
 3996 0280 9342     		cmp	r3, r2
 3997 0282 F5D9     		bls	.L319
 3998              	.L318:
 3999              		.loc 1 698 0 discriminator 6
 4000 0284 0F4C     		ldr	r4, .L325+16
 4001              	.LVL542:
 4002 0286 049A     		ldr	r2, [sp, #16]
 4003 0288 1649     		ldr	r1, .L325+48
 4004 028a 2000     		movs	r0, r4
 4005 028c FFF7FEFF 		bl	sprintf
 4006              	.LVL543:
 4007 0290 2000     		movs	r0, r4
 4008 0292 FFF7FEFF 		bl	USBUART_PutString
 4009              	.LVL544:
 4010              	.LBE56:
 699:TkShell.c     ****     }
 700:TkShell.c     ****     
 701:TkShell.c     ****     return retval;
 4011              		.loc 1 701 0 is_stmt 1 discriminator 6
 4012 0296 0398     		ldr	r0, [sp, #12]
 4013 0298 05E0     		b	.L289
 4014              	.LVL545:
 4015              	.L320:
 643:TkShell.c     ****         }
 4016              		.loc 1 643 0
 4017 029a 0220     		movs	r0, #2
 4018 029c 4042     		rsbs	r0, r0, #0
 4019 029e 02E0     		b	.L289
 4020              	.LVL546:
 4021              	.L322:
 4022              		.loc 1 701 0
 4023 02a0 0398     		ldr	r0, [sp, #12]
 4024 02a2 00E0     		b	.L289
 4025              	.L323:
ARM GAS  C:\Users\TERENC~1\AppData\Local\Temp\cc9BPywF.s 			page 90


 4026 02a4 0398     		ldr	r0, [sp, #12]
 4027              	.LVL547:
 4028              	.L289:
 702:TkShell.c     **** }
 4029              		.loc 1 702 0
 4030 02a6 0FB0     		add	sp, sp, #60
 4031              		@ sp needed
 4032              	.LVL548:
 4033 02a8 3CBC     		pop	{r2, r3, r4, r5}
 4034 02aa 9046     		mov	r8, r2
 4035 02ac 9946     		mov	r9, r3
 4036 02ae A246     		mov	r10, r4
 4037 02b0 AB46     		mov	fp, r5
 4038 02b2 F0BD     		pop	{r4, r5, r6, r7, pc}
 4039              	.L326:
 4040              		.align	2
 4041              	.L325:
 4042 02b4 00000000 		.word	.LANCHOR1
 4043 02b8 00000000 		.word	__ctype_ptr__
 4044 02bc 00000000 		.word	tmrCounter_ms
 4045 02c0 E7030000 		.word	999
 4046 02c4 00000000 		.word	gbuf
 4047 02c8 2C020000 		.word	.LC158
 4048 02cc 44020000 		.word	.LC160
 4049 02d0 4C020000 		.word	.LC162
 4050 02d4 70020000 		.word	.LC164
 4051 02d8 00000000 		.word	.LANCHOR0
 4052 02dc 7C020000 		.word	.LC167
 4053 02e0 9C020000 		.word	.LC169
 4054 02e4 A8020000 		.word	.LC171
 4055              		.cfi_endproc
 4056              	.LFE30:
 4057              		.size	TkShellProcessCommand, .-TkShellProcessCommand
 4058              		.section	.text.TkShellInit,"ax",%progbits
 4059              		.align	2
 4060              		.global	TkShellInit
 4061              		.code	16
 4062              		.thumb_func
 4063              		.type	TkShellInit, %function
 4064              	TkShellInit:
 4065              	.LFB31:
 703:TkShell.c     **** 
 704:TkShell.c     **** void TkShellInit(void)
 705:TkShell.c     **** {
 4066              		.loc 1 705 0
 4067              		.cfi_startproc
 4068              		@ args = 0, pretend = 0, frame = 0
 4069              		@ frame_needed = 0, uses_anonymous_args = 0
 4070 0000 10B5     		push	{r4, lr}
 4071              		.cfi_def_cfa_offset 8
 4072              		.cfi_offset 4, -8
 4073              		.cfi_offset 14, -4
 706:TkShell.c     ****     memset((void *)cmd_buf, 0, CMD_BUF_LEN);
 4074              		.loc 1 706 0
 4075 0002 054C     		ldr	r4, .L328
 4076 0004 4022     		movs	r2, #64
 4077 0006 0021     		movs	r1, #0
ARM GAS  C:\Users\TERENC~1\AppData\Local\Temp\cc9BPywF.s 			page 91


 4078 0008 2000     		movs	r0, r4
 4079 000a FFF7FEFF 		bl	memset
 4080              	.LVL549:
 707:TkShell.c     ****     cmd_char_count = 0;
 4081              		.loc 1 707 0
 4082 000e 0022     		movs	r2, #0
 4083 0010 4023     		movs	r3, #64
 4084 0012 E254     		strb	r2, [r4, r3]
 708:TkShell.c     **** }
 4085              		.loc 1 708 0
 4086              		@ sp needed
 4087 0014 10BD     		pop	{r4, pc}
 4088              	.L329:
 4089 0016 C046     		.align	2
 4090              	.L328:
 4091 0018 00000000 		.word	.LANCHOR1
 4092              		.cfi_endproc
 4093              	.LFE31:
 4094              		.size	TkShellInit, .-TkShellInit
 4095              		.section	.text.TkShellService,"ax",%progbits
 4096              		.align	2
 4097              		.global	TkShellService
 4098              		.code	16
 4099              		.thumb_func
 4100              		.type	TkShellService, %function
 4101              	TkShellService:
 4102              	.LFB32:
 709:TkShell.c     **** 
 710:TkShell.c     **** void TkShellService(void)
 711:TkShell.c     **** {
 4103              		.loc 1 711 0
 4104              		.cfi_startproc
 4105              		@ args = 0, pretend = 0, frame = 64
 4106              		@ frame_needed = 0, uses_anonymous_args = 0
 4107 0000 F0B5     		push	{r4, r5, r6, r7, lr}
 4108              		.cfi_def_cfa_offset 20
 4109              		.cfi_offset 4, -20
 4110              		.cfi_offset 5, -16
 4111              		.cfi_offset 6, -12
 4112              		.cfi_offset 7, -8
 4113              		.cfi_offset 14, -4
 4114 0002 91B0     		sub	sp, sp, #68
 4115              		.cfi_def_cfa_offset 88
 4116              	.LVL550:
 712:TkShell.c     ****     char c;
 713:TkShell.c     ****     uint8 i = 0;
 714:TkShell.c     ****     uint16 count;
 715:TkShell.c     ****     uint8 buffer[USBUART_BUFFER_SIZE];
 716:TkShell.c     **** //    
 717:TkShell.c     ****     /* Read received data and re-enable OUT endpoint. */
 718:TkShell.c     ****     count = USBUART_GetAll(buffer);
 4117              		.loc 1 718 0
 4118 0004 6846     		mov	r0, sp
 4119 0006 FFF7FEFF 		bl	USBUART_GetAll
 4120              	.LVL551:
 4121 000a 0500     		movs	r5, r0
 4122              	.LVL552:
ARM GAS  C:\Users\TERENC~1\AppData\Local\Temp\cc9BPywF.s 			page 92


 713:TkShell.c     ****     uint16 count;
 4123              		.loc 1 713 0
 4124 000c 0024     		movs	r4, #0
 719:TkShell.c     **** //
 720:TkShell.c     **** //                if (0u != count)
 721:TkShell.c     **** //                {
 722:TkShell.c     **** //                    /* Wait until component is ready to send data to host. */
 723:TkShell.c     **** //                    while (0u == USBUART_CDCIsReady())
 724:TkShell.c     **** //                    {
 725:TkShell.c     **** //                    }
 726:TkShell.c     **** //
 727:TkShell.c     **** //                    /* Send data back to host. */
 728:TkShell.c     **** //                    USBUART_PutData(buffer, count);
 729:TkShell.c     **** //
 730:TkShell.c     **** //                    /* If the last sent packet is exactly the maximum packet 
 731:TkShell.c     **** //                    *  size, it is followed by a zero-length packet to assure
 732:TkShell.c     **** //                    *  that the end of the segment is properly identified by 
 733:TkShell.c     **** //                    *  the terminal.
 734:TkShell.c     **** //                    */
 735:TkShell.c     **** //                    if (USBUART_BUFFER_SIZE == count)
 736:TkShell.c     **** //                    {
 737:TkShell.c     **** //                        /* Wait until component is ready to send data to PC. */
 738:TkShell.c     **** //                        while (0u == USBUART_CDCIsReady())
 739:TkShell.c     **** //                        {
 740:TkShell.c     **** //                        }
 741:TkShell.c     **** //
 742:TkShell.c     **** //                        /* Send zero-length packet to PC. */
 743:TkShell.c     **** //                        USBUART_PutData(NULL, 0u);
 744:TkShell.c     **** //                    }
 745:TkShell.c     **** //                }
 746:TkShell.c     **** //
 747:TkShell.c     ****     while ((c = buffer[i]) != 0 && i < count)
 4125              		.loc 1 747 0
 4126 000e 94E0     		b	.L331
 4127              	.LVL553:
 4128              	.L350:
 748:TkShell.c     ****     {
 749:TkShell.c     ****         i++;
 4129              		.loc 1 749 0
 4130 0010 0134     		adds	r4, r4, #1
 4131              	.LVL554:
 4132 0012 E4B2     		uxtb	r4, r4
 4133              	.LVL555:
 750:TkShell.c     ****         switch (c)
 4134              		.loc 1 750 0
 4135 0014 0A2E     		cmp	r6, #10
 4136 0016 0AD0     		beq	.L333
 4137 0018 04D8     		bhi	.L334
 4138 001a 032E     		cmp	r6, #3
 4139 001c 07D0     		beq	.L333
 4140 001e 082E     		cmp	r6, #8
 4141 0020 44D0     		beq	.L335
 4142 0022 68E0     		b	.L332
 4143              	.L334:
 4144 0024 0D2E     		cmp	r6, #13
 4145 0026 02D0     		beq	.L333
 4146 0028 7F2E     		cmp	r6, #127
ARM GAS  C:\Users\TERENC~1\AppData\Local\Temp\cc9BPywF.s 			page 93


 4147 002a 3FD0     		beq	.L335
 4148 002c 63E0     		b	.L332
 4149              	.L333:
 751:TkShell.c     ****         {
 752:TkShell.c     ****             case '\r':
 753:TkShell.c     ****             case '\n':
 754:TkShell.c     ****             case 0x03:
 755:TkShell.c     ****                 PRINTF("%c", c);
 4150              		.loc 1 755 0
 4151 002e FFF7FEFF 		bl	USBUART_GetConfiguration
 4152              	.LVL556:
 4153 0032 0028     		cmp	r0, #0
 4154 0034 14D0     		beq	.L336
 4155              	.LBB57:
 4156              		.loc 1 755 0 is_stmt 0 discriminator 1
 4157 0036 464B     		ldr	r3, .L351
 4158 0038 1F68     		ldr	r7, [r3]
 4159              	.LVL557:
 4160              	.L338:
 4161              		.loc 1 755 0 discriminator 5
 4162 003a FFF7FEFF 		bl	USBUART_CDCIsReady
 4163              	.LVL558:
 4164 003e 0028     		cmp	r0, #0
 4165 0040 05D1     		bne	.L337
 4166              		.loc 1 755 0 discriminator 3
 4167 0042 434B     		ldr	r3, .L351
 4168 0044 1B68     		ldr	r3, [r3]
 4169 0046 DB1B     		subs	r3, r3, r7
 4170 0048 424A     		ldr	r2, .L351+4
 4171 004a 9342     		cmp	r3, r2
 4172 004c F5D9     		bls	.L338
 4173              	.L337:
 4174              		.loc 1 755 0 discriminator 6
 4175 004e 424F     		ldr	r7, .L351+8
 4176              	.LVL559:
 4177 0050 3200     		movs	r2, r6
 4178 0052 4249     		ldr	r1, .L351+12
 4179 0054 3800     		movs	r0, r7
 4180 0056 FFF7FEFF 		bl	sprintf
 4181              	.LVL560:
 4182 005a 3800     		movs	r0, r7
 4183 005c FFF7FEFF 		bl	USBUART_PutString
 4184              	.LVL561:
 4185              	.L336:
 4186              	.LBE57:
 756:TkShell.c     ****                 if (cmd_char_count > 0)
 4187              		.loc 1 756 0 is_stmt 1
 4188 0060 4023     		movs	r3, #64
 4189 0062 3F4A     		ldr	r2, .L351+16
 4190 0064 D35C     		ldrb	r3, [r2, r3]
 4191 0066 002B     		cmp	r3, #0
 4192 0068 01D0     		beq	.L339
 757:TkShell.c     ****                 {
 758:TkShell.c     ****                     TkShellProcessCommand();
 4193              		.loc 1 758 0
 4194 006a FFF7FEFF 		bl	TkShellProcessCommand
 4195              	.LVL562:
ARM GAS  C:\Users\TERENC~1\AppData\Local\Temp\cc9BPywF.s 			page 94


 4196              	.L339:
 759:TkShell.c     ****                 }
 760:TkShell.c     ****                 PRINTF("\U00002744 ] ");
 4197              		.loc 1 760 0
 4198 006e FFF7FEFF 		bl	USBUART_GetConfiguration
 4199              	.LVL563:
 4200 0072 0028     		cmp	r0, #0
 4201 0074 14D0     		beq	.L340
 4202              	.LBB58:
 4203              		.loc 1 760 0 is_stmt 0 discriminator 1
 4204 0076 364B     		ldr	r3, .L351
 4205 0078 1E68     		ldr	r6, [r3]
 4206              	.LVL564:
 4207              	.L342:
 4208              		.loc 1 760 0 discriminator 5
 4209 007a FFF7FEFF 		bl	USBUART_CDCIsReady
 4210              	.LVL565:
 4211 007e 0028     		cmp	r0, #0
 4212 0080 05D1     		bne	.L341
 4213              		.loc 1 760 0 discriminator 3
 4214 0082 334B     		ldr	r3, .L351
 4215 0084 1B68     		ldr	r3, [r3]
 4216 0086 9B1B     		subs	r3, r3, r6
 4217 0088 324A     		ldr	r2, .L351+4
 4218 008a 9342     		cmp	r3, r2
 4219 008c F5D9     		bls	.L342
 4220              	.L341:
 4221              		.loc 1 760 0 discriminator 6
 4222 008e 324E     		ldr	r6, .L351+8
 4223              	.LVL566:
 4224 0090 0722     		movs	r2, #7
 4225 0092 3449     		ldr	r1, .L351+20
 4226 0094 3000     		movs	r0, r6
 4227 0096 FFF7FEFF 		bl	memcpy
 4228              	.LVL567:
 4229 009a 3000     		movs	r0, r6
 4230 009c FFF7FEFF 		bl	USBUART_PutString
 4231              	.LVL568:
 4232              	.L340:
 4233              	.LBE58:
 761:TkShell.c     ****                 cmd_char_count = 0;
 4234              		.loc 1 761 0 is_stmt 1
 4235 00a0 2F4B     		ldr	r3, .L351+16
 4236 00a2 0022     		movs	r2, #0
 4237 00a4 4021     		movs	r1, #64
 4238 00a6 5A54     		strb	r2, [r3, r1]
 762:TkShell.c     ****                 cmd_buf[0] = '\0';
 4239              		.loc 1 762 0
 4240 00a8 1A70     		strb	r2, [r3]
 763:TkShell.c     ****                 break;
 4241              		.loc 1 763 0
 4242 00aa 46E0     		b	.L331
 4243              	.LVL569:
 4244              	.L335:
 764:TkShell.c     ****                 
 765:TkShell.c     ****             case 127:
 766:TkShell.c     ****             case '\b':
ARM GAS  C:\Users\TERENC~1\AppData\Local\Temp\cc9BPywF.s 			page 95


 767:TkShell.c     ****                 if (cmd_char_count == 0)
 4245              		.loc 1 767 0
 4246 00ac 4023     		movs	r3, #64
 4247 00ae 2C4A     		ldr	r2, .L351+16
 4248 00b0 D35C     		ldrb	r3, [r2, r3]
 4249 00b2 002B     		cmp	r3, #0
 4250 00b4 41D0     		beq	.L331
 768:TkShell.c     ****                 {
 769:TkShell.c     ****                     break;
 770:TkShell.c     ****                 }
 771:TkShell.c     ****                 cmd_buf[--cmd_char_count] = '\0';
 4251              		.loc 1 771 0
 4252 00b6 013B     		subs	r3, r3, #1
 4253 00b8 DBB2     		uxtb	r3, r3
 4254 00ba 4021     		movs	r1, #64
 4255 00bc 5354     		strb	r3, [r2, r1]
 4256 00be 0021     		movs	r1, #0
 4257 00c0 D154     		strb	r1, [r2, r3]
 772:TkShell.c     ****                 PRINTF("\b \b");
 4258              		.loc 1 772 0
 4259 00c2 FFF7FEFF 		bl	USBUART_GetConfiguration
 4260              	.LVL570:
 4261 00c6 0028     		cmp	r0, #0
 4262 00c8 37D0     		beq	.L331
 4263              	.LBB59:
 4264              		.loc 1 772 0 is_stmt 0 discriminator 1
 4265 00ca 214B     		ldr	r3, .L351
 4266 00cc 1E68     		ldr	r6, [r3]
 4267              	.LVL571:
 4268              	.L345:
 4269              		.loc 1 772 0 discriminator 5
 4270 00ce FFF7FEFF 		bl	USBUART_CDCIsReady
 4271              	.LVL572:
 4272 00d2 0028     		cmp	r0, #0
 4273 00d4 05D1     		bne	.L344
 4274              		.loc 1 772 0 discriminator 3
 4275 00d6 1E4B     		ldr	r3, .L351
 4276 00d8 1B68     		ldr	r3, [r3]
 4277 00da 9B1B     		subs	r3, r3, r6
 4278 00dc 1D4A     		ldr	r2, .L351+4
 4279 00de 9342     		cmp	r3, r2
 4280 00e0 F5D9     		bls	.L345
 4281              	.L344:
 4282              		.loc 1 772 0 discriminator 6
 4283 00e2 1D4E     		ldr	r6, .L351+8
 4284              	.LVL573:
 4285 00e4 0422     		movs	r2, #4
 4286 00e6 2049     		ldr	r1, .L351+24
 4287 00e8 3000     		movs	r0, r6
 4288 00ea FFF7FEFF 		bl	memcpy
 4289              	.LVL574:
 4290 00ee 3000     		movs	r0, r6
 4291 00f0 FFF7FEFF 		bl	USBUART_PutString
 4292              	.LVL575:
 4293 00f4 21E0     		b	.L331
 4294              	.LVL576:
 4295              	.L332:
ARM GAS  C:\Users\TERENC~1\AppData\Local\Temp\cc9BPywF.s 			page 96


 4296              	.LBE59:
 773:TkShell.c     ****                 break;
 774:TkShell.c     **** 
 775:TkShell.c     ****             default:
 776:TkShell.c     ****                 PRINTF("%c", c);
 4297              		.loc 1 776 0 is_stmt 1
 4298 00f6 FFF7FEFF 		bl	USBUART_GetConfiguration
 4299              	.LVL577:
 4300 00fa 0028     		cmp	r0, #0
 4301 00fc 14D0     		beq	.L346
 4302              	.LBB60:
 4303              		.loc 1 776 0 is_stmt 0 discriminator 1
 4304 00fe 144B     		ldr	r3, .L351
 4305 0100 1F68     		ldr	r7, [r3]
 4306              	.LVL578:
 4307              	.L348:
 4308              		.loc 1 776 0 discriminator 5
 4309 0102 FFF7FEFF 		bl	USBUART_CDCIsReady
 4310              	.LVL579:
 4311 0106 0028     		cmp	r0, #0
 4312 0108 05D1     		bne	.L347
 4313              		.loc 1 776 0 discriminator 3
 4314 010a 114B     		ldr	r3, .L351
 4315 010c 1B68     		ldr	r3, [r3]
 4316 010e DB1B     		subs	r3, r3, r7
 4317 0110 104A     		ldr	r2, .L351+4
 4318 0112 9342     		cmp	r3, r2
 4319 0114 F5D9     		bls	.L348
 4320              	.L347:
 4321              		.loc 1 776 0 discriminator 6
 4322 0116 104F     		ldr	r7, .L351+8
 4323              	.LVL580:
 4324 0118 3200     		movs	r2, r6
 4325 011a 1049     		ldr	r1, .L351+12
 4326 011c 3800     		movs	r0, r7
 4327 011e FFF7FEFF 		bl	sprintf
 4328              	.LVL581:
 4329 0122 3800     		movs	r0, r7
 4330 0124 FFF7FEFF 		bl	USBUART_PutString
 4331              	.LVL582:
 4332              	.L346:
 4333              	.LBE60:
 777:TkShell.c     ****                 cmd_buf[cmd_char_count++] = c;
 4334              		.loc 1 777 0 is_stmt 1
 4335 0128 0D4A     		ldr	r2, .L351+16
 4336 012a 4020     		movs	r0, #64
 4337 012c 115C     		ldrb	r1, [r2, r0]
 4338 012e 4B1C     		adds	r3, r1, #1
 4339 0130 DBB2     		uxtb	r3, r3
 4340 0132 1354     		strb	r3, [r2, r0]
 4341 0134 5654     		strb	r6, [r2, r1]
 778:TkShell.c     ****                 cmd_buf[cmd_char_count] = '\0';
 4342              		.loc 1 778 0
 4343 0136 0021     		movs	r1, #0
 4344 0138 D154     		strb	r1, [r2, r3]
 4345              	.LVL583:
 4346              	.L331:
ARM GAS  C:\Users\TERENC~1\AppData\Local\Temp\cc9BPywF.s 			page 97


 747:TkShell.c     ****     {
 4347              		.loc 1 747 0
 4348 013a 6B46     		mov	r3, sp
 4349 013c 1E5D     		ldrb	r6, [r3, r4]
 4350              	.LVL584:
 4351 013e 002E     		cmp	r6, #0
 4352 0140 03D0     		beq	.L330
 747:TkShell.c     ****     {
 4353              		.loc 1 747 0 is_stmt 0 discriminator 1
 4354 0142 A3B2     		uxth	r3, r4
 4355 0144 9D42     		cmp	r5, r3
 4356 0146 00D9     		bls	.LCB4488
 4357 0148 62E7     		b	.L350	@long jump
 4358              	.LCB4488:
 4359              	.L330:
 779:TkShell.c     ****                 break;
 780:TkShell.c     ****         }
 781:TkShell.c     ****     }
 782:TkShell.c     **** }
 4360              		.loc 1 782 0 is_stmt 1
 4361 014a 11B0     		add	sp, sp, #68
 4362              		@ sp needed
 4363              	.LVL585:
 4364              	.LVL586:
 4365              	.LVL587:
 4366 014c F0BD     		pop	{r4, r5, r6, r7, pc}
 4367              	.L352:
 4368 014e C046     		.align	2
 4369              	.L351:
 4370 0150 00000000 		.word	tmrCounter_ms
 4371 0154 E7030000 		.word	999
 4372 0158 00000000 		.word	gbuf
 4373 015c C0020000 		.word	.LC175
 4374 0160 00000000 		.word	.LANCHOR1
 4375 0164 C4020000 		.word	.LC179
 4376 0168 CC020000 		.word	.LC181
 4377              		.cfi_endproc
 4378              	.LFE32:
 4379              		.size	TkShellService, .-TkShellService
 4380              		.section	.rodata
 4381              		.align	2
 4382              		.set	.LANCHOR0,. + 0
 4383              		.type	reg_lookup, %object
 4384              		.size	reg_lookup, 56
 4385              	reg_lookup:
 4386 0000 00000440 		.word	1074003968
 4387 0004 00010440 		.word	1074004224
 4388 0008 00020440 		.word	1074004480
 4389 000c 00030440 		.word	1074004736
 4390 0010 00040440 		.word	1074004992
 4391 0014 00050440 		.word	1074005248
 4392 0018 00060440 		.word	1074005504
 4393 001c 00070440 		.word	1074005760
 4394 0020 00080440 		.word	1074006016
 4395 0024 00090440 		.word	1074006272
 4396 0028 000A0440 		.word	1074006528
 4397 002c 000B0440 		.word	1074006784
ARM GAS  C:\Users\TERENC~1\AppData\Local\Temp\cc9BPywF.s 			page 98


 4398 0030 000C0440 		.word	1074007040
 4399 0034 000D0440 		.word	1074007296
 4400              		.type	OK_STR, %object
 4401              		.size	OK_STR, 3
 4402              	OK_STR:
 4403 0038 6F6B00   		.ascii	"ok\000"
 4404 003b 00       		.space	1
 4405              		.type	ER_STR, %object
 4406              		.size	ER_STR, 3
 4407              	ER_STR:
 4408 003c 657200   		.ascii	"er\000"
 4409 003f 00       		.space	1
 4410              		.type	commands, %object
 4411              		.size	commands, 96
 4412              	commands:
 4413 0040 D0020000 		.word	.LC183
 4414 0044 08020000 		.word	__tk_shell_verbs_gpio
 4415 0048 D8020000 		.word	.LC184
 4416 004c E8020000 		.word	.LC185
 4417 0050 CC010000 		.word	__tk_shell_verbs_wm
 4418 0054 EC020000 		.word	.LC186
 4419 0058 04030000 		.word	.LC187
 4420 005c 54010000 		.word	__tk_shell_verbs_rf
 4421 0060 08030000 		.word	.LC188
 4422 0064 1C030000 		.word	.LC189
 4423 0068 18010000 		.word	__tk_shell_verbs_sys
 4424 006c 20030000 		.word	.LC190
 4425 0070 30030000 		.word	.LC191
 4426 0074 F4000000 		.word	__tk_shell_verbs_led
 4427 0078 34030000 		.word	.LC192
 4428 007c 44030000 		.word	.LC193
 4429 0080 C4000000 		.word	__tk_shell_verbs_cal
 4430 0084 48030000 		.word	.LC194
 4431 0088 64030000 		.word	.LC195
 4432 008c A0000000 		.word	__tk_shell_verbs_audio
 4433 0090 6C030000 		.word	.LC196
 4434 0094 7C030000 		.word	.LC197
 4435 0098 00000000 		.word	0
 4436 009c 7C030000 		.word	.LC197
 4437              		.type	__tk_shell_verbs_audio, %object
 4438              		.size	__tk_shell_verbs_audio, 36
 4439              	__tk_shell_verbs_audio:
 4440 00a0 80030000 		.word	.LC198
 4441 00a4 00000000 		.word	__tk_shell_audio_play_tone
 4442 00a8 8C030000 		.word	.LC199
 4443 00ac 98030000 		.word	.LC200
 4444 00b0 00000000 		.word	__tk_shell_audio_stop_tone
 4445 00b4 A4030000 		.word	.LC201
 4446 00b8 7C030000 		.word	.LC197
 4447 00bc 00000000 		.word	0
 4448 00c0 7C030000 		.word	.LC197
 4449              		.type	__tk_shell_verbs_cal, %object
 4450              		.size	__tk_shell_verbs_cal, 48
 4451              	__tk_shell_verbs_cal:
 4452 00c4 B0030000 		.word	.LC202
 4453 00c8 00000000 		.word	__tk_shell_cal_print
 4454 00cc B8030000 		.word	.LC203
ARM GAS  C:\Users\TERENC~1\AppData\Local\Temp\cc9BPywF.s 			page 99


 4455 00d0 C8030000 		.word	.LC204
 4456 00d4 00000000 		.word	__tk_shell_cal_set
 4457 00d8 CC030000 		.word	.LC205
 4458 00dc DC030000 		.word	.LC206
 4459 00e0 00000000 		.word	__tk_shell_cal_save
 4460 00e4 E4030000 		.word	.LC207
 4461 00e8 7C030000 		.word	.LC197
 4462 00ec 00000000 		.word	0
 4463 00f0 7C030000 		.word	.LC197
 4464              		.type	__tk_shell_verbs_led, %object
 4465              		.size	__tk_shell_verbs_led, 36
 4466              	__tk_shell_verbs_led:
 4467 00f4 00040000 		.word	.LC208
 4468 00f8 00000000 		.word	__tk_shell_led_start
 4469 00fc 08040000 		.word	.LC209
 4470 0100 64040000 		.word	.LC210
 4471 0104 00000000 		.word	__tk_shell_led_stop
 4472 0108 6C040000 		.word	.LC211
 4473 010c 7C030000 		.word	.LC197
 4474 0110 00000000 		.word	0
 4475 0114 7C030000 		.word	.LC197
 4476              		.type	__tk_shell_verbs_sys, %object
 4477              		.size	__tk_shell_verbs_sys, 60
 4478              	__tk_shell_verbs_sys:
 4479 0118 94040000 		.word	.LC212
 4480 011c 00000000 		.word	__tk_shell_sys_crash
 4481 0120 9C040000 		.word	.LC213
 4482 0124 B4040000 		.word	.LC214
 4483 0128 00000000 		.word	__tk_shell_sys_info
 4484 012c BC040000 		.word	.LC215
 4485 0130 C8040000 		.word	.LC216
 4486 0134 00000000 		.word	__tk_shell_sys_reset
 4487 0138 D0040000 		.word	.LC217
 4488 013c E4040000 		.word	.LC218
 4489 0140 00000000 		.word	__tk_shell_sys_adc
 4490 0144 E8040000 		.word	.LC219
 4491 0148 7C030000 		.word	.LC197
 4492 014c 00000000 		.word	0
 4493 0150 7C030000 		.word	.LC197
 4494              		.type	__tk_shell_verbs_rf, %object
 4495              		.size	__tk_shell_verbs_rf, 120
 4496              	__tk_shell_verbs_rf:
 4497 0154 FC040000 		.word	.LC220
 4498 0158 00000000 		.word	__tk_shell_rf_init
 4499 015c 04050000 		.word	.LC221
 4500 0160 C8040000 		.word	.LC216
 4501 0164 00000000 		.word	__tk_shell_rf_reset
 4502 0168 18050000 		.word	.LC222
 4503 016c 2C050000 		.word	.LC223
 4504 0170 00000000 		.word	__tk_shell_rf_bl_reset
 4505 0174 38050000 		.word	.LC224
 4506 0178 4C050000 		.word	.LC225
 4507 017c 00000000 		.word	__tk_shell_rf_bl_unlock
 4508 0180 58050000 		.word	.LC226
 4509 0184 70050000 		.word	.LC227
 4510 0188 00000000 		.word	__tk_shell_rf_bl_erase
 4511 018c 7C050000 		.word	.LC228
ARM GAS  C:\Users\TERENC~1\AppData\Local\Temp\cc9BPywF.s 			page 100


 4512 0190 90050000 		.word	.LC229
 4513 0194 00000000 		.word	__tk_shell_rf_bl_verify
 4514 0198 9C050000 		.word	.LC230
 4515 019c B8050000 		.word	.LC231
 4516 01a0 00000000 		.word	__tk_shell_rf_bl_flash
 4517 01a4 C4050000 		.word	.LC232
 4518 01a8 EC050000 		.word	.LC233
 4519 01ac 00000000 		.word	__tk_shell_rf_status
 4520 01b0 F4050000 		.word	.LC234
 4521 01b4 B4040000 		.word	.LC214
 4522 01b8 00000000 		.word	__tk_shell_rf_info
 4523 01bc 00060000 		.word	.LC235
 4524 01c0 7C030000 		.word	.LC197
 4525 01c4 00000000 		.word	0
 4526 01c8 7C030000 		.word	.LC197
 4527              		.type	__tk_shell_verbs_wm, %object
 4528              		.size	__tk_shell_verbs_wm, 60
 4529              	__tk_shell_verbs_wm:
 4530 01cc 14060000 		.word	.LC236
 4531 01d0 00000000 		.word	__tk_shell_wm_vol_set
 4532 01d4 1C060000 		.word	.LC237
 4533 01d8 3C060000 		.word	.LC238
 4534 01dc 00000000 		.word	__tk_shell_wm_vol_get
 4535 01e0 44060000 		.word	.LC239
 4536 01e4 58060000 		.word	.LC240
 4537 01e8 00000000 		.word	__tk_shell_wm_reg_wr
 4538 01ec 60060000 		.word	.LC241
 4539 01f0 88060000 		.word	.LC242
 4540 01f4 00000000 		.word	__tk_shell_wm_reg_rd
 4541 01f8 90060000 		.word	.LC243
 4542 01fc 7C030000 		.word	.LC197
 4543 0200 00000000 		.word	0
 4544 0204 7C030000 		.word	.LC197
 4545              		.type	__tk_shell_verbs_gpio, %object
 4546              		.size	__tk_shell_verbs_gpio, 48
 4547              	__tk_shell_verbs_gpio:
 4548 0208 C8030000 		.word	.LC204
 4549 020c 00000000 		.word	__tk_shell_gpio_set
 4550 0210 AC060000 		.word	.LC244
 4551 0214 BC060000 		.word	.LC245
 4552 0218 00000000 		.word	__tk_shell_gpio_config
 4553 021c C4060000 		.word	.LC246
 4554 0220 D4060000 		.word	.LC247
 4555 0224 00000000 		.word	__tk_shell_gpio_get
 4556 0228 D8060000 		.word	.LC248
 4557 022c 7C030000 		.word	.LC197
 4558 0230 00000000 		.word	0
 4559 0234 7C030000 		.word	.LC197
 4560              		.section	.rodata.str1.4,"aMS",%progbits,1
 4561              		.align	2
 4562              	.LC2:
 4563 0000 3E207379 		.ascii	"> sys:er\012\000"
 4563      733A6572 
 4563      0A00
 4564 000a 0000     		.space	2
 4565              	.LC6:
 4566 000c 496E7661 		.ascii	"Invalid number of arguments!\012\000"
ARM GAS  C:\Users\TERENC~1\AppData\Local\Temp\cc9BPywF.s 			page 101


 4566      6C696420 
 4566      6E756D62 
 4566      6572206F 
 4566      66206172 
 4567 002a 0000     		.space	2
 4568              	.LC13:
 4569 002c 3E206770 		.ascii	"> gpio:ok %d\012\000"
 4569      696F3A6F 
 4569      6B202564 
 4569      0A00
 4570 003a 0000     		.space	2
 4571              	.LC21:
 4572 003c 3E207379 		.ascii	"> sys:ok %08lu\012\000"
 4572      733A6F6B 
 4572      20253038 
 4572      6C750A00 
 4573              	.LC26:
 4574 004c 3E207379 		.ascii	"> sys:ok %d,%d\012\000"
 4574      733A6F6B 
 4574      2025642C 
 4574      25640A00 
 4575              	.LC31:
 4576 005c 7369676E 		.ascii	"sign = 0x%08X\012\000"
 4576      203D2030 
 4576      78253038 
 4576      580A00
 4577 006b 00       		.space	1
 4578              	.LC34:
 4579 006c 63747220 		.ascii	"ctr = %lu\012\000"
 4579      3D20256C 
 4579      750A00
 4580 0077 00       		.space	1
 4581              	.LC36:
 4582 0078 6164635F 		.ascii	"adc_min[R] = %d\012\000"
 4582      6D696E5B 
 4582      525D203D 
 4582      2025640A 
 4582      00
 4583 0089 000000   		.space	3
 4584              	.LC38:
 4585 008c 6164635F 		.ascii	"adc_max[R] = %d\012\000"
 4585      6D61785B 
 4585      525D203D 
 4585      2025640A 
 4585      00
 4586 009d 000000   		.space	3
 4587              	.LC40:
 4588 00a0 6164635F 		.ascii	"adc_min[L] = %d\012\000"
 4588      6D696E5B 
 4588      4C5D203D 
 4588      2025640A 
 4588      00
 4589 00b1 000000   		.space	3
 4590              	.LC42:
 4591 00b4 6164635F 		.ascii	"adc_max[L] = %d\012\000"
 4591      6D61785B 
 4591      4C5D203D 
ARM GAS  C:\Users\TERENC~1\AppData\Local\Temp\cc9BPywF.s 			page 102


 4591      2025640A 
 4591      00
 4592 00c5 000000   		.space	3
 4593              	.LC44:
 4594 00c8 6C65645F 		.ascii	"led_max_brightness = %d\012\000"
 4594      6D61785F 
 4594      62726967 
 4594      68746E65 
 4594      7373203D 
 4595 00e1 000000   		.space	3
 4596              	.LC46:
 4597 00e4 64656275 		.ascii	"debug_mask = 0x%02X\012\000"
 4597      675F6D61 
 4597      736B203D 
 4597      20307825 
 4597      3032580A 
 4598 00f9 000000   		.space	3
 4599              	.LC48:
 4600 00fc 3E206361 		.ascii	"> cal:ok\012\000"
 4600      6C3A6F6B 
 4600      0A00
 4601 0106 0000     		.space	2
 4602              	.LC53:
 4603 0108 3E20776D 		.ascii	"> wm:ok\012\000"
 4603      3A6F6B0A 
 4603      00
 4604 0111 000000   		.space	3
 4605              	.LC55:
 4606 0114 3E20776D 		.ascii	"> wm:er %d\012\000"
 4606      3A657220 
 4606      25640A00 
 4607              	.LC58:
 4608 0120 3E20776D 		.ascii	"> wm:ok %d\012\000"
 4608      3A6F6B20 
 4608      25640A00 
 4609              	.LC69:
 4610 012c 3E20776D 		.ascii	"> wm:ok 0x%04X\012\000"
 4610      3A6F6B20 
 4610      30782530 
 4610      34580A00 
 4611              	.LC73:
 4612 013c 3E207266 		.ascii	"> rf:ok\012\000"
 4612      3A6F6B0A 
 4612      00
 4613 0145 000000   		.space	3
 4614              	.LC77:
 4615 0148 3E207266 		.ascii	"> rf:%s\012\000"
 4615      3A25730A 
 4615      00
 4616 0151 000000   		.space	3
 4617              	.LC94:
 4618 0154 3E207266 		.ascii	"> rf:%s 0x%08X\012\000"
 4618      3A257320 
 4618      30782530 
 4618      38580A00 
 4619              	.LC99:
 4620 0164 496E7661 		.ascii	"Invalid number of arguments: %d\012\000"
ARM GAS  C:\Users\TERENC~1\AppData\Local\Temp\cc9BPywF.s 			page 103


 4620      6C696420 
 4620      6E756D62 
 4620      6572206F 
 4620      66206172 
 4621 0185 000000   		.space	3
 4622              	.LC104:
 4623 0188 3E207266 		.ascii	"> rf:ok 0x%04X\012\000"
 4623      3A6F6B20 
 4623      30782530 
 4623      34580A00 
 4624              	.LC112:
 4625 0198 3E206361 		.ascii	"> cal:ok %d\012\000"
 4625      6C3A6F6B 
 4625      2025640A 
 4625      00
 4626 01a5 000000   		.space	3
 4627              	.LC117:
 4628 01a8 3E206175 		.ascii	"> audio:ok\012\000"
 4628      64696F3A 
 4628      6F6B0A00 
 4629              	.LC126:
 4630 01b4 72656400 		.ascii	"red\000"
 4631              	.LC128:
 4632 01b8 67726565 		.ascii	"green\000"
 4632      6E00
 4633 01be 0000     		.space	2
 4634              	.LC130:
 4635 01c0 626C7565 		.ascii	"blue\000"
 4635      00
 4636 01c5 000000   		.space	3
 4637              	.LC132:
 4638 01c8 496E7661 		.ascii	"Invalid color %s, must be red|green|blue\012\000"
 4638      6C696420 
 4638      636F6C6F 
 4638      72202573 
 4638      2C206D75 
 4639 01f2 0000     		.space	2
 4640              	.LC134:
 4641 01f4 3E206C65 		.ascii	"> led:ok\012\000"
 4641      643A6F6B 
 4641      0A00
 4642 01fe 0000     		.space	2
 4643              	.LC147:
 4644 0200 6C65645F 		.ascii	"led_max_brightness\000"
 4644      6D61785F 
 4644      62726967 
 4644      68746E65 
 4644      737300
 4645 0213 00       		.space	1
 4646              	.LC150:
 4647 0214 6164635F 		.ascii	"adc_min_l\000"
 4647      6D696E5F 
 4647      6C00
 4648 021e 0000     		.space	2
 4649              	.LC152:
 4650 0220 64656275 		.ascii	"debug_mask\000"
 4650      675F6D61 
ARM GAS  C:\Users\TERENC~1\AppData\Local\Temp\cc9BPywF.s 			page 104


 4650      736B00
 4651 022b 00       		.space	1
 4652              	.LC158:
 4653 022c 546F6F20 		.ascii	"Too many arguments!\012\000"
 4653      6D616E79 
 4653      20617267 
 4653      756D656E 
 4653      7473210A 
 4654 0241 000000   		.space	3
 4655              	.LC160:
 4656 0244 68656C70 		.ascii	"help\000"
 4656      00
 4657 0249 000000   		.space	3
 4658              	.LC162:
 4659 024c 44697370 		.ascii	"Displaying list of %s commands:\012\000"
 4659      6C617969 
 4659      6E67206C 
 4659      69737420 
 4659      6F662025 
 4660 026d 000000   		.space	3
 4661              	.LC164:
 4662 0270 09257320 		.ascii	"\011%s %s: %s\012\000"
 4662      25733A20 
 4662      25730A00 
 4663              	.LC167:
 4664 027c 44697370 		.ascii	"Displaying list of commands:\012\000"
 4664      6C617969 
 4664      6E67206C 
 4664      69737420 
 4664      6F662063 
 4665 029a 0000     		.space	2
 4666              	.LC169:
 4667 029c 0925733A 		.ascii	"\011%s: %s\012\000"
 4667      2025730A 
 4667      00
 4668 02a5 000000   		.space	3
 4669              	.LC171:
 4670 02a8 756E6B6E 		.ascii	"unknown command: %s\012\000"
 4670      6F776E20 
 4670      636F6D6D 
 4670      616E643A 
 4670      2025730A 
 4671 02bd 000000   		.space	3
 4672              	.LC175:
 4673 02c0 256300   		.ascii	"%c\000"
 4674 02c3 00       		.space	1
 4675              	.LC179:
 4676 02c4 E29D8420 		.ascii	"\342\235\204 ] \000"
 4676      5D2000
 4677 02cb 00       		.space	1
 4678              	.LC181:
 4679 02cc 08200800 		.ascii	"\010 \010\000"
 4680              	.LC183:
 4681 02d0 6770696F 		.ascii	"gpio\000"
 4681      00
 4682 02d5 000000   		.space	3
 4683              	.LC184:
ARM GAS  C:\Users\TERENC~1\AppData\Local\Temp\cc9BPywF.s 			page 105


 4684 02d8 4750494F 		.ascii	"GPIO commands\000"
 4684      20636F6D 
 4684      6D616E64 
 4684      7300
 4685 02e6 0000     		.space	2
 4686              	.LC185:
 4687 02e8 776D00   		.ascii	"wm\000"
 4688 02eb 00       		.space	1
 4689              	.LC186:
 4690 02ec 576F6C66 		.ascii	"Wolfson Codec commands\000"
 4690      736F6E20 
 4690      436F6465 
 4690      6320636F 
 4690      6D6D616E 
 4691 0303 00       		.space	1
 4692              	.LC187:
 4693 0304 726600   		.ascii	"rf\000"
 4694 0307 00       		.space	1
 4695              	.LC188:
 4696 0308 52462063 		.ascii	"RF chip commands\000"
 4696      68697020 
 4696      636F6D6D 
 4696      616E6473 
 4696      00
 4697 0319 000000   		.space	3
 4698              	.LC189:
 4699 031c 73797300 		.ascii	"sys\000"
 4700              	.LC190:
 4701 0320 53797374 		.ascii	"System commands\000"
 4701      656D2063 
 4701      6F6D6D61 
 4701      6E647300 
 4702              	.LC191:
 4703 0330 6C656400 		.ascii	"led\000"
 4704              	.LC192:
 4705 0334 4C454420 		.ascii	"LED commands\000"
 4705      636F6D6D 
 4705      616E6473 
 4705      00
 4706 0341 000000   		.space	3
 4707              	.LC193:
 4708 0344 63616C00 		.ascii	"cal\000"
 4709              	.LC194:
 4710 0348 43616C69 		.ascii	"Calibration data commands\000"
 4710      62726174 
 4710      696F6E20 
 4710      64617461 
 4710      20636F6D 
 4711 0362 0000     		.space	2
 4712              	.LC195:
 4713 0364 61756469 		.ascii	"audio\000"
 4713      6F00
 4714 036a 0000     		.space	2
 4715              	.LC196:
 4716 036c 41756469 		.ascii	"Audio commands\000"
 4716      6F20636F 
 4716      6D6D616E 
ARM GAS  C:\Users\TERENC~1\AppData\Local\Temp\cc9BPywF.s 			page 106


 4716      647300
 4717 037b 00       		.space	1
 4718              	.LC197:
 4719 037c 00       		.ascii	"\000"
 4720 037d 000000   		.space	3
 4721              	.LC198:
 4722 0380 706C6179 		.ascii	"play_tone\000"
 4722      5F746F6E 
 4722      6500
 4723 038a 0000     		.space	2
 4724              	.LC199:
 4725 038c 706C6179 		.ascii	"play tone\000"
 4725      20746F6E 
 4725      6500
 4726 0396 0000     		.space	2
 4727              	.LC200:
 4728 0398 73746F70 		.ascii	"stop_tone\000"
 4728      5F746F6E 
 4728      6500
 4729 03a2 0000     		.space	2
 4730              	.LC201:
 4731 03a4 73746F70 		.ascii	"stop tone\000"
 4731      20746F6E 
 4731      6500
 4732 03ae 0000     		.space	2
 4733              	.LC202:
 4734 03b0 7072696E 		.ascii	"print\000"
 4734      7400
 4735 03b6 0000     		.space	2
 4736              	.LC203:
 4737 03b8 7072696E 		.ascii	"print cal data\000"
 4737      74206361 
 4737      6C206461 
 4737      746100
 4738 03c7 00       		.space	1
 4739              	.LC204:
 4740 03c8 73657400 		.ascii	"set\000"
 4741              	.LC205:
 4742 03cc 73657420 		.ascii	"set cal data\000"
 4742      63616C20 
 4742      64617461 
 4742      00
 4743 03d9 000000   		.space	3
 4744              	.LC206:
 4745 03dc 73617665 		.ascii	"save\000"
 4745      00
 4746 03e1 000000   		.space	3
 4747              	.LC207:
 4748 03e4 636F6D6D 		.ascii	"commit cal data to flash\000"
 4748      69742063 
 4748      616C2064 
 4748      61746120 
 4748      746F2066 
 4749 03fd 000000   		.space	3
 4750              	.LC208:
 4751 0400 73746172 		.ascii	"start\000"
 4751      7400
ARM GAS  C:\Users\TERENC~1\AppData\Local\Temp\cc9BPywF.s 			page 107


 4752 0406 0000     		.space	2
 4753              	.LC209:
 4754 0408 73746172 		.ascii	"start LED animation <led:red|green|blue> <period:ui"
 4754      74204C45 
 4754      4420616E 
 4754      696D6174 
 4754      696F6E20 
 4755 043b 6E743332 		.ascii	"nt32> <compare:uint32> <counter:uint32>\000"
 4755      3E203C63 
 4755      6F6D7061 
 4755      72653A75 
 4755      696E7433 
 4756 0463 00       		.space	1
 4757              	.LC210:
 4758 0464 73746F70 		.ascii	"stop\000"
 4758      00
 4759 0469 000000   		.space	3
 4760              	.LC211:
 4761 046c 73746F70 		.ascii	"stop LED animation <led:red|green|blue>\000"
 4761      204C4544 
 4761      20616E69 
 4761      6D617469 
 4761      6F6E203C 
 4762              	.LC212:
 4763 0494 63726173 		.ascii	"crash\000"
 4763      6800
 4764 049a 0000     		.space	2
 4765              	.LC213:
 4766 049c 74726967 		.ascii	"trigger a hard fault\000"
 4766      67657220 
 4766      61206861 
 4766      72642066 
 4766      61756C74 
 4767 04b1 000000   		.space	3
 4768              	.LC214:
 4769 04b4 696E666F 		.ascii	"info\000"
 4769      00
 4770 04b9 000000   		.space	3
 4771              	.LC215:
 4772 04bc 7072696E 		.ascii	"print info\000"
 4772      7420696E 
 4772      666F00
 4773 04c7 00       		.space	1
 4774              	.LC216:
 4775 04c8 72657365 		.ascii	"reset\000"
 4775      7400
 4776 04ce 0000     		.space	2
 4777              	.LC217:
 4778 04d0 74726967 		.ascii	"trigger a SW reset\000"
 4778      67657220 
 4778      61205357 
 4778      20726573 
 4778      657400
 4779 04e3 00       		.space	1
 4780              	.LC218:
 4781 04e4 61646300 		.ascii	"adc\000"
 4782              	.LC219:
ARM GAS  C:\Users\TERENC~1\AppData\Local\Temp\cc9BPywF.s 			page 108


 4783 04e8 7072696E 		.ascii	"print ADC values\000"
 4783      74204144 
 4783      43207661 
 4783      6C756573 
 4783      00
 4784 04f9 000000   		.space	3
 4785              	.LC220:
 4786 04fc 696E6974 		.ascii	"init\000"
 4786      00
 4787 0501 000000   		.space	3
 4788              	.LC221:
 4789 0504 696E6974 		.ascii	"initialize RF chip\000"
 4789      69616C69 
 4789      7A652052 
 4789      46206368 
 4789      697000
 4790 0517 00       		.space	1
 4791              	.LC222:
 4792 0518 70657266 		.ascii	"perform sys reset\000"
 4792      6F726D20 
 4792      73797320 
 4792      72657365 
 4792      7400
 4793 052a 0000     		.space	2
 4794              	.LC223:
 4795 052c 626C5F72 		.ascii	"bl_reset\000"
 4795      65736574 
 4795      00
 4796 0535 000000   		.space	3
 4797              	.LC224:
 4798 0538 70657266 		.ascii	"perform boot reset\000"
 4798      6F726D20 
 4798      626F6F74 
 4798      20726573 
 4798      657400
 4799 054b 00       		.space	1
 4800              	.LC225:
 4801 054c 626C5F75 		.ascii	"bl_unlock\000"
 4801      6E6C6F63 
 4801      6B00
 4802 0556 0000     		.space	2
 4803              	.LC226:
 4804 0558 756E6C6F 		.ascii	"unlock bootloader SPI\000"
 4804      636B2062 
 4804      6F6F746C 
 4804      6F616465 
 4804      72205350 
 4805 056e 0000     		.space	2
 4806              	.LC227:
 4807 0570 626C5F65 		.ascii	"bl_erase\000"
 4807      72617365 
 4807      00
 4808 0579 000000   		.space	3
 4809              	.LC228:
 4810 057c 70657266 		.ascii	"perform mass erase\000"
 4810      6F726D20 
 4810      6D617373 
ARM GAS  C:\Users\TERENC~1\AppData\Local\Temp\cc9BPywF.s 			page 109


 4810      20657261 
 4810      736500
 4811 058f 00       		.space	1
 4812              	.LC229:
 4813 0590 626C5F76 		.ascii	"bl_verify\000"
 4813      65726966 
 4813      7900
 4814 059a 0000     		.space	2
 4815              	.LC230:
 4816 059c 70657266 		.ascii	"perform image verification\000"
 4816      6F726D20 
 4816      696D6167 
 4816      65207665 
 4816      72696669 
 4817 05b7 00       		.space	1
 4818              	.LC231:
 4819 05b8 626C5F66 		.ascii	"bl_flash\000"
 4819      6C617368 
 4819      00
 4820 05c1 000000   		.space	3
 4821              	.LC232:
 4822 05c4 666C6173 		.ascii	"flash a chunk: <addr> <data:uint8[]>\000"
 4822      68206120 
 4822      6368756E 
 4822      6B3A203C 
 4822      61646472 
 4823 05e9 000000   		.space	3
 4824              	.LC233:
 4825 05ec 73746174 		.ascii	"status\000"
 4825      757300
 4826 05f3 00       		.space	1
 4827              	.LC234:
 4828 05f4 67657420 		.ascii	"get status\000"
 4828      73746174 
 4828      757300
 4829 05ff 00       		.space	1
 4830              	.LC235:
 4831 0600 7072696E 		.ascii	"print dev_chip_info\000"
 4831      74206465 
 4831      765F6368 
 4831      69705F69 
 4831      6E666F00 
 4832              	.LC236:
 4833 0614 766F6C5F 		.ascii	"vol_set\000"
 4833      73657400 
 4834              	.LC237:
 4835 061c 73657420 		.ascii	"set volume level <vol:uint8>\000"
 4835      766F6C75 
 4835      6D65206C 
 4835      6576656C 
 4835      203C766F 
 4836 0639 000000   		.space	3
 4837              	.LC238:
 4838 063c 766F6C5F 		.ascii	"vol_get\000"
 4838      67657400 
 4839              	.LC239:
 4840 0644 67657420 		.ascii	"get volume level\000"
ARM GAS  C:\Users\TERENC~1\AppData\Local\Temp\cc9BPywF.s 			page 110


 4840      766F6C75 
 4840      6D65206C 
 4840      6576656C 
 4840      00
 4841 0655 000000   		.space	3
 4842              	.LC240:
 4843 0658 7265675F 		.ascii	"reg_wr\000"
 4843      777200
 4844 065f 00       		.space	1
 4845              	.LC241:
 4846 0660 77726974 		.ascii	"write register <reg:uint8,data:uint16>)\000"
 4846      65207265 
 4846      67697374 
 4846      6572203C 
 4846      7265673A 
 4847              	.LC242:
 4848 0688 7265675F 		.ascii	"reg_rd\000"
 4848      726400
 4849 068f 00       		.space	1
 4850              	.LC243:
 4851 0690 72656164 		.ascii	"read register <reg:uint8>\000"
 4851      20726567 
 4851      69737465 
 4851      72203C72 
 4851      65673A75 
 4852 06aa 0000     		.space	2
 4853              	.LC244:
 4854 06ac 73657420 		.ascii	"set GPIO state\000"
 4854      4750494F 
 4854      20737461 
 4854      746500
 4855 06bb 00       		.space	1
 4856              	.LC245:
 4857 06bc 636F6E66 		.ascii	"config\000"
 4857      696700
 4858 06c3 00       		.space	1
 4859              	.LC246:
 4860 06c4 636F6E66 		.ascii	"configure GPIO\000"
 4860      69677572 
 4860      65204750 
 4860      494F00
 4861 06d3 00       		.space	1
 4862              	.LC247:
 4863 06d4 67657400 		.ascii	"get\000"
 4864              	.LC248:
 4865 06d8 67657420 		.ascii	"get GPIO state\000"
 4865      4750494F 
 4865      20737461 
 4865      746500
 4866              		.bss
 4867              		.align	2
 4868              		.set	.LANCHOR1,. + 0
 4869              		.type	cmd_buf, %object
 4870              		.size	cmd_buf, 64
 4871              	cmd_buf:
 4872 0000 00000000 		.space	64
 4872      00000000 
ARM GAS  C:\Users\TERENC~1\AppData\Local\Temp\cc9BPywF.s 			page 111


 4872      00000000 
 4872      00000000 
 4872      00000000 
 4873              		.type	cmd_char_count, %object
 4874              		.size	cmd_char_count, 1
 4875              	cmd_char_count:
 4876 0040 00       		.space	1
 4877              		.text
 4878              	.Letext0:
 4879              		.file 2 "c:\\program files (x86)\\cypress\\psoc creator\\4.2\\psoc creator\\import\\gnu\\arm\\5.4.
 4880              		.file 3 "c:\\program files (x86)\\cypress\\psoc creator\\4.2\\psoc creator\\import\\gnu\\arm\\5.4.
 4881              		.file 4 "Generated_Source\\PSoC4/cytypes.h"
 4882              		.file 5 "./Calibration.h"
 4883              		.file 6 "./VolumeControl.h"
 4884              		.file 7 "./LedManager.h"
 4885              		.file 8 "c:\\program files (x86)\\cypress\\psoc creator\\4.2\\psoc creator\\import\\gnu\\arm\\5.4.
 4886              		.file 9 "./timers.h"
 4887              		.file 10 "./Application.h"
 4888              		.file 11 "Generated_Source\\PSoC4/USBUART_cdc.h"
 4889              		.file 12 "Generated_Source\\PSoC4/USBUART.h"
 4890              		.file 13 "c:\\program files (x86)\\cypress\\psoc creator\\4.2\\psoc creator\\import\\gnu\\arm\\5.4
 4891              		.file 14 "c:\\program files (x86)\\cypress\\psoc creator\\4.2\\psoc creator\\import\\gnu\\arm\\5.4
 4892              		.file 15 "./Codec.h"
 4893              		.file 16 "./cc85xx.h"
 4894              		.file 17 "c:\\program files (x86)\\cypress\\psoc creator\\4.2\\psoc creator\\import\\gnu\\arm\\5.4
 4895              		.file 18 "Generated_Source\\PSoC4/CyLib.h"
 4896              		.file 19 "./AudioManager.h"
 4897              		.section	.debug_info,"",%progbits
 4898              	.Ldebug_info0:
 4899 0000 68280000 		.4byte	0x2868
 4900 0004 0400     		.2byte	0x4
 4901 0006 00000000 		.4byte	.Ldebug_abbrev0
 4902 000a 04       		.byte	0x4
 4903 000b 01       		.uleb128 0x1
 4904 000c 53020000 		.4byte	.LASF139
 4905 0010 0C       		.byte	0xc
 4906 0011 1E020000 		.4byte	.LASF140
 4907 0015 E1020000 		.4byte	.LASF141
 4908 0019 00000000 		.4byte	.Ldebug_ranges0+0
 4909 001d 00000000 		.4byte	0
 4910 0021 00000000 		.4byte	.Ldebug_line0
 4911 0025 02       		.uleb128 0x2
 4912 0026 04       		.byte	0x4
 4913 0027 05       		.byte	0x5
 4914 0028 696E7400 		.ascii	"int\000"
 4915 002c 03       		.uleb128 0x3
 4916 002d 04       		.byte	0x4
 4917 002e 07       		.byte	0x7
 4918 002f A6000000 		.4byte	.LASF0
 4919 0033 03       		.uleb128 0x3
 4920 0034 08       		.byte	0x8
 4921 0035 05       		.byte	0x5
 4922 0036 4E040000 		.4byte	.LASF1
 4923 003a 03       		.uleb128 0x3
 4924 003b 08       		.byte	0x8
 4925 003c 04       		.byte	0x4
 4926 003d FD040000 		.4byte	.LASF2
ARM GAS  C:\Users\TERENC~1\AppData\Local\Temp\cc9BPywF.s 			page 112


 4927 0041 03       		.uleb128 0x3
 4928 0042 01       		.byte	0x1
 4929 0043 06       		.byte	0x6
 4930 0044 BF070000 		.4byte	.LASF3
 4931 0048 04       		.uleb128 0x4
 4932 0049 DB050000 		.4byte	.LASF6
 4933 004d 02       		.byte	0x2
 4934 004e 1D       		.byte	0x1d
 4935 004f 53000000 		.4byte	0x53
 4936 0053 03       		.uleb128 0x3
 4937 0054 01       		.byte	0x1
 4938 0055 08       		.byte	0x8
 4939 0056 D0060000 		.4byte	.LASF4
 4940 005a 03       		.uleb128 0x3
 4941 005b 02       		.byte	0x2
 4942 005c 05       		.byte	0x5
 4943 005d 6A050000 		.4byte	.LASF5
 4944 0061 04       		.uleb128 0x4
 4945 0062 E9010000 		.4byte	.LASF7
 4946 0066 02       		.byte	0x2
 4947 0067 2B       		.byte	0x2b
 4948 0068 6C000000 		.4byte	0x6c
 4949 006c 03       		.uleb128 0x3
 4950 006d 02       		.byte	0x2
 4951 006e 07       		.byte	0x7
 4952 006f E1070000 		.4byte	.LASF8
 4953 0073 03       		.uleb128 0x3
 4954 0074 04       		.byte	0x4
 4955 0075 05       		.byte	0x5
 4956 0076 88050000 		.4byte	.LASF9
 4957 007a 04       		.uleb128 0x4
 4958 007b F6060000 		.4byte	.LASF10
 4959 007f 02       		.byte	0x2
 4960 0080 41       		.byte	0x41
 4961 0081 85000000 		.4byte	0x85
 4962 0085 03       		.uleb128 0x3
 4963 0086 04       		.byte	0x4
 4964 0087 07       		.byte	0x7
 4965 0088 28060000 		.4byte	.LASF11
 4966 008c 03       		.uleb128 0x3
 4967 008d 08       		.byte	0x8
 4968 008e 07       		.byte	0x7
 4969 008f C1010000 		.4byte	.LASF12
 4970 0093 03       		.uleb128 0x3
 4971 0094 04       		.byte	0x4
 4972 0095 07       		.byte	0x7
 4973 0096 17060000 		.4byte	.LASF13
 4974 009a 05       		.uleb128 0x5
 4975 009b 04       		.byte	0x4
 4976 009c A0000000 		.4byte	0xa0
 4977 00a0 03       		.uleb128 0x3
 4978 00a1 01       		.byte	0x1
 4979 00a2 08       		.byte	0x8
 4980 00a3 EA030000 		.4byte	.LASF14
 4981 00a7 05       		.uleb128 0x5
 4982 00a8 04       		.byte	0x4
 4983 00a9 AD000000 		.4byte	0xad
ARM GAS  C:\Users\TERENC~1\AppData\Local\Temp\cc9BPywF.s 			page 113


 4984 00ad 06       		.uleb128 0x6
 4985 00ae 05       		.uleb128 0x5
 4986 00af 04       		.byte	0x4
 4987 00b0 B4000000 		.4byte	0xb4
 4988 00b4 07       		.uleb128 0x7
 4989 00b5 A0000000 		.4byte	0xa0
 4990 00b9 04       		.uleb128 0x4
 4991 00ba 2D040000 		.4byte	.LASF15
 4992 00be 03       		.byte	0x3
 4993 00bf 18       		.byte	0x18
 4994 00c0 48000000 		.4byte	0x48
 4995 00c4 04       		.uleb128 0x4
 4996 00c5 11050000 		.4byte	.LASF16
 4997 00c9 03       		.byte	0x3
 4998 00ca 24       		.byte	0x24
 4999 00cb 61000000 		.4byte	0x61
 5000 00cf 04       		.uleb128 0x4
 5001 00d0 A0010000 		.4byte	.LASF17
 5002 00d4 03       		.byte	0x3
 5003 00d5 30       		.byte	0x30
 5004 00d6 7A000000 		.4byte	0x7a
 5005 00da 08       		.uleb128 0x8
 5006 00db 0F080000 		.4byte	.LASF18
 5007 00df 04       		.byte	0x4
 5008 00e0 E401     		.2byte	0x1e4
 5009 00e2 53000000 		.4byte	0x53
 5010 00e6 08       		.uleb128 0x8
 5011 00e7 13040000 		.4byte	.LASF19
 5012 00eb 04       		.byte	0x4
 5013 00ec E501     		.2byte	0x1e5
 5014 00ee 6C000000 		.4byte	0x6c
 5015 00f2 08       		.uleb128 0x8
 5016 00f3 C9040000 		.4byte	.LASF20
 5017 00f7 04       		.byte	0x4
 5018 00f8 E601     		.2byte	0x1e6
 5019 00fa 85000000 		.4byte	0x85
 5020 00fe 08       		.uleb128 0x8
 5021 00ff D1000000 		.4byte	.LASF21
 5022 0103 04       		.byte	0x4
 5023 0104 E801     		.2byte	0x1e8
 5024 0106 5A000000 		.4byte	0x5a
 5025 010a 03       		.uleb128 0x3
 5026 010b 04       		.byte	0x4
 5027 010c 04       		.byte	0x4
 5028 010d B5010000 		.4byte	.LASF22
 5029 0111 03       		.uleb128 0x3
 5030 0112 08       		.byte	0x8
 5031 0113 04       		.byte	0x4
 5032 0114 15080000 		.4byte	.LASF23
 5033 0118 08       		.uleb128 0x8
 5034 0119 1A050000 		.4byte	.LASF24
 5035 011d 04       		.byte	0x4
 5036 011e 9002     		.2byte	0x290
 5037 0120 24010000 		.4byte	0x124
 5038 0124 09       		.uleb128 0x9
 5039 0125 F2000000 		.4byte	0xf2
 5040 0129 0A       		.uleb128 0xa
ARM GAS  C:\Users\TERENC~1\AppData\Local\Temp\cc9BPywF.s 			page 114


 5041 012a 01       		.byte	0x1
 5042 012b 53000000 		.4byte	0x53
 5043 012f 06       		.byte	0x6
 5044 0130 14       		.byte	0x14
 5045 0131 48010000 		.4byte	0x148
 5046 0135 0B       		.uleb128 0xb
 5047 0136 63000000 		.4byte	.LASF25
 5048 013a 00       		.byte	0
 5049 013b 0B       		.uleb128 0xb
 5050 013c 6E080000 		.4byte	.LASF26
 5051 0140 01       		.byte	0x1
 5052 0141 0B       		.uleb128 0xb
 5053 0142 EC000000 		.4byte	.LASF27
 5054 0146 02       		.byte	0x2
 5055 0147 00       		.byte	0
 5056 0148 0C       		.uleb128 0xc
 5057 0149 14       		.byte	0x14
 5058 014a 05       		.byte	0x5
 5059 014b 12       		.byte	0x12
 5060 014c 99010000 		.4byte	0x199
 5061 0150 0D       		.uleb128 0xd
 5062 0151 14020000 		.4byte	.LASF28
 5063 0155 05       		.byte	0x5
 5064 0156 14       		.byte	0x14
 5065 0157 F2000000 		.4byte	0xf2
 5066 015b 00       		.byte	0
 5067 015c 0D       		.uleb128 0xd
 5068 015d 28030000 		.4byte	.LASF29
 5069 0161 05       		.byte	0x5
 5070 0162 15       		.byte	0x15
 5071 0163 F2000000 		.4byte	0xf2
 5072 0167 04       		.byte	0x4
 5073 0168 0D       		.uleb128 0xd
 5074 0169 A6050000 		.4byte	.LASF30
 5075 016d 05       		.byte	0x5
 5076 016e 16       		.byte	0x16
 5077 016f 99010000 		.4byte	0x199
 5078 0173 08       		.byte	0x8
 5079 0174 0D       		.uleb128 0xd
 5080 0175 78010000 		.4byte	.LASF31
 5081 0179 05       		.byte	0x5
 5082 017a 17       		.byte	0x17
 5083 017b 99010000 		.4byte	0x199
 5084 017f 0C       		.byte	0xc
 5085 0180 0D       		.uleb128 0xd
 5086 0181 B3000000 		.4byte	.LASF32
 5087 0185 05       		.byte	0x5
 5088 0186 19       		.byte	0x19
 5089 0187 DA000000 		.4byte	0xda
 5090 018b 10       		.byte	0x10
 5091 018c 0D       		.uleb128 0xd
 5092 018d 36000000 		.4byte	.LASF33
 5093 0191 05       		.byte	0x5
 5094 0192 1A       		.byte	0x1a
 5095 0193 DA000000 		.4byte	0xda
 5096 0197 11       		.byte	0x11
 5097 0198 00       		.byte	0
ARM GAS  C:\Users\TERENC~1\AppData\Local\Temp\cc9BPywF.s 			page 115


 5098 0199 0E       		.uleb128 0xe
 5099 019a FE000000 		.4byte	0xfe
 5100 019e A9010000 		.4byte	0x1a9
 5101 01a2 0F       		.uleb128 0xf
 5102 01a3 93000000 		.4byte	0x93
 5103 01a7 01       		.byte	0x1
 5104 01a8 00       		.byte	0
 5105 01a9 04       		.uleb128 0x4
 5106 01aa 2F080000 		.4byte	.LASF34
 5107 01ae 05       		.byte	0x5
 5108 01af 1B       		.byte	0x1b
 5109 01b0 48010000 		.4byte	0x148
 5110 01b4 0A       		.uleb128 0xa
 5111 01b5 01       		.byte	0x1
 5112 01b6 53000000 		.4byte	0x53
 5113 01ba 07       		.byte	0x7
 5114 01bb 12       		.byte	0x12
 5115 01bc D9010000 		.4byte	0x1d9
 5116 01c0 0B       		.uleb128 0xb
 5117 01c1 1D030000 		.4byte	.LASF35
 5118 01c5 00       		.byte	0
 5119 01c6 0B       		.uleb128 0xb
 5120 01c7 6E070000 		.4byte	.LASF36
 5121 01cb 01       		.byte	0x1
 5122 01cc 0B       		.uleb128 0xb
 5123 01cd A9010000 		.4byte	.LASF37
 5124 01d1 02       		.byte	0x2
 5125 01d2 0B       		.uleb128 0xb
 5126 01d3 C6000000 		.4byte	.LASF38
 5127 01d7 03       		.byte	0x3
 5128 01d8 00       		.byte	0
 5129 01d9 04       		.uleb128 0x4
 5130 01da 6F010000 		.4byte	.LASF39
 5131 01de 07       		.byte	0x7
 5132 01df 17       		.byte	0x17
 5133 01e0 B4010000 		.4byte	0x1b4
 5134 01e4 0C       		.uleb128 0xc
 5135 01e5 0C       		.byte	0xc
 5136 01e6 01       		.byte	0x1
 5137 01e7 24       		.byte	0x24
 5138 01e8 11020000 		.4byte	0x211
 5139 01ec 0D       		.uleb128 0xd
 5140 01ed FD050000 		.4byte	.LASF40
 5141 01f1 01       		.byte	0x1
 5142 01f2 26       		.byte	0x26
 5143 01f3 AE000000 		.4byte	0xae
 5144 01f7 00       		.byte	0
 5145 01f8 0D       		.uleb128 0xd
 5146 01f9 4A010000 		.4byte	.LASF41
 5147 01fd 01       		.byte	0x1
 5148 01fe 27       		.byte	0x27
 5149 01ff 2B020000 		.4byte	0x22b
 5150 0203 04       		.byte	0x4
 5151 0204 0D       		.uleb128 0xd
 5152 0205 1C080000 		.4byte	.LASF42
 5153 0209 01       		.byte	0x1
 5154 020a 28       		.byte	0x28
ARM GAS  C:\Users\TERENC~1\AppData\Local\Temp\cc9BPywF.s 			page 116


 5155 020b AE000000 		.4byte	0xae
 5156 020f 08       		.byte	0x8
 5157 0210 00       		.byte	0
 5158 0211 10       		.uleb128 0x10
 5159 0212 25000000 		.4byte	0x25
 5160 0216 25020000 		.4byte	0x225
 5161 021a 11       		.uleb128 0x11
 5162 021b 25000000 		.4byte	0x25
 5163 021f 11       		.uleb128 0x11
 5164 0220 25020000 		.4byte	0x225
 5165 0224 00       		.byte	0
 5166 0225 05       		.uleb128 0x5
 5167 0226 04       		.byte	0x4
 5168 0227 9A000000 		.4byte	0x9a
 5169 022b 05       		.uleb128 0x5
 5170 022c 04       		.byte	0x4
 5171 022d 11020000 		.4byte	0x211
 5172 0231 04       		.uleb128 0x4
 5173 0232 DE060000 		.4byte	.LASF43
 5174 0236 01       		.byte	0x1
 5175 0237 29       		.byte	0x29
 5176 0238 E4010000 		.4byte	0x1e4
 5177 023c 0C       		.uleb128 0xc
 5178 023d 0C       		.byte	0xc
 5179 023e 01       		.byte	0x1
 5180 023f 2B       		.byte	0x2b
 5181 0240 69020000 		.4byte	0x269
 5182 0244 0D       		.uleb128 0xd
 5183 0245 FD050000 		.4byte	.LASF40
 5184 0249 01       		.byte	0x1
 5185 024a 2D       		.byte	0x2d
 5186 024b AE000000 		.4byte	0xae
 5187 024f 00       		.byte	0
 5188 0250 0D       		.uleb128 0xd
 5189 0251 E5050000 		.4byte	.LASF44
 5190 0255 01       		.byte	0x1
 5191 0256 2E       		.byte	0x2e
 5192 0257 69020000 		.4byte	0x269
 5193 025b 04       		.byte	0x4
 5194 025c 0D       		.uleb128 0xd
 5195 025d 1C080000 		.4byte	.LASF42
 5196 0261 01       		.byte	0x1
 5197 0262 2F       		.byte	0x2f
 5198 0263 AE000000 		.4byte	0xae
 5199 0267 08       		.byte	0x8
 5200 0268 00       		.byte	0
 5201 0269 05       		.uleb128 0x5
 5202 026a 04       		.byte	0x4
 5203 026b 31020000 		.4byte	0x231
 5204 026f 04       		.uleb128 0x4
 5205 0270 57050000 		.4byte	.LASF45
 5206 0274 01       		.byte	0x1
 5207 0275 30       		.byte	0x30
 5208 0276 3C020000 		.4byte	0x23c
 5209 027a 12       		.uleb128 0x12
 5210 027b 68060000 		.4byte	.LASF48
 5211 027f 01       		.byte	0x1
ARM GAS  C:\Users\TERENC~1\AppData\Local\Temp\cc9BPywF.s 			page 117


 5212 0280 AF01     		.2byte	0x1af
 5213 0282 25000000 		.4byte	0x25
 5214 0286 00000000 		.4byte	.LFB19
 5215 028a 4C000000 		.4byte	.LFE19-.LFB19
 5216 028e 01       		.uleb128 0x1
 5217 028f 9C       		.byte	0x9c
 5218 0290 29030000 		.4byte	0x329
 5219 0294 13       		.uleb128 0x13
 5220 0295 D0040000 		.4byte	.LASF46
 5221 0299 01       		.byte	0x1
 5222 029a AF01     		.2byte	0x1af
 5223 029c 25000000 		.4byte	0x25
 5224 02a0 00000000 		.4byte	.LLST0
 5225 02a4 13       		.uleb128 0x13
 5226 02a5 F8040000 		.4byte	.LASF47
 5227 02a9 01       		.byte	0x1
 5228 02aa AF01     		.2byte	0x1af
 5229 02ac 25020000 		.4byte	0x225
 5230 02b0 21000000 		.4byte	.LLST1
 5231 02b4 14       		.uleb128 0x14
 5232 02b5 667000   		.ascii	"fp\000"
 5233 02b8 01       		.byte	0x1
 5234 02b9 B101     		.2byte	0x1b1
 5235 02bb A7000000 		.4byte	0xa7
 5236 02bf 00       		.byte	0
 5237 02c0 15       		.uleb128 0x15
 5238 02c1 0E000000 		.4byte	.LBB2
 5239 02c5 2A000000 		.4byte	.LBE2-.LBB2
 5240 02c9 18030000 		.4byte	0x318
 5241 02cd 16       		.uleb128 0x16
 5242 02ce 733100   		.ascii	"s1\000"
 5243 02d1 01       		.byte	0x1
 5244 02d2 B501     		.2byte	0x1b5
 5245 02d4 CF000000 		.4byte	0xcf
 5246 02d8 42000000 		.4byte	.LLST2
 5247 02dc 17       		.uleb128 0x17
 5248 02dd 16000000 		.4byte	.LVL5
 5249 02e1 2F270000 		.4byte	0x272f
 5250 02e5 18       		.uleb128 0x18
 5251 02e6 32000000 		.4byte	.LVL7
 5252 02ea 3A270000 		.4byte	0x273a
 5253 02ee 07030000 		.4byte	0x307
 5254 02f2 19       		.uleb128 0x19
 5255 02f3 01       		.uleb128 0x1
 5256 02f4 50       		.byte	0x50
 5257 02f5 02       		.uleb128 0x2
 5258 02f6 74       		.byte	0x74
 5259 02f7 00       		.sleb128 0
 5260 02f8 19       		.uleb128 0x19
 5261 02f9 01       		.uleb128 0x1
 5262 02fa 51       		.byte	0x51
 5263 02fb 05       		.uleb128 0x5
 5264 02fc 03       		.byte	0x3
 5265 02fd 00000000 		.4byte	.LC2
 5266 0301 19       		.uleb128 0x19
 5267 0302 01       		.uleb128 0x1
 5268 0303 52       		.byte	0x52
ARM GAS  C:\Users\TERENC~1\AppData\Local\Temp\cc9BPywF.s 			page 118


 5269 0304 01       		.uleb128 0x1
 5270 0305 3A       		.byte	0x3a
 5271 0306 00       		.byte	0
 5272 0307 1A       		.uleb128 0x1a
 5273 0308 38000000 		.4byte	.LVL8
 5274 030c 43270000 		.4byte	0x2743
 5275 0310 19       		.uleb128 0x19
 5276 0311 01       		.uleb128 0x1
 5277 0312 50       		.byte	0x50
 5278 0313 02       		.uleb128 0x2
 5279 0314 74       		.byte	0x74
 5280 0315 00       		.sleb128 0
 5281 0316 00       		.byte	0
 5282 0317 00       		.byte	0
 5283 0318 1B       		.uleb128 0x1b
 5284 0319 06000000 		.4byte	.LVL2
 5285 031d 01       		.uleb128 0x1
 5286 031e 30       		.byte	0x30
 5287 031f 17       		.uleb128 0x17
 5288 0320 0A000000 		.4byte	.LVL3
 5289 0324 4E270000 		.4byte	0x274e
 5290 0328 00       		.byte	0
 5291 0329 1C       		.uleb128 0x1c
 5292 032a 68030000 		.4byte	.LASF49
 5293 032e 01       		.byte	0x1
 5294 032f DB       		.byte	0xdb
 5295 0330 25000000 		.4byte	0x25
 5296 0334 00000000 		.4byte	.LFB4
 5297 0338 8C000000 		.4byte	.LFE4-.LFB4
 5298 033c 01       		.uleb128 0x1
 5299 033d 9C       		.byte	0x9c
 5300 033e 16040000 		.4byte	0x416
 5301 0342 1D       		.uleb128 0x1d
 5302 0343 D0040000 		.4byte	.LASF46
 5303 0347 01       		.byte	0x1
 5304 0348 DB       		.byte	0xdb
 5305 0349 25000000 		.4byte	0x25
 5306 034d 55000000 		.4byte	.LLST3
 5307 0351 1D       		.uleb128 0x1d
 5308 0352 F8040000 		.4byte	.LASF47
 5309 0356 01       		.byte	0x1
 5310 0357 DB       		.byte	0xdb
 5311 0358 25020000 		.4byte	0x225
 5312 035c A2000000 		.4byte	.LLST4
 5313 0360 1E       		.uleb128 0x1e
 5314 0361 7D060000 		.4byte	.LASF50
 5315 0365 01       		.byte	0x1
 5316 0366 DD       		.byte	0xdd
 5317 0367 CF000000 		.4byte	0xcf
 5318 036b F2000000 		.4byte	.LLST5
 5319 036f 1F       		.uleb128 0x1f
 5320 0370 70696E00 		.ascii	"pin\000"
 5321 0374 01       		.byte	0x1
 5322 0375 DD       		.byte	0xdd
 5323 0376 CF000000 		.4byte	0xcf
 5324 037a 10010000 		.4byte	.LLST6
 5325 037e 1E       		.uleb128 0x1e
ARM GAS  C:\Users\TERENC~1\AppData\Local\Temp\cc9BPywF.s 			page 119


 5326 037f 4F010000 		.4byte	.LASF51
 5327 0383 01       		.byte	0x1
 5328 0384 DD       		.byte	0xdd
 5329 0385 CF000000 		.4byte	0xcf
 5330 0389 2E010000 		.4byte	.LLST7
 5331 038d 1F       		.uleb128 0x1f
 5332 038e 6900     		.ascii	"i\000"
 5333 0390 01       		.byte	0x1
 5334 0391 DE       		.byte	0xde
 5335 0392 25000000 		.4byte	0x25
 5336 0396 41010000 		.4byte	.LLST8
 5337 039a 15       		.uleb128 0x15
 5338 039b 10000000 		.4byte	.LBB3
 5339 039f 2A000000 		.4byte	.LBE3-.LBB3
 5340 03a3 F1030000 		.4byte	0x3f1
 5341 03a7 1F       		.uleb128 0x1f
 5342 03a8 733100   		.ascii	"s1\000"
 5343 03ab 01       		.byte	0x1
 5344 03ac E4       		.byte	0xe4
 5345 03ad CF000000 		.4byte	0xcf
 5346 03b1 79010000 		.4byte	.LLST9
 5347 03b5 17       		.uleb128 0x17
 5348 03b6 18000000 		.4byte	.LVL13
 5349 03ba 2F270000 		.4byte	0x272f
 5350 03be 18       		.uleb128 0x18
 5351 03bf 34000000 		.4byte	.LVL15
 5352 03c3 3A270000 		.4byte	0x273a
 5353 03c7 E0030000 		.4byte	0x3e0
 5354 03cb 19       		.uleb128 0x19
 5355 03cc 01       		.uleb128 0x1
 5356 03cd 50       		.byte	0x50
 5357 03ce 02       		.uleb128 0x2
 5358 03cf 74       		.byte	0x74
 5359 03d0 00       		.sleb128 0
 5360 03d1 19       		.uleb128 0x19
 5361 03d2 01       		.uleb128 0x1
 5362 03d3 51       		.byte	0x51
 5363 03d4 05       		.uleb128 0x5
 5364 03d5 03       		.byte	0x3
 5365 03d6 0C000000 		.4byte	.LC6
 5366 03da 19       		.uleb128 0x19
 5367 03db 01       		.uleb128 0x1
 5368 03dc 52       		.byte	0x52
 5369 03dd 01       		.uleb128 0x1
 5370 03de 4E       		.byte	0x4e
 5371 03df 00       		.byte	0
 5372 03e0 1A       		.uleb128 0x1a
 5373 03e1 3A000000 		.4byte	.LVL16
 5374 03e5 43270000 		.4byte	0x2743
 5375 03e9 19       		.uleb128 0x19
 5376 03ea 01       		.uleb128 0x1
 5377 03eb 50       		.byte	0x50
 5378 03ec 02       		.uleb128 0x2
 5379 03ed 74       		.byte	0x74
 5380 03ee 00       		.sleb128 0
 5381 03ef 00       		.byte	0
 5382 03f0 00       		.byte	0
ARM GAS  C:\Users\TERENC~1\AppData\Local\Temp\cc9BPywF.s 			page 120


 5383 03f1 17       		.uleb128 0x17
 5384 03f2 0C000000 		.4byte	.LVL11
 5385 03f6 4E270000 		.4byte	0x274e
 5386 03fa 17       		.uleb128 0x17
 5387 03fb 46000000 		.4byte	.LVL19
 5388 03ff 5A270000 		.4byte	0x275a
 5389 0403 17       		.uleb128 0x17
 5390 0404 4E000000 		.4byte	.LVL22
 5391 0408 5A270000 		.4byte	0x275a
 5392 040c 17       		.uleb128 0x17
 5393 040d 56000000 		.4byte	.LVL25
 5394 0411 5A270000 		.4byte	0x275a
 5395 0415 00       		.byte	0
 5396 0416 1C       		.uleb128 0x1c
 5397 0417 25050000 		.4byte	.LASF52
 5398 041b 01       		.byte	0x1
 5399 041c BB       		.byte	0xbb
 5400 041d 25000000 		.4byte	0x25
 5401 0421 00000000 		.4byte	.LFB3
 5402 0425 EC000000 		.4byte	.LFE3-.LFB3
 5403 0429 01       		.uleb128 0x1
 5404 042a 9C       		.byte	0x9c
 5405 042b 5E050000 		.4byte	0x55e
 5406 042f 1D       		.uleb128 0x1d
 5407 0430 D0040000 		.4byte	.LASF46
 5408 0434 01       		.byte	0x1
 5409 0435 BB       		.byte	0xbb
 5410 0436 25000000 		.4byte	0x25
 5411 043a 8C010000 		.4byte	.LLST10
 5412 043e 1D       		.uleb128 0x1d
 5413 043f F8040000 		.4byte	.LASF47
 5414 0443 01       		.byte	0x1
 5415 0444 BB       		.byte	0xbb
 5416 0445 25020000 		.4byte	0x225
 5417 0449 D9010000 		.4byte	.LLST11
 5418 044d 1E       		.uleb128 0x1e
 5419 044e 7D060000 		.4byte	.LASF50
 5420 0452 01       		.byte	0x1
 5421 0453 BD       		.byte	0xbd
 5422 0454 CF000000 		.4byte	0xcf
 5423 0458 42020000 		.4byte	.LLST12
 5424 045c 1F       		.uleb128 0x1f
 5425 045d 70696E00 		.ascii	"pin\000"
 5426 0461 01       		.byte	0x1
 5427 0462 BD       		.byte	0xbd
 5428 0463 CF000000 		.4byte	0xcf
 5429 0467 60020000 		.4byte	.LLST13
 5430 046b 1E       		.uleb128 0x1e
 5431 046c 3E070000 		.4byte	.LASF53
 5432 0470 01       		.byte	0x1
 5433 0471 BD       		.byte	0xbd
 5434 0472 CF000000 		.4byte	0xcf
 5435 0476 89020000 		.4byte	.LLST14
 5436 047a 1F       		.uleb128 0x1f
 5437 047b 6900     		.ascii	"i\000"
 5438 047d 01       		.byte	0x1
 5439 047e BE       		.byte	0xbe
ARM GAS  C:\Users\TERENC~1\AppData\Local\Temp\cc9BPywF.s 			page 121


 5440 047f 25000000 		.4byte	0x25
 5441 0483 9C020000 		.4byte	.LLST15
 5442 0487 15       		.uleb128 0x15
 5443 0488 10000000 		.4byte	.LBB4
 5444 048c 2A000000 		.4byte	.LBE4-.LBB4
 5445 0490 DE040000 		.4byte	0x4de
 5446 0494 1F       		.uleb128 0x1f
 5447 0495 733100   		.ascii	"s1\000"
 5448 0498 01       		.byte	0x1
 5449 0499 C4       		.byte	0xc4
 5450 049a CF000000 		.4byte	0xcf
 5451 049e E0020000 		.4byte	.LLST16
 5452 04a2 17       		.uleb128 0x17
 5453 04a3 18000000 		.4byte	.LVL35
 5454 04a7 2F270000 		.4byte	0x272f
 5455 04ab 18       		.uleb128 0x18
 5456 04ac 34000000 		.4byte	.LVL37
 5457 04b0 3A270000 		.4byte	0x273a
 5458 04b4 CD040000 		.4byte	0x4cd
 5459 04b8 19       		.uleb128 0x19
 5460 04b9 01       		.uleb128 0x1
 5461 04ba 50       		.byte	0x50
 5462 04bb 02       		.uleb128 0x2
 5463 04bc 74       		.byte	0x74
 5464 04bd 00       		.sleb128 0
 5465 04be 19       		.uleb128 0x19
 5466 04bf 01       		.uleb128 0x1
 5467 04c0 51       		.byte	0x51
 5468 04c1 05       		.uleb128 0x5
 5469 04c2 03       		.byte	0x3
 5470 04c3 0C000000 		.4byte	.LC6
 5471 04c7 19       		.uleb128 0x19
 5472 04c8 01       		.uleb128 0x1
 5473 04c9 52       		.byte	0x52
 5474 04ca 01       		.uleb128 0x1
 5475 04cb 4E       		.byte	0x4e
 5476 04cc 00       		.byte	0
 5477 04cd 1A       		.uleb128 0x1a
 5478 04ce 3A000000 		.4byte	.LVL38
 5479 04d2 43270000 		.4byte	0x2743
 5480 04d6 19       		.uleb128 0x19
 5481 04d7 01       		.uleb128 0x1
 5482 04d8 50       		.byte	0x50
 5483 04d9 02       		.uleb128 0x2
 5484 04da 74       		.byte	0x74
 5485 04db 00       		.sleb128 0
 5486 04dc 00       		.byte	0
 5487 04dd 00       		.byte	0
 5488 04de 15       		.uleb128 0x15
 5489 04df 94000000 		.4byte	.LBB5
 5490 04e3 30000000 		.4byte	.LBE5-.LBB5
 5491 04e7 30050000 		.4byte	0x530
 5492 04eb 1F       		.uleb128 0x1f
 5493 04ec 733100   		.ascii	"s1\000"
 5494 04ef 01       		.byte	0x1
 5495 04f0 D7       		.byte	0xd7
 5496 04f1 CF000000 		.4byte	0xcf
ARM GAS  C:\Users\TERENC~1\AppData\Local\Temp\cc9BPywF.s 			page 122


 5497 04f5 F3020000 		.4byte	.LLST17
 5498 04f9 17       		.uleb128 0x17
 5499 04fa 9C000000 		.4byte	.LVL51
 5500 04fe 2F270000 		.4byte	0x272f
 5501 0502 18       		.uleb128 0x18
 5502 0503 BE000000 		.4byte	.LVL53
 5503 0507 65270000 		.4byte	0x2765
 5504 050b 1F050000 		.4byte	0x51f
 5505 050f 19       		.uleb128 0x19
 5506 0510 01       		.uleb128 0x1
 5507 0511 50       		.byte	0x50
 5508 0512 02       		.uleb128 0x2
 5509 0513 74       		.byte	0x74
 5510 0514 00       		.sleb128 0
 5511 0515 19       		.uleb128 0x19
 5512 0516 01       		.uleb128 0x1
 5513 0517 51       		.byte	0x51
 5514 0518 05       		.uleb128 0x5
 5515 0519 03       		.byte	0x3
 5516 051a 2C000000 		.4byte	.LC13
 5517 051e 00       		.byte	0
 5518 051f 1A       		.uleb128 0x1a
 5519 0520 C4000000 		.4byte	.LVL54
 5520 0524 43270000 		.4byte	0x2743
 5521 0528 19       		.uleb128 0x19
 5522 0529 01       		.uleb128 0x1
 5523 052a 50       		.byte	0x50
 5524 052b 02       		.uleb128 0x2
 5525 052c 74       		.byte	0x74
 5526 052d 00       		.sleb128 0
 5527 052e 00       		.byte	0
 5528 052f 00       		.byte	0
 5529 0530 17       		.uleb128 0x17
 5530 0531 0C000000 		.4byte	.LVL33
 5531 0535 4E270000 		.4byte	0x274e
 5532 0539 17       		.uleb128 0x17
 5533 053a 46000000 		.4byte	.LVL41
 5534 053e 5A270000 		.4byte	0x275a
 5535 0542 17       		.uleb128 0x17
 5536 0543 4E000000 		.4byte	.LVL44
 5537 0547 5A270000 		.4byte	0x275a
 5538 054b 17       		.uleb128 0x17
 5539 054c 56000000 		.4byte	.LVL47
 5540 0550 5A270000 		.4byte	0x275a
 5541 0554 17       		.uleb128 0x17
 5542 0555 90000000 		.4byte	.LVL49
 5543 0559 4E270000 		.4byte	0x274e
 5544 055d 00       		.byte	0
 5545 055e 1C       		.uleb128 0x1c
 5546 055f 7B070000 		.4byte	.LASF54
 5547 0563 01       		.byte	0x1
 5548 0564 F1       		.byte	0xf1
 5549 0565 25000000 		.4byte	0x25
 5550 0569 00000000 		.4byte	.LFB5
 5551 056d B4000000 		.4byte	.LFE5-.LFB5
 5552 0571 01       		.uleb128 0x1
 5553 0572 9C       		.byte	0x9c
ARM GAS  C:\Users\TERENC~1\AppData\Local\Temp\cc9BPywF.s 			page 123


 5554 0573 8F060000 		.4byte	0x68f
 5555 0577 1D       		.uleb128 0x1d
 5556 0578 D0040000 		.4byte	.LASF46
 5557 057c 01       		.byte	0x1
 5558 057d F1       		.byte	0xf1
 5559 057e 25000000 		.4byte	0x25
 5560 0582 06030000 		.4byte	.LLST18
 5561 0586 1D       		.uleb128 0x1d
 5562 0587 F8040000 		.4byte	.LASF47
 5563 058b 01       		.byte	0x1
 5564 058c F1       		.byte	0xf1
 5565 058d 25020000 		.4byte	0x225
 5566 0591 53030000 		.4byte	.LLST19
 5567 0595 1E       		.uleb128 0x1e
 5568 0596 7D060000 		.4byte	.LASF50
 5569 059a 01       		.byte	0x1
 5570 059b F3       		.byte	0xf3
 5571 059c CF000000 		.4byte	0xcf
 5572 05a0 AE030000 		.4byte	.LLST20
 5573 05a4 1F       		.uleb128 0x1f
 5574 05a5 70696E00 		.ascii	"pin\000"
 5575 05a9 01       		.byte	0x1
 5576 05aa F3       		.byte	0xf3
 5577 05ab CF000000 		.4byte	0xcf
 5578 05af D7030000 		.4byte	.LLST21
 5579 05b3 1F       		.uleb128 0x1f
 5580 05b4 6900     		.ascii	"i\000"
 5581 05b6 01       		.byte	0x1
 5582 05b7 F4       		.byte	0xf4
 5583 05b8 25000000 		.4byte	0x25
 5584 05bc 00040000 		.4byte	.LLST22
 5585 05c0 15       		.uleb128 0x15
 5586 05c1 10000000 		.4byte	.LBB6
 5587 05c5 2A000000 		.4byte	.LBE6-.LBB6
 5588 05c9 17060000 		.4byte	0x617
 5589 05cd 1F       		.uleb128 0x1f
 5590 05ce 733100   		.ascii	"s1\000"
 5591 05d1 01       		.byte	0x1
 5592 05d2 FA       		.byte	0xfa
 5593 05d3 CF000000 		.4byte	0xcf
 5594 05d7 38040000 		.4byte	.LLST23
 5595 05db 17       		.uleb128 0x17
 5596 05dc 18000000 		.4byte	.LVL62
 5597 05e0 2F270000 		.4byte	0x272f
 5598 05e4 18       		.uleb128 0x18
 5599 05e5 34000000 		.4byte	.LVL64
 5600 05e9 3A270000 		.4byte	0x273a
 5601 05ed 06060000 		.4byte	0x606
 5602 05f1 19       		.uleb128 0x19
 5603 05f2 01       		.uleb128 0x1
 5604 05f3 50       		.byte	0x50
 5605 05f4 02       		.uleb128 0x2
 5606 05f5 74       		.byte	0x74
 5607 05f6 00       		.sleb128 0
 5608 05f7 19       		.uleb128 0x19
 5609 05f8 01       		.uleb128 0x1
 5610 05f9 51       		.byte	0x51
ARM GAS  C:\Users\TERENC~1\AppData\Local\Temp\cc9BPywF.s 			page 124


 5611 05fa 05       		.uleb128 0x5
 5612 05fb 03       		.byte	0x3
 5613 05fc 0C000000 		.4byte	.LC6
 5614 0600 19       		.uleb128 0x19
 5615 0601 01       		.uleb128 0x1
 5616 0602 52       		.byte	0x52
 5617 0603 01       		.uleb128 0x1
 5618 0604 4E       		.byte	0x4e
 5619 0605 00       		.byte	0
 5620 0606 1A       		.uleb128 0x1a
 5621 0607 3A000000 		.4byte	.LVL65
 5622 060b 43270000 		.4byte	0x2743
 5623 060f 19       		.uleb128 0x19
 5624 0610 01       		.uleb128 0x1
 5625 0611 50       		.byte	0x50
 5626 0612 02       		.uleb128 0x2
 5627 0613 74       		.byte	0x74
 5628 0614 00       		.sleb128 0
 5629 0615 00       		.byte	0
 5630 0616 00       		.byte	0
 5631 0617 15       		.uleb128 0x15
 5632 0618 58000000 		.4byte	.LBB7
 5633 061c 36000000 		.4byte	.LBE7-.LBB7
 5634 0620 6A060000 		.4byte	0x66a
 5635 0624 16       		.uleb128 0x16
 5636 0625 733100   		.ascii	"s1\000"
 5637 0628 01       		.byte	0x1
 5638 0629 0101     		.2byte	0x101
 5639 062b CF000000 		.4byte	0xcf
 5640 062f 4B040000 		.4byte	.LLST24
 5641 0633 17       		.uleb128 0x17
 5642 0634 60000000 		.4byte	.LVL75
 5643 0638 2F270000 		.4byte	0x272f
 5644 063c 18       		.uleb128 0x18
 5645 063d 88000000 		.4byte	.LVL77
 5646 0641 65270000 		.4byte	0x2765
 5647 0645 59060000 		.4byte	0x659
 5648 0649 19       		.uleb128 0x19
 5649 064a 01       		.uleb128 0x1
 5650 064b 50       		.byte	0x50
 5651 064c 02       		.uleb128 0x2
 5652 064d 74       		.byte	0x74
 5653 064e 00       		.sleb128 0
 5654 064f 19       		.uleb128 0x19
 5655 0650 01       		.uleb128 0x1
 5656 0651 51       		.byte	0x51
 5657 0652 05       		.uleb128 0x5
 5658 0653 03       		.byte	0x3
 5659 0654 2C000000 		.4byte	.LC13
 5660 0658 00       		.byte	0
 5661 0659 1A       		.uleb128 0x1a
 5662 065a 8E000000 		.4byte	.LVL78
 5663 065e 43270000 		.4byte	0x2743
 5664 0662 19       		.uleb128 0x19
 5665 0663 01       		.uleb128 0x1
 5666 0664 50       		.byte	0x50
 5667 0665 02       		.uleb128 0x2
ARM GAS  C:\Users\TERENC~1\AppData\Local\Temp\cc9BPywF.s 			page 125


 5668 0666 74       		.byte	0x74
 5669 0667 00       		.sleb128 0
 5670 0668 00       		.byte	0
 5671 0669 00       		.byte	0
 5672 066a 17       		.uleb128 0x17
 5673 066b 0C000000 		.4byte	.LVL60
 5674 066f 4E270000 		.4byte	0x274e
 5675 0673 17       		.uleb128 0x17
 5676 0674 46000000 		.4byte	.LVL68
 5677 0678 5A270000 		.4byte	0x275a
 5678 067c 17       		.uleb128 0x17
 5679 067d 4E000000 		.4byte	.LVL71
 5680 0681 5A270000 		.4byte	0x275a
 5681 0685 17       		.uleb128 0x17
 5682 0686 54000000 		.4byte	.LVL73
 5683 068a 4E270000 		.4byte	0x274e
 5684 068e 00       		.byte	0
 5685 068f 12       		.uleb128 0x12
 5686 0690 85040000 		.4byte	.LASF55
 5687 0694 01       		.byte	0x1
 5688 0695 BA01     		.2byte	0x1ba
 5689 0697 25000000 		.4byte	0x25
 5690 069b 00000000 		.4byte	.LFB20
 5691 069f 4C000000 		.4byte	.LFE20-.LFB20
 5692 06a3 01       		.uleb128 0x1
 5693 06a4 9C       		.byte	0x9c
 5694 06a5 26070000 		.4byte	0x726
 5695 06a9 13       		.uleb128 0x13
 5696 06aa D0040000 		.4byte	.LASF46
 5697 06ae 01       		.byte	0x1
 5698 06af BA01     		.2byte	0x1ba
 5699 06b1 25000000 		.4byte	0x25
 5700 06b5 5E040000 		.4byte	.LLST25
 5701 06b9 13       		.uleb128 0x13
 5702 06ba F8040000 		.4byte	.LASF47
 5703 06be 01       		.byte	0x1
 5704 06bf BA01     		.2byte	0x1ba
 5705 06c1 25020000 		.4byte	0x225
 5706 06c5 7F040000 		.4byte	.LLST26
 5707 06c9 15       		.uleb128 0x15
 5708 06ca 0A000000 		.4byte	.LBB8
 5709 06ce 2C000000 		.4byte	.LBE8-.LBB8
 5710 06d2 1C070000 		.4byte	0x71c
 5711 06d6 16       		.uleb128 0x16
 5712 06d7 733100   		.ascii	"s1\000"
 5713 06da 01       		.byte	0x1
 5714 06db BC01     		.2byte	0x1bc
 5715 06dd CF000000 		.4byte	0xcf
 5716 06e1 A0040000 		.4byte	.LLST27
 5717 06e5 17       		.uleb128 0x17
 5718 06e6 12000000 		.4byte	.LVL85
 5719 06ea 2F270000 		.4byte	0x272f
 5720 06ee 18       		.uleb128 0x18
 5721 06ef 30000000 		.4byte	.LVL87
 5722 06f3 65270000 		.4byte	0x2765
 5723 06f7 0B070000 		.4byte	0x70b
 5724 06fb 19       		.uleb128 0x19
ARM GAS  C:\Users\TERENC~1\AppData\Local\Temp\cc9BPywF.s 			page 126


 5725 06fc 01       		.uleb128 0x1
 5726 06fd 50       		.byte	0x50
 5727 06fe 02       		.uleb128 0x2
 5728 06ff 74       		.byte	0x74
 5729 0700 00       		.sleb128 0
 5730 0701 19       		.uleb128 0x19
 5731 0702 01       		.uleb128 0x1
 5732 0703 51       		.byte	0x51
 5733 0704 05       		.uleb128 0x5
 5734 0705 03       		.byte	0x3
 5735 0706 3C000000 		.4byte	.LC21
 5736 070a 00       		.byte	0
 5737 070b 1A       		.uleb128 0x1a
 5738 070c 36000000 		.4byte	.LVL88
 5739 0710 43270000 		.4byte	0x2743
 5740 0714 19       		.uleb128 0x19
 5741 0715 01       		.uleb128 0x1
 5742 0716 50       		.byte	0x50
 5743 0717 02       		.uleb128 0x2
 5744 0718 74       		.byte	0x74
 5745 0719 00       		.sleb128 0
 5746 071a 00       		.byte	0
 5747 071b 00       		.byte	0
 5748 071c 17       		.uleb128 0x17
 5749 071d 06000000 		.4byte	.LVL83
 5750 0721 4E270000 		.4byte	0x274e
 5751 0725 00       		.byte	0
 5752 0726 12       		.uleb128 0x12
 5753 0727 5B070000 		.4byte	.LASF56
 5754 072b 01       		.byte	0x1
 5755 072c C801     		.2byte	0x1c8
 5756 072e 25000000 		.4byte	0x25
 5757 0732 00000000 		.4byte	.LFB22
 5758 0736 54000000 		.4byte	.LFE22-.LFB22
 5759 073a 01       		.uleb128 0x1
 5760 073b 9C       		.byte	0x9c
 5761 073c BD070000 		.4byte	0x7bd
 5762 0740 13       		.uleb128 0x13
 5763 0741 D0040000 		.4byte	.LASF46
 5764 0745 01       		.byte	0x1
 5765 0746 C801     		.2byte	0x1c8
 5766 0748 25000000 		.4byte	0x25
 5767 074c B3040000 		.4byte	.LLST28
 5768 0750 13       		.uleb128 0x13
 5769 0751 F8040000 		.4byte	.LASF47
 5770 0755 01       		.byte	0x1
 5771 0756 C801     		.2byte	0x1c8
 5772 0758 25020000 		.4byte	0x225
 5773 075c D4040000 		.4byte	.LLST29
 5774 0760 15       		.uleb128 0x15
 5775 0761 0A000000 		.4byte	.LBB9
 5776 0765 32000000 		.4byte	.LBE9-.LBB9
 5777 0769 B3070000 		.4byte	0x7b3
 5778 076d 16       		.uleb128 0x16
 5779 076e 733100   		.ascii	"s1\000"
 5780 0771 01       		.byte	0x1
 5781 0772 CA01     		.2byte	0x1ca
ARM GAS  C:\Users\TERENC~1\AppData\Local\Temp\cc9BPywF.s 			page 127


 5782 0774 CF000000 		.4byte	0xcf
 5783 0778 F5040000 		.4byte	.LLST30
 5784 077c 17       		.uleb128 0x17
 5785 077d 12000000 		.4byte	.LVL92
 5786 0781 2F270000 		.4byte	0x272f
 5787 0785 18       		.uleb128 0x18
 5788 0786 36000000 		.4byte	.LVL94
 5789 078a 65270000 		.4byte	0x2765
 5790 078e A2070000 		.4byte	0x7a2
 5791 0792 19       		.uleb128 0x19
 5792 0793 01       		.uleb128 0x1
 5793 0794 50       		.byte	0x50
 5794 0795 02       		.uleb128 0x2
 5795 0796 74       		.byte	0x74
 5796 0797 00       		.sleb128 0
 5797 0798 19       		.uleb128 0x19
 5798 0799 01       		.uleb128 0x1
 5799 079a 51       		.byte	0x51
 5800 079b 05       		.uleb128 0x5
 5801 079c 03       		.byte	0x3
 5802 079d 4C000000 		.4byte	.LC26
 5803 07a1 00       		.byte	0
 5804 07a2 1A       		.uleb128 0x1a
 5805 07a3 3C000000 		.4byte	.LVL95
 5806 07a7 43270000 		.4byte	0x2743
 5807 07ab 19       		.uleb128 0x19
 5808 07ac 01       		.uleb128 0x1
 5809 07ad 50       		.byte	0x50
 5810 07ae 02       		.uleb128 0x2
 5811 07af 74       		.byte	0x74
 5812 07b0 00       		.sleb128 0
 5813 07b1 00       		.byte	0
 5814 07b2 00       		.byte	0
 5815 07b3 17       		.uleb128 0x17
 5816 07b4 06000000 		.4byte	.LVL90
 5817 07b8 4E270000 		.4byte	0x274e
 5818 07bc 00       		.byte	0
 5819 07bd 12       		.uleb128 0x12
 5820 07be 8F070000 		.4byte	.LASF57
 5821 07c2 01       		.byte	0x1
 5822 07c3 1F02     		.2byte	0x21f
 5823 07c5 25000000 		.4byte	0x25
 5824 07c9 00000000 		.4byte	.LFB25
 5825 07cd 24020000 		.4byte	.LFE25-.LFB25
 5826 07d1 01       		.uleb128 0x1
 5827 07d2 9C       		.byte	0x9c
 5828 07d3 390B0000 		.4byte	0xb39
 5829 07d7 13       		.uleb128 0x13
 5830 07d8 D0040000 		.4byte	.LASF46
 5831 07dc 01       		.byte	0x1
 5832 07dd 1F02     		.2byte	0x21f
 5833 07df 25000000 		.4byte	0x25
 5834 07e3 08050000 		.4byte	.LLST31
 5835 07e7 13       		.uleb128 0x13
 5836 07e8 F8040000 		.4byte	.LASF47
 5837 07ec 01       		.byte	0x1
 5838 07ed 1F02     		.2byte	0x21f
ARM GAS  C:\Users\TERENC~1\AppData\Local\Temp\cc9BPywF.s 			page 128


 5839 07ef 25020000 		.4byte	0x225
 5840 07f3 29050000 		.4byte	.LLST32
 5841 07f7 15       		.uleb128 0x15
 5842 07f8 0A000000 		.4byte	.LBB10
 5843 07fc 2E000000 		.4byte	.LBE10-.LBB10
 5844 0800 4A080000 		.4byte	0x84a
 5845 0804 16       		.uleb128 0x16
 5846 0805 733100   		.ascii	"s1\000"
 5847 0808 01       		.byte	0x1
 5848 0809 2102     		.2byte	0x221
 5849 080b CF000000 		.4byte	0xcf
 5850 080f 4A050000 		.4byte	.LLST33
 5851 0813 17       		.uleb128 0x17
 5852 0814 12000000 		.4byte	.LVL99
 5853 0818 2F270000 		.4byte	0x272f
 5854 081c 18       		.uleb128 0x18
 5855 081d 32000000 		.4byte	.LVL101
 5856 0821 65270000 		.4byte	0x2765
 5857 0825 39080000 		.4byte	0x839
 5858 0829 19       		.uleb128 0x19
 5859 082a 01       		.uleb128 0x1
 5860 082b 50       		.byte	0x50
 5861 082c 02       		.uleb128 0x2
 5862 082d 74       		.byte	0x74
 5863 082e 00       		.sleb128 0
 5864 082f 19       		.uleb128 0x19
 5865 0830 01       		.uleb128 0x1
 5866 0831 51       		.byte	0x51
 5867 0832 05       		.uleb128 0x5
 5868 0833 03       		.byte	0x3
 5869 0834 5C000000 		.4byte	.LC31
 5870 0838 00       		.byte	0
 5871 0839 1A       		.uleb128 0x1a
 5872 083a 38000000 		.4byte	.LVL102
 5873 083e 43270000 		.4byte	0x2743
 5874 0842 19       		.uleb128 0x19
 5875 0843 01       		.uleb128 0x1
 5876 0844 50       		.byte	0x50
 5877 0845 02       		.uleb128 0x2
 5878 0846 74       		.byte	0x74
 5879 0847 00       		.sleb128 0
 5880 0848 00       		.byte	0
 5881 0849 00       		.byte	0
 5882 084a 15       		.uleb128 0x15
 5883 084b 40000000 		.4byte	.LBB11
 5884 084f 2E000000 		.4byte	.LBE11-.LBB11
 5885 0853 9D080000 		.4byte	0x89d
 5886 0857 16       		.uleb128 0x16
 5887 0858 733100   		.ascii	"s1\000"
 5888 085b 01       		.byte	0x1
 5889 085c 2202     		.2byte	0x222
 5890 085e CF000000 		.4byte	0xcf
 5891 0862 5D050000 		.4byte	.LLST34
 5892 0866 17       		.uleb128 0x17
 5893 0867 48000000 		.4byte	.LVL105
 5894 086b 2F270000 		.4byte	0x272f
 5895 086f 18       		.uleb128 0x18
ARM GAS  C:\Users\TERENC~1\AppData\Local\Temp\cc9BPywF.s 			page 129


 5896 0870 68000000 		.4byte	.LVL107
 5897 0874 65270000 		.4byte	0x2765
 5898 0878 8C080000 		.4byte	0x88c
 5899 087c 19       		.uleb128 0x19
 5900 087d 01       		.uleb128 0x1
 5901 087e 50       		.byte	0x50
 5902 087f 02       		.uleb128 0x2
 5903 0880 74       		.byte	0x74
 5904 0881 00       		.sleb128 0
 5905 0882 19       		.uleb128 0x19
 5906 0883 01       		.uleb128 0x1
 5907 0884 51       		.byte	0x51
 5908 0885 05       		.uleb128 0x5
 5909 0886 03       		.byte	0x3
 5910 0887 6C000000 		.4byte	.LC34
 5911 088b 00       		.byte	0
 5912 088c 1A       		.uleb128 0x1a
 5913 088d 6E000000 		.4byte	.LVL108
 5914 0891 43270000 		.4byte	0x2743
 5915 0895 19       		.uleb128 0x19
 5916 0896 01       		.uleb128 0x1
 5917 0897 50       		.byte	0x50
 5918 0898 02       		.uleb128 0x2
 5919 0899 74       		.byte	0x74
 5920 089a 00       		.sleb128 0
 5921 089b 00       		.byte	0
 5922 089c 00       		.byte	0
 5923 089d 15       		.uleb128 0x15
 5924 089e 76000000 		.4byte	.LBB12
 5925 08a2 30000000 		.4byte	.LBE12-.LBB12
 5926 08a6 F0080000 		.4byte	0x8f0
 5927 08aa 16       		.uleb128 0x16
 5928 08ab 733100   		.ascii	"s1\000"
 5929 08ae 01       		.byte	0x1
 5930 08af 2302     		.2byte	0x223
 5931 08b1 CF000000 		.4byte	0xcf
 5932 08b5 70050000 		.4byte	.LLST35
 5933 08b9 17       		.uleb128 0x17
 5934 08ba 7E000000 		.4byte	.LVL111
 5935 08be 2F270000 		.4byte	0x272f
 5936 08c2 18       		.uleb128 0x18
 5937 08c3 A0000000 		.4byte	.LVL113
 5938 08c7 65270000 		.4byte	0x2765
 5939 08cb DF080000 		.4byte	0x8df
 5940 08cf 19       		.uleb128 0x19
 5941 08d0 01       		.uleb128 0x1
 5942 08d1 50       		.byte	0x50
 5943 08d2 02       		.uleb128 0x2
 5944 08d3 74       		.byte	0x74
 5945 08d4 00       		.sleb128 0
 5946 08d5 19       		.uleb128 0x19
 5947 08d6 01       		.uleb128 0x1
 5948 08d7 51       		.byte	0x51
 5949 08d8 05       		.uleb128 0x5
 5950 08d9 03       		.byte	0x3
 5951 08da 78000000 		.4byte	.LC36
 5952 08de 00       		.byte	0
ARM GAS  C:\Users\TERENC~1\AppData\Local\Temp\cc9BPywF.s 			page 130


 5953 08df 1A       		.uleb128 0x1a
 5954 08e0 A6000000 		.4byte	.LVL114
 5955 08e4 43270000 		.4byte	0x2743
 5956 08e8 19       		.uleb128 0x19
 5957 08e9 01       		.uleb128 0x1
 5958 08ea 50       		.byte	0x50
 5959 08eb 02       		.uleb128 0x2
 5960 08ec 74       		.byte	0x74
 5961 08ed 00       		.sleb128 0
 5962 08ee 00       		.byte	0
 5963 08ef 00       		.byte	0
 5964 08f0 15       		.uleb128 0x15
 5965 08f1 AE000000 		.4byte	.LBB13
 5966 08f5 30000000 		.4byte	.LBE13-.LBB13
 5967 08f9 43090000 		.4byte	0x943
 5968 08fd 16       		.uleb128 0x16
 5969 08fe 733100   		.ascii	"s1\000"
 5970 0901 01       		.byte	0x1
 5971 0902 2402     		.2byte	0x224
 5972 0904 CF000000 		.4byte	0xcf
 5973 0908 83050000 		.4byte	.LLST36
 5974 090c 17       		.uleb128 0x17
 5975 090d B6000000 		.4byte	.LVL117
 5976 0911 2F270000 		.4byte	0x272f
 5977 0915 18       		.uleb128 0x18
 5978 0916 D8000000 		.4byte	.LVL119
 5979 091a 65270000 		.4byte	0x2765
 5980 091e 32090000 		.4byte	0x932
 5981 0922 19       		.uleb128 0x19
 5982 0923 01       		.uleb128 0x1
 5983 0924 50       		.byte	0x50
 5984 0925 02       		.uleb128 0x2
 5985 0926 74       		.byte	0x74
 5986 0927 00       		.sleb128 0
 5987 0928 19       		.uleb128 0x19
 5988 0929 01       		.uleb128 0x1
 5989 092a 51       		.byte	0x51
 5990 092b 05       		.uleb128 0x5
 5991 092c 03       		.byte	0x3
 5992 092d 8C000000 		.4byte	.LC38
 5993 0931 00       		.byte	0
 5994 0932 1A       		.uleb128 0x1a
 5995 0933 DE000000 		.4byte	.LVL120
 5996 0937 43270000 		.4byte	0x2743
 5997 093b 19       		.uleb128 0x19
 5998 093c 01       		.uleb128 0x1
 5999 093d 50       		.byte	0x50
 6000 093e 02       		.uleb128 0x2
 6001 093f 74       		.byte	0x74
 6002 0940 00       		.sleb128 0
 6003 0941 00       		.byte	0
 6004 0942 00       		.byte	0
 6005 0943 15       		.uleb128 0x15
 6006 0944 E6000000 		.4byte	.LBB14
 6007 0948 30000000 		.4byte	.LBE14-.LBB14
 6008 094c 96090000 		.4byte	0x996
 6009 0950 16       		.uleb128 0x16
ARM GAS  C:\Users\TERENC~1\AppData\Local\Temp\cc9BPywF.s 			page 131


 6010 0951 733100   		.ascii	"s1\000"
 6011 0954 01       		.byte	0x1
 6012 0955 2502     		.2byte	0x225
 6013 0957 CF000000 		.4byte	0xcf
 6014 095b 96050000 		.4byte	.LLST37
 6015 095f 17       		.uleb128 0x17
 6016 0960 EE000000 		.4byte	.LVL123
 6017 0964 2F270000 		.4byte	0x272f
 6018 0968 18       		.uleb128 0x18
 6019 0969 10010000 		.4byte	.LVL125
 6020 096d 65270000 		.4byte	0x2765
 6021 0971 85090000 		.4byte	0x985
 6022 0975 19       		.uleb128 0x19
 6023 0976 01       		.uleb128 0x1
 6024 0977 50       		.byte	0x50
 6025 0978 02       		.uleb128 0x2
 6026 0979 74       		.byte	0x74
 6027 097a 00       		.sleb128 0
 6028 097b 19       		.uleb128 0x19
 6029 097c 01       		.uleb128 0x1
 6030 097d 51       		.byte	0x51
 6031 097e 05       		.uleb128 0x5
 6032 097f 03       		.byte	0x3
 6033 0980 A0000000 		.4byte	.LC40
 6034 0984 00       		.byte	0
 6035 0985 1A       		.uleb128 0x1a
 6036 0986 16010000 		.4byte	.LVL126
 6037 098a 43270000 		.4byte	0x2743
 6038 098e 19       		.uleb128 0x19
 6039 098f 01       		.uleb128 0x1
 6040 0990 50       		.byte	0x50
 6041 0991 02       		.uleb128 0x2
 6042 0992 74       		.byte	0x74
 6043 0993 00       		.sleb128 0
 6044 0994 00       		.byte	0
 6045 0995 00       		.byte	0
 6046 0996 15       		.uleb128 0x15
 6047 0997 1E010000 		.4byte	.LBB15
 6048 099b 30000000 		.4byte	.LBE15-.LBB15
 6049 099f E9090000 		.4byte	0x9e9
 6050 09a3 16       		.uleb128 0x16
 6051 09a4 733100   		.ascii	"s1\000"
 6052 09a7 01       		.byte	0x1
 6053 09a8 2602     		.2byte	0x226
 6054 09aa CF000000 		.4byte	0xcf
 6055 09ae A9050000 		.4byte	.LLST38
 6056 09b2 17       		.uleb128 0x17
 6057 09b3 26010000 		.4byte	.LVL129
 6058 09b7 2F270000 		.4byte	0x272f
 6059 09bb 18       		.uleb128 0x18
 6060 09bc 48010000 		.4byte	.LVL131
 6061 09c0 65270000 		.4byte	0x2765
 6062 09c4 D8090000 		.4byte	0x9d8
 6063 09c8 19       		.uleb128 0x19
 6064 09c9 01       		.uleb128 0x1
 6065 09ca 50       		.byte	0x50
 6066 09cb 02       		.uleb128 0x2
ARM GAS  C:\Users\TERENC~1\AppData\Local\Temp\cc9BPywF.s 			page 132


 6067 09cc 74       		.byte	0x74
 6068 09cd 00       		.sleb128 0
 6069 09ce 19       		.uleb128 0x19
 6070 09cf 01       		.uleb128 0x1
 6071 09d0 51       		.byte	0x51
 6072 09d1 05       		.uleb128 0x5
 6073 09d2 03       		.byte	0x3
 6074 09d3 B4000000 		.4byte	.LC42
 6075 09d7 00       		.byte	0
 6076 09d8 1A       		.uleb128 0x1a
 6077 09d9 4E010000 		.4byte	.LVL132
 6078 09dd 43270000 		.4byte	0x2743
 6079 09e1 19       		.uleb128 0x19
 6080 09e2 01       		.uleb128 0x1
 6081 09e3 50       		.byte	0x50
 6082 09e4 02       		.uleb128 0x2
 6083 09e5 74       		.byte	0x74
 6084 09e6 00       		.sleb128 0
 6085 09e7 00       		.byte	0
 6086 09e8 00       		.byte	0
 6087 09e9 15       		.uleb128 0x15
 6088 09ea 56010000 		.4byte	.LBB16
 6089 09ee 2E000000 		.4byte	.LBE16-.LBB16
 6090 09f2 3C0A0000 		.4byte	0xa3c
 6091 09f6 16       		.uleb128 0x16
 6092 09f7 733100   		.ascii	"s1\000"
 6093 09fa 01       		.byte	0x1
 6094 09fb 2802     		.2byte	0x228
 6095 09fd CF000000 		.4byte	0xcf
 6096 0a01 BC050000 		.4byte	.LLST39
 6097 0a05 17       		.uleb128 0x17
 6098 0a06 5E010000 		.4byte	.LVL135
 6099 0a0a 2F270000 		.4byte	0x272f
 6100 0a0e 18       		.uleb128 0x18
 6101 0a0f 7E010000 		.4byte	.LVL137
 6102 0a13 65270000 		.4byte	0x2765
 6103 0a17 2B0A0000 		.4byte	0xa2b
 6104 0a1b 19       		.uleb128 0x19
 6105 0a1c 01       		.uleb128 0x1
 6106 0a1d 50       		.byte	0x50
 6107 0a1e 02       		.uleb128 0x2
 6108 0a1f 74       		.byte	0x74
 6109 0a20 00       		.sleb128 0
 6110 0a21 19       		.uleb128 0x19
 6111 0a22 01       		.uleb128 0x1
 6112 0a23 51       		.byte	0x51
 6113 0a24 05       		.uleb128 0x5
 6114 0a25 03       		.byte	0x3
 6115 0a26 C8000000 		.4byte	.LC44
 6116 0a2a 00       		.byte	0
 6117 0a2b 1A       		.uleb128 0x1a
 6118 0a2c 84010000 		.4byte	.LVL138
 6119 0a30 43270000 		.4byte	0x2743
 6120 0a34 19       		.uleb128 0x19
 6121 0a35 01       		.uleb128 0x1
 6122 0a36 50       		.byte	0x50
 6123 0a37 02       		.uleb128 0x2
ARM GAS  C:\Users\TERENC~1\AppData\Local\Temp\cc9BPywF.s 			page 133


 6124 0a38 74       		.byte	0x74
 6125 0a39 00       		.sleb128 0
 6126 0a3a 00       		.byte	0
 6127 0a3b 00       		.byte	0
 6128 0a3c 15       		.uleb128 0x15
 6129 0a3d 8C010000 		.4byte	.LBB17
 6130 0a41 2E000000 		.4byte	.LBE17-.LBB17
 6131 0a45 8F0A0000 		.4byte	0xa8f
 6132 0a49 16       		.uleb128 0x16
 6133 0a4a 733100   		.ascii	"s1\000"
 6134 0a4d 01       		.byte	0x1
 6135 0a4e 2902     		.2byte	0x229
 6136 0a50 CF000000 		.4byte	0xcf
 6137 0a54 CF050000 		.4byte	.LLST40
 6138 0a58 17       		.uleb128 0x17
 6139 0a59 94010000 		.4byte	.LVL141
 6140 0a5d 2F270000 		.4byte	0x272f
 6141 0a61 18       		.uleb128 0x18
 6142 0a62 B4010000 		.4byte	.LVL143
 6143 0a66 65270000 		.4byte	0x2765
 6144 0a6a 7E0A0000 		.4byte	0xa7e
 6145 0a6e 19       		.uleb128 0x19
 6146 0a6f 01       		.uleb128 0x1
 6147 0a70 50       		.byte	0x50
 6148 0a71 02       		.uleb128 0x2
 6149 0a72 74       		.byte	0x74
 6150 0a73 00       		.sleb128 0
 6151 0a74 19       		.uleb128 0x19
 6152 0a75 01       		.uleb128 0x1
 6153 0a76 51       		.byte	0x51
 6154 0a77 05       		.uleb128 0x5
 6155 0a78 03       		.byte	0x3
 6156 0a79 E4000000 		.4byte	.LC46
 6157 0a7d 00       		.byte	0
 6158 0a7e 1A       		.uleb128 0x1a
 6159 0a7f BA010000 		.4byte	.LVL144
 6160 0a83 43270000 		.4byte	0x2743
 6161 0a87 19       		.uleb128 0x19
 6162 0a88 01       		.uleb128 0x1
 6163 0a89 50       		.byte	0x50
 6164 0a8a 02       		.uleb128 0x2
 6165 0a8b 74       		.byte	0x74
 6166 0a8c 00       		.sleb128 0
 6167 0a8d 00       		.byte	0
 6168 0a8e 00       		.byte	0
 6169 0a8f 15       		.uleb128 0x15
 6170 0a90 C2010000 		.4byte	.LBB18
 6171 0a94 2A000000 		.4byte	.LBE18-.LBB18
 6172 0a98 E70A0000 		.4byte	0xae7
 6173 0a9c 16       		.uleb128 0x16
 6174 0a9d 733100   		.ascii	"s1\000"
 6175 0aa0 01       		.byte	0x1
 6176 0aa1 2A02     		.2byte	0x22a
 6177 0aa3 CF000000 		.4byte	0xcf
 6178 0aa7 E2050000 		.4byte	.LLST41
 6179 0aab 17       		.uleb128 0x17
 6180 0aac CA010000 		.4byte	.LVL147
ARM GAS  C:\Users\TERENC~1\AppData\Local\Temp\cc9BPywF.s 			page 134


 6181 0ab0 2F270000 		.4byte	0x272f
 6182 0ab4 18       		.uleb128 0x18
 6183 0ab5 E6010000 		.4byte	.LVL149
 6184 0ab9 3A270000 		.4byte	0x273a
 6185 0abd D60A0000 		.4byte	0xad6
 6186 0ac1 19       		.uleb128 0x19
 6187 0ac2 01       		.uleb128 0x1
 6188 0ac3 50       		.byte	0x50
 6189 0ac4 02       		.uleb128 0x2
 6190 0ac5 74       		.byte	0x74
 6191 0ac6 00       		.sleb128 0
 6192 0ac7 19       		.uleb128 0x19
 6193 0ac8 01       		.uleb128 0x1
 6194 0ac9 51       		.byte	0x51
 6195 0aca 05       		.uleb128 0x5
 6196 0acb 03       		.byte	0x3
 6197 0acc FC000000 		.4byte	.LC48
 6198 0ad0 19       		.uleb128 0x19
 6199 0ad1 01       		.uleb128 0x1
 6200 0ad2 52       		.byte	0x52
 6201 0ad3 01       		.uleb128 0x1
 6202 0ad4 3A       		.byte	0x3a
 6203 0ad5 00       		.byte	0
 6204 0ad6 1A       		.uleb128 0x1a
 6205 0ad7 EC010000 		.4byte	.LVL150
 6206 0adb 43270000 		.4byte	0x2743
 6207 0adf 19       		.uleb128 0x19
 6208 0ae0 01       		.uleb128 0x1
 6209 0ae1 50       		.byte	0x50
 6210 0ae2 02       		.uleb128 0x2
 6211 0ae3 74       		.byte	0x74
 6212 0ae4 00       		.sleb128 0
 6213 0ae5 00       		.byte	0
 6214 0ae6 00       		.byte	0
 6215 0ae7 17       		.uleb128 0x17
 6216 0ae8 06000000 		.4byte	.LVL97
 6217 0aec 4E270000 		.4byte	0x274e
 6218 0af0 17       		.uleb128 0x17
 6219 0af1 3C000000 		.4byte	.LVL103
 6220 0af5 4E270000 		.4byte	0x274e
 6221 0af9 17       		.uleb128 0x17
 6222 0afa 72000000 		.4byte	.LVL109
 6223 0afe 4E270000 		.4byte	0x274e
 6224 0b02 17       		.uleb128 0x17
 6225 0b03 AA000000 		.4byte	.LVL115
 6226 0b07 4E270000 		.4byte	0x274e
 6227 0b0b 17       		.uleb128 0x17
 6228 0b0c E2000000 		.4byte	.LVL121
 6229 0b10 4E270000 		.4byte	0x274e
 6230 0b14 17       		.uleb128 0x17
 6231 0b15 1A010000 		.4byte	.LVL127
 6232 0b19 4E270000 		.4byte	0x274e
 6233 0b1d 17       		.uleb128 0x17
 6234 0b1e 52010000 		.4byte	.LVL133
 6235 0b22 4E270000 		.4byte	0x274e
 6236 0b26 17       		.uleb128 0x17
 6237 0b27 88010000 		.4byte	.LVL139
ARM GAS  C:\Users\TERENC~1\AppData\Local\Temp\cc9BPywF.s 			page 135


 6238 0b2b 4E270000 		.4byte	0x274e
 6239 0b2f 17       		.uleb128 0x17
 6240 0b30 BE010000 		.4byte	.LVL145
 6241 0b34 4E270000 		.4byte	0x274e
 6242 0b38 00       		.byte	0
 6243 0b39 12       		.uleb128 0x12
 6244 0b3a 01070000 		.4byte	.LASF58
 6245 0b3e 01       		.byte	0x1
 6246 0b3f 0601     		.2byte	0x106
 6247 0b41 25000000 		.4byte	0x25
 6248 0b45 00000000 		.4byte	.LFB6
 6249 0b49 E4000000 		.4byte	.LFE6-.LFB6
 6250 0b4d 01       		.uleb128 0x1
 6251 0b4e 9C       		.byte	0x9c
 6252 0b4f D70C0000 		.4byte	0xcd7
 6253 0b53 13       		.uleb128 0x13
 6254 0b54 D0040000 		.4byte	.LASF46
 6255 0b58 01       		.byte	0x1
 6256 0b59 0601     		.2byte	0x106
 6257 0b5b 25000000 		.4byte	0x25
 6258 0b5f F5050000 		.4byte	.LLST42
 6259 0b63 13       		.uleb128 0x13
 6260 0b64 F8040000 		.4byte	.LASF47
 6261 0b68 01       		.byte	0x1
 6262 0b69 0601     		.2byte	0x106
 6263 0b6b 25020000 		.4byte	0x225
 6264 0b6f 42060000 		.4byte	.LLST43
 6265 0b73 16       		.uleb128 0x16
 6266 0b74 766F6C00 		.ascii	"vol\000"
 6267 0b78 01       		.byte	0x1
 6268 0b79 0801     		.2byte	0x108
 6269 0b7b 25000000 		.4byte	0x25
 6270 0b7f 7C060000 		.4byte	.LLST44
 6271 0b83 16       		.uleb128 0x16
 6272 0b84 6900     		.ascii	"i\000"
 6273 0b86 01       		.byte	0x1
 6274 0b87 0901     		.2byte	0x109
 6275 0b89 25000000 		.4byte	0x25
 6276 0b8d 8F060000 		.4byte	.LLST45
 6277 0b91 16       		.uleb128 0x16
 6278 0b92 727600   		.ascii	"rv\000"
 6279 0b95 01       		.byte	0x1
 6280 0b96 0A01     		.2byte	0x10a
 6281 0b98 B9000000 		.4byte	0xb9
 6282 0b9c C7060000 		.4byte	.LLST46
 6283 0ba0 15       		.uleb128 0x15
 6284 0ba1 0E000000 		.4byte	.LBB19
 6285 0ba5 2A000000 		.4byte	.LBE19-.LBB19
 6286 0ba9 F80B0000 		.4byte	0xbf8
 6287 0bad 16       		.uleb128 0x16
 6288 0bae 733100   		.ascii	"s1\000"
 6289 0bb1 01       		.byte	0x1
 6290 0bb2 1001     		.2byte	0x110
 6291 0bb4 CF000000 		.4byte	0xcf
 6292 0bb8 E5060000 		.4byte	.LLST47
 6293 0bbc 17       		.uleb128 0x17
 6294 0bbd 16000000 		.4byte	.LVL155
ARM GAS  C:\Users\TERENC~1\AppData\Local\Temp\cc9BPywF.s 			page 136


 6295 0bc1 2F270000 		.4byte	0x272f
 6296 0bc5 18       		.uleb128 0x18
 6297 0bc6 32000000 		.4byte	.LVL157
 6298 0bca 3A270000 		.4byte	0x273a
 6299 0bce E70B0000 		.4byte	0xbe7
 6300 0bd2 19       		.uleb128 0x19
 6301 0bd3 01       		.uleb128 0x1
 6302 0bd4 50       		.byte	0x50
 6303 0bd5 02       		.uleb128 0x2
 6304 0bd6 74       		.byte	0x74
 6305 0bd7 00       		.sleb128 0
 6306 0bd8 19       		.uleb128 0x19
 6307 0bd9 01       		.uleb128 0x1
 6308 0bda 51       		.byte	0x51
 6309 0bdb 05       		.uleb128 0x5
 6310 0bdc 03       		.byte	0x3
 6311 0bdd 0C000000 		.4byte	.LC6
 6312 0be1 19       		.uleb128 0x19
 6313 0be2 01       		.uleb128 0x1
 6314 0be3 52       		.byte	0x52
 6315 0be4 01       		.uleb128 0x1
 6316 0be5 4E       		.byte	0x4e
 6317 0be6 00       		.byte	0
 6318 0be7 1A       		.uleb128 0x1a
 6319 0be8 38000000 		.4byte	.LVL158
 6320 0bec 43270000 		.4byte	0x2743
 6321 0bf0 19       		.uleb128 0x19
 6322 0bf1 01       		.uleb128 0x1
 6323 0bf2 50       		.byte	0x50
 6324 0bf3 02       		.uleb128 0x2
 6325 0bf4 74       		.byte	0x74
 6326 0bf5 00       		.sleb128 0
 6327 0bf6 00       		.byte	0
 6328 0bf7 00       		.byte	0
 6329 0bf8 15       		.uleb128 0x15
 6330 0bf9 56000000 		.4byte	.LBB20
 6331 0bfd 2A000000 		.4byte	.LBE20-.LBB20
 6332 0c01 500C0000 		.4byte	0xc50
 6333 0c05 16       		.uleb128 0x16
 6334 0c06 733100   		.ascii	"s1\000"
 6335 0c09 01       		.byte	0x1
 6336 0c0a 1801     		.2byte	0x118
 6337 0c0c CF000000 		.4byte	0xcf
 6338 0c10 F8060000 		.4byte	.LLST48
 6339 0c14 17       		.uleb128 0x17
 6340 0c15 5E000000 		.4byte	.LVL167
 6341 0c19 2F270000 		.4byte	0x272f
 6342 0c1d 18       		.uleb128 0x18
 6343 0c1e 7A000000 		.4byte	.LVL169
 6344 0c22 3A270000 		.4byte	0x273a
 6345 0c26 3F0C0000 		.4byte	0xc3f
 6346 0c2a 19       		.uleb128 0x19
 6347 0c2b 01       		.uleb128 0x1
 6348 0c2c 50       		.byte	0x50
 6349 0c2d 02       		.uleb128 0x2
 6350 0c2e 74       		.byte	0x74
 6351 0c2f 00       		.sleb128 0
ARM GAS  C:\Users\TERENC~1\AppData\Local\Temp\cc9BPywF.s 			page 137


 6352 0c30 19       		.uleb128 0x19
 6353 0c31 01       		.uleb128 0x1
 6354 0c32 51       		.byte	0x51
 6355 0c33 05       		.uleb128 0x5
 6356 0c34 03       		.byte	0x3
 6357 0c35 08010000 		.4byte	.LC53
 6358 0c39 19       		.uleb128 0x19
 6359 0c3a 01       		.uleb128 0x1
 6360 0c3b 52       		.byte	0x52
 6361 0c3c 01       		.uleb128 0x1
 6362 0c3d 39       		.byte	0x39
 6363 0c3e 00       		.byte	0
 6364 0c3f 1A       		.uleb128 0x1a
 6365 0c40 80000000 		.4byte	.LVL170
 6366 0c44 43270000 		.4byte	0x2743
 6367 0c48 19       		.uleb128 0x19
 6368 0c49 01       		.uleb128 0x1
 6369 0c4a 50       		.byte	0x50
 6370 0c4b 02       		.uleb128 0x2
 6371 0c4c 74       		.byte	0x74
 6372 0c4d 00       		.sleb128 0
 6373 0c4e 00       		.byte	0
 6374 0c4f 00       		.byte	0
 6375 0c50 15       		.uleb128 0x15
 6376 0c51 8C000000 		.4byte	.LBB21
 6377 0c55 2A000000 		.4byte	.LBE21-.LBB21
 6378 0c59 A90C0000 		.4byte	0xca9
 6379 0c5d 16       		.uleb128 0x16
 6380 0c5e 733100   		.ascii	"s1\000"
 6381 0c61 01       		.byte	0x1
 6382 0c62 1C01     		.2byte	0x11c
 6383 0c64 CF000000 		.4byte	0xcf
 6384 0c68 0B070000 		.4byte	.LLST49
 6385 0c6c 17       		.uleb128 0x17
 6386 0c6d 94000000 		.4byte	.LVL174
 6387 0c71 2F270000 		.4byte	0x272f
 6388 0c75 18       		.uleb128 0x18
 6389 0c76 B0000000 		.4byte	.LVL176
 6390 0c7a 65270000 		.4byte	0x2765
 6391 0c7e 980C0000 		.4byte	0xc98
 6392 0c82 19       		.uleb128 0x19
 6393 0c83 01       		.uleb128 0x1
 6394 0c84 50       		.byte	0x50
 6395 0c85 02       		.uleb128 0x2
 6396 0c86 74       		.byte	0x74
 6397 0c87 00       		.sleb128 0
 6398 0c88 19       		.uleb128 0x19
 6399 0c89 01       		.uleb128 0x1
 6400 0c8a 51       		.byte	0x51
 6401 0c8b 05       		.uleb128 0x5
 6402 0c8c 03       		.byte	0x3
 6403 0c8d 14010000 		.4byte	.LC55
 6404 0c91 19       		.uleb128 0x19
 6405 0c92 01       		.uleb128 0x1
 6406 0c93 52       		.byte	0x52
 6407 0c94 02       		.uleb128 0x2
 6408 0c95 75       		.byte	0x75
ARM GAS  C:\Users\TERENC~1\AppData\Local\Temp\cc9BPywF.s 			page 138


 6409 0c96 00       		.sleb128 0
 6410 0c97 00       		.byte	0
 6411 0c98 1A       		.uleb128 0x1a
 6412 0c99 B6000000 		.4byte	.LVL177
 6413 0c9d 43270000 		.4byte	0x2743
 6414 0ca1 19       		.uleb128 0x19
 6415 0ca2 01       		.uleb128 0x1
 6416 0ca3 50       		.byte	0x50
 6417 0ca4 02       		.uleb128 0x2
 6418 0ca5 74       		.byte	0x74
 6419 0ca6 00       		.sleb128 0
 6420 0ca7 00       		.byte	0
 6421 0ca8 00       		.byte	0
 6422 0ca9 17       		.uleb128 0x17
 6423 0caa 0A000000 		.4byte	.LVL153
 6424 0cae 4E270000 		.4byte	0x274e
 6425 0cb2 17       		.uleb128 0x17
 6426 0cb3 44000000 		.4byte	.LVL161
 6427 0cb7 5A270000 		.4byte	0x275a
 6428 0cbb 17       		.uleb128 0x17
 6429 0cbc 4A000000 		.4byte	.LVL163
 6430 0cc0 70270000 		.4byte	0x2770
 6431 0cc4 17       		.uleb128 0x17
 6432 0cc5 52000000 		.4byte	.LVL165
 6433 0cc9 4E270000 		.4byte	0x274e
 6434 0ccd 17       		.uleb128 0x17
 6435 0cce 88000000 		.4byte	.LVL172
 6436 0cd2 4E270000 		.4byte	0x274e
 6437 0cd6 00       		.byte	0
 6438 0cd7 12       		.uleb128 0x12
 6439 0cd8 F4010000 		.4byte	.LASF59
 6440 0cdc 01       		.byte	0x1
 6441 0cdd 2301     		.2byte	0x123
 6442 0cdf 25000000 		.4byte	0x25
 6443 0ce3 00000000 		.4byte	.LFB7
 6444 0ce7 4C000000 		.4byte	.LFE7-.LFB7
 6445 0ceb 01       		.uleb128 0x1
 6446 0cec 9C       		.byte	0x9c
 6447 0ced 770D0000 		.4byte	0xd77
 6448 0cf1 13       		.uleb128 0x13
 6449 0cf2 D0040000 		.4byte	.LASF46
 6450 0cf6 01       		.byte	0x1
 6451 0cf7 2301     		.2byte	0x123
 6452 0cf9 25000000 		.4byte	0x25
 6453 0cfd 1E070000 		.4byte	.LLST50
 6454 0d01 13       		.uleb128 0x13
 6455 0d02 F8040000 		.4byte	.LASF47
 6456 0d06 01       		.byte	0x1
 6457 0d07 2301     		.2byte	0x123
 6458 0d09 25020000 		.4byte	0x225
 6459 0d0d 3F070000 		.4byte	.LLST51
 6460 0d11 15       		.uleb128 0x15
 6461 0d12 0A000000 		.4byte	.LBB22
 6462 0d16 2E000000 		.4byte	.LBE22-.LBB22
 6463 0d1a 6D0D0000 		.4byte	0xd6d
 6464 0d1e 16       		.uleb128 0x16
 6465 0d1f 733100   		.ascii	"s1\000"
ARM GAS  C:\Users\TERENC~1\AppData\Local\Temp\cc9BPywF.s 			page 139


 6466 0d22 01       		.byte	0x1
 6467 0d23 2501     		.2byte	0x125
 6468 0d25 CF000000 		.4byte	0xcf
 6469 0d29 60070000 		.4byte	.LLST52
 6470 0d2d 17       		.uleb128 0x17
 6471 0d2e 12000000 		.4byte	.LVL184
 6472 0d32 2F270000 		.4byte	0x272f
 6473 0d36 17       		.uleb128 0x17
 6474 0d37 26000000 		.4byte	.LVL185
 6475 0d3b 7B270000 		.4byte	0x277b
 6476 0d3f 18       		.uleb128 0x18
 6477 0d40 32000000 		.4byte	.LVL187
 6478 0d44 65270000 		.4byte	0x2765
 6479 0d48 5C0D0000 		.4byte	0xd5c
 6480 0d4c 19       		.uleb128 0x19
 6481 0d4d 01       		.uleb128 0x1
 6482 0d4e 50       		.byte	0x50
 6483 0d4f 02       		.uleb128 0x2
 6484 0d50 74       		.byte	0x74
 6485 0d51 00       		.sleb128 0
 6486 0d52 19       		.uleb128 0x19
 6487 0d53 01       		.uleb128 0x1
 6488 0d54 51       		.byte	0x51
 6489 0d55 05       		.uleb128 0x5
 6490 0d56 03       		.byte	0x3
 6491 0d57 20010000 		.4byte	.LC58
 6492 0d5b 00       		.byte	0
 6493 0d5c 1A       		.uleb128 0x1a
 6494 0d5d 38000000 		.4byte	.LVL188
 6495 0d61 43270000 		.4byte	0x2743
 6496 0d65 19       		.uleb128 0x19
 6497 0d66 01       		.uleb128 0x1
 6498 0d67 50       		.byte	0x50
 6499 0d68 02       		.uleb128 0x2
 6500 0d69 74       		.byte	0x74
 6501 0d6a 00       		.sleb128 0
 6502 0d6b 00       		.byte	0
 6503 0d6c 00       		.byte	0
 6504 0d6d 17       		.uleb128 0x17
 6505 0d6e 06000000 		.4byte	.LVL182
 6506 0d72 4E270000 		.4byte	0x274e
 6507 0d76 00       		.byte	0
 6508 0d77 12       		.uleb128 0x12
 6509 0d78 08030000 		.4byte	.LASF60
 6510 0d7c 01       		.byte	0x1
 6511 0d7d 2A01     		.2byte	0x12a
 6512 0d7f 25000000 		.4byte	0x25
 6513 0d83 00000000 		.4byte	.LFB8
 6514 0d87 F4000000 		.4byte	.LFE8-.LFB8
 6515 0d8b 01       		.uleb128 0x1
 6516 0d8c 9C       		.byte	0x9c
 6517 0d8d 480F0000 		.4byte	0xf48
 6518 0d91 13       		.uleb128 0x13
 6519 0d92 D0040000 		.4byte	.LASF46
 6520 0d96 01       		.byte	0x1
 6521 0d97 2A01     		.2byte	0x12a
 6522 0d99 25000000 		.4byte	0x25
ARM GAS  C:\Users\TERENC~1\AppData\Local\Temp\cc9BPywF.s 			page 140


 6523 0d9d 73070000 		.4byte	.LLST53
 6524 0da1 13       		.uleb128 0x13
 6525 0da2 F8040000 		.4byte	.LASF47
 6526 0da6 01       		.byte	0x1
 6527 0da7 2A01     		.2byte	0x12a
 6528 0da9 25020000 		.4byte	0x225
 6529 0dad C0070000 		.4byte	.LLST54
 6530 0db1 16       		.uleb128 0x16
 6531 0db2 6900     		.ascii	"i\000"
 6532 0db4 01       		.byte	0x1
 6533 0db5 2C01     		.2byte	0x12c
 6534 0db7 25000000 		.4byte	0x25
 6535 0dbb 42080000 		.4byte	.LLST55
 6536 0dbf 16       		.uleb128 0x16
 6537 0dc0 72656700 		.ascii	"reg\000"
 6538 0dc4 01       		.byte	0x1
 6539 0dc5 2D01     		.2byte	0x12d
 6540 0dc7 B9000000 		.4byte	0xb9
 6541 0dcb 86080000 		.4byte	.LLST56
 6542 0dcf 20       		.uleb128 0x20
 6543 0dd0 1A040000 		.4byte	.LASF61
 6544 0dd4 01       		.byte	0x1
 6545 0dd5 2E01     		.2byte	0x12e
 6546 0dd7 C4000000 		.4byte	0xc4
 6547 0ddb 99080000 		.4byte	.LLST57
 6548 0ddf 16       		.uleb128 0x16
 6549 0de0 727600   		.ascii	"rv\000"
 6550 0de3 01       		.byte	0x1
 6551 0de4 2F01     		.2byte	0x12f
 6552 0de6 25000000 		.4byte	0x25
 6553 0dea AC080000 		.4byte	.LLST58
 6554 0dee 15       		.uleb128 0x15
 6555 0def 10000000 		.4byte	.LBB23
 6556 0df3 2A000000 		.4byte	.LBE23-.LBB23
 6557 0df7 460E0000 		.4byte	0xe46
 6558 0dfb 16       		.uleb128 0x16
 6559 0dfc 733100   		.ascii	"s1\000"
 6560 0dff 01       		.byte	0x1
 6561 0e00 3501     		.2byte	0x135
 6562 0e02 CF000000 		.4byte	0xcf
 6563 0e06 EB080000 		.4byte	.LLST59
 6564 0e0a 17       		.uleb128 0x17
 6565 0e0b 18000000 		.4byte	.LVL193
 6566 0e0f 2F270000 		.4byte	0x272f
 6567 0e13 18       		.uleb128 0x18
 6568 0e14 34000000 		.4byte	.LVL195
 6569 0e18 3A270000 		.4byte	0x273a
 6570 0e1c 350E0000 		.4byte	0xe35
 6571 0e20 19       		.uleb128 0x19
 6572 0e21 01       		.uleb128 0x1
 6573 0e22 50       		.byte	0x50
 6574 0e23 02       		.uleb128 0x2
 6575 0e24 74       		.byte	0x74
 6576 0e25 00       		.sleb128 0
 6577 0e26 19       		.uleb128 0x19
 6578 0e27 01       		.uleb128 0x1
 6579 0e28 51       		.byte	0x51
ARM GAS  C:\Users\TERENC~1\AppData\Local\Temp\cc9BPywF.s 			page 141


 6580 0e29 05       		.uleb128 0x5
 6581 0e2a 03       		.byte	0x3
 6582 0e2b 0C000000 		.4byte	.LC6
 6583 0e2f 19       		.uleb128 0x19
 6584 0e30 01       		.uleb128 0x1
 6585 0e31 52       		.byte	0x52
 6586 0e32 01       		.uleb128 0x1
 6587 0e33 4E       		.byte	0x4e
 6588 0e34 00       		.byte	0
 6589 0e35 1A       		.uleb128 0x1a
 6590 0e36 3A000000 		.4byte	.LVL196
 6591 0e3a 43270000 		.4byte	0x2743
 6592 0e3e 19       		.uleb128 0x19
 6593 0e3f 01       		.uleb128 0x1
 6594 0e40 50       		.byte	0x50
 6595 0e41 02       		.uleb128 0x2
 6596 0e42 74       		.byte	0x74
 6597 0e43 00       		.sleb128 0
 6598 0e44 00       		.byte	0
 6599 0e45 00       		.byte	0
 6600 0e46 15       		.uleb128 0x15
 6601 0e47 66000000 		.4byte	.LBB24
 6602 0e4b 2A000000 		.4byte	.LBE24-.LBB24
 6603 0e4f 9E0E0000 		.4byte	0xe9e
 6604 0e53 16       		.uleb128 0x16
 6605 0e54 733100   		.ascii	"s1\000"
 6606 0e57 01       		.byte	0x1
 6607 0e58 3E01     		.2byte	0x13e
 6608 0e5a CF000000 		.4byte	0xcf
 6609 0e5e FE080000 		.4byte	.LLST60
 6610 0e62 17       		.uleb128 0x17
 6611 0e63 6E000000 		.4byte	.LVL207
 6612 0e67 2F270000 		.4byte	0x272f
 6613 0e6b 18       		.uleb128 0x18
 6614 0e6c 8A000000 		.4byte	.LVL209
 6615 0e70 3A270000 		.4byte	0x273a
 6616 0e74 8D0E0000 		.4byte	0xe8d
 6617 0e78 19       		.uleb128 0x19
 6618 0e79 01       		.uleb128 0x1
 6619 0e7a 50       		.byte	0x50
 6620 0e7b 02       		.uleb128 0x2
 6621 0e7c 74       		.byte	0x74
 6622 0e7d 00       		.sleb128 0
 6623 0e7e 19       		.uleb128 0x19
 6624 0e7f 01       		.uleb128 0x1
 6625 0e80 51       		.byte	0x51
 6626 0e81 05       		.uleb128 0x5
 6627 0e82 03       		.byte	0x3
 6628 0e83 08010000 		.4byte	.LC53
 6629 0e87 19       		.uleb128 0x19
 6630 0e88 01       		.uleb128 0x1
 6631 0e89 52       		.byte	0x52
 6632 0e8a 01       		.uleb128 0x1
 6633 0e8b 39       		.byte	0x39
 6634 0e8c 00       		.byte	0
 6635 0e8d 1A       		.uleb128 0x1a
 6636 0e8e 90000000 		.4byte	.LVL210
ARM GAS  C:\Users\TERENC~1\AppData\Local\Temp\cc9BPywF.s 			page 142


 6637 0e92 43270000 		.4byte	0x2743
 6638 0e96 19       		.uleb128 0x19
 6639 0e97 01       		.uleb128 0x1
 6640 0e98 50       		.byte	0x50
 6641 0e99 02       		.uleb128 0x2
 6642 0e9a 74       		.byte	0x74
 6643 0e9b 00       		.sleb128 0
 6644 0e9c 00       		.byte	0
 6645 0e9d 00       		.byte	0
 6646 0e9e 15       		.uleb128 0x15
 6647 0e9f 9C000000 		.4byte	.LBB25
 6648 0ea3 2A000000 		.4byte	.LBE25-.LBB25
 6649 0ea7 F70E0000 		.4byte	0xef7
 6650 0eab 16       		.uleb128 0x16
 6651 0eac 733100   		.ascii	"s1\000"
 6652 0eaf 01       		.byte	0x1
 6653 0eb0 4201     		.2byte	0x142
 6654 0eb2 CF000000 		.4byte	0xcf
 6655 0eb6 11090000 		.4byte	.LLST61
 6656 0eba 17       		.uleb128 0x17
 6657 0ebb A4000000 		.4byte	.LVL214
 6658 0ebf 2F270000 		.4byte	0x272f
 6659 0ec3 18       		.uleb128 0x18
 6660 0ec4 C0000000 		.4byte	.LVL216
 6661 0ec8 65270000 		.4byte	0x2765
 6662 0ecc E60E0000 		.4byte	0xee6
 6663 0ed0 19       		.uleb128 0x19
 6664 0ed1 01       		.uleb128 0x1
 6665 0ed2 50       		.byte	0x50
 6666 0ed3 02       		.uleb128 0x2
 6667 0ed4 74       		.byte	0x74
 6668 0ed5 00       		.sleb128 0
 6669 0ed6 19       		.uleb128 0x19
 6670 0ed7 01       		.uleb128 0x1
 6671 0ed8 51       		.byte	0x51
 6672 0ed9 05       		.uleb128 0x5
 6673 0eda 03       		.byte	0x3
 6674 0edb 14010000 		.4byte	.LC55
 6675 0edf 19       		.uleb128 0x19
 6676 0ee0 01       		.uleb128 0x1
 6677 0ee1 52       		.byte	0x52
 6678 0ee2 02       		.uleb128 0x2
 6679 0ee3 75       		.byte	0x75
 6680 0ee4 00       		.sleb128 0
 6681 0ee5 00       		.byte	0
 6682 0ee6 1A       		.uleb128 0x1a
 6683 0ee7 C6000000 		.4byte	.LVL217
 6684 0eeb 43270000 		.4byte	0x2743
 6685 0eef 19       		.uleb128 0x19
 6686 0ef0 01       		.uleb128 0x1
 6687 0ef1 50       		.byte	0x50
 6688 0ef2 02       		.uleb128 0x2
 6689 0ef3 74       		.byte	0x74
 6690 0ef4 00       		.sleb128 0
 6691 0ef5 00       		.byte	0
 6692 0ef6 00       		.byte	0
 6693 0ef7 17       		.uleb128 0x17
ARM GAS  C:\Users\TERENC~1\AppData\Local\Temp\cc9BPywF.s 			page 143


 6694 0ef8 0C000000 		.4byte	.LVL191
 6695 0efc 4E270000 		.4byte	0x274e
 6696 0f00 17       		.uleb128 0x17
 6697 0f01 46000000 		.4byte	.LVL199
 6698 0f05 5A270000 		.4byte	0x275a
 6699 0f09 18       		.uleb128 0x18
 6700 0f0a 52000000 		.4byte	.LVL201
 6701 0f0e 86270000 		.4byte	0x2786
 6702 0f12 210F0000 		.4byte	0xf21
 6703 0f16 19       		.uleb128 0x19
 6704 0f17 01       		.uleb128 0x1
 6705 0f18 51       		.byte	0x51
 6706 0f19 01       		.uleb128 0x1
 6707 0f1a 30       		.byte	0x30
 6708 0f1b 19       		.uleb128 0x19
 6709 0f1c 01       		.uleb128 0x1
 6710 0f1d 52       		.byte	0x52
 6711 0f1e 01       		.uleb128 0x1
 6712 0f1f 40       		.byte	0x40
 6713 0f20 00       		.byte	0
 6714 0f21 18       		.uleb128 0x18
 6715 0f22 5A000000 		.4byte	.LVL203
 6716 0f26 91270000 		.4byte	0x2791
 6717 0f2a 350F0000 		.4byte	0xf35
 6718 0f2e 19       		.uleb128 0x19
 6719 0f2f 01       		.uleb128 0x1
 6720 0f30 50       		.byte	0x50
 6721 0f31 02       		.uleb128 0x2
 6722 0f32 75       		.byte	0x75
 6723 0f33 00       		.sleb128 0
 6724 0f34 00       		.byte	0
 6725 0f35 17       		.uleb128 0x17
 6726 0f36 62000000 		.4byte	.LVL205
 6727 0f3a 4E270000 		.4byte	0x274e
 6728 0f3e 17       		.uleb128 0x17
 6729 0f3f 98000000 		.4byte	.LVL212
 6730 0f43 4E270000 		.4byte	0x274e
 6731 0f47 00       		.byte	0
 6732 0f48 12       		.uleb128 0x12
 6733 0f49 D7000000 		.4byte	.LASF62
 6734 0f4d 01       		.byte	0x1
 6735 0f4e 4901     		.2byte	0x149
 6736 0f50 25000000 		.4byte	0x25
 6737 0f54 00000000 		.4byte	.LFB9
 6738 0f58 A0000000 		.4byte	.LFE9-.LFB9
 6739 0f5c 01       		.uleb128 0x1
 6740 0f5d 9C       		.byte	0x9c
 6741 0f5e 7B100000 		.4byte	0x107b
 6742 0f62 13       		.uleb128 0x13
 6743 0f63 D0040000 		.4byte	.LASF46
 6744 0f67 01       		.byte	0x1
 6745 0f68 4901     		.2byte	0x149
 6746 0f6a 25000000 		.4byte	0x25
 6747 0f6e 24090000 		.4byte	.LLST62
 6748 0f72 13       		.uleb128 0x13
 6749 0f73 F8040000 		.4byte	.LASF47
 6750 0f77 01       		.byte	0x1
ARM GAS  C:\Users\TERENC~1\AppData\Local\Temp\cc9BPywF.s 			page 144


 6751 0f78 4901     		.2byte	0x149
 6752 0f7a 25020000 		.4byte	0x225
 6753 0f7e 71090000 		.4byte	.LLST63
 6754 0f82 16       		.uleb128 0x16
 6755 0f83 6900     		.ascii	"i\000"
 6756 0f85 01       		.byte	0x1
 6757 0f86 4B01     		.2byte	0x14b
 6758 0f88 25000000 		.4byte	0x25
 6759 0f8c AB090000 		.4byte	.LLST64
 6760 0f90 16       		.uleb128 0x16
 6761 0f91 72656700 		.ascii	"reg\000"
 6762 0f95 01       		.byte	0x1
 6763 0f96 4C01     		.2byte	0x14c
 6764 0f98 B9000000 		.4byte	0xb9
 6765 0f9c E3090000 		.4byte	.LLST65
 6766 0fa0 15       		.uleb128 0x15
 6767 0fa1 0E000000 		.4byte	.LBB26
 6768 0fa5 2A000000 		.4byte	.LBE26-.LBB26
 6769 0fa9 F80F0000 		.4byte	0xff8
 6770 0fad 16       		.uleb128 0x16
 6771 0fae 733100   		.ascii	"s1\000"
 6772 0fb1 01       		.byte	0x1
 6773 0fb2 5201     		.2byte	0x152
 6774 0fb4 CF000000 		.4byte	0xcf
 6775 0fb8 010A0000 		.4byte	.LLST66
 6776 0fbc 17       		.uleb128 0x17
 6777 0fbd 16000000 		.4byte	.LVL225
 6778 0fc1 2F270000 		.4byte	0x272f
 6779 0fc5 18       		.uleb128 0x18
 6780 0fc6 32000000 		.4byte	.LVL227
 6781 0fca 3A270000 		.4byte	0x273a
 6782 0fce E70F0000 		.4byte	0xfe7
 6783 0fd2 19       		.uleb128 0x19
 6784 0fd3 01       		.uleb128 0x1
 6785 0fd4 50       		.byte	0x50
 6786 0fd5 02       		.uleb128 0x2
 6787 0fd6 74       		.byte	0x74
 6788 0fd7 00       		.sleb128 0
 6789 0fd8 19       		.uleb128 0x19
 6790 0fd9 01       		.uleb128 0x1
 6791 0fda 51       		.byte	0x51
 6792 0fdb 05       		.uleb128 0x5
 6793 0fdc 03       		.byte	0x3
 6794 0fdd 0C000000 		.4byte	.LC6
 6795 0fe1 19       		.uleb128 0x19
 6796 0fe2 01       		.uleb128 0x1
 6797 0fe3 52       		.byte	0x52
 6798 0fe4 01       		.uleb128 0x1
 6799 0fe5 4E       		.byte	0x4e
 6800 0fe6 00       		.byte	0
 6801 0fe7 1A       		.uleb128 0x1a
 6802 0fe8 38000000 		.4byte	.LVL228
 6803 0fec 43270000 		.4byte	0x2743
 6804 0ff0 19       		.uleb128 0x19
 6805 0ff1 01       		.uleb128 0x1
 6806 0ff2 50       		.byte	0x50
 6807 0ff3 02       		.uleb128 0x2
ARM GAS  C:\Users\TERENC~1\AppData\Local\Temp\cc9BPywF.s 			page 145


 6808 0ff4 74       		.byte	0x74
 6809 0ff5 00       		.sleb128 0
 6810 0ff6 00       		.byte	0
 6811 0ff7 00       		.byte	0
 6812 0ff8 15       		.uleb128 0x15
 6813 0ff9 4E000000 		.4byte	.LBB27
 6814 0ffd 30000000 		.4byte	.LBE27-.LBB27
 6815 1001 5F100000 		.4byte	0x105f
 6816 1005 16       		.uleb128 0x16
 6817 1006 733100   		.ascii	"s1\000"
 6818 1009 01       		.byte	0x1
 6819 100a 5801     		.2byte	0x158
 6820 100c CF000000 		.4byte	0xcf
 6821 1010 140A0000 		.4byte	.LLST67
 6822 1014 17       		.uleb128 0x17
 6823 1015 56000000 		.4byte	.LVL235
 6824 1019 2F270000 		.4byte	0x272f
 6825 101d 18       		.uleb128 0x18
 6826 101e 6C000000 		.4byte	.LVL236
 6827 1022 9C270000 		.4byte	0x279c
 6828 1026 31100000 		.4byte	0x1031
 6829 102a 19       		.uleb128 0x19
 6830 102b 01       		.uleb128 0x1
 6831 102c 50       		.byte	0x50
 6832 102d 02       		.uleb128 0x2
 6833 102e 75       		.byte	0x75
 6834 102f 00       		.sleb128 0
 6835 1030 00       		.byte	0
 6836 1031 18       		.uleb128 0x18
 6837 1032 78000000 		.4byte	.LVL238
 6838 1036 65270000 		.4byte	0x2765
 6839 103a 4E100000 		.4byte	0x104e
 6840 103e 19       		.uleb128 0x19
 6841 103f 01       		.uleb128 0x1
 6842 1040 50       		.byte	0x50
 6843 1041 02       		.uleb128 0x2
 6844 1042 74       		.byte	0x74
 6845 1043 00       		.sleb128 0
 6846 1044 19       		.uleb128 0x19
 6847 1045 01       		.uleb128 0x1
 6848 1046 51       		.byte	0x51
 6849 1047 05       		.uleb128 0x5
 6850 1048 03       		.byte	0x3
 6851 1049 2C010000 		.4byte	.LC69
 6852 104d 00       		.byte	0
 6853 104e 1A       		.uleb128 0x1a
 6854 104f 7E000000 		.4byte	.LVL239
 6855 1053 43270000 		.4byte	0x2743
 6856 1057 19       		.uleb128 0x19
 6857 1058 01       		.uleb128 0x1
 6858 1059 50       		.byte	0x50
 6859 105a 02       		.uleb128 0x2
 6860 105b 74       		.byte	0x74
 6861 105c 00       		.sleb128 0
 6862 105d 00       		.byte	0
 6863 105e 00       		.byte	0
 6864 105f 17       		.uleb128 0x17
ARM GAS  C:\Users\TERENC~1\AppData\Local\Temp\cc9BPywF.s 			page 146


 6865 1060 0A000000 		.4byte	.LVL223
 6866 1064 4E270000 		.4byte	0x274e
 6867 1068 17       		.uleb128 0x17
 6868 1069 44000000 		.4byte	.LVL231
 6869 106d 5A270000 		.4byte	0x275a
 6870 1071 17       		.uleb128 0x17
 6871 1072 4A000000 		.4byte	.LVL233
 6872 1076 4E270000 		.4byte	0x274e
 6873 107a 00       		.byte	0
 6874 107b 12       		.uleb128 0x12
 6875 107c 93000000 		.4byte	.LASF63
 6876 1080 01       		.byte	0x1
 6877 1081 5D01     		.2byte	0x15d
 6878 1083 25000000 		.4byte	0x25
 6879 1087 00000000 		.4byte	.LFB10
 6880 108b 4C000000 		.4byte	.LFE10-.LFB10
 6881 108f 01       		.uleb128 0x1
 6882 1090 9C       		.byte	0x9c
 6883 1091 20110000 		.4byte	0x1120
 6884 1095 13       		.uleb128 0x13
 6885 1096 D0040000 		.4byte	.LASF46
 6886 109a 01       		.byte	0x1
 6887 109b 5D01     		.2byte	0x15d
 6888 109d 25000000 		.4byte	0x25
 6889 10a1 270A0000 		.4byte	.LLST68
 6890 10a5 13       		.uleb128 0x13
 6891 10a6 F8040000 		.4byte	.LASF47
 6892 10aa 01       		.byte	0x1
 6893 10ab 5D01     		.2byte	0x15d
 6894 10ad 25020000 		.4byte	0x225
 6895 10b1 480A0000 		.4byte	.LLST69
 6896 10b5 15       		.uleb128 0x15
 6897 10b6 0E000000 		.4byte	.LBB28
 6898 10ba 2A000000 		.4byte	.LBE28-.LBB28
 6899 10be 0D110000 		.4byte	0x110d
 6900 10c2 16       		.uleb128 0x16
 6901 10c3 733100   		.ascii	"s1\000"
 6902 10c6 01       		.byte	0x1
 6903 10c7 6001     		.2byte	0x160
 6904 10c9 CF000000 		.4byte	0xcf
 6905 10cd 690A0000 		.4byte	.LLST70
 6906 10d1 17       		.uleb128 0x17
 6907 10d2 16000000 		.4byte	.LVL247
 6908 10d6 2F270000 		.4byte	0x272f
 6909 10da 18       		.uleb128 0x18
 6910 10db 32000000 		.4byte	.LVL249
 6911 10df 3A270000 		.4byte	0x273a
 6912 10e3 FC100000 		.4byte	0x10fc
 6913 10e7 19       		.uleb128 0x19
 6914 10e8 01       		.uleb128 0x1
 6915 10e9 50       		.byte	0x50
 6916 10ea 02       		.uleb128 0x2
 6917 10eb 74       		.byte	0x74
 6918 10ec 00       		.sleb128 0
 6919 10ed 19       		.uleb128 0x19
 6920 10ee 01       		.uleb128 0x1
 6921 10ef 51       		.byte	0x51
ARM GAS  C:\Users\TERENC~1\AppData\Local\Temp\cc9BPywF.s 			page 147


 6922 10f0 05       		.uleb128 0x5
 6923 10f1 03       		.byte	0x3
 6924 10f2 3C010000 		.4byte	.LC73
 6925 10f6 19       		.uleb128 0x19
 6926 10f7 01       		.uleb128 0x1
 6927 10f8 52       		.byte	0x52
 6928 10f9 01       		.uleb128 0x1
 6929 10fa 39       		.byte	0x39
 6930 10fb 00       		.byte	0
 6931 10fc 1A       		.uleb128 0x1a
 6932 10fd 38000000 		.4byte	.LVL250
 6933 1101 43270000 		.4byte	0x2743
 6934 1105 19       		.uleb128 0x19
 6935 1106 01       		.uleb128 0x1
 6936 1107 50       		.byte	0x50
 6937 1108 02       		.uleb128 0x2
 6938 1109 74       		.byte	0x74
 6939 110a 00       		.sleb128 0
 6940 110b 00       		.byte	0
 6941 110c 00       		.byte	0
 6942 110d 17       		.uleb128 0x17
 6943 110e 06000000 		.4byte	.LVL244
 6944 1112 A7270000 		.4byte	0x27a7
 6945 1116 17       		.uleb128 0x17
 6946 1117 0A000000 		.4byte	.LVL245
 6947 111b 4E270000 		.4byte	0x274e
 6948 111f 00       		.byte	0
 6949 1120 12       		.uleb128 0x12
 6950 1121 BD030000 		.4byte	.LASF64
 6951 1125 01       		.byte	0x1
 6952 1126 6401     		.2byte	0x164
 6953 1128 25000000 		.4byte	0x25
 6954 112c 00000000 		.4byte	.LFB11
 6955 1130 5C000000 		.4byte	.LFE11-.LFB11
 6956 1134 01       		.uleb128 0x1
 6957 1135 9C       		.byte	0x9c
 6958 1136 C0110000 		.4byte	0x11c0
 6959 113a 13       		.uleb128 0x13
 6960 113b D0040000 		.4byte	.LASF46
 6961 113f 01       		.byte	0x1
 6962 1140 6401     		.2byte	0x164
 6963 1142 25000000 		.4byte	0x25
 6964 1146 7C0A0000 		.4byte	.LLST71
 6965 114a 13       		.uleb128 0x13
 6966 114b F8040000 		.4byte	.LASF47
 6967 114f 01       		.byte	0x1
 6968 1150 6401     		.2byte	0x164
 6969 1152 25020000 		.4byte	0x225
 6970 1156 9D0A0000 		.4byte	.LLST72
 6971 115a 15       		.uleb128 0x15
 6972 115b 0A000000 		.4byte	.LBB29
 6973 115f 3A000000 		.4byte	.LBE29-.LBB29
 6974 1163 B6110000 		.4byte	0x11b6
 6975 1167 16       		.uleb128 0x16
 6976 1168 733100   		.ascii	"s1\000"
 6977 116b 01       		.byte	0x1
 6978 116c 6601     		.2byte	0x166
ARM GAS  C:\Users\TERENC~1\AppData\Local\Temp\cc9BPywF.s 			page 148


 6979 116e CF000000 		.4byte	0xcf
 6980 1172 BE0A0000 		.4byte	.LLST73
 6981 1176 17       		.uleb128 0x17
 6982 1177 12000000 		.4byte	.LVL254
 6983 117b 2F270000 		.4byte	0x272f
 6984 117f 17       		.uleb128 0x17
 6985 1180 26000000 		.4byte	.LVL255
 6986 1184 B2270000 		.4byte	0x27b2
 6987 1188 18       		.uleb128 0x18
 6988 1189 3E000000 		.4byte	.LVL257
 6989 118d 65270000 		.4byte	0x2765
 6990 1191 A5110000 		.4byte	0x11a5
 6991 1195 19       		.uleb128 0x19
 6992 1196 01       		.uleb128 0x1
 6993 1197 50       		.byte	0x50
 6994 1198 02       		.uleb128 0x2
 6995 1199 74       		.byte	0x74
 6996 119a 00       		.sleb128 0
 6997 119b 19       		.uleb128 0x19
 6998 119c 01       		.uleb128 0x1
 6999 119d 51       		.byte	0x51
 7000 119e 05       		.uleb128 0x5
 7001 119f 03       		.byte	0x3
 7002 11a0 48010000 		.4byte	.LC77
 7003 11a4 00       		.byte	0
 7004 11a5 1A       		.uleb128 0x1a
 7005 11a6 44000000 		.4byte	.LVL258
 7006 11aa 43270000 		.4byte	0x2743
 7007 11ae 19       		.uleb128 0x19
 7008 11af 01       		.uleb128 0x1
 7009 11b0 50       		.byte	0x50
 7010 11b1 02       		.uleb128 0x2
 7011 11b2 74       		.byte	0x74
 7012 11b3 00       		.sleb128 0
 7013 11b4 00       		.byte	0
 7014 11b5 00       		.byte	0
 7015 11b6 17       		.uleb128 0x17
 7016 11b7 06000000 		.4byte	.LVL252
 7017 11bb 4E270000 		.4byte	0x274e
 7018 11bf 00       		.byte	0
 7019 11c0 12       		.uleb128 0x12
 7020 11c1 0C000000 		.4byte	.LASF65
 7021 11c5 01       		.byte	0x1
 7022 11c6 6A01     		.2byte	0x16a
 7023 11c8 25000000 		.4byte	0x25
 7024 11cc 00000000 		.4byte	.LFB12
 7025 11d0 5C000000 		.4byte	.LFE12-.LFB12
 7026 11d4 01       		.uleb128 0x1
 7027 11d5 9C       		.byte	0x9c
 7028 11d6 60120000 		.4byte	0x1260
 7029 11da 13       		.uleb128 0x13
 7030 11db D0040000 		.4byte	.LASF46
 7031 11df 01       		.byte	0x1
 7032 11e0 6A01     		.2byte	0x16a
 7033 11e2 25000000 		.4byte	0x25
 7034 11e6 D10A0000 		.4byte	.LLST74
 7035 11ea 13       		.uleb128 0x13
ARM GAS  C:\Users\TERENC~1\AppData\Local\Temp\cc9BPywF.s 			page 149


 7036 11eb F8040000 		.4byte	.LASF47
 7037 11ef 01       		.byte	0x1
 7038 11f0 6A01     		.2byte	0x16a
 7039 11f2 25020000 		.4byte	0x225
 7040 11f6 F20A0000 		.4byte	.LLST75
 7041 11fa 15       		.uleb128 0x15
 7042 11fb 0A000000 		.4byte	.LBB30
 7043 11ff 3A000000 		.4byte	.LBE30-.LBB30
 7044 1203 56120000 		.4byte	0x1256
 7045 1207 16       		.uleb128 0x16
 7046 1208 733100   		.ascii	"s1\000"
 7047 120b 01       		.byte	0x1
 7048 120c 6C01     		.2byte	0x16c
 7049 120e CF000000 		.4byte	0xcf
 7050 1212 130B0000 		.4byte	.LLST76
 7051 1216 17       		.uleb128 0x17
 7052 1217 12000000 		.4byte	.LVL262
 7053 121b 2F270000 		.4byte	0x272f
 7054 121f 17       		.uleb128 0x17
 7055 1220 26000000 		.4byte	.LVL263
 7056 1224 BD270000 		.4byte	0x27bd
 7057 1228 18       		.uleb128 0x18
 7058 1229 3E000000 		.4byte	.LVL265
 7059 122d 65270000 		.4byte	0x2765
 7060 1231 45120000 		.4byte	0x1245
 7061 1235 19       		.uleb128 0x19
 7062 1236 01       		.uleb128 0x1
 7063 1237 50       		.byte	0x50
 7064 1238 02       		.uleb128 0x2
 7065 1239 74       		.byte	0x74
 7066 123a 00       		.sleb128 0
 7067 123b 19       		.uleb128 0x19
 7068 123c 01       		.uleb128 0x1
 7069 123d 51       		.byte	0x51
 7070 123e 05       		.uleb128 0x5
 7071 123f 03       		.byte	0x3
 7072 1240 48010000 		.4byte	.LC77
 7073 1244 00       		.byte	0
 7074 1245 1A       		.uleb128 0x1a
 7075 1246 44000000 		.4byte	.LVL266
 7076 124a 43270000 		.4byte	0x2743
 7077 124e 19       		.uleb128 0x19
 7078 124f 01       		.uleb128 0x1
 7079 1250 50       		.byte	0x50
 7080 1251 02       		.uleb128 0x2
 7081 1252 74       		.byte	0x74
 7082 1253 00       		.sleb128 0
 7083 1254 00       		.byte	0
 7084 1255 00       		.byte	0
 7085 1256 17       		.uleb128 0x17
 7086 1257 06000000 		.4byte	.LVL260
 7087 125b 4E270000 		.4byte	0x274e
 7088 125f 00       		.byte	0
 7089 1260 12       		.uleb128 0x12
 7090 1261 91030000 		.4byte	.LASF66
 7091 1265 01       		.byte	0x1
 7092 1266 7001     		.2byte	0x170
ARM GAS  C:\Users\TERENC~1\AppData\Local\Temp\cc9BPywF.s 			page 150


 7093 1268 25000000 		.4byte	0x25
 7094 126c 00000000 		.4byte	.LFB13
 7095 1270 5C000000 		.4byte	.LFE13-.LFB13
 7096 1274 01       		.uleb128 0x1
 7097 1275 9C       		.byte	0x9c
 7098 1276 00130000 		.4byte	0x1300
 7099 127a 13       		.uleb128 0x13
 7100 127b D0040000 		.4byte	.LASF46
 7101 127f 01       		.byte	0x1
 7102 1280 7001     		.2byte	0x170
 7103 1282 25000000 		.4byte	0x25
 7104 1286 260B0000 		.4byte	.LLST77
 7105 128a 13       		.uleb128 0x13
 7106 128b F8040000 		.4byte	.LASF47
 7107 128f 01       		.byte	0x1
 7108 1290 7001     		.2byte	0x170
 7109 1292 25020000 		.4byte	0x225
 7110 1296 470B0000 		.4byte	.LLST78
 7111 129a 15       		.uleb128 0x15
 7112 129b 0A000000 		.4byte	.LBB31
 7113 129f 3A000000 		.4byte	.LBE31-.LBB31
 7114 12a3 F6120000 		.4byte	0x12f6
 7115 12a7 16       		.uleb128 0x16
 7116 12a8 733100   		.ascii	"s1\000"
 7117 12ab 01       		.byte	0x1
 7118 12ac 7201     		.2byte	0x172
 7119 12ae CF000000 		.4byte	0xcf
 7120 12b2 680B0000 		.4byte	.LLST79
 7121 12b6 17       		.uleb128 0x17
 7122 12b7 12000000 		.4byte	.LVL270
 7123 12bb 2F270000 		.4byte	0x272f
 7124 12bf 17       		.uleb128 0x17
 7125 12c0 26000000 		.4byte	.LVL271
 7126 12c4 C8270000 		.4byte	0x27c8
 7127 12c8 18       		.uleb128 0x18
 7128 12c9 3E000000 		.4byte	.LVL273
 7129 12cd 65270000 		.4byte	0x2765
 7130 12d1 E5120000 		.4byte	0x12e5
 7131 12d5 19       		.uleb128 0x19
 7132 12d6 01       		.uleb128 0x1
 7133 12d7 50       		.byte	0x50
 7134 12d8 02       		.uleb128 0x2
 7135 12d9 74       		.byte	0x74
 7136 12da 00       		.sleb128 0
 7137 12db 19       		.uleb128 0x19
 7138 12dc 01       		.uleb128 0x1
 7139 12dd 51       		.byte	0x51
 7140 12de 05       		.uleb128 0x5
 7141 12df 03       		.byte	0x3
 7142 12e0 48010000 		.4byte	.LC77
 7143 12e4 00       		.byte	0
 7144 12e5 1A       		.uleb128 0x1a
 7145 12e6 44000000 		.4byte	.LVL274
 7146 12ea 43270000 		.4byte	0x2743
 7147 12ee 19       		.uleb128 0x19
 7148 12ef 01       		.uleb128 0x1
 7149 12f0 50       		.byte	0x50
ARM GAS  C:\Users\TERENC~1\AppData\Local\Temp\cc9BPywF.s 			page 151


 7150 12f1 02       		.uleb128 0x2
 7151 12f2 74       		.byte	0x74
 7152 12f3 00       		.sleb128 0
 7153 12f4 00       		.byte	0
 7154 12f5 00       		.byte	0
 7155 12f6 17       		.uleb128 0x17
 7156 12f7 06000000 		.4byte	.LVL268
 7157 12fb 4E270000 		.4byte	0x274e
 7158 12ff 00       		.byte	0
 7159 1300 12       		.uleb128 0x12
 7160 1301 82060000 		.4byte	.LASF67
 7161 1305 01       		.byte	0x1
 7162 1306 7601     		.2byte	0x176
 7163 1308 25000000 		.4byte	0x25
 7164 130c 00000000 		.4byte	.LFB14
 7165 1310 5C000000 		.4byte	.LFE14-.LFB14
 7166 1314 01       		.uleb128 0x1
 7167 1315 9C       		.byte	0x9c
 7168 1316 A0130000 		.4byte	0x13a0
 7169 131a 13       		.uleb128 0x13
 7170 131b D0040000 		.4byte	.LASF46
 7171 131f 01       		.byte	0x1
 7172 1320 7601     		.2byte	0x176
 7173 1322 25000000 		.4byte	0x25
 7174 1326 7B0B0000 		.4byte	.LLST80
 7175 132a 13       		.uleb128 0x13
 7176 132b F8040000 		.4byte	.LASF47
 7177 132f 01       		.byte	0x1
 7178 1330 7601     		.2byte	0x176
 7179 1332 25020000 		.4byte	0x225
 7180 1336 9C0B0000 		.4byte	.LLST81
 7181 133a 15       		.uleb128 0x15
 7182 133b 0A000000 		.4byte	.LBB32
 7183 133f 3A000000 		.4byte	.LBE32-.LBB32
 7184 1343 96130000 		.4byte	0x1396
 7185 1347 16       		.uleb128 0x16
 7186 1348 733100   		.ascii	"s1\000"
 7187 134b 01       		.byte	0x1
 7188 134c 7801     		.2byte	0x178
 7189 134e CF000000 		.4byte	0xcf
 7190 1352 BD0B0000 		.4byte	.LLST82
 7191 1356 17       		.uleb128 0x17
 7192 1357 12000000 		.4byte	.LVL278
 7193 135b 2F270000 		.4byte	0x272f
 7194 135f 17       		.uleb128 0x17
 7195 1360 26000000 		.4byte	.LVL279
 7196 1364 D3270000 		.4byte	0x27d3
 7197 1368 18       		.uleb128 0x18
 7198 1369 3E000000 		.4byte	.LVL281
 7199 136d 65270000 		.4byte	0x2765
 7200 1371 85130000 		.4byte	0x1385
 7201 1375 19       		.uleb128 0x19
 7202 1376 01       		.uleb128 0x1
 7203 1377 50       		.byte	0x50
 7204 1378 02       		.uleb128 0x2
 7205 1379 74       		.byte	0x74
 7206 137a 00       		.sleb128 0
ARM GAS  C:\Users\TERENC~1\AppData\Local\Temp\cc9BPywF.s 			page 152


 7207 137b 19       		.uleb128 0x19
 7208 137c 01       		.uleb128 0x1
 7209 137d 51       		.byte	0x51
 7210 137e 05       		.uleb128 0x5
 7211 137f 03       		.byte	0x3
 7212 1380 48010000 		.4byte	.LC77
 7213 1384 00       		.byte	0
 7214 1385 1A       		.uleb128 0x1a
 7215 1386 44000000 		.4byte	.LVL282
 7216 138a 43270000 		.4byte	0x2743
 7217 138e 19       		.uleb128 0x19
 7218 138f 01       		.uleb128 0x1
 7219 1390 50       		.byte	0x50
 7220 1391 02       		.uleb128 0x2
 7221 1392 74       		.byte	0x74
 7222 1393 00       		.sleb128 0
 7223 1394 00       		.byte	0
 7224 1395 00       		.byte	0
 7225 1396 17       		.uleb128 0x17
 7226 1397 06000000 		.4byte	.LVL276
 7227 139b 4E270000 		.4byte	0x274e
 7228 139f 00       		.byte	0
 7229 13a0 12       		.uleb128 0x12
 7230 13a1 4A030000 		.4byte	.LASF68
 7231 13a5 01       		.byte	0x1
 7232 13a6 7C01     		.2byte	0x17c
 7233 13a8 25000000 		.4byte	0x25
 7234 13ac 00000000 		.4byte	.LFB15
 7235 13b0 68000000 		.4byte	.LFE15-.LFB15
 7236 13b4 01       		.uleb128 0x1
 7237 13b5 9C       		.byte	0x9c
 7238 13b6 6A140000 		.4byte	0x146a
 7239 13ba 13       		.uleb128 0x13
 7240 13bb D0040000 		.4byte	.LASF46
 7241 13bf 01       		.byte	0x1
 7242 13c0 7C01     		.2byte	0x17c
 7243 13c2 25000000 		.4byte	0x25
 7244 13c6 D00B0000 		.4byte	.LLST83
 7245 13ca 13       		.uleb128 0x13
 7246 13cb F8040000 		.4byte	.LASF47
 7247 13cf 01       		.byte	0x1
 7248 13d0 7C01     		.2byte	0x17c
 7249 13d2 25020000 		.4byte	0x225
 7250 13d6 F10B0000 		.4byte	.LLST84
 7251 13da 21       		.uleb128 0x21
 7252 13db 63726300 		.ascii	"crc\000"
 7253 13df 01       		.byte	0x1
 7254 13e0 7E01     		.2byte	0x17e
 7255 13e2 CF000000 		.4byte	0xcf
 7256 13e6 02       		.uleb128 0x2
 7257 13e7 91       		.byte	0x91
 7258 13e8 6C       		.sleb128 -20
 7259 13e9 16       		.uleb128 0x16
 7260 13ea 72657400 		.ascii	"ret\000"
 7261 13ee 01       		.byte	0x1
 7262 13ef 7F01     		.2byte	0x17f
 7263 13f1 6A140000 		.4byte	0x146a
ARM GAS  C:\Users\TERENC~1\AppData\Local\Temp\cc9BPywF.s 			page 153


 7264 13f5 120C0000 		.4byte	.LLST85
 7265 13f9 15       		.uleb128 0x15
 7266 13fa 14000000 		.4byte	.LBB33
 7267 13fe 38000000 		.4byte	.LBE33-.LBB33
 7268 1402 4C140000 		.4byte	0x144c
 7269 1406 16       		.uleb128 0x16
 7270 1407 733100   		.ascii	"s1\000"
 7271 140a 01       		.byte	0x1
 7272 140b 8101     		.2byte	0x181
 7273 140d CF000000 		.4byte	0xcf
 7274 1411 300C0000 		.4byte	.LLST86
 7275 1415 17       		.uleb128 0x17
 7276 1416 1C000000 		.4byte	.LVL289
 7277 141a 2F270000 		.4byte	0x272f
 7278 141e 18       		.uleb128 0x18
 7279 141f 46000000 		.4byte	.LVL291
 7280 1423 65270000 		.4byte	0x2765
 7281 1427 3B140000 		.4byte	0x143b
 7282 142b 19       		.uleb128 0x19
 7283 142c 01       		.uleb128 0x1
 7284 142d 50       		.byte	0x50
 7285 142e 02       		.uleb128 0x2
 7286 142f 74       		.byte	0x74
 7287 1430 00       		.sleb128 0
 7288 1431 19       		.uleb128 0x19
 7289 1432 01       		.uleb128 0x1
 7290 1433 51       		.byte	0x51
 7291 1434 05       		.uleb128 0x5
 7292 1435 03       		.byte	0x3
 7293 1436 54010000 		.4byte	.LC94
 7294 143a 00       		.byte	0
 7295 143b 1A       		.uleb128 0x1a
 7296 143c 4C000000 		.4byte	.LVL292
 7297 1440 43270000 		.4byte	0x2743
 7298 1444 19       		.uleb128 0x19
 7299 1445 01       		.uleb128 0x1
 7300 1446 50       		.byte	0x50
 7301 1447 02       		.uleb128 0x2
 7302 1448 74       		.byte	0x74
 7303 1449 00       		.sleb128 0
 7304 144a 00       		.byte	0
 7305 144b 00       		.byte	0
 7306 144c 18       		.uleb128 0x18
 7307 144d 0A000000 		.4byte	.LVL285
 7308 1451 DE270000 		.4byte	0x27de
 7309 1455 60140000 		.4byte	0x1460
 7310 1459 19       		.uleb128 0x19
 7311 145a 01       		.uleb128 0x1
 7312 145b 50       		.byte	0x50
 7313 145c 02       		.uleb128 0x2
 7314 145d 91       		.byte	0x91
 7315 145e 6C       		.sleb128 -20
 7316 145f 00       		.byte	0
 7317 1460 17       		.uleb128 0x17
 7318 1461 10000000 		.4byte	.LVL287
 7319 1465 4E270000 		.4byte	0x274e
 7320 1469 00       		.byte	0
ARM GAS  C:\Users\TERENC~1\AppData\Local\Temp\cc9BPywF.s 			page 154


 7321 146a 03       		.uleb128 0x3
 7322 146b 01       		.byte	0x1
 7323 146c 02       		.byte	0x2
 7324 146d 62030000 		.4byte	.LASF69
 7325 1471 12       		.uleb128 0x12
 7326 1472 7C080000 		.4byte	.LASF70
 7327 1476 01       		.byte	0x1
 7328 1477 8601     		.2byte	0x186
 7329 1479 25000000 		.4byte	0x25
 7330 147d 00000000 		.4byte	.LFB16
 7331 1481 FC000000 		.4byte	.LFE16-.LFB16
 7332 1485 01       		.uleb128 0x1
 7333 1486 9C       		.byte	0x9c
 7334 1487 22160000 		.4byte	0x1622
 7335 148b 13       		.uleb128 0x13
 7336 148c D0040000 		.4byte	.LASF46
 7337 1490 01       		.byte	0x1
 7338 1491 8601     		.2byte	0x186
 7339 1493 25000000 		.4byte	0x25
 7340 1497 430C0000 		.4byte	.LLST87
 7341 149b 13       		.uleb128 0x13
 7342 149c F8040000 		.4byte	.LASF47
 7343 14a0 01       		.byte	0x1
 7344 14a1 8601     		.2byte	0x186
 7345 14a3 25020000 		.4byte	0x225
 7346 14a7 8C0C0000 		.4byte	.LLST88
 7347 14ab 16       		.uleb128 0x16
 7348 14ac 6900     		.ascii	"i\000"
 7349 14ae 01       		.byte	0x1
 7350 14af 8801     		.2byte	0x188
 7351 14b1 25000000 		.4byte	0x25
 7352 14b5 CE0C0000 		.4byte	.LLST89
 7353 14b9 16       		.uleb128 0x16
 7354 14ba 6A00     		.ascii	"j\000"
 7355 14bc 01       		.byte	0x1
 7356 14bd 8801     		.2byte	0x188
 7357 14bf 25000000 		.4byte	0x25
 7358 14c3 060D0000 		.4byte	.LLST90
 7359 14c7 20       		.uleb128 0x20
 7360 14c8 2A070000 		.4byte	.LASF71
 7361 14cc 01       		.byte	0x1
 7362 14cd 8901     		.2byte	0x189
 7363 14cf C4000000 		.4byte	0xc4
 7364 14d3 300D0000 		.4byte	.LLST91
 7365 14d7 22       		.uleb128 0x22
 7366 14d8 1A040000 		.4byte	.LASF61
 7367 14dc 01       		.byte	0x1
 7368 14dd 8A01     		.2byte	0x18a
 7369 14df 22160000 		.4byte	0x1622
 7370 14e3 03       		.uleb128 0x3
 7371 14e4 91       		.byte	0x91
 7372 14e5 A87F     		.sleb128 -88
 7373 14e7 21       		.uleb128 0x21
 7374 14e8 68657800 		.ascii	"hex\000"
 7375 14ec 01       		.byte	0x1
 7376 14ed 8B01     		.2byte	0x18b
 7377 14ef 32160000 		.4byte	0x1632
ARM GAS  C:\Users\TERENC~1\AppData\Local\Temp\cc9BPywF.s 			page 155


 7378 14f3 03       		.uleb128 0x3
 7379 14f4 91       		.byte	0x91
 7380 14f5 A47F     		.sleb128 -92
 7381 14f7 15       		.uleb128 0x15
 7382 14f8 14000000 		.4byte	.LBB34
 7383 14fc 2A000000 		.4byte	.LBE34-.LBB34
 7384 1500 50150000 		.4byte	0x1550
 7385 1504 16       		.uleb128 0x16
 7386 1505 733100   		.ascii	"s1\000"
 7387 1508 01       		.byte	0x1
 7388 1509 9101     		.2byte	0x191
 7389 150b CF000000 		.4byte	0xcf
 7390 150f 4E0D0000 		.4byte	.LLST92
 7391 1513 17       		.uleb128 0x17
 7392 1514 1C000000 		.4byte	.LVL298
 7393 1518 2F270000 		.4byte	0x272f
 7394 151c 18       		.uleb128 0x18
 7395 151d 38000000 		.4byte	.LVL300
 7396 1521 65270000 		.4byte	0x2765
 7397 1525 3F150000 		.4byte	0x153f
 7398 1529 19       		.uleb128 0x19
 7399 152a 01       		.uleb128 0x1
 7400 152b 50       		.byte	0x50
 7401 152c 02       		.uleb128 0x2
 7402 152d 75       		.byte	0x75
 7403 152e 00       		.sleb128 0
 7404 152f 19       		.uleb128 0x19
 7405 1530 01       		.uleb128 0x1
 7406 1531 51       		.byte	0x51
 7407 1532 05       		.uleb128 0x5
 7408 1533 03       		.byte	0x3
 7409 1534 64010000 		.4byte	.LC99
 7410 1538 19       		.uleb128 0x19
 7411 1539 01       		.uleb128 0x1
 7412 153a 52       		.byte	0x52
 7413 153b 02       		.uleb128 0x2
 7414 153c 74       		.byte	0x74
 7415 153d 00       		.sleb128 0
 7416 153e 00       		.byte	0
 7417 153f 1A       		.uleb128 0x1a
 7418 1540 3E000000 		.4byte	.LVL301
 7419 1544 43270000 		.4byte	0x2743
 7420 1548 19       		.uleb128 0x19
 7421 1549 01       		.uleb128 0x1
 7422 154a 50       		.byte	0x50
 7423 154b 02       		.uleb128 0x2
 7424 154c 75       		.byte	0x75
 7425 154d 00       		.sleb128 0
 7426 154e 00       		.byte	0
 7427 154f 00       		.byte	0
 7428 1550 15       		.uleb128 0x15
 7429 1551 8E000000 		.4byte	.LBB35
 7430 1555 46000000 		.4byte	.LBE35-.LBB35
 7431 1559 C4150000 		.4byte	0x15c4
 7432 155d 16       		.uleb128 0x16
 7433 155e 733100   		.ascii	"s1\000"
 7434 1561 01       		.byte	0x1
ARM GAS  C:\Users\TERENC~1\AppData\Local\Temp\cc9BPywF.s 			page 156


 7435 1562 9F01     		.2byte	0x19f
 7436 1564 CF000000 		.4byte	0xcf
 7437 1568 610D0000 		.4byte	.LLST93
 7438 156c 17       		.uleb128 0x17
 7439 156d 96000000 		.4byte	.LVL313
 7440 1571 2F270000 		.4byte	0x272f
 7441 1575 18       		.uleb128 0x18
 7442 1576 B6000000 		.4byte	.LVL315
 7443 157a E9270000 		.4byte	0x27e9
 7444 157e 96150000 		.4byte	0x1596
 7445 1582 19       		.uleb128 0x19
 7446 1583 01       		.uleb128 0x1
 7447 1584 50       		.byte	0x50
 7448 1585 02       		.uleb128 0x2
 7449 1586 76       		.byte	0x76
 7450 1587 00       		.sleb128 0
 7451 1588 19       		.uleb128 0x19
 7452 1589 01       		.uleb128 0x1
 7453 158a 51       		.byte	0x51
 7454 158b 03       		.uleb128 0x3
 7455 158c 91       		.byte	0x91
 7456 158d A87F     		.sleb128 -88
 7457 158f 19       		.uleb128 0x19
 7458 1590 01       		.uleb128 0x1
 7459 1591 52       		.byte	0x52
 7460 1592 02       		.uleb128 0x2
 7461 1593 74       		.byte	0x74
 7462 1594 00       		.sleb128 0
 7463 1595 00       		.byte	0
 7464 1596 18       		.uleb128 0x18
 7465 1597 CE000000 		.4byte	.LVL316
 7466 159b 65270000 		.4byte	0x2765
 7467 159f B3150000 		.4byte	0x15b3
 7468 15a3 19       		.uleb128 0x19
 7469 15a4 01       		.uleb128 0x1
 7470 15a5 50       		.byte	0x50
 7471 15a6 02       		.uleb128 0x2
 7472 15a7 74       		.byte	0x74
 7473 15a8 00       		.sleb128 0
 7474 15a9 19       		.uleb128 0x19
 7475 15aa 01       		.uleb128 0x1
 7476 15ab 51       		.byte	0x51
 7477 15ac 05       		.uleb128 0x5
 7478 15ad 03       		.byte	0x3
 7479 15ae 48010000 		.4byte	.LC77
 7480 15b2 00       		.byte	0
 7481 15b3 1A       		.uleb128 0x1a
 7482 15b4 D4000000 		.4byte	.LVL317
 7483 15b8 43270000 		.4byte	0x2743
 7484 15bc 19       		.uleb128 0x19
 7485 15bd 01       		.uleb128 0x1
 7486 15be 50       		.byte	0x50
 7487 15bf 02       		.uleb128 0x2
 7488 15c0 74       		.byte	0x74
 7489 15c1 00       		.sleb128 0
 7490 15c2 00       		.byte	0
 7491 15c3 00       		.byte	0
ARM GAS  C:\Users\TERENC~1\AppData\Local\Temp\cc9BPywF.s 			page 157


 7492 15c4 17       		.uleb128 0x17
 7493 15c5 10000000 		.4byte	.LVL296
 7494 15c9 4E270000 		.4byte	0x274e
 7495 15cd 18       		.uleb128 0x18
 7496 15ce 4E000000 		.4byte	.LVL304
 7497 15d2 86270000 		.4byte	0x2786
 7498 15d6 E5150000 		.4byte	0x15e5
 7499 15da 19       		.uleb128 0x19
 7500 15db 01       		.uleb128 0x1
 7501 15dc 51       		.byte	0x51
 7502 15dd 01       		.uleb128 0x1
 7503 15de 30       		.byte	0x30
 7504 15df 19       		.uleb128 0x19
 7505 15e0 01       		.uleb128 0x1
 7506 15e1 52       		.byte	0x52
 7507 15e2 01       		.uleb128 0x1
 7508 15e3 40       		.byte	0x40
 7509 15e4 00       		.byte	0
 7510 15e5 18       		.uleb128 0x18
 7511 15e6 74000000 		.4byte	.LVL308
 7512 15ea 86270000 		.4byte	0x2786
 7513 15ee 04160000 		.4byte	0x1604
 7514 15f2 19       		.uleb128 0x19
 7515 15f3 01       		.uleb128 0x1
 7516 15f4 50       		.byte	0x50
 7517 15f5 03       		.uleb128 0x3
 7518 15f6 91       		.byte	0x91
 7519 15f7 A47F     		.sleb128 -92
 7520 15f9 19       		.uleb128 0x19
 7521 15fa 01       		.uleb128 0x1
 7522 15fb 51       		.byte	0x51
 7523 15fc 01       		.uleb128 0x1
 7524 15fd 30       		.byte	0x30
 7525 15fe 19       		.uleb128 0x19
 7526 15ff 01       		.uleb128 0x1
 7527 1600 52       		.byte	0x52
 7528 1601 01       		.uleb128 0x1
 7529 1602 40       		.byte	0x40
 7530 1603 00       		.byte	0
 7531 1604 18       		.uleb128 0x18
 7532 1605 82000000 		.4byte	.LVL310
 7533 1609 F4270000 		.4byte	0x27f4
 7534 160d 18160000 		.4byte	0x1618
 7535 1611 19       		.uleb128 0x19
 7536 1612 01       		.uleb128 0x1
 7537 1613 50       		.byte	0x50
 7538 1614 02       		.uleb128 0x2
 7539 1615 75       		.byte	0x75
 7540 1616 00       		.sleb128 0
 7541 1617 00       		.byte	0
 7542 1618 17       		.uleb128 0x17
 7543 1619 8A000000 		.4byte	.LVL311
 7544 161d 4E270000 		.4byte	0x274e
 7545 1621 00       		.byte	0
 7546 1622 0E       		.uleb128 0xe
 7547 1623 B9000000 		.4byte	0xb9
 7548 1627 32160000 		.4byte	0x1632
ARM GAS  C:\Users\TERENC~1\AppData\Local\Temp\cc9BPywF.s 			page 158


 7549 162b 0F       		.uleb128 0xf
 7550 162c 93000000 		.4byte	0x93
 7551 1630 3F       		.byte	0x3f
 7552 1631 00       		.byte	0
 7553 1632 0E       		.uleb128 0xe
 7554 1633 A0000000 		.4byte	0xa0
 7555 1637 42160000 		.4byte	0x1642
 7556 163b 0F       		.uleb128 0xf
 7557 163c 93000000 		.4byte	0x93
 7558 1640 02       		.byte	0x2
 7559 1641 00       		.byte	0
 7560 1642 12       		.uleb128 0x12
 7561 1643 5C040000 		.4byte	.LASF72
 7562 1647 01       		.byte	0x1
 7563 1648 A301     		.2byte	0x1a3
 7564 164a 25000000 		.4byte	0x25
 7565 164e 00000000 		.4byte	.LFB17
 7566 1652 4C000000 		.4byte	.LFE17-.LFB17
 7567 1656 01       		.uleb128 0x1
 7568 1657 9C       		.byte	0x9c
 7569 1658 E2160000 		.4byte	0x16e2
 7570 165c 13       		.uleb128 0x13
 7571 165d D0040000 		.4byte	.LASF46
 7572 1661 01       		.byte	0x1
 7573 1662 A301     		.2byte	0x1a3
 7574 1664 25000000 		.4byte	0x25
 7575 1668 740D0000 		.4byte	.LLST94
 7576 166c 13       		.uleb128 0x13
 7577 166d F8040000 		.4byte	.LASF47
 7578 1671 01       		.byte	0x1
 7579 1672 A301     		.2byte	0x1a3
 7580 1674 25020000 		.4byte	0x225
 7581 1678 950D0000 		.4byte	.LLST95
 7582 167c 15       		.uleb128 0x15
 7583 167d 0A000000 		.4byte	.LBB36
 7584 1681 2E000000 		.4byte	.LBE36-.LBB36
 7585 1685 D8160000 		.4byte	0x16d8
 7586 1689 16       		.uleb128 0x16
 7587 168a 733100   		.ascii	"s1\000"
 7588 168d 01       		.byte	0x1
 7589 168e A501     		.2byte	0x1a5
 7590 1690 CF000000 		.4byte	0xcf
 7591 1694 B60D0000 		.4byte	.LLST96
 7592 1698 17       		.uleb128 0x17
 7593 1699 12000000 		.4byte	.LVL325
 7594 169d 2F270000 		.4byte	0x272f
 7595 16a1 17       		.uleb128 0x17
 7596 16a2 26000000 		.4byte	.LVL326
 7597 16a6 FF270000 		.4byte	0x27ff
 7598 16aa 18       		.uleb128 0x18
 7599 16ab 32000000 		.4byte	.LVL328
 7600 16af 65270000 		.4byte	0x2765
 7601 16b3 C7160000 		.4byte	0x16c7
 7602 16b7 19       		.uleb128 0x19
 7603 16b8 01       		.uleb128 0x1
 7604 16b9 50       		.byte	0x50
 7605 16ba 02       		.uleb128 0x2
ARM GAS  C:\Users\TERENC~1\AppData\Local\Temp\cc9BPywF.s 			page 159


 7606 16bb 74       		.byte	0x74
 7607 16bc 00       		.sleb128 0
 7608 16bd 19       		.uleb128 0x19
 7609 16be 01       		.uleb128 0x1
 7610 16bf 51       		.byte	0x51
 7611 16c0 05       		.uleb128 0x5
 7612 16c1 03       		.byte	0x3
 7613 16c2 88010000 		.4byte	.LC104
 7614 16c6 00       		.byte	0
 7615 16c7 1A       		.uleb128 0x1a
 7616 16c8 38000000 		.4byte	.LVL329
 7617 16cc 43270000 		.4byte	0x2743
 7618 16d0 19       		.uleb128 0x19
 7619 16d1 01       		.uleb128 0x1
 7620 16d2 50       		.byte	0x50
 7621 16d3 02       		.uleb128 0x2
 7622 16d4 74       		.byte	0x74
 7623 16d5 00       		.sleb128 0
 7624 16d6 00       		.byte	0
 7625 16d7 00       		.byte	0
 7626 16d8 17       		.uleb128 0x17
 7627 16d9 06000000 		.4byte	.LVL323
 7628 16dd 4E270000 		.4byte	0x274e
 7629 16e1 00       		.byte	0
 7630 16e2 12       		.uleb128 0x12
 7631 16e3 17070000 		.4byte	.LASF73
 7632 16e7 01       		.byte	0x1
 7633 16e8 A901     		.2byte	0x1a9
 7634 16ea 25000000 		.4byte	0x25
 7635 16ee 00000000 		.4byte	.LFB18
 7636 16f2 5C000000 		.4byte	.LFE18-.LFB18
 7637 16f6 01       		.uleb128 0x1
 7638 16f7 9C       		.byte	0x9c
 7639 16f8 82170000 		.4byte	0x1782
 7640 16fc 13       		.uleb128 0x13
 7641 16fd D0040000 		.4byte	.LASF46
 7642 1701 01       		.byte	0x1
 7643 1702 A901     		.2byte	0x1a9
 7644 1704 25000000 		.4byte	0x25
 7645 1708 C90D0000 		.4byte	.LLST97
 7646 170c 13       		.uleb128 0x13
 7647 170d F8040000 		.4byte	.LASF47
 7648 1711 01       		.byte	0x1
 7649 1712 A901     		.2byte	0x1a9
 7650 1714 25020000 		.4byte	0x225
 7651 1718 EA0D0000 		.4byte	.LLST98
 7652 171c 15       		.uleb128 0x15
 7653 171d 0A000000 		.4byte	.LBB37
 7654 1721 3A000000 		.4byte	.LBE37-.LBB37
 7655 1725 78170000 		.4byte	0x1778
 7656 1729 16       		.uleb128 0x16
 7657 172a 733100   		.ascii	"s1\000"
 7658 172d 01       		.byte	0x1
 7659 172e AB01     		.2byte	0x1ab
 7660 1730 CF000000 		.4byte	0xcf
 7661 1734 0B0E0000 		.4byte	.LLST99
 7662 1738 17       		.uleb128 0x17
ARM GAS  C:\Users\TERENC~1\AppData\Local\Temp\cc9BPywF.s 			page 160


 7663 1739 12000000 		.4byte	.LVL333
 7664 173d 2F270000 		.4byte	0x272f
 7665 1741 17       		.uleb128 0x17
 7666 1742 26000000 		.4byte	.LVL334
 7667 1746 0A280000 		.4byte	0x280a
 7668 174a 18       		.uleb128 0x18
 7669 174b 3E000000 		.4byte	.LVL336
 7670 174f 65270000 		.4byte	0x2765
 7671 1753 67170000 		.4byte	0x1767
 7672 1757 19       		.uleb128 0x19
 7673 1758 01       		.uleb128 0x1
 7674 1759 50       		.byte	0x50
 7675 175a 02       		.uleb128 0x2
 7676 175b 74       		.byte	0x74
 7677 175c 00       		.sleb128 0
 7678 175d 19       		.uleb128 0x19
 7679 175e 01       		.uleb128 0x1
 7680 175f 51       		.byte	0x51
 7681 1760 05       		.uleb128 0x5
 7682 1761 03       		.byte	0x3
 7683 1762 48010000 		.4byte	.LC77
 7684 1766 00       		.byte	0
 7685 1767 1A       		.uleb128 0x1a
 7686 1768 44000000 		.4byte	.LVL337
 7687 176c 43270000 		.4byte	0x2743
 7688 1770 19       		.uleb128 0x19
 7689 1771 01       		.uleb128 0x1
 7690 1772 50       		.byte	0x50
 7691 1773 02       		.uleb128 0x2
 7692 1774 74       		.byte	0x74
 7693 1775 00       		.sleb128 0
 7694 1776 00       		.byte	0
 7695 1777 00       		.byte	0
 7696 1778 17       		.uleb128 0x17
 7697 1779 06000000 		.4byte	.LVL331
 7698 177d 4E270000 		.4byte	0x274e
 7699 1781 00       		.byte	0
 7700 1782 12       		.uleb128 0x12
 7701 1783 3E020000 		.4byte	.LASF74
 7702 1787 01       		.byte	0x1
 7703 1788 C101     		.2byte	0x1c1
 7704 178a 25000000 		.4byte	0x25
 7705 178e 00000000 		.4byte	.LFB21
 7706 1792 0A000000 		.4byte	.LFE21-.LFB21
 7707 1796 01       		.uleb128 0x1
 7708 1797 9C       		.byte	0x9c
 7709 1798 C6170000 		.4byte	0x17c6
 7710 179c 13       		.uleb128 0x13
 7711 179d D0040000 		.4byte	.LASF46
 7712 17a1 01       		.byte	0x1
 7713 17a2 C101     		.2byte	0x1c1
 7714 17a4 25000000 		.4byte	0x25
 7715 17a8 1E0E0000 		.4byte	.LLST100
 7716 17ac 13       		.uleb128 0x13
 7717 17ad F8040000 		.4byte	.LASF47
 7718 17b1 01       		.byte	0x1
 7719 17b2 C101     		.2byte	0x1c1
ARM GAS  C:\Users\TERENC~1\AppData\Local\Temp\cc9BPywF.s 			page 161


 7720 17b4 25020000 		.4byte	0x225
 7721 17b8 3F0E0000 		.4byte	.LLST101
 7722 17bc 17       		.uleb128 0x17
 7723 17bd 06000000 		.4byte	.LVL339
 7724 17c1 15280000 		.4byte	0x2815
 7725 17c5 00       		.byte	0
 7726 17c6 12       		.uleb128 0x12
 7727 17c7 74050000 		.4byte	.LASF75
 7728 17cb 01       		.byte	0x1
 7729 17cc 4A02     		.2byte	0x24a
 7730 17ce 25000000 		.4byte	0x25
 7731 17d2 00000000 		.4byte	.LFB27
 7732 17d6 4C000000 		.4byte	.LFE27-.LFB27
 7733 17da 01       		.uleb128 0x1
 7734 17db 9C       		.byte	0x9c
 7735 17dc 66180000 		.4byte	0x1866
 7736 17e0 13       		.uleb128 0x13
 7737 17e1 D0040000 		.4byte	.LASF46
 7738 17e5 01       		.byte	0x1
 7739 17e6 4A02     		.2byte	0x24a
 7740 17e8 25000000 		.4byte	0x25
 7741 17ec 600E0000 		.4byte	.LLST102
 7742 17f0 13       		.uleb128 0x13
 7743 17f1 F8040000 		.4byte	.LASF47
 7744 17f5 01       		.byte	0x1
 7745 17f6 4A02     		.2byte	0x24a
 7746 17f8 25020000 		.4byte	0x225
 7747 17fc 810E0000 		.4byte	.LLST103
 7748 1800 15       		.uleb128 0x15
 7749 1801 0A000000 		.4byte	.LBB38
 7750 1805 2E000000 		.4byte	.LBE38-.LBB38
 7751 1809 5C180000 		.4byte	0x185c
 7752 180d 16       		.uleb128 0x16
 7753 180e 733100   		.ascii	"s1\000"
 7754 1811 01       		.byte	0x1
 7755 1812 4C02     		.2byte	0x24c
 7756 1814 CF000000 		.4byte	0xcf
 7757 1818 A20E0000 		.4byte	.LLST104
 7758 181c 17       		.uleb128 0x17
 7759 181d 12000000 		.4byte	.LVL343
 7760 1821 2F270000 		.4byte	0x272f
 7761 1825 17       		.uleb128 0x17
 7762 1826 26000000 		.4byte	.LVL344
 7763 182a 20280000 		.4byte	0x2820
 7764 182e 18       		.uleb128 0x18
 7765 182f 32000000 		.4byte	.LVL346
 7766 1833 65270000 		.4byte	0x2765
 7767 1837 4B180000 		.4byte	0x184b
 7768 183b 19       		.uleb128 0x19
 7769 183c 01       		.uleb128 0x1
 7770 183d 50       		.byte	0x50
 7771 183e 02       		.uleb128 0x2
 7772 183f 74       		.byte	0x74
 7773 1840 00       		.sleb128 0
 7774 1841 19       		.uleb128 0x19
 7775 1842 01       		.uleb128 0x1
 7776 1843 51       		.byte	0x51
ARM GAS  C:\Users\TERENC~1\AppData\Local\Temp\cc9BPywF.s 			page 162


 7777 1844 05       		.uleb128 0x5
 7778 1845 03       		.byte	0x3
 7779 1846 98010000 		.4byte	.LC112
 7780 184a 00       		.byte	0
 7781 184b 1A       		.uleb128 0x1a
 7782 184c 38000000 		.4byte	.LVL347
 7783 1850 43270000 		.4byte	0x2743
 7784 1854 19       		.uleb128 0x19
 7785 1855 01       		.uleb128 0x1
 7786 1856 50       		.byte	0x50
 7787 1857 02       		.uleb128 0x2
 7788 1858 74       		.byte	0x74
 7789 1859 00       		.sleb128 0
 7790 185a 00       		.byte	0
 7791 185b 00       		.byte	0
 7792 185c 17       		.uleb128 0x17
 7793 185d 06000000 		.4byte	.LVL341
 7794 1861 4E270000 		.4byte	0x274e
 7795 1865 00       		.byte	0
 7796 1866 12       		.uleb128 0x12
 7797 1867 3A060000 		.4byte	.LASF76
 7798 186b 01       		.byte	0x1
 7799 186c 5002     		.2byte	0x250
 7800 186e 25000000 		.4byte	0x25
 7801 1872 00000000 		.4byte	.LFB28
 7802 1876 58000000 		.4byte	.LFE28-.LFB28
 7803 187a 01       		.uleb128 0x1
 7804 187b 9C       		.byte	0x9c
 7805 187c 23190000 		.4byte	0x1923
 7806 1880 13       		.uleb128 0x13
 7807 1881 D0040000 		.4byte	.LASF46
 7808 1885 01       		.byte	0x1
 7809 1886 5002     		.2byte	0x250
 7810 1888 25000000 		.4byte	0x25
 7811 188c B50E0000 		.4byte	.LLST105
 7812 1890 13       		.uleb128 0x13
 7813 1891 F8040000 		.4byte	.LASF47
 7814 1895 01       		.byte	0x1
 7815 1896 5002     		.2byte	0x250
 7816 1898 25020000 		.4byte	0x225
 7817 189c D60E0000 		.4byte	.LLST106
 7818 18a0 15       		.uleb128 0x15
 7819 18a1 18000000 		.4byte	.LBB39
 7820 18a5 2A000000 		.4byte	.LBE39-.LBB39
 7821 18a9 F8180000 		.4byte	0x18f8
 7822 18ad 16       		.uleb128 0x16
 7823 18ae 733100   		.ascii	"s1\000"
 7824 18b1 01       		.byte	0x1
 7825 18b2 5402     		.2byte	0x254
 7826 18b4 CF000000 		.4byte	0xcf
 7827 18b8 F70E0000 		.4byte	.LLST107
 7828 18bc 17       		.uleb128 0x17
 7829 18bd 20000000 		.4byte	.LVL355
 7830 18c1 2F270000 		.4byte	0x272f
 7831 18c5 18       		.uleb128 0x18
 7832 18c6 3C000000 		.4byte	.LVL357
 7833 18ca 3A270000 		.4byte	0x273a
ARM GAS  C:\Users\TERENC~1\AppData\Local\Temp\cc9BPywF.s 			page 163


 7834 18ce E7180000 		.4byte	0x18e7
 7835 18d2 19       		.uleb128 0x19
 7836 18d3 01       		.uleb128 0x1
 7837 18d4 50       		.byte	0x50
 7838 18d5 02       		.uleb128 0x2
 7839 18d6 74       		.byte	0x74
 7840 18d7 00       		.sleb128 0
 7841 18d8 19       		.uleb128 0x19
 7842 18d9 01       		.uleb128 0x1
 7843 18da 51       		.byte	0x51
 7844 18db 05       		.uleb128 0x5
 7845 18dc 03       		.byte	0x3
 7846 18dd A8010000 		.4byte	.LC117
 7847 18e1 19       		.uleb128 0x19
 7848 18e2 01       		.uleb128 0x1
 7849 18e3 52       		.byte	0x52
 7850 18e4 01       		.uleb128 0x1
 7851 18e5 3C       		.byte	0x3c
 7852 18e6 00       		.byte	0
 7853 18e7 1A       		.uleb128 0x1a
 7854 18e8 42000000 		.4byte	.LVL358
 7855 18ec 43270000 		.4byte	0x2743
 7856 18f0 19       		.uleb128 0x19
 7857 18f1 01       		.uleb128 0x1
 7858 18f2 50       		.byte	0x50
 7859 18f3 02       		.uleb128 0x2
 7860 18f4 74       		.byte	0x74
 7861 18f5 00       		.sleb128 0
 7862 18f6 00       		.byte	0
 7863 18f7 00       		.byte	0
 7864 18f8 18       		.uleb128 0x18
 7865 18f9 0C000000 		.4byte	.LVL351
 7866 18fd 86270000 		.4byte	0x2786
 7867 1901 10190000 		.4byte	0x1910
 7868 1905 19       		.uleb128 0x19
 7869 1906 01       		.uleb128 0x1
 7870 1907 51       		.byte	0x51
 7871 1908 01       		.uleb128 0x1
 7872 1909 30       		.byte	0x30
 7873 190a 19       		.uleb128 0x19
 7874 190b 01       		.uleb128 0x1
 7875 190c 52       		.byte	0x52
 7876 190d 01       		.uleb128 0x1
 7877 190e 40       		.byte	0x40
 7878 190f 00       		.byte	0
 7879 1910 17       		.uleb128 0x17
 7880 1911 10000000 		.4byte	.LVL352
 7881 1915 2B280000 		.4byte	0x282b
 7882 1919 17       		.uleb128 0x17
 7883 191a 14000000 		.4byte	.LVL353
 7884 191e 4E270000 		.4byte	0x274e
 7885 1922 00       		.byte	0
 7886 1923 12       		.uleb128 0x12
 7887 1924 A4070000 		.4byte	.LASF77
 7888 1928 01       		.byte	0x1
 7889 1929 5902     		.2byte	0x259
 7890 192b 25000000 		.4byte	0x25
ARM GAS  C:\Users\TERENC~1\AppData\Local\Temp\cc9BPywF.s 			page 164


 7891 192f 00000000 		.4byte	.LFB29
 7892 1933 4C000000 		.4byte	.LFE29-.LFB29
 7893 1937 01       		.uleb128 0x1
 7894 1938 9C       		.byte	0x9c
 7895 1939 C8190000 		.4byte	0x19c8
 7896 193d 13       		.uleb128 0x13
 7897 193e D0040000 		.4byte	.LASF46
 7898 1942 01       		.byte	0x1
 7899 1943 5902     		.2byte	0x259
 7900 1945 25000000 		.4byte	0x25
 7901 1949 0A0F0000 		.4byte	.LLST108
 7902 194d 13       		.uleb128 0x13
 7903 194e F8040000 		.4byte	.LASF47
 7904 1952 01       		.byte	0x1
 7905 1953 5902     		.2byte	0x259
 7906 1955 25020000 		.4byte	0x225
 7907 1959 2B0F0000 		.4byte	.LLST109
 7908 195d 15       		.uleb128 0x15
 7909 195e 0E000000 		.4byte	.LBB40
 7910 1962 2A000000 		.4byte	.LBE40-.LBB40
 7911 1966 B5190000 		.4byte	0x19b5
 7912 196a 16       		.uleb128 0x16
 7913 196b 733100   		.ascii	"s1\000"
 7914 196e 01       		.byte	0x1
 7915 196f 5C02     		.2byte	0x25c
 7916 1971 CF000000 		.4byte	0xcf
 7917 1975 4C0F0000 		.4byte	.LLST110
 7918 1979 17       		.uleb128 0x17
 7919 197a 16000000 		.4byte	.LVL363
 7920 197e 2F270000 		.4byte	0x272f
 7921 1982 18       		.uleb128 0x18
 7922 1983 32000000 		.4byte	.LVL365
 7923 1987 3A270000 		.4byte	0x273a
 7924 198b A4190000 		.4byte	0x19a4
 7925 198f 19       		.uleb128 0x19
 7926 1990 01       		.uleb128 0x1
 7927 1991 50       		.byte	0x50
 7928 1992 02       		.uleb128 0x2
 7929 1993 74       		.byte	0x74
 7930 1994 00       		.sleb128 0
 7931 1995 19       		.uleb128 0x19
 7932 1996 01       		.uleb128 0x1
 7933 1997 51       		.byte	0x51
 7934 1998 05       		.uleb128 0x5
 7935 1999 03       		.byte	0x3
 7936 199a A8010000 		.4byte	.LC117
 7937 199e 19       		.uleb128 0x19
 7938 199f 01       		.uleb128 0x1
 7939 19a0 52       		.byte	0x52
 7940 19a1 01       		.uleb128 0x1
 7941 19a2 3C       		.byte	0x3c
 7942 19a3 00       		.byte	0
 7943 19a4 1A       		.uleb128 0x1a
 7944 19a5 38000000 		.4byte	.LVL366
 7945 19a9 43270000 		.4byte	0x2743
 7946 19ad 19       		.uleb128 0x19
 7947 19ae 01       		.uleb128 0x1
ARM GAS  C:\Users\TERENC~1\AppData\Local\Temp\cc9BPywF.s 			page 165


 7948 19af 50       		.byte	0x50
 7949 19b0 02       		.uleb128 0x2
 7950 19b1 74       		.byte	0x74
 7951 19b2 00       		.sleb128 0
 7952 19b3 00       		.byte	0
 7953 19b4 00       		.byte	0
 7954 19b5 17       		.uleb128 0x17
 7955 19b6 06000000 		.4byte	.LVL360
 7956 19ba 36280000 		.4byte	0x2836
 7957 19be 17       		.uleb128 0x17
 7958 19bf 0A000000 		.4byte	.LVL361
 7959 19c3 4E270000 		.4byte	0x274e
 7960 19c7 00       		.byte	0
 7961 19c8 1C       		.uleb128 0x1c
 7962 19c9 AE040000 		.4byte	.LASF78
 7963 19cd 01       		.byte	0x1
 7964 19ce B1       		.byte	0xb1
 7965 19cf 25000000 		.4byte	0x25
 7966 19d3 00000000 		.4byte	.LFB2
 7967 19d7 44000000 		.4byte	.LFE2-.LFB2
 7968 19db 01       		.uleb128 0x1
 7969 19dc 9C       		.byte	0x9c
 7970 19dd 471A0000 		.4byte	0x1a47
 7971 19e1 23       		.uleb128 0x23
 7972 19e2 6100     		.ascii	"a\000"
 7973 19e4 01       		.byte	0x1
 7974 19e5 B1       		.byte	0xb1
 7975 19e6 AE000000 		.4byte	0xae
 7976 19ea 5F0F0000 		.4byte	.LLST111
 7977 19ee 23       		.uleb128 0x23
 7978 19ef 6200     		.ascii	"b\000"
 7979 19f1 01       		.byte	0x1
 7980 19f2 B1       		.byte	0xb1
 7981 19f3 AE000000 		.4byte	0xae
 7982 19f7 7D0F0000 		.4byte	.LLST112
 7983 19fb 24       		.uleb128 0x24
 7984 19fc 02000000 		.4byte	.LBB41
 7985 1a00 32000000 		.4byte	.LBE41-.LBB41
 7986 1a04 25       		.uleb128 0x25
 7987 1a05 6400     		.ascii	"d\000"
 7988 1a07 01       		.byte	0x1
 7989 1a08 B5       		.byte	0xb5
 7990 1a09 25000000 		.4byte	0x25
 7991 1a0d 01       		.uleb128 0x1
 7992 1a0e 53       		.byte	0x53
 7993 1a0f 15       		.uleb128 0x15
 7994 1a10 02000000 		.4byte	.LBB42
 7995 1a14 1A000000 		.4byte	.LBE42-.LBB42
 7996 1a18 2C1A0000 		.4byte	0x1a2c
 7997 1a1c 1F       		.uleb128 0x1f
 7998 1a1d 5F5F7800 		.ascii	"__x\000"
 7999 1a21 01       		.byte	0x1
 8000 1a22 B5       		.byte	0xb5
 8001 1a23 B4000000 		.4byte	0xb4
 8002 1a27 9B0F0000 		.4byte	.LLST113
 8003 1a2b 00       		.byte	0
 8004 1a2c 24       		.uleb128 0x24
ARM GAS  C:\Users\TERENC~1\AppData\Local\Temp\cc9BPywF.s 			page 166


 8005 1a2d 1C000000 		.4byte	.LBB43
 8006 1a31 10000000 		.4byte	.LBE43-.LBB43
 8007 1a35 1F       		.uleb128 0x1f
 8008 1a36 5F5F7800 		.ascii	"__x\000"
 8009 1a3a 01       		.byte	0x1
 8010 1a3b B5       		.byte	0xb5
 8011 1a3c B4000000 		.4byte	0xb4
 8012 1a40 AE0F0000 		.4byte	.LLST114
 8013 1a44 00       		.byte	0
 8014 1a45 00       		.byte	0
 8015 1a46 00       		.byte	0
 8016 1a47 12       		.uleb128 0x12
 8017 1a48 39050000 		.4byte	.LASF79
 8018 1a4c 01       		.byte	0x1
 8019 1a4d CF01     		.2byte	0x1cf
 8020 1a4f 25000000 		.4byte	0x25
 8021 1a53 00000000 		.4byte	.LFB23
 8022 1a57 38010000 		.4byte	.LFE23-.LFB23
 8023 1a5b 01       		.uleb128 0x1
 8024 1a5c 9C       		.byte	0x9c
 8025 1a5d 7E1C0000 		.4byte	0x1c7e
 8026 1a61 13       		.uleb128 0x13
 8027 1a62 D0040000 		.4byte	.LASF46
 8028 1a66 01       		.byte	0x1
 8029 1a67 CF01     		.2byte	0x1cf
 8030 1a69 25000000 		.4byte	0x25
 8031 1a6d E50F0000 		.4byte	.LLST115
 8032 1a71 13       		.uleb128 0x13
 8033 1a72 F8040000 		.4byte	.LASF47
 8034 1a76 01       		.byte	0x1
 8035 1a77 CF01     		.2byte	0x1cf
 8036 1a79 25020000 		.4byte	0x225
 8037 1a7d 3B100000 		.4byte	.LLST116
 8038 1a81 14       		.uleb128 0x14
 8039 1a82 6900     		.ascii	"i\000"
 8040 1a84 01       		.byte	0x1
 8041 1a85 D101     		.2byte	0x1d1
 8042 1a87 25000000 		.4byte	0x25
 8043 1a8b 02       		.byte	0x2
 8044 1a8c 20       		.uleb128 0x20
 8045 1a8d 28080000 		.4byte	.LASF80
 8046 1a91 01       		.byte	0x1
 8047 1a92 D201     		.2byte	0x1d2
 8048 1a94 D9010000 		.4byte	0x1d9
 8049 1a98 8B100000 		.4byte	.LLST117
 8050 1a9c 20       		.uleb128 0x20
 8051 1a9d 40010000 		.4byte	.LASF81
 8052 1aa1 01       		.byte	0x1
 8053 1aa2 D301     		.2byte	0x1d3
 8054 1aa4 CF000000 		.4byte	0xcf
 8055 1aa8 C1100000 		.4byte	.LLST118
 8056 1aac 20       		.uleb128 0x20
 8057 1aad C2050000 		.4byte	.LASF82
 8058 1ab1 01       		.byte	0x1
 8059 1ab2 D301     		.2byte	0x1d3
 8060 1ab4 CF000000 		.4byte	0xcf
 8061 1ab8 EA100000 		.4byte	.LLST119
ARM GAS  C:\Users\TERENC~1\AppData\Local\Temp\cc9BPywF.s 			page 167


 8062 1abc 20       		.uleb128 0x20
 8063 1abd 35040000 		.4byte	.LASF83
 8064 1ac1 01       		.byte	0x1
 8065 1ac2 D301     		.2byte	0x1d3
 8066 1ac4 CF000000 		.4byte	0xcf
 8067 1ac8 13110000 		.4byte	.LLST120
 8068 1acc 15       		.uleb128 0x15
 8069 1acd 12000000 		.4byte	.LBB44
 8070 1ad1 2A000000 		.4byte	.LBE44-.LBB44
 8071 1ad5 251B0000 		.4byte	0x1b25
 8072 1ad9 16       		.uleb128 0x16
 8073 1ada 733100   		.ascii	"s1\000"
 8074 1add 01       		.byte	0x1
 8075 1ade D901     		.2byte	0x1d9
 8076 1ae0 CF000000 		.4byte	0xcf
 8077 1ae4 31110000 		.4byte	.LLST121
 8078 1ae8 17       		.uleb128 0x17
 8079 1ae9 1A000000 		.4byte	.LVL382
 8080 1aed 2F270000 		.4byte	0x272f
 8081 1af1 18       		.uleb128 0x18
 8082 1af2 36000000 		.4byte	.LVL384
 8083 1af6 65270000 		.4byte	0x2765
 8084 1afa 141B0000 		.4byte	0x1b14
 8085 1afe 19       		.uleb128 0x19
 8086 1aff 01       		.uleb128 0x1
 8087 1b00 50       		.byte	0x50
 8088 1b01 02       		.uleb128 0x2
 8089 1b02 75       		.byte	0x75
 8090 1b03 00       		.sleb128 0
 8091 1b04 19       		.uleb128 0x19
 8092 1b05 01       		.uleb128 0x1
 8093 1b06 51       		.byte	0x51
 8094 1b07 05       		.uleb128 0x5
 8095 1b08 03       		.byte	0x3
 8096 1b09 64010000 		.4byte	.LC99
 8097 1b0d 19       		.uleb128 0x19
 8098 1b0e 01       		.uleb128 0x1
 8099 1b0f 52       		.byte	0x52
 8100 1b10 02       		.uleb128 0x2
 8101 1b11 74       		.byte	0x74
 8102 1b12 00       		.sleb128 0
 8103 1b13 00       		.byte	0
 8104 1b14 1A       		.uleb128 0x1a
 8105 1b15 3C000000 		.4byte	.LVL385
 8106 1b19 43270000 		.4byte	0x2743
 8107 1b1d 19       		.uleb128 0x19
 8108 1b1e 01       		.uleb128 0x1
 8109 1b1f 50       		.byte	0x50
 8110 1b20 02       		.uleb128 0x2
 8111 1b21 75       		.byte	0x75
 8112 1b22 00       		.sleb128 0
 8113 1b23 00       		.byte	0
 8114 1b24 00       		.byte	0
 8115 1b25 15       		.uleb128 0x15
 8116 1b26 70000000 		.4byte	.LBB45
 8117 1b2a 2A000000 		.4byte	.LBE45-.LBB45
 8118 1b2e 781B0000 		.4byte	0x1b78
ARM GAS  C:\Users\TERENC~1\AppData\Local\Temp\cc9BPywF.s 			page 168


 8119 1b32 16       		.uleb128 0x16
 8120 1b33 733100   		.ascii	"s1\000"
 8121 1b36 01       		.byte	0x1
 8122 1b37 EB01     		.2byte	0x1eb
 8123 1b39 CF000000 		.4byte	0xcf
 8124 1b3d 44110000 		.4byte	.LLST122
 8125 1b41 17       		.uleb128 0x17
 8126 1b42 78000000 		.4byte	.LVL395
 8127 1b46 2F270000 		.4byte	0x272f
 8128 1b4a 18       		.uleb128 0x18
 8129 1b4b 94000000 		.4byte	.LVL397
 8130 1b4f 65270000 		.4byte	0x2765
 8131 1b53 671B0000 		.4byte	0x1b67
 8132 1b57 19       		.uleb128 0x19
 8133 1b58 01       		.uleb128 0x1
 8134 1b59 50       		.byte	0x50
 8135 1b5a 02       		.uleb128 0x2
 8136 1b5b 74       		.byte	0x74
 8137 1b5c 00       		.sleb128 0
 8138 1b5d 19       		.uleb128 0x19
 8139 1b5e 01       		.uleb128 0x1
 8140 1b5f 51       		.byte	0x51
 8141 1b60 05       		.uleb128 0x5
 8142 1b61 03       		.byte	0x3
 8143 1b62 C8010000 		.4byte	.LC132
 8144 1b66 00       		.byte	0
 8145 1b67 1A       		.uleb128 0x1a
 8146 1b68 9A000000 		.4byte	.LVL398
 8147 1b6c 43270000 		.4byte	0x2743
 8148 1b70 19       		.uleb128 0x19
 8149 1b71 01       		.uleb128 0x1
 8150 1b72 50       		.byte	0x50
 8151 1b73 02       		.uleb128 0x2
 8152 1b74 74       		.byte	0x74
 8153 1b75 00       		.sleb128 0
 8154 1b76 00       		.byte	0
 8155 1b77 00       		.byte	0
 8156 1b78 15       		.uleb128 0x15
 8157 1b79 D4000000 		.4byte	.LBB46
 8158 1b7d 2A000000 		.4byte	.LBE46-.LBB46
 8159 1b81 D01B0000 		.4byte	0x1bd0
 8160 1b85 16       		.uleb128 0x16
 8161 1b86 733100   		.ascii	"s1\000"
 8162 1b89 01       		.byte	0x1
 8163 1b8a F501     		.2byte	0x1f5
 8164 1b8c CF000000 		.4byte	0xcf
 8165 1b90 57110000 		.4byte	.LLST123
 8166 1b94 17       		.uleb128 0x17
 8167 1b95 DC000000 		.4byte	.LVL412
 8168 1b99 2F270000 		.4byte	0x272f
 8169 1b9d 18       		.uleb128 0x18
 8170 1b9e F8000000 		.4byte	.LVL414
 8171 1ba2 3A270000 		.4byte	0x273a
 8172 1ba6 BF1B0000 		.4byte	0x1bbf
 8173 1baa 19       		.uleb128 0x19
 8174 1bab 01       		.uleb128 0x1
 8175 1bac 50       		.byte	0x50
ARM GAS  C:\Users\TERENC~1\AppData\Local\Temp\cc9BPywF.s 			page 169


 8176 1bad 02       		.uleb128 0x2
 8177 1bae 74       		.byte	0x74
 8178 1baf 00       		.sleb128 0
 8179 1bb0 19       		.uleb128 0x19
 8180 1bb1 01       		.uleb128 0x1
 8181 1bb2 51       		.byte	0x51
 8182 1bb3 05       		.uleb128 0x5
 8183 1bb4 03       		.byte	0x3
 8184 1bb5 F4010000 		.4byte	.LC134
 8185 1bb9 19       		.uleb128 0x19
 8186 1bba 01       		.uleb128 0x1
 8187 1bbb 52       		.byte	0x52
 8188 1bbc 01       		.uleb128 0x1
 8189 1bbd 3A       		.byte	0x3a
 8190 1bbe 00       		.byte	0
 8191 1bbf 1A       		.uleb128 0x1a
 8192 1bc0 FE000000 		.4byte	.LVL415
 8193 1bc4 43270000 		.4byte	0x2743
 8194 1bc8 19       		.uleb128 0x19
 8195 1bc9 01       		.uleb128 0x1
 8196 1bca 50       		.byte	0x50
 8197 1bcb 02       		.uleb128 0x2
 8198 1bcc 74       		.byte	0x74
 8199 1bcd 00       		.sleb128 0
 8200 1bce 00       		.byte	0
 8201 1bcf 00       		.byte	0
 8202 1bd0 17       		.uleb128 0x17
 8203 1bd1 0E000000 		.4byte	.LVL380
 8204 1bd5 4E270000 		.4byte	0x274e
 8205 1bd9 18       		.uleb128 0x18
 8206 1bda 4C000000 		.4byte	.LVL390
 8207 1bde C8190000 		.4byte	0x19c8
 8208 1be2 F61B0000 		.4byte	0x1bf6
 8209 1be6 19       		.uleb128 0x19
 8210 1be7 01       		.uleb128 0x1
 8211 1be8 50       		.byte	0x50
 8212 1be9 02       		.uleb128 0x2
 8213 1bea 74       		.byte	0x74
 8214 1beb 00       		.sleb128 0
 8215 1bec 19       		.uleb128 0x19
 8216 1bed 01       		.uleb128 0x1
 8217 1bee 51       		.byte	0x51
 8218 1bef 05       		.uleb128 0x5
 8219 1bf0 03       		.byte	0x3
 8220 1bf1 B4010000 		.4byte	.LC126
 8221 1bf5 00       		.byte	0
 8222 1bf6 18       		.uleb128 0x18
 8223 1bf7 58000000 		.4byte	.LVL391
 8224 1bfb C8190000 		.4byte	0x19c8
 8225 1bff 131C0000 		.4byte	0x1c13
 8226 1c03 19       		.uleb128 0x19
 8227 1c04 01       		.uleb128 0x1
 8228 1c05 50       		.byte	0x50
 8229 1c06 02       		.uleb128 0x2
 8230 1c07 74       		.byte	0x74
 8231 1c08 00       		.sleb128 0
 8232 1c09 19       		.uleb128 0x19
ARM GAS  C:\Users\TERENC~1\AppData\Local\Temp\cc9BPywF.s 			page 170


 8233 1c0a 01       		.uleb128 0x1
 8234 1c0b 51       		.byte	0x51
 8235 1c0c 05       		.uleb128 0x5
 8236 1c0d 03       		.byte	0x3
 8237 1c0e B8010000 		.4byte	.LC128
 8238 1c12 00       		.byte	0
 8239 1c13 18       		.uleb128 0x18
 8240 1c14 64000000 		.4byte	.LVL392
 8241 1c18 C8190000 		.4byte	0x19c8
 8242 1c1c 301C0000 		.4byte	0x1c30
 8243 1c20 19       		.uleb128 0x19
 8244 1c21 01       		.uleb128 0x1
 8245 1c22 50       		.byte	0x50
 8246 1c23 02       		.uleb128 0x2
 8247 1c24 74       		.byte	0x74
 8248 1c25 00       		.sleb128 0
 8249 1c26 19       		.uleb128 0x19
 8250 1c27 01       		.uleb128 0x1
 8251 1c28 51       		.byte	0x51
 8252 1c29 05       		.uleb128 0x5
 8253 1c2a 03       		.byte	0x3
 8254 1c2b C0010000 		.4byte	.LC130
 8255 1c2f 00       		.byte	0
 8256 1c30 17       		.uleb128 0x17
 8257 1c31 6C000000 		.4byte	.LVL393
 8258 1c35 4E270000 		.4byte	0x274e
 8259 1c39 17       		.uleb128 0x17
 8260 1c3a B0000000 		.4byte	.LVL400
 8261 1c3e 5A270000 		.4byte	0x275a
 8262 1c42 17       		.uleb128 0x17
 8263 1c43 B8000000 		.4byte	.LVL403
 8264 1c47 5A270000 		.4byte	0x275a
 8265 1c4b 17       		.uleb128 0x17
 8266 1c4c C0000000 		.4byte	.LVL406
 8267 1c50 5A270000 		.4byte	0x275a
 8268 1c54 18       		.uleb128 0x18
 8269 1c55 CC000000 		.4byte	.LVL409
 8270 1c59 41280000 		.4byte	0x2841
 8271 1c5d 741C0000 		.4byte	0x1c74
 8272 1c61 19       		.uleb128 0x19
 8273 1c62 01       		.uleb128 0x1
 8274 1c63 50       		.byte	0x50
 8275 1c64 02       		.uleb128 0x2
 8276 1c65 74       		.byte	0x74
 8277 1c66 00       		.sleb128 0
 8278 1c67 19       		.uleb128 0x19
 8279 1c68 01       		.uleb128 0x1
 8280 1c69 51       		.byte	0x51
 8281 1c6a 02       		.uleb128 0x2
 8282 1c6b 76       		.byte	0x76
 8283 1c6c 00       		.sleb128 0
 8284 1c6d 19       		.uleb128 0x19
 8285 1c6e 01       		.uleb128 0x1
 8286 1c6f 52       		.byte	0x52
 8287 1c70 02       		.uleb128 0x2
 8288 1c71 77       		.byte	0x77
 8289 1c72 00       		.sleb128 0
ARM GAS  C:\Users\TERENC~1\AppData\Local\Temp\cc9BPywF.s 			page 171


 8290 1c73 00       		.byte	0
 8291 1c74 17       		.uleb128 0x17
 8292 1c75 D0000000 		.4byte	.LVL410
 8293 1c79 4E270000 		.4byte	0x274e
 8294 1c7d 00       		.byte	0
 8295 1c7e 12       		.uleb128 0x12
 8296 1c7f 71040000 		.4byte	.LASF84
 8297 1c83 01       		.byte	0x1
 8298 1c84 FA01     		.2byte	0x1fa
 8299 1c86 25000000 		.4byte	0x25
 8300 1c8a 00000000 		.4byte	.LFB24
 8301 1c8e 18010000 		.4byte	.LFE24-.LFB24
 8302 1c92 01       		.uleb128 0x1
 8303 1c93 9C       		.byte	0x9c
 8304 1c94 531E0000 		.4byte	0x1e53
 8305 1c98 13       		.uleb128 0x13
 8306 1c99 D0040000 		.4byte	.LASF46
 8307 1c9d 01       		.byte	0x1
 8308 1c9e FA01     		.2byte	0x1fa
 8309 1ca0 25000000 		.4byte	0x25
 8310 1ca4 6A110000 		.4byte	.LLST124
 8311 1ca8 13       		.uleb128 0x13
 8312 1ca9 F8040000 		.4byte	.LASF47
 8313 1cad 01       		.byte	0x1
 8314 1cae FA01     		.2byte	0x1fa
 8315 1cb0 25020000 		.4byte	0x225
 8316 1cb4 C0110000 		.4byte	.LLST125
 8317 1cb8 14       		.uleb128 0x14
 8318 1cb9 6900     		.ascii	"i\000"
 8319 1cbb 01       		.byte	0x1
 8320 1cbc FC01     		.2byte	0x1fc
 8321 1cbe 25000000 		.4byte	0x25
 8322 1cc2 02       		.byte	0x2
 8323 1cc3 20       		.uleb128 0x20
 8324 1cc4 28080000 		.4byte	.LASF80
 8325 1cc8 01       		.byte	0x1
 8326 1cc9 FD01     		.2byte	0x1fd
 8327 1ccb D9010000 		.4byte	0x1d9
 8328 1ccf 10120000 		.4byte	.LLST126
 8329 1cd3 15       		.uleb128 0x15
 8330 1cd4 12000000 		.4byte	.LBB47
 8331 1cd8 2A000000 		.4byte	.LBE47-.LBB47
 8332 1cdc 2C1D0000 		.4byte	0x1d2c
 8333 1ce0 16       		.uleb128 0x16
 8334 1ce1 733100   		.ascii	"s1\000"
 8335 1ce4 01       		.byte	0x1
 8336 1ce5 0302     		.2byte	0x203
 8337 1ce7 CF000000 		.4byte	0xcf
 8338 1ceb 3B120000 		.4byte	.LLST127
 8339 1cef 17       		.uleb128 0x17
 8340 1cf0 1A000000 		.4byte	.LVL425
 8341 1cf4 2F270000 		.4byte	0x272f
 8342 1cf8 18       		.uleb128 0x18
 8343 1cf9 36000000 		.4byte	.LVL427
 8344 1cfd 65270000 		.4byte	0x2765
 8345 1d01 1B1D0000 		.4byte	0x1d1b
 8346 1d05 19       		.uleb128 0x19
ARM GAS  C:\Users\TERENC~1\AppData\Local\Temp\cc9BPywF.s 			page 172


 8347 1d06 01       		.uleb128 0x1
 8348 1d07 50       		.byte	0x50
 8349 1d08 02       		.uleb128 0x2
 8350 1d09 75       		.byte	0x75
 8351 1d0a 00       		.sleb128 0
 8352 1d0b 19       		.uleb128 0x19
 8353 1d0c 01       		.uleb128 0x1
 8354 1d0d 51       		.byte	0x51
 8355 1d0e 05       		.uleb128 0x5
 8356 1d0f 03       		.byte	0x3
 8357 1d10 64010000 		.4byte	.LC99
 8358 1d14 19       		.uleb128 0x19
 8359 1d15 01       		.uleb128 0x1
 8360 1d16 52       		.byte	0x52
 8361 1d17 02       		.uleb128 0x2
 8362 1d18 74       		.byte	0x74
 8363 1d19 00       		.sleb128 0
 8364 1d1a 00       		.byte	0
 8365 1d1b 1A       		.uleb128 0x1a
 8366 1d1c 3C000000 		.4byte	.LVL428
 8367 1d20 43270000 		.4byte	0x2743
 8368 1d24 19       		.uleb128 0x19
 8369 1d25 01       		.uleb128 0x1
 8370 1d26 50       		.byte	0x50
 8371 1d27 02       		.uleb128 0x2
 8372 1d28 75       		.byte	0x75
 8373 1d29 00       		.sleb128 0
 8374 1d2a 00       		.byte	0
 8375 1d2b 00       		.byte	0
 8376 1d2c 15       		.uleb128 0x15
 8377 1d2d 70000000 		.4byte	.LBB48
 8378 1d31 2A000000 		.4byte	.LBE48-.LBB48
 8379 1d35 7F1D0000 		.4byte	0x1d7f
 8380 1d39 16       		.uleb128 0x16
 8381 1d3a 733100   		.ascii	"s1\000"
 8382 1d3d 01       		.byte	0x1
 8383 1d3e 1502     		.2byte	0x215
 8384 1d40 CF000000 		.4byte	0xcf
 8385 1d44 4E120000 		.4byte	.LLST128
 8386 1d48 17       		.uleb128 0x17
 8387 1d49 78000000 		.4byte	.LVL438
 8388 1d4d 2F270000 		.4byte	0x272f
 8389 1d51 18       		.uleb128 0x18
 8390 1d52 94000000 		.4byte	.LVL440
 8391 1d56 65270000 		.4byte	0x2765
 8392 1d5a 6E1D0000 		.4byte	0x1d6e
 8393 1d5e 19       		.uleb128 0x19
 8394 1d5f 01       		.uleb128 0x1
 8395 1d60 50       		.byte	0x50
 8396 1d61 02       		.uleb128 0x2
 8397 1d62 74       		.byte	0x74
 8398 1d63 00       		.sleb128 0
 8399 1d64 19       		.uleb128 0x19
 8400 1d65 01       		.uleb128 0x1
 8401 1d66 51       		.byte	0x51
 8402 1d67 05       		.uleb128 0x5
 8403 1d68 03       		.byte	0x3
ARM GAS  C:\Users\TERENC~1\AppData\Local\Temp\cc9BPywF.s 			page 173


 8404 1d69 C8010000 		.4byte	.LC132
 8405 1d6d 00       		.byte	0
 8406 1d6e 1A       		.uleb128 0x1a
 8407 1d6f 9A000000 		.4byte	.LVL441
 8408 1d73 43270000 		.4byte	0x2743
 8409 1d77 19       		.uleb128 0x19
 8410 1d78 01       		.uleb128 0x1
 8411 1d79 50       		.byte	0x50
 8412 1d7a 02       		.uleb128 0x2
 8413 1d7b 74       		.byte	0x74
 8414 1d7c 00       		.sleb128 0
 8415 1d7d 00       		.byte	0
 8416 1d7e 00       		.byte	0
 8417 1d7f 15       		.uleb128 0x15
 8418 1d80 B6000000 		.4byte	.LBB49
 8419 1d84 2A000000 		.4byte	.LBE49-.LBB49
 8420 1d88 D71D0000 		.4byte	0x1dd7
 8421 1d8c 16       		.uleb128 0x16
 8422 1d8d 733100   		.ascii	"s1\000"
 8423 1d90 01       		.byte	0x1
 8424 1d91 1A02     		.2byte	0x21a
 8425 1d93 CF000000 		.4byte	0xcf
 8426 1d97 61120000 		.4byte	.LLST129
 8427 1d9b 17       		.uleb128 0x17
 8428 1d9c BE000000 		.4byte	.LVL446
 8429 1da0 2F270000 		.4byte	0x272f
 8430 1da4 18       		.uleb128 0x18
 8431 1da5 DA000000 		.4byte	.LVL448
 8432 1da9 3A270000 		.4byte	0x273a
 8433 1dad C61D0000 		.4byte	0x1dc6
 8434 1db1 19       		.uleb128 0x19
 8435 1db2 01       		.uleb128 0x1
 8436 1db3 50       		.byte	0x50
 8437 1db4 02       		.uleb128 0x2
 8438 1db5 74       		.byte	0x74
 8439 1db6 00       		.sleb128 0
 8440 1db7 19       		.uleb128 0x19
 8441 1db8 01       		.uleb128 0x1
 8442 1db9 51       		.byte	0x51
 8443 1dba 05       		.uleb128 0x5
 8444 1dbb 03       		.byte	0x3
 8445 1dbc F4010000 		.4byte	.LC134
 8446 1dc0 19       		.uleb128 0x19
 8447 1dc1 01       		.uleb128 0x1
 8448 1dc2 52       		.byte	0x52
 8449 1dc3 01       		.uleb128 0x1
 8450 1dc4 3A       		.byte	0x3a
 8451 1dc5 00       		.byte	0
 8452 1dc6 1A       		.uleb128 0x1a
 8453 1dc7 E0000000 		.4byte	.LVL449
 8454 1dcb 43270000 		.4byte	0x2743
 8455 1dcf 19       		.uleb128 0x19
 8456 1dd0 01       		.uleb128 0x1
 8457 1dd1 50       		.byte	0x50
 8458 1dd2 02       		.uleb128 0x2
 8459 1dd3 74       		.byte	0x74
 8460 1dd4 00       		.sleb128 0
ARM GAS  C:\Users\TERENC~1\AppData\Local\Temp\cc9BPywF.s 			page 174


 8461 1dd5 00       		.byte	0
 8462 1dd6 00       		.byte	0
 8463 1dd7 17       		.uleb128 0x17
 8464 1dd8 0E000000 		.4byte	.LVL423
 8465 1ddc 4E270000 		.4byte	0x274e
 8466 1de0 18       		.uleb128 0x18
 8467 1de1 4C000000 		.4byte	.LVL433
 8468 1de5 C8190000 		.4byte	0x19c8
 8469 1de9 FD1D0000 		.4byte	0x1dfd
 8470 1ded 19       		.uleb128 0x19
 8471 1dee 01       		.uleb128 0x1
 8472 1def 50       		.byte	0x50
 8473 1df0 02       		.uleb128 0x2
 8474 1df1 74       		.byte	0x74
 8475 1df2 00       		.sleb128 0
 8476 1df3 19       		.uleb128 0x19
 8477 1df4 01       		.uleb128 0x1
 8478 1df5 51       		.byte	0x51
 8479 1df6 05       		.uleb128 0x5
 8480 1df7 03       		.byte	0x3
 8481 1df8 B4010000 		.4byte	.LC126
 8482 1dfc 00       		.byte	0
 8483 1dfd 18       		.uleb128 0x18
 8484 1dfe 58000000 		.4byte	.LVL434
 8485 1e02 C8190000 		.4byte	0x19c8
 8486 1e06 1A1E0000 		.4byte	0x1e1a
 8487 1e0a 19       		.uleb128 0x19
 8488 1e0b 01       		.uleb128 0x1
 8489 1e0c 50       		.byte	0x50
 8490 1e0d 02       		.uleb128 0x2
 8491 1e0e 74       		.byte	0x74
 8492 1e0f 00       		.sleb128 0
 8493 1e10 19       		.uleb128 0x19
 8494 1e11 01       		.uleb128 0x1
 8495 1e12 51       		.byte	0x51
 8496 1e13 05       		.uleb128 0x5
 8497 1e14 03       		.byte	0x3
 8498 1e15 B8010000 		.4byte	.LC128
 8499 1e19 00       		.byte	0
 8500 1e1a 18       		.uleb128 0x18
 8501 1e1b 64000000 		.4byte	.LVL435
 8502 1e1f C8190000 		.4byte	0x19c8
 8503 1e23 371E0000 		.4byte	0x1e37
 8504 1e27 19       		.uleb128 0x19
 8505 1e28 01       		.uleb128 0x1
 8506 1e29 50       		.byte	0x50
 8507 1e2a 02       		.uleb128 0x2
 8508 1e2b 74       		.byte	0x74
 8509 1e2c 00       		.sleb128 0
 8510 1e2d 19       		.uleb128 0x19
 8511 1e2e 01       		.uleb128 0x1
 8512 1e2f 51       		.byte	0x51
 8513 1e30 05       		.uleb128 0x5
 8514 1e31 03       		.byte	0x3
 8515 1e32 C0010000 		.4byte	.LC130
 8516 1e36 00       		.byte	0
 8517 1e37 17       		.uleb128 0x17
ARM GAS  C:\Users\TERENC~1\AppData\Local\Temp\cc9BPywF.s 			page 175


 8518 1e38 6C000000 		.4byte	.LVL436
 8519 1e3c 4E270000 		.4byte	0x274e
 8520 1e40 17       		.uleb128 0x17
 8521 1e41 AE000000 		.4byte	.LVL443
 8522 1e45 4C280000 		.4byte	0x284c
 8523 1e49 17       		.uleb128 0x17
 8524 1e4a B2000000 		.4byte	.LVL444
 8525 1e4e 4E270000 		.4byte	0x274e
 8526 1e52 00       		.byte	0
 8527 1e53 12       		.uleb128 0x12
 8528 1e54 79000000 		.4byte	.LASF85
 8529 1e58 01       		.byte	0x1
 8530 1e59 2F02     		.2byte	0x22f
 8531 1e5b 25000000 		.4byte	0x25
 8532 1e5f 00000000 		.4byte	.LFB26
 8533 1e63 C0000000 		.4byte	.LFE26-.LFB26
 8534 1e67 01       		.uleb128 0x1
 8535 1e68 9C       		.byte	0x9c
 8536 1e69 7A1F0000 		.4byte	0x1f7a
 8537 1e6d 13       		.uleb128 0x13
 8538 1e6e D0040000 		.4byte	.LASF46
 8539 1e72 01       		.byte	0x1
 8540 1e73 2F02     		.2byte	0x22f
 8541 1e75 25000000 		.4byte	0x25
 8542 1e79 74120000 		.4byte	.LLST130
 8543 1e7d 13       		.uleb128 0x13
 8544 1e7e F8040000 		.4byte	.LASF47
 8545 1e82 01       		.byte	0x1
 8546 1e83 2F02     		.2byte	0x22f
 8547 1e85 25020000 		.4byte	0x225
 8548 1e89 C1120000 		.4byte	.LLST131
 8549 1e8d 16       		.uleb128 0x16
 8550 1e8e 6900     		.ascii	"i\000"
 8551 1e90 01       		.byte	0x1
 8552 1e91 3102     		.2byte	0x231
 8553 1e93 25000000 		.4byte	0x25
 8554 1e97 03130000 		.4byte	.LLST132
 8555 1e9b 15       		.uleb128 0x15
 8556 1e9c 10000000 		.4byte	.LBB50
 8557 1ea0 2A000000 		.4byte	.LBE50-.LBB50
 8558 1ea4 F31E0000 		.4byte	0x1ef3
 8559 1ea8 16       		.uleb128 0x16
 8560 1ea9 733100   		.ascii	"s1\000"
 8561 1eac 01       		.byte	0x1
 8562 1ead 3702     		.2byte	0x237
 8563 1eaf CF000000 		.4byte	0xcf
 8564 1eb3 5F130000 		.4byte	.LLST133
 8565 1eb7 17       		.uleb128 0x17
 8566 1eb8 18000000 		.4byte	.LVL458
 8567 1ebc 2F270000 		.4byte	0x272f
 8568 1ec0 18       		.uleb128 0x18
 8569 1ec1 34000000 		.4byte	.LVL460
 8570 1ec5 3A270000 		.4byte	0x273a
 8571 1ec9 E21E0000 		.4byte	0x1ee2
 8572 1ecd 19       		.uleb128 0x19
 8573 1ece 01       		.uleb128 0x1
 8574 1ecf 50       		.byte	0x50
ARM GAS  C:\Users\TERENC~1\AppData\Local\Temp\cc9BPywF.s 			page 176


 8575 1ed0 02       		.uleb128 0x2
 8576 1ed1 74       		.byte	0x74
 8577 1ed2 00       		.sleb128 0
 8578 1ed3 19       		.uleb128 0x19
 8579 1ed4 01       		.uleb128 0x1
 8580 1ed5 51       		.byte	0x51
 8581 1ed6 05       		.uleb128 0x5
 8582 1ed7 03       		.byte	0x3
 8583 1ed8 0C000000 		.4byte	.LC6
 8584 1edc 19       		.uleb128 0x19
 8585 1edd 01       		.uleb128 0x1
 8586 1ede 52       		.byte	0x52
 8587 1edf 01       		.uleb128 0x1
 8588 1ee0 4E       		.byte	0x4e
 8589 1ee1 00       		.byte	0
 8590 1ee2 1A       		.uleb128 0x1a
 8591 1ee3 3A000000 		.4byte	.LVL461
 8592 1ee7 43270000 		.4byte	0x2743
 8593 1eeb 19       		.uleb128 0x19
 8594 1eec 01       		.uleb128 0x1
 8595 1eed 50       		.byte	0x50
 8596 1eee 02       		.uleb128 0x2
 8597 1eef 74       		.byte	0x74
 8598 1ef0 00       		.sleb128 0
 8599 1ef1 00       		.byte	0
 8600 1ef2 00       		.byte	0
 8601 1ef3 17       		.uleb128 0x17
 8602 1ef4 0C000000 		.4byte	.LVL456
 8603 1ef8 4E270000 		.4byte	0x274e
 8604 1efc 18       		.uleb128 0x18
 8605 1efd 4A000000 		.4byte	.LVL465
 8606 1f01 C8190000 		.4byte	0x19c8
 8607 1f05 191F0000 		.4byte	0x1f19
 8608 1f09 19       		.uleb128 0x19
 8609 1f0a 01       		.uleb128 0x1
 8610 1f0b 50       		.byte	0x50
 8611 1f0c 02       		.uleb128 0x2
 8612 1f0d 76       		.byte	0x76
 8613 1f0e 00       		.sleb128 0
 8614 1f0f 19       		.uleb128 0x19
 8615 1f10 01       		.uleb128 0x1
 8616 1f11 51       		.byte	0x51
 8617 1f12 05       		.uleb128 0x5
 8618 1f13 03       		.byte	0x3
 8619 1f14 00020000 		.4byte	.LC147
 8620 1f18 00       		.byte	0
 8621 1f19 17       		.uleb128 0x17
 8622 1f1a 58000000 		.4byte	.LVL467
 8623 1f1e 5A270000 		.4byte	0x275a
 8624 1f22 18       		.uleb128 0x18
 8625 1f23 64000000 		.4byte	.LVL469
 8626 1f27 C8190000 		.4byte	0x19c8
 8627 1f2b 3F1F0000 		.4byte	0x1f3f
 8628 1f2f 19       		.uleb128 0x19
 8629 1f30 01       		.uleb128 0x1
 8630 1f31 50       		.byte	0x50
 8631 1f32 02       		.uleb128 0x2
ARM GAS  C:\Users\TERENC~1\AppData\Local\Temp\cc9BPywF.s 			page 177


 8632 1f33 76       		.byte	0x76
 8633 1f34 00       		.sleb128 0
 8634 1f35 19       		.uleb128 0x19
 8635 1f36 01       		.uleb128 0x1
 8636 1f37 51       		.byte	0x51
 8637 1f38 05       		.uleb128 0x5
 8638 1f39 03       		.byte	0x3
 8639 1f3a 14020000 		.4byte	.LC150
 8640 1f3e 00       		.byte	0
 8641 1f3f 17       		.uleb128 0x17
 8642 1f40 72000000 		.4byte	.LVL471
 8643 1f44 5A270000 		.4byte	0x275a
 8644 1f48 18       		.uleb128 0x18
 8645 1f49 7E000000 		.4byte	.LVL473
 8646 1f4d C8190000 		.4byte	0x19c8
 8647 1f51 651F0000 		.4byte	0x1f65
 8648 1f55 19       		.uleb128 0x19
 8649 1f56 01       		.uleb128 0x1
 8650 1f57 50       		.byte	0x50
 8651 1f58 02       		.uleb128 0x2
 8652 1f59 76       		.byte	0x76
 8653 1f5a 00       		.sleb128 0
 8654 1f5b 19       		.uleb128 0x19
 8655 1f5c 01       		.uleb128 0x1
 8656 1f5d 51       		.byte	0x51
 8657 1f5e 05       		.uleb128 0x5
 8658 1f5f 03       		.byte	0x3
 8659 1f60 20020000 		.4byte	.LC152
 8660 1f64 00       		.byte	0
 8661 1f65 1A       		.uleb128 0x1a
 8662 1f66 90000000 		.4byte	.LVL475
 8663 1f6a 86270000 		.4byte	0x2786
 8664 1f6e 19       		.uleb128 0x19
 8665 1f6f 01       		.uleb128 0x1
 8666 1f70 51       		.byte	0x51
 8667 1f71 01       		.uleb128 0x1
 8668 1f72 30       		.byte	0x30
 8669 1f73 19       		.uleb128 0x19
 8670 1f74 01       		.uleb128 0x1
 8671 1f75 52       		.byte	0x52
 8672 1f76 01       		.uleb128 0x1
 8673 1f77 40       		.byte	0x40
 8674 1f78 00       		.byte	0
 8675 1f79 00       		.byte	0
 8676 1f7a 26       		.uleb128 0x26
 8677 1f7b 2A010000 		.4byte	.LASF142
 8678 1f7f 01       		.byte	0x1
 8679 1f80 6002     		.2byte	0x260
 8680 1f82 25000000 		.4byte	0x25
 8681 1f86 00000000 		.4byte	.LFB30
 8682 1f8a E8020000 		.4byte	.LFE30-.LFB30
 8683 1f8e 01       		.uleb128 0x1
 8684 1f8f 9C       		.byte	0x9c
 8685 1f90 EC220000 		.4byte	0x22ec
 8686 1f94 20       		.uleb128 0x20
 8687 1f95 40040000 		.4byte	.LASF86
 8688 1f99 01       		.byte	0x1
ARM GAS  C:\Users\TERENC~1\AppData\Local\Temp\cc9BPywF.s 			page 178


 8689 1f9a 6202     		.2byte	0x262
 8690 1f9c 25000000 		.4byte	0x25
 8691 1fa0 72130000 		.4byte	.LLST134
 8692 1fa4 16       		.uleb128 0x16
 8693 1fa5 62756600 		.ascii	"buf\000"
 8694 1fa9 01       		.byte	0x1
 8695 1faa 6302     		.2byte	0x263
 8696 1fac 9A000000 		.4byte	0x9a
 8697 1fb0 E0130000 		.4byte	.LLST135
 8698 1fb4 20       		.uleb128 0x20
 8699 1fb5 69010000 		.4byte	.LASF87
 8700 1fb9 01       		.byte	0x1
 8701 1fba 6402     		.2byte	0x264
 8702 1fbc 6A140000 		.4byte	0x146a
 8703 1fc0 19140000 		.4byte	.LLST136
 8704 1fc4 22       		.uleb128 0x22
 8705 1fc5 F8040000 		.4byte	.LASF47
 8706 1fc9 01       		.byte	0x1
 8707 1fca 6502     		.2byte	0x265
 8708 1fcc EC220000 		.4byte	0x22ec
 8709 1fd0 03       		.uleb128 0x3
 8710 1fd1 91       		.byte	0x91
 8711 1fd2 B07F     		.sleb128 -80
 8712 1fd4 20       		.uleb128 0x20
 8713 1fd5 D0040000 		.4byte	.LASF46
 8714 1fd9 01       		.byte	0x1
 8715 1fda 6602     		.2byte	0x266
 8716 1fdc 25000000 		.4byte	0x25
 8717 1fe0 AB140000 		.4byte	.LLST137
 8718 1fe4 16       		.uleb128 0x16
 8719 1fe5 6900     		.ascii	"i\000"
 8720 1fe7 01       		.byte	0x1
 8721 1fe8 6702     		.2byte	0x267
 8722 1fea 25000000 		.4byte	0x25
 8723 1fee F6140000 		.4byte	.LLST138
 8724 1ff2 16       		.uleb128 0x16
 8725 1ff3 6A00     		.ascii	"j\000"
 8726 1ff5 01       		.byte	0x1
 8727 1ff6 6702     		.2byte	0x267
 8728 1ff8 25000000 		.4byte	0x25
 8729 1ffc 43150000 		.4byte	.LLST139
 8730 2000 16       		.uleb128 0x16
 8731 2001 6B00     		.ascii	"k\000"
 8732 2003 01       		.byte	0x1
 8733 2004 6702     		.2byte	0x267
 8734 2006 25000000 		.4byte	0x25
 8735 200a 85150000 		.4byte	.LLST140
 8736 200e 15       		.uleb128 0x15
 8737 200f 66000000 		.4byte	.LBB51
 8738 2013 2A000000 		.4byte	.LBE51-.LBB51
 8739 2017 66200000 		.4byte	0x2066
 8740 201b 16       		.uleb128 0x16
 8741 201c 733100   		.ascii	"s1\000"
 8742 201f 01       		.byte	0x1
 8743 2020 8202     		.2byte	0x282
 8744 2022 CF000000 		.4byte	0xcf
 8745 2026 C7150000 		.4byte	.LLST141
ARM GAS  C:\Users\TERENC~1\AppData\Local\Temp\cc9BPywF.s 			page 179


 8746 202a 17       		.uleb128 0x17
 8747 202b 6E000000 		.4byte	.LVL486
 8748 202f 2F270000 		.4byte	0x272f
 8749 2033 18       		.uleb128 0x18
 8750 2034 8A000000 		.4byte	.LVL488
 8751 2038 3A270000 		.4byte	0x273a
 8752 203c 55200000 		.4byte	0x2055
 8753 2040 19       		.uleb128 0x19
 8754 2041 01       		.uleb128 0x1
 8755 2042 50       		.byte	0x50
 8756 2043 02       		.uleb128 0x2
 8757 2044 74       		.byte	0x74
 8758 2045 00       		.sleb128 0
 8759 2046 19       		.uleb128 0x19
 8760 2047 01       		.uleb128 0x1
 8761 2048 51       		.byte	0x51
 8762 2049 05       		.uleb128 0x5
 8763 204a 03       		.byte	0x3
 8764 204b 2C020000 		.4byte	.LC158
 8765 204f 19       		.uleb128 0x19
 8766 2050 01       		.uleb128 0x1
 8767 2051 52       		.byte	0x52
 8768 2052 01       		.uleb128 0x1
 8769 2053 45       		.byte	0x45
 8770 2054 00       		.byte	0
 8771 2055 1A       		.uleb128 0x1a
 8772 2056 90000000 		.4byte	.LVL489
 8773 205a 43270000 		.4byte	0x2743
 8774 205e 19       		.uleb128 0x19
 8775 205f 01       		.uleb128 0x1
 8776 2060 50       		.byte	0x50
 8777 2061 02       		.uleb128 0x2
 8778 2062 74       		.byte	0x74
 8779 2063 00       		.sleb128 0
 8780 2064 00       		.byte	0
 8781 2065 00       		.byte	0
 8782 2066 15       		.uleb128 0x15
 8783 2067 EA000000 		.4byte	.LBB52
 8784 206b 2C000000 		.4byte	.LBE52-.LBB52
 8785 206f C1200000 		.4byte	0x20c1
 8786 2073 16       		.uleb128 0x16
 8787 2074 733100   		.ascii	"s1\000"
 8788 2077 01       		.byte	0x1
 8789 2078 9902     		.2byte	0x299
 8790 207a CF000000 		.4byte	0xcf
 8791 207e DA150000 		.4byte	.LLST142
 8792 2082 17       		.uleb128 0x17
 8793 2083 F2000000 		.4byte	.LVL503
 8794 2087 2F270000 		.4byte	0x272f
 8795 208b 18       		.uleb128 0x18
 8796 208c 0E010000 		.4byte	.LVL505
 8797 2090 65270000 		.4byte	0x2765
 8798 2094 B0200000 		.4byte	0x20b0
 8799 2098 19       		.uleb128 0x19
 8800 2099 01       		.uleb128 0x1
 8801 209a 50       		.byte	0x50
 8802 209b 02       		.uleb128 0x2
ARM GAS  C:\Users\TERENC~1\AppData\Local\Temp\cc9BPywF.s 			page 180


 8803 209c 75       		.byte	0x75
 8804 209d 00       		.sleb128 0
 8805 209e 19       		.uleb128 0x19
 8806 209f 01       		.uleb128 0x1
 8807 20a0 51       		.byte	0x51
 8808 20a1 05       		.uleb128 0x5
 8809 20a2 03       		.byte	0x3
 8810 20a3 4C020000 		.4byte	.LC162
 8811 20a7 19       		.uleb128 0x19
 8812 20a8 01       		.uleb128 0x1
 8813 20a9 52       		.byte	0x52
 8814 20aa 04       		.uleb128 0x4
 8815 20ab 91       		.byte	0x91
 8816 20ac A87F     		.sleb128 -88
 8817 20ae 06       		.byte	0x6
 8818 20af 00       		.byte	0
 8819 20b0 1A       		.uleb128 0x1a
 8820 20b1 14010000 		.4byte	.LVL506
 8821 20b5 43270000 		.4byte	0x2743
 8822 20b9 19       		.uleb128 0x19
 8823 20ba 01       		.uleb128 0x1
 8824 20bb 50       		.byte	0x50
 8825 20bc 02       		.uleb128 0x2
 8826 20bd 75       		.byte	0x75
 8827 20be 00       		.sleb128 0
 8828 20bf 00       		.byte	0
 8829 20c0 00       		.byte	0
 8830 20c1 15       		.uleb128 0x15
 8831 20c2 1E010000 		.4byte	.LBB53
 8832 20c6 34000000 		.4byte	.LBE53-.LBB53
 8833 20ca 1C210000 		.4byte	0x211c
 8834 20ce 16       		.uleb128 0x16
 8835 20cf 733100   		.ascii	"s1\000"
 8836 20d2 01       		.byte	0x1
 8837 20d3 9C02     		.2byte	0x29c
 8838 20d5 CF000000 		.4byte	0xcf
 8839 20d9 ED150000 		.4byte	.LLST143
 8840 20dd 17       		.uleb128 0x17
 8841 20de 26010000 		.4byte	.LVL509
 8842 20e2 2F270000 		.4byte	0x272f
 8843 20e6 18       		.uleb128 0x18
 8844 20e7 4C010000 		.4byte	.LVL511
 8845 20eb 65270000 		.4byte	0x2765
 8846 20ef 0B210000 		.4byte	0x210b
 8847 20f3 19       		.uleb128 0x19
 8848 20f4 01       		.uleb128 0x1
 8849 20f5 50       		.byte	0x50
 8850 20f6 02       		.uleb128 0x2
 8851 20f7 75       		.byte	0x75
 8852 20f8 00       		.sleb128 0
 8853 20f9 19       		.uleb128 0x19
 8854 20fa 01       		.uleb128 0x1
 8855 20fb 51       		.byte	0x51
 8856 20fc 05       		.uleb128 0x5
 8857 20fd 03       		.byte	0x3
 8858 20fe 70020000 		.4byte	.LC164
 8859 2102 19       		.uleb128 0x19
ARM GAS  C:\Users\TERENC~1\AppData\Local\Temp\cc9BPywF.s 			page 181


 8860 2103 01       		.uleb128 0x1
 8861 2104 52       		.byte	0x52
 8862 2105 04       		.uleb128 0x4
 8863 2106 91       		.byte	0x91
 8864 2107 A87F     		.sleb128 -88
 8865 2109 06       		.byte	0x6
 8866 210a 00       		.byte	0
 8867 210b 1A       		.uleb128 0x1a
 8868 210c 52010000 		.4byte	.LVL512
 8869 2110 43270000 		.4byte	0x2743
 8870 2114 19       		.uleb128 0x19
 8871 2115 01       		.uleb128 0x1
 8872 2116 50       		.byte	0x50
 8873 2117 02       		.uleb128 0x2
 8874 2118 75       		.byte	0x75
 8875 2119 00       		.sleb128 0
 8876 211a 00       		.byte	0
 8877 211b 00       		.byte	0
 8878 211c 15       		.uleb128 0x15
 8879 211d B2010000 		.4byte	.LBB54
 8880 2121 2C000000 		.4byte	.LBE54-.LBB54
 8881 2125 74210000 		.4byte	0x2174
 8882 2129 16       		.uleb128 0x16
 8883 212a 733100   		.ascii	"s1\000"
 8884 212d 01       		.byte	0x1
 8885 212e AC02     		.2byte	0x2ac
 8886 2130 CF000000 		.4byte	0xcf
 8887 2134 00160000 		.4byte	.LLST144
 8888 2138 17       		.uleb128 0x17
 8889 2139 BA010000 		.4byte	.LVL521
 8890 213d 2F270000 		.4byte	0x272f
 8891 2141 18       		.uleb128 0x18
 8892 2142 D6010000 		.4byte	.LVL523
 8893 2146 3A270000 		.4byte	0x273a
 8894 214a 63210000 		.4byte	0x2163
 8895 214e 19       		.uleb128 0x19
 8896 214f 01       		.uleb128 0x1
 8897 2150 50       		.byte	0x50
 8898 2151 02       		.uleb128 0x2
 8899 2152 75       		.byte	0x75
 8900 2153 00       		.sleb128 0
 8901 2154 19       		.uleb128 0x19
 8902 2155 01       		.uleb128 0x1
 8903 2156 51       		.byte	0x51
 8904 2157 05       		.uleb128 0x5
 8905 2158 03       		.byte	0x3
 8906 2159 7C020000 		.4byte	.LC167
 8907 215d 19       		.uleb128 0x19
 8908 215e 01       		.uleb128 0x1
 8909 215f 52       		.byte	0x52
 8910 2160 01       		.uleb128 0x1
 8911 2161 4E       		.byte	0x4e
 8912 2162 00       		.byte	0
 8913 2163 1A       		.uleb128 0x1a
 8914 2164 DC010000 		.4byte	.LVL524
 8915 2168 43270000 		.4byte	0x2743
 8916 216c 19       		.uleb128 0x19
ARM GAS  C:\Users\TERENC~1\AppData\Local\Temp\cc9BPywF.s 			page 182


 8917 216d 01       		.uleb128 0x1
 8918 216e 50       		.byte	0x50
 8919 216f 02       		.uleb128 0x2
 8920 2170 75       		.byte	0x75
 8921 2171 00       		.sleb128 0
 8922 2172 00       		.byte	0
 8923 2173 00       		.byte	0
 8924 2174 15       		.uleb128 0x15
 8925 2175 E6010000 		.4byte	.LBB55
 8926 2179 36000000 		.4byte	.LBE55-.LBB55
 8927 217d E1210000 		.4byte	0x21e1
 8928 2181 16       		.uleb128 0x16
 8929 2182 733100   		.ascii	"s1\000"
 8930 2185 01       		.byte	0x1
 8931 2186 AF02     		.2byte	0x2af
 8932 2188 CF000000 		.4byte	0xcf
 8933 218c 13160000 		.4byte	.LLST145
 8934 2190 17       		.uleb128 0x17
 8935 2191 EE010000 		.4byte	.LVL528
 8936 2195 2F270000 		.4byte	0x272f
 8937 2199 18       		.uleb128 0x18
 8938 219a 16020000 		.4byte	.LVL530
 8939 219e 65270000 		.4byte	0x2765
 8940 21a2 D0210000 		.4byte	0x21d0
 8941 21a6 19       		.uleb128 0x19
 8942 21a7 01       		.uleb128 0x1
 8943 21a8 50       		.byte	0x50
 8944 21a9 02       		.uleb128 0x2
 8945 21aa 75       		.byte	0x75
 8946 21ab 00       		.sleb128 0
 8947 21ac 19       		.uleb128 0x19
 8948 21ad 01       		.uleb128 0x1
 8949 21ae 51       		.byte	0x51
 8950 21af 05       		.uleb128 0x5
 8951 21b0 03       		.byte	0x3
 8952 21b1 9C020000 		.4byte	.LC169
 8953 21b5 19       		.uleb128 0x19
 8954 21b6 01       		.uleb128 0x1
 8955 21b7 52       		.byte	0x52
 8956 21b8 02       		.uleb128 0x2
 8957 21b9 76       		.byte	0x76
 8958 21ba 00       		.sleb128 0
 8959 21bb 19       		.uleb128 0x19
 8960 21bc 01       		.uleb128 0x1
 8961 21bd 53       		.byte	0x53
 8962 21be 10       		.uleb128 0x10
 8963 21bf 74       		.byte	0x74
 8964 21c0 00       		.sleb128 0
 8965 21c1 31       		.byte	0x31
 8966 21c2 24       		.byte	0x24
 8967 21c3 74       		.byte	0x74
 8968 21c4 00       		.sleb128 0
 8969 21c5 22       		.byte	0x22
 8970 21c6 32       		.byte	0x32
 8971 21c7 24       		.byte	0x24
 8972 21c8 03       		.byte	0x3
 8973 21c9 48000000 		.4byte	.LANCHOR0+72
ARM GAS  C:\Users\TERENC~1\AppData\Local\Temp\cc9BPywF.s 			page 183


 8974 21cd 22       		.byte	0x22
 8975 21ce 06       		.byte	0x6
 8976 21cf 00       		.byte	0
 8977 21d0 1A       		.uleb128 0x1a
 8978 21d1 1C020000 		.4byte	.LVL531
 8979 21d5 43270000 		.4byte	0x2743
 8980 21d9 19       		.uleb128 0x19
 8981 21da 01       		.uleb128 0x1
 8982 21db 50       		.byte	0x50
 8983 21dc 02       		.uleb128 0x2
 8984 21dd 75       		.byte	0x75
 8985 21de 00       		.sleb128 0
 8986 21df 00       		.byte	0
 8987 21e0 00       		.byte	0
 8988 21e1 15       		.uleb128 0x15
 8989 21e2 6C020000 		.4byte	.LBB56
 8990 21e6 2A000000 		.4byte	.LBE56-.LBB56
 8991 21ea 34220000 		.4byte	0x2234
 8992 21ee 16       		.uleb128 0x16
 8993 21ef 733100   		.ascii	"s1\000"
 8994 21f2 01       		.byte	0x1
 8995 21f3 BA02     		.2byte	0x2ba
 8996 21f5 CF000000 		.4byte	0xcf
 8997 21f9 26160000 		.4byte	.LLST146
 8998 21fd 17       		.uleb128 0x17
 8999 21fe 74020000 		.4byte	.LVL541
 9000 2202 2F270000 		.4byte	0x272f
 9001 2206 18       		.uleb128 0x18
 9002 2207 90020000 		.4byte	.LVL543
 9003 220b 65270000 		.4byte	0x2765
 9004 220f 23220000 		.4byte	0x2223
 9005 2213 19       		.uleb128 0x19
 9006 2214 01       		.uleb128 0x1
 9007 2215 50       		.byte	0x50
 9008 2216 02       		.uleb128 0x2
 9009 2217 74       		.byte	0x74
 9010 2218 00       		.sleb128 0
 9011 2219 19       		.uleb128 0x19
 9012 221a 01       		.uleb128 0x1
 9013 221b 51       		.byte	0x51
 9014 221c 05       		.uleb128 0x5
 9015 221d 03       		.byte	0x3
 9016 221e A8020000 		.4byte	.LC171
 9017 2222 00       		.byte	0
 9018 2223 1A       		.uleb128 0x1a
 9019 2224 96020000 		.4byte	.LVL544
 9020 2228 43270000 		.4byte	0x2743
 9021 222c 19       		.uleb128 0x19
 9022 222d 01       		.uleb128 0x1
 9023 222e 50       		.byte	0x50
 9024 222f 02       		.uleb128 0x2
 9025 2230 74       		.byte	0x74
 9026 2231 00       		.sleb128 0
 9027 2232 00       		.byte	0
 9028 2233 00       		.byte	0
 9029 2234 17       		.uleb128 0x17
 9030 2235 60000000 		.4byte	.LVL484
ARM GAS  C:\Users\TERENC~1\AppData\Local\Temp\cc9BPywF.s 			page 184


 9031 2239 4E270000 		.4byte	0x274e
 9032 223d 18       		.uleb128 0x18
 9033 223e B2000000 		.4byte	.LVL494
 9034 2242 C8190000 		.4byte	0x19c8
 9035 2246 59220000 		.4byte	0x2259
 9036 224a 19       		.uleb128 0x19
 9037 224b 01       		.uleb128 0x1
 9038 224c 50       		.byte	0x50
 9039 224d 02       		.uleb128 0x2
 9040 224e 75       		.byte	0x75
 9041 224f 00       		.sleb128 0
 9042 2250 19       		.uleb128 0x19
 9043 2251 01       		.uleb128 0x1
 9044 2252 51       		.byte	0x51
 9045 2253 04       		.uleb128 0x4
 9046 2254 91       		.byte	0x91
 9047 2255 A87F     		.sleb128 -88
 9048 2257 06       		.byte	0x6
 9049 2258 00       		.byte	0
 9050 2259 18       		.uleb128 0x18
 9051 225a C0000000 		.4byte	.LVL495
 9052 225e C8190000 		.4byte	0x19c8
 9053 2262 6D220000 		.4byte	0x226d
 9054 2266 19       		.uleb128 0x19
 9055 2267 01       		.uleb128 0x1
 9056 2268 50       		.byte	0x50
 9057 2269 02       		.uleb128 0x2
 9058 226a 75       		.byte	0x75
 9059 226b 00       		.sleb128 0
 9060 226c 00       		.byte	0
 9061 226d 27       		.uleb128 0x27
 9062 226e CE000000 		.4byte	.LVL496
 9063 2272 84220000 		.4byte	0x2284
 9064 2276 19       		.uleb128 0x19
 9065 2277 01       		.uleb128 0x1
 9066 2278 50       		.byte	0x50
 9067 2279 02       		.uleb128 0x2
 9068 227a 79       		.byte	0x79
 9069 227b 00       		.sleb128 0
 9070 227c 19       		.uleb128 0x19
 9071 227d 01       		.uleb128 0x1
 9072 227e 51       		.byte	0x51
 9073 227f 03       		.uleb128 0x3
 9074 2280 91       		.byte	0x91
 9075 2281 B07F     		.sleb128 -80
 9076 2283 00       		.byte	0
 9077 2284 18       		.uleb128 0x18
 9078 2285 DE000000 		.4byte	.LVL499
 9079 2289 C8190000 		.4byte	0x19c8
 9080 228d A1220000 		.4byte	0x22a1
 9081 2291 19       		.uleb128 0x19
 9082 2292 01       		.uleb128 0x1
 9083 2293 50       		.byte	0x50
 9084 2294 02       		.uleb128 0x2
 9085 2295 75       		.byte	0x75
 9086 2296 00       		.sleb128 0
 9087 2297 19       		.uleb128 0x19
ARM GAS  C:\Users\TERENC~1\AppData\Local\Temp\cc9BPywF.s 			page 185


 9088 2298 01       		.uleb128 0x1
 9089 2299 51       		.byte	0x51
 9090 229a 05       		.uleb128 0x5
 9091 229b 03       		.byte	0x3
 9092 229c 44020000 		.4byte	.LC160
 9093 22a0 00       		.byte	0
 9094 22a1 17       		.uleb128 0x17
 9095 22a2 E6000000 		.4byte	.LVL501
 9096 22a6 4E270000 		.4byte	0x274e
 9097 22aa 17       		.uleb128 0x17
 9098 22ab 1A010000 		.4byte	.LVL507
 9099 22af 4E270000 		.4byte	0x274e
 9100 22b3 18       		.uleb128 0x18
 9101 22b4 A6010000 		.4byte	.LVL517
 9102 22b8 C8190000 		.4byte	0x19c8
 9103 22bc D0220000 		.4byte	0x22d0
 9104 22c0 19       		.uleb128 0x19
 9105 22c1 01       		.uleb128 0x1
 9106 22c2 50       		.byte	0x50
 9107 22c3 02       		.uleb128 0x2
 9108 22c4 75       		.byte	0x75
 9109 22c5 00       		.sleb128 0
 9110 22c6 19       		.uleb128 0x19
 9111 22c7 01       		.uleb128 0x1
 9112 22c8 51       		.byte	0x51
 9113 22c9 05       		.uleb128 0x5
 9114 22ca 03       		.byte	0x3
 9115 22cb 44020000 		.4byte	.LC160
 9116 22cf 00       		.byte	0
 9117 22d0 17       		.uleb128 0x17
 9118 22d1 AE010000 		.4byte	.LVL519
 9119 22d5 4E270000 		.4byte	0x274e
 9120 22d9 17       		.uleb128 0x17
 9121 22da E2010000 		.4byte	.LVL526
 9122 22de 4E270000 		.4byte	0x274e
 9123 22e2 17       		.uleb128 0x17
 9124 22e3 68020000 		.4byte	.LVL539
 9125 22e7 4E270000 		.4byte	0x274e
 9126 22eb 00       		.byte	0
 9127 22ec 0E       		.uleb128 0xe
 9128 22ed 9A000000 		.4byte	0x9a
 9129 22f1 FC220000 		.4byte	0x22fc
 9130 22f5 0F       		.uleb128 0xf
 9131 22f6 93000000 		.4byte	0x93
 9132 22fa 09       		.byte	0x9
 9133 22fb 00       		.byte	0
 9134 22fc 28       		.uleb128 0x28
 9135 22fd 00000000 		.4byte	.LASF88
 9136 2301 01       		.byte	0x1
 9137 2302 C002     		.2byte	0x2c0
 9138 2304 00000000 		.4byte	.LFB31
 9139 2308 1C000000 		.4byte	.LFE31-.LFB31
 9140 230c 01       		.uleb128 0x1
 9141 230d 9C       		.byte	0x9c
 9142 230e 2E230000 		.4byte	0x232e
 9143 2312 1A       		.uleb128 0x1a
 9144 2313 0E000000 		.4byte	.LVL549
ARM GAS  C:\Users\TERENC~1\AppData\Local\Temp\cc9BPywF.s 			page 186


 9145 2317 57280000 		.4byte	0x2857
 9146 231b 19       		.uleb128 0x19
 9147 231c 01       		.uleb128 0x1
 9148 231d 50       		.byte	0x50
 9149 231e 02       		.uleb128 0x2
 9150 231f 74       		.byte	0x74
 9151 2320 00       		.sleb128 0
 9152 2321 19       		.uleb128 0x19
 9153 2322 01       		.uleb128 0x1
 9154 2323 51       		.byte	0x51
 9155 2324 01       		.uleb128 0x1
 9156 2325 30       		.byte	0x30
 9157 2326 19       		.uleb128 0x19
 9158 2327 01       		.uleb128 0x1
 9159 2328 52       		.byte	0x52
 9160 2329 02       		.uleb128 0x2
 9161 232a 08       		.byte	0x8
 9162 232b 40       		.byte	0x40
 9163 232c 00       		.byte	0
 9164 232d 00       		.byte	0
 9165 232e 28       		.uleb128 0x28
 9166 232f 99060000 		.4byte	.LASF89
 9167 2333 01       		.byte	0x1
 9168 2334 C602     		.2byte	0x2c6
 9169 2336 00000000 		.4byte	.LFB32
 9170 233a 6C010000 		.4byte	.LFE32-.LFB32
 9171 233e 01       		.uleb128 0x1
 9172 233f 9C       		.byte	0x9c
 9173 2340 24250000 		.4byte	0x2524
 9174 2344 16       		.uleb128 0x16
 9175 2345 6300     		.ascii	"c\000"
 9176 2347 01       		.byte	0x1
 9177 2348 C802     		.2byte	0x2c8
 9178 234a A0000000 		.4byte	0xa0
 9179 234e 39160000 		.4byte	.LLST147
 9180 2352 16       		.uleb128 0x16
 9181 2353 6900     		.ascii	"i\000"
 9182 2355 01       		.byte	0x1
 9183 2356 C902     		.2byte	0x2c9
 9184 2358 DA000000 		.4byte	0xda
 9185 235c 6D160000 		.4byte	.LLST148
 9186 2360 20       		.uleb128 0x20
 9187 2361 BB010000 		.4byte	.LASF90
 9188 2365 01       		.byte	0x1
 9189 2366 CA02     		.2byte	0x2ca
 9190 2368 E6000000 		.4byte	0xe6
 9191 236c 97160000 		.4byte	.LLST149
 9192 2370 22       		.uleb128 0x22
 9193 2371 8C000000 		.4byte	.LASF91
 9194 2375 01       		.byte	0x1
 9195 2376 CB02     		.2byte	0x2cb
 9196 2378 24250000 		.4byte	0x2524
 9197 237c 03       		.uleb128 0x3
 9198 237d 91       		.byte	0x91
 9199 237e A87F     		.sleb128 -88
 9200 2380 15       		.uleb128 0x15
 9201 2381 36000000 		.4byte	.LBB57
ARM GAS  C:\Users\TERENC~1\AppData\Local\Temp\cc9BPywF.s 			page 187


 9202 2385 2A000000 		.4byte	.LBE57-.LBB57
 9203 2389 D9230000 		.4byte	0x23d9
 9204 238d 16       		.uleb128 0x16
 9205 238e 733100   		.ascii	"s1\000"
 9206 2391 01       		.byte	0x1
 9207 2392 F302     		.2byte	0x2f3
 9208 2394 CF000000 		.4byte	0xcf
 9209 2398 B5160000 		.4byte	.LLST150
 9210 239c 17       		.uleb128 0x17
 9211 239d 3E000000 		.4byte	.LVL558
 9212 23a1 2F270000 		.4byte	0x272f
 9213 23a5 18       		.uleb128 0x18
 9214 23a6 5A000000 		.4byte	.LVL560
 9215 23aa 65270000 		.4byte	0x2765
 9216 23ae C8230000 		.4byte	0x23c8
 9217 23b2 19       		.uleb128 0x19
 9218 23b3 01       		.uleb128 0x1
 9219 23b4 50       		.byte	0x50
 9220 23b5 02       		.uleb128 0x2
 9221 23b6 77       		.byte	0x77
 9222 23b7 00       		.sleb128 0
 9223 23b8 19       		.uleb128 0x19
 9224 23b9 01       		.uleb128 0x1
 9225 23ba 51       		.byte	0x51
 9226 23bb 05       		.uleb128 0x5
 9227 23bc 03       		.byte	0x3
 9228 23bd C0020000 		.4byte	.LC175
 9229 23c1 19       		.uleb128 0x19
 9230 23c2 01       		.uleb128 0x1
 9231 23c3 52       		.byte	0x52
 9232 23c4 02       		.uleb128 0x2
 9233 23c5 76       		.byte	0x76
 9234 23c6 00       		.sleb128 0
 9235 23c7 00       		.byte	0
 9236 23c8 1A       		.uleb128 0x1a
 9237 23c9 60000000 		.4byte	.LVL561
 9238 23cd 43270000 		.4byte	0x2743
 9239 23d1 19       		.uleb128 0x19
 9240 23d2 01       		.uleb128 0x1
 9241 23d3 50       		.byte	0x50
 9242 23d4 02       		.uleb128 0x2
 9243 23d5 77       		.byte	0x77
 9244 23d6 00       		.sleb128 0
 9245 23d7 00       		.byte	0
 9246 23d8 00       		.byte	0
 9247 23d9 15       		.uleb128 0x15
 9248 23da 76000000 		.4byte	.LBB58
 9249 23de 2A000000 		.4byte	.LBE58-.LBB58
 9250 23e2 31240000 		.4byte	0x2431
 9251 23e6 16       		.uleb128 0x16
 9252 23e7 733100   		.ascii	"s1\000"
 9253 23ea 01       		.byte	0x1
 9254 23eb F802     		.2byte	0x2f8
 9255 23ed CF000000 		.4byte	0xcf
 9256 23f1 C8160000 		.4byte	.LLST151
 9257 23f5 17       		.uleb128 0x17
 9258 23f6 7E000000 		.4byte	.LVL565
ARM GAS  C:\Users\TERENC~1\AppData\Local\Temp\cc9BPywF.s 			page 188


 9259 23fa 2F270000 		.4byte	0x272f
 9260 23fe 18       		.uleb128 0x18
 9261 23ff 9A000000 		.4byte	.LVL567
 9262 2403 3A270000 		.4byte	0x273a
 9263 2407 20240000 		.4byte	0x2420
 9264 240b 19       		.uleb128 0x19
 9265 240c 01       		.uleb128 0x1
 9266 240d 50       		.byte	0x50
 9267 240e 02       		.uleb128 0x2
 9268 240f 76       		.byte	0x76
 9269 2410 00       		.sleb128 0
 9270 2411 19       		.uleb128 0x19
 9271 2412 01       		.uleb128 0x1
 9272 2413 51       		.byte	0x51
 9273 2414 05       		.uleb128 0x5
 9274 2415 03       		.byte	0x3
 9275 2416 C4020000 		.4byte	.LC179
 9276 241a 19       		.uleb128 0x19
 9277 241b 01       		.uleb128 0x1
 9278 241c 52       		.byte	0x52
 9279 241d 01       		.uleb128 0x1
 9280 241e 37       		.byte	0x37
 9281 241f 00       		.byte	0
 9282 2420 1A       		.uleb128 0x1a
 9283 2421 A0000000 		.4byte	.LVL568
 9284 2425 43270000 		.4byte	0x2743
 9285 2429 19       		.uleb128 0x19
 9286 242a 01       		.uleb128 0x1
 9287 242b 50       		.byte	0x50
 9288 242c 02       		.uleb128 0x2
 9289 242d 76       		.byte	0x76
 9290 242e 00       		.sleb128 0
 9291 242f 00       		.byte	0
 9292 2430 00       		.byte	0
 9293 2431 15       		.uleb128 0x15
 9294 2432 CA000000 		.4byte	.LBB59
 9295 2436 2C000000 		.4byte	.LBE59-.LBB59
 9296 243a 89240000 		.4byte	0x2489
 9297 243e 16       		.uleb128 0x16
 9298 243f 733100   		.ascii	"s1\000"
 9299 2442 01       		.byte	0x1
 9300 2443 0403     		.2byte	0x304
 9301 2445 CF000000 		.4byte	0xcf
 9302 2449 DB160000 		.4byte	.LLST152
 9303 244d 17       		.uleb128 0x17
 9304 244e D2000000 		.4byte	.LVL572
 9305 2452 2F270000 		.4byte	0x272f
 9306 2456 18       		.uleb128 0x18
 9307 2457 EE000000 		.4byte	.LVL574
 9308 245b 3A270000 		.4byte	0x273a
 9309 245f 78240000 		.4byte	0x2478
 9310 2463 19       		.uleb128 0x19
 9311 2464 01       		.uleb128 0x1
 9312 2465 50       		.byte	0x50
 9313 2466 02       		.uleb128 0x2
 9314 2467 76       		.byte	0x76
 9315 2468 00       		.sleb128 0
ARM GAS  C:\Users\TERENC~1\AppData\Local\Temp\cc9BPywF.s 			page 189


 9316 2469 19       		.uleb128 0x19
 9317 246a 01       		.uleb128 0x1
 9318 246b 51       		.byte	0x51
 9319 246c 05       		.uleb128 0x5
 9320 246d 03       		.byte	0x3
 9321 246e CC020000 		.4byte	.LC181
 9322 2472 19       		.uleb128 0x19
 9323 2473 01       		.uleb128 0x1
 9324 2474 52       		.byte	0x52
 9325 2475 01       		.uleb128 0x1
 9326 2476 34       		.byte	0x34
 9327 2477 00       		.byte	0
 9328 2478 1A       		.uleb128 0x1a
 9329 2479 F4000000 		.4byte	.LVL575
 9330 247d 43270000 		.4byte	0x2743
 9331 2481 19       		.uleb128 0x19
 9332 2482 01       		.uleb128 0x1
 9333 2483 50       		.byte	0x50
 9334 2484 02       		.uleb128 0x2
 9335 2485 76       		.byte	0x76
 9336 2486 00       		.sleb128 0
 9337 2487 00       		.byte	0
 9338 2488 00       		.byte	0
 9339 2489 15       		.uleb128 0x15
 9340 248a FE000000 		.4byte	.LBB60
 9341 248e 2A000000 		.4byte	.LBE60-.LBB60
 9342 2492 E2240000 		.4byte	0x24e2
 9343 2496 16       		.uleb128 0x16
 9344 2497 733100   		.ascii	"s1\000"
 9345 249a 01       		.byte	0x1
 9346 249b 0803     		.2byte	0x308
 9347 249d CF000000 		.4byte	0xcf
 9348 24a1 EE160000 		.4byte	.LLST153
 9349 24a5 17       		.uleb128 0x17
 9350 24a6 06010000 		.4byte	.LVL579
 9351 24aa 2F270000 		.4byte	0x272f
 9352 24ae 18       		.uleb128 0x18
 9353 24af 22010000 		.4byte	.LVL581
 9354 24b3 65270000 		.4byte	0x2765
 9355 24b7 D1240000 		.4byte	0x24d1
 9356 24bb 19       		.uleb128 0x19
 9357 24bc 01       		.uleb128 0x1
 9358 24bd 50       		.byte	0x50
 9359 24be 02       		.uleb128 0x2
 9360 24bf 77       		.byte	0x77
 9361 24c0 00       		.sleb128 0
 9362 24c1 19       		.uleb128 0x19
 9363 24c2 01       		.uleb128 0x1
 9364 24c3 51       		.byte	0x51
 9365 24c4 05       		.uleb128 0x5
 9366 24c5 03       		.byte	0x3
 9367 24c6 C0020000 		.4byte	.LC175
 9368 24ca 19       		.uleb128 0x19
 9369 24cb 01       		.uleb128 0x1
 9370 24cc 52       		.byte	0x52
 9371 24cd 02       		.uleb128 0x2
 9372 24ce 76       		.byte	0x76
ARM GAS  C:\Users\TERENC~1\AppData\Local\Temp\cc9BPywF.s 			page 190


 9373 24cf 00       		.sleb128 0
 9374 24d0 00       		.byte	0
 9375 24d1 1A       		.uleb128 0x1a
 9376 24d2 28010000 		.4byte	.LVL582
 9377 24d6 43270000 		.4byte	0x2743
 9378 24da 19       		.uleb128 0x19
 9379 24db 01       		.uleb128 0x1
 9380 24dc 50       		.byte	0x50
 9381 24dd 02       		.uleb128 0x2
 9382 24de 77       		.byte	0x77
 9383 24df 00       		.sleb128 0
 9384 24e0 00       		.byte	0
 9385 24e1 00       		.byte	0
 9386 24e2 18       		.uleb128 0x18
 9387 24e3 0A000000 		.4byte	.LVL551
 9388 24e7 60280000 		.4byte	0x2860
 9389 24eb F6240000 		.4byte	0x24f6
 9390 24ef 19       		.uleb128 0x19
 9391 24f0 01       		.uleb128 0x1
 9392 24f1 50       		.byte	0x50
 9393 24f2 02       		.uleb128 0x2
 9394 24f3 7D       		.byte	0x7d
 9395 24f4 00       		.sleb128 0
 9396 24f5 00       		.byte	0
 9397 24f6 17       		.uleb128 0x17
 9398 24f7 32000000 		.4byte	.LVL556
 9399 24fb 4E270000 		.4byte	0x274e
 9400 24ff 17       		.uleb128 0x17
 9401 2500 6E000000 		.4byte	.LVL562
 9402 2504 7A1F0000 		.4byte	0x1f7a
 9403 2508 17       		.uleb128 0x17
 9404 2509 72000000 		.4byte	.LVL563
 9405 250d 4E270000 		.4byte	0x274e
 9406 2511 17       		.uleb128 0x17
 9407 2512 C6000000 		.4byte	.LVL570
 9408 2516 4E270000 		.4byte	0x274e
 9409 251a 17       		.uleb128 0x17
 9410 251b FA000000 		.4byte	.LVL577
 9411 251f 4E270000 		.4byte	0x274e
 9412 2523 00       		.byte	0
 9413 2524 0E       		.uleb128 0xe
 9414 2525 DA000000 		.4byte	0xda
 9415 2529 34250000 		.4byte	0x2534
 9416 252d 0F       		.uleb128 0xf
 9417 252e 93000000 		.4byte	0x93
 9418 2532 3F       		.byte	0x3f
 9419 2533 00       		.byte	0
 9420 2534 0E       		.uleb128 0xe
 9421 2535 44250000 		.4byte	0x2544
 9422 2539 44250000 		.4byte	0x2544
 9423 253d 0F       		.uleb128 0xf
 9424 253e 93000000 		.4byte	0x93
 9425 2542 0D       		.byte	0xd
 9426 2543 00       		.byte	0
 9427 2544 07       		.uleb128 0x7
 9428 2545 CF000000 		.4byte	0xcf
 9429 2549 29       		.uleb128 0x29
ARM GAS  C:\Users\TERENC~1\AppData\Local\Temp\cc9BPywF.s 			page 191


 9430 254a B7040000 		.4byte	.LASF92
 9431 254e 01       		.byte	0x1
 9432 254f 33       		.byte	0x33
 9433 2550 5A250000 		.4byte	0x255a
 9434 2554 05       		.uleb128 0x5
 9435 2555 03       		.byte	0x3
 9436 2556 00000000 		.4byte	reg_lookup
 9437 255a 07       		.uleb128 0x7
 9438 255b 34250000 		.4byte	0x2534
 9439 255f 0E       		.uleb128 0xe
 9440 2560 6F250000 		.4byte	0x256f
 9441 2564 6F250000 		.4byte	0x256f
 9442 2568 0F       		.uleb128 0xf
 9443 2569 93000000 		.4byte	0x93
 9444 256d 03       		.byte	0x3
 9445 256e 00       		.byte	0
 9446 256f 07       		.uleb128 0x7
 9447 2570 31020000 		.4byte	0x231
 9448 2574 29       		.uleb128 0x29
 9449 2575 CB070000 		.4byte	.LASF93
 9450 2579 01       		.byte	0x1
 9451 257a 47       		.byte	0x47
 9452 257b 85250000 		.4byte	0x2585
 9453 257f 05       		.uleb128 0x5
 9454 2580 03       		.byte	0x3
 9455 2581 08020000 		.4byte	__tk_shell_verbs_gpio
 9456 2585 07       		.uleb128 0x7
 9457 2586 5F250000 		.4byte	0x255f
 9458 258a 0E       		.uleb128 0xe
 9459 258b 6F250000 		.4byte	0x256f
 9460 258f 9A250000 		.4byte	0x259a
 9461 2593 0F       		.uleb128 0xf
 9462 2594 93000000 		.4byte	0x93
 9463 2598 04       		.byte	0x4
 9464 2599 00       		.byte	0
 9465 259a 29       		.uleb128 0x29
 9466 259b AE050000 		.4byte	.LASF94
 9467 259f 01       		.byte	0x1
 9468 25a0 53       		.byte	0x53
 9469 25a1 AB250000 		.4byte	0x25ab
 9470 25a5 05       		.uleb128 0x5
 9471 25a6 03       		.byte	0x3
 9472 25a7 CC010000 		.4byte	__tk_shell_verbs_wm
 9473 25ab 07       		.uleb128 0x7
 9474 25ac 8A250000 		.4byte	0x258a
 9475 25b0 0E       		.uleb128 0xe
 9476 25b1 6F250000 		.4byte	0x256f
 9477 25b5 C0250000 		.4byte	0x25c0
 9478 25b9 0F       		.uleb128 0xf
 9479 25ba 93000000 		.4byte	0x93
 9480 25be 09       		.byte	0x9
 9481 25bf 00       		.byte	0
 9482 25c0 29       		.uleb128 0x29
 9483 25c1 A9030000 		.4byte	.LASF95
 9484 25c5 01       		.byte	0x1
 9485 25c6 65       		.byte	0x65
 9486 25c7 D1250000 		.4byte	0x25d1
ARM GAS  C:\Users\TERENC~1\AppData\Local\Temp\cc9BPywF.s 			page 192


 9487 25cb 05       		.uleb128 0x5
 9488 25cc 03       		.byte	0x3
 9489 25cd 54010000 		.4byte	__tk_shell_verbs_rf
 9490 25d1 07       		.uleb128 0x7
 9491 25d2 B0250000 		.4byte	0x25b0
 9492 25d6 29       		.uleb128 0x29
 9493 25d7 E3040000 		.4byte	.LASF96
 9494 25db 01       		.byte	0x1
 9495 25dc 77       		.byte	0x77
 9496 25dd E7250000 		.4byte	0x25e7
 9497 25e1 05       		.uleb128 0x5
 9498 25e2 03       		.byte	0x3
 9499 25e3 18010000 		.4byte	__tk_shell_verbs_sys
 9500 25e7 07       		.uleb128 0x7
 9501 25e8 8A250000 		.4byte	0x258a
 9502 25ec 0E       		.uleb128 0xe
 9503 25ed 6F250000 		.4byte	0x256f
 9504 25f1 FC250000 		.4byte	0x25fc
 9505 25f5 0F       		.uleb128 0xf
 9506 25f6 93000000 		.4byte	0x93
 9507 25fa 02       		.byte	0x2
 9508 25fb 00       		.byte	0
 9509 25fc 29       		.uleb128 0x29
 9510 25fd 99040000 		.4byte	.LASF97
 9511 2601 01       		.byte	0x1
 9512 2602 83       		.byte	0x83
 9513 2603 0D260000 		.4byte	0x260d
 9514 2607 05       		.uleb128 0x5
 9515 2608 03       		.byte	0x3
 9516 2609 F4000000 		.4byte	__tk_shell_verbs_led
 9517 260d 07       		.uleb128 0x7
 9518 260e EC250000 		.4byte	0x25ec
 9519 2612 29       		.uleb128 0x29
 9520 2613 91050000 		.4byte	.LASF98
 9521 2617 01       		.byte	0x1
 9522 2618 8D       		.byte	0x8d
 9523 2619 23260000 		.4byte	0x2623
 9524 261d 05       		.uleb128 0x5
 9525 261e 03       		.byte	0x3
 9526 261f C4000000 		.4byte	__tk_shell_verbs_cal
 9527 2623 07       		.uleb128 0x7
 9528 2624 5F250000 		.4byte	0x255f
 9529 2628 29       		.uleb128 0x29
 9530 2629 44070000 		.4byte	.LASF99
 9531 262d 01       		.byte	0x1
 9532 262e 97       		.byte	0x97
 9533 262f 39260000 		.4byte	0x2639
 9534 2633 05       		.uleb128 0x5
 9535 2634 03       		.byte	0x3
 9536 2635 A0000000 		.4byte	__tk_shell_verbs_audio
 9537 2639 07       		.uleb128 0x7
 9538 263a EC250000 		.4byte	0x25ec
 9539 263e 0E       		.uleb128 0xe
 9540 263f 4E260000 		.4byte	0x264e
 9541 2643 4E260000 		.4byte	0x264e
 9542 2647 0F       		.uleb128 0xf
 9543 2648 93000000 		.4byte	0x93
ARM GAS  C:\Users\TERENC~1\AppData\Local\Temp\cc9BPywF.s 			page 193


 9544 264c 07       		.byte	0x7
 9545 264d 00       		.byte	0
 9546 264e 07       		.uleb128 0x7
 9547 264f 6F020000 		.4byte	0x26f
 9548 2653 29       		.uleb128 0x29
 9549 2654 60010000 		.4byte	.LASF100
 9550 2658 01       		.byte	0x1
 9551 2659 9E       		.byte	0x9e
 9552 265a 64260000 		.4byte	0x2664
 9553 265e 05       		.uleb128 0x5
 9554 265f 03       		.byte	0x3
 9555 2660 40000000 		.4byte	commands
 9556 2664 07       		.uleb128 0x7
 9557 2665 3E260000 		.4byte	0x263e
 9558 2669 0E       		.uleb128 0xe
 9559 266a B4000000 		.4byte	0xb4
 9560 266e 79260000 		.4byte	0x2679
 9561 2672 0F       		.uleb128 0xf
 9562 2673 93000000 		.4byte	0x93
 9563 2677 02       		.byte	0x2
 9564 2678 00       		.byte	0
 9565 2679 29       		.uleb128 0x29
 9566 267a 47040000 		.4byte	.LASF101
 9567 267e 01       		.byte	0x1
 9568 267f AA       		.byte	0xaa
 9569 2680 8A260000 		.4byte	0x268a
 9570 2684 05       		.uleb128 0x5
 9571 2685 03       		.byte	0x3
 9572 2686 38000000 		.4byte	OK_STR
 9573 268a 07       		.uleb128 0x7
 9574 268b 69260000 		.4byte	0x2669
 9575 268f 29       		.uleb128 0x29
 9576 2690 21080000 		.4byte	.LASF102
 9577 2694 01       		.byte	0x1
 9578 2695 AB       		.byte	0xab
 9579 2696 A0260000 		.4byte	0x26a0
 9580 269a 05       		.uleb128 0x5
 9581 269b 03       		.byte	0x3
 9582 269c 3C000000 		.4byte	ER_STR
 9583 26a0 07       		.uleb128 0x7
 9584 26a1 69260000 		.4byte	0x2669
 9585 26a5 0E       		.uleb128 0xe
 9586 26a6 A0000000 		.4byte	0xa0
 9587 26aa B5260000 		.4byte	0x26b5
 9588 26ae 0F       		.uleb128 0xf
 9589 26af 93000000 		.4byte	0x93
 9590 26b3 3F       		.byte	0x3f
 9591 26b4 00       		.byte	0
 9592 26b5 29       		.uleb128 0x29
 9593 26b6 30030000 		.4byte	.LASF103
 9594 26ba 01       		.byte	0x1
 9595 26bb AD       		.byte	0xad
 9596 26bc A5260000 		.4byte	0x26a5
 9597 26c0 05       		.uleb128 0x5
 9598 26c1 03       		.byte	0x3
 9599 26c2 00000000 		.4byte	cmd_buf
 9600 26c6 29       		.uleb128 0x29
ARM GAS  C:\Users\TERENC~1\AppData\Local\Temp\cc9BPywF.s 			page 194


 9601 26c7 00080000 		.4byte	.LASF104
 9602 26cb 01       		.byte	0x1
 9603 26cc AE       		.byte	0xae
 9604 26cd B9000000 		.4byte	0xb9
 9605 26d1 05       		.uleb128 0x5
 9606 26d2 03       		.byte	0x3
 9607 26d3 40000000 		.4byte	cmd_char_count
 9608 26d7 2A       		.uleb128 0x2a
 9609 26d8 D5040000 		.4byte	.LASF105
 9610 26dc 08       		.byte	0x8
 9611 26dd 2E       		.byte	0x2e
 9612 26de AE000000 		.4byte	0xae
 9613 26e2 0E       		.uleb128 0xe
 9614 26e3 FE000000 		.4byte	0xfe
 9615 26e7 ED260000 		.4byte	0x26ed
 9616 26eb 2B       		.uleb128 0x2b
 9617 26ec 00       		.byte	0
 9618 26ed 2A       		.uleb128 0x2a
 9619 26ee 0A020000 		.4byte	.LASF106
 9620 26f2 06       		.byte	0x6
 9621 26f3 1A       		.byte	0x1a
 9622 26f4 E2260000 		.4byte	0x26e2
 9623 26f8 2A       		.uleb128 0x2a
 9624 26f9 4E050000 		.4byte	.LASF107
 9625 26fd 05       		.byte	0x5
 9626 26fe 1D       		.byte	0x1d
 9627 26ff 03270000 		.4byte	0x2703
 9628 2703 05       		.uleb128 0x5
 9629 2704 04       		.byte	0x4
 9630 2705 A9010000 		.4byte	0x1a9
 9631 2709 2A       		.uleb128 0x2a
 9632 270a 1F040000 		.4byte	.LASF108
 9633 270e 09       		.byte	0x9
 9634 270f 13       		.byte	0x13
 9635 2710 14270000 		.4byte	0x2714
 9636 2714 09       		.uleb128 0x9
 9637 2715 CF000000 		.4byte	0xcf
 9638 2719 0E       		.uleb128 0xe
 9639 271a A0000000 		.4byte	0xa0
 9640 271e 24270000 		.4byte	0x2724
 9641 2722 2B       		.uleb128 0x2b
 9642 2723 00       		.byte	0
 9643 2724 2A       		.uleb128 0x2a
 9644 2725 20050000 		.4byte	.LASF109
 9645 2729 0A       		.byte	0xa
 9646 272a 3C       		.byte	0x3c
 9647 272b 19270000 		.4byte	0x2719
 9648 272f 2C       		.uleb128 0x2c
 9649 2730 55060000 		.4byte	.LASF110
 9650 2734 55060000 		.4byte	.LASF110
 9651 2738 0B       		.byte	0xb
 9652 2739 28       		.byte	0x28
 9653 273a 2D       		.uleb128 0x2d
 9654 273b F4070000 		.4byte	.LASF136
 9655 273f F4070000 		.4byte	.LASF136
 9656 2743 2C       		.uleb128 0x2c
 9657 2744 EB050000 		.4byte	.LASF111
ARM GAS  C:\Users\TERENC~1\AppData\Local\Temp\cc9BPywF.s 			page 195


 9658 2748 EB050000 		.4byte	.LASF111
 9659 274c 0B       		.byte	0xb
 9660 274d 24       		.byte	0x24
 9661 274e 2E       		.uleb128 0x2e
 9662 274f 11010000 		.4byte	.LASF112
 9663 2753 11010000 		.4byte	.LASF112
 9664 2757 0C       		.byte	0xc
 9665 2758 3201     		.2byte	0x132
 9666 275a 2C       		.uleb128 0x2c
 9667 275b FB070000 		.4byte	.LASF113
 9668 275f FB070000 		.4byte	.LASF113
 9669 2763 0D       		.byte	0xd
 9670 2764 4D       		.byte	0x4d
 9671 2765 2C       		.uleb128 0x2c
 9672 2766 09050000 		.4byte	.LASF114
 9673 276a 09050000 		.4byte	.LASF114
 9674 276e 0E       		.byte	0xe
 9675 276f E7       		.byte	0xe7
 9676 2770 2C       		.uleb128 0x2c
 9677 2771 80010000 		.4byte	.LASF115
 9678 2775 80010000 		.4byte	.LASF115
 9679 2779 0F       		.byte	0xf
 9680 277a AB       		.byte	0xab
 9681 277b 2C       		.uleb128 0x2c
 9682 277c D1030000 		.4byte	.LASF116
 9683 2780 D1030000 		.4byte	.LASF116
 9684 2784 0F       		.byte	0xf
 9685 2785 AD       		.byte	0xad
 9686 2786 2C       		.uleb128 0x2c
 9687 2787 20060000 		.4byte	.LASF117
 9688 278b 20060000 		.4byte	.LASF117
 9689 278f 0D       		.byte	0xd
 9690 2790 A4       		.byte	0xa4
 9691 2791 2C       		.uleb128 0x2c
 9692 2792 2F070000 		.4byte	.LASF118
 9693 2796 2F070000 		.4byte	.LASF118
 9694 279a 0F       		.byte	0xf
 9695 279b B5       		.byte	0xb5
 9696 279c 2C       		.uleb128 0x2c
 9697 279d CD050000 		.4byte	.LASF119
 9698 27a1 CD050000 		.4byte	.LASF119
 9699 27a5 0F       		.byte	0xf
 9700 27a6 B6       		.byte	0xb6
 9701 27a7 2C       		.uleb128 0x2c
 9702 27a8 54010000 		.4byte	.LASF120
 9703 27ac 54010000 		.4byte	.LASF120
 9704 27b0 10       		.byte	0x10
 9705 27b1 7A       		.byte	0x7a
 9706 27b2 2C       		.uleb128 0x2c
 9707 27b3 D8010000 		.4byte	.LASF121
 9708 27b7 D8010000 		.4byte	.LASF121
 9709 27bb 10       		.byte	0x10
 9710 27bc 7B       		.byte	0x7b
 9711 27bd 2C       		.uleb128 0x2c
 9712 27be 41000000 		.4byte	.LASF122
 9713 27c2 41000000 		.4byte	.LASF122
 9714 27c6 10       		.byte	0x10
ARM GAS  C:\Users\TERENC~1\AppData\Local\Temp\cc9BPywF.s 			page 196


 9715 27c7 7C       		.byte	0x7c
 9716 27c8 2C       		.uleb128 0x2c
 9717 27c9 42080000 		.4byte	.LASF123
 9718 27cd 42080000 		.4byte	.LASF123
 9719 27d1 10       		.byte	0x10
 9720 27d2 7D       		.byte	0x7d
 9721 27d3 2C       		.uleb128 0x2c
 9722 27d4 02060000 		.4byte	.LASF124
 9723 27d8 02060000 		.4byte	.LASF124
 9724 27dc 10       		.byte	0x10
 9725 27dd 7E       		.byte	0x7e
 9726 27de 2C       		.uleb128 0x2c
 9727 27df FA000000 		.4byte	.LASF125
 9728 27e3 FA000000 		.4byte	.LASF125
 9729 27e7 10       		.byte	0x10
 9730 27e8 7F       		.byte	0x7f
 9731 27e9 2C       		.uleb128 0x2c
 9732 27ea 23000000 		.4byte	.LASF126
 9733 27ee 23000000 		.4byte	.LASF126
 9734 27f2 10       		.byte	0x10
 9735 27f3 82       		.byte	0x82
 9736 27f4 2C       		.uleb128 0x2c
 9737 27f5 72000000 		.4byte	.LASF127
 9738 27f9 72000000 		.4byte	.LASF127
 9739 27fd 11       		.byte	0x11
 9740 27fe 21       		.byte	0x21
 9741 27ff 2C       		.uleb128 0x2c
 9742 2800 7F030000 		.4byte	.LASF128
 9743 2804 7F030000 		.4byte	.LASF128
 9744 2808 10       		.byte	0x10
 9745 2809 80       		.byte	0x80
 9746 280a 2C       		.uleb128 0x2c
 9747 280b 38030000 		.4byte	.LASF129
 9748 280f 38030000 		.4byte	.LASF129
 9749 2813 10       		.byte	0x10
 9750 2814 81       		.byte	0x81
 9751 2815 2C       		.uleb128 0x2c
 9752 2816 C0060000 		.4byte	.LASF130
 9753 281a C0060000 		.4byte	.LASF130
 9754 281e 12       		.byte	0x12
 9755 281f E4       		.byte	0xe4
 9756 2820 2C       		.uleb128 0x2c
 9757 2821 53000000 		.4byte	.LASF131
 9758 2825 53000000 		.4byte	.LASF131
 9759 2829 05       		.byte	0x5
 9760 282a 21       		.byte	0x21
 9761 282b 2C       		.uleb128 0x2c
 9762 282c 28020000 		.4byte	.LASF132
 9763 2830 28020000 		.4byte	.LASF132
 9764 2834 13       		.byte	0x13
 9765 2835 20       		.byte	0x20
 9766 2836 2C       		.uleb128 0x2c
 9767 2837 EF030000 		.4byte	.LASF133
 9768 283b EF030000 		.4byte	.LASF133
 9769 283f 13       		.byte	0x13
 9770 2840 21       		.byte	0x21
 9771 2841 2C       		.uleb128 0x2c
ARM GAS  C:\Users\TERENC~1\AppData\Local\Temp\cc9BPywF.s 			page 197


 9772 2842 A8060000 		.4byte	.LASF134
 9773 2846 A8060000 		.4byte	.LASF134
 9774 284a 07       		.byte	0x7
 9775 284b 19       		.byte	0x19
 9776 284c 2C       		.uleb128 0x2c
 9777 284d 57080000 		.4byte	.LASF135
 9778 2851 57080000 		.4byte	.LASF135
 9779 2855 07       		.byte	0x7
 9780 2856 1A       		.byte	0x1a
 9781 2857 2D       		.uleb128 0x2d
 9782 2858 C2040000 		.4byte	.LASF137
 9783 285c C2040000 		.4byte	.LASF137
 9784 2860 2C       		.uleb128 0x2c
 9785 2861 04040000 		.4byte	.LASF138
 9786 2865 04040000 		.4byte	.LASF138
 9787 2869 0B       		.byte	0xb
 9788 286a 2B       		.byte	0x2b
 9789 286b 00       		.byte	0
 9790              		.section	.debug_abbrev,"",%progbits
 9791              	.Ldebug_abbrev0:
 9792 0000 01       		.uleb128 0x1
 9793 0001 11       		.uleb128 0x11
 9794 0002 01       		.byte	0x1
 9795 0003 25       		.uleb128 0x25
 9796 0004 0E       		.uleb128 0xe
 9797 0005 13       		.uleb128 0x13
 9798 0006 0B       		.uleb128 0xb
 9799 0007 03       		.uleb128 0x3
 9800 0008 0E       		.uleb128 0xe
 9801 0009 1B       		.uleb128 0x1b
 9802 000a 0E       		.uleb128 0xe
 9803 000b 55       		.uleb128 0x55
 9804 000c 17       		.uleb128 0x17
 9805 000d 11       		.uleb128 0x11
 9806 000e 01       		.uleb128 0x1
 9807 000f 10       		.uleb128 0x10
 9808 0010 17       		.uleb128 0x17
 9809 0011 00       		.byte	0
 9810 0012 00       		.byte	0
 9811 0013 02       		.uleb128 0x2
 9812 0014 24       		.uleb128 0x24
 9813 0015 00       		.byte	0
 9814 0016 0B       		.uleb128 0xb
 9815 0017 0B       		.uleb128 0xb
 9816 0018 3E       		.uleb128 0x3e
 9817 0019 0B       		.uleb128 0xb
 9818 001a 03       		.uleb128 0x3
 9819 001b 08       		.uleb128 0x8
 9820 001c 00       		.byte	0
 9821 001d 00       		.byte	0
 9822 001e 03       		.uleb128 0x3
 9823 001f 24       		.uleb128 0x24
 9824 0020 00       		.byte	0
 9825 0021 0B       		.uleb128 0xb
 9826 0022 0B       		.uleb128 0xb
 9827 0023 3E       		.uleb128 0x3e
 9828 0024 0B       		.uleb128 0xb
ARM GAS  C:\Users\TERENC~1\AppData\Local\Temp\cc9BPywF.s 			page 198


 9829 0025 03       		.uleb128 0x3
 9830 0026 0E       		.uleb128 0xe
 9831 0027 00       		.byte	0
 9832 0028 00       		.byte	0
 9833 0029 04       		.uleb128 0x4
 9834 002a 16       		.uleb128 0x16
 9835 002b 00       		.byte	0
 9836 002c 03       		.uleb128 0x3
 9837 002d 0E       		.uleb128 0xe
 9838 002e 3A       		.uleb128 0x3a
 9839 002f 0B       		.uleb128 0xb
 9840 0030 3B       		.uleb128 0x3b
 9841 0031 0B       		.uleb128 0xb
 9842 0032 49       		.uleb128 0x49
 9843 0033 13       		.uleb128 0x13
 9844 0034 00       		.byte	0
 9845 0035 00       		.byte	0
 9846 0036 05       		.uleb128 0x5
 9847 0037 0F       		.uleb128 0xf
 9848 0038 00       		.byte	0
 9849 0039 0B       		.uleb128 0xb
 9850 003a 0B       		.uleb128 0xb
 9851 003b 49       		.uleb128 0x49
 9852 003c 13       		.uleb128 0x13
 9853 003d 00       		.byte	0
 9854 003e 00       		.byte	0
 9855 003f 06       		.uleb128 0x6
 9856 0040 15       		.uleb128 0x15
 9857 0041 00       		.byte	0
 9858 0042 27       		.uleb128 0x27
 9859 0043 19       		.uleb128 0x19
 9860 0044 00       		.byte	0
 9861 0045 00       		.byte	0
 9862 0046 07       		.uleb128 0x7
 9863 0047 26       		.uleb128 0x26
 9864 0048 00       		.byte	0
 9865 0049 49       		.uleb128 0x49
 9866 004a 13       		.uleb128 0x13
 9867 004b 00       		.byte	0
 9868 004c 00       		.byte	0
 9869 004d 08       		.uleb128 0x8
 9870 004e 16       		.uleb128 0x16
 9871 004f 00       		.byte	0
 9872 0050 03       		.uleb128 0x3
 9873 0051 0E       		.uleb128 0xe
 9874 0052 3A       		.uleb128 0x3a
 9875 0053 0B       		.uleb128 0xb
 9876 0054 3B       		.uleb128 0x3b
 9877 0055 05       		.uleb128 0x5
 9878 0056 49       		.uleb128 0x49
 9879 0057 13       		.uleb128 0x13
 9880 0058 00       		.byte	0
 9881 0059 00       		.byte	0
 9882 005a 09       		.uleb128 0x9
 9883 005b 35       		.uleb128 0x35
 9884 005c 00       		.byte	0
 9885 005d 49       		.uleb128 0x49
ARM GAS  C:\Users\TERENC~1\AppData\Local\Temp\cc9BPywF.s 			page 199


 9886 005e 13       		.uleb128 0x13
 9887 005f 00       		.byte	0
 9888 0060 00       		.byte	0
 9889 0061 0A       		.uleb128 0xa
 9890 0062 04       		.uleb128 0x4
 9891 0063 01       		.byte	0x1
 9892 0064 0B       		.uleb128 0xb
 9893 0065 0B       		.uleb128 0xb
 9894 0066 49       		.uleb128 0x49
 9895 0067 13       		.uleb128 0x13
 9896 0068 3A       		.uleb128 0x3a
 9897 0069 0B       		.uleb128 0xb
 9898 006a 3B       		.uleb128 0x3b
 9899 006b 0B       		.uleb128 0xb
 9900 006c 01       		.uleb128 0x1
 9901 006d 13       		.uleb128 0x13
 9902 006e 00       		.byte	0
 9903 006f 00       		.byte	0
 9904 0070 0B       		.uleb128 0xb
 9905 0071 28       		.uleb128 0x28
 9906 0072 00       		.byte	0
 9907 0073 03       		.uleb128 0x3
 9908 0074 0E       		.uleb128 0xe
 9909 0075 1C       		.uleb128 0x1c
 9910 0076 0B       		.uleb128 0xb
 9911 0077 00       		.byte	0
 9912 0078 00       		.byte	0
 9913 0079 0C       		.uleb128 0xc
 9914 007a 13       		.uleb128 0x13
 9915 007b 01       		.byte	0x1
 9916 007c 0B       		.uleb128 0xb
 9917 007d 0B       		.uleb128 0xb
 9918 007e 3A       		.uleb128 0x3a
 9919 007f 0B       		.uleb128 0xb
 9920 0080 3B       		.uleb128 0x3b
 9921 0081 0B       		.uleb128 0xb
 9922 0082 01       		.uleb128 0x1
 9923 0083 13       		.uleb128 0x13
 9924 0084 00       		.byte	0
 9925 0085 00       		.byte	0
 9926 0086 0D       		.uleb128 0xd
 9927 0087 0D       		.uleb128 0xd
 9928 0088 00       		.byte	0
 9929 0089 03       		.uleb128 0x3
 9930 008a 0E       		.uleb128 0xe
 9931 008b 3A       		.uleb128 0x3a
 9932 008c 0B       		.uleb128 0xb
 9933 008d 3B       		.uleb128 0x3b
 9934 008e 0B       		.uleb128 0xb
 9935 008f 49       		.uleb128 0x49
 9936 0090 13       		.uleb128 0x13
 9937 0091 38       		.uleb128 0x38
 9938 0092 0B       		.uleb128 0xb
 9939 0093 00       		.byte	0
 9940 0094 00       		.byte	0
 9941 0095 0E       		.uleb128 0xe
 9942 0096 01       		.uleb128 0x1
ARM GAS  C:\Users\TERENC~1\AppData\Local\Temp\cc9BPywF.s 			page 200


 9943 0097 01       		.byte	0x1
 9944 0098 49       		.uleb128 0x49
 9945 0099 13       		.uleb128 0x13
 9946 009a 01       		.uleb128 0x1
 9947 009b 13       		.uleb128 0x13
 9948 009c 00       		.byte	0
 9949 009d 00       		.byte	0
 9950 009e 0F       		.uleb128 0xf
 9951 009f 21       		.uleb128 0x21
 9952 00a0 00       		.byte	0
 9953 00a1 49       		.uleb128 0x49
 9954 00a2 13       		.uleb128 0x13
 9955 00a3 2F       		.uleb128 0x2f
 9956 00a4 0B       		.uleb128 0xb
 9957 00a5 00       		.byte	0
 9958 00a6 00       		.byte	0
 9959 00a7 10       		.uleb128 0x10
 9960 00a8 15       		.uleb128 0x15
 9961 00a9 01       		.byte	0x1
 9962 00aa 27       		.uleb128 0x27
 9963 00ab 19       		.uleb128 0x19
 9964 00ac 49       		.uleb128 0x49
 9965 00ad 13       		.uleb128 0x13
 9966 00ae 01       		.uleb128 0x1
 9967 00af 13       		.uleb128 0x13
 9968 00b0 00       		.byte	0
 9969 00b1 00       		.byte	0
 9970 00b2 11       		.uleb128 0x11
 9971 00b3 05       		.uleb128 0x5
 9972 00b4 00       		.byte	0
 9973 00b5 49       		.uleb128 0x49
 9974 00b6 13       		.uleb128 0x13
 9975 00b7 00       		.byte	0
 9976 00b8 00       		.byte	0
 9977 00b9 12       		.uleb128 0x12
 9978 00ba 2E       		.uleb128 0x2e
 9979 00bb 01       		.byte	0x1
 9980 00bc 3F       		.uleb128 0x3f
 9981 00bd 19       		.uleb128 0x19
 9982 00be 03       		.uleb128 0x3
 9983 00bf 0E       		.uleb128 0xe
 9984 00c0 3A       		.uleb128 0x3a
 9985 00c1 0B       		.uleb128 0xb
 9986 00c2 3B       		.uleb128 0x3b
 9987 00c3 05       		.uleb128 0x5
 9988 00c4 27       		.uleb128 0x27
 9989 00c5 19       		.uleb128 0x19
 9990 00c6 49       		.uleb128 0x49
 9991 00c7 13       		.uleb128 0x13
 9992 00c8 11       		.uleb128 0x11
 9993 00c9 01       		.uleb128 0x1
 9994 00ca 12       		.uleb128 0x12
 9995 00cb 06       		.uleb128 0x6
 9996 00cc 40       		.uleb128 0x40
 9997 00cd 18       		.uleb128 0x18
 9998 00ce 9742     		.uleb128 0x2117
 9999 00d0 19       		.uleb128 0x19
ARM GAS  C:\Users\TERENC~1\AppData\Local\Temp\cc9BPywF.s 			page 201


 10000 00d1 01       		.uleb128 0x1
 10001 00d2 13       		.uleb128 0x13
 10002 00d3 00       		.byte	0
 10003 00d4 00       		.byte	0
 10004 00d5 13       		.uleb128 0x13
 10005 00d6 05       		.uleb128 0x5
 10006 00d7 00       		.byte	0
 10007 00d8 03       		.uleb128 0x3
 10008 00d9 0E       		.uleb128 0xe
 10009 00da 3A       		.uleb128 0x3a
 10010 00db 0B       		.uleb128 0xb
 10011 00dc 3B       		.uleb128 0x3b
 10012 00dd 05       		.uleb128 0x5
 10013 00de 49       		.uleb128 0x49
 10014 00df 13       		.uleb128 0x13
 10015 00e0 02       		.uleb128 0x2
 10016 00e1 17       		.uleb128 0x17
 10017 00e2 00       		.byte	0
 10018 00e3 00       		.byte	0
 10019 00e4 14       		.uleb128 0x14
 10020 00e5 34       		.uleb128 0x34
 10021 00e6 00       		.byte	0
 10022 00e7 03       		.uleb128 0x3
 10023 00e8 08       		.uleb128 0x8
 10024 00e9 3A       		.uleb128 0x3a
 10025 00ea 0B       		.uleb128 0xb
 10026 00eb 3B       		.uleb128 0x3b
 10027 00ec 05       		.uleb128 0x5
 10028 00ed 49       		.uleb128 0x49
 10029 00ee 13       		.uleb128 0x13
 10030 00ef 1C       		.uleb128 0x1c
 10031 00f0 0B       		.uleb128 0xb
 10032 00f1 00       		.byte	0
 10033 00f2 00       		.byte	0
 10034 00f3 15       		.uleb128 0x15
 10035 00f4 0B       		.uleb128 0xb
 10036 00f5 01       		.byte	0x1
 10037 00f6 11       		.uleb128 0x11
 10038 00f7 01       		.uleb128 0x1
 10039 00f8 12       		.uleb128 0x12
 10040 00f9 06       		.uleb128 0x6
 10041 00fa 01       		.uleb128 0x1
 10042 00fb 13       		.uleb128 0x13
 10043 00fc 00       		.byte	0
 10044 00fd 00       		.byte	0
 10045 00fe 16       		.uleb128 0x16
 10046 00ff 34       		.uleb128 0x34
 10047 0100 00       		.byte	0
 10048 0101 03       		.uleb128 0x3
 10049 0102 08       		.uleb128 0x8
 10050 0103 3A       		.uleb128 0x3a
 10051 0104 0B       		.uleb128 0xb
 10052 0105 3B       		.uleb128 0x3b
 10053 0106 05       		.uleb128 0x5
 10054 0107 49       		.uleb128 0x49
 10055 0108 13       		.uleb128 0x13
 10056 0109 02       		.uleb128 0x2
ARM GAS  C:\Users\TERENC~1\AppData\Local\Temp\cc9BPywF.s 			page 202


 10057 010a 17       		.uleb128 0x17
 10058 010b 00       		.byte	0
 10059 010c 00       		.byte	0
 10060 010d 17       		.uleb128 0x17
 10061 010e 898201   		.uleb128 0x4109
 10062 0111 00       		.byte	0
 10063 0112 11       		.uleb128 0x11
 10064 0113 01       		.uleb128 0x1
 10065 0114 31       		.uleb128 0x31
 10066 0115 13       		.uleb128 0x13
 10067 0116 00       		.byte	0
 10068 0117 00       		.byte	0
 10069 0118 18       		.uleb128 0x18
 10070 0119 898201   		.uleb128 0x4109
 10071 011c 01       		.byte	0x1
 10072 011d 11       		.uleb128 0x11
 10073 011e 01       		.uleb128 0x1
 10074 011f 31       		.uleb128 0x31
 10075 0120 13       		.uleb128 0x13
 10076 0121 01       		.uleb128 0x1
 10077 0122 13       		.uleb128 0x13
 10078 0123 00       		.byte	0
 10079 0124 00       		.byte	0
 10080 0125 19       		.uleb128 0x19
 10081 0126 8A8201   		.uleb128 0x410a
 10082 0129 00       		.byte	0
 10083 012a 02       		.uleb128 0x2
 10084 012b 18       		.uleb128 0x18
 10085 012c 9142     		.uleb128 0x2111
 10086 012e 18       		.uleb128 0x18
 10087 012f 00       		.byte	0
 10088 0130 00       		.byte	0
 10089 0131 1A       		.uleb128 0x1a
 10090 0132 898201   		.uleb128 0x4109
 10091 0135 01       		.byte	0x1
 10092 0136 11       		.uleb128 0x11
 10093 0137 01       		.uleb128 0x1
 10094 0138 31       		.uleb128 0x31
 10095 0139 13       		.uleb128 0x13
 10096 013a 00       		.byte	0
 10097 013b 00       		.byte	0
 10098 013c 1B       		.uleb128 0x1b
 10099 013d 898201   		.uleb128 0x4109
 10100 0140 00       		.byte	0
 10101 0141 11       		.uleb128 0x11
 10102 0142 01       		.uleb128 0x1
 10103 0143 9342     		.uleb128 0x2113
 10104 0145 18       		.uleb128 0x18
 10105 0146 00       		.byte	0
 10106 0147 00       		.byte	0
 10107 0148 1C       		.uleb128 0x1c
 10108 0149 2E       		.uleb128 0x2e
 10109 014a 01       		.byte	0x1
 10110 014b 3F       		.uleb128 0x3f
 10111 014c 19       		.uleb128 0x19
 10112 014d 03       		.uleb128 0x3
 10113 014e 0E       		.uleb128 0xe
ARM GAS  C:\Users\TERENC~1\AppData\Local\Temp\cc9BPywF.s 			page 203


 10114 014f 3A       		.uleb128 0x3a
 10115 0150 0B       		.uleb128 0xb
 10116 0151 3B       		.uleb128 0x3b
 10117 0152 0B       		.uleb128 0xb
 10118 0153 27       		.uleb128 0x27
 10119 0154 19       		.uleb128 0x19
 10120 0155 49       		.uleb128 0x49
 10121 0156 13       		.uleb128 0x13
 10122 0157 11       		.uleb128 0x11
 10123 0158 01       		.uleb128 0x1
 10124 0159 12       		.uleb128 0x12
 10125 015a 06       		.uleb128 0x6
 10126 015b 40       		.uleb128 0x40
 10127 015c 18       		.uleb128 0x18
 10128 015d 9742     		.uleb128 0x2117
 10129 015f 19       		.uleb128 0x19
 10130 0160 01       		.uleb128 0x1
 10131 0161 13       		.uleb128 0x13
 10132 0162 00       		.byte	0
 10133 0163 00       		.byte	0
 10134 0164 1D       		.uleb128 0x1d
 10135 0165 05       		.uleb128 0x5
 10136 0166 00       		.byte	0
 10137 0167 03       		.uleb128 0x3
 10138 0168 0E       		.uleb128 0xe
 10139 0169 3A       		.uleb128 0x3a
 10140 016a 0B       		.uleb128 0xb
 10141 016b 3B       		.uleb128 0x3b
 10142 016c 0B       		.uleb128 0xb
 10143 016d 49       		.uleb128 0x49
 10144 016e 13       		.uleb128 0x13
 10145 016f 02       		.uleb128 0x2
 10146 0170 17       		.uleb128 0x17
 10147 0171 00       		.byte	0
 10148 0172 00       		.byte	0
 10149 0173 1E       		.uleb128 0x1e
 10150 0174 34       		.uleb128 0x34
 10151 0175 00       		.byte	0
 10152 0176 03       		.uleb128 0x3
 10153 0177 0E       		.uleb128 0xe
 10154 0178 3A       		.uleb128 0x3a
 10155 0179 0B       		.uleb128 0xb
 10156 017a 3B       		.uleb128 0x3b
 10157 017b 0B       		.uleb128 0xb
 10158 017c 49       		.uleb128 0x49
 10159 017d 13       		.uleb128 0x13
 10160 017e 02       		.uleb128 0x2
 10161 017f 17       		.uleb128 0x17
 10162 0180 00       		.byte	0
 10163 0181 00       		.byte	0
 10164 0182 1F       		.uleb128 0x1f
 10165 0183 34       		.uleb128 0x34
 10166 0184 00       		.byte	0
 10167 0185 03       		.uleb128 0x3
 10168 0186 08       		.uleb128 0x8
 10169 0187 3A       		.uleb128 0x3a
 10170 0188 0B       		.uleb128 0xb
ARM GAS  C:\Users\TERENC~1\AppData\Local\Temp\cc9BPywF.s 			page 204


 10171 0189 3B       		.uleb128 0x3b
 10172 018a 0B       		.uleb128 0xb
 10173 018b 49       		.uleb128 0x49
 10174 018c 13       		.uleb128 0x13
 10175 018d 02       		.uleb128 0x2
 10176 018e 17       		.uleb128 0x17
 10177 018f 00       		.byte	0
 10178 0190 00       		.byte	0
 10179 0191 20       		.uleb128 0x20
 10180 0192 34       		.uleb128 0x34
 10181 0193 00       		.byte	0
 10182 0194 03       		.uleb128 0x3
 10183 0195 0E       		.uleb128 0xe
 10184 0196 3A       		.uleb128 0x3a
 10185 0197 0B       		.uleb128 0xb
 10186 0198 3B       		.uleb128 0x3b
 10187 0199 05       		.uleb128 0x5
 10188 019a 49       		.uleb128 0x49
 10189 019b 13       		.uleb128 0x13
 10190 019c 02       		.uleb128 0x2
 10191 019d 17       		.uleb128 0x17
 10192 019e 00       		.byte	0
 10193 019f 00       		.byte	0
 10194 01a0 21       		.uleb128 0x21
 10195 01a1 34       		.uleb128 0x34
 10196 01a2 00       		.byte	0
 10197 01a3 03       		.uleb128 0x3
 10198 01a4 08       		.uleb128 0x8
 10199 01a5 3A       		.uleb128 0x3a
 10200 01a6 0B       		.uleb128 0xb
 10201 01a7 3B       		.uleb128 0x3b
 10202 01a8 05       		.uleb128 0x5
 10203 01a9 49       		.uleb128 0x49
 10204 01aa 13       		.uleb128 0x13
 10205 01ab 02       		.uleb128 0x2
 10206 01ac 18       		.uleb128 0x18
 10207 01ad 00       		.byte	0
 10208 01ae 00       		.byte	0
 10209 01af 22       		.uleb128 0x22
 10210 01b0 34       		.uleb128 0x34
 10211 01b1 00       		.byte	0
 10212 01b2 03       		.uleb128 0x3
 10213 01b3 0E       		.uleb128 0xe
 10214 01b4 3A       		.uleb128 0x3a
 10215 01b5 0B       		.uleb128 0xb
 10216 01b6 3B       		.uleb128 0x3b
 10217 01b7 05       		.uleb128 0x5
 10218 01b8 49       		.uleb128 0x49
 10219 01b9 13       		.uleb128 0x13
 10220 01ba 02       		.uleb128 0x2
 10221 01bb 18       		.uleb128 0x18
 10222 01bc 00       		.byte	0
 10223 01bd 00       		.byte	0
 10224 01be 23       		.uleb128 0x23
 10225 01bf 05       		.uleb128 0x5
 10226 01c0 00       		.byte	0
 10227 01c1 03       		.uleb128 0x3
ARM GAS  C:\Users\TERENC~1\AppData\Local\Temp\cc9BPywF.s 			page 205


 10228 01c2 08       		.uleb128 0x8
 10229 01c3 3A       		.uleb128 0x3a
 10230 01c4 0B       		.uleb128 0xb
 10231 01c5 3B       		.uleb128 0x3b
 10232 01c6 0B       		.uleb128 0xb
 10233 01c7 49       		.uleb128 0x49
 10234 01c8 13       		.uleb128 0x13
 10235 01c9 02       		.uleb128 0x2
 10236 01ca 17       		.uleb128 0x17
 10237 01cb 00       		.byte	0
 10238 01cc 00       		.byte	0
 10239 01cd 24       		.uleb128 0x24
 10240 01ce 0B       		.uleb128 0xb
 10241 01cf 01       		.byte	0x1
 10242 01d0 11       		.uleb128 0x11
 10243 01d1 01       		.uleb128 0x1
 10244 01d2 12       		.uleb128 0x12
 10245 01d3 06       		.uleb128 0x6
 10246 01d4 00       		.byte	0
 10247 01d5 00       		.byte	0
 10248 01d6 25       		.uleb128 0x25
 10249 01d7 34       		.uleb128 0x34
 10250 01d8 00       		.byte	0
 10251 01d9 03       		.uleb128 0x3
 10252 01da 08       		.uleb128 0x8
 10253 01db 3A       		.uleb128 0x3a
 10254 01dc 0B       		.uleb128 0xb
 10255 01dd 3B       		.uleb128 0x3b
 10256 01de 0B       		.uleb128 0xb
 10257 01df 49       		.uleb128 0x49
 10258 01e0 13       		.uleb128 0x13
 10259 01e1 02       		.uleb128 0x2
 10260 01e2 18       		.uleb128 0x18
 10261 01e3 00       		.byte	0
 10262 01e4 00       		.byte	0
 10263 01e5 26       		.uleb128 0x26
 10264 01e6 2E       		.uleb128 0x2e
 10265 01e7 01       		.byte	0x1
 10266 01e8 03       		.uleb128 0x3
 10267 01e9 0E       		.uleb128 0xe
 10268 01ea 3A       		.uleb128 0x3a
 10269 01eb 0B       		.uleb128 0xb
 10270 01ec 3B       		.uleb128 0x3b
 10271 01ed 05       		.uleb128 0x5
 10272 01ee 27       		.uleb128 0x27
 10273 01ef 19       		.uleb128 0x19
 10274 01f0 49       		.uleb128 0x49
 10275 01f1 13       		.uleb128 0x13
 10276 01f2 11       		.uleb128 0x11
 10277 01f3 01       		.uleb128 0x1
 10278 01f4 12       		.uleb128 0x12
 10279 01f5 06       		.uleb128 0x6
 10280 01f6 40       		.uleb128 0x40
 10281 01f7 18       		.uleb128 0x18
 10282 01f8 9742     		.uleb128 0x2117
 10283 01fa 19       		.uleb128 0x19
 10284 01fb 01       		.uleb128 0x1
ARM GAS  C:\Users\TERENC~1\AppData\Local\Temp\cc9BPywF.s 			page 206


 10285 01fc 13       		.uleb128 0x13
 10286 01fd 00       		.byte	0
 10287 01fe 00       		.byte	0
 10288 01ff 27       		.uleb128 0x27
 10289 0200 898201   		.uleb128 0x4109
 10290 0203 01       		.byte	0x1
 10291 0204 11       		.uleb128 0x11
 10292 0205 01       		.uleb128 0x1
 10293 0206 01       		.uleb128 0x1
 10294 0207 13       		.uleb128 0x13
 10295 0208 00       		.byte	0
 10296 0209 00       		.byte	0
 10297 020a 28       		.uleb128 0x28
 10298 020b 2E       		.uleb128 0x2e
 10299 020c 01       		.byte	0x1
 10300 020d 3F       		.uleb128 0x3f
 10301 020e 19       		.uleb128 0x19
 10302 020f 03       		.uleb128 0x3
 10303 0210 0E       		.uleb128 0xe
 10304 0211 3A       		.uleb128 0x3a
 10305 0212 0B       		.uleb128 0xb
 10306 0213 3B       		.uleb128 0x3b
 10307 0214 05       		.uleb128 0x5
 10308 0215 27       		.uleb128 0x27
 10309 0216 19       		.uleb128 0x19
 10310 0217 11       		.uleb128 0x11
 10311 0218 01       		.uleb128 0x1
 10312 0219 12       		.uleb128 0x12
 10313 021a 06       		.uleb128 0x6
 10314 021b 40       		.uleb128 0x40
 10315 021c 18       		.uleb128 0x18
 10316 021d 9742     		.uleb128 0x2117
 10317 021f 19       		.uleb128 0x19
 10318 0220 01       		.uleb128 0x1
 10319 0221 13       		.uleb128 0x13
 10320 0222 00       		.byte	0
 10321 0223 00       		.byte	0
 10322 0224 29       		.uleb128 0x29
 10323 0225 34       		.uleb128 0x34
 10324 0226 00       		.byte	0
 10325 0227 03       		.uleb128 0x3
 10326 0228 0E       		.uleb128 0xe
 10327 0229 3A       		.uleb128 0x3a
 10328 022a 0B       		.uleb128 0xb
 10329 022b 3B       		.uleb128 0x3b
 10330 022c 0B       		.uleb128 0xb
 10331 022d 49       		.uleb128 0x49
 10332 022e 13       		.uleb128 0x13
 10333 022f 02       		.uleb128 0x2
 10334 0230 18       		.uleb128 0x18
 10335 0231 00       		.byte	0
 10336 0232 00       		.byte	0
 10337 0233 2A       		.uleb128 0x2a
 10338 0234 34       		.uleb128 0x34
 10339 0235 00       		.byte	0
 10340 0236 03       		.uleb128 0x3
 10341 0237 0E       		.uleb128 0xe
ARM GAS  C:\Users\TERENC~1\AppData\Local\Temp\cc9BPywF.s 			page 207


 10342 0238 3A       		.uleb128 0x3a
 10343 0239 0B       		.uleb128 0xb
 10344 023a 3B       		.uleb128 0x3b
 10345 023b 0B       		.uleb128 0xb
 10346 023c 49       		.uleb128 0x49
 10347 023d 13       		.uleb128 0x13
 10348 023e 3F       		.uleb128 0x3f
 10349 023f 19       		.uleb128 0x19
 10350 0240 3C       		.uleb128 0x3c
 10351 0241 19       		.uleb128 0x19
 10352 0242 00       		.byte	0
 10353 0243 00       		.byte	0
 10354 0244 2B       		.uleb128 0x2b
 10355 0245 21       		.uleb128 0x21
 10356 0246 00       		.byte	0
 10357 0247 00       		.byte	0
 10358 0248 00       		.byte	0
 10359 0249 2C       		.uleb128 0x2c
 10360 024a 2E       		.uleb128 0x2e
 10361 024b 00       		.byte	0
 10362 024c 3F       		.uleb128 0x3f
 10363 024d 19       		.uleb128 0x19
 10364 024e 3C       		.uleb128 0x3c
 10365 024f 19       		.uleb128 0x19
 10366 0250 6E       		.uleb128 0x6e
 10367 0251 0E       		.uleb128 0xe
 10368 0252 03       		.uleb128 0x3
 10369 0253 0E       		.uleb128 0xe
 10370 0254 3A       		.uleb128 0x3a
 10371 0255 0B       		.uleb128 0xb
 10372 0256 3B       		.uleb128 0x3b
 10373 0257 0B       		.uleb128 0xb
 10374 0258 00       		.byte	0
 10375 0259 00       		.byte	0
 10376 025a 2D       		.uleb128 0x2d
 10377 025b 2E       		.uleb128 0x2e
 10378 025c 00       		.byte	0
 10379 025d 3F       		.uleb128 0x3f
 10380 025e 19       		.uleb128 0x19
 10381 025f 3C       		.uleb128 0x3c
 10382 0260 19       		.uleb128 0x19
 10383 0261 6E       		.uleb128 0x6e
 10384 0262 0E       		.uleb128 0xe
 10385 0263 03       		.uleb128 0x3
 10386 0264 0E       		.uleb128 0xe
 10387 0265 00       		.byte	0
 10388 0266 00       		.byte	0
 10389 0267 2E       		.uleb128 0x2e
 10390 0268 2E       		.uleb128 0x2e
 10391 0269 00       		.byte	0
 10392 026a 3F       		.uleb128 0x3f
 10393 026b 19       		.uleb128 0x19
 10394 026c 3C       		.uleb128 0x3c
 10395 026d 19       		.uleb128 0x19
 10396 026e 6E       		.uleb128 0x6e
 10397 026f 0E       		.uleb128 0xe
 10398 0270 03       		.uleb128 0x3
ARM GAS  C:\Users\TERENC~1\AppData\Local\Temp\cc9BPywF.s 			page 208


 10399 0271 0E       		.uleb128 0xe
 10400 0272 3A       		.uleb128 0x3a
 10401 0273 0B       		.uleb128 0xb
 10402 0274 3B       		.uleb128 0x3b
 10403 0275 05       		.uleb128 0x5
 10404 0276 00       		.byte	0
 10405 0277 00       		.byte	0
 10406 0278 00       		.byte	0
 10407              		.section	.debug_loc,"",%progbits
 10408              	.Ldebug_loc0:
 10409              	.LLST0:
 10410 0000 00000000 		.4byte	.LVL0
 10411 0004 05000000 		.4byte	.LVL2-1
 10412 0008 0100     		.2byte	0x1
 10413 000a 50       		.byte	0x50
 10414 000b 05000000 		.4byte	.LVL2-1
 10415 000f 4C000000 		.4byte	.LFE19
 10416 0013 0400     		.2byte	0x4
 10417 0015 F3       		.byte	0xf3
 10418 0016 01       		.uleb128 0x1
 10419 0017 50       		.byte	0x50
 10420 0018 9F       		.byte	0x9f
 10421 0019 00000000 		.4byte	0
 10422 001d 00000000 		.4byte	0
 10423              	.LLST1:
 10424 0021 00000000 		.4byte	.LVL0
 10425 0025 05000000 		.4byte	.LVL2-1
 10426 0029 0100     		.2byte	0x1
 10427 002b 51       		.byte	0x51
 10428 002c 05000000 		.4byte	.LVL2-1
 10429 0030 4C000000 		.4byte	.LFE19
 10430 0034 0400     		.2byte	0x4
 10431 0036 F3       		.byte	0xf3
 10432 0037 01       		.uleb128 0x1
 10433 0038 51       		.byte	0x51
 10434 0039 9F       		.byte	0x9f
 10435 003a 00000000 		.4byte	0
 10436 003e 00000000 		.4byte	0
 10437              	.LLST2:
 10438 0042 12000000 		.4byte	.LVL4
 10439 0046 28000000 		.4byte	.LVL6
 10440 004a 0100     		.2byte	0x1
 10441 004c 54       		.byte	0x54
 10442 004d 00000000 		.4byte	0
 10443 0051 00000000 		.4byte	0
 10444              	.LLST3:
 10445 0055 00000000 		.4byte	.LVL9
 10446 0059 04000000 		.4byte	.LVL10
 10447 005d 0100     		.2byte	0x1
 10448 005f 50       		.byte	0x50
 10449 0060 04000000 		.4byte	.LVL10
 10450 0064 0B000000 		.4byte	.LVL11-1
 10451 0068 0300     		.2byte	0x3
 10452 006a 70       		.byte	0x70
 10453 006b 7E       		.sleb128 -2
 10454 006c 9F       		.byte	0x9f
 10455 006d 0B000000 		.4byte	.LVL11-1
ARM GAS  C:\Users\TERENC~1\AppData\Local\Temp\cc9BPywF.s 			page 209


 10456 0071 40000000 		.4byte	.LVL17
 10457 0075 0600     		.2byte	0x6
 10458 0077 F3       		.byte	0xf3
 10459 0078 01       		.uleb128 0x1
 10460 0079 50       		.byte	0x50
 10461 007a 32       		.byte	0x32
 10462 007b 1C       		.byte	0x1c
 10463 007c 9F       		.byte	0x9f
 10464 007d 40000000 		.4byte	.LVL17
 10465 0081 42000000 		.4byte	.LVL18
 10466 0085 0300     		.2byte	0x3
 10467 0087 70       		.byte	0x70
 10468 0088 7E       		.sleb128 -2
 10469 0089 9F       		.byte	0x9f
 10470 008a 42000000 		.4byte	.LVL18
 10471 008e 8C000000 		.4byte	.LFE4
 10472 0092 0600     		.2byte	0x6
 10473 0094 F3       		.byte	0xf3
 10474 0095 01       		.uleb128 0x1
 10475 0096 50       		.byte	0x50
 10476 0097 32       		.byte	0x32
 10477 0098 1C       		.byte	0x1c
 10478 0099 9F       		.byte	0x9f
 10479 009a 00000000 		.4byte	0
 10480 009e 00000000 		.4byte	0
 10481              	.LLST4:
 10482 00a2 00000000 		.4byte	.LVL9
 10483 00a6 0B000000 		.4byte	.LVL11-1
 10484 00aa 0100     		.2byte	0x1
 10485 00ac 51       		.byte	0x51
 10486 00ad 0B000000 		.4byte	.LVL11-1
 10487 00b1 14000000 		.4byte	.LVL12
 10488 00b5 0100     		.2byte	0x1
 10489 00b7 54       		.byte	0x54
 10490 00b8 14000000 		.4byte	.LVL12
 10491 00bc 40000000 		.4byte	.LVL17
 10492 00c0 0400     		.2byte	0x4
 10493 00c2 F3       		.byte	0xf3
 10494 00c3 01       		.uleb128 0x1
 10495 00c4 51       		.byte	0x51
 10496 00c5 9F       		.byte	0x9f
 10497 00c6 40000000 		.4byte	.LVL17
 10498 00ca 45000000 		.4byte	.LVL19-1
 10499 00ce 0100     		.2byte	0x1
 10500 00d0 51       		.byte	0x51
 10501 00d1 45000000 		.4byte	.LVL19-1
 10502 00d5 76000000 		.4byte	.LVL30
 10503 00d9 0100     		.2byte	0x1
 10504 00db 54       		.byte	0x54
 10505 00dc 76000000 		.4byte	.LVL30
 10506 00e0 8C000000 		.4byte	.LFE4
 10507 00e4 0400     		.2byte	0x4
 10508 00e6 F3       		.byte	0xf3
 10509 00e7 01       		.uleb128 0x1
 10510 00e8 51       		.byte	0x51
 10511 00e9 9F       		.byte	0x9f
 10512 00ea 00000000 		.4byte	0
ARM GAS  C:\Users\TERENC~1\AppData\Local\Temp\cc9BPywF.s 			page 210


 10513 00ee 00000000 		.4byte	0
 10514              	.LLST5:
 10515 00f2 48000000 		.4byte	.LVL20
 10516 00f6 4A000000 		.4byte	.LVL21
 10517 00fa 0100     		.2byte	0x1
 10518 00fc 50       		.byte	0x50
 10519 00fd 4A000000 		.4byte	.LVL21
 10520 0101 58000000 		.4byte	.LVL26
 10521 0105 0100     		.2byte	0x1
 10522 0107 56       		.byte	0x56
 10523 0108 00000000 		.4byte	0
 10524 010c 00000000 		.4byte	0
 10525              	.LLST6:
 10526 0110 50000000 		.4byte	.LVL23
 10527 0114 52000000 		.4byte	.LVL24
 10528 0118 0100     		.2byte	0x1
 10529 011a 50       		.byte	0x50
 10530 011b 52000000 		.4byte	.LVL24
 10531 011f 62000000 		.4byte	.LVL27
 10532 0123 0100     		.2byte	0x1
 10533 0125 55       		.byte	0x55
 10534 0126 00000000 		.4byte	0
 10535 012a 00000000 		.4byte	0
 10536              	.LLST7:
 10537 012e 56000000 		.4byte	.LVL25
 10538 0132 6A000000 		.4byte	.LVL28
 10539 0136 0100     		.2byte	0x1
 10540 0138 50       		.byte	0x50
 10541 0139 00000000 		.4byte	0
 10542 013d 00000000 		.4byte	0
 10543              	.LLST8:
 10544 0141 04000000 		.4byte	.LVL10
 10545 0145 40000000 		.4byte	.LVL17
 10546 0149 0200     		.2byte	0x2
 10547 014b 32       		.byte	0x32
 10548 014c 9F       		.byte	0x9f
 10549 014d 40000000 		.4byte	.LVL17
 10550 0151 48000000 		.4byte	.LVL20
 10551 0155 0200     		.2byte	0x2
 10552 0157 33       		.byte	0x33
 10553 0158 9F       		.byte	0x9f
 10554 0159 48000000 		.4byte	.LVL20
 10555 015d 72000000 		.4byte	.LVL29
 10556 0161 0200     		.2byte	0x2
 10557 0163 34       		.byte	0x34
 10558 0164 9F       		.byte	0x9f
 10559 0165 72000000 		.4byte	.LVL29
 10560 0169 76000000 		.4byte	.LVL30
 10561 016d 0200     		.2byte	0x2
 10562 016f 32       		.byte	0x32
 10563 0170 9F       		.byte	0x9f
 10564 0171 00000000 		.4byte	0
 10565 0175 00000000 		.4byte	0
 10566              	.LLST9:
 10567 0179 14000000 		.4byte	.LVL12
 10568 017d 2A000000 		.4byte	.LVL14
 10569 0181 0100     		.2byte	0x1
ARM GAS  C:\Users\TERENC~1\AppData\Local\Temp\cc9BPywF.s 			page 211


 10570 0183 54       		.byte	0x54
 10571 0184 00000000 		.4byte	0
 10572 0188 00000000 		.4byte	0
 10573              	.LLST10:
 10574 018c 00000000 		.4byte	.LVL31
 10575 0190 04000000 		.4byte	.LVL32
 10576 0194 0100     		.2byte	0x1
 10577 0196 50       		.byte	0x50
 10578 0197 04000000 		.4byte	.LVL32
 10579 019b 0B000000 		.4byte	.LVL33-1
 10580 019f 0300     		.2byte	0x3
 10581 01a1 70       		.byte	0x70
 10582 01a2 7E       		.sleb128 -2
 10583 01a3 9F       		.byte	0x9f
 10584 01a4 0B000000 		.4byte	.LVL33-1
 10585 01a8 40000000 		.4byte	.LVL39
 10586 01ac 0600     		.2byte	0x6
 10587 01ae F3       		.byte	0xf3
 10588 01af 01       		.uleb128 0x1
 10589 01b0 50       		.byte	0x50
 10590 01b1 32       		.byte	0x32
 10591 01b2 1C       		.byte	0x1c
 10592 01b3 9F       		.byte	0x9f
 10593 01b4 40000000 		.4byte	.LVL39
 10594 01b8 42000000 		.4byte	.LVL40
 10595 01bc 0300     		.2byte	0x3
 10596 01be 70       		.byte	0x70
 10597 01bf 7E       		.sleb128 -2
 10598 01c0 9F       		.byte	0x9f
 10599 01c1 42000000 		.4byte	.LVL40
 10600 01c5 EC000000 		.4byte	.LFE3
 10601 01c9 0600     		.2byte	0x6
 10602 01cb F3       		.byte	0xf3
 10603 01cc 01       		.uleb128 0x1
 10604 01cd 50       		.byte	0x50
 10605 01ce 32       		.byte	0x32
 10606 01cf 1C       		.byte	0x1c
 10607 01d0 9F       		.byte	0x9f
 10608 01d1 00000000 		.4byte	0
 10609 01d5 00000000 		.4byte	0
 10610              	.LLST11:
 10611 01d9 00000000 		.4byte	.LVL31
 10612 01dd 0B000000 		.4byte	.LVL33-1
 10613 01e1 0100     		.2byte	0x1
 10614 01e3 51       		.byte	0x51
 10615 01e4 0B000000 		.4byte	.LVL33-1
 10616 01e8 14000000 		.4byte	.LVL34
 10617 01ec 0100     		.2byte	0x1
 10618 01ee 54       		.byte	0x54
 10619 01ef 14000000 		.4byte	.LVL34
 10620 01f3 40000000 		.4byte	.LVL39
 10621 01f7 0400     		.2byte	0x4
 10622 01f9 F3       		.byte	0xf3
 10623 01fa 01       		.uleb128 0x1
 10624 01fb 51       		.byte	0x51
 10625 01fc 9F       		.byte	0x9f
 10626 01fd 40000000 		.4byte	.LVL39
ARM GAS  C:\Users\TERENC~1\AppData\Local\Temp\cc9BPywF.s 			page 212


 10627 0201 45000000 		.4byte	.LVL41-1
 10628 0205 0100     		.2byte	0x1
 10629 0207 51       		.byte	0x51
 10630 0208 45000000 		.4byte	.LVL41-1
 10631 020c 98000000 		.4byte	.LVL50
 10632 0210 0100     		.2byte	0x1
 10633 0212 54       		.byte	0x54
 10634 0213 98000000 		.4byte	.LVL50
 10635 0217 C8000000 		.4byte	.LVL55
 10636 021b 0400     		.2byte	0x4
 10637 021d F3       		.byte	0xf3
 10638 021e 01       		.uleb128 0x1
 10639 021f 51       		.byte	0x51
 10640 0220 9F       		.byte	0x9f
 10641 0221 C8000000 		.4byte	.LVL55
 10642 0225 D0000000 		.4byte	.LVL57
 10643 0229 0100     		.2byte	0x1
 10644 022b 54       		.byte	0x54
 10645 022c D0000000 		.4byte	.LVL57
 10646 0230 EC000000 		.4byte	.LFE3
 10647 0234 0400     		.2byte	0x4
 10648 0236 F3       		.byte	0xf3
 10649 0237 01       		.uleb128 0x1
 10650 0238 51       		.byte	0x51
 10651 0239 9F       		.byte	0x9f
 10652 023a 00000000 		.4byte	0
 10653 023e 00000000 		.4byte	0
 10654              	.LLST12:
 10655 0242 48000000 		.4byte	.LVL42
 10656 0246 4A000000 		.4byte	.LVL43
 10657 024a 0100     		.2byte	0x1
 10658 024c 50       		.byte	0x50
 10659 024d 4A000000 		.4byte	.LVL43
 10660 0251 58000000 		.4byte	.LVL48
 10661 0255 0100     		.2byte	0x1
 10662 0257 56       		.byte	0x56
 10663 0258 00000000 		.4byte	0
 10664 025c 00000000 		.4byte	0
 10665              	.LLST13:
 10666 0260 50000000 		.4byte	.LVL45
 10667 0264 52000000 		.4byte	.LVL46
 10668 0268 0100     		.2byte	0x1
 10669 026a 50       		.byte	0x50
 10670 026b 52000000 		.4byte	.LVL46
 10671 026f C8000000 		.4byte	.LVL55
 10672 0273 0100     		.2byte	0x1
 10673 0275 55       		.byte	0x55
 10674 0276 CE000000 		.4byte	.LVL56
 10675 027a D0000000 		.4byte	.LVL57
 10676 027e 0100     		.2byte	0x1
 10677 0280 55       		.byte	0x55
 10678 0281 00000000 		.4byte	0
 10679 0285 00000000 		.4byte	0
 10680              	.LLST14:
 10681 0289 56000000 		.4byte	.LVL47
 10682 028d 8F000000 		.4byte	.LVL49-1
 10683 0291 0100     		.2byte	0x1
ARM GAS  C:\Users\TERENC~1\AppData\Local\Temp\cc9BPywF.s 			page 213


 10684 0293 50       		.byte	0x50
 10685 0294 00000000 		.4byte	0
 10686 0298 00000000 		.4byte	0
 10687              	.LLST15:
 10688 029c 04000000 		.4byte	.LVL32
 10689 02a0 40000000 		.4byte	.LVL39
 10690 02a4 0200     		.2byte	0x2
 10691 02a6 32       		.byte	0x32
 10692 02a7 9F       		.byte	0x9f
 10693 02a8 40000000 		.4byte	.LVL39
 10694 02ac 48000000 		.4byte	.LVL42
 10695 02b0 0200     		.2byte	0x2
 10696 02b2 33       		.byte	0x33
 10697 02b3 9F       		.byte	0x9f
 10698 02b4 48000000 		.4byte	.LVL42
 10699 02b8 C8000000 		.4byte	.LVL55
 10700 02bc 0200     		.2byte	0x2
 10701 02be 34       		.byte	0x34
 10702 02bf 9F       		.byte	0x9f
 10703 02c0 C8000000 		.4byte	.LVL55
 10704 02c4 CE000000 		.4byte	.LVL56
 10705 02c8 0200     		.2byte	0x2
 10706 02ca 32       		.byte	0x32
 10707 02cb 9F       		.byte	0x9f
 10708 02cc CE000000 		.4byte	.LVL56
 10709 02d0 D0000000 		.4byte	.LVL57
 10710 02d4 0200     		.2byte	0x2
 10711 02d6 34       		.byte	0x34
 10712 02d7 9F       		.byte	0x9f
 10713 02d8 00000000 		.4byte	0
 10714 02dc 00000000 		.4byte	0
 10715              	.LLST16:
 10716 02e0 14000000 		.4byte	.LVL34
 10717 02e4 2A000000 		.4byte	.LVL36
 10718 02e8 0100     		.2byte	0x1
 10719 02ea 54       		.byte	0x54
 10720 02eb 00000000 		.4byte	0
 10721 02ef 00000000 		.4byte	0
 10722              	.LLST17:
 10723 02f3 98000000 		.4byte	.LVL50
 10724 02f7 B6000000 		.4byte	.LVL52
 10725 02fb 0100     		.2byte	0x1
 10726 02fd 54       		.byte	0x54
 10727 02fe 00000000 		.4byte	0
 10728 0302 00000000 		.4byte	0
 10729              	.LLST18:
 10730 0306 00000000 		.4byte	.LVL58
 10731 030a 04000000 		.4byte	.LVL59
 10732 030e 0100     		.2byte	0x1
 10733 0310 50       		.byte	0x50
 10734 0311 04000000 		.4byte	.LVL59
 10735 0315 0B000000 		.4byte	.LVL60-1
 10736 0319 0300     		.2byte	0x3
 10737 031b 70       		.byte	0x70
 10738 031c 7E       		.sleb128 -2
 10739 031d 9F       		.byte	0x9f
 10740 031e 0B000000 		.4byte	.LVL60-1
ARM GAS  C:\Users\TERENC~1\AppData\Local\Temp\cc9BPywF.s 			page 214


 10741 0322 40000000 		.4byte	.LVL66
 10742 0326 0600     		.2byte	0x6
 10743 0328 F3       		.byte	0xf3
 10744 0329 01       		.uleb128 0x1
 10745 032a 50       		.byte	0x50
 10746 032b 32       		.byte	0x32
 10747 032c 1C       		.byte	0x1c
 10748 032d 9F       		.byte	0x9f
 10749 032e 40000000 		.4byte	.LVL66
 10750 0332 42000000 		.4byte	.LVL67
 10751 0336 0300     		.2byte	0x3
 10752 0338 70       		.byte	0x70
 10753 0339 7E       		.sleb128 -2
 10754 033a 9F       		.byte	0x9f
 10755 033b 42000000 		.4byte	.LVL67
 10756 033f B4000000 		.4byte	.LFE5
 10757 0343 0600     		.2byte	0x6
 10758 0345 F3       		.byte	0xf3
 10759 0346 01       		.uleb128 0x1
 10760 0347 50       		.byte	0x50
 10761 0348 32       		.byte	0x32
 10762 0349 1C       		.byte	0x1c
 10763 034a 9F       		.byte	0x9f
 10764 034b 00000000 		.4byte	0
 10765 034f 00000000 		.4byte	0
 10766              	.LLST19:
 10767 0353 00000000 		.4byte	.LVL58
 10768 0357 0B000000 		.4byte	.LVL60-1
 10769 035b 0100     		.2byte	0x1
 10770 035d 51       		.byte	0x51
 10771 035e 0B000000 		.4byte	.LVL60-1
 10772 0362 40000000 		.4byte	.LVL66
 10773 0366 0100     		.2byte	0x1
 10774 0368 55       		.byte	0x55
 10775 0369 40000000 		.4byte	.LVL66
 10776 036d 45000000 		.4byte	.LVL68-1
 10777 0371 0100     		.2byte	0x1
 10778 0373 51       		.byte	0x51
 10779 0374 45000000 		.4byte	.LVL68-1
 10780 0378 50000000 		.4byte	.LVL72
 10781 037c 0100     		.2byte	0x1
 10782 037e 55       		.byte	0x55
 10783 037f 50000000 		.4byte	.LVL72
 10784 0383 92000000 		.4byte	.LVL79
 10785 0387 0400     		.2byte	0x4
 10786 0389 F3       		.byte	0xf3
 10787 038a 01       		.uleb128 0x1
 10788 038b 51       		.byte	0x51
 10789 038c 9F       		.byte	0x9f
 10790 038d 92000000 		.4byte	.LVL79
 10791 0391 98000000 		.4byte	.LVL80
 10792 0395 0100     		.2byte	0x1
 10793 0397 55       		.byte	0x55
 10794 0398 98000000 		.4byte	.LVL80
 10795 039c B4000000 		.4byte	.LFE5
 10796 03a0 0400     		.2byte	0x4
 10797 03a2 F3       		.byte	0xf3
ARM GAS  C:\Users\TERENC~1\AppData\Local\Temp\cc9BPywF.s 			page 215


 10798 03a3 01       		.uleb128 0x1
 10799 03a4 51       		.byte	0x51
 10800 03a5 9F       		.byte	0x9f
 10801 03a6 00000000 		.4byte	0
 10802 03aa 00000000 		.4byte	0
 10803              	.LLST20:
 10804 03ae 48000000 		.4byte	.LVL69
 10805 03b2 4A000000 		.4byte	.LVL70
 10806 03b6 0100     		.2byte	0x1
 10807 03b8 50       		.byte	0x50
 10808 03b9 4A000000 		.4byte	.LVL70
 10809 03bd 72000000 		.4byte	.LVL76
 10810 03c1 0100     		.2byte	0x1
 10811 03c3 54       		.byte	0x54
 10812 03c4 98000000 		.4byte	.LVL80
 10813 03c8 9A000000 		.4byte	.LVL81
 10814 03cc 0100     		.2byte	0x1
 10815 03ce 54       		.byte	0x54
 10816 03cf 00000000 		.4byte	0
 10817 03d3 00000000 		.4byte	0
 10818              	.LLST21:
 10819 03d7 50000000 		.4byte	.LVL72
 10820 03db 53000000 		.4byte	.LVL73-1
 10821 03df 0100     		.2byte	0x1
 10822 03e1 50       		.byte	0x50
 10823 03e2 53000000 		.4byte	.LVL73-1
 10824 03e6 92000000 		.4byte	.LVL79
 10825 03ea 0100     		.2byte	0x1
 10826 03ec 55       		.byte	0x55
 10827 03ed 98000000 		.4byte	.LVL80
 10828 03f1 9A000000 		.4byte	.LVL81
 10829 03f5 0100     		.2byte	0x1
 10830 03f7 55       		.byte	0x55
 10831 03f8 00000000 		.4byte	0
 10832 03fc 00000000 		.4byte	0
 10833              	.LLST22:
 10834 0400 04000000 		.4byte	.LVL59
 10835 0404 40000000 		.4byte	.LVL66
 10836 0408 0200     		.2byte	0x2
 10837 040a 32       		.byte	0x32
 10838 040b 9F       		.byte	0x9f
 10839 040c 40000000 		.4byte	.LVL66
 10840 0410 92000000 		.4byte	.LVL79
 10841 0414 0200     		.2byte	0x2
 10842 0416 33       		.byte	0x33
 10843 0417 9F       		.byte	0x9f
 10844 0418 92000000 		.4byte	.LVL79
 10845 041c 98000000 		.4byte	.LVL80
 10846 0420 0200     		.2byte	0x2
 10847 0422 32       		.byte	0x32
 10848 0423 9F       		.byte	0x9f
 10849 0424 98000000 		.4byte	.LVL80
 10850 0428 9A000000 		.4byte	.LVL81
 10851 042c 0200     		.2byte	0x2
 10852 042e 33       		.byte	0x33
 10853 042f 9F       		.byte	0x9f
 10854 0430 00000000 		.4byte	0
ARM GAS  C:\Users\TERENC~1\AppData\Local\Temp\cc9BPywF.s 			page 216


 10855 0434 00000000 		.4byte	0
 10856              	.LLST23:
 10857 0438 14000000 		.4byte	.LVL61
 10858 043c 2A000000 		.4byte	.LVL63
 10859 0440 0100     		.2byte	0x1
 10860 0442 54       		.byte	0x54
 10861 0443 00000000 		.4byte	0
 10862 0447 00000000 		.4byte	0
 10863              	.LLST24:
 10864 044b 5C000000 		.4byte	.LVL74
 10865 044f 92000000 		.4byte	.LVL79
 10866 0453 0100     		.2byte	0x1
 10867 0455 56       		.byte	0x56
 10868 0456 00000000 		.4byte	0
 10869 045a 00000000 		.4byte	0
 10870              	.LLST25:
 10871 045e 00000000 		.4byte	.LVL82
 10872 0462 05000000 		.4byte	.LVL83-1
 10873 0466 0100     		.2byte	0x1
 10874 0468 50       		.byte	0x50
 10875 0469 05000000 		.4byte	.LVL83-1
 10876 046d 4C000000 		.4byte	.LFE20
 10877 0471 0400     		.2byte	0x4
 10878 0473 F3       		.byte	0xf3
 10879 0474 01       		.uleb128 0x1
 10880 0475 50       		.byte	0x50
 10881 0476 9F       		.byte	0x9f
 10882 0477 00000000 		.4byte	0
 10883 047b 00000000 		.4byte	0
 10884              	.LLST26:
 10885 047f 00000000 		.4byte	.LVL82
 10886 0483 05000000 		.4byte	.LVL83-1
 10887 0487 0100     		.2byte	0x1
 10888 0489 51       		.byte	0x51
 10889 048a 05000000 		.4byte	.LVL83-1
 10890 048e 4C000000 		.4byte	.LFE20
 10891 0492 0400     		.2byte	0x4
 10892 0494 F3       		.byte	0xf3
 10893 0495 01       		.uleb128 0x1
 10894 0496 51       		.byte	0x51
 10895 0497 9F       		.byte	0x9f
 10896 0498 00000000 		.4byte	0
 10897 049c 00000000 		.4byte	0
 10898              	.LLST27:
 10899 04a0 0E000000 		.4byte	.LVL84
 10900 04a4 28000000 		.4byte	.LVL86
 10901 04a8 0100     		.2byte	0x1
 10902 04aa 54       		.byte	0x54
 10903 04ab 00000000 		.4byte	0
 10904 04af 00000000 		.4byte	0
 10905              	.LLST28:
 10906 04b3 00000000 		.4byte	.LVL89
 10907 04b7 05000000 		.4byte	.LVL90-1
 10908 04bb 0100     		.2byte	0x1
 10909 04bd 50       		.byte	0x50
 10910 04be 05000000 		.4byte	.LVL90-1
 10911 04c2 54000000 		.4byte	.LFE22
ARM GAS  C:\Users\TERENC~1\AppData\Local\Temp\cc9BPywF.s 			page 217


 10912 04c6 0400     		.2byte	0x4
 10913 04c8 F3       		.byte	0xf3
 10914 04c9 01       		.uleb128 0x1
 10915 04ca 50       		.byte	0x50
 10916 04cb 9F       		.byte	0x9f
 10917 04cc 00000000 		.4byte	0
 10918 04d0 00000000 		.4byte	0
 10919              	.LLST29:
 10920 04d4 00000000 		.4byte	.LVL89
 10921 04d8 05000000 		.4byte	.LVL90-1
 10922 04dc 0100     		.2byte	0x1
 10923 04de 51       		.byte	0x51
 10924 04df 05000000 		.4byte	.LVL90-1
 10925 04e3 54000000 		.4byte	.LFE22
 10926 04e7 0400     		.2byte	0x4
 10927 04e9 F3       		.byte	0xf3
 10928 04ea 01       		.uleb128 0x1
 10929 04eb 51       		.byte	0x51
 10930 04ec 9F       		.byte	0x9f
 10931 04ed 00000000 		.4byte	0
 10932 04f1 00000000 		.4byte	0
 10933              	.LLST30:
 10934 04f5 0E000000 		.4byte	.LVL91
 10935 04f9 2E000000 		.4byte	.LVL93
 10936 04fd 0100     		.2byte	0x1
 10937 04ff 54       		.byte	0x54
 10938 0500 00000000 		.4byte	0
 10939 0504 00000000 		.4byte	0
 10940              	.LLST31:
 10941 0508 00000000 		.4byte	.LVL96
 10942 050c 05000000 		.4byte	.LVL97-1
 10943 0510 0100     		.2byte	0x1
 10944 0512 50       		.byte	0x50
 10945 0513 05000000 		.4byte	.LVL97-1
 10946 0517 24020000 		.4byte	.LFE25
 10947 051b 0400     		.2byte	0x4
 10948 051d F3       		.byte	0xf3
 10949 051e 01       		.uleb128 0x1
 10950 051f 50       		.byte	0x50
 10951 0520 9F       		.byte	0x9f
 10952 0521 00000000 		.4byte	0
 10953 0525 00000000 		.4byte	0
 10954              	.LLST32:
 10955 0529 00000000 		.4byte	.LVL96
 10956 052d 05000000 		.4byte	.LVL97-1
 10957 0531 0100     		.2byte	0x1
 10958 0533 51       		.byte	0x51
 10959 0534 05000000 		.4byte	.LVL97-1
 10960 0538 24020000 		.4byte	.LFE25
 10961 053c 0400     		.2byte	0x4
 10962 053e F3       		.byte	0xf3
 10963 053f 01       		.uleb128 0x1
 10964 0540 51       		.byte	0x51
 10965 0541 9F       		.byte	0x9f
 10966 0542 00000000 		.4byte	0
 10967 0546 00000000 		.4byte	0
 10968              	.LLST33:
ARM GAS  C:\Users\TERENC~1\AppData\Local\Temp\cc9BPywF.s 			page 218


 10969 054a 0E000000 		.4byte	.LVL98
 10970 054e 2A000000 		.4byte	.LVL100
 10971 0552 0100     		.2byte	0x1
 10972 0554 54       		.byte	0x54
 10973 0555 00000000 		.4byte	0
 10974 0559 00000000 		.4byte	0
 10975              	.LLST34:
 10976 055d 44000000 		.4byte	.LVL104
 10977 0561 60000000 		.4byte	.LVL106
 10978 0565 0100     		.2byte	0x1
 10979 0567 54       		.byte	0x54
 10980 0568 00000000 		.4byte	0
 10981 056c 00000000 		.4byte	0
 10982              	.LLST35:
 10983 0570 7A000000 		.4byte	.LVL110
 10984 0574 98000000 		.4byte	.LVL112
 10985 0578 0100     		.2byte	0x1
 10986 057a 54       		.byte	0x54
 10987 057b 00000000 		.4byte	0
 10988 057f 00000000 		.4byte	0
 10989              	.LLST36:
 10990 0583 B2000000 		.4byte	.LVL116
 10991 0587 D0000000 		.4byte	.LVL118
 10992 058b 0100     		.2byte	0x1
 10993 058d 54       		.byte	0x54
 10994 058e 00000000 		.4byte	0
 10995 0592 00000000 		.4byte	0
 10996              	.LLST37:
 10997 0596 EA000000 		.4byte	.LVL122
 10998 059a 08010000 		.4byte	.LVL124
 10999 059e 0100     		.2byte	0x1
 11000 05a0 54       		.byte	0x54
 11001 05a1 00000000 		.4byte	0
 11002 05a5 00000000 		.4byte	0
 11003              	.LLST38:
 11004 05a9 22010000 		.4byte	.LVL128
 11005 05ad 40010000 		.4byte	.LVL130
 11006 05b1 0100     		.2byte	0x1
 11007 05b3 54       		.byte	0x54
 11008 05b4 00000000 		.4byte	0
 11009 05b8 00000000 		.4byte	0
 11010              	.LLST39:
 11011 05bc 5A010000 		.4byte	.LVL134
 11012 05c0 76010000 		.4byte	.LVL136
 11013 05c4 0100     		.2byte	0x1
 11014 05c6 54       		.byte	0x54
 11015 05c7 00000000 		.4byte	0
 11016 05cb 00000000 		.4byte	0
 11017              	.LLST40:
 11018 05cf 90010000 		.4byte	.LVL140
 11019 05d3 AC010000 		.4byte	.LVL142
 11020 05d7 0100     		.2byte	0x1
 11021 05d9 54       		.byte	0x54
 11022 05da 00000000 		.4byte	0
 11023 05de 00000000 		.4byte	0
 11024              	.LLST41:
 11025 05e2 C6010000 		.4byte	.LVL146
ARM GAS  C:\Users\TERENC~1\AppData\Local\Temp\cc9BPywF.s 			page 219


 11026 05e6 DC010000 		.4byte	.LVL148
 11027 05ea 0100     		.2byte	0x1
 11028 05ec 54       		.byte	0x54
 11029 05ed 00000000 		.4byte	0
 11030 05f1 00000000 		.4byte	0
 11031              	.LLST42:
 11032 05f5 00000000 		.4byte	.LVL151
 11033 05f9 02000000 		.4byte	.LVL152
 11034 05fd 0100     		.2byte	0x1
 11035 05ff 50       		.byte	0x50
 11036 0600 02000000 		.4byte	.LVL152
 11037 0604 09000000 		.4byte	.LVL153-1
 11038 0608 0300     		.2byte	0x3
 11039 060a 70       		.byte	0x70
 11040 060b 7E       		.sleb128 -2
 11041 060c 9F       		.byte	0x9f
 11042 060d 09000000 		.4byte	.LVL153-1
 11043 0611 3E000000 		.4byte	.LVL159
 11044 0615 0600     		.2byte	0x6
 11045 0617 F3       		.byte	0xf3
 11046 0618 01       		.uleb128 0x1
 11047 0619 50       		.byte	0x50
 11048 061a 32       		.byte	0x32
 11049 061b 1C       		.byte	0x1c
 11050 061c 9F       		.byte	0x9f
 11051 061d 3E000000 		.4byte	.LVL159
 11052 0621 40000000 		.4byte	.LVL160
 11053 0625 0300     		.2byte	0x3
 11054 0627 70       		.byte	0x70
 11055 0628 7E       		.sleb128 -2
 11056 0629 9F       		.byte	0x9f
 11057 062a 40000000 		.4byte	.LVL160
 11058 062e E4000000 		.4byte	.LFE6
 11059 0632 0600     		.2byte	0x6
 11060 0634 F3       		.byte	0xf3
 11061 0635 01       		.uleb128 0x1
 11062 0636 50       		.byte	0x50
 11063 0637 32       		.byte	0x32
 11064 0638 1C       		.byte	0x1c
 11065 0639 9F       		.byte	0x9f
 11066 063a 00000000 		.4byte	0
 11067 063e 00000000 		.4byte	0
 11068              	.LLST43:
 11069 0642 00000000 		.4byte	.LVL151
 11070 0646 09000000 		.4byte	.LVL153-1
 11071 064a 0100     		.2byte	0x1
 11072 064c 51       		.byte	0x51
 11073 064d 09000000 		.4byte	.LVL153-1
 11074 0651 3E000000 		.4byte	.LVL159
 11075 0655 0400     		.2byte	0x4
 11076 0657 F3       		.byte	0xf3
 11077 0658 01       		.uleb128 0x1
 11078 0659 51       		.byte	0x51
 11079 065a 9F       		.byte	0x9f
 11080 065b 3E000000 		.4byte	.LVL159
 11081 065f 43000000 		.4byte	.LVL161-1
 11082 0663 0100     		.2byte	0x1
ARM GAS  C:\Users\TERENC~1\AppData\Local\Temp\cc9BPywF.s 			page 220


 11083 0665 51       		.byte	0x51
 11084 0666 43000000 		.4byte	.LVL161-1
 11085 066a E4000000 		.4byte	.LFE6
 11086 066e 0400     		.2byte	0x4
 11087 0670 F3       		.byte	0xf3
 11088 0671 01       		.uleb128 0x1
 11089 0672 51       		.byte	0x51
 11090 0673 9F       		.byte	0x9f
 11091 0674 00000000 		.4byte	0
 11092 0678 00000000 		.4byte	0
 11093              	.LLST44:
 11094 067c 44000000 		.4byte	.LVL161
 11095 0680 46000000 		.4byte	.LVL162
 11096 0684 0100     		.2byte	0x1
 11097 0686 50       		.byte	0x50
 11098 0687 00000000 		.4byte	0
 11099 068b 00000000 		.4byte	0
 11100              	.LLST45:
 11101 068f 02000000 		.4byte	.LVL152
 11102 0693 3E000000 		.4byte	.LVL159
 11103 0697 0200     		.2byte	0x2
 11104 0699 32       		.byte	0x32
 11105 069a 9F       		.byte	0x9f
 11106 069b 3E000000 		.4byte	.LVL159
 11107 069f BC000000 		.4byte	.LVL178
 11108 06a3 0200     		.2byte	0x2
 11109 06a5 33       		.byte	0x33
 11110 06a6 9F       		.byte	0x9f
 11111 06a7 BC000000 		.4byte	.LVL178
 11112 06ab C2000000 		.4byte	.LVL179
 11113 06af 0200     		.2byte	0x2
 11114 06b1 32       		.byte	0x32
 11115 06b2 9F       		.byte	0x9f
 11116 06b3 C2000000 		.4byte	.LVL179
 11117 06b7 CA000000 		.4byte	.LVL180
 11118 06bb 0200     		.2byte	0x2
 11119 06bd 33       		.byte	0x33
 11120 06be 9F       		.byte	0x9f
 11121 06bf 00000000 		.4byte	0
 11122 06c3 00000000 		.4byte	0
 11123              	.LLST46:
 11124 06c7 4C000000 		.4byte	.LVL164
 11125 06cb 51000000 		.4byte	.LVL165-1
 11126 06cf 0100     		.2byte	0x1
 11127 06d1 50       		.byte	0x50
 11128 06d2 84000000 		.4byte	.LVL171
 11129 06d6 87000000 		.4byte	.LVL172-1
 11130 06da 0100     		.2byte	0x1
 11131 06dc 50       		.byte	0x50
 11132 06dd 00000000 		.4byte	0
 11133 06e1 00000000 		.4byte	0
 11134              	.LLST47:
 11135 06e5 12000000 		.4byte	.LVL154
 11136 06e9 28000000 		.4byte	.LVL156
 11137 06ed 0100     		.2byte	0x1
 11138 06ef 54       		.byte	0x54
 11139 06f0 00000000 		.4byte	0
ARM GAS  C:\Users\TERENC~1\AppData\Local\Temp\cc9BPywF.s 			page 221


 11140 06f4 00000000 		.4byte	0
 11141              	.LLST48:
 11142 06f8 5A000000 		.4byte	.LVL166
 11143 06fc 70000000 		.4byte	.LVL168
 11144 0700 0100     		.2byte	0x1
 11145 0702 54       		.byte	0x54
 11146 0703 00000000 		.4byte	0
 11147 0707 00000000 		.4byte	0
 11148              	.LLST49:
 11149 070b 90000000 		.4byte	.LVL173
 11150 070f A6000000 		.4byte	.LVL175
 11151 0713 0100     		.2byte	0x1
 11152 0715 54       		.byte	0x54
 11153 0716 00000000 		.4byte	0
 11154 071a 00000000 		.4byte	0
 11155              	.LLST50:
 11156 071e 00000000 		.4byte	.LVL181
 11157 0722 05000000 		.4byte	.LVL182-1
 11158 0726 0100     		.2byte	0x1
 11159 0728 50       		.byte	0x50
 11160 0729 05000000 		.4byte	.LVL182-1
 11161 072d 4C000000 		.4byte	.LFE7
 11162 0731 0400     		.2byte	0x4
 11163 0733 F3       		.byte	0xf3
 11164 0734 01       		.uleb128 0x1
 11165 0735 50       		.byte	0x50
 11166 0736 9F       		.byte	0x9f
 11167 0737 00000000 		.4byte	0
 11168 073b 00000000 		.4byte	0
 11169              	.LLST51:
 11170 073f 00000000 		.4byte	.LVL181
 11171 0743 05000000 		.4byte	.LVL182-1
 11172 0747 0100     		.2byte	0x1
 11173 0749 51       		.byte	0x51
 11174 074a 05000000 		.4byte	.LVL182-1
 11175 074e 4C000000 		.4byte	.LFE7
 11176 0752 0400     		.2byte	0x4
 11177 0754 F3       		.byte	0xf3
 11178 0755 01       		.uleb128 0x1
 11179 0756 51       		.byte	0x51
 11180 0757 9F       		.byte	0x9f
 11181 0758 00000000 		.4byte	0
 11182 075c 00000000 		.4byte	0
 11183              	.LLST52:
 11184 0760 0E000000 		.4byte	.LVL183
 11185 0764 2A000000 		.4byte	.LVL186
 11186 0768 0100     		.2byte	0x1
 11187 076a 54       		.byte	0x54
 11188 076b 00000000 		.4byte	0
 11189 076f 00000000 		.4byte	0
 11190              	.LLST53:
 11191 0773 00000000 		.4byte	.LVL189
 11192 0777 04000000 		.4byte	.LVL190
 11193 077b 0100     		.2byte	0x1
 11194 077d 50       		.byte	0x50
 11195 077e 04000000 		.4byte	.LVL190
 11196 0782 0B000000 		.4byte	.LVL191-1
ARM GAS  C:\Users\TERENC~1\AppData\Local\Temp\cc9BPywF.s 			page 222


 11197 0786 0300     		.2byte	0x3
 11198 0788 70       		.byte	0x70
 11199 0789 7E       		.sleb128 -2
 11200 078a 9F       		.byte	0x9f
 11201 078b 0B000000 		.4byte	.LVL191-1
 11202 078f 40000000 		.4byte	.LVL197
 11203 0793 0600     		.2byte	0x6
 11204 0795 F3       		.byte	0xf3
 11205 0796 01       		.uleb128 0x1
 11206 0797 50       		.byte	0x50
 11207 0798 32       		.byte	0x32
 11208 0799 1C       		.byte	0x1c
 11209 079a 9F       		.byte	0x9f
 11210 079b 40000000 		.4byte	.LVL197
 11211 079f 42000000 		.4byte	.LVL198
 11212 07a3 0300     		.2byte	0x3
 11213 07a5 70       		.byte	0x70
 11214 07a6 7E       		.sleb128 -2
 11215 07a7 9F       		.byte	0x9f
 11216 07a8 42000000 		.4byte	.LVL198
 11217 07ac F4000000 		.4byte	.LFE8
 11218 07b0 0600     		.2byte	0x6
 11219 07b2 F3       		.byte	0xf3
 11220 07b3 01       		.uleb128 0x1
 11221 07b4 50       		.byte	0x50
 11222 07b5 32       		.byte	0x32
 11223 07b6 1C       		.byte	0x1c
 11224 07b7 9F       		.byte	0x9f
 11225 07b8 00000000 		.4byte	0
 11226 07bc 00000000 		.4byte	0
 11227              	.LLST54:
 11228 07c0 00000000 		.4byte	.LVL189
 11229 07c4 0B000000 		.4byte	.LVL191-1
 11230 07c8 0100     		.2byte	0x1
 11231 07ca 51       		.byte	0x51
 11232 07cb 0B000000 		.4byte	.LVL191-1
 11233 07cf 14000000 		.4byte	.LVL192
 11234 07d3 0100     		.2byte	0x1
 11235 07d5 54       		.byte	0x54
 11236 07d6 14000000 		.4byte	.LVL192
 11237 07da 40000000 		.4byte	.LVL197
 11238 07de 0400     		.2byte	0x4
 11239 07e0 F3       		.byte	0xf3
 11240 07e1 01       		.uleb128 0x1
 11241 07e2 51       		.byte	0x51
 11242 07e3 9F       		.byte	0x9f
 11243 07e4 40000000 		.4byte	.LVL197
 11244 07e8 45000000 		.4byte	.LVL199-1
 11245 07ec 0100     		.2byte	0x1
 11246 07ee 51       		.byte	0x51
 11247 07ef 45000000 		.4byte	.LVL199-1
 11248 07f3 6A000000 		.4byte	.LVL206
 11249 07f7 0100     		.2byte	0x1
 11250 07f9 54       		.byte	0x54
 11251 07fa 6A000000 		.4byte	.LVL206
 11252 07fe 94000000 		.4byte	.LVL211
 11253 0802 0400     		.2byte	0x4
ARM GAS  C:\Users\TERENC~1\AppData\Local\Temp\cc9BPywF.s 			page 223


 11254 0804 F3       		.byte	0xf3
 11255 0805 01       		.uleb128 0x1
 11256 0806 51       		.byte	0x51
 11257 0807 9F       		.byte	0x9f
 11258 0808 94000000 		.4byte	.LVL211
 11259 080c A0000000 		.4byte	.LVL213
 11260 0810 0100     		.2byte	0x1
 11261 0812 54       		.byte	0x54
 11262 0813 A0000000 		.4byte	.LVL213
 11263 0817 CC000000 		.4byte	.LVL218
 11264 081b 0400     		.2byte	0x4
 11265 081d F3       		.byte	0xf3
 11266 081e 01       		.uleb128 0x1
 11267 081f 51       		.byte	0x51
 11268 0820 9F       		.byte	0x9f
 11269 0821 CC000000 		.4byte	.LVL218
 11270 0825 DA000000 		.4byte	.LVL220
 11271 0829 0100     		.2byte	0x1
 11272 082b 54       		.byte	0x54
 11273 082c DA000000 		.4byte	.LVL220
 11274 0830 F4000000 		.4byte	.LFE8
 11275 0834 0400     		.2byte	0x4
 11276 0836 F3       		.byte	0xf3
 11277 0837 01       		.uleb128 0x1
 11278 0838 51       		.byte	0x51
 11279 0839 9F       		.byte	0x9f
 11280 083a 00000000 		.4byte	0
 11281 083e 00000000 		.4byte	0
 11282              	.LLST55:
 11283 0842 04000000 		.4byte	.LVL190
 11284 0846 40000000 		.4byte	.LVL197
 11285 084a 0200     		.2byte	0x2
 11286 084c 32       		.byte	0x32
 11287 084d 9F       		.byte	0x9f
 11288 084e 40000000 		.4byte	.LVL197
 11289 0852 48000000 		.4byte	.LVL200
 11290 0856 0200     		.2byte	0x2
 11291 0858 33       		.byte	0x33
 11292 0859 9F       		.byte	0x9f
 11293 085a 48000000 		.4byte	.LVL200
 11294 085e CC000000 		.4byte	.LVL218
 11295 0862 0200     		.2byte	0x2
 11296 0864 34       		.byte	0x34
 11297 0865 9F       		.byte	0x9f
 11298 0866 CC000000 		.4byte	.LVL218
 11299 086a D2000000 		.4byte	.LVL219
 11300 086e 0200     		.2byte	0x2
 11301 0870 32       		.byte	0x32
 11302 0871 9F       		.byte	0x9f
 11303 0872 D2000000 		.4byte	.LVL219
 11304 0876 DA000000 		.4byte	.LVL220
 11305 087a 0200     		.2byte	0x2
 11306 087c 34       		.byte	0x34
 11307 087d 9F       		.byte	0x9f
 11308 087e 00000000 		.4byte	0
 11309 0882 00000000 		.4byte	0
 11310              	.LLST56:
ARM GAS  C:\Users\TERENC~1\AppData\Local\Temp\cc9BPywF.s 			page 224


 11311 0886 48000000 		.4byte	.LVL200
 11312 088a 5C000000 		.4byte	.LVL204
 11313 088e 0100     		.2byte	0x1
 11314 0890 55       		.byte	0x55
 11315 0891 00000000 		.4byte	0
 11316 0895 00000000 		.4byte	0
 11317              	.LLST57:
 11318 0899 54000000 		.4byte	.LVL202
 11319 089d 59000000 		.4byte	.LVL203-1
 11320 08a1 0100     		.2byte	0x1
 11321 08a3 51       		.byte	0x51
 11322 08a4 00000000 		.4byte	0
 11323 08a8 00000000 		.4byte	0
 11324              	.LLST58:
 11325 08ac 5C000000 		.4byte	.LVL204
 11326 08b0 61000000 		.4byte	.LVL205-1
 11327 08b4 0100     		.2byte	0x1
 11328 08b6 50       		.byte	0x50
 11329 08b7 61000000 		.4byte	.LVL205-1
 11330 08bb 94000000 		.4byte	.LVL211
 11331 08bf 0100     		.2byte	0x1
 11332 08c1 55       		.byte	0x55
 11333 08c2 94000000 		.4byte	.LVL211
 11334 08c6 97000000 		.4byte	.LVL212-1
 11335 08ca 0100     		.2byte	0x1
 11336 08cc 50       		.byte	0x50
 11337 08cd 97000000 		.4byte	.LVL212-1
 11338 08d1 CC000000 		.4byte	.LVL218
 11339 08d5 0100     		.2byte	0x1
 11340 08d7 55       		.byte	0x55
 11341 08d8 D2000000 		.4byte	.LVL219
 11342 08dc DA000000 		.4byte	.LVL220
 11343 08e0 0100     		.2byte	0x1
 11344 08e2 55       		.byte	0x55
 11345 08e3 00000000 		.4byte	0
 11346 08e7 00000000 		.4byte	0
 11347              	.LLST59:
 11348 08eb 14000000 		.4byte	.LVL192
 11349 08ef 2A000000 		.4byte	.LVL194
 11350 08f3 0100     		.2byte	0x1
 11351 08f5 54       		.byte	0x54
 11352 08f6 00000000 		.4byte	0
 11353 08fa 00000000 		.4byte	0
 11354              	.LLST60:
 11355 08fe 6A000000 		.4byte	.LVL206
 11356 0902 80000000 		.4byte	.LVL208
 11357 0906 0100     		.2byte	0x1
 11358 0908 54       		.byte	0x54
 11359 0909 00000000 		.4byte	0
 11360 090d 00000000 		.4byte	0
 11361              	.LLST61:
 11362 0911 A0000000 		.4byte	.LVL213
 11363 0915 B6000000 		.4byte	.LVL215
 11364 0919 0100     		.2byte	0x1
 11365 091b 54       		.byte	0x54
 11366 091c 00000000 		.4byte	0
 11367 0920 00000000 		.4byte	0
ARM GAS  C:\Users\TERENC~1\AppData\Local\Temp\cc9BPywF.s 			page 225


 11368              	.LLST62:
 11369 0924 00000000 		.4byte	.LVL221
 11370 0928 02000000 		.4byte	.LVL222
 11371 092c 0100     		.2byte	0x1
 11372 092e 50       		.byte	0x50
 11373 092f 02000000 		.4byte	.LVL222
 11374 0933 09000000 		.4byte	.LVL223-1
 11375 0937 0300     		.2byte	0x3
 11376 0939 70       		.byte	0x70
 11377 093a 7E       		.sleb128 -2
 11378 093b 9F       		.byte	0x9f
 11379 093c 09000000 		.4byte	.LVL223-1
 11380 0940 3E000000 		.4byte	.LVL229
 11381 0944 0600     		.2byte	0x6
 11382 0946 F3       		.byte	0xf3
 11383 0947 01       		.uleb128 0x1
 11384 0948 50       		.byte	0x50
 11385 0949 32       		.byte	0x32
 11386 094a 1C       		.byte	0x1c
 11387 094b 9F       		.byte	0x9f
 11388 094c 3E000000 		.4byte	.LVL229
 11389 0950 40000000 		.4byte	.LVL230
 11390 0954 0300     		.2byte	0x3
 11391 0956 70       		.byte	0x70
 11392 0957 7E       		.sleb128 -2
 11393 0958 9F       		.byte	0x9f
 11394 0959 40000000 		.4byte	.LVL230
 11395 095d A0000000 		.4byte	.LFE9
 11396 0961 0600     		.2byte	0x6
 11397 0963 F3       		.byte	0xf3
 11398 0964 01       		.uleb128 0x1
 11399 0965 50       		.byte	0x50
 11400 0966 32       		.byte	0x32
 11401 0967 1C       		.byte	0x1c
 11402 0968 9F       		.byte	0x9f
 11403 0969 00000000 		.4byte	0
 11404 096d 00000000 		.4byte	0
 11405              	.LLST63:
 11406 0971 00000000 		.4byte	.LVL221
 11407 0975 09000000 		.4byte	.LVL223-1
 11408 0979 0100     		.2byte	0x1
 11409 097b 51       		.byte	0x51
 11410 097c 09000000 		.4byte	.LVL223-1
 11411 0980 3E000000 		.4byte	.LVL229
 11412 0984 0400     		.2byte	0x4
 11413 0986 F3       		.byte	0xf3
 11414 0987 01       		.uleb128 0x1
 11415 0988 51       		.byte	0x51
 11416 0989 9F       		.byte	0x9f
 11417 098a 3E000000 		.4byte	.LVL229
 11418 098e 43000000 		.4byte	.LVL231-1
 11419 0992 0100     		.2byte	0x1
 11420 0994 51       		.byte	0x51
 11421 0995 43000000 		.4byte	.LVL231-1
 11422 0999 A0000000 		.4byte	.LFE9
 11423 099d 0400     		.2byte	0x4
 11424 099f F3       		.byte	0xf3
ARM GAS  C:\Users\TERENC~1\AppData\Local\Temp\cc9BPywF.s 			page 226


 11425 09a0 01       		.uleb128 0x1
 11426 09a1 51       		.byte	0x51
 11427 09a2 9F       		.byte	0x9f
 11428 09a3 00000000 		.4byte	0
 11429 09a7 00000000 		.4byte	0
 11430              	.LLST64:
 11431 09ab 02000000 		.4byte	.LVL222
 11432 09af 3E000000 		.4byte	.LVL229
 11433 09b3 0200     		.2byte	0x2
 11434 09b5 32       		.byte	0x32
 11435 09b6 9F       		.byte	0x9f
 11436 09b7 3E000000 		.4byte	.LVL229
 11437 09bb 82000000 		.4byte	.LVL240
 11438 09bf 0200     		.2byte	0x2
 11439 09c1 33       		.byte	0x33
 11440 09c2 9F       		.byte	0x9f
 11441 09c3 82000000 		.4byte	.LVL240
 11442 09c7 88000000 		.4byte	.LVL241
 11443 09cb 0200     		.2byte	0x2
 11444 09cd 32       		.byte	0x32
 11445 09ce 9F       		.byte	0x9f
 11446 09cf 88000000 		.4byte	.LVL241
 11447 09d3 8A000000 		.4byte	.LVL242
 11448 09d7 0200     		.2byte	0x2
 11449 09d9 33       		.byte	0x33
 11450 09da 9F       		.byte	0x9f
 11451 09db 00000000 		.4byte	0
 11452 09df 00000000 		.4byte	0
 11453              	.LLST65:
 11454 09e3 46000000 		.4byte	.LVL232
 11455 09e7 82000000 		.4byte	.LVL240
 11456 09eb 0100     		.2byte	0x1
 11457 09ed 55       		.byte	0x55
 11458 09ee 88000000 		.4byte	.LVL241
 11459 09f2 8A000000 		.4byte	.LVL242
 11460 09f6 0100     		.2byte	0x1
 11461 09f8 55       		.byte	0x55
 11462 09f9 00000000 		.4byte	0
 11463 09fd 00000000 		.4byte	0
 11464              	.LLST66:
 11465 0a01 12000000 		.4byte	.LVL224
 11466 0a05 28000000 		.4byte	.LVL226
 11467 0a09 0100     		.2byte	0x1
 11468 0a0b 54       		.byte	0x54
 11469 0a0c 00000000 		.4byte	0
 11470 0a10 00000000 		.4byte	0
 11471              	.LLST67:
 11472 0a14 52000000 		.4byte	.LVL234
 11473 0a18 70000000 		.4byte	.LVL237
 11474 0a1c 0100     		.2byte	0x1
 11475 0a1e 54       		.byte	0x54
 11476 0a1f 00000000 		.4byte	0
 11477 0a23 00000000 		.4byte	0
 11478              	.LLST68:
 11479 0a27 00000000 		.4byte	.LVL243
 11480 0a2b 05000000 		.4byte	.LVL244-1
 11481 0a2f 0100     		.2byte	0x1
ARM GAS  C:\Users\TERENC~1\AppData\Local\Temp\cc9BPywF.s 			page 227


 11482 0a31 50       		.byte	0x50
 11483 0a32 05000000 		.4byte	.LVL244-1
 11484 0a36 4C000000 		.4byte	.LFE10
 11485 0a3a 0400     		.2byte	0x4
 11486 0a3c F3       		.byte	0xf3
 11487 0a3d 01       		.uleb128 0x1
 11488 0a3e 50       		.byte	0x50
 11489 0a3f 9F       		.byte	0x9f
 11490 0a40 00000000 		.4byte	0
 11491 0a44 00000000 		.4byte	0
 11492              	.LLST69:
 11493 0a48 00000000 		.4byte	.LVL243
 11494 0a4c 05000000 		.4byte	.LVL244-1
 11495 0a50 0100     		.2byte	0x1
 11496 0a52 51       		.byte	0x51
 11497 0a53 05000000 		.4byte	.LVL244-1
 11498 0a57 4C000000 		.4byte	.LFE10
 11499 0a5b 0400     		.2byte	0x4
 11500 0a5d F3       		.byte	0xf3
 11501 0a5e 01       		.uleb128 0x1
 11502 0a5f 51       		.byte	0x51
 11503 0a60 9F       		.byte	0x9f
 11504 0a61 00000000 		.4byte	0
 11505 0a65 00000000 		.4byte	0
 11506              	.LLST70:
 11507 0a69 12000000 		.4byte	.LVL246
 11508 0a6d 28000000 		.4byte	.LVL248
 11509 0a71 0100     		.2byte	0x1
 11510 0a73 54       		.byte	0x54
 11511 0a74 00000000 		.4byte	0
 11512 0a78 00000000 		.4byte	0
 11513              	.LLST71:
 11514 0a7c 00000000 		.4byte	.LVL251
 11515 0a80 05000000 		.4byte	.LVL252-1
 11516 0a84 0100     		.2byte	0x1
 11517 0a86 50       		.byte	0x50
 11518 0a87 05000000 		.4byte	.LVL252-1
 11519 0a8b 5C000000 		.4byte	.LFE11
 11520 0a8f 0400     		.2byte	0x4
 11521 0a91 F3       		.byte	0xf3
 11522 0a92 01       		.uleb128 0x1
 11523 0a93 50       		.byte	0x50
 11524 0a94 9F       		.byte	0x9f
 11525 0a95 00000000 		.4byte	0
 11526 0a99 00000000 		.4byte	0
 11527              	.LLST72:
 11528 0a9d 00000000 		.4byte	.LVL251
 11529 0aa1 05000000 		.4byte	.LVL252-1
 11530 0aa5 0100     		.2byte	0x1
 11531 0aa7 51       		.byte	0x51
 11532 0aa8 05000000 		.4byte	.LVL252-1
 11533 0aac 5C000000 		.4byte	.LFE11
 11534 0ab0 0400     		.2byte	0x4
 11535 0ab2 F3       		.byte	0xf3
 11536 0ab3 01       		.uleb128 0x1
 11537 0ab4 51       		.byte	0x51
 11538 0ab5 9F       		.byte	0x9f
ARM GAS  C:\Users\TERENC~1\AppData\Local\Temp\cc9BPywF.s 			page 228


 11539 0ab6 00000000 		.4byte	0
 11540 0aba 00000000 		.4byte	0
 11541              	.LLST73:
 11542 0abe 0E000000 		.4byte	.LVL253
 11543 0ac2 36000000 		.4byte	.LVL256
 11544 0ac6 0100     		.2byte	0x1
 11545 0ac8 54       		.byte	0x54
 11546 0ac9 00000000 		.4byte	0
 11547 0acd 00000000 		.4byte	0
 11548              	.LLST74:
 11549 0ad1 00000000 		.4byte	.LVL259
 11550 0ad5 05000000 		.4byte	.LVL260-1
 11551 0ad9 0100     		.2byte	0x1
 11552 0adb 50       		.byte	0x50
 11553 0adc 05000000 		.4byte	.LVL260-1
 11554 0ae0 5C000000 		.4byte	.LFE12
 11555 0ae4 0400     		.2byte	0x4
 11556 0ae6 F3       		.byte	0xf3
 11557 0ae7 01       		.uleb128 0x1
 11558 0ae8 50       		.byte	0x50
 11559 0ae9 9F       		.byte	0x9f
 11560 0aea 00000000 		.4byte	0
 11561 0aee 00000000 		.4byte	0
 11562              	.LLST75:
 11563 0af2 00000000 		.4byte	.LVL259
 11564 0af6 05000000 		.4byte	.LVL260-1
 11565 0afa 0100     		.2byte	0x1
 11566 0afc 51       		.byte	0x51
 11567 0afd 05000000 		.4byte	.LVL260-1
 11568 0b01 5C000000 		.4byte	.LFE12
 11569 0b05 0400     		.2byte	0x4
 11570 0b07 F3       		.byte	0xf3
 11571 0b08 01       		.uleb128 0x1
 11572 0b09 51       		.byte	0x51
 11573 0b0a 9F       		.byte	0x9f
 11574 0b0b 00000000 		.4byte	0
 11575 0b0f 00000000 		.4byte	0
 11576              	.LLST76:
 11577 0b13 0E000000 		.4byte	.LVL261
 11578 0b17 36000000 		.4byte	.LVL264
 11579 0b1b 0100     		.2byte	0x1
 11580 0b1d 54       		.byte	0x54
 11581 0b1e 00000000 		.4byte	0
 11582 0b22 00000000 		.4byte	0
 11583              	.LLST77:
 11584 0b26 00000000 		.4byte	.LVL267
 11585 0b2a 05000000 		.4byte	.LVL268-1
 11586 0b2e 0100     		.2byte	0x1
 11587 0b30 50       		.byte	0x50
 11588 0b31 05000000 		.4byte	.LVL268-1
 11589 0b35 5C000000 		.4byte	.LFE13
 11590 0b39 0400     		.2byte	0x4
 11591 0b3b F3       		.byte	0xf3
 11592 0b3c 01       		.uleb128 0x1
 11593 0b3d 50       		.byte	0x50
 11594 0b3e 9F       		.byte	0x9f
 11595 0b3f 00000000 		.4byte	0
ARM GAS  C:\Users\TERENC~1\AppData\Local\Temp\cc9BPywF.s 			page 229


 11596 0b43 00000000 		.4byte	0
 11597              	.LLST78:
 11598 0b47 00000000 		.4byte	.LVL267
 11599 0b4b 05000000 		.4byte	.LVL268-1
 11600 0b4f 0100     		.2byte	0x1
 11601 0b51 51       		.byte	0x51
 11602 0b52 05000000 		.4byte	.LVL268-1
 11603 0b56 5C000000 		.4byte	.LFE13
 11604 0b5a 0400     		.2byte	0x4
 11605 0b5c F3       		.byte	0xf3
 11606 0b5d 01       		.uleb128 0x1
 11607 0b5e 51       		.byte	0x51
 11608 0b5f 9F       		.byte	0x9f
 11609 0b60 00000000 		.4byte	0
 11610 0b64 00000000 		.4byte	0
 11611              	.LLST79:
 11612 0b68 0E000000 		.4byte	.LVL269
 11613 0b6c 36000000 		.4byte	.LVL272
 11614 0b70 0100     		.2byte	0x1
 11615 0b72 54       		.byte	0x54
 11616 0b73 00000000 		.4byte	0
 11617 0b77 00000000 		.4byte	0
 11618              	.LLST80:
 11619 0b7b 00000000 		.4byte	.LVL275
 11620 0b7f 05000000 		.4byte	.LVL276-1
 11621 0b83 0100     		.2byte	0x1
 11622 0b85 50       		.byte	0x50
 11623 0b86 05000000 		.4byte	.LVL276-1
 11624 0b8a 5C000000 		.4byte	.LFE14
 11625 0b8e 0400     		.2byte	0x4
 11626 0b90 F3       		.byte	0xf3
 11627 0b91 01       		.uleb128 0x1
 11628 0b92 50       		.byte	0x50
 11629 0b93 9F       		.byte	0x9f
 11630 0b94 00000000 		.4byte	0
 11631 0b98 00000000 		.4byte	0
 11632              	.LLST81:
 11633 0b9c 00000000 		.4byte	.LVL275
 11634 0ba0 05000000 		.4byte	.LVL276-1
 11635 0ba4 0100     		.2byte	0x1
 11636 0ba6 51       		.byte	0x51
 11637 0ba7 05000000 		.4byte	.LVL276-1
 11638 0bab 5C000000 		.4byte	.LFE14
 11639 0baf 0400     		.2byte	0x4
 11640 0bb1 F3       		.byte	0xf3
 11641 0bb2 01       		.uleb128 0x1
 11642 0bb3 51       		.byte	0x51
 11643 0bb4 9F       		.byte	0x9f
 11644 0bb5 00000000 		.4byte	0
 11645 0bb9 00000000 		.4byte	0
 11646              	.LLST82:
 11647 0bbd 0E000000 		.4byte	.LVL277
 11648 0bc1 36000000 		.4byte	.LVL280
 11649 0bc5 0100     		.2byte	0x1
 11650 0bc7 54       		.byte	0x54
 11651 0bc8 00000000 		.4byte	0
 11652 0bcc 00000000 		.4byte	0
ARM GAS  C:\Users\TERENC~1\AppData\Local\Temp\cc9BPywF.s 			page 230


 11653              	.LLST83:
 11654 0bd0 00000000 		.4byte	.LVL283
 11655 0bd4 06000000 		.4byte	.LVL284
 11656 0bd8 0100     		.2byte	0x1
 11657 0bda 50       		.byte	0x50
 11658 0bdb 06000000 		.4byte	.LVL284
 11659 0bdf 68000000 		.4byte	.LFE15
 11660 0be3 0400     		.2byte	0x4
 11661 0be5 F3       		.byte	0xf3
 11662 0be6 01       		.uleb128 0x1
 11663 0be7 50       		.byte	0x50
 11664 0be8 9F       		.byte	0x9f
 11665 0be9 00000000 		.4byte	0
 11666 0bed 00000000 		.4byte	0
 11667              	.LLST84:
 11668 0bf1 00000000 		.4byte	.LVL283
 11669 0bf5 09000000 		.4byte	.LVL285-1
 11670 0bf9 0100     		.2byte	0x1
 11671 0bfb 51       		.byte	0x51
 11672 0bfc 09000000 		.4byte	.LVL285-1
 11673 0c00 68000000 		.4byte	.LFE15
 11674 0c04 0400     		.2byte	0x4
 11675 0c06 F3       		.byte	0xf3
 11676 0c07 01       		.uleb128 0x1
 11677 0c08 51       		.byte	0x51
 11678 0c09 9F       		.byte	0x9f
 11679 0c0a 00000000 		.4byte	0
 11680 0c0e 00000000 		.4byte	0
 11681              	.LLST85:
 11682 0c12 0C000000 		.4byte	.LVL286
 11683 0c16 0F000000 		.4byte	.LVL287-1
 11684 0c1a 0100     		.2byte	0x1
 11685 0c1c 50       		.byte	0x50
 11686 0c1d 0F000000 		.4byte	.LVL287-1
 11687 0c21 3C000000 		.4byte	.LVL290
 11688 0c25 0100     		.2byte	0x1
 11689 0c27 54       		.byte	0x54
 11690 0c28 00000000 		.4byte	0
 11691 0c2c 00000000 		.4byte	0
 11692              	.LLST86:
 11693 0c30 18000000 		.4byte	.LVL288
 11694 0c34 4C000000 		.4byte	.LVL292
 11695 0c38 0100     		.2byte	0x1
 11696 0c3a 55       		.byte	0x55
 11697 0c3b 00000000 		.4byte	0
 11698 0c3f 00000000 		.4byte	0
 11699              	.LLST87:
 11700 0c43 00000000 		.4byte	.LVL293
 11701 0c47 08000000 		.4byte	.LVL295
 11702 0c4b 0100     		.2byte	0x1
 11703 0c4d 50       		.byte	0x50
 11704 0c4e 08000000 		.4byte	.LVL295
 11705 0c52 52000000 		.4byte	.LVL306
 11706 0c56 0100     		.2byte	0x1
 11707 0c58 54       		.byte	0x54
 11708 0c59 52000000 		.4byte	.LVL306
 11709 0c5d D8000000 		.4byte	.LVL318
ARM GAS  C:\Users\TERENC~1\AppData\Local\Temp\cc9BPywF.s 			page 231


 11710 0c61 0600     		.2byte	0x6
 11711 0c63 F3       		.byte	0xf3
 11712 0c64 01       		.uleb128 0x1
 11713 0c65 50       		.byte	0x50
 11714 0c66 32       		.byte	0x32
 11715 0c67 1C       		.byte	0x1c
 11716 0c68 9F       		.byte	0x9f
 11717 0c69 D8000000 		.4byte	.LVL318
 11718 0c6d DE000000 		.4byte	.LVL319
 11719 0c71 0100     		.2byte	0x1
 11720 0c73 54       		.byte	0x54
 11721 0c74 DE000000 		.4byte	.LVL319
 11722 0c78 FC000000 		.4byte	.LFE16
 11723 0c7c 0600     		.2byte	0x6
 11724 0c7e F3       		.byte	0xf3
 11725 0c7f 01       		.uleb128 0x1
 11726 0c80 50       		.byte	0x50
 11727 0c81 32       		.byte	0x32
 11728 0c82 1C       		.byte	0x1c
 11729 0c83 9F       		.byte	0x9f
 11730 0c84 00000000 		.4byte	0
 11731 0c88 00000000 		.4byte	0
 11732              	.LLST88:
 11733 0c8c 00000000 		.4byte	.LVL293
 11734 0c90 0F000000 		.4byte	.LVL296-1
 11735 0c94 0100     		.2byte	0x1
 11736 0c96 51       		.byte	0x51
 11737 0c97 0F000000 		.4byte	.LVL296-1
 11738 0c9b 44000000 		.4byte	.LVL302
 11739 0c9f 0100     		.2byte	0x1
 11740 0ca1 57       		.byte	0x57
 11741 0ca2 44000000 		.4byte	.LVL302
 11742 0ca6 48000000 		.4byte	.LVL303
 11743 0caa 0100     		.2byte	0x1
 11744 0cac 51       		.byte	0x51
 11745 0cad 48000000 		.4byte	.LVL303
 11746 0cb1 E2000000 		.4byte	.LVL321
 11747 0cb5 0100     		.2byte	0x1
 11748 0cb7 57       		.byte	0x57
 11749 0cb8 E2000000 		.4byte	.LVL321
 11750 0cbc FC000000 		.4byte	.LFE16
 11751 0cc0 0400     		.2byte	0x4
 11752 0cc2 F3       		.byte	0xf3
 11753 0cc3 01       		.uleb128 0x1
 11754 0cc4 51       		.byte	0x51
 11755 0cc5 9F       		.byte	0x9f
 11756 0cc6 00000000 		.4byte	0
 11757 0cca 00000000 		.4byte	0
 11758              	.LLST89:
 11759 0cce 06000000 		.4byte	.LVL294
 11760 0cd2 44000000 		.4byte	.LVL302
 11761 0cd6 0200     		.2byte	0x2
 11762 0cd8 32       		.byte	0x32
 11763 0cd9 9F       		.byte	0x9f
 11764 0cda 44000000 		.4byte	.LVL302
 11765 0cde D8000000 		.4byte	.LVL318
 11766 0ce2 0200     		.2byte	0x2
ARM GAS  C:\Users\TERENC~1\AppData\Local\Temp\cc9BPywF.s 			page 232


 11767 0ce4 33       		.byte	0x33
 11768 0ce5 9F       		.byte	0x9f
 11769 0ce6 D8000000 		.4byte	.LVL318
 11770 0cea DE000000 		.4byte	.LVL319
 11771 0cee 0200     		.2byte	0x2
 11772 0cf0 32       		.byte	0x32
 11773 0cf1 9F       		.byte	0x9f
 11774 0cf2 DE000000 		.4byte	.LVL319
 11775 0cf6 E0000000 		.4byte	.LVL320
 11776 0cfa 0200     		.2byte	0x2
 11777 0cfc 33       		.byte	0x33
 11778 0cfd 9F       		.byte	0x9f
 11779 0cfe 00000000 		.4byte	0
 11780 0d02 00000000 		.4byte	0
 11781              	.LLST90:
 11782 0d06 50000000 		.4byte	.LVL305
 11783 0d0a 54000000 		.4byte	.LVL307
 11784 0d0e 0200     		.2byte	0x2
 11785 0d10 30       		.byte	0x30
 11786 0d11 9F       		.byte	0x9f
 11787 0d12 54000000 		.4byte	.LVL307
 11788 0d16 AA000000 		.4byte	.LVL314
 11789 0d1a 0100     		.2byte	0x1
 11790 0d1c 54       		.byte	0x54
 11791 0d1d DE000000 		.4byte	.LVL319
 11792 0d21 E0000000 		.4byte	.LVL320
 11793 0d25 0100     		.2byte	0x1
 11794 0d27 54       		.byte	0x54
 11795 0d28 00000000 		.4byte	0
 11796 0d2c 00000000 		.4byte	0
 11797              	.LLST91:
 11798 0d30 50000000 		.4byte	.LVL305
 11799 0d34 D8000000 		.4byte	.LVL318
 11800 0d38 0100     		.2byte	0x1
 11801 0d3a 56       		.byte	0x56
 11802 0d3b DE000000 		.4byte	.LVL319
 11803 0d3f E0000000 		.4byte	.LVL320
 11804 0d43 0100     		.2byte	0x1
 11805 0d45 56       		.byte	0x56
 11806 0d46 00000000 		.4byte	0
 11807 0d4a 00000000 		.4byte	0
 11808              	.LLST92:
 11809 0d4e 18000000 		.4byte	.LVL297
 11810 0d52 2E000000 		.4byte	.LVL299
 11811 0d56 0100     		.2byte	0x1
 11812 0d58 55       		.byte	0x55
 11813 0d59 00000000 		.4byte	0
 11814 0d5d 00000000 		.4byte	0
 11815              	.LLST93:
 11816 0d61 92000000 		.4byte	.LVL312
 11817 0d65 D8000000 		.4byte	.LVL318
 11818 0d69 0100     		.2byte	0x1
 11819 0d6b 55       		.byte	0x55
 11820 0d6c 00000000 		.4byte	0
 11821 0d70 00000000 		.4byte	0
 11822              	.LLST94:
 11823 0d74 00000000 		.4byte	.LVL322
ARM GAS  C:\Users\TERENC~1\AppData\Local\Temp\cc9BPywF.s 			page 233


 11824 0d78 05000000 		.4byte	.LVL323-1
 11825 0d7c 0100     		.2byte	0x1
 11826 0d7e 50       		.byte	0x50
 11827 0d7f 05000000 		.4byte	.LVL323-1
 11828 0d83 4C000000 		.4byte	.LFE17
 11829 0d87 0400     		.2byte	0x4
 11830 0d89 F3       		.byte	0xf3
 11831 0d8a 01       		.uleb128 0x1
 11832 0d8b 50       		.byte	0x50
 11833 0d8c 9F       		.byte	0x9f
 11834 0d8d 00000000 		.4byte	0
 11835 0d91 00000000 		.4byte	0
 11836              	.LLST95:
 11837 0d95 00000000 		.4byte	.LVL322
 11838 0d99 05000000 		.4byte	.LVL323-1
 11839 0d9d 0100     		.2byte	0x1
 11840 0d9f 51       		.byte	0x51
 11841 0da0 05000000 		.4byte	.LVL323-1
 11842 0da4 4C000000 		.4byte	.LFE17
 11843 0da8 0400     		.2byte	0x4
 11844 0daa F3       		.byte	0xf3
 11845 0dab 01       		.uleb128 0x1
 11846 0dac 51       		.byte	0x51
 11847 0dad 9F       		.byte	0x9f
 11848 0dae 00000000 		.4byte	0
 11849 0db2 00000000 		.4byte	0
 11850              	.LLST96:
 11851 0db6 0E000000 		.4byte	.LVL324
 11852 0dba 2A000000 		.4byte	.LVL327
 11853 0dbe 0100     		.2byte	0x1
 11854 0dc0 54       		.byte	0x54
 11855 0dc1 00000000 		.4byte	0
 11856 0dc5 00000000 		.4byte	0
 11857              	.LLST97:
 11858 0dc9 00000000 		.4byte	.LVL330
 11859 0dcd 05000000 		.4byte	.LVL331-1
 11860 0dd1 0100     		.2byte	0x1
 11861 0dd3 50       		.byte	0x50
 11862 0dd4 05000000 		.4byte	.LVL331-1
 11863 0dd8 5C000000 		.4byte	.LFE18
 11864 0ddc 0400     		.2byte	0x4
 11865 0dde F3       		.byte	0xf3
 11866 0ddf 01       		.uleb128 0x1
 11867 0de0 50       		.byte	0x50
 11868 0de1 9F       		.byte	0x9f
 11869 0de2 00000000 		.4byte	0
 11870 0de6 00000000 		.4byte	0
 11871              	.LLST98:
 11872 0dea 00000000 		.4byte	.LVL330
 11873 0dee 05000000 		.4byte	.LVL331-1
 11874 0df2 0100     		.2byte	0x1
 11875 0df4 51       		.byte	0x51
 11876 0df5 05000000 		.4byte	.LVL331-1
 11877 0df9 5C000000 		.4byte	.LFE18
 11878 0dfd 0400     		.2byte	0x4
 11879 0dff F3       		.byte	0xf3
 11880 0e00 01       		.uleb128 0x1
ARM GAS  C:\Users\TERENC~1\AppData\Local\Temp\cc9BPywF.s 			page 234


 11881 0e01 51       		.byte	0x51
 11882 0e02 9F       		.byte	0x9f
 11883 0e03 00000000 		.4byte	0
 11884 0e07 00000000 		.4byte	0
 11885              	.LLST99:
 11886 0e0b 0E000000 		.4byte	.LVL332
 11887 0e0f 36000000 		.4byte	.LVL335
 11888 0e13 0100     		.2byte	0x1
 11889 0e15 54       		.byte	0x54
 11890 0e16 00000000 		.4byte	0
 11891 0e1a 00000000 		.4byte	0
 11892              	.LLST100:
 11893 0e1e 00000000 		.4byte	.LVL338
 11894 0e22 05000000 		.4byte	.LVL339-1
 11895 0e26 0100     		.2byte	0x1
 11896 0e28 50       		.byte	0x50
 11897 0e29 05000000 		.4byte	.LVL339-1
 11898 0e2d 0A000000 		.4byte	.LFE21
 11899 0e31 0400     		.2byte	0x4
 11900 0e33 F3       		.byte	0xf3
 11901 0e34 01       		.uleb128 0x1
 11902 0e35 50       		.byte	0x50
 11903 0e36 9F       		.byte	0x9f
 11904 0e37 00000000 		.4byte	0
 11905 0e3b 00000000 		.4byte	0
 11906              	.LLST101:
 11907 0e3f 00000000 		.4byte	.LVL338
 11908 0e43 05000000 		.4byte	.LVL339-1
 11909 0e47 0100     		.2byte	0x1
 11910 0e49 51       		.byte	0x51
 11911 0e4a 05000000 		.4byte	.LVL339-1
 11912 0e4e 0A000000 		.4byte	.LFE21
 11913 0e52 0400     		.2byte	0x4
 11914 0e54 F3       		.byte	0xf3
 11915 0e55 01       		.uleb128 0x1
 11916 0e56 51       		.byte	0x51
 11917 0e57 9F       		.byte	0x9f
 11918 0e58 00000000 		.4byte	0
 11919 0e5c 00000000 		.4byte	0
 11920              	.LLST102:
 11921 0e60 00000000 		.4byte	.LVL340
 11922 0e64 05000000 		.4byte	.LVL341-1
 11923 0e68 0100     		.2byte	0x1
 11924 0e6a 50       		.byte	0x50
 11925 0e6b 05000000 		.4byte	.LVL341-1
 11926 0e6f 4C000000 		.4byte	.LFE27
 11927 0e73 0400     		.2byte	0x4
 11928 0e75 F3       		.byte	0xf3
 11929 0e76 01       		.uleb128 0x1
 11930 0e77 50       		.byte	0x50
 11931 0e78 9F       		.byte	0x9f
 11932 0e79 00000000 		.4byte	0
 11933 0e7d 00000000 		.4byte	0
 11934              	.LLST103:
 11935 0e81 00000000 		.4byte	.LVL340
 11936 0e85 05000000 		.4byte	.LVL341-1
 11937 0e89 0100     		.2byte	0x1
ARM GAS  C:\Users\TERENC~1\AppData\Local\Temp\cc9BPywF.s 			page 235


 11938 0e8b 51       		.byte	0x51
 11939 0e8c 05000000 		.4byte	.LVL341-1
 11940 0e90 4C000000 		.4byte	.LFE27
 11941 0e94 0400     		.2byte	0x4
 11942 0e96 F3       		.byte	0xf3
 11943 0e97 01       		.uleb128 0x1
 11944 0e98 51       		.byte	0x51
 11945 0e99 9F       		.byte	0x9f
 11946 0e9a 00000000 		.4byte	0
 11947 0e9e 00000000 		.4byte	0
 11948              	.LLST104:
 11949 0ea2 0E000000 		.4byte	.LVL342
 11950 0ea6 2A000000 		.4byte	.LVL345
 11951 0eaa 0100     		.2byte	0x1
 11952 0eac 54       		.byte	0x54
 11953 0ead 00000000 		.4byte	0
 11954 0eb1 00000000 		.4byte	0
 11955              	.LLST105:
 11956 0eb5 00000000 		.4byte	.LVL348
 11957 0eb9 04000000 		.4byte	.LVL349
 11958 0ebd 0100     		.2byte	0x1
 11959 0ebf 50       		.byte	0x50
 11960 0ec0 04000000 		.4byte	.LVL349
 11961 0ec4 58000000 		.4byte	.LFE28
 11962 0ec8 0400     		.2byte	0x4
 11963 0eca F3       		.byte	0xf3
 11964 0ecb 01       		.uleb128 0x1
 11965 0ecc 50       		.byte	0x50
 11966 0ecd 9F       		.byte	0x9f
 11967 0ece 00000000 		.4byte	0
 11968 0ed2 00000000 		.4byte	0
 11969              	.LLST106:
 11970 0ed6 00000000 		.4byte	.LVL348
 11971 0eda 08000000 		.4byte	.LVL350
 11972 0ede 0100     		.2byte	0x1
 11973 0ee0 51       		.byte	0x51
 11974 0ee1 08000000 		.4byte	.LVL350
 11975 0ee5 58000000 		.4byte	.LFE28
 11976 0ee9 0400     		.2byte	0x4
 11977 0eeb F3       		.byte	0xf3
 11978 0eec 01       		.uleb128 0x1
 11979 0eed 51       		.byte	0x51
 11980 0eee 9F       		.byte	0x9f
 11981 0eef 00000000 		.4byte	0
 11982 0ef3 00000000 		.4byte	0
 11983              	.LLST107:
 11984 0ef7 1C000000 		.4byte	.LVL354
 11985 0efb 32000000 		.4byte	.LVL356
 11986 0eff 0100     		.2byte	0x1
 11987 0f01 54       		.byte	0x54
 11988 0f02 00000000 		.4byte	0
 11989 0f06 00000000 		.4byte	0
 11990              	.LLST108:
 11991 0f0a 00000000 		.4byte	.LVL359
 11992 0f0e 05000000 		.4byte	.LVL360-1
 11993 0f12 0100     		.2byte	0x1
 11994 0f14 50       		.byte	0x50
ARM GAS  C:\Users\TERENC~1\AppData\Local\Temp\cc9BPywF.s 			page 236


 11995 0f15 05000000 		.4byte	.LVL360-1
 11996 0f19 4C000000 		.4byte	.LFE29
 11997 0f1d 0400     		.2byte	0x4
 11998 0f1f F3       		.byte	0xf3
 11999 0f20 01       		.uleb128 0x1
 12000 0f21 50       		.byte	0x50
 12001 0f22 9F       		.byte	0x9f
 12002 0f23 00000000 		.4byte	0
 12003 0f27 00000000 		.4byte	0
 12004              	.LLST109:
 12005 0f2b 00000000 		.4byte	.LVL359
 12006 0f2f 05000000 		.4byte	.LVL360-1
 12007 0f33 0100     		.2byte	0x1
 12008 0f35 51       		.byte	0x51
 12009 0f36 05000000 		.4byte	.LVL360-1
 12010 0f3a 4C000000 		.4byte	.LFE29
 12011 0f3e 0400     		.2byte	0x4
 12012 0f40 F3       		.byte	0xf3
 12013 0f41 01       		.uleb128 0x1
 12014 0f42 51       		.byte	0x51
 12015 0f43 9F       		.byte	0x9f
 12016 0f44 00000000 		.4byte	0
 12017 0f48 00000000 		.4byte	0
 12018              	.LLST110:
 12019 0f4c 12000000 		.4byte	.LVL362
 12020 0f50 28000000 		.4byte	.LVL364
 12021 0f54 0100     		.2byte	0x1
 12022 0f56 54       		.byte	0x54
 12023 0f57 00000000 		.4byte	0
 12024 0f5b 00000000 		.4byte	0
 12025              	.LLST111:
 12026 0f5f 00000000 		.4byte	.LVL367
 12027 0f63 36000000 		.4byte	.LVL372
 12028 0f67 0100     		.2byte	0x1
 12029 0f69 50       		.byte	0x50
 12030 0f6a 36000000 		.4byte	.LVL372
 12031 0f6e 3C000000 		.4byte	.LVL375
 12032 0f72 0100     		.2byte	0x1
 12033 0f74 50       		.byte	0x50
 12034 0f75 00000000 		.4byte	0
 12035 0f79 00000000 		.4byte	0
 12036              	.LLST112:
 12037 0f7d 00000000 		.4byte	.LVL367
 12038 0f81 38000000 		.4byte	.LVL373
 12039 0f85 0100     		.2byte	0x1
 12040 0f87 51       		.byte	0x51
 12041 0f88 38000000 		.4byte	.LVL373
 12042 0f8c 44000000 		.4byte	.LFE2
 12043 0f90 0100     		.2byte	0x1
 12044 0f92 51       		.byte	0x51
 12045 0f93 00000000 		.4byte	0
 12046 0f97 00000000 		.4byte	0
 12047              	.LLST113:
 12048 0f9b 04000000 		.4byte	.LVL368
 12049 0f9f 3C000000 		.4byte	.LVL376
 12050 0fa3 0100     		.2byte	0x1
 12051 0fa5 55       		.byte	0x55
ARM GAS  C:\Users\TERENC~1\AppData\Local\Temp\cc9BPywF.s 			page 237


 12052 0fa6 00000000 		.4byte	0
 12053 0faa 00000000 		.4byte	0
 12054              	.LLST114:
 12055 0fae 1E000000 		.4byte	.LVL369
 12056 0fb2 2C000000 		.4byte	.LVL370
 12057 0fb6 0100     		.2byte	0x1
 12058 0fb8 53       		.byte	0x53
 12059 0fb9 2C000000 		.4byte	.LVL370
 12060 0fbd 38000000 		.4byte	.LVL373
 12061 0fc1 0200     		.2byte	0x2
 12062 0fc3 71       		.byte	0x71
 12063 0fc4 00       		.sleb128 0
 12064 0fc5 38000000 		.4byte	.LVL373
 12065 0fc9 3A000000 		.4byte	.LVL374
 12066 0fcd 0200     		.2byte	0x2
 12067 0fcf 71       		.byte	0x71
 12068 0fd0 7F       		.sleb128 -1
 12069 0fd1 3A000000 		.4byte	.LVL374
 12070 0fd5 44000000 		.4byte	.LFE2
 12071 0fd9 0200     		.2byte	0x2
 12072 0fdb 71       		.byte	0x71
 12073 0fdc 00       		.sleb128 0
 12074 0fdd 00000000 		.4byte	0
 12075 0fe1 00000000 		.4byte	0
 12076              	.LLST115:
 12077 0fe5 00000000 		.4byte	.LVL377
 12078 0fe9 06000000 		.4byte	.LVL379
 12079 0fed 0100     		.2byte	0x1
 12080 0fef 50       		.byte	0x50
 12081 0ff0 06000000 		.4byte	.LVL379
 12082 0ff4 44000000 		.4byte	.LVL387
 12083 0ff8 0100     		.2byte	0x1
 12084 0ffa 54       		.byte	0x54
 12085 0ffb 44000000 		.4byte	.LVL387
 12086 0fff 48000000 		.4byte	.LVL389
 12087 1003 0300     		.2byte	0x3
 12088 1005 70       		.byte	0x70
 12089 1006 7E       		.sleb128 -2
 12090 1007 9F       		.byte	0x9f
 12091 1008 48000000 		.4byte	.LVL389
 12092 100c 02010000 		.4byte	.LVL416
 12093 1010 0600     		.2byte	0x6
 12094 1012 F3       		.byte	0xf3
 12095 1013 01       		.uleb128 0x1
 12096 1014 50       		.byte	0x50
 12097 1015 32       		.byte	0x32
 12098 1016 1C       		.byte	0x1c
 12099 1017 9F       		.byte	0x9f
 12100 1018 02010000 		.4byte	.LVL416
 12101 101c 08010000 		.4byte	.LVL417
 12102 1020 0100     		.2byte	0x1
 12103 1022 54       		.byte	0x54
 12104 1023 08010000 		.4byte	.LVL417
 12105 1027 38010000 		.4byte	.LFE23
 12106 102b 0600     		.2byte	0x6
 12107 102d F3       		.byte	0xf3
 12108 102e 01       		.uleb128 0x1
ARM GAS  C:\Users\TERENC~1\AppData\Local\Temp\cc9BPywF.s 			page 238


 12109 102f 50       		.byte	0x50
 12110 1030 32       		.byte	0x32
 12111 1031 1C       		.byte	0x1c
 12112 1032 9F       		.byte	0x9f
 12113 1033 00000000 		.4byte	0
 12114 1037 00000000 		.4byte	0
 12115              	.LLST116:
 12116 103b 00000000 		.4byte	.LVL377
 12117 103f 0D000000 		.4byte	.LVL380-1
 12118 1043 0100     		.2byte	0x1
 12119 1045 51       		.byte	0x51
 12120 1046 0D000000 		.4byte	.LVL380-1
 12121 104a 16000000 		.4byte	.LVL381
 12122 104e 0100     		.2byte	0x1
 12123 1050 55       		.byte	0x55
 12124 1051 16000000 		.4byte	.LVL381
 12125 1055 42000000 		.4byte	.LVL386
 12126 1059 0400     		.2byte	0x4
 12127 105b F3       		.byte	0xf3
 12128 105c 01       		.uleb128 0x1
 12129 105d 51       		.byte	0x51
 12130 105e 9F       		.byte	0x9f
 12131 105f 42000000 		.4byte	.LVL386
 12132 1063 46000000 		.4byte	.LVL388
 12133 1067 0100     		.2byte	0x1
 12134 1069 51       		.byte	0x51
 12135 106a 46000000 		.4byte	.LVL388
 12136 106e 10010000 		.4byte	.LVL419
 12137 1072 0100     		.2byte	0x1
 12138 1074 55       		.byte	0x55
 12139 1075 10010000 		.4byte	.LVL419
 12140 1079 38010000 		.4byte	.LFE23
 12141 107d 0400     		.2byte	0x4
 12142 107f F3       		.byte	0xf3
 12143 1080 01       		.uleb128 0x1
 12144 1081 51       		.byte	0x51
 12145 1082 9F       		.byte	0x9f
 12146 1083 00000000 		.4byte	0
 12147 1087 00000000 		.4byte	0
 12148              	.LLST117:
 12149 108b 04000000 		.4byte	.LVL378
 12150 108f AA000000 		.4byte	.LVL399
 12151 1093 0200     		.2byte	0x2
 12152 1095 33       		.byte	0x33
 12153 1096 9F       		.byte	0x9f
 12154 1097 AA000000 		.4byte	.LVL399
 12155 109b D8000000 		.4byte	.LVL411
 12156 109f 0100     		.2byte	0x1
 12157 10a1 54       		.byte	0x54
 12158 10a2 02010000 		.4byte	.LVL416
 12159 10a6 0E010000 		.4byte	.LVL418
 12160 10aa 0200     		.2byte	0x2
 12161 10ac 33       		.byte	0x33
 12162 10ad 9F       		.byte	0x9f
 12163 10ae 0E010000 		.4byte	.LVL418
 12164 10b2 10010000 		.4byte	.LVL419
 12165 10b6 0100     		.2byte	0x1
ARM GAS  C:\Users\TERENC~1\AppData\Local\Temp\cc9BPywF.s 			page 239


 12166 10b8 54       		.byte	0x54
 12167 10b9 00000000 		.4byte	0
 12168 10bd 00000000 		.4byte	0
 12169              	.LLST118:
 12170 10c1 B2000000 		.4byte	.LVL401
 12171 10c5 B4000000 		.4byte	.LVL402
 12172 10c9 0100     		.2byte	0x1
 12173 10cb 50       		.byte	0x50
 12174 10cc B4000000 		.4byte	.LVL402
 12175 10d0 02010000 		.4byte	.LVL416
 12176 10d4 0100     		.2byte	0x1
 12177 10d6 56       		.byte	0x56
 12178 10d7 0E010000 		.4byte	.LVL418
 12179 10db 10010000 		.4byte	.LVL419
 12180 10df 0100     		.2byte	0x1
 12181 10e1 56       		.byte	0x56
 12182 10e2 00000000 		.4byte	0
 12183 10e6 00000000 		.4byte	0
 12184              	.LLST119:
 12185 10ea BA000000 		.4byte	.LVL404
 12186 10ee BC000000 		.4byte	.LVL405
 12187 10f2 0100     		.2byte	0x1
 12188 10f4 50       		.byte	0x50
 12189 10f5 BC000000 		.4byte	.LVL405
 12190 10f9 02010000 		.4byte	.LVL416
 12191 10fd 0100     		.2byte	0x1
 12192 10ff 57       		.byte	0x57
 12193 1100 0E010000 		.4byte	.LVL418
 12194 1104 10010000 		.4byte	.LVL419
 12195 1108 0100     		.2byte	0x1
 12196 110a 57       		.byte	0x57
 12197 110b 00000000 		.4byte	0
 12198 110f 00000000 		.4byte	0
 12199              	.LLST120:
 12200 1113 C2000000 		.4byte	.LVL407
 12201 1117 C8000000 		.4byte	.LVL408
 12202 111b 0100     		.2byte	0x1
 12203 111d 50       		.byte	0x50
 12204 111e C8000000 		.4byte	.LVL408
 12205 1122 CB000000 		.4byte	.LVL409-1
 12206 1126 0100     		.2byte	0x1
 12207 1128 53       		.byte	0x53
 12208 1129 00000000 		.4byte	0
 12209 112d 00000000 		.4byte	0
 12210              	.LLST121:
 12211 1131 16000000 		.4byte	.LVL381
 12212 1135 2C000000 		.4byte	.LVL383
 12213 1139 0100     		.2byte	0x1
 12214 113b 55       		.byte	0x55
 12215 113c 00000000 		.4byte	0
 12216 1140 00000000 		.4byte	0
 12217              	.LLST122:
 12218 1144 74000000 		.4byte	.LVL394
 12219 1148 8C000000 		.4byte	.LVL396
 12220 114c 0100     		.2byte	0x1
 12221 114e 54       		.byte	0x54
 12222 114f 00000000 		.4byte	0
ARM GAS  C:\Users\TERENC~1\AppData\Local\Temp\cc9BPywF.s 			page 240


 12223 1153 00000000 		.4byte	0
 12224              	.LLST123:
 12225 1157 D8000000 		.4byte	.LVL411
 12226 115b EE000000 		.4byte	.LVL413
 12227 115f 0100     		.2byte	0x1
 12228 1161 54       		.byte	0x54
 12229 1162 00000000 		.4byte	0
 12230 1166 00000000 		.4byte	0
 12231              	.LLST124:
 12232 116a 00000000 		.4byte	.LVL420
 12233 116e 06000000 		.4byte	.LVL422
 12234 1172 0100     		.2byte	0x1
 12235 1174 50       		.byte	0x50
 12236 1175 06000000 		.4byte	.LVL422
 12237 1179 44000000 		.4byte	.LVL430
 12238 117d 0100     		.2byte	0x1
 12239 117f 54       		.byte	0x54
 12240 1180 44000000 		.4byte	.LVL430
 12241 1184 48000000 		.4byte	.LVL432
 12242 1188 0300     		.2byte	0x3
 12243 118a 70       		.byte	0x70
 12244 118b 7E       		.sleb128 -2
 12245 118c 9F       		.byte	0x9f
 12246 118d 48000000 		.4byte	.LVL432
 12247 1191 E4000000 		.4byte	.LVL450
 12248 1195 0600     		.2byte	0x6
 12249 1197 F3       		.byte	0xf3
 12250 1198 01       		.uleb128 0x1
 12251 1199 50       		.byte	0x50
 12252 119a 32       		.byte	0x32
 12253 119b 1C       		.byte	0x1c
 12254 119c 9F       		.byte	0x9f
 12255 119d E4000000 		.4byte	.LVL450
 12256 11a1 EA000000 		.4byte	.LVL451
 12257 11a5 0100     		.2byte	0x1
 12258 11a7 54       		.byte	0x54
 12259 11a8 EA000000 		.4byte	.LVL451
 12260 11ac 18010000 		.4byte	.LFE24
 12261 11b0 0600     		.2byte	0x6
 12262 11b2 F3       		.byte	0xf3
 12263 11b3 01       		.uleb128 0x1
 12264 11b4 50       		.byte	0x50
 12265 11b5 32       		.byte	0x32
 12266 11b6 1C       		.byte	0x1c
 12267 11b7 9F       		.byte	0x9f
 12268 11b8 00000000 		.4byte	0
 12269 11bc 00000000 		.4byte	0
 12270              	.LLST125:
 12271 11c0 00000000 		.4byte	.LVL420
 12272 11c4 0D000000 		.4byte	.LVL423-1
 12273 11c8 0100     		.2byte	0x1
 12274 11ca 51       		.byte	0x51
 12275 11cb 0D000000 		.4byte	.LVL423-1
 12276 11cf 16000000 		.4byte	.LVL424
 12277 11d3 0100     		.2byte	0x1
 12278 11d5 55       		.byte	0x55
 12279 11d6 16000000 		.4byte	.LVL424
ARM GAS  C:\Users\TERENC~1\AppData\Local\Temp\cc9BPywF.s 			page 241


 12280 11da 42000000 		.4byte	.LVL429
 12281 11de 0400     		.2byte	0x4
 12282 11e0 F3       		.byte	0xf3
 12283 11e1 01       		.uleb128 0x1
 12284 11e2 51       		.byte	0x51
 12285 11e3 9F       		.byte	0x9f
 12286 11e4 42000000 		.4byte	.LVL429
 12287 11e8 46000000 		.4byte	.LVL431
 12288 11ec 0100     		.2byte	0x1
 12289 11ee 51       		.byte	0x51
 12290 11ef 46000000 		.4byte	.LVL431
 12291 11f3 F2000000 		.4byte	.LVL453
 12292 11f7 0100     		.2byte	0x1
 12293 11f9 55       		.byte	0x55
 12294 11fa F2000000 		.4byte	.LVL453
 12295 11fe 18010000 		.4byte	.LFE24
 12296 1202 0400     		.2byte	0x4
 12297 1204 F3       		.byte	0xf3
 12298 1205 01       		.uleb128 0x1
 12299 1206 51       		.byte	0x51
 12300 1207 9F       		.byte	0x9f
 12301 1208 00000000 		.4byte	0
 12302 120c 00000000 		.4byte	0
 12303              	.LLST126:
 12304 1210 04000000 		.4byte	.LVL421
 12305 1214 AA000000 		.4byte	.LVL442
 12306 1218 0200     		.2byte	0x2
 12307 121a 33       		.byte	0x33
 12308 121b 9F       		.byte	0x9f
 12309 121c AA000000 		.4byte	.LVL442
 12310 1220 AD000000 		.4byte	.LVL443-1
 12311 1224 0100     		.2byte	0x1
 12312 1226 50       		.byte	0x50
 12313 1227 E4000000 		.4byte	.LVL450
 12314 122b F0000000 		.4byte	.LVL452
 12315 122f 0200     		.2byte	0x2
 12316 1231 33       		.byte	0x33
 12317 1232 9F       		.byte	0x9f
 12318 1233 00000000 		.4byte	0
 12319 1237 00000000 		.4byte	0
 12320              	.LLST127:
 12321 123b 16000000 		.4byte	.LVL424
 12322 123f 2C000000 		.4byte	.LVL426
 12323 1243 0100     		.2byte	0x1
 12324 1245 55       		.byte	0x55
 12325 1246 00000000 		.4byte	0
 12326 124a 00000000 		.4byte	0
 12327              	.LLST128:
 12328 124e 74000000 		.4byte	.LVL437
 12329 1252 8C000000 		.4byte	.LVL439
 12330 1256 0100     		.2byte	0x1
 12331 1258 54       		.byte	0x54
 12332 1259 00000000 		.4byte	0
 12333 125d 00000000 		.4byte	0
 12334              	.LLST129:
 12335 1261 BA000000 		.4byte	.LVL445
 12336 1265 D0000000 		.4byte	.LVL447
ARM GAS  C:\Users\TERENC~1\AppData\Local\Temp\cc9BPywF.s 			page 242


 12337 1269 0100     		.2byte	0x1
 12338 126b 54       		.byte	0x54
 12339 126c 00000000 		.4byte	0
 12340 1270 00000000 		.4byte	0
 12341              	.LLST130:
 12342 1274 00000000 		.4byte	.LVL454
 12343 1278 04000000 		.4byte	.LVL455
 12344 127c 0100     		.2byte	0x1
 12345 127e 50       		.byte	0x50
 12346 127f 04000000 		.4byte	.LVL455
 12347 1283 0B000000 		.4byte	.LVL456-1
 12348 1287 0300     		.2byte	0x3
 12349 1289 70       		.byte	0x70
 12350 128a 7E       		.sleb128 -2
 12351 128b 9F       		.byte	0x9f
 12352 128c 0B000000 		.4byte	.LVL456-1
 12353 1290 40000000 		.4byte	.LVL462
 12354 1294 0600     		.2byte	0x6
 12355 1296 F3       		.byte	0xf3
 12356 1297 01       		.uleb128 0x1
 12357 1298 50       		.byte	0x50
 12358 1299 32       		.byte	0x32
 12359 129a 1C       		.byte	0x1c
 12360 129b 9F       		.byte	0x9f
 12361 129c 40000000 		.4byte	.LVL462
 12362 12a0 46000000 		.4byte	.LVL464
 12363 12a4 0300     		.2byte	0x3
 12364 12a6 70       		.byte	0x70
 12365 12a7 7E       		.sleb128 -2
 12366 12a8 9F       		.byte	0x9f
 12367 12a9 46000000 		.4byte	.LVL464
 12368 12ad C0000000 		.4byte	.LFE26
 12369 12b1 0600     		.2byte	0x6
 12370 12b3 F3       		.byte	0xf3
 12371 12b4 01       		.uleb128 0x1
 12372 12b5 50       		.byte	0x50
 12373 12b6 32       		.byte	0x32
 12374 12b7 1C       		.byte	0x1c
 12375 12b8 9F       		.byte	0x9f
 12376 12b9 00000000 		.4byte	0
 12377 12bd 00000000 		.4byte	0
 12378              	.LLST131:
 12379 12c1 00000000 		.4byte	.LVL454
 12380 12c5 0B000000 		.4byte	.LVL456-1
 12381 12c9 0100     		.2byte	0x1
 12382 12cb 51       		.byte	0x51
 12383 12cc 0B000000 		.4byte	.LVL456-1
 12384 12d0 40000000 		.4byte	.LVL462
 12385 12d4 0100     		.2byte	0x1
 12386 12d6 55       		.byte	0x55
 12387 12d7 40000000 		.4byte	.LVL462
 12388 12db 44000000 		.4byte	.LVL463
 12389 12df 0100     		.2byte	0x1
 12390 12e1 51       		.byte	0x51
 12391 12e2 44000000 		.4byte	.LVL463
 12392 12e6 9E000000 		.4byte	.LVL478
 12393 12ea 0100     		.2byte	0x1
ARM GAS  C:\Users\TERENC~1\AppData\Local\Temp\cc9BPywF.s 			page 243


 12394 12ec 55       		.byte	0x55
 12395 12ed 9E000000 		.4byte	.LVL478
 12396 12f1 C0000000 		.4byte	.LFE26
 12397 12f5 0400     		.2byte	0x4
 12398 12f7 F3       		.byte	0xf3
 12399 12f8 01       		.uleb128 0x1
 12400 12f9 51       		.byte	0x51
 12401 12fa 9F       		.byte	0x9f
 12402 12fb 00000000 		.4byte	0
 12403 12ff 00000000 		.4byte	0
 12404              	.LLST132:
 12405 1303 04000000 		.4byte	.LVL455
 12406 1307 52000000 		.4byte	.LVL466
 12407 130b 0200     		.2byte	0x2
 12408 130d 32       		.byte	0x32
 12409 130e 9F       		.byte	0x9f
 12410 130f 52000000 		.4byte	.LVL466
 12411 1313 5C000000 		.4byte	.LVL468
 12412 1317 0200     		.2byte	0x2
 12413 1319 33       		.byte	0x33
 12414 131a 9F       		.byte	0x9f
 12415 131b 5C000000 		.4byte	.LVL468
 12416 131f 6C000000 		.4byte	.LVL470
 12417 1323 0200     		.2byte	0x2
 12418 1325 32       		.byte	0x32
 12419 1326 9F       		.byte	0x9f
 12420 1327 6C000000 		.4byte	.LVL470
 12421 132b 76000000 		.4byte	.LVL472
 12422 132f 0200     		.2byte	0x2
 12423 1331 33       		.byte	0x33
 12424 1332 9F       		.byte	0x9f
 12425 1333 76000000 		.4byte	.LVL472
 12426 1337 86000000 		.4byte	.LVL474
 12427 133b 0200     		.2byte	0x2
 12428 133d 32       		.byte	0x32
 12429 133e 9F       		.byte	0x9f
 12430 133f 86000000 		.4byte	.LVL474
 12431 1343 94000000 		.4byte	.LVL476
 12432 1347 0200     		.2byte	0x2
 12433 1349 33       		.byte	0x33
 12434 134a 9F       		.byte	0x9f
 12435 134b 94000000 		.4byte	.LVL476
 12436 134f 9C000000 		.4byte	.LVL477
 12437 1353 0200     		.2byte	0x2
 12438 1355 32       		.byte	0x32
 12439 1356 9F       		.byte	0x9f
 12440 1357 00000000 		.4byte	0
 12441 135b 00000000 		.4byte	0
 12442              	.LLST133:
 12443 135f 14000000 		.4byte	.LVL457
 12444 1363 2A000000 		.4byte	.LVL459
 12445 1367 0100     		.2byte	0x1
 12446 1369 54       		.byte	0x54
 12447 136a 00000000 		.4byte	0
 12448 136e 00000000 		.4byte	0
 12449              	.LLST134:
 12450 1372 0E000000 		.4byte	.LVL479
ARM GAS  C:\Users\TERENC~1\AppData\Local\Temp\cc9BPywF.s 			page 244


 12451 1376 A8000000 		.4byte	.LVL493
 12452 137a 0300     		.2byte	0x3
 12453 137c 09       		.byte	0x9
 12454 137d FF       		.byte	0xff
 12455 137e 9F       		.byte	0x9f
 12456 137f A8000000 		.4byte	.LVL493
 12457 1383 D0000000 		.4byte	.LVL497
 12458 1387 0300     		.2byte	0x3
 12459 1389 91       		.byte	0x91
 12460 138a AC7F     		.sleb128 -84
 12461 138c D0000000 		.4byte	.LVL497
 12462 1390 D6000000 		.4byte	.LVL498
 12463 1394 0100     		.2byte	0x1
 12464 1396 50       		.byte	0x50
 12465 1397 D6000000 		.4byte	.LVL498
 12466 139b 3A020000 		.4byte	.LVL535
 12467 139f 0300     		.2byte	0x3
 12468 13a1 91       		.byte	0x91
 12469 13a2 AC7F     		.sleb128 -84
 12470 13a4 3A020000 		.4byte	.LVL535
 12471 13a8 48020000 		.4byte	.LVL537
 12472 13ac 0300     		.2byte	0x3
 12473 13ae 09       		.byte	0x9
 12474 13af FF       		.byte	0xff
 12475 13b0 9F       		.byte	0x9f
 12476 13b1 48020000 		.4byte	.LVL537
 12477 13b5 9A020000 		.4byte	.LVL545
 12478 13b9 0300     		.2byte	0x3
 12479 13bb 91       		.byte	0x91
 12480 13bc AC7F     		.sleb128 -84
 12481 13be 9A020000 		.4byte	.LVL545
 12482 13c2 A0020000 		.4byte	.LVL546
 12483 13c6 0300     		.2byte	0x3
 12484 13c8 09       		.byte	0x9
 12485 13c9 FF       		.byte	0xff
 12486 13ca 9F       		.byte	0x9f
 12487 13cb A0020000 		.4byte	.LVL546
 12488 13cf A6020000 		.4byte	.LVL547
 12489 13d3 0300     		.2byte	0x3
 12490 13d5 91       		.byte	0x91
 12491 13d6 AC7F     		.sleb128 -84
 12492 13d8 00000000 		.4byte	0
 12493 13dc 00000000 		.4byte	0
 12494              	.LLST135:
 12495 13e0 0E000000 		.4byte	.LVL479
 12496 13e4 16000000 		.4byte	.LVL480
 12497 13e8 0600     		.2byte	0x6
 12498 13ea 03       		.byte	0x3
 12499 13eb 00000000 		.4byte	cmd_buf
 12500 13ef 9F       		.byte	0x9f
 12501 13f0 16000000 		.4byte	.LVL480
 12502 13f4 5F000000 		.4byte	.LVL484-1
 12503 13f8 0100     		.2byte	0x1
 12504 13fa 52       		.byte	0x52
 12505 13fb 96000000 		.4byte	.LVL490
 12506 13ff A8000000 		.4byte	.LVL493
 12507 1403 0100     		.2byte	0x1
ARM GAS  C:\Users\TERENC~1\AppData\Local\Temp\cc9BPywF.s 			page 245


 12508 1405 52       		.byte	0x52
 12509 1406 3A020000 		.4byte	.LVL535
 12510 140a 48020000 		.4byte	.LVL537
 12511 140e 0100     		.2byte	0x1
 12512 1410 52       		.byte	0x52
 12513 1411 00000000 		.4byte	0
 12514 1415 00000000 		.4byte	0
 12515              	.LLST136:
 12516 1419 0E000000 		.4byte	.LVL479
 12517 141d A8000000 		.4byte	.LVL493
 12518 1421 0200     		.2byte	0x2
 12519 1423 30       		.byte	0x30
 12520 1424 9F       		.byte	0x9f
 12521 1425 A8000000 		.4byte	.LVL493
 12522 1429 D0000000 		.4byte	.LVL497
 12523 142d 0100     		.2byte	0x1
 12524 142f 5A       		.byte	0x5a
 12525 1430 D0000000 		.4byte	.LVL497
 12526 1434 D6000000 		.4byte	.LVL498
 12527 1438 0200     		.2byte	0x2
 12528 143a 31       		.byte	0x31
 12529 143b 9F       		.byte	0x9f
 12530 143c D6000000 		.4byte	.LVL498
 12531 1440 E2000000 		.4byte	.LVL500
 12532 1444 0100     		.2byte	0x1
 12533 1446 5A       		.byte	0x5a
 12534 1447 E2000000 		.4byte	.LVL500
 12535 144b 74010000 		.4byte	.LVL514
 12536 144f 0200     		.2byte	0x2
 12537 1451 31       		.byte	0x31
 12538 1452 9F       		.byte	0x9f
 12539 1453 74010000 		.4byte	.LVL514
 12540 1457 AA010000 		.4byte	.LVL518
 12541 145b 0100     		.2byte	0x1
 12542 145d 5A       		.byte	0x5a
 12543 145e AA010000 		.4byte	.LVL518
 12544 1462 36020000 		.4byte	.LVL533
 12545 1466 0200     		.2byte	0x2
 12546 1468 31       		.byte	0x31
 12547 1469 9F       		.byte	0x9f
 12548 146a 36020000 		.4byte	.LVL533
 12549 146e 3A020000 		.4byte	.LVL535
 12550 1472 0100     		.2byte	0x1
 12551 1474 5A       		.byte	0x5a
 12552 1475 3A020000 		.4byte	.LVL535
 12553 1479 48020000 		.4byte	.LVL537
 12554 147d 0200     		.2byte	0x2
 12555 147f 30       		.byte	0x30
 12556 1480 9F       		.byte	0x9f
 12557 1481 48020000 		.4byte	.LVL537
 12558 1485 9A020000 		.4byte	.LVL545
 12559 1489 0100     		.2byte	0x1
 12560 148b 5A       		.byte	0x5a
 12561 148c 9A020000 		.4byte	.LVL545
 12562 1490 A0020000 		.4byte	.LVL546
 12563 1494 0200     		.2byte	0x2
 12564 1496 30       		.byte	0x30
ARM GAS  C:\Users\TERENC~1\AppData\Local\Temp\cc9BPywF.s 			page 246


 12565 1497 9F       		.byte	0x9f
 12566 1498 A0020000 		.4byte	.LVL546
 12567 149c A6020000 		.4byte	.LVL547
 12568 14a0 0100     		.2byte	0x1
 12569 14a2 5A       		.byte	0x5a
 12570 14a3 00000000 		.4byte	0
 12571 14a7 00000000 		.4byte	0
 12572              	.LLST137:
 12573 14ab 0E000000 		.4byte	.LVL479
 12574 14af 16000000 		.4byte	.LVL480
 12575 14b3 0200     		.2byte	0x2
 12576 14b5 30       		.byte	0x30
 12577 14b6 9F       		.byte	0x9f
 12578 14b7 16000000 		.4byte	.LVL480
 12579 14bb 9E000000 		.4byte	.LVL491
 12580 14bf 0100     		.2byte	0x1
 12581 14c1 59       		.byte	0x59
 12582 14c2 9E000000 		.4byte	.LVL491
 12583 14c6 A0000000 		.4byte	.LVL492
 12584 14ca 0100     		.2byte	0x1
 12585 14cc 53       		.byte	0x53
 12586 14cd A0000000 		.4byte	.LVL492
 12587 14d1 3A020000 		.4byte	.LVL535
 12588 14d5 0100     		.2byte	0x1
 12589 14d7 59       		.byte	0x59
 12590 14d8 3A020000 		.4byte	.LVL535
 12591 14dc 3C020000 		.4byte	.LVL536
 12592 14e0 0100     		.2byte	0x1
 12593 14e2 53       		.byte	0x53
 12594 14e3 3C020000 		.4byte	.LVL536
 12595 14e7 A8020000 		.4byte	.LVL548
 12596 14eb 0100     		.2byte	0x1
 12597 14ed 59       		.byte	0x59
 12598 14ee 00000000 		.4byte	0
 12599 14f2 00000000 		.4byte	0
 12600              	.LLST138:
 12601 14f6 0E000000 		.4byte	.LVL479
 12602 14fa A8000000 		.4byte	.LVL493
 12603 14fe 0200     		.2byte	0x2
 12604 1500 30       		.byte	0x30
 12605 1501 9F       		.byte	0x9f
 12606 1502 A8000000 		.4byte	.LVL493
 12607 1506 DE010000 		.4byte	.LVL525
 12608 150a 0100     		.2byte	0x1
 12609 150c 56       		.byte	0x56
 12610 150d 36020000 		.4byte	.LVL533
 12611 1511 3A020000 		.4byte	.LVL535
 12612 1515 0100     		.2byte	0x1
 12613 1517 56       		.byte	0x56
 12614 1518 3A020000 		.4byte	.LVL535
 12615 151c 48020000 		.4byte	.LVL537
 12616 1520 0200     		.2byte	0x2
 12617 1522 30       		.byte	0x30
 12618 1523 9F       		.byte	0x9f
 12619 1524 48020000 		.4byte	.LVL537
 12620 1528 5E020000 		.4byte	.LVL538
 12621 152c 0100     		.2byte	0x1
ARM GAS  C:\Users\TERENC~1\AppData\Local\Temp\cc9BPywF.s 			page 247


 12622 152e 56       		.byte	0x56
 12623 152f 9A020000 		.4byte	.LVL545
 12624 1533 A0020000 		.4byte	.LVL546
 12625 1537 0200     		.2byte	0x2
 12626 1539 30       		.byte	0x30
 12627 153a 9F       		.byte	0x9f
 12628 153b 00000000 		.4byte	0
 12629 153f 00000000 		.4byte	0
 12630              	.LLST139:
 12631 1543 0E000000 		.4byte	.LVL479
 12632 1547 A8000000 		.4byte	.LVL493
 12633 154b 0200     		.2byte	0x2
 12634 154d 30       		.byte	0x30
 12635 154e 9F       		.byte	0x9f
 12636 154f A8000000 		.4byte	.LVL493
 12637 1553 3A020000 		.4byte	.LVL535
 12638 1557 0100     		.2byte	0x1
 12639 1559 54       		.byte	0x54
 12640 155a 3A020000 		.4byte	.LVL535
 12641 155e 48020000 		.4byte	.LVL537
 12642 1562 0200     		.2byte	0x2
 12643 1564 30       		.byte	0x30
 12644 1565 9F       		.byte	0x9f
 12645 1566 48020000 		.4byte	.LVL537
 12646 156a 5E020000 		.4byte	.LVL538
 12647 156e 0100     		.2byte	0x1
 12648 1570 54       		.byte	0x54
 12649 1571 9A020000 		.4byte	.LVL545
 12650 1575 A0020000 		.4byte	.LVL546
 12651 1579 0200     		.2byte	0x2
 12652 157b 30       		.byte	0x30
 12653 157c 9F       		.byte	0x9f
 12654 157d 00000000 		.4byte	0
 12655 1581 00000000 		.4byte	0
 12656              	.LLST140:
 12657 1585 0E000000 		.4byte	.LVL479
 12658 1589 A8000000 		.4byte	.LVL493
 12659 158d 0200     		.2byte	0x2
 12660 158f 30       		.byte	0x30
 12661 1590 9F       		.byte	0x9f
 12662 1591 A8000000 		.4byte	.LVL493
 12663 1595 3A020000 		.4byte	.LVL535
 12664 1599 0100     		.2byte	0x1
 12665 159b 58       		.byte	0x58
 12666 159c 3A020000 		.4byte	.LVL535
 12667 15a0 48020000 		.4byte	.LVL537
 12668 15a4 0200     		.2byte	0x2
 12669 15a6 30       		.byte	0x30
 12670 15a7 9F       		.byte	0x9f
 12671 15a8 48020000 		.4byte	.LVL537
 12672 15ac 5E020000 		.4byte	.LVL538
 12673 15b0 0100     		.2byte	0x1
 12674 15b2 58       		.byte	0x58
 12675 15b3 9A020000 		.4byte	.LVL545
 12676 15b7 A0020000 		.4byte	.LVL546
 12677 15bb 0200     		.2byte	0x2
 12678 15bd 30       		.byte	0x30
ARM GAS  C:\Users\TERENC~1\AppData\Local\Temp\cc9BPywF.s 			page 248


 12679 15be 9F       		.byte	0x9f
 12680 15bf 00000000 		.4byte	0
 12681 15c3 00000000 		.4byte	0
 12682              	.LLST141:
 12683 15c7 6A000000 		.4byte	.LVL485
 12684 15cb 80000000 		.4byte	.LVL487
 12685 15cf 0100     		.2byte	0x1
 12686 15d1 54       		.byte	0x54
 12687 15d2 00000000 		.4byte	0
 12688 15d6 00000000 		.4byte	0
 12689              	.LLST142:
 12690 15da EE000000 		.4byte	.LVL502
 12691 15de 04010000 		.4byte	.LVL504
 12692 15e2 0100     		.2byte	0x1
 12693 15e4 55       		.byte	0x55
 12694 15e5 00000000 		.4byte	0
 12695 15e9 00000000 		.4byte	0
 12696              	.LLST143:
 12697 15ed 22010000 		.4byte	.LVL508
 12698 15f1 3C010000 		.4byte	.LVL510
 12699 15f5 0100     		.2byte	0x1
 12700 15f7 55       		.byte	0x55
 12701 15f8 00000000 		.4byte	0
 12702 15fc 00000000 		.4byte	0
 12703              	.LLST144:
 12704 1600 B6010000 		.4byte	.LVL520
 12705 1604 CC010000 		.4byte	.LVL522
 12706 1608 0100     		.2byte	0x1
 12707 160a 55       		.byte	0x55
 12708 160b 00000000 		.4byte	0
 12709 160f 00000000 		.4byte	0
 12710              	.LLST145:
 12711 1613 EA010000 		.4byte	.LVL527
 12712 1617 0C020000 		.4byte	.LVL529
 12713 161b 0100     		.2byte	0x1
 12714 161d 55       		.byte	0x55
 12715 161e 00000000 		.4byte	0
 12716 1622 00000000 		.4byte	0
 12717              	.LLST146:
 12718 1626 70020000 		.4byte	.LVL540
 12719 162a 86020000 		.4byte	.LVL542
 12720 162e 0100     		.2byte	0x1
 12721 1630 54       		.byte	0x54
 12722 1631 00000000 		.4byte	0
 12723 1635 00000000 		.4byte	0
 12724              	.LLST147:
 12725 1639 10000000 		.4byte	.LVL553
 12726 163d 7A000000 		.4byte	.LVL564
 12727 1641 0100     		.2byte	0x1
 12728 1643 56       		.byte	0x56
 12729 1644 AC000000 		.4byte	.LVL569
 12730 1648 CE000000 		.4byte	.LVL571
 12731 164c 0100     		.2byte	0x1
 12732 164e 56       		.byte	0x56
 12733 164f F6000000 		.4byte	.LVL576
 12734 1653 3A010000 		.4byte	.LVL583
 12735 1657 0100     		.2byte	0x1
ARM GAS  C:\Users\TERENC~1\AppData\Local\Temp\cc9BPywF.s 			page 249


 12736 1659 56       		.byte	0x56
 12737 165a 3E010000 		.4byte	.LVL584
 12738 165e 4C010000 		.4byte	.LVL587
 12739 1662 0100     		.2byte	0x1
 12740 1664 56       		.byte	0x56
 12741 1665 00000000 		.4byte	0
 12742 1669 00000000 		.4byte	0
 12743              	.LLST148:
 12744 166d 04000000 		.4byte	.LVL550
 12745 1671 10000000 		.4byte	.LVL553
 12746 1675 0200     		.2byte	0x2
 12747 1677 30       		.byte	0x30
 12748 1678 9F       		.byte	0x9f
 12749 1679 10000000 		.4byte	.LVL553
 12750 167d 12000000 		.4byte	.LVL554
 12751 1681 0100     		.2byte	0x1
 12752 1683 54       		.byte	0x54
 12753 1684 14000000 		.4byte	.LVL555
 12754 1688 4C010000 		.4byte	.LVL585
 12755 168c 0100     		.2byte	0x1
 12756 168e 54       		.byte	0x54
 12757 168f 00000000 		.4byte	0
 12758 1693 00000000 		.4byte	0
 12759              	.LLST149:
 12760 1697 0C000000 		.4byte	.LVL552
 12761 169b 10000000 		.4byte	.LVL553
 12762 169f 0100     		.2byte	0x1
 12763 16a1 50       		.byte	0x50
 12764 16a2 10000000 		.4byte	.LVL553
 12765 16a6 4C010000 		.4byte	.LVL586
 12766 16aa 0100     		.2byte	0x1
 12767 16ac 55       		.byte	0x55
 12768 16ad 00000000 		.4byte	0
 12769 16b1 00000000 		.4byte	0
 12770              	.LLST150:
 12771 16b5 3A000000 		.4byte	.LVL557
 12772 16b9 50000000 		.4byte	.LVL559
 12773 16bd 0100     		.2byte	0x1
 12774 16bf 57       		.byte	0x57
 12775 16c0 00000000 		.4byte	0
 12776 16c4 00000000 		.4byte	0
 12777              	.LLST151:
 12778 16c8 7A000000 		.4byte	.LVL564
 12779 16cc 90000000 		.4byte	.LVL566
 12780 16d0 0100     		.2byte	0x1
 12781 16d2 56       		.byte	0x56
 12782 16d3 00000000 		.4byte	0
 12783 16d7 00000000 		.4byte	0
 12784              	.LLST152:
 12785 16db CE000000 		.4byte	.LVL571
 12786 16df E4000000 		.4byte	.LVL573
 12787 16e3 0100     		.2byte	0x1
 12788 16e5 56       		.byte	0x56
 12789 16e6 00000000 		.4byte	0
 12790 16ea 00000000 		.4byte	0
 12791              	.LLST153:
 12792 16ee 02010000 		.4byte	.LVL578
ARM GAS  C:\Users\TERENC~1\AppData\Local\Temp\cc9BPywF.s 			page 250


 12793 16f2 18010000 		.4byte	.LVL580
 12794 16f6 0100     		.2byte	0x1
 12795 16f8 57       		.byte	0x57
 12796 16f9 00000000 		.4byte	0
 12797 16fd 00000000 		.4byte	0
 12798              		.section	.debug_aranges,"",%progbits
 12799 0000 0C010000 		.4byte	0x10c
 12800 0004 0200     		.2byte	0x2
 12801 0006 00000000 		.4byte	.Ldebug_info0
 12802 000a 04       		.byte	0x4
 12803 000b 00       		.byte	0
 12804 000c 0000     		.2byte	0
 12805 000e 0000     		.2byte	0
 12806 0010 00000000 		.4byte	.LFB19
 12807 0014 4C000000 		.4byte	.LFE19-.LFB19
 12808 0018 00000000 		.4byte	.LFB4
 12809 001c 8C000000 		.4byte	.LFE4-.LFB4
 12810 0020 00000000 		.4byte	.LFB3
 12811 0024 EC000000 		.4byte	.LFE3-.LFB3
 12812 0028 00000000 		.4byte	.LFB5
 12813 002c B4000000 		.4byte	.LFE5-.LFB5
 12814 0030 00000000 		.4byte	.LFB20
 12815 0034 4C000000 		.4byte	.LFE20-.LFB20
 12816 0038 00000000 		.4byte	.LFB22
 12817 003c 54000000 		.4byte	.LFE22-.LFB22
 12818 0040 00000000 		.4byte	.LFB25
 12819 0044 24020000 		.4byte	.LFE25-.LFB25
 12820 0048 00000000 		.4byte	.LFB6
 12821 004c E4000000 		.4byte	.LFE6-.LFB6
 12822 0050 00000000 		.4byte	.LFB7
 12823 0054 4C000000 		.4byte	.LFE7-.LFB7
 12824 0058 00000000 		.4byte	.LFB8
 12825 005c F4000000 		.4byte	.LFE8-.LFB8
 12826 0060 00000000 		.4byte	.LFB9
 12827 0064 A0000000 		.4byte	.LFE9-.LFB9
 12828 0068 00000000 		.4byte	.LFB10
 12829 006c 4C000000 		.4byte	.LFE10-.LFB10
 12830 0070 00000000 		.4byte	.LFB11
 12831 0074 5C000000 		.4byte	.LFE11-.LFB11
 12832 0078 00000000 		.4byte	.LFB12
 12833 007c 5C000000 		.4byte	.LFE12-.LFB12
 12834 0080 00000000 		.4byte	.LFB13
 12835 0084 5C000000 		.4byte	.LFE13-.LFB13
 12836 0088 00000000 		.4byte	.LFB14
 12837 008c 5C000000 		.4byte	.LFE14-.LFB14
 12838 0090 00000000 		.4byte	.LFB15
 12839 0094 68000000 		.4byte	.LFE15-.LFB15
 12840 0098 00000000 		.4byte	.LFB16
 12841 009c FC000000 		.4byte	.LFE16-.LFB16
 12842 00a0 00000000 		.4byte	.LFB17
 12843 00a4 4C000000 		.4byte	.LFE17-.LFB17
 12844 00a8 00000000 		.4byte	.LFB18
 12845 00ac 5C000000 		.4byte	.LFE18-.LFB18
 12846 00b0 00000000 		.4byte	.LFB21
 12847 00b4 0A000000 		.4byte	.LFE21-.LFB21
 12848 00b8 00000000 		.4byte	.LFB27
 12849 00bc 4C000000 		.4byte	.LFE27-.LFB27
ARM GAS  C:\Users\TERENC~1\AppData\Local\Temp\cc9BPywF.s 			page 251


 12850 00c0 00000000 		.4byte	.LFB28
 12851 00c4 58000000 		.4byte	.LFE28-.LFB28
 12852 00c8 00000000 		.4byte	.LFB29
 12853 00cc 4C000000 		.4byte	.LFE29-.LFB29
 12854 00d0 00000000 		.4byte	.LFB2
 12855 00d4 44000000 		.4byte	.LFE2-.LFB2
 12856 00d8 00000000 		.4byte	.LFB23
 12857 00dc 38010000 		.4byte	.LFE23-.LFB23
 12858 00e0 00000000 		.4byte	.LFB24
 12859 00e4 18010000 		.4byte	.LFE24-.LFB24
 12860 00e8 00000000 		.4byte	.LFB26
 12861 00ec C0000000 		.4byte	.LFE26-.LFB26
 12862 00f0 00000000 		.4byte	.LFB30
 12863 00f4 E8020000 		.4byte	.LFE30-.LFB30
 12864 00f8 00000000 		.4byte	.LFB31
 12865 00fc 1C000000 		.4byte	.LFE31-.LFB31
 12866 0100 00000000 		.4byte	.LFB32
 12867 0104 6C010000 		.4byte	.LFE32-.LFB32
 12868 0108 00000000 		.4byte	0
 12869 010c 00000000 		.4byte	0
 12870              		.section	.debug_ranges,"",%progbits
 12871              	.Ldebug_ranges0:
 12872 0000 00000000 		.4byte	.LFB19
 12873 0004 4C000000 		.4byte	.LFE19
 12874 0008 00000000 		.4byte	.LFB4
 12875 000c 8C000000 		.4byte	.LFE4
 12876 0010 00000000 		.4byte	.LFB3
 12877 0014 EC000000 		.4byte	.LFE3
 12878 0018 00000000 		.4byte	.LFB5
 12879 001c B4000000 		.4byte	.LFE5
 12880 0020 00000000 		.4byte	.LFB20
 12881 0024 4C000000 		.4byte	.LFE20
 12882 0028 00000000 		.4byte	.LFB22
 12883 002c 54000000 		.4byte	.LFE22
 12884 0030 00000000 		.4byte	.LFB25
 12885 0034 24020000 		.4byte	.LFE25
 12886 0038 00000000 		.4byte	.LFB6
 12887 003c E4000000 		.4byte	.LFE6
 12888 0040 00000000 		.4byte	.LFB7
 12889 0044 4C000000 		.4byte	.LFE7
 12890 0048 00000000 		.4byte	.LFB8
 12891 004c F4000000 		.4byte	.LFE8
 12892 0050 00000000 		.4byte	.LFB9
 12893 0054 A0000000 		.4byte	.LFE9
 12894 0058 00000000 		.4byte	.LFB10
 12895 005c 4C000000 		.4byte	.LFE10
 12896 0060 00000000 		.4byte	.LFB11
 12897 0064 5C000000 		.4byte	.LFE11
 12898 0068 00000000 		.4byte	.LFB12
 12899 006c 5C000000 		.4byte	.LFE12
 12900 0070 00000000 		.4byte	.LFB13
 12901 0074 5C000000 		.4byte	.LFE13
 12902 0078 00000000 		.4byte	.LFB14
 12903 007c 5C000000 		.4byte	.LFE14
 12904 0080 00000000 		.4byte	.LFB15
 12905 0084 68000000 		.4byte	.LFE15
 12906 0088 00000000 		.4byte	.LFB16
ARM GAS  C:\Users\TERENC~1\AppData\Local\Temp\cc9BPywF.s 			page 252


 12907 008c FC000000 		.4byte	.LFE16
 12908 0090 00000000 		.4byte	.LFB17
 12909 0094 4C000000 		.4byte	.LFE17
 12910 0098 00000000 		.4byte	.LFB18
 12911 009c 5C000000 		.4byte	.LFE18
 12912 00a0 00000000 		.4byte	.LFB21
 12913 00a4 0A000000 		.4byte	.LFE21
 12914 00a8 00000000 		.4byte	.LFB27
 12915 00ac 4C000000 		.4byte	.LFE27
 12916 00b0 00000000 		.4byte	.LFB28
 12917 00b4 58000000 		.4byte	.LFE28
 12918 00b8 00000000 		.4byte	.LFB29
 12919 00bc 4C000000 		.4byte	.LFE29
 12920 00c0 00000000 		.4byte	.LFB2
 12921 00c4 44000000 		.4byte	.LFE2
 12922 00c8 00000000 		.4byte	.LFB23
 12923 00cc 38010000 		.4byte	.LFE23
 12924 00d0 00000000 		.4byte	.LFB24
 12925 00d4 18010000 		.4byte	.LFE24
 12926 00d8 00000000 		.4byte	.LFB26
 12927 00dc C0000000 		.4byte	.LFE26
 12928 00e0 00000000 		.4byte	.LFB30
 12929 00e4 E8020000 		.4byte	.LFE30
 12930 00e8 00000000 		.4byte	.LFB31
 12931 00ec 1C000000 		.4byte	.LFE31
 12932 00f0 00000000 		.4byte	.LFB32
 12933 00f4 6C010000 		.4byte	.LFE32
 12934 00f8 00000000 		.4byte	0
 12935 00fc 00000000 		.4byte	0
 12936              		.section	.debug_line,"",%progbits
 12937              	.Ldebug_line0:
 12938 0000 790B0000 		.section	.debug_str,"MS",%progbits,1
 12938      02008A02 
 12938      00000201 
 12938      FB0E0D00 
 12938      01010101 
 12939              	.LASF88:
 12940 0000 546B5368 		.ascii	"TkShellInit\000"
 12940      656C6C49 
 12940      6E697400 
 12941              	.LASF65:
 12942 000c 5F5F746B 		.ascii	"__tk_shell_rf_bl_reset\000"
 12942      5F736865 
 12942      6C6C5F72 
 12942      665F626C 
 12942      5F726573 
 12943              	.LASF126:
 12944 0023 63633835 		.ascii	"cc85xx_flash_bytes\000"
 12944      78785F66 
 12944      6C617368 
 12944      5F627974 
 12944      657300
 12945              	.LASF33:
 12946 0036 64656275 		.ascii	"debug_mask\000"
 12946      675F6D61 
 12946      736B00
 12947              	.LASF122:
ARM GAS  C:\Users\TERENC~1\AppData\Local\Temp\cc9BPywF.s 			page 253


 12948 0041 63633835 		.ascii	"cc85xx_boot_reset\000"
 12948      78785F62 
 12948      6F6F745F 
 12948      72657365 
 12948      7400
 12949              	.LASF131:
 12950 0053 43616C69 		.ascii	"CalibrationSave\000"
 12950      62726174 
 12950      696F6E53 
 12950      61766500 
 12951              	.LASF25:
 12952 0063 766F6C5F 		.ascii	"vol_ctrl_right\000"
 12952      6374726C 
 12952      5F726967 
 12952      687400
 12953              	.LASF127:
 12954 0072 7374726C 		.ascii	"strlen\000"
 12954      656E00
 12955              	.LASF85:
 12956 0079 5F5F746B 		.ascii	"__tk_shell_cal_set\000"
 12956      5F736865 
 12956      6C6C5F63 
 12956      616C5F73 
 12956      657400
 12957              	.LASF91:
 12958 008c 62756666 		.ascii	"buffer\000"
 12958      657200
 12959              	.LASF63:
 12960 0093 5F5F746B 		.ascii	"__tk_shell_rf_init\000"
 12960      5F736865 
 12960      6C6C5F72 
 12960      665F696E 
 12960      697400
 12961              	.LASF0:
 12962 00a6 756E7369 		.ascii	"unsigned int\000"
 12962      676E6564 
 12962      20696E74 
 12962      00
 12963              	.LASF32:
 12964 00b3 6C65645F 		.ascii	"led_max_brightness\000"
 12964      6D61785F 
 12964      62726967 
 12964      68746E65 
 12964      737300
 12965              	.LASF38:
 12966 00c6 4C4D5F4C 		.ascii	"LM_LED_MAX\000"
 12966      45445F4D 
 12966      415800
 12967              	.LASF21:
 12968 00d1 696E7431 		.ascii	"int16\000"
 12968      3600
 12969              	.LASF62:
 12970 00d7 5F5F746B 		.ascii	"__tk_shell_wm_reg_rd\000"
 12970      5F736865 
 12970      6C6C5F77 
 12970      6D5F7265 
 12970      675F7264 
ARM GAS  C:\Users\TERENC~1\AppData\Local\Temp\cc9BPywF.s 			page 254


 12971              	.LASF27:
 12972 00ec 766F6C5F 		.ascii	"vol_ctrl_both\000"
 12972      6374726C 
 12972      5F626F74 
 12972      6800
 12973              	.LASF125:
 12974 00fa 63633835 		.ascii	"cc85xx_bl_flash_verify\000"
 12974      78785F62 
 12974      6C5F666C 
 12974      6173685F 
 12974      76657269 
 12975              	.LASF112:
 12976 0111 55534255 		.ascii	"USBUART_GetConfiguration\000"
 12976      4152545F 
 12976      47657443 
 12976      6F6E6669 
 12976      67757261 
 12977              	.LASF142:
 12978 012a 546B5368 		.ascii	"TkShellProcessCommand\000"
 12978      656C6C50 
 12978      726F6365 
 12978      7373436F 
 12978      6D6D616E 
 12979              	.LASF81:
 12980 0140 70776D50 		.ascii	"pwmPeriod\000"
 12980      6572696F 
 12980      6400
 12981              	.LASF41:
 12982 014a 66756E63 		.ascii	"func\000"
 12982      00
 12983              	.LASF51:
 12984 014f 6D6F6465 		.ascii	"mode\000"
 12984      00
 12985              	.LASF120:
 12986 0154 63633835 		.ascii	"cc85xx_init\000"
 12986      78785F69 
 12986      6E697400 
 12987              	.LASF100:
 12988 0160 636F6D6D 		.ascii	"commands\000"
 12988      616E6473 
 12988      00
 12989              	.LASF87:
 12990 0169 666F756E 		.ascii	"found\000"
 12990      6400
 12991              	.LASF39:
 12992 016f 4C4D5F4C 		.ascii	"LM_LED_e\000"
 12992      45445F65 
 12992      00
 12993              	.LASF31:
 12994 0178 6164635F 		.ascii	"adc_max\000"
 12994      6D617800 
 12995              	.LASF115:
 12996 0180 436F6465 		.ascii	"Codec_AdjustBothHeadphoneVolume\000"
 12996      635F4164 
 12996      6A757374 
 12996      426F7468 
 12996      48656164 
ARM GAS  C:\Users\TERENC~1\AppData\Local\Temp\cc9BPywF.s 			page 255


 12997              	.LASF17:
 12998 01a0 75696E74 		.ascii	"uint32_t\000"
 12998      33325F74 
 12998      00
 12999              	.LASF37:
 13000 01a9 4C4D5F4C 		.ascii	"LM_LED_BLUE\000"
 13000      45445F42 
 13000      4C554500 
 13001              	.LASF22:
 13002 01b5 666C6F61 		.ascii	"float\000"
 13002      7400
 13003              	.LASF90:
 13004 01bb 636F756E 		.ascii	"count\000"
 13004      7400
 13005              	.LASF12:
 13006 01c1 6C6F6E67 		.ascii	"long long unsigned int\000"
 13006      206C6F6E 
 13006      6720756E 
 13006      7369676E 
 13006      65642069 
 13007              	.LASF121:
 13008 01d8 63633835 		.ascii	"cc85xx_sys_reset\000"
 13008      78785F73 
 13008      79735F72 
 13008      65736574 
 13008      00
 13009              	.LASF7:
 13010 01e9 5F5F7569 		.ascii	"__uint16_t\000"
 13010      6E743136 
 13010      5F7400
 13011              	.LASF59:
 13012 01f4 5F5F746B 		.ascii	"__tk_shell_wm_vol_get\000"
 13012      5F736865 
 13012      6C6C5F77 
 13012      6D5F766F 
 13012      6C5F6765 
 13013              	.LASF106:
 13014 020a 61646353 		.ascii	"adcSample\000"
 13014      616D706C 
 13014      6500
 13015              	.LASF28:
 13016 0214 7369676E 		.ascii	"signature\000"
 13016      61747572 
 13016      6500
 13017              	.LASF140:
 13018 021e 546B5368 		.ascii	"TkShell.c\000"
 13018      656C6C2E 
 13018      6300
 13019              	.LASF132:
 13020 0228 41756469 		.ascii	"AudioManagerToneStart\000"
 13020      6F4D616E 
 13020      61676572 
 13020      546F6E65 
 13020      53746172 
 13021              	.LASF74:
 13022 023e 5F5F746B 		.ascii	"__tk_shell_sys_reset\000"
 13022      5F736865 
ARM GAS  C:\Users\TERENC~1\AppData\Local\Temp\cc9BPywF.s 			page 256


 13022      6C6C5F73 
 13022      79735F72 
 13022      65736574 
 13023              	.LASF139:
 13024 0253 474E5520 		.ascii	"GNU C11 5.4.1 20160609 (release) [ARM/embedded-5-br"
 13024      43313120 
 13024      352E342E 
 13024      31203230 
 13024      31363036 
 13025 0286 616E6368 		.ascii	"anch revision 237715] -mcpu=cortex-m0 -mthumb -g -O"
 13025      20726576 
 13025      6973696F 
 13025      6E203233 
 13025      37373135 
 13026 02b9 67202D66 		.ascii	"g -ffunction-sections -ffat-lto-objects\000"
 13026      66756E63 
 13026      74696F6E 
 13026      2D736563 
 13026      74696F6E 
 13027              	.LASF141:
 13028 02e1 433A5C64 		.ascii	"C:\\dev\\git\\icebreaker\\Icebreaker.cydsn\000"
 13028      65765C67 
 13028      69745C69 
 13028      63656272 
 13028      65616B65 
 13029              	.LASF60:
 13030 0308 5F5F746B 		.ascii	"__tk_shell_wm_reg_wr\000"
 13030      5F736865 
 13030      6C6C5F77 
 13030      6D5F7265 
 13030      675F7772 
 13031              	.LASF35:
 13032 031d 4C4D5F4C 		.ascii	"LM_LED_RED\000"
 13032      45445F52 
 13032      454400
 13033              	.LASF29:
 13034 0328 636F756E 		.ascii	"counter\000"
 13034      74657200 
 13035              	.LASF103:
 13036 0330 636D645F 		.ascii	"cmd_buf\000"
 13036      62756600 
 13037              	.LASF129:
 13038 0338 63633835 		.ascii	"cc85xx_print_info\000"
 13038      78785F70 
 13038      72696E74 
 13038      5F696E66 
 13038      6F00
 13039              	.LASF68:
 13040 034a 5F5F746B 		.ascii	"__tk_shell_rf_bl_verify\000"
 13040      5F736865 
 13040      6C6C5F72 
 13040      665F626C 
 13040      5F766572 
 13041              	.LASF69:
 13042 0362 5F426F6F 		.ascii	"_Bool\000"
 13042      6C00
 13043              	.LASF49:
ARM GAS  C:\Users\TERENC~1\AppData\Local\Temp\cc9BPywF.s 			page 257


 13044 0368 5F5F746B 		.ascii	"__tk_shell_gpio_config\000"
 13044      5F736865 
 13044      6C6C5F67 
 13044      70696F5F 
 13044      636F6E66 
 13045              	.LASF128:
 13046 037f 63633835 		.ascii	"cc85xx_get_status\000"
 13046      78785F67 
 13046      65745F73 
 13046      74617475 
 13046      7300
 13047              	.LASF66:
 13048 0391 5F5F746B 		.ascii	"__tk_shell_rf_bl_unlock\000"
 13048      5F736865 
 13048      6C6C5F72 
 13048      665F626C 
 13048      5F756E6C 
 13049              	.LASF95:
 13050 03a9 5F5F746B 		.ascii	"__tk_shell_verbs_rf\000"
 13050      5F736865 
 13050      6C6C5F76 
 13050      65726273 
 13050      5F726600 
 13051              	.LASF64:
 13052 03bd 5F5F746B 		.ascii	"__tk_shell_rf_reset\000"
 13052      5F736865 
 13052      6C6C5F72 
 13052      665F7265 
 13052      73657400 
 13053              	.LASF116:
 13054 03d1 436F6465 		.ascii	"Codec_GetHeadphoneVolume\000"
 13054      635F4765 
 13054      74486561 
 13054      6470686F 
 13054      6E65566F 
 13055              	.LASF14:
 13056 03ea 63686172 		.ascii	"char\000"
 13056      00
 13057              	.LASF133:
 13058 03ef 41756469 		.ascii	"AudioManagerToneStop\000"
 13058      6F4D616E 
 13058      61676572 
 13058      546F6E65 
 13058      53746F70 
 13059              	.LASF138:
 13060 0404 55534255 		.ascii	"USBUART_GetAll\000"
 13060      4152545F 
 13060      47657441 
 13060      6C6C00
 13061              	.LASF19:
 13062 0413 75696E74 		.ascii	"uint16\000"
 13062      313600
 13063              	.LASF61:
 13064 041a 64617461 		.ascii	"data\000"
 13064      00
 13065              	.LASF108:
 13066 041f 746D7243 		.ascii	"tmrCounter_ms\000"
ARM GAS  C:\Users\TERENC~1\AppData\Local\Temp\cc9BPywF.s 			page 258


 13066      6F756E74 
 13066      65725F6D 
 13066      7300
 13067              	.LASF15:
 13068 042d 75696E74 		.ascii	"uint8_t\000"
 13068      385F7400 
 13069              	.LASF83:
 13070 0435 70776D43 		.ascii	"pwmCounter\000"
 13070      6F756E74 
 13070      657200
 13071              	.LASF86:
 13072 0440 72657476 		.ascii	"retval\000"
 13072      616C00
 13073              	.LASF101:
 13074 0447 4F4B5F53 		.ascii	"OK_STR\000"
 13074      545200
 13075              	.LASF1:
 13076 044e 6C6F6E67 		.ascii	"long long int\000"
 13076      206C6F6E 
 13076      6720696E 
 13076      7400
 13077              	.LASF72:
 13078 045c 5F5F746B 		.ascii	"__tk_shell_rf_status\000"
 13078      5F736865 
 13078      6C6C5F72 
 13078      665F7374 
 13078      61747573 
 13079              	.LASF84:
 13080 0471 5F5F746B 		.ascii	"__tk_shell_led_stop\000"
 13080      5F736865 
 13080      6C6C5F6C 
 13080      65645F73 
 13080      746F7000 
 13081              	.LASF55:
 13082 0485 5F5F746B 		.ascii	"__tk_shell_sys_info\000"
 13082      5F736865 
 13082      6C6C5F73 
 13082      79735F69 
 13082      6E666F00 
 13083              	.LASF97:
 13084 0499 5F5F746B 		.ascii	"__tk_shell_verbs_led\000"
 13084      5F736865 
 13084      6C6C5F76 
 13084      65726273 
 13084      5F6C6564 
 13085              	.LASF78:
 13086 04ae 73747263 		.ascii	"strcicmp\000"
 13086      69636D70 
 13086      00
 13087              	.LASF92:
 13088 04b7 7265675F 		.ascii	"reg_lookup\000"
 13088      6C6F6F6B 
 13088      757000
 13089              	.LASF137:
 13090 04c2 6D656D73 		.ascii	"memset\000"
 13090      657400
 13091              	.LASF20:
ARM GAS  C:\Users\TERENC~1\AppData\Local\Temp\cc9BPywF.s 			page 259


 13092 04c9 75696E74 		.ascii	"uint32\000"
 13092      333200
 13093              	.LASF46:
 13094 04d0 61726763 		.ascii	"argc\000"
 13094      00
 13095              	.LASF105:
 13096 04d5 5F5F6374 		.ascii	"__ctype_ptr__\000"
 13096      7970655F 
 13096      7074725F 
 13096      5F00
 13097              	.LASF96:
 13098 04e3 5F5F746B 		.ascii	"__tk_shell_verbs_sys\000"
 13098      5F736865 
 13098      6C6C5F76 
 13098      65726273 
 13098      5F737973 
 13099              	.LASF47:
 13100 04f8 61726776 		.ascii	"argv\000"
 13100      00
 13101              	.LASF2:
 13102 04fd 6C6F6E67 		.ascii	"long double\000"
 13102      20646F75 
 13102      626C6500 
 13103              	.LASF114:
 13104 0509 73707269 		.ascii	"sprintf\000"
 13104      6E746600 
 13105              	.LASF16:
 13106 0511 75696E74 		.ascii	"uint16_t\000"
 13106      31365F74 
 13106      00
 13107              	.LASF24:
 13108 051a 72656733 		.ascii	"reg32\000"
 13108      3200
 13109              	.LASF109:
 13110 0520 67627566 		.ascii	"gbuf\000"
 13110      00
 13111              	.LASF52:
 13112 0525 5F5F746B 		.ascii	"__tk_shell_gpio_set\000"
 13112      5F736865 
 13112      6C6C5F67 
 13112      70696F5F 
 13112      73657400 
 13113              	.LASF79:
 13114 0539 5F5F746B 		.ascii	"__tk_shell_led_start\000"
 13114      5F736865 
 13114      6C6C5F6C 
 13114      65645F73 
 13114      74617274 
 13115              	.LASF107:
 13116 054e 63616C5F 		.ascii	"cal_data\000"
 13116      64617461 
 13116      00
 13117              	.LASF45:
 13118 0557 746B5F73 		.ascii	"tk_shell_command_s\000"
 13118      68656C6C 
 13118      5F636F6D 
 13118      6D616E64 
ARM GAS  C:\Users\TERENC~1\AppData\Local\Temp\cc9BPywF.s 			page 260


 13118      5F7300
 13119              	.LASF5:
 13120 056a 73686F72 		.ascii	"short int\000"
 13120      7420696E 
 13120      7400
 13121              	.LASF75:
 13122 0574 5F5F746B 		.ascii	"__tk_shell_cal_save\000"
 13122      5F736865 
 13122      6C6C5F63 
 13122      616C5F73 
 13122      61766500 
 13123              	.LASF9:
 13124 0588 6C6F6E67 		.ascii	"long int\000"
 13124      20696E74 
 13124      00
 13125              	.LASF98:
 13126 0591 5F5F746B 		.ascii	"__tk_shell_verbs_cal\000"
 13126      5F736865 
 13126      6C6C5F76 
 13126      65726273 
 13126      5F63616C 
 13127              	.LASF30:
 13128 05a6 6164635F 		.ascii	"adc_min\000"
 13128      6D696E00 
 13129              	.LASF94:
 13130 05ae 5F5F746B 		.ascii	"__tk_shell_verbs_wm\000"
 13130      5F736865 
 13130      6C6C5F76 
 13130      65726273 
 13130      5F776D00 
 13131              	.LASF82:
 13132 05c2 70776D43 		.ascii	"pwmCompare\000"
 13132      6F6D7061 
 13132      726500
 13133              	.LASF119:
 13134 05cd 436F6465 		.ascii	"Codec_GetData\000"
 13134      635F4765 
 13134      74446174 
 13134      6100
 13135              	.LASF6:
 13136 05db 5F5F7569 		.ascii	"__uint8_t\000"
 13136      6E74385F 
 13136      7400
 13137              	.LASF44:
 13138 05e5 76657262 		.ascii	"verbs\000"
 13138      7300
 13139              	.LASF111:
 13140 05eb 55534255 		.ascii	"USBUART_PutString\000"
 13140      4152545F 
 13140      50757453 
 13140      7472696E 
 13140      6700
 13141              	.LASF40:
 13142 05fd 6E616D65 		.ascii	"name\000"
 13142      00
 13143              	.LASF124:
 13144 0602 63633835 		.ascii	"cc85xx_bl_mass_erase\000"
ARM GAS  C:\Users\TERENC~1\AppData\Local\Temp\cc9BPywF.s 			page 261


 13144      78785F62 
 13144      6C5F6D61 
 13144      73735F65 
 13144      72617365 
 13145              	.LASF13:
 13146 0617 73697A65 		.ascii	"sizetype\000"
 13146      74797065 
 13146      00
 13147              	.LASF117:
 13148 0620 73747274 		.ascii	"strtoul\000"
 13148      6F756C00 
 13149              	.LASF11:
 13150 0628 6C6F6E67 		.ascii	"long unsigned int\000"
 13150      20756E73 
 13150      69676E65 
 13150      6420696E 
 13150      7400
 13151              	.LASF76:
 13152 063a 5F5F746B 		.ascii	"__tk_shell_audio_play_tone\000"
 13152      5F736865 
 13152      6C6C5F61 
 13152      7564696F 
 13152      5F706C61 
 13153              	.LASF110:
 13154 0655 55534255 		.ascii	"USBUART_CDCIsReady\000"
 13154      4152545F 
 13154      43444349 
 13154      73526561 
 13154      647900
 13155              	.LASF48:
 13156 0668 5F5F746B 		.ascii	"__tk_shell_sys_crash\000"
 13156      5F736865 
 13156      6C6C5F73 
 13156      79735F63 
 13156      72617368 
 13157              	.LASF50:
 13158 067d 706F7274 		.ascii	"port\000"
 13158      00
 13159              	.LASF67:
 13160 0682 5F5F746B 		.ascii	"__tk_shell_rf_bl_erase\000"
 13160      5F736865 
 13160      6C6C5F72 
 13160      665F626C 
 13160      5F657261 
 13161              	.LASF89:
 13162 0699 546B5368 		.ascii	"TkShellService\000"
 13162      656C6C53 
 13162      65727669 
 13162      636500
 13163              	.LASF134:
 13164 06a8 4C65644D 		.ascii	"LedManagerStartOverride\000"
 13164      616E6167 
 13164      65725374 
 13164      6172744F 
 13164      76657272 
 13165              	.LASF130:
 13166 06c0 4379536F 		.ascii	"CySoftwareReset\000"
ARM GAS  C:\Users\TERENC~1\AppData\Local\Temp\cc9BPywF.s 			page 262


 13166      66747761 
 13166      72655265 
 13166      73657400 
 13167              	.LASF4:
 13168 06d0 756E7369 		.ascii	"unsigned char\000"
 13168      676E6564 
 13168      20636861 
 13168      7200
 13169              	.LASF43:
 13170 06de 746B5F73 		.ascii	"tk_shell_command_verb_s\000"
 13170      68656C6C 
 13170      5F636F6D 
 13170      6D616E64 
 13170      5F766572 
 13171              	.LASF10:
 13172 06f6 5F5F7569 		.ascii	"__uint32_t\000"
 13172      6E743332 
 13172      5F7400
 13173              	.LASF58:
 13174 0701 5F5F746B 		.ascii	"__tk_shell_wm_vol_set\000"
 13174      5F736865 
 13174      6C6C5F77 
 13174      6D5F766F 
 13174      6C5F7365 
 13175              	.LASF73:
 13176 0717 5F5F746B 		.ascii	"__tk_shell_rf_info\000"
 13176      5F736865 
 13176      6C6C5F72 
 13176      665F696E 
 13176      666F00
 13177              	.LASF71:
 13178 072a 61646472 		.ascii	"addr\000"
 13178      00
 13179              	.LASF118:
 13180 072f 436F6465 		.ascii	"Codec_SendData\000"
 13180      635F5365 
 13180      6E644461 
 13180      746100
 13181              	.LASF53:
 13182 073e 73746174 		.ascii	"state\000"
 13182      6500
 13183              	.LASF99:
 13184 0744 5F5F746B 		.ascii	"__tk_shell_verbs_audio\000"
 13184      5F736865 
 13184      6C6C5F76 
 13184      65726273 
 13184      5F617564 
 13185              	.LASF56:
 13186 075b 5F5F746B 		.ascii	"__tk_shell_sys_adc\000"
 13186      5F736865 
 13186      6C6C5F73 
 13186      79735F61 
 13186      646300
 13187              	.LASF36:
 13188 076e 4C4D5F4C 		.ascii	"LM_LED_GREEN\000"
 13188      45445F47 
 13188      5245454E 
ARM GAS  C:\Users\TERENC~1\AppData\Local\Temp\cc9BPywF.s 			page 263


 13188      00
 13189              	.LASF54:
 13190 077b 5F5F746B 		.ascii	"__tk_shell_gpio_get\000"
 13190      5F736865 
 13190      6C6C5F67 
 13190      70696F5F 
 13190      67657400 
 13191              	.LASF57:
 13192 078f 5F5F746B 		.ascii	"__tk_shell_cal_print\000"
 13192      5F736865 
 13192      6C6C5F63 
 13192      616C5F70 
 13192      72696E74 
 13193              	.LASF77:
 13194 07a4 5F5F746B 		.ascii	"__tk_shell_audio_stop_tone\000"
 13194      5F736865 
 13194      6C6C5F61 
 13194      7564696F 
 13194      5F73746F 
 13195              	.LASF3:
 13196 07bf 7369676E 		.ascii	"signed char\000"
 13196      65642063 
 13196      68617200 
 13197              	.LASF93:
 13198 07cb 5F5F746B 		.ascii	"__tk_shell_verbs_gpio\000"
 13198      5F736865 
 13198      6C6C5F76 
 13198      65726273 
 13198      5F677069 
 13199              	.LASF8:
 13200 07e1 73686F72 		.ascii	"short unsigned int\000"
 13200      7420756E 
 13200      7369676E 
 13200      65642069 
 13200      6E7400
 13201              	.LASF136:
 13202 07f4 6D656D63 		.ascii	"memcpy\000"
 13202      707900
 13203              	.LASF113:
 13204 07fb 61746F69 		.ascii	"atoi\000"
 13204      00
 13205              	.LASF104:
 13206 0800 636D645F 		.ascii	"cmd_char_count\000"
 13206      63686172 
 13206      5F636F75 
 13206      6E7400
 13207              	.LASF18:
 13208 080f 75696E74 		.ascii	"uint8\000"
 13208      3800
 13209              	.LASF23:
 13210 0815 646F7562 		.ascii	"double\000"
 13210      6C6500
 13211              	.LASF42:
 13212 081c 64657363 		.ascii	"desc\000"
 13212      00
 13213              	.LASF102:
 13214 0821 45525F53 		.ascii	"ER_STR\000"
ARM GAS  C:\Users\TERENC~1\AppData\Local\Temp\cc9BPywF.s 			page 264


 13214      545200
 13215              	.LASF80:
 13216 0828 6C656449 		.ascii	"ledIdx\000"
 13216      647800
 13217              	.LASF34:
 13218 082f 63616C69 		.ascii	"calibration_data_s\000"
 13218      62726174 
 13218      696F6E5F 
 13218      64617461 
 13218      5F7300
 13219              	.LASF123:
 13220 0842 63633835 		.ascii	"cc85xx_bl_unlock_spi\000"
 13220      78785F62 
 13220      6C5F756E 
 13220      6C6F636B 
 13220      5F737069 
 13221              	.LASF135:
 13222 0857 4C65644D 		.ascii	"LedManagerStopOverride\000"
 13222      616E6167 
 13222      65725374 
 13222      6F704F76 
 13222      65727269 
 13223              	.LASF26:
 13224 086e 766F6C5F 		.ascii	"vol_ctrl_left\000"
 13224      6374726C 
 13224      5F6C6566 
 13224      7400
 13225              	.LASF70:
 13226 087c 5F5F746B 		.ascii	"__tk_shell_rf_bl_flash\000"
 13226      5F736865 
 13226      6C6C5F72 
 13226      665F626C 
 13226      5F666C61 
 13227              		.ident	"GCC: (GNU Tools for ARM Embedded Processors) 5.4.1 20160609 (release) [ARM/embedded-5-bran
