ARM GAS  C:\Users\TERENC~1\AppData\Local\Temp\ccVvxQiY.s 			page 1


   1              		.syntax unified
   2              		.cpu cortex-m0
   3              		.fpu softvfp
   4              		.eabi_attribute 20, 1
   5              		.eabi_attribute 21, 1
   6              		.eabi_attribute 23, 3
   7              		.eabi_attribute 24, 1
   8              		.eabi_attribute 25, 1
   9              		.eabi_attribute 26, 1
  10              		.eabi_attribute 30, 1
  11              		.eabi_attribute 34, 0
  12              		.eabi_attribute 18, 4
  13              		.thumb
  14              		.syntax unified
  15              		.file	"USBInDMA.c"
  16              		.text
  17              	.Ltext0:
  18              		.cfi_sections	.debug_frame
  19              		.section	.text.USBInDMA_Init,"ax",%progbits
  20              		.align	2
  21              		.global	USBInDMA_Init
  22              		.code	16
  23              		.thumb_func
  24              		.type	USBInDMA_Init, %function
  25              	USBInDMA_Init:
  26              	.LFB33:
  27              		.file 1 "Generated_Source\\PSoC4\\USBInDMA.c"
   1:Generated_Source\PSoC4/USBInDMA.c **** /*******************************************************************************
   2:Generated_Source\PSoC4/USBInDMA.c **** * File Name: USBInDMA.h
   3:Generated_Source\PSoC4/USBInDMA.c **** * Version 1.0
   4:Generated_Source\PSoC4/USBInDMA.c **** *
   5:Generated_Source\PSoC4/USBInDMA.c **** * Description:
   6:Generated_Source\PSoC4/USBInDMA.c **** *  This file contains all of the channel DMA API functions.
   7:Generated_Source\PSoC4/USBInDMA.c **** *
   8:Generated_Source\PSoC4/USBInDMA.c **** ********************************************************************************
   9:Generated_Source\PSoC4/USBInDMA.c **** * Copyright 2015, Cypress Semiconductor Corporation. All rights reserved.
  10:Generated_Source\PSoC4/USBInDMA.c **** * You may use this file only in accordance with the license, terms, conditions,
  11:Generated_Source\PSoC4/USBInDMA.c **** * disclaimers, and limitations in the end user license agreement accompanying
  12:Generated_Source\PSoC4/USBInDMA.c **** * the software package with which this file was provided.
  13:Generated_Source\PSoC4/USBInDMA.c **** *******************************************************************************/
  14:Generated_Source\PSoC4/USBInDMA.c **** 
  15:Generated_Source\PSoC4/USBInDMA.c **** #include "USBInDMA.h"
  16:Generated_Source\PSoC4/USBInDMA.c **** 
  17:Generated_Source\PSoC4/USBInDMA.c **** uint8 USBInDMA_initVar = 0u;
  18:Generated_Source\PSoC4/USBInDMA.c **** 
  19:Generated_Source\PSoC4/USBInDMA.c **** 
  20:Generated_Source\PSoC4/USBInDMA.c **** /*******************************************************************************
  21:Generated_Source\PSoC4/USBInDMA.c **** * Function Name: USBInDMA_Start
  22:Generated_Source\PSoC4/USBInDMA.c **** ********************************************************************************
  23:Generated_Source\PSoC4/USBInDMA.c **** *
  24:Generated_Source\PSoC4/USBInDMA.c **** * Summary:
  25:Generated_Source\PSoC4/USBInDMA.c **** *  Calls Init() to configure the DMA channel based on the customizer settings if
  26:Generated_Source\PSoC4/USBInDMA.c **** *  the channel has not been initialized before.
  27:Generated_Source\PSoC4/USBInDMA.c **** *  Sets source and destination address, validates descriptor 0 and enables the
  28:Generated_Source\PSoC4/USBInDMA.c **** *  channel. After calling this function the DMA channel is active and waiting
  29:Generated_Source\PSoC4/USBInDMA.c **** *  for a trigger.
  30:Generated_Source\PSoC4/USBInDMA.c **** *
ARM GAS  C:\Users\TERENC~1\AppData\Local\Temp\ccVvxQiY.s 			page 2


  31:Generated_Source\PSoC4/USBInDMA.c **** * Parameters:
  32:Generated_Source\PSoC4/USBInDMA.c **** *  srcAddress: Address of DMA transfer source for descriptor 0.
  33:Generated_Source\PSoC4/USBInDMA.c **** *  dstAddress: Address of DMA transfer destination for descriptor 0.
  34:Generated_Source\PSoC4/USBInDMA.c **** *                   
  35:Generated_Source\PSoC4/USBInDMA.c **** * Return:
  36:Generated_Source\PSoC4/USBInDMA.c **** *  None.
  37:Generated_Source\PSoC4/USBInDMA.c **** *
  38:Generated_Source\PSoC4/USBInDMA.c **** *******************************************************************************/
  39:Generated_Source\PSoC4/USBInDMA.c **** void USBInDMA_Start(void * srcAddress, void * dstAddress)
  40:Generated_Source\PSoC4/USBInDMA.c **** {
  41:Generated_Source\PSoC4/USBInDMA.c ****     if(0u == USBInDMA_initVar)
  42:Generated_Source\PSoC4/USBInDMA.c ****     {
  43:Generated_Source\PSoC4/USBInDMA.c ****         USBInDMA_Init();
  44:Generated_Source\PSoC4/USBInDMA.c ****         USBInDMA_initVar = 1u;
  45:Generated_Source\PSoC4/USBInDMA.c ****     }
  46:Generated_Source\PSoC4/USBInDMA.c ****     CyDmaEnable();
  47:Generated_Source\PSoC4/USBInDMA.c ****     USBInDMA_SetSrcAddress(0, srcAddress);
  48:Generated_Source\PSoC4/USBInDMA.c ****     USBInDMA_SetDstAddress(0, dstAddress);
  49:Generated_Source\PSoC4/USBInDMA.c ****     USBInDMA_ValidateDescriptor(0);
  50:Generated_Source\PSoC4/USBInDMA.c ****     USBInDMA_ChEnable();
  51:Generated_Source\PSoC4/USBInDMA.c **** }
  52:Generated_Source\PSoC4/USBInDMA.c **** 
  53:Generated_Source\PSoC4/USBInDMA.c **** 
  54:Generated_Source\PSoC4/USBInDMA.c **** /*******************************************************************************
  55:Generated_Source\PSoC4/USBInDMA.c **** * Function Name: USBInDMA_Init
  56:Generated_Source\PSoC4/USBInDMA.c **** ********************************************************************************
  57:Generated_Source\PSoC4/USBInDMA.c **** *
  58:Generated_Source\PSoC4/USBInDMA.c **** * Summary:
  59:Generated_Source\PSoC4/USBInDMA.c **** *  Initializes the DMA channel based on the parameters set in the component
  60:Generated_Source\PSoC4/USBInDMA.c **** *  customizer. It is not necessary to call USBInDMA_Init() because the
  61:Generated_Source\PSoC4/USBInDMA.c **** *  USBInDMA_Start() API calls this function, which is the preferred method
  62:Generated_Source\PSoC4/USBInDMA.c **** *  to begin component operation.
  63:Generated_Source\PSoC4/USBInDMA.c **** *
  64:Generated_Source\PSoC4/USBInDMA.c **** * Parameters:
  65:Generated_Source\PSoC4/USBInDMA.c **** *  None.
  66:Generated_Source\PSoC4/USBInDMA.c **** *                   
  67:Generated_Source\PSoC4/USBInDMA.c **** * Return:
  68:Generated_Source\PSoC4/USBInDMA.c **** *  None.
  69:Generated_Source\PSoC4/USBInDMA.c **** *
  70:Generated_Source\PSoC4/USBInDMA.c **** * Side effect:
  71:Generated_Source\PSoC4/USBInDMA.c **** *  The first descriptor is set to descriptor 0. This function should not be
  72:Generated_Source\PSoC4/USBInDMA.c **** *  called while the channel is enabled. All settings will be reset to their
  73:Generated_Source\PSoC4/USBInDMA.c **** *  initial values.
  74:Generated_Source\PSoC4/USBInDMA.c **** *
  75:Generated_Source\PSoC4/USBInDMA.c **** *******************************************************************************/
  76:Generated_Source\PSoC4/USBInDMA.c **** void USBInDMA_Init(void)
  77:Generated_Source\PSoC4/USBInDMA.c **** {
  28              		.loc 1 77 0
  29              		.cfi_startproc
  30              		@ args = 0, pretend = 0, frame = 0
  31              		@ frame_needed = 0, uses_anonymous_args = 0
  32              		@ link register save eliminated.
  78:Generated_Source\PSoC4/USBInDMA.c ****     CYDMA_CH_CTL_BASE.ctl[USBInDMA_CHANNEL] = USBInDMA_CHANNEL_CFG;
  33              		.loc 1 78 0
  34 0000 C022     		movs	r2, #192
  35 0002 9205     		lsls	r2, r2, #22
  36 0004 074B     		ldr	r3, .L2
ARM GAS  C:\Users\TERENC~1\AppData\Local\Temp\ccVvxQiY.s 			page 3


  37 0006 5A63     		str	r2, [r3, #52]
  79:Generated_Source\PSoC4/USBInDMA.c ****     CYDMA_DESCR_BASE.descriptor[USBInDMA_CHANNEL][0].ctl = USBInDMA_DESCR0_CFG;
  38              		.loc 1 79 0
  39 0008 074B     		ldr	r3, .L2+4
  40 000a 084A     		ldr	r2, .L2+8
  41 000c D421     		movs	r1, #212
  42 000e 4900     		lsls	r1, r1, #1
  43 0010 5A50     		str	r2, [r3, r1]
  80:Generated_Source\PSoC4/USBInDMA.c ****     CYDMA_DESCR_BASE.descriptor[USBInDMA_CHANNEL][1].ctl = USBInDMA_DESCR1_CFG;
  44              		.loc 1 80 0
  45 0012 1031     		adds	r1, r1, #16
  46 0014 5A50     		str	r2, [r3, r1]
  81:Generated_Source\PSoC4/USBInDMA.c **** 
  82:Generated_Source\PSoC4/USBInDMA.c ****     /* If the Generate IRQ option is selected for descriptor 0 or 1, set the
  83:Generated_Source\PSoC4/USBInDMA.c ****     * channel bit field in the DMA interrupt mask register.
  84:Generated_Source\PSoC4/USBInDMA.c ****     */
  85:Generated_Source\PSoC4/USBInDMA.c ****     #if (0u != ((USBInDMA_DESCR0_CFG | USBInDMA_DESCR1_CFG) & CYDMA_GENERATE_IRQ))
  86:Generated_Source\PSoC4/USBInDMA.c ****         CYDMA_INTR_MASK_REG |= USBInDMA_CHANNEL_MASK;
  47              		.loc 1 86 0
  48 0016 064A     		ldr	r2, .L2+12
  49 0018 1368     		ldr	r3, [r2]
  50 001a 8021     		movs	r1, #128
  51 001c 8901     		lsls	r1, r1, #6
  52 001e 0B43     		orrs	r3, r1
  53 0020 1360     		str	r3, [r2]
  87:Generated_Source\PSoC4/USBInDMA.c ****     #endif /* (0u != ((USBInDMA_DESCR0_CFG | USBInDMA_DESCR1_CFG) & CYDMA_GENERATE_IRQ)) */
  88:Generated_Source\PSoC4/USBInDMA.c **** }
  54              		.loc 1 88 0
  55              		@ sp needed
  56 0022 7047     		bx	lr
  57              	.L3:
  58              		.align	2
  59              	.L2:
  60 0024 80101040 		.word	1074794624
  61 0028 00181040 		.word	1074796544
  62 002c BB00A058 		.word	1486880955
  63 0030 F8171040 		.word	1074796536
  64              		.cfi_endproc
  65              	.LFE33:
  66              		.size	USBInDMA_Init, .-USBInDMA_Init
  67              		.section	.text.USBInDMA_Start,"ax",%progbits
  68              		.align	2
  69              		.global	USBInDMA_Start
  70              		.code	16
  71              		.thumb_func
  72              		.type	USBInDMA_Start, %function
  73              	USBInDMA_Start:
  74              	.LFB32:
  40:Generated_Source\PSoC4/USBInDMA.c ****     if(0u == USBInDMA_initVar)
  75              		.loc 1 40 0
  76              		.cfi_startproc
  77              		@ args = 0, pretend = 0, frame = 0
  78              		@ frame_needed = 0, uses_anonymous_args = 0
  79              	.LVL0:
  80 0000 70B5     		push	{r4, r5, r6, lr}
  81              		.cfi_def_cfa_offset 16
  82              		.cfi_offset 4, -16
ARM GAS  C:\Users\TERENC~1\AppData\Local\Temp\ccVvxQiY.s 			page 4


  83              		.cfi_offset 5, -12
  84              		.cfi_offset 6, -8
  85              		.cfi_offset 14, -4
  86 0002 0500     		movs	r5, r0
  87 0004 0C00     		movs	r4, r1
  41:Generated_Source\PSoC4/USBInDMA.c ****     {
  88              		.loc 1 41 0
  89 0006 0E4B     		ldr	r3, .L6
  90 0008 1B78     		ldrb	r3, [r3]
  91 000a 002B     		cmp	r3, #0
  92 000c 04D1     		bne	.L5
  43:Generated_Source\PSoC4/USBInDMA.c ****         USBInDMA_initVar = 1u;
  93              		.loc 1 43 0
  94 000e FFF7FEFF 		bl	USBInDMA_Init
  95              	.LVL1:
  44:Generated_Source\PSoC4/USBInDMA.c ****     }
  96              		.loc 1 44 0
  97 0012 0122     		movs	r2, #1
  98 0014 0A4B     		ldr	r3, .L6
  99 0016 1A70     		strb	r2, [r3]
 100              	.L5:
  46:Generated_Source\PSoC4/USBInDMA.c ****     USBInDMA_SetSrcAddress(0, srcAddress);
 101              		.loc 1 46 0
 102 0018 FFF7FEFF 		bl	CyDmaEnable
 103              	.LVL2:
 104              	.LBB10:
 105              	.LBB11:
 106              		.file 2 "Generated_Source\\PSoC4\\USBInDMA.h"
   1:Generated_Source\PSoC4/USBInDMA.h **** /*******************************************************************************
   2:Generated_Source\PSoC4/USBInDMA.h **** * File Name: USBInDMA.h
   3:Generated_Source\PSoC4/USBInDMA.h **** * Version 1.0
   4:Generated_Source\PSoC4/USBInDMA.h **** *
   5:Generated_Source\PSoC4/USBInDMA.h **** * Description:
   6:Generated_Source\PSoC4/USBInDMA.h **** *  This file provides DMA channel defines and API function definitions.
   7:Generated_Source\PSoC4/USBInDMA.h **** *
   8:Generated_Source\PSoC4/USBInDMA.h **** ********************************************************************************
   9:Generated_Source\PSoC4/USBInDMA.h **** * Copyright 2015, Cypress Semiconductor Corporation. All rights reserved.
  10:Generated_Source\PSoC4/USBInDMA.h **** * You may use this file only in accordance with the license, terms, conditions,
  11:Generated_Source\PSoC4/USBInDMA.h **** * disclaimers, and limitations in the end user license agreement accompanying
  12:Generated_Source\PSoC4/USBInDMA.h **** * the software package with which this file was provided.
  13:Generated_Source\PSoC4/USBInDMA.h **** *******************************************************************************/
  14:Generated_Source\PSoC4/USBInDMA.h **** 
  15:Generated_Source\PSoC4/USBInDMA.h **** #ifndef CY_DMA_CHANNEL_USBInDMA_H
  16:Generated_Source\PSoC4/USBInDMA.h **** #define CY_DMA_CHANNEL_USBInDMA_H
  17:Generated_Source\PSoC4/USBInDMA.h **** 
  18:Generated_Source\PSoC4/USBInDMA.h **** #include "CyDMA.h"
  19:Generated_Source\PSoC4/USBInDMA.h **** 
  20:Generated_Source\PSoC4/USBInDMA.h ****     
  21:Generated_Source\PSoC4/USBInDMA.h **** /***************************************
  22:Generated_Source\PSoC4/USBInDMA.h **** *   Conditional Compilation Parameters
  23:Generated_Source\PSoC4/USBInDMA.h **** ***************************************/
  24:Generated_Source\PSoC4/USBInDMA.h **** 
  25:Generated_Source\PSoC4/USBInDMA.h **** #define USBInDMA_CHANNEL           (USBInDMA__CHANNEL_NUMBER)
  26:Generated_Source\PSoC4/USBInDMA.h **** #define USBInDMA_CHANNEL_MASK      ((uint32)(1UL << USBInDMA_CHANNEL))
  27:Generated_Source\PSoC4/USBInDMA.h **** 
  28:Generated_Source\PSoC4/USBInDMA.h **** 
  29:Generated_Source\PSoC4/USBInDMA.h **** /***************************************
ARM GAS  C:\Users\TERENC~1\AppData\Local\Temp\ccVvxQiY.s 			page 5


  30:Generated_Source\PSoC4/USBInDMA.h **** *        Function Prototypes
  31:Generated_Source\PSoC4/USBInDMA.h **** ***************************************/
  32:Generated_Source\PSoC4/USBInDMA.h **** 
  33:Generated_Source\PSoC4/USBInDMA.h **** /* Functions specific to this DMA channel */
  34:Generated_Source\PSoC4/USBInDMA.h **** void USBInDMA_Init(void);
  35:Generated_Source\PSoC4/USBInDMA.h **** void USBInDMA_Start(void * srcAddress, void * dstAddress);
  36:Generated_Source\PSoC4/USBInDMA.h **** 
  37:Generated_Source\PSoC4/USBInDMA.h **** /* Inline functions that call global API functions */
  38:Generated_Source\PSoC4/USBInDMA.h **** static void   USBInDMA_ChEnable(void);
  39:Generated_Source\PSoC4/USBInDMA.h **** static void   USBInDMA_ChDisable(void);
  40:Generated_Source\PSoC4/USBInDMA.h **** static void   USBInDMA_Trigger(void);
  41:Generated_Source\PSoC4/USBInDMA.h **** static void   USBInDMA_SetPriority(int32 priority);
  42:Generated_Source\PSoC4/USBInDMA.h **** static int32  USBInDMA_GetPriority(void);
  43:Generated_Source\PSoC4/USBInDMA.h **** static void   USBInDMA_SetNextDescriptor(int32 descriptor);
  44:Generated_Source\PSoC4/USBInDMA.h **** static int32  USBInDMA_GetNextDescriptor(void);
  45:Generated_Source\PSoC4/USBInDMA.h **** static void   USBInDMA_SetConfiguration(int32 descriptor, const cydma_init_struct * config);
  46:Generated_Source\PSoC4/USBInDMA.h **** static void   USBInDMA_ValidateDescriptor(int32 descriptor);
  47:Generated_Source\PSoC4/USBInDMA.h **** static uint32 USBInDMA_GetDescriptorStatus(int32 descriptor);
  48:Generated_Source\PSoC4/USBInDMA.h **** static void   USBInDMA_SetSrcAddress(int32 descriptor, void * srcAddress);
  49:Generated_Source\PSoC4/USBInDMA.h **** static void * USBInDMA_GetSrcAddress(int32 descriptor);
  50:Generated_Source\PSoC4/USBInDMA.h **** static void   USBInDMA_SetDstAddress(int32 descriptor, void * dstAddress);
  51:Generated_Source\PSoC4/USBInDMA.h **** static void * USBInDMA_GetDstAddress(int32 descriptor);
  52:Generated_Source\PSoC4/USBInDMA.h **** static void   USBInDMA_SetDataElementSize(int32 descriptor, uint32 dataElementSize);
  53:Generated_Source\PSoC4/USBInDMA.h **** static uint32 USBInDMA_GetDataElementSize(int32 descriptor);
  54:Generated_Source\PSoC4/USBInDMA.h **** static void   USBInDMA_SetNumDataElements(int32 descriptor, int32 numDataElements);
  55:Generated_Source\PSoC4/USBInDMA.h **** static int32  USBInDMA_GetNumDataElements(int32 descriptor);
  56:Generated_Source\PSoC4/USBInDMA.h **** static void   USBInDMA_SetSrcDstTransferWidth(int32 descriptor, uint32 transferWidth);
  57:Generated_Source\PSoC4/USBInDMA.h **** static uint32 USBInDMA_GetSrcDstTransferWidth(int32 descriptor);
  58:Generated_Source\PSoC4/USBInDMA.h **** static void   USBInDMA_SetAddressIncrement(int32 descriptor, uint32 addressIncrement);
  59:Generated_Source\PSoC4/USBInDMA.h **** static uint32 USBInDMA_GetAddressIncrement(int32 descriptor);
  60:Generated_Source\PSoC4/USBInDMA.h **** static void   USBInDMA_SetTriggerType(int32 descriptor, uint32 triggerType);
  61:Generated_Source\PSoC4/USBInDMA.h **** static uint32 USBInDMA_GetTriggerType(int32 descriptor);
  62:Generated_Source\PSoC4/USBInDMA.h **** static void   USBInDMA_SetTransferMode(int32 descriptor, uint32 transferMode);
  63:Generated_Source\PSoC4/USBInDMA.h **** static uint32 USBInDMA_GetTransferMode(int32 descriptor);
  64:Generated_Source\PSoC4/USBInDMA.h **** static void   USBInDMA_SetPreemptable(int32 descriptor, uint32 preemptable);
  65:Generated_Source\PSoC4/USBInDMA.h **** static uint32 USBInDMA_GetPreemptable(int32 descriptor);
  66:Generated_Source\PSoC4/USBInDMA.h **** static void   USBInDMA_SetPostCompletionActions(int32 descriptor, uint32 actions);
  67:Generated_Source\PSoC4/USBInDMA.h **** static uint32 USBInDMA_GetPostCompletionAction(int32 descriptor);
  68:Generated_Source\PSoC4/USBInDMA.h **** static cydma_callback_t USBInDMA_SetInterruptCallback(cydma_callback_t callback);
  69:Generated_Source\PSoC4/USBInDMA.h **** static cydma_callback_t USBInDMA_GetInterruptCallback(void);
  70:Generated_Source\PSoC4/USBInDMA.h **** 
  71:Generated_Source\PSoC4/USBInDMA.h **** 
  72:Generated_Source\PSoC4/USBInDMA.h **** /*******************************************************************************
  73:Generated_Source\PSoC4/USBInDMA.h **** * Function Name: USBInDMA_ChEnable
  74:Generated_Source\PSoC4/USBInDMA.h **** ********************************************************************************
  75:Generated_Source\PSoC4/USBInDMA.h **** *
  76:Generated_Source\PSoC4/USBInDMA.h **** * Summary:
  77:Generated_Source\PSoC4/USBInDMA.h **** *  Enables the DMA channel. It is not necessary to call USBInDMA_ChEnable()
  78:Generated_Source\PSoC4/USBInDMA.h **** *  because the USBInDMA_Start() API calls this function, which is the
  79:Generated_Source\PSoC4/USBInDMA.h **** *  preferred method to begin the component operation.
  80:Generated_Source\PSoC4/USBInDMA.h **** *
  81:Generated_Source\PSoC4/USBInDMA.h **** * Parameters:
  82:Generated_Source\PSoC4/USBInDMA.h **** *  None.
  83:Generated_Source\PSoC4/USBInDMA.h **** *                   
  84:Generated_Source\PSoC4/USBInDMA.h **** * Return:
  85:Generated_Source\PSoC4/USBInDMA.h **** *  None.
  86:Generated_Source\PSoC4/USBInDMA.h **** *
ARM GAS  C:\Users\TERENC~1\AppData\Local\Temp\ccVvxQiY.s 			page 6


  87:Generated_Source\PSoC4/USBInDMA.h **** * Side effect:
  88:Generated_Source\PSoC4/USBInDMA.h **** *  If this function is called before USBInDMA_Start(), or USBInDMA_Init()
  89:Generated_Source\PSoC4/USBInDMA.h **** *  or USBInDMA_SetConfiguration(), and USBInDMA_SetSrcAddress()
  90:Generated_Source\PSoC4/USBInDMA.h **** *  and USBInDMA_SetDstAddress the operation of the DMA is 
  91:Generated_Source\PSoC4/USBInDMA.h **** *  undefined and could result in system data corruption. 
  92:Generated_Source\PSoC4/USBInDMA.h **** *
  93:Generated_Source\PSoC4/USBInDMA.h **** *******************************************************************************/
  94:Generated_Source\PSoC4/USBInDMA.h **** static CY_INLINE void USBInDMA_ChEnable(void)
  95:Generated_Source\PSoC4/USBInDMA.h **** {
  96:Generated_Source\PSoC4/USBInDMA.h ****     CyDmaChEnable(USBInDMA_CHANNEL);
  97:Generated_Source\PSoC4/USBInDMA.h **** }
  98:Generated_Source\PSoC4/USBInDMA.h **** 
  99:Generated_Source\PSoC4/USBInDMA.h **** 
 100:Generated_Source\PSoC4/USBInDMA.h **** /*******************************************************************************
 101:Generated_Source\PSoC4/USBInDMA.h **** * Function Name: USBInDMA_ChDisable
 102:Generated_Source\PSoC4/USBInDMA.h **** ********************************************************************************
 103:Generated_Source\PSoC4/USBInDMA.h **** *
 104:Generated_Source\PSoC4/USBInDMA.h **** * Summary:
 105:Generated_Source\PSoC4/USBInDMA.h **** *  Disables the DMA channel.
 106:Generated_Source\PSoC4/USBInDMA.h **** *
 107:Generated_Source\PSoC4/USBInDMA.h **** * Parameters:
 108:Generated_Source\PSoC4/USBInDMA.h **** *  None.
 109:Generated_Source\PSoC4/USBInDMA.h **** *                   
 110:Generated_Source\PSoC4/USBInDMA.h **** * Return:
 111:Generated_Source\PSoC4/USBInDMA.h **** *  None.
 112:Generated_Source\PSoC4/USBInDMA.h **** *
 113:Generated_Source\PSoC4/USBInDMA.h **** * Side effect:
 114:Generated_Source\PSoC4/USBInDMA.h **** *  If this function is called during a DMA transfer the transfer is aborted. 
 115:Generated_Source\PSoC4/USBInDMA.h **** *
 116:Generated_Source\PSoC4/USBInDMA.h **** *******************************************************************************/
 117:Generated_Source\PSoC4/USBInDMA.h **** static CY_INLINE void USBInDMA_ChDisable(void)
 118:Generated_Source\PSoC4/USBInDMA.h **** {
 119:Generated_Source\PSoC4/USBInDMA.h ****     CyDmaChDisable(USBInDMA_CHANNEL);
 120:Generated_Source\PSoC4/USBInDMA.h **** }
 121:Generated_Source\PSoC4/USBInDMA.h **** 
 122:Generated_Source\PSoC4/USBInDMA.h **** 
 123:Generated_Source\PSoC4/USBInDMA.h **** /*******************************************************************************
 124:Generated_Source\PSoC4/USBInDMA.h **** * Function Name: USBInDMA_Trigger
 125:Generated_Source\PSoC4/USBInDMA.h **** ********************************************************************************
 126:Generated_Source\PSoC4/USBInDMA.h **** *
 127:Generated_Source\PSoC4/USBInDMA.h **** * Summary:
 128:Generated_Source\PSoC4/USBInDMA.h **** *  Triggers the DMA channel, this is useful only for software triggers. This is
 129:Generated_Source\PSoC4/USBInDMA.h **** *  not needed when hardware triggers are used.
 130:Generated_Source\PSoC4/USBInDMA.h **** *
 131:Generated_Source\PSoC4/USBInDMA.h **** * Parameters:
 132:Generated_Source\PSoC4/USBInDMA.h **** *  None.
 133:Generated_Source\PSoC4/USBInDMA.h **** *                   
 134:Generated_Source\PSoC4/USBInDMA.h **** * Return:
 135:Generated_Source\PSoC4/USBInDMA.h **** *  None. 
 136:Generated_Source\PSoC4/USBInDMA.h **** *
 137:Generated_Source\PSoC4/USBInDMA.h **** *******************************************************************************/
 138:Generated_Source\PSoC4/USBInDMA.h **** static CY_INLINE void USBInDMA_Trigger(void)
 139:Generated_Source\PSoC4/USBInDMA.h **** {
 140:Generated_Source\PSoC4/USBInDMA.h ****     CyDmaTrigger(USBInDMA_CHANNEL);
 141:Generated_Source\PSoC4/USBInDMA.h **** }
 142:Generated_Source\PSoC4/USBInDMA.h **** 
 143:Generated_Source\PSoC4/USBInDMA.h **** 
ARM GAS  C:\Users\TERENC~1\AppData\Local\Temp\ccVvxQiY.s 			page 7


 144:Generated_Source\PSoC4/USBInDMA.h **** /*******************************************************************************
 145:Generated_Source\PSoC4/USBInDMA.h **** * Function Name: USBInDMA_SetPriority
 146:Generated_Source\PSoC4/USBInDMA.h **** ********************************************************************************
 147:Generated_Source\PSoC4/USBInDMA.h **** *
 148:Generated_Source\PSoC4/USBInDMA.h **** * Summary:
 149:Generated_Source\PSoC4/USBInDMA.h **** *  Sets the priority for the channel.
 150:Generated_Source\PSoC4/USBInDMA.h **** *
 151:Generated_Source\PSoC4/USBInDMA.h **** * Parameters:
 152:Generated_Source\PSoC4/USBInDMA.h **** *  priority: Priority for channel. Priority can be 0,1,2, or 3.
 153:Generated_Source\PSoC4/USBInDMA.h **** *            0 is the highest priority.
 154:Generated_Source\PSoC4/USBInDMA.h **** *                   
 155:Generated_Source\PSoC4/USBInDMA.h **** * Return:
 156:Generated_Source\PSoC4/USBInDMA.h **** *  None.
 157:Generated_Source\PSoC4/USBInDMA.h **** *
 158:Generated_Source\PSoC4/USBInDMA.h **** * Side effect:
 159:Generated_Source\PSoC4/USBInDMA.h **** *  This function should not be called while the channel is enabled.
 160:Generated_Source\PSoC4/USBInDMA.h **** *
 161:Generated_Source\PSoC4/USBInDMA.h **** *******************************************************************************/
 162:Generated_Source\PSoC4/USBInDMA.h **** static CY_INLINE void USBInDMA_SetPriority(int32 priority)
 163:Generated_Source\PSoC4/USBInDMA.h **** {
 164:Generated_Source\PSoC4/USBInDMA.h ****     CyDmaSetPriority(USBInDMA_CHANNEL, priority);
 165:Generated_Source\PSoC4/USBInDMA.h **** }
 166:Generated_Source\PSoC4/USBInDMA.h **** 
 167:Generated_Source\PSoC4/USBInDMA.h **** 
 168:Generated_Source\PSoC4/USBInDMA.h **** /*******************************************************************************
 169:Generated_Source\PSoC4/USBInDMA.h **** * Function Name: USBInDMA_GetPriority
 170:Generated_Source\PSoC4/USBInDMA.h **** ********************************************************************************
 171:Generated_Source\PSoC4/USBInDMA.h **** *
 172:Generated_Source\PSoC4/USBInDMA.h **** * Summary:
 173:Generated_Source\PSoC4/USBInDMA.h **** *  Gets the priority for the channel.
 174:Generated_Source\PSoC4/USBInDMA.h **** *
 175:Generated_Source\PSoC4/USBInDMA.h **** * Parameters:
 176:Generated_Source\PSoC4/USBInDMA.h **** *  None.
 177:Generated_Source\PSoC4/USBInDMA.h **** *                   
 178:Generated_Source\PSoC4/USBInDMA.h **** * Return:
 179:Generated_Source\PSoC4/USBInDMA.h **** *  Priority for channel. Priority can be 0,1,2, or 3. 0 is the highest priority.
 180:Generated_Source\PSoC4/USBInDMA.h **** *
 181:Generated_Source\PSoC4/USBInDMA.h **** *******************************************************************************/
 182:Generated_Source\PSoC4/USBInDMA.h **** static CY_INLINE int32 USBInDMA_GetPriority(void)
 183:Generated_Source\PSoC4/USBInDMA.h **** {
 184:Generated_Source\PSoC4/USBInDMA.h ****     return (CyDmaGetPriority(USBInDMA_CHANNEL));
 185:Generated_Source\PSoC4/USBInDMA.h **** }
 186:Generated_Source\PSoC4/USBInDMA.h **** 
 187:Generated_Source\PSoC4/USBInDMA.h **** 
 188:Generated_Source\PSoC4/USBInDMA.h **** /*******************************************************************************
 189:Generated_Source\PSoC4/USBInDMA.h **** * Function Name: USBInDMA_SetNextDescriptor
 190:Generated_Source\PSoC4/USBInDMA.h **** ********************************************************************************
 191:Generated_Source\PSoC4/USBInDMA.h **** *
 192:Generated_Source\PSoC4/USBInDMA.h **** * Summary:
 193:Generated_Source\PSoC4/USBInDMA.h **** *  Sets the descriptor that should be run the next time the channel is
 194:Generated_Source\PSoC4/USBInDMA.h **** *  triggered.
 195:Generated_Source\PSoC4/USBInDMA.h **** *
 196:Generated_Source\PSoC4/USBInDMA.h **** * Parameters:
 197:Generated_Source\PSoC4/USBInDMA.h **** *  descriptor: Next Descriptor to run (0 or 1).
 198:Generated_Source\PSoC4/USBInDMA.h **** *                   
 199:Generated_Source\PSoC4/USBInDMA.h **** * Side effect:
 200:Generated_Source\PSoC4/USBInDMA.h **** *  This function should not be called while the channel is enabled.
ARM GAS  C:\Users\TERENC~1\AppData\Local\Temp\ccVvxQiY.s 			page 8


 201:Generated_Source\PSoC4/USBInDMA.h **** *
 202:Generated_Source\PSoC4/USBInDMA.h **** *******************************************************************************/
 203:Generated_Source\PSoC4/USBInDMA.h **** static CY_INLINE void USBInDMA_SetNextDescriptor(int32 descriptor)
 204:Generated_Source\PSoC4/USBInDMA.h **** {
 205:Generated_Source\PSoC4/USBInDMA.h ****     CyDmaSetNextDescriptor(USBInDMA_CHANNEL, descriptor);
 206:Generated_Source\PSoC4/USBInDMA.h **** }
 207:Generated_Source\PSoC4/USBInDMA.h **** 
 208:Generated_Source\PSoC4/USBInDMA.h **** 
 209:Generated_Source\PSoC4/USBInDMA.h **** /*******************************************************************************
 210:Generated_Source\PSoC4/USBInDMA.h **** * Function Name: USBInDMA_GetNextDescriptor
 211:Generated_Source\PSoC4/USBInDMA.h **** ********************************************************************************
 212:Generated_Source\PSoC4/USBInDMA.h **** *
 213:Generated_Source\PSoC4/USBInDMA.h **** * Summary:
 214:Generated_Source\PSoC4/USBInDMA.h **** *  Returns the next descriptor that should be run, as set by 
 215:Generated_Source\PSoC4/USBInDMA.h **** *  USBInDMA_SetNextDescriptor().
 216:Generated_Source\PSoC4/USBInDMA.h **** *
 217:Generated_Source\PSoC4/USBInDMA.h **** * Parameters:
 218:Generated_Source\PSoC4/USBInDMA.h **** *  None.
 219:Generated_Source\PSoC4/USBInDMA.h **** *                   
 220:Generated_Source\PSoC4/USBInDMA.h **** * Return:
 221:Generated_Source\PSoC4/USBInDMA.h **** *  Next Descriptor to run (0 or 1).
 222:Generated_Source\PSoC4/USBInDMA.h **** *
 223:Generated_Source\PSoC4/USBInDMA.h **** *******************************************************************************/
 224:Generated_Source\PSoC4/USBInDMA.h **** static CY_INLINE int32 USBInDMA_GetNextDescriptor(void)
 225:Generated_Source\PSoC4/USBInDMA.h **** {
 226:Generated_Source\PSoC4/USBInDMA.h ****     return (CyDmaGetNextDescriptor(USBInDMA_CHANNEL));
 227:Generated_Source\PSoC4/USBInDMA.h **** }
 228:Generated_Source\PSoC4/USBInDMA.h **** 
 229:Generated_Source\PSoC4/USBInDMA.h **** 
 230:Generated_Source\PSoC4/USBInDMA.h **** /*******************************************************************************
 231:Generated_Source\PSoC4/USBInDMA.h **** * Function Name: USBInDMA_SetConfiguration
 232:Generated_Source\PSoC4/USBInDMA.h **** ********************************************************************************
 233:Generated_Source\PSoC4/USBInDMA.h **** *
 234:Generated_Source\PSoC4/USBInDMA.h **** * Summary:
 235:Generated_Source\PSoC4/USBInDMA.h **** *  Sets configuration information for the specified descriptor.
 236:Generated_Source\PSoC4/USBInDMA.h **** *
 237:Generated_Source\PSoC4/USBInDMA.h **** * Parameters:
 238:Generated_Source\PSoC4/USBInDMA.h **** *  descriptor: Descriptor (0 or 1) modified by this function.
 239:Generated_Source\PSoC4/USBInDMA.h **** *  config: Pointer to a configuration structure. Refer to cydma_init_struct
 240:Generated_Source\PSoC4/USBInDMA.h **** *          structure definition in CyDMA_P4.h or the component datasheet.
 241:Generated_Source\PSoC4/USBInDMA.h **** *                   
 242:Generated_Source\PSoC4/USBInDMA.h **** * Return:
 243:Generated_Source\PSoC4/USBInDMA.h **** *  None.
 244:Generated_Source\PSoC4/USBInDMA.h **** *
 245:Generated_Source\PSoC4/USBInDMA.h **** * Side effect:
 246:Generated_Source\PSoC4/USBInDMA.h **** *  The status register associated with the specified descriptor is reset to
 247:Generated_Source\PSoC4/USBInDMA.h **** *  zero after this function call. This function also validates the descriptor.
 248:Generated_Source\PSoC4/USBInDMA.h **** *  This function should not be called while the descriptor is active.
 249:Generated_Source\PSoC4/USBInDMA.h **** *  This can be checked by calling CyDmaGetStatus().
 250:Generated_Source\PSoC4/USBInDMA.h **** *
 251:Generated_Source\PSoC4/USBInDMA.h **** *******************************************************************************/
 252:Generated_Source\PSoC4/USBInDMA.h **** static CY_INLINE void USBInDMA_SetConfiguration(int32 descriptor, const cydma_init_struct * config)
 253:Generated_Source\PSoC4/USBInDMA.h **** {
 254:Generated_Source\PSoC4/USBInDMA.h ****     CyDmaSetConfiguration(USBInDMA_CHANNEL, descriptor, config);
 255:Generated_Source\PSoC4/USBInDMA.h **** }
 256:Generated_Source\PSoC4/USBInDMA.h **** 
 257:Generated_Source\PSoC4/USBInDMA.h **** 
ARM GAS  C:\Users\TERENC~1\AppData\Local\Temp\ccVvxQiY.s 			page 9


 258:Generated_Source\PSoC4/USBInDMA.h **** /*******************************************************************************
 259:Generated_Source\PSoC4/USBInDMA.h **** * Function Name: USBInDMA_ValidateDescriptor
 260:Generated_Source\PSoC4/USBInDMA.h **** ********************************************************************************
 261:Generated_Source\PSoC4/USBInDMA.h **** *
 262:Generated_Source\PSoC4/USBInDMA.h **** * Summary:
 263:Generated_Source\PSoC4/USBInDMA.h **** *  Validates the specified descriptor after it has been invalidated.
 264:Generated_Source\PSoC4/USBInDMA.h **** *
 265:Generated_Source\PSoC4/USBInDMA.h **** * Parameters:
 266:Generated_Source\PSoC4/USBInDMA.h **** *  descriptor: Descriptor (0 or 1) modified by this function.
 267:Generated_Source\PSoC4/USBInDMA.h **** *                   
 268:Generated_Source\PSoC4/USBInDMA.h **** * Return:
 269:Generated_Source\PSoC4/USBInDMA.h **** *  None. 
 270:Generated_Source\PSoC4/USBInDMA.h **** *
 271:Generated_Source\PSoC4/USBInDMA.h **** * Side effect:
 272:Generated_Source\PSoC4/USBInDMA.h **** *  The status register associated with the specified descriptor is reset to
 273:Generated_Source\PSoC4/USBInDMA.h **** *  zero after this function call. This function should not be called while the
 274:Generated_Source\PSoC4/USBInDMA.h **** *  descriptor is active. This can be checked by calling CyDmaGetStatus().
 275:Generated_Source\PSoC4/USBInDMA.h **** *
 276:Generated_Source\PSoC4/USBInDMA.h **** *******************************************************************************/
 277:Generated_Source\PSoC4/USBInDMA.h **** static CY_INLINE void USBInDMA_ValidateDescriptor(int32 descriptor)
 278:Generated_Source\PSoC4/USBInDMA.h **** {
 279:Generated_Source\PSoC4/USBInDMA.h ****     CyDmaValidateDescriptor(USBInDMA_CHANNEL, descriptor);
 280:Generated_Source\PSoC4/USBInDMA.h **** }
 281:Generated_Source\PSoC4/USBInDMA.h **** 
 282:Generated_Source\PSoC4/USBInDMA.h **** 
 283:Generated_Source\PSoC4/USBInDMA.h **** /*******************************************************************************
 284:Generated_Source\PSoC4/USBInDMA.h **** * Function Name: USBInDMA_GetDescriptorStatus
 285:Generated_Source\PSoC4/USBInDMA.h **** ********************************************************************************
 286:Generated_Source\PSoC4/USBInDMA.h **** *
 287:Generated_Source\PSoC4/USBInDMA.h **** * Summary:
 288:Generated_Source\PSoC4/USBInDMA.h **** *  Returns the status of the specified descriptor.
 289:Generated_Source\PSoC4/USBInDMA.h **** *
 290:Generated_Source\PSoC4/USBInDMA.h **** * Parameters:
 291:Generated_Source\PSoC4/USBInDMA.h **** *  descriptor: Descriptor (0 or 1) modified by this function.
 292:Generated_Source\PSoC4/USBInDMA.h **** *                   
 293:Generated_Source\PSoC4/USBInDMA.h **** * Return:
 294:Generated_Source\PSoC4/USBInDMA.h **** *  Returns the contents of the specified descriptors status register. Refer to 
 295:Generated_Source\PSoC4/USBInDMA.h **** *  descriptor status register bit definitions in CyDMA_P4.h or the API
 296:Generated_Source\PSoC4/USBInDMA.h **** *  description in the DMA channel datasheet for more information.
 297:Generated_Source\PSoC4/USBInDMA.h **** *
 298:Generated_Source\PSoC4/USBInDMA.h **** *******************************************************************************/
 299:Generated_Source\PSoC4/USBInDMA.h **** static CY_INLINE uint32 USBInDMA_GetDescriptorStatus(int32 descriptor)
 300:Generated_Source\PSoC4/USBInDMA.h **** {
 301:Generated_Source\PSoC4/USBInDMA.h ****     return (CyDmaGetDescriptorStatus(USBInDMA_CHANNEL, descriptor));
 302:Generated_Source\PSoC4/USBInDMA.h **** }
 303:Generated_Source\PSoC4/USBInDMA.h **** 
 304:Generated_Source\PSoC4/USBInDMA.h **** 
 305:Generated_Source\PSoC4/USBInDMA.h **** /*******************************************************************************
 306:Generated_Source\PSoC4/USBInDMA.h **** * Function Name: USBInDMA_SetSrcAddress
 307:Generated_Source\PSoC4/USBInDMA.h **** ********************************************************************************
 308:Generated_Source\PSoC4/USBInDMA.h **** *
 309:Generated_Source\PSoC4/USBInDMA.h **** * Summary:
 310:Generated_Source\PSoC4/USBInDMA.h **** *  Configures the source address for the specified descriptor.
 311:Generated_Source\PSoC4/USBInDMA.h **** *
 312:Generated_Source\PSoC4/USBInDMA.h **** * Parameters:
 313:Generated_Source\PSoC4/USBInDMA.h **** *  descriptor: Descriptor (0 or 1) modified by this function.
 314:Generated_Source\PSoC4/USBInDMA.h **** *  srcAddress: Address of DMA transfer source.
ARM GAS  C:\Users\TERENC~1\AppData\Local\Temp\ccVvxQiY.s 			page 10


 315:Generated_Source\PSoC4/USBInDMA.h **** *                   
 316:Generated_Source\PSoC4/USBInDMA.h **** * Return:
 317:Generated_Source\PSoC4/USBInDMA.h **** *  None.
 318:Generated_Source\PSoC4/USBInDMA.h **** *
 319:Generated_Source\PSoC4/USBInDMA.h **** * Side effect:
 320:Generated_Source\PSoC4/USBInDMA.h **** *  This function should not be called when the specified descriptor is active
 321:Generated_Source\PSoC4/USBInDMA.h **** *  in the DMA transfer engine. This can be checked by calling CyDmaGetStatus(). 
 322:Generated_Source\PSoC4/USBInDMA.h **** *
 323:Generated_Source\PSoC4/USBInDMA.h **** *******************************************************************************/
 324:Generated_Source\PSoC4/USBInDMA.h **** static CY_INLINE void USBInDMA_SetSrcAddress(int32 descriptor, void * srcAddress)
 325:Generated_Source\PSoC4/USBInDMA.h **** {
 326:Generated_Source\PSoC4/USBInDMA.h ****     CyDmaSetSrcAddress(USBInDMA_CHANNEL, descriptor, srcAddress);
 107              		.loc 2 326 0
 108 001c 2A00     		movs	r2, r5
 109 001e 0021     		movs	r1, #0
 110 0020 0D20     		movs	r0, #13
 111 0022 FFF7FEFF 		bl	CyDmaSetSrcAddress
 112              	.LVL3:
 113              	.LBE11:
 114              	.LBE10:
 115              	.LBB12:
 116              	.LBB13:
 327:Generated_Source\PSoC4/USBInDMA.h **** }
 328:Generated_Source\PSoC4/USBInDMA.h **** 
 329:Generated_Source\PSoC4/USBInDMA.h **** 
 330:Generated_Source\PSoC4/USBInDMA.h **** /*******************************************************************************
 331:Generated_Source\PSoC4/USBInDMA.h **** * Function Name: USBInDMA_GetSrcAddress
 332:Generated_Source\PSoC4/USBInDMA.h **** ********************************************************************************
 333:Generated_Source\PSoC4/USBInDMA.h **** *
 334:Generated_Source\PSoC4/USBInDMA.h **** * Summary:
 335:Generated_Source\PSoC4/USBInDMA.h **** *  Returns the source address for the specified descriptor, set by either 
 336:Generated_Source\PSoC4/USBInDMA.h **** *  USBInDMA_Start() or USBInDMA_SetSrcAddress().
 337:Generated_Source\PSoC4/USBInDMA.h **** *
 338:Generated_Source\PSoC4/USBInDMA.h **** * Parameters:
 339:Generated_Source\PSoC4/USBInDMA.h **** *  descriptor: Specifies descriptor (0 or 1) used by this function.
 340:Generated_Source\PSoC4/USBInDMA.h **** *                   
 341:Generated_Source\PSoC4/USBInDMA.h **** * Return:
 342:Generated_Source\PSoC4/USBInDMA.h **** *  Source address written to specified descriptor.
 343:Generated_Source\PSoC4/USBInDMA.h **** *
 344:Generated_Source\PSoC4/USBInDMA.h **** *******************************************************************************/
 345:Generated_Source\PSoC4/USBInDMA.h **** static CY_INLINE void * USBInDMA_GetSrcAddress(int32 descriptor)
 346:Generated_Source\PSoC4/USBInDMA.h **** {
 347:Generated_Source\PSoC4/USBInDMA.h ****     return (CyDmaGetSrcAddress(USBInDMA_CHANNEL, descriptor));
 348:Generated_Source\PSoC4/USBInDMA.h **** }
 349:Generated_Source\PSoC4/USBInDMA.h **** 
 350:Generated_Source\PSoC4/USBInDMA.h **** 
 351:Generated_Source\PSoC4/USBInDMA.h **** /*******************************************************************************
 352:Generated_Source\PSoC4/USBInDMA.h **** * Function Name: USBInDMA_SetDstAddress
 353:Generated_Source\PSoC4/USBInDMA.h **** ********************************************************************************
 354:Generated_Source\PSoC4/USBInDMA.h **** *
 355:Generated_Source\PSoC4/USBInDMA.h **** * Summary:
 356:Generated_Source\PSoC4/USBInDMA.h **** *  Configures the destination address for the specified descriptor.
 357:Generated_Source\PSoC4/USBInDMA.h **** *
 358:Generated_Source\PSoC4/USBInDMA.h **** * Parameters:
 359:Generated_Source\PSoC4/USBInDMA.h **** *  descriptor: Descriptor (0 or 1) modified by this function.
 360:Generated_Source\PSoC4/USBInDMA.h **** *  dstAddress: Address of DMA transfer destination.
 361:Generated_Source\PSoC4/USBInDMA.h **** *                   
ARM GAS  C:\Users\TERENC~1\AppData\Local\Temp\ccVvxQiY.s 			page 11


 362:Generated_Source\PSoC4/USBInDMA.h **** * Return:
 363:Generated_Source\PSoC4/USBInDMA.h **** *  None.
 364:Generated_Source\PSoC4/USBInDMA.h **** *
 365:Generated_Source\PSoC4/USBInDMA.h **** * Side effect:
 366:Generated_Source\PSoC4/USBInDMA.h **** *  This function should not be called when the specified descriptor is active
 367:Generated_Source\PSoC4/USBInDMA.h **** *  in the DMA transfer engine. This can be checked by calling CyDmaGetStatus(). 
 368:Generated_Source\PSoC4/USBInDMA.h **** *
 369:Generated_Source\PSoC4/USBInDMA.h **** *******************************************************************************/
 370:Generated_Source\PSoC4/USBInDMA.h **** static CY_INLINE void USBInDMA_SetDstAddress(int32 descriptor, void * dstAddress)
 371:Generated_Source\PSoC4/USBInDMA.h **** {
 372:Generated_Source\PSoC4/USBInDMA.h ****     CyDmaSetDstAddress(USBInDMA_CHANNEL, descriptor, dstAddress);
 117              		.loc 2 372 0
 118 0026 2200     		movs	r2, r4
 119 0028 0021     		movs	r1, #0
 120 002a 0D20     		movs	r0, #13
 121 002c FFF7FEFF 		bl	CyDmaSetDstAddress
 122              	.LVL4:
 123              	.LBE13:
 124              	.LBE12:
 125              	.LBB14:
 126              	.LBB15:
 279:Generated_Source\PSoC4/USBInDMA.h **** }
 127              		.loc 2 279 0
 128 0030 0021     		movs	r1, #0
 129 0032 0D20     		movs	r0, #13
 130 0034 FFF7FEFF 		bl	CyDmaValidateDescriptor
 131              	.LVL5:
 132              	.LBE15:
 133              	.LBE14:
 134              	.LBB16:
 135              	.LBB17:
  96:Generated_Source\PSoC4/USBInDMA.h **** }
 136              		.loc 2 96 0
 137 0038 0D20     		movs	r0, #13
 138 003a FFF7FEFF 		bl	CyDmaChEnable
 139              	.LVL6:
 140              	.LBE17:
 141              	.LBE16:
  51:Generated_Source\PSoC4/USBInDMA.c **** 
 142              		.loc 1 51 0
 143              		@ sp needed
 144              	.LVL7:
 145              	.LVL8:
 146 003e 70BD     		pop	{r4, r5, r6, pc}
 147              	.L7:
 148              		.align	2
 149              	.L6:
 150 0040 00000000 		.word	.LANCHOR0
 151              		.cfi_endproc
 152              	.LFE32:
 153              		.size	USBInDMA_Start, .-USBInDMA_Start
 154              		.global	USBInDMA_initVar
 155              		.bss
 156              		.set	.LANCHOR0,. + 0
 157              		.type	USBInDMA_initVar, %object
 158              		.size	USBInDMA_initVar, 1
 159              	USBInDMA_initVar:
ARM GAS  C:\Users\TERENC~1\AppData\Local\Temp\ccVvxQiY.s 			page 12


 160 0000 00       		.space	1
 161              		.text
 162              	.Letext0:
 163              		.file 3 "Generated_Source\\PSoC4\\cytypes.h"
 164              		.file 4 "Generated_Source\\PSoC4\\CyDMA.h"