ARM GAS  C:\Users\TERENC~1\AppData\Local\Temp\ccz498Tm.s 			page 1


   1              		.syntax unified
   2              		.cpu cortex-m0
   3              		.fpu softvfp
   4              		.eabi_attribute 20, 1
   5              		.eabi_attribute 21, 1
   6              		.eabi_attribute 23, 3
   7              		.eabi_attribute 24, 1
   8              		.eabi_attribute 25, 1
   9              		.eabi_attribute 26, 1
  10              		.eabi_attribute 30, 1
  11              		.eabi_attribute 34, 0
  12              		.eabi_attribute 18, 4
  13              		.thumb
  14              		.syntax unified
  15              		.file	"USBUART_std.c"
  16              		.text
  17              	.Ltext0:
  18              		.cfi_sections	.debug_frame
  19              		.section	.text.USBUART_ReadDieID,"ax",%progbits
  20              		.align	2
  21              		.global	USBUART_ReadDieID
  22              		.code	16
  23              		.thumb_func
  24              		.type	USBUART_ReadDieID, %function
  25              	USBUART_ReadDieID:
  26              	.LFB2:
  27              		.file 1 "Generated_Source\\PSoC4\\USBUART_std.c"
   1:Generated_Source\PSoC4/USBUART_std.c **** /***************************************************************************//**
   2:Generated_Source\PSoC4/USBUART_std.c **** * \file USBUART_std.c
   3:Generated_Source\PSoC4/USBUART_std.c **** * \version 3.10
   4:Generated_Source\PSoC4/USBUART_std.c **** *
   5:Generated_Source\PSoC4/USBUART_std.c **** * \brief
   6:Generated_Source\PSoC4/USBUART_std.c **** *  This file contains the USB Standard request handler.
   7:Generated_Source\PSoC4/USBUART_std.c **** *
   8:Generated_Source\PSoC4/USBUART_std.c **** ********************************************************************************
   9:Generated_Source\PSoC4/USBUART_std.c **** * \copyright
  10:Generated_Source\PSoC4/USBUART_std.c **** * Copyright 2008-2016, Cypress Semiconductor Corporation.  All rights reserved.
  11:Generated_Source\PSoC4/USBUART_std.c **** * You may use this file only in accordance with the license, terms, conditions,
  12:Generated_Source\PSoC4/USBUART_std.c **** * disclaimers, and limitations in the end user license agreement accompanying
  13:Generated_Source\PSoC4/USBUART_std.c **** * the software package with which this file was provided.
  14:Generated_Source\PSoC4/USBUART_std.c **** *******************************************************************************/
  15:Generated_Source\PSoC4/USBUART_std.c **** 
  16:Generated_Source\PSoC4/USBUART_std.c **** #include "USBUART_pvt.h"
  17:Generated_Source\PSoC4/USBUART_std.c **** 
  18:Generated_Source\PSoC4/USBUART_std.c **** /***************************************
  19:Generated_Source\PSoC4/USBUART_std.c **** *   Static data allocation
  20:Generated_Source\PSoC4/USBUART_std.c **** ***************************************/
  21:Generated_Source\PSoC4/USBUART_std.c **** 
  22:Generated_Source\PSoC4/USBUART_std.c **** #if defined(USBUART_ENABLE_FWSN_STRING)
  23:Generated_Source\PSoC4/USBUART_std.c ****     static volatile uint8* USBUART_fwSerialNumberStringDescriptor;
  24:Generated_Source\PSoC4/USBUART_std.c ****     static volatile uint8  USBUART_snStringConfirm = USBUART_FALSE;
  25:Generated_Source\PSoC4/USBUART_std.c **** #endif  /* (USBUART_ENABLE_FWSN_STRING) */
  26:Generated_Source\PSoC4/USBUART_std.c **** 
  27:Generated_Source\PSoC4/USBUART_std.c **** #if defined(USBUART_ENABLE_FWSN_STRING)
  28:Generated_Source\PSoC4/USBUART_std.c ****     /***************************************************************************
  29:Generated_Source\PSoC4/USBUART_std.c ****     * Function Name: USBUART_SerialNumString
  30:Generated_Source\PSoC4/USBUART_std.c ****     ************************************************************************//**
ARM GAS  C:\Users\TERENC~1\AppData\Local\Temp\ccz498Tm.s 			page 2


  31:Generated_Source\PSoC4/USBUART_std.c ****     *
  32:Generated_Source\PSoC4/USBUART_std.c ****     *  This function is available only when the User Call Back option in the 
  33:Generated_Source\PSoC4/USBUART_std.c ****     *  Serial Number String descriptor properties is selected. Application 
  34:Generated_Source\PSoC4/USBUART_std.c ****     *  firmware can provide the source of the USB device serial number string 
  35:Generated_Source\PSoC4/USBUART_std.c ****     *  descriptor during run time. The default string is used if the application 
  36:Generated_Source\PSoC4/USBUART_std.c ****     *  firmware does not use this function or sets the wrong string descriptor.
  37:Generated_Source\PSoC4/USBUART_std.c ****     *
  38:Generated_Source\PSoC4/USBUART_std.c ****     *  \param snString:  Pointer to the user-defined string descriptor. The 
  39:Generated_Source\PSoC4/USBUART_std.c ****     *  string descriptor should meet the Universal Serial Bus Specification 
  40:Generated_Source\PSoC4/USBUART_std.c ****     *  revision 2.0 chapter 9.6.7
  41:Generated_Source\PSoC4/USBUART_std.c ****     *  Offset|Size|Value|Description
  42:Generated_Source\PSoC4/USBUART_std.c ****     *  ------|----|------|---------------------------------
  43:Generated_Source\PSoC4/USBUART_std.c ****     *  0     |1   |N     |Size of this descriptor in bytes
  44:Generated_Source\PSoC4/USBUART_std.c ****     *  1     |1   |0x03  |STRING Descriptor Type
  45:Generated_Source\PSoC4/USBUART_std.c ****     *  2     |N-2 |Number|UNICODE encoded string
  46:Generated_Source\PSoC4/USBUART_std.c ****     *  
  47:Generated_Source\PSoC4/USBUART_std.c ****     * *For example:* uint8 snString[16]={0x0E,0x03,'F',0,'W',0,'S',0,'N',0,'0',0,'1',0};
  48:Generated_Source\PSoC4/USBUART_std.c ****     *
  49:Generated_Source\PSoC4/USBUART_std.c ****     * \reentrant
  50:Generated_Source\PSoC4/USBUART_std.c ****     *  No.
  51:Generated_Source\PSoC4/USBUART_std.c ****     *
  52:Generated_Source\PSoC4/USBUART_std.c ****     ***************************************************************************/
  53:Generated_Source\PSoC4/USBUART_std.c ****     void  USBUART_SerialNumString(uint8 snString[]) 
  54:Generated_Source\PSoC4/USBUART_std.c ****     {
  55:Generated_Source\PSoC4/USBUART_std.c ****         USBUART_snStringConfirm = USBUART_FALSE;
  56:Generated_Source\PSoC4/USBUART_std.c ****         
  57:Generated_Source\PSoC4/USBUART_std.c ****         if (snString != NULL)
  58:Generated_Source\PSoC4/USBUART_std.c ****         {
  59:Generated_Source\PSoC4/USBUART_std.c ****             /* Check descriptor validation */
  60:Generated_Source\PSoC4/USBUART_std.c ****             if ((snString[0u] > 1u) && (snString[1u] == USBUART_DESCR_STRING))
  61:Generated_Source\PSoC4/USBUART_std.c ****             {
  62:Generated_Source\PSoC4/USBUART_std.c ****                 USBUART_fwSerialNumberStringDescriptor = snString;
  63:Generated_Source\PSoC4/USBUART_std.c ****                 USBUART_snStringConfirm = USBUART_TRUE;
  64:Generated_Source\PSoC4/USBUART_std.c ****             }
  65:Generated_Source\PSoC4/USBUART_std.c ****         }
  66:Generated_Source\PSoC4/USBUART_std.c ****     }
  67:Generated_Source\PSoC4/USBUART_std.c **** #endif  /* USBUART_ENABLE_FWSN_STRING */
  68:Generated_Source\PSoC4/USBUART_std.c **** 
  69:Generated_Source\PSoC4/USBUART_std.c **** 
  70:Generated_Source\PSoC4/USBUART_std.c **** /*******************************************************************************
  71:Generated_Source\PSoC4/USBUART_std.c **** * Function Name: USBUART_HandleStandardRqst
  72:Generated_Source\PSoC4/USBUART_std.c **** ****************************************************************************//**
  73:Generated_Source\PSoC4/USBUART_std.c **** *
  74:Generated_Source\PSoC4/USBUART_std.c **** *  This Routine dispatches standard requests
  75:Generated_Source\PSoC4/USBUART_std.c **** *
  76:Generated_Source\PSoC4/USBUART_std.c **** *
  77:Generated_Source\PSoC4/USBUART_std.c **** * \return
  78:Generated_Source\PSoC4/USBUART_std.c **** *  TRUE if request handled.
  79:Generated_Source\PSoC4/USBUART_std.c **** *
  80:Generated_Source\PSoC4/USBUART_std.c **** * \reentrant
  81:Generated_Source\PSoC4/USBUART_std.c **** *  No.
  82:Generated_Source\PSoC4/USBUART_std.c **** *
  83:Generated_Source\PSoC4/USBUART_std.c **** *******************************************************************************/
  84:Generated_Source\PSoC4/USBUART_std.c **** uint8 USBUART_HandleStandardRqst(void) 
  85:Generated_Source\PSoC4/USBUART_std.c **** {
  86:Generated_Source\PSoC4/USBUART_std.c ****     uint8 requestHandled = USBUART_FALSE;
  87:Generated_Source\PSoC4/USBUART_std.c ****     uint32 interfaceNumber;
ARM GAS  C:\Users\TERENC~1\AppData\Local\Temp\ccz498Tm.s 			page 3


  88:Generated_Source\PSoC4/USBUART_std.c ****     uint32 configurationN;
  89:Generated_Source\PSoC4/USBUART_std.c ****     uint32 bmRequestType = USBUART_bmRequestTypeReg;
  90:Generated_Source\PSoC4/USBUART_std.c **** 
  91:Generated_Source\PSoC4/USBUART_std.c **** #if defined(USBUART_ENABLE_STRINGS)
  92:Generated_Source\PSoC4/USBUART_std.c ****     volatile uint8 *pStr = 0u;
  93:Generated_Source\PSoC4/USBUART_std.c ****     #if defined(USBUART_ENABLE_DESCRIPTOR_STRINGS)
  94:Generated_Source\PSoC4/USBUART_std.c ****         uint8 nStr;
  95:Generated_Source\PSoC4/USBUART_std.c ****         uint8 descrLength;
  96:Generated_Source\PSoC4/USBUART_std.c ****     #endif /* (USBUART_ENABLE_DESCRIPTOR_STRINGS) */
  97:Generated_Source\PSoC4/USBUART_std.c **** #endif /* (USBUART_ENABLE_STRINGS) */
  98:Generated_Source\PSoC4/USBUART_std.c ****     
  99:Generated_Source\PSoC4/USBUART_std.c ****     static volatile uint8 USBUART_tBuffer[USBUART_STATUS_LENGTH_MAX];
 100:Generated_Source\PSoC4/USBUART_std.c ****     const T_USBUART_LUT CYCODE *pTmp;
 101:Generated_Source\PSoC4/USBUART_std.c **** 
 102:Generated_Source\PSoC4/USBUART_std.c ****     USBUART_currentTD.count = 0u;
 103:Generated_Source\PSoC4/USBUART_std.c **** 
 104:Generated_Source\PSoC4/USBUART_std.c ****     if (USBUART_RQST_DIR_D2H == (bmRequestType & USBUART_RQST_DIR_MASK))
 105:Generated_Source\PSoC4/USBUART_std.c ****     {
 106:Generated_Source\PSoC4/USBUART_std.c ****         /* Control Read */
 107:Generated_Source\PSoC4/USBUART_std.c ****         switch (USBUART_bRequestReg)
 108:Generated_Source\PSoC4/USBUART_std.c ****         {
 109:Generated_Source\PSoC4/USBUART_std.c ****             case USBUART_GET_DESCRIPTOR:
 110:Generated_Source\PSoC4/USBUART_std.c ****                 if (USBUART_DESCR_DEVICE ==USBUART_wValueHiReg)
 111:Generated_Source\PSoC4/USBUART_std.c ****                 {
 112:Generated_Source\PSoC4/USBUART_std.c ****                     pTmp = USBUART_GetDeviceTablePtr();
 113:Generated_Source\PSoC4/USBUART_std.c ****                     USBUART_currentTD.pData = (volatile uint8 *)pTmp->p_list;
 114:Generated_Source\PSoC4/USBUART_std.c ****                     USBUART_currentTD.count = USBUART_DEVICE_DESCR_LENGTH;
 115:Generated_Source\PSoC4/USBUART_std.c ****                     
 116:Generated_Source\PSoC4/USBUART_std.c ****                     requestHandled  = USBUART_InitControlRead();
 117:Generated_Source\PSoC4/USBUART_std.c ****                 }
 118:Generated_Source\PSoC4/USBUART_std.c ****                 else if (USBUART_DESCR_CONFIG == USBUART_wValueHiReg)
 119:Generated_Source\PSoC4/USBUART_std.c ****                 {
 120:Generated_Source\PSoC4/USBUART_std.c ****                     pTmp = USBUART_GetConfigTablePtr((uint8) USBUART_wValueLoReg);
 121:Generated_Source\PSoC4/USBUART_std.c ****                     
 122:Generated_Source\PSoC4/USBUART_std.c ****                     /* Verify that requested descriptor exists */
 123:Generated_Source\PSoC4/USBUART_std.c ****                     if (pTmp != NULL)
 124:Generated_Source\PSoC4/USBUART_std.c ****                     {
 125:Generated_Source\PSoC4/USBUART_std.c ****                         USBUART_currentTD.pData = (volatile uint8 *)pTmp->p_list;
 126:Generated_Source\PSoC4/USBUART_std.c ****                         USBUART_currentTD.count = (uint16)((uint16)(USBUART_currentTD.pData)[USBUAR
 127:Generated_Source\PSoC4/USBUART_std.c ****                                                                             (USBUART_currentTD.pDat
 128:Generated_Source\PSoC4/USBUART_std.c ****                         requestHandled  = USBUART_InitControlRead();
 129:Generated_Source\PSoC4/USBUART_std.c ****                     }
 130:Generated_Source\PSoC4/USBUART_std.c ****                 }
 131:Generated_Source\PSoC4/USBUART_std.c ****                 
 132:Generated_Source\PSoC4/USBUART_std.c ****             #if(USBUART_BOS_ENABLE)
 133:Generated_Source\PSoC4/USBUART_std.c ****                 else if (USBUART_DESCR_BOS == USBUART_wValueHiReg)
 134:Generated_Source\PSoC4/USBUART_std.c ****                 {
 135:Generated_Source\PSoC4/USBUART_std.c ****                     pTmp = USBUART_GetBOSPtr();
 136:Generated_Source\PSoC4/USBUART_std.c ****                     
 137:Generated_Source\PSoC4/USBUART_std.c ****                     /* Verify that requested descriptor exists */
 138:Generated_Source\PSoC4/USBUART_std.c ****                     if (pTmp != NULL)
 139:Generated_Source\PSoC4/USBUART_std.c ****                     {
 140:Generated_Source\PSoC4/USBUART_std.c ****                         USBUART_currentTD.pData = (volatile uint8 *)pTmp;
 141:Generated_Source\PSoC4/USBUART_std.c ****                         USBUART_currentTD.count = ((uint16)((uint16)(USBUART_currentTD.pData)[USBUA
 142:Generated_Source\PSoC4/USBUART_std.c ****                                                                              (USBUART_currentTD.pDa
 143:Generated_Source\PSoC4/USBUART_std.c ****                         requestHandled  = USBUART_InitControlRead();
 144:Generated_Source\PSoC4/USBUART_std.c ****                     }
ARM GAS  C:\Users\TERENC~1\AppData\Local\Temp\ccz498Tm.s 			page 4


 145:Generated_Source\PSoC4/USBUART_std.c ****                 }
 146:Generated_Source\PSoC4/USBUART_std.c ****             #endif /*(USBUART_BOS_ENABLE)*/
 147:Generated_Source\PSoC4/USBUART_std.c ****             
 148:Generated_Source\PSoC4/USBUART_std.c ****             #if defined(USBUART_ENABLE_STRINGS)
 149:Generated_Source\PSoC4/USBUART_std.c ****                 else if (USBUART_DESCR_STRING == USBUART_wValueHiReg)
 150:Generated_Source\PSoC4/USBUART_std.c ****                 {
 151:Generated_Source\PSoC4/USBUART_std.c ****                 /* Descriptor Strings */
 152:Generated_Source\PSoC4/USBUART_std.c ****                 #if defined(USBUART_ENABLE_DESCRIPTOR_STRINGS)
 153:Generated_Source\PSoC4/USBUART_std.c ****                     nStr = 0u;
 154:Generated_Source\PSoC4/USBUART_std.c ****                     pStr = (volatile uint8 *) &USBUART_STRING_DESCRIPTORS[0u];
 155:Generated_Source\PSoC4/USBUART_std.c ****                     
 156:Generated_Source\PSoC4/USBUART_std.c ****                     while ((USBUART_wValueLoReg > nStr) && (*pStr != 0u))
 157:Generated_Source\PSoC4/USBUART_std.c ****                     {
 158:Generated_Source\PSoC4/USBUART_std.c ****                         /* Read descriptor length from 1st byte */
 159:Generated_Source\PSoC4/USBUART_std.c ****                         descrLength = *pStr;
 160:Generated_Source\PSoC4/USBUART_std.c ****                         /* Move to next string descriptor */
 161:Generated_Source\PSoC4/USBUART_std.c ****                         pStr = &pStr[descrLength];
 162:Generated_Source\PSoC4/USBUART_std.c ****                         nStr++;
 163:Generated_Source\PSoC4/USBUART_std.c ****                     }
 164:Generated_Source\PSoC4/USBUART_std.c ****                 #endif /* (USBUART_ENABLE_DESCRIPTOR_STRINGS) */
 165:Generated_Source\PSoC4/USBUART_std.c ****                 
 166:Generated_Source\PSoC4/USBUART_std.c ****                 /* Microsoft OS String */
 167:Generated_Source\PSoC4/USBUART_std.c ****                 #if defined(USBUART_ENABLE_MSOS_STRING)
 168:Generated_Source\PSoC4/USBUART_std.c ****                     if (USBUART_STRING_MSOS == USBUART_wValueLoReg)
 169:Generated_Source\PSoC4/USBUART_std.c ****                     {
 170:Generated_Source\PSoC4/USBUART_std.c ****                         pStr = (volatile uint8 *)& USBUART_MSOS_DESCRIPTOR[0u];
 171:Generated_Source\PSoC4/USBUART_std.c ****                     }
 172:Generated_Source\PSoC4/USBUART_std.c ****                 #endif /* (USBUART_ENABLE_MSOS_STRING) */
 173:Generated_Source\PSoC4/USBUART_std.c ****                 
 174:Generated_Source\PSoC4/USBUART_std.c ****                 /* SN string */
 175:Generated_Source\PSoC4/USBUART_std.c ****                 #if defined(USBUART_ENABLE_SN_STRING)
 176:Generated_Source\PSoC4/USBUART_std.c ****                     if ((USBUART_wValueLoReg != 0u) && 
 177:Generated_Source\PSoC4/USBUART_std.c ****                         (USBUART_wValueLoReg == USBUART_DEVICE0_DESCR[USBUART_DEVICE_DESCR_SN_SHIFT
 178:Generated_Source\PSoC4/USBUART_std.c ****                     {
 179:Generated_Source\PSoC4/USBUART_std.c ****                     #if defined(USBUART_ENABLE_IDSN_STRING)
 180:Generated_Source\PSoC4/USBUART_std.c ****                         /* Read DIE ID and generate string descriptor in RAM */
 181:Generated_Source\PSoC4/USBUART_std.c ****                         USBUART_ReadDieID(USBUART_idSerialNumberStringDescriptor);
 182:Generated_Source\PSoC4/USBUART_std.c ****                         pStr = USBUART_idSerialNumberStringDescriptor;
 183:Generated_Source\PSoC4/USBUART_std.c ****                     #elif defined(USBUART_ENABLE_FWSN_STRING)
 184:Generated_Source\PSoC4/USBUART_std.c ****                         
 185:Generated_Source\PSoC4/USBUART_std.c ****                         if(USBUART_snStringConfirm != USBUART_FALSE)
 186:Generated_Source\PSoC4/USBUART_std.c ****                         {
 187:Generated_Source\PSoC4/USBUART_std.c ****                             pStr = USBUART_fwSerialNumberStringDescriptor;
 188:Generated_Source\PSoC4/USBUART_std.c ****                         }
 189:Generated_Source\PSoC4/USBUART_std.c ****                         else
 190:Generated_Source\PSoC4/USBUART_std.c ****                         {
 191:Generated_Source\PSoC4/USBUART_std.c ****                             pStr = (volatile uint8 *)&USBUART_SN_STRING_DESCRIPTOR[0u];
 192:Generated_Source\PSoC4/USBUART_std.c ****                         }
 193:Generated_Source\PSoC4/USBUART_std.c ****                     #else
 194:Generated_Source\PSoC4/USBUART_std.c ****                         pStr = (volatile uint8 *)&USBUART_SN_STRING_DESCRIPTOR[0u];
 195:Generated_Source\PSoC4/USBUART_std.c ****                     #endif  /* (USBUART_ENABLE_IDSN_STRING) */
 196:Generated_Source\PSoC4/USBUART_std.c ****                     }
 197:Generated_Source\PSoC4/USBUART_std.c ****                 #endif /* (USBUART_ENABLE_SN_STRING) */
 198:Generated_Source\PSoC4/USBUART_std.c ****                 
 199:Generated_Source\PSoC4/USBUART_std.c ****                     if (*pStr != 0u)
 200:Generated_Source\PSoC4/USBUART_std.c ****                     {
 201:Generated_Source\PSoC4/USBUART_std.c ****                         USBUART_currentTD.count = *pStr;
ARM GAS  C:\Users\TERENC~1\AppData\Local\Temp\ccz498Tm.s 			page 5


 202:Generated_Source\PSoC4/USBUART_std.c ****                         USBUART_currentTD.pData = pStr;
 203:Generated_Source\PSoC4/USBUART_std.c ****                         requestHandled  = USBUART_InitControlRead();
 204:Generated_Source\PSoC4/USBUART_std.c ****                     }
 205:Generated_Source\PSoC4/USBUART_std.c ****                 }
 206:Generated_Source\PSoC4/USBUART_std.c ****             #endif /*  USBUART_ENABLE_STRINGS */
 207:Generated_Source\PSoC4/USBUART_std.c ****                 else
 208:Generated_Source\PSoC4/USBUART_std.c ****                 {
 209:Generated_Source\PSoC4/USBUART_std.c ****                     requestHandled = USBUART_DispatchClassRqst();
 210:Generated_Source\PSoC4/USBUART_std.c ****                 }
 211:Generated_Source\PSoC4/USBUART_std.c ****                 break;
 212:Generated_Source\PSoC4/USBUART_std.c ****                 
 213:Generated_Source\PSoC4/USBUART_std.c ****             case USBUART_GET_STATUS:
 214:Generated_Source\PSoC4/USBUART_std.c ****                 switch (bmRequestType & USBUART_RQST_RCPT_MASK)
 215:Generated_Source\PSoC4/USBUART_std.c ****                 {
 216:Generated_Source\PSoC4/USBUART_std.c ****                     case USBUART_RQST_RCPT_EP:
 217:Generated_Source\PSoC4/USBUART_std.c ****                         USBUART_currentTD.count = USBUART_EP_STATUS_LENGTH;
 218:Generated_Source\PSoC4/USBUART_std.c ****                         USBUART_tBuffer[0u]     = USBUART_EP[USBUART_wIndexLoReg & USBUART_DIR_UNUS
 219:Generated_Source\PSoC4/USBUART_std.c ****                         USBUART_tBuffer[1u]     = 0u;
 220:Generated_Source\PSoC4/USBUART_std.c ****                         USBUART_currentTD.pData = &USBUART_tBuffer[0u];
 221:Generated_Source\PSoC4/USBUART_std.c ****                         
 222:Generated_Source\PSoC4/USBUART_std.c ****                         requestHandled  = USBUART_InitControlRead();
 223:Generated_Source\PSoC4/USBUART_std.c ****                         break;
 224:Generated_Source\PSoC4/USBUART_std.c ****                     case USBUART_RQST_RCPT_DEV:
 225:Generated_Source\PSoC4/USBUART_std.c ****                         USBUART_currentTD.count = USBUART_DEVICE_STATUS_LENGTH;
 226:Generated_Source\PSoC4/USBUART_std.c ****                         USBUART_tBuffer[0u]     = USBUART_deviceStatus;
 227:Generated_Source\PSoC4/USBUART_std.c ****                         USBUART_tBuffer[1u]     = 0u;
 228:Generated_Source\PSoC4/USBUART_std.c ****                         USBUART_currentTD.pData = &USBUART_tBuffer[0u];
 229:Generated_Source\PSoC4/USBUART_std.c ****                         
 230:Generated_Source\PSoC4/USBUART_std.c ****                         requestHandled  = USBUART_InitControlRead();
 231:Generated_Source\PSoC4/USBUART_std.c ****                         break;
 232:Generated_Source\PSoC4/USBUART_std.c ****                     default:    /* requestHandled is initialized as FALSE by default */
 233:Generated_Source\PSoC4/USBUART_std.c ****                         break;
 234:Generated_Source\PSoC4/USBUART_std.c ****                 }
 235:Generated_Source\PSoC4/USBUART_std.c ****                 break;
 236:Generated_Source\PSoC4/USBUART_std.c ****                 
 237:Generated_Source\PSoC4/USBUART_std.c ****             case USBUART_GET_CONFIGURATION:
 238:Generated_Source\PSoC4/USBUART_std.c ****                 USBUART_currentTD.count = 1u;
 239:Generated_Source\PSoC4/USBUART_std.c ****                 USBUART_currentTD.pData = (volatile uint8 *) &USBUART_configuration;
 240:Generated_Source\PSoC4/USBUART_std.c ****                 requestHandled  = USBUART_InitControlRead();
 241:Generated_Source\PSoC4/USBUART_std.c ****                 break;
 242:Generated_Source\PSoC4/USBUART_std.c ****                 
 243:Generated_Source\PSoC4/USBUART_std.c ****             case USBUART_GET_INTERFACE:
 244:Generated_Source\PSoC4/USBUART_std.c ****                 USBUART_currentTD.count = 1u;
 245:Generated_Source\PSoC4/USBUART_std.c ****                 USBUART_currentTD.pData = (volatile uint8 *) &USBUART_interfaceSetting[USBUART_wInd
 246:Generated_Source\PSoC4/USBUART_std.c ****                 requestHandled  = USBUART_InitControlRead();
 247:Generated_Source\PSoC4/USBUART_std.c ****                 break;
 248:Generated_Source\PSoC4/USBUART_std.c ****                 
 249:Generated_Source\PSoC4/USBUART_std.c ****             default: /* requestHandled is initialized as FALSE by default */
 250:Generated_Source\PSoC4/USBUART_std.c ****                 break;
 251:Generated_Source\PSoC4/USBUART_std.c ****         }
 252:Generated_Source\PSoC4/USBUART_std.c ****     }
 253:Generated_Source\PSoC4/USBUART_std.c ****     else
 254:Generated_Source\PSoC4/USBUART_std.c ****     {
 255:Generated_Source\PSoC4/USBUART_std.c ****         /* Control Write */
 256:Generated_Source\PSoC4/USBUART_std.c ****         switch (USBUART_bRequestReg)
 257:Generated_Source\PSoC4/USBUART_std.c ****         {
 258:Generated_Source\PSoC4/USBUART_std.c ****             case USBUART_SET_ADDRESS:
ARM GAS  C:\Users\TERENC~1\AppData\Local\Temp\ccz498Tm.s 			page 6


 259:Generated_Source\PSoC4/USBUART_std.c ****                 /* Store address to be set in USBUART_NoDataControlStatusStage(). */
 260:Generated_Source\PSoC4/USBUART_std.c ****                 USBUART_deviceAddress = (uint8) USBUART_wValueLoReg;
 261:Generated_Source\PSoC4/USBUART_std.c ****                 requestHandled = USBUART_InitNoDataControlTransfer();
 262:Generated_Source\PSoC4/USBUART_std.c ****                 break;
 263:Generated_Source\PSoC4/USBUART_std.c ****                 
 264:Generated_Source\PSoC4/USBUART_std.c ****             case USBUART_SET_CONFIGURATION:
 265:Generated_Source\PSoC4/USBUART_std.c ****                 configurationN = USBUART_wValueLoReg;
 266:Generated_Source\PSoC4/USBUART_std.c ****                 
 267:Generated_Source\PSoC4/USBUART_std.c ****                 /* Verify that configuration descriptor exists */
 268:Generated_Source\PSoC4/USBUART_std.c ****                 if(configurationN > 0u)
 269:Generated_Source\PSoC4/USBUART_std.c ****                 {
 270:Generated_Source\PSoC4/USBUART_std.c ****                     pTmp = USBUART_GetConfigTablePtr((uint8) configurationN - 1u);
 271:Generated_Source\PSoC4/USBUART_std.c ****                 }
 272:Generated_Source\PSoC4/USBUART_std.c ****                 
 273:Generated_Source\PSoC4/USBUART_std.c ****                 /* Responds with a Request Error when configuration number is invalid */
 274:Generated_Source\PSoC4/USBUART_std.c ****                 if (((configurationN > 0u) && (pTmp != NULL)) || (configurationN == 0u))
 275:Generated_Source\PSoC4/USBUART_std.c ****                 {
 276:Generated_Source\PSoC4/USBUART_std.c ****                     /* Set new configuration if it has been changed */
 277:Generated_Source\PSoC4/USBUART_std.c ****                     if(configurationN != USBUART_configuration)
 278:Generated_Source\PSoC4/USBUART_std.c ****                     {
 279:Generated_Source\PSoC4/USBUART_std.c ****                         USBUART_configuration = (uint8) configurationN;
 280:Generated_Source\PSoC4/USBUART_std.c ****                         USBUART_configurationChanged = USBUART_TRUE;
 281:Generated_Source\PSoC4/USBUART_std.c ****                         USBUART_Config(USBUART_TRUE);
 282:Generated_Source\PSoC4/USBUART_std.c ****                     }
 283:Generated_Source\PSoC4/USBUART_std.c ****                     requestHandled = USBUART_InitNoDataControlTransfer();
 284:Generated_Source\PSoC4/USBUART_std.c ****                 }
 285:Generated_Source\PSoC4/USBUART_std.c ****                 break;
 286:Generated_Source\PSoC4/USBUART_std.c ****                 
 287:Generated_Source\PSoC4/USBUART_std.c ****             case USBUART_SET_INTERFACE:
 288:Generated_Source\PSoC4/USBUART_std.c ****                 if (0u != USBUART_ValidateAlternateSetting())
 289:Generated_Source\PSoC4/USBUART_std.c ****                 {
 290:Generated_Source\PSoC4/USBUART_std.c ****                     /* Get interface number from the request. */
 291:Generated_Source\PSoC4/USBUART_std.c ****                     interfaceNumber = USBUART_wIndexLoReg;
 292:Generated_Source\PSoC4/USBUART_std.c ****                     USBUART_interfaceNumber = (uint8) USBUART_wIndexLoReg;
 293:Generated_Source\PSoC4/USBUART_std.c ****                      
 294:Generated_Source\PSoC4/USBUART_std.c ****                     /* Check if alternate settings is changed for interface. */
 295:Generated_Source\PSoC4/USBUART_std.c ****                     if (USBUART_interfaceSettingLast[interfaceNumber] != USBUART_interfaceSetting[i
 296:Generated_Source\PSoC4/USBUART_std.c ****                     {
 297:Generated_Source\PSoC4/USBUART_std.c ****                         USBUART_configurationChanged = USBUART_TRUE;
 298:Generated_Source\PSoC4/USBUART_std.c ****                     
 299:Generated_Source\PSoC4/USBUART_std.c ****                         /* Change alternate setting for the endpoints. */
 300:Generated_Source\PSoC4/USBUART_std.c ****                     #if (USBUART_EP_MANAGEMENT_MANUAL && USBUART_EP_ALLOC_DYNAMIC)
 301:Generated_Source\PSoC4/USBUART_std.c ****                         USBUART_Config(USBUART_FALSE);
 302:Generated_Source\PSoC4/USBUART_std.c ****                     #else
 303:Generated_Source\PSoC4/USBUART_std.c ****                         USBUART_ConfigAltChanged();
 304:Generated_Source\PSoC4/USBUART_std.c ****                     #endif /* (USBUART_EP_MANAGEMENT_MANUAL && USBUART_EP_ALLOC_DYNAMIC) */
 305:Generated_Source\PSoC4/USBUART_std.c ****                     }
 306:Generated_Source\PSoC4/USBUART_std.c ****                     
 307:Generated_Source\PSoC4/USBUART_std.c ****                     requestHandled = USBUART_InitNoDataControlTransfer();
 308:Generated_Source\PSoC4/USBUART_std.c ****                 }
 309:Generated_Source\PSoC4/USBUART_std.c ****                 break;
 310:Generated_Source\PSoC4/USBUART_std.c ****                 
 311:Generated_Source\PSoC4/USBUART_std.c ****             case USBUART_CLEAR_FEATURE:
 312:Generated_Source\PSoC4/USBUART_std.c ****                 switch (bmRequestType & USBUART_RQST_RCPT_MASK)
 313:Generated_Source\PSoC4/USBUART_std.c ****                 {
 314:Generated_Source\PSoC4/USBUART_std.c ****                     case USBUART_RQST_RCPT_EP:
 315:Generated_Source\PSoC4/USBUART_std.c ****                         if (USBUART_wValueLoReg == USBUART_ENDPOINT_HALT)
ARM GAS  C:\Users\TERENC~1\AppData\Local\Temp\ccz498Tm.s 			page 7


 316:Generated_Source\PSoC4/USBUART_std.c ****                         {
 317:Generated_Source\PSoC4/USBUART_std.c ****                             requestHandled = USBUART_ClearEndpointHalt();
 318:Generated_Source\PSoC4/USBUART_std.c ****                         }
 319:Generated_Source\PSoC4/USBUART_std.c ****                         break;
 320:Generated_Source\PSoC4/USBUART_std.c ****                     case USBUART_RQST_RCPT_DEV:
 321:Generated_Source\PSoC4/USBUART_std.c ****                         /* Clear device REMOTE_WAKEUP */
 322:Generated_Source\PSoC4/USBUART_std.c ****                         if (USBUART_wValueLoReg == USBUART_DEVICE_REMOTE_WAKEUP)
 323:Generated_Source\PSoC4/USBUART_std.c ****                         {
 324:Generated_Source\PSoC4/USBUART_std.c ****                             USBUART_deviceStatus &= (uint8)~USBUART_DEVICE_STATUS_REMOTE_WAKEUP;
 325:Generated_Source\PSoC4/USBUART_std.c ****                             requestHandled = USBUART_InitNoDataControlTransfer();
 326:Generated_Source\PSoC4/USBUART_std.c ****                         }
 327:Generated_Source\PSoC4/USBUART_std.c ****                         break;
 328:Generated_Source\PSoC4/USBUART_std.c ****                     case USBUART_RQST_RCPT_IFC:
 329:Generated_Source\PSoC4/USBUART_std.c ****                         /* Validate interfaceNumber */
 330:Generated_Source\PSoC4/USBUART_std.c ****                         if (USBUART_wIndexLoReg < USBUART_MAX_INTERFACES_NUMBER)
 331:Generated_Source\PSoC4/USBUART_std.c ****                         {
 332:Generated_Source\PSoC4/USBUART_std.c ****                             USBUART_interfaceStatus[USBUART_wIndexLoReg] &= (uint8) ~USBUART_wValue
 333:Generated_Source\PSoC4/USBUART_std.c ****                             requestHandled = USBUART_InitNoDataControlTransfer();
 334:Generated_Source\PSoC4/USBUART_std.c ****                         }
 335:Generated_Source\PSoC4/USBUART_std.c ****                         break;
 336:Generated_Source\PSoC4/USBUART_std.c ****                     default:    /* requestHandled is initialized as FALSE by default */
 337:Generated_Source\PSoC4/USBUART_std.c ****                         break;
 338:Generated_Source\PSoC4/USBUART_std.c ****                 }
 339:Generated_Source\PSoC4/USBUART_std.c ****                 break;
 340:Generated_Source\PSoC4/USBUART_std.c ****                 
 341:Generated_Source\PSoC4/USBUART_std.c ****             case USBUART_SET_FEATURE:
 342:Generated_Source\PSoC4/USBUART_std.c ****                 switch (bmRequestType & USBUART_RQST_RCPT_MASK)
 343:Generated_Source\PSoC4/USBUART_std.c ****                 {
 344:Generated_Source\PSoC4/USBUART_std.c ****                     case USBUART_RQST_RCPT_EP:
 345:Generated_Source\PSoC4/USBUART_std.c ****                         if (USBUART_wValueLoReg == USBUART_ENDPOINT_HALT)
 346:Generated_Source\PSoC4/USBUART_std.c ****                         {
 347:Generated_Source\PSoC4/USBUART_std.c ****                             requestHandled = USBUART_SetEndpointHalt();
 348:Generated_Source\PSoC4/USBUART_std.c ****                         }
 349:Generated_Source\PSoC4/USBUART_std.c ****                         break;
 350:Generated_Source\PSoC4/USBUART_std.c ****                         
 351:Generated_Source\PSoC4/USBUART_std.c ****                     case USBUART_RQST_RCPT_DEV:
 352:Generated_Source\PSoC4/USBUART_std.c ****                         /* Set device REMOTE_WAKEUP */
 353:Generated_Source\PSoC4/USBUART_std.c ****                         if (USBUART_wValueLoReg == USBUART_DEVICE_REMOTE_WAKEUP)
 354:Generated_Source\PSoC4/USBUART_std.c ****                         {
 355:Generated_Source\PSoC4/USBUART_std.c ****                             USBUART_deviceStatus |= USBUART_DEVICE_STATUS_REMOTE_WAKEUP;
 356:Generated_Source\PSoC4/USBUART_std.c ****                             requestHandled = USBUART_InitNoDataControlTransfer();
 357:Generated_Source\PSoC4/USBUART_std.c ****                         }
 358:Generated_Source\PSoC4/USBUART_std.c ****                         break;
 359:Generated_Source\PSoC4/USBUART_std.c ****                         
 360:Generated_Source\PSoC4/USBUART_std.c ****                     case USBUART_RQST_RCPT_IFC:
 361:Generated_Source\PSoC4/USBUART_std.c ****                         /* Validate interfaceNumber */
 362:Generated_Source\PSoC4/USBUART_std.c ****                         if (USBUART_wIndexLoReg < USBUART_MAX_INTERFACES_NUMBER)
 363:Generated_Source\PSoC4/USBUART_std.c ****                         {
 364:Generated_Source\PSoC4/USBUART_std.c ****                             USBUART_interfaceStatus[USBUART_wIndexLoReg] &= (uint8) ~USBUART_wValue
 365:Generated_Source\PSoC4/USBUART_std.c ****                             requestHandled = USBUART_InitNoDataControlTransfer();
 366:Generated_Source\PSoC4/USBUART_std.c ****                         }
 367:Generated_Source\PSoC4/USBUART_std.c ****                         break;
 368:Generated_Source\PSoC4/USBUART_std.c ****                     
 369:Generated_Source\PSoC4/USBUART_std.c ****                     default:    /* requestHandled is initialized as FALSE by default */
 370:Generated_Source\PSoC4/USBUART_std.c ****                         break;
 371:Generated_Source\PSoC4/USBUART_std.c ****                 }
 372:Generated_Source\PSoC4/USBUART_std.c ****                 break;
ARM GAS  C:\Users\TERENC~1\AppData\Local\Temp\ccz498Tm.s 			page 8


 373:Generated_Source\PSoC4/USBUART_std.c ****                 
 374:Generated_Source\PSoC4/USBUART_std.c ****             default:    /* requestHandled is initialized as FALSE by default */
 375:Generated_Source\PSoC4/USBUART_std.c ****                 break;
 376:Generated_Source\PSoC4/USBUART_std.c ****         }
 377:Generated_Source\PSoC4/USBUART_std.c ****     }
 378:Generated_Source\PSoC4/USBUART_std.c ****     
 379:Generated_Source\PSoC4/USBUART_std.c ****     return (requestHandled);
 380:Generated_Source\PSoC4/USBUART_std.c **** }
 381:Generated_Source\PSoC4/USBUART_std.c **** 
 382:Generated_Source\PSoC4/USBUART_std.c **** 
 383:Generated_Source\PSoC4/USBUART_std.c **** #if defined(USBUART_ENABLE_IDSN_STRING)
 384:Generated_Source\PSoC4/USBUART_std.c ****     /***************************************************************************
 385:Generated_Source\PSoC4/USBUART_std.c ****     * Function Name: USBUART_ReadDieID
 386:Generated_Source\PSoC4/USBUART_std.c ****     ************************************************************************//**
 387:Generated_Source\PSoC4/USBUART_std.c ****     *
 388:Generated_Source\PSoC4/USBUART_std.c ****     *  This routine read Die ID and generate Serial Number string descriptor.
 389:Generated_Source\PSoC4/USBUART_std.c ****     *
 390:Generated_Source\PSoC4/USBUART_std.c ****     *  \param descr:  pointer on string descriptor. This string size has to be equal or
 391:Generated_Source\PSoC4/USBUART_std.c ****     *          greater than USBUART_IDSN_DESCR_LENGTH.
 392:Generated_Source\PSoC4/USBUART_std.c ****     *
 393:Generated_Source\PSoC4/USBUART_std.c ****     *
 394:Generated_Source\PSoC4/USBUART_std.c ****     * \reentrant
 395:Generated_Source\PSoC4/USBUART_std.c ****     *  No.
 396:Generated_Source\PSoC4/USBUART_std.c ****     *
 397:Generated_Source\PSoC4/USBUART_std.c ****     ***************************************************************************/
 398:Generated_Source\PSoC4/USBUART_std.c ****     void USBUART_ReadDieID(uint8 descr[]) 
 399:Generated_Source\PSoC4/USBUART_std.c ****     {
  28              		.loc 1 399 0
  29              		.cfi_startproc
  30              		@ args = 0, pretend = 0, frame = 32
  31              		@ frame_needed = 0, uses_anonymous_args = 0
  32              	.LVL0:
  33 0000 F0B5     		push	{r4, r5, r6, r7, lr}
  34              		.cfi_def_cfa_offset 20
  35              		.cfi_offset 4, -20
  36              		.cfi_offset 5, -16
  37              		.cfi_offset 6, -12
  38              		.cfi_offset 7, -8
  39              		.cfi_offset 14, -4
  40 0002 89B0     		sub	sp, sp, #36
  41              		.cfi_def_cfa_offset 56
  42 0004 0400     		movs	r4, r0
 400:Generated_Source\PSoC4/USBUART_std.c ****         const char8 CYCODE hex[] = "0123456789ABCDEF";
  43              		.loc 1 400 0
  44 0006 03AB     		add	r3, sp, #12
  45 0008 154A     		ldr	r2, .L5
  46 000a 23CA     		ldmia	r2!, {r0, r1, r5}
  47 000c 23C3     		stmia	r3!, {r0, r1, r5}
  48              	.LVL1:
  49 000e 1900     		movs	r1, r3
  50 0010 1368     		ldr	r3, [r2]
  51 0012 0B60     		str	r3, [r1]
  52 0014 1379     		ldrb	r3, [r2, #4]
  53 0016 0B71     		strb	r3, [r1, #4]
  54              	.LVL2:
 401:Generated_Source\PSoC4/USBUART_std.c ****         uint32 i;
 402:Generated_Source\PSoC4/USBUART_std.c ****         uint32 j = 0u;
ARM GAS  C:\Users\TERENC~1\AppData\Local\Temp\ccz498Tm.s 			page 9


 403:Generated_Source\PSoC4/USBUART_std.c ****         uint8 uniqueId[8u];
 404:Generated_Source\PSoC4/USBUART_std.c **** 
 405:Generated_Source\PSoC4/USBUART_std.c ****         if (NULL != descr)
  55              		.loc 1 405 0
  56 0018 002C     		cmp	r4, #0
  57 001a 1FD0     		beq	.L1
 406:Generated_Source\PSoC4/USBUART_std.c ****         {
 407:Generated_Source\PSoC4/USBUART_std.c ****             /* Initialize descriptor header. */
 408:Generated_Source\PSoC4/USBUART_std.c ****             descr[0u] = USBUART_IDSN_DESCR_LENGTH;
  58              		.loc 1 408 0
  59 001c 2223     		movs	r3, #34
  60 001e 2370     		strb	r3, [r4]
 409:Generated_Source\PSoC4/USBUART_std.c ****             descr[1u] = USBUART_DESCR_STRING;
  61              		.loc 1 409 0
  62 0020 1F3B     		subs	r3, r3, #31
  63 0022 6370     		strb	r3, [r4, #1]
 410:Generated_Source\PSoC4/USBUART_std.c ****             
 411:Generated_Source\PSoC4/USBUART_std.c ****             /* Unique ID size is 8 bytes. */
 412:Generated_Source\PSoC4/USBUART_std.c ****             CyGetUniqueId((uint32 *) uniqueId);
  64              		.loc 1 412 0
  65 0024 01A8     		add	r0, sp, #4
  66 0026 FFF7FEFF 		bl	CyGetUniqueId
  67              	.LVL3:
 402:Generated_Source\PSoC4/USBUART_std.c ****         uint8 uniqueId[8u];
  68              		.loc 1 402 0
  69 002a 0020     		movs	r0, #0
 413:Generated_Source\PSoC4/USBUART_std.c **** 
 414:Generated_Source\PSoC4/USBUART_std.c ****             /* Fill descriptor with unique device ID. */
 415:Generated_Source\PSoC4/USBUART_std.c ****             for (i = 2u; i < USBUART_IDSN_DESCR_LENGTH; i += 4u)
  70              		.loc 1 415 0
  71 002c 0223     		movs	r3, #2
  72 002e 13E0     		b	.L3
  73              	.LVL4:
  74              	.L4:
 416:Generated_Source\PSoC4/USBUART_std.c ****             {
 417:Generated_Source\PSoC4/USBUART_std.c ****                 descr[i]      = (uint8) hex[(uniqueId[j] >> 4u)];
  75              		.loc 1 417 0 discriminator 3
  76 0030 01AA     		add	r2, sp, #4
  77 0032 125C     		ldrb	r2, [r2, r0]
  78 0034 1109     		lsrs	r1, r2, #4
  79 0036 03AD     		add	r5, sp, #12
  80 0038 695C     		ldrb	r1, [r5, r1]
  81 003a E154     		strb	r1, [r4, r3]
 418:Generated_Source\PSoC4/USBUART_std.c ****                 descr[i + 1u] = 0u;
  82              		.loc 1 418 0 discriminator 3
  83 003c 591C     		adds	r1, r3, #1
  84 003e 6118     		adds	r1, r4, r1
  85 0040 0026     		movs	r6, #0
  86 0042 0E70     		strb	r6, [r1]
 419:Generated_Source\PSoC4/USBUART_std.c ****                 descr[i + 2u] = (uint8) hex[(uniqueId[j] & 0x0Fu)];
  87              		.loc 1 419 0 discriminator 3
  88 0044 991C     		adds	r1, r3, #2
  89 0046 0F27     		movs	r7, #15
  90 0048 3A40     		ands	r2, r7
  91 004a AA5C     		ldrb	r2, [r5, r2]
  92 004c 6254     		strb	r2, [r4, r1]
 420:Generated_Source\PSoC4/USBUART_std.c ****                 descr[i + 3u] = 0u;
ARM GAS  C:\Users\TERENC~1\AppData\Local\Temp\ccz498Tm.s 			page 10


  93              		.loc 1 420 0 discriminator 3
  94 004e DA1C     		adds	r2, r3, #3
  95 0050 A218     		adds	r2, r4, r2
  96 0052 1670     		strb	r6, [r2]
 421:Generated_Source\PSoC4/USBUART_std.c ****                 ++j;
  97              		.loc 1 421 0 discriminator 3
  98 0054 0130     		adds	r0, r0, #1
  99              	.LVL5:
 415:Generated_Source\PSoC4/USBUART_std.c ****             {
 100              		.loc 1 415 0 discriminator 3
 101 0056 0433     		adds	r3, r3, #4
 102              	.LVL6:
 103              	.L3:
 415:Generated_Source\PSoC4/USBUART_std.c ****             {
 104              		.loc 1 415 0 is_stmt 0 discriminator 1
 105 0058 212B     		cmp	r3, #33
 106 005a E9D9     		bls	.L4
 107              	.LVL7:
 108              	.L1:
 422:Generated_Source\PSoC4/USBUART_std.c ****             }
 423:Generated_Source\PSoC4/USBUART_std.c ****         }
 424:Generated_Source\PSoC4/USBUART_std.c ****     }
 109              		.loc 1 424 0 is_stmt 1
 110 005c 09B0     		add	sp, sp, #36
 111              		@ sp needed
 112              	.LVL8:
 113 005e F0BD     		pop	{r4, r5, r6, r7, pc}
 114              	.L6:
 115              		.align	2
 116              	.L5:
 117 0060 00000000 		.word	.LC0
 118              		.cfi_endproc
 119              	.LFE2:
 120              		.size	USBUART_ReadDieID, .-USBUART_ReadDieID
 121              		.section	.text.USBUART_ConfigReg,"ax",%progbits
 122              		.align	2
 123              		.global	USBUART_ConfigReg
 124              		.code	16
 125              		.thumb_func
 126              		.type	USBUART_ConfigReg, %function
 127              	USBUART_ConfigReg:
 128              	.LFB3:
 425:Generated_Source\PSoC4/USBUART_std.c **** #endif /* (USBUART_ENABLE_IDSN_STRING) */
 426:Generated_Source\PSoC4/USBUART_std.c **** 
 427:Generated_Source\PSoC4/USBUART_std.c **** 
 428:Generated_Source\PSoC4/USBUART_std.c **** /*******************************************************************************
 429:Generated_Source\PSoC4/USBUART_std.c **** * Function Name: USBUART_ConfigReg
 430:Generated_Source\PSoC4/USBUART_std.c **** ****************************************************************************//**
 431:Generated_Source\PSoC4/USBUART_std.c **** *
 432:Generated_Source\PSoC4/USBUART_std.c **** *  This routine configures hardware registers from the variables.
 433:Generated_Source\PSoC4/USBUART_std.c **** *  It is called from USBUART_Config() function and from RestoreConfig
 434:Generated_Source\PSoC4/USBUART_std.c **** *  after Wakeup.
 435:Generated_Source\PSoC4/USBUART_std.c **** *
 436:Generated_Source\PSoC4/USBUART_std.c **** *******************************************************************************/
 437:Generated_Source\PSoC4/USBUART_std.c **** void USBUART_ConfigReg(void) 
 438:Generated_Source\PSoC4/USBUART_std.c **** {
 129              		.loc 1 438 0
ARM GAS  C:\Users\TERENC~1\AppData\Local\Temp\ccz498Tm.s 			page 11


 130              		.cfi_startproc
 131              		@ args = 0, pretend = 0, frame = 0
 132              		@ frame_needed = 0, uses_anonymous_args = 0
 133 0000 10B5     		push	{r4, lr}
 134              		.cfi_def_cfa_offset 8
 135              		.cfi_offset 4, -8
 136              		.cfi_offset 14, -4
 137              	.LVL9:
 439:Generated_Source\PSoC4/USBUART_std.c ****     uint32 ep;
 440:Generated_Source\PSoC4/USBUART_std.c **** 
 441:Generated_Source\PSoC4/USBUART_std.c **** #if (USBUART_EP_MANAGEMENT_DMA_AUTO)
 442:Generated_Source\PSoC4/USBUART_std.c ****     uint8 epType = 0u;
 443:Generated_Source\PSoC4/USBUART_std.c **** #endif /* (USBUART_EP_MANAGEMENT_DMA_AUTO) */
 444:Generated_Source\PSoC4/USBUART_std.c **** 
 445:Generated_Source\PSoC4/USBUART_std.c ****     /* Go thought all endpoints and set hardware configuration */
 446:Generated_Source\PSoC4/USBUART_std.c ****     for (ep = USBUART_EP1; ep < USBUART_MAX_EP; ++ep)
 138              		.loc 1 446 0
 139 0002 0123     		movs	r3, #1
 140 0004 38E0     		b	.L8
 141              	.LVL10:
 142              	.L12:
 447:Generated_Source\PSoC4/USBUART_std.c ****     {
 448:Generated_Source\PSoC4/USBUART_std.c ****         USBUART_ARB_EP_BASE.arbEp[ep].epCfg = USBUART_ARB_EPX_CFG_DEFAULT;
 143              		.loc 1 448 0
 144 0006 9A01     		lsls	r2, r3, #6
 145 0008 0C20     		movs	r0, #12
 146 000a 1E49     		ldr	r1, .L13
 147 000c 5050     		str	r0, [r2, r1]
 449:Generated_Source\PSoC4/USBUART_std.c ****         
 450:Generated_Source\PSoC4/USBUART_std.c ****     #if (USBUART_EP_MANAGEMENT_DMA)
 451:Generated_Source\PSoC4/USBUART_std.c ****         /* Enable arbiter endpoint interrupt sources */
 452:Generated_Source\PSoC4/USBUART_std.c ****         USBUART_ARB_EP_BASE.arbEp[ep].epIntEn = USBUART_ARB_EPX_INT_MASK;
 453:Generated_Source\PSoC4/USBUART_std.c ****     #endif /* (USBUART_EP_MANAGEMENT_DMA) */
 454:Generated_Source\PSoC4/USBUART_std.c ****     
 455:Generated_Source\PSoC4/USBUART_std.c ****         if (USBUART_EP[ep].epMode != USBUART_MODE_DISABLE)
 148              		.loc 1 455 0
 149 000e 5900     		lsls	r1, r3, #1
 150 0010 C918     		adds	r1, r1, r3
 151 0012 8A00     		lsls	r2, r1, #2
 152 0014 1C49     		ldr	r1, .L13+4
 153 0016 8A18     		adds	r2, r1, r2
 154 0018 5279     		ldrb	r2, [r2, #5]
 155 001a 002A     		cmp	r2, #0
 156 001c 16D0     		beq	.L9
 456:Generated_Source\PSoC4/USBUART_std.c ****         {
 457:Generated_Source\PSoC4/USBUART_std.c ****             if (0u != (USBUART_EP[ep].addr & USBUART_DIR_IN))
 157              		.loc 1 457 0
 158 001e 5900     		lsls	r1, r3, #1
 159 0020 C918     		adds	r1, r1, r3
 160 0022 8A00     		lsls	r2, r1, #2
 161 0024 1849     		ldr	r1, .L13+4
 162 0026 8A18     		adds	r2, r1, r2
 163 0028 1279     		ldrb	r2, [r2, #4]
 164 002a 52B2     		sxtb	r2, r2
 165 002c 002A     		cmp	r2, #0
 166 002e 06DA     		bge	.L10
 458:Generated_Source\PSoC4/USBUART_std.c ****             {
ARM GAS  C:\Users\TERENC~1\AppData\Local\Temp\ccz498Tm.s 			page 12


 459:Generated_Source\PSoC4/USBUART_std.c ****                 USBUART_SIE_EP_BASE.sieEp[ep].epCr0 = USBUART_MODE_NAK_IN;
 167              		.loc 1 459 0
 168 0030 9A01     		lsls	r2, r3, #6
 169 0032 1649     		ldr	r1, .L13+8
 170 0034 8C46     		mov	ip, r1
 171 0036 6244     		add	r2, r2, ip
 172 0038 0C21     		movs	r1, #12
 173 003a 9160     		str	r1, [r2, #8]
 174 003c 0CE0     		b	.L11
 175              	.L10:
 460:Generated_Source\PSoC4/USBUART_std.c ****                 
 461:Generated_Source\PSoC4/USBUART_std.c ****             #if (USBUART_EP_MANAGEMENT_DMA_AUTO && CY_PSOC4)
 462:Generated_Source\PSoC4/USBUART_std.c ****                 /* Clear DMA_TERMIN for IN endpoint. */
 463:Generated_Source\PSoC4/USBUART_std.c ****                 USBUART_ARB_EP_BASE.arbEp[ep].epIntEn &= (uint32) ~USBUART_ARB_EPX_INT_DMA_TERMIN;
 464:Generated_Source\PSoC4/USBUART_std.c ****             #endif /* (USBUART_EP_MANAGEMENT_DMA_AUTO && CY_PSOC4) */
 465:Generated_Source\PSoC4/USBUART_std.c ****             }
 466:Generated_Source\PSoC4/USBUART_std.c ****             else
 467:Generated_Source\PSoC4/USBUART_std.c ****             {
 468:Generated_Source\PSoC4/USBUART_std.c ****                 USBUART_SIE_EP_BASE.sieEp[ep].epCr0 = USBUART_MODE_NAK_OUT;
 176              		.loc 1 468 0
 177 003e 9A01     		lsls	r2, r3, #6
 178 0040 1249     		ldr	r1, .L13+8
 179 0042 8C46     		mov	ip, r1
 180 0044 6244     		add	r2, r2, ip
 181 0046 0821     		movs	r1, #8
 182 0048 9160     		str	r1, [r2, #8]
 183 004a 05E0     		b	.L11
 184              	.L9:
 469:Generated_Source\PSoC4/USBUART_std.c **** 
 470:Generated_Source\PSoC4/USBUART_std.c ****             #if (USBUART_EP_MANAGEMENT_DMA_AUTO)
 471:Generated_Source\PSoC4/USBUART_std.c ****                 /* (CY_PSOC4): DMA_TERMIN for OUT endpoint is set above. */
 472:Generated_Source\PSoC4/USBUART_std.c ****                 
 473:Generated_Source\PSoC4/USBUART_std.c ****                 /* Prepare endpoint type mask. */
 474:Generated_Source\PSoC4/USBUART_std.c ****                 epType |= (uint8) (0x01u << (ep - USBUART_EP1));
 475:Generated_Source\PSoC4/USBUART_std.c ****             #endif /* (USBUART_EP_MANAGEMENT_DMA_AUTO) */
 476:Generated_Source\PSoC4/USBUART_std.c ****             }
 477:Generated_Source\PSoC4/USBUART_std.c ****         }
 478:Generated_Source\PSoC4/USBUART_std.c ****         else
 479:Generated_Source\PSoC4/USBUART_std.c ****         {
 480:Generated_Source\PSoC4/USBUART_std.c ****             USBUART_SIE_EP_BASE.sieEp[ep].epCr0 = USBUART_MODE_STALL_DATA_EP;
 185              		.loc 1 480 0
 186 004c 9A01     		lsls	r2, r3, #6
 187 004e 0F49     		ldr	r1, .L13+8
 188 0050 8C46     		mov	ip, r1
 189 0052 6244     		add	r2, r2, ip
 190 0054 8021     		movs	r1, #128
 191 0056 9160     		str	r1, [r2, #8]
 192              	.L11:
 481:Generated_Source\PSoC4/USBUART_std.c ****         }
 482:Generated_Source\PSoC4/USBUART_std.c ****         
 483:Generated_Source\PSoC4/USBUART_std.c ****     #if (!USBUART_EP_MANAGEMENT_DMA_AUTO)
 484:Generated_Source\PSoC4/USBUART_std.c ****         #if (CY_PSOC4)
 485:Generated_Source\PSoC4/USBUART_std.c ****             USBUART_ARB_EP16_BASE.arbEp[ep].rwRa16  = (uint32) USBUART_EP[ep].buffOffset;
 193              		.loc 1 485 0 discriminator 2
 194 0058 5900     		lsls	r1, r3, #1
 195 005a C918     		adds	r1, r1, r3
 196 005c 8A00     		lsls	r2, r1, #2
ARM GAS  C:\Users\TERENC~1\AppData\Local\Temp\ccz498Tm.s 			page 13


 197 005e 0A49     		ldr	r1, .L13+4
 198 0060 8A18     		adds	r2, r1, r2
 199 0062 D188     		ldrh	r1, [r2, #6]
 200 0064 89B2     		uxth	r1, r1
 201 0066 9801     		lsls	r0, r3, #6
 202 0068 094C     		ldr	r4, .L13+12
 203 006a 0419     		adds	r4, r0, r4
 204 006c A160     		str	r1, [r4, #8]
 486:Generated_Source\PSoC4/USBUART_std.c ****             USBUART_ARB_EP16_BASE.arbEp[ep].rwWa16  = (uint32) USBUART_EP[ep].buffOffset;
 205              		.loc 1 486 0 discriminator 2
 206 006e D288     		ldrh	r2, [r2, #6]
 207 0070 92B2     		uxth	r2, r2
 208 0072 0749     		ldr	r1, .L13+12
 209 0074 4250     		str	r2, [r0, r1]
 446:Generated_Source\PSoC4/USBUART_std.c ****     {
 210              		.loc 1 446 0 discriminator 2
 211 0076 0133     		adds	r3, r3, #1
 212              	.LVL11:
 213              	.L8:
 446:Generated_Source\PSoC4/USBUART_std.c ****     {
 214              		.loc 1 446 0 is_stmt 0 discriminator 1
 215 0078 082B     		cmp	r3, #8
 216 007a C4D9     		bls	.L12
 487:Generated_Source\PSoC4/USBUART_std.c ****         #else
 488:Generated_Source\PSoC4/USBUART_std.c ****             USBUART_ARB_EP_BASE.arbEp[ep].rwRa    = LO8(USBUART_EP[ep].buffOffset);
 489:Generated_Source\PSoC4/USBUART_std.c ****             USBUART_ARB_EP_BASE.arbEp[ep].rwRaMsb = HI8(USBUART_EP[ep].buffOffset);
 490:Generated_Source\PSoC4/USBUART_std.c ****             USBUART_ARB_EP_BASE.arbEp[ep].rwWa    = LO8(USBUART_EP[ep].buffOffset);
 491:Generated_Source\PSoC4/USBUART_std.c ****             USBUART_ARB_EP_BASE.arbEp[ep].rwWaMsb = HI8(USBUART_EP[ep].buffOffset);
 492:Generated_Source\PSoC4/USBUART_std.c ****         #endif /* (CY_PSOC4) */
 493:Generated_Source\PSoC4/USBUART_std.c ****     #endif /* (!USBUART_EP_MANAGEMENT_DMA_AUTO) */
 494:Generated_Source\PSoC4/USBUART_std.c ****     }
 495:Generated_Source\PSoC4/USBUART_std.c **** 
 496:Generated_Source\PSoC4/USBUART_std.c **** #if (USBUART_EP_MANAGEMENT_DMA_AUTO)
 497:Generated_Source\PSoC4/USBUART_std.c ****      /* BUF_SIZE depend on DMA_THRESS value:0x55-32 bytes  0x44-16 bytes 0x33-8 bytes 0x22-4 bytes 
 498:Generated_Source\PSoC4/USBUART_std.c ****     USBUART_BUF_SIZE_REG = USBUART_DMA_BUF_SIZE;
 499:Generated_Source\PSoC4/USBUART_std.c **** 
 500:Generated_Source\PSoC4/USBUART_std.c ****     /* Configure DMA burst threshold */
 501:Generated_Source\PSoC4/USBUART_std.c **** #if (CY_PSOC4)
 502:Generated_Source\PSoC4/USBUART_std.c ****     USBUART_DMA_THRES16_REG   = USBUART_DMA_BYTES_PER_BURST;
 503:Generated_Source\PSoC4/USBUART_std.c **** #else
 504:Generated_Source\PSoC4/USBUART_std.c ****     USBUART_DMA_THRES_REG     = USBUART_DMA_BYTES_PER_BURST;
 505:Generated_Source\PSoC4/USBUART_std.c ****     USBUART_DMA_THRES_MSB_REG = 0u;
 506:Generated_Source\PSoC4/USBUART_std.c **** #endif /* (CY_PSOC4) */
 507:Generated_Source\PSoC4/USBUART_std.c ****     USBUART_EP_ACTIVE_REG = USBUART_DEFAULT_ARB_INT_EN;
 508:Generated_Source\PSoC4/USBUART_std.c ****     USBUART_EP_TYPE_REG   = epType;
 509:Generated_Source\PSoC4/USBUART_std.c ****     
 510:Generated_Source\PSoC4/USBUART_std.c ****     /* Cfg_cmp bit set to 1 once configuration is complete. */
 511:Generated_Source\PSoC4/USBUART_std.c ****     /* Lock arbiter configtuation */
 512:Generated_Source\PSoC4/USBUART_std.c ****     USBUART_ARB_CFG_REG |= (uint32)  USBUART_ARB_CFG_CFG_CMP;
 513:Generated_Source\PSoC4/USBUART_std.c ****     /* Cfg_cmp bit set to 0 during configuration of PFSUSB Registers. */
 514:Generated_Source\PSoC4/USBUART_std.c ****     USBUART_ARB_CFG_REG &= (uint32) ~USBUART_ARB_CFG_CFG_CMP;
 515:Generated_Source\PSoC4/USBUART_std.c **** 
 516:Generated_Source\PSoC4/USBUART_std.c **** #endif /* (USBUART_EP_MANAGEMENT_DMA_AUTO) */
 517:Generated_Source\PSoC4/USBUART_std.c **** 
 518:Generated_Source\PSoC4/USBUART_std.c ****     /* Enable interrupt SIE interurpt source from EP0-EP1 */
 519:Generated_Source\PSoC4/USBUART_std.c ****     USBUART_SIE_EP_INT_EN_REG = (uint32) USBUART_DEFAULT_SIE_EP_INT_EN;
 217              		.loc 1 519 0 is_stmt 1
ARM GAS  C:\Users\TERENC~1\AppData\Local\Temp\ccz498Tm.s 			page 14


 218 007c FF22     		movs	r2, #255
 219 007e 054B     		ldr	r3, .L13+16
 220              	.LVL12:
 221 0080 1A60     		str	r2, [r3]
 520:Generated_Source\PSoC4/USBUART_std.c **** }
 222              		.loc 1 520 0
 223              		@ sp needed
 224 0082 10BD     		pop	{r4, pc}
 225              	.L14:
 226              		.align	2
 227              	.L13:
 228 0084 C0012C40 		.word	1076625856
 229 0088 00000000 		.word	USBUART_EP
 230 008c F0FF2B40 		.word	1076625392
 231 0090 D0112C40 		.word	1076629968
 232 0094 28002C40 		.word	1076625448
 233              		.cfi_endproc
 234              	.LFE3:
 235              		.size	USBUART_ConfigReg, .-USBUART_ConfigReg
 236              		.section	.text.USBUART_EpStateInit,"ax",%progbits
 237              		.align	2
 238              		.global	USBUART_EpStateInit
 239              		.code	16
 240              		.thumb_func
 241              		.type	USBUART_EpStateInit, %function
 242              	USBUART_EpStateInit:
 243              	.LFB4:
 521:Generated_Source\PSoC4/USBUART_std.c **** 
 522:Generated_Source\PSoC4/USBUART_std.c **** 
 523:Generated_Source\PSoC4/USBUART_std.c **** /*******************************************************************************
 524:Generated_Source\PSoC4/USBUART_std.c **** * Function Name: USBUART_EpStateInit
 525:Generated_Source\PSoC4/USBUART_std.c **** ****************************************************************************//**
 526:Generated_Source\PSoC4/USBUART_std.c **** *
 527:Generated_Source\PSoC4/USBUART_std.c **** *  This routine initialize state of Data end points based of its type: 
 528:Generated_Source\PSoC4/USBUART_std.c **** *   IN  - USBUART_IN_BUFFER_EMPTY (USBUART_EVENT_PENDING)
 529:Generated_Source\PSoC4/USBUART_std.c **** *   OUT - USBUART_OUT_BUFFER_EMPTY (USBUART_NO_EVENT_PENDING)
 530:Generated_Source\PSoC4/USBUART_std.c **** *
 531:Generated_Source\PSoC4/USBUART_std.c **** *******************************************************************************/
 532:Generated_Source\PSoC4/USBUART_std.c **** void USBUART_EpStateInit(void) 
 533:Generated_Source\PSoC4/USBUART_std.c **** {
 244              		.loc 1 533 0
 245              		.cfi_startproc
 246              		@ args = 0, pretend = 0, frame = 0
 247              		@ frame_needed = 0, uses_anonymous_args = 0
 248              		@ link register save eliminated.
 249              	.LVL13:
 534:Generated_Source\PSoC4/USBUART_std.c ****     uint8 i;
 535:Generated_Source\PSoC4/USBUART_std.c **** 
 536:Generated_Source\PSoC4/USBUART_std.c ****     for (i = USBUART_EP1; i < USBUART_MAX_EP; i++)
 250              		.loc 1 536 0
 251 0000 0123     		movs	r3, #1
 252 0002 19E0     		b	.L16
 253              	.LVL14:
 254              	.L19:
 537:Generated_Source\PSoC4/USBUART_std.c ****     { 
 538:Generated_Source\PSoC4/USBUART_std.c ****         if (0u != (USBUART_EP[i].addr & USBUART_DIR_IN))
 255              		.loc 1 538 0
ARM GAS  C:\Users\TERENC~1\AppData\Local\Temp\ccz498Tm.s 			page 15


 256 0004 5900     		lsls	r1, r3, #1
 257 0006 C918     		adds	r1, r1, r3
 258 0008 8A00     		lsls	r2, r1, #2
 259 000a 0D49     		ldr	r1, .L20
 260 000c 8A18     		adds	r2, r1, r2
 261 000e 1279     		ldrb	r2, [r2, #4]
 262 0010 52B2     		sxtb	r2, r2
 263 0012 002A     		cmp	r2, #0
 264 0014 07DA     		bge	.L17
 539:Generated_Source\PSoC4/USBUART_std.c ****         {
 540:Generated_Source\PSoC4/USBUART_std.c ****             /* IN Endpoint */
 541:Generated_Source\PSoC4/USBUART_std.c ****             USBUART_EP[i].apiEpState = USBUART_EVENT_PENDING;
 265              		.loc 1 541 0
 266 0016 5900     		lsls	r1, r3, #1
 267 0018 C918     		adds	r1, r1, r3
 268 001a 8A00     		lsls	r2, r1, #2
 269 001c 0849     		ldr	r1, .L20
 270 001e 8A18     		adds	r2, r1, r2
 271 0020 0121     		movs	r1, #1
 272 0022 5170     		strb	r1, [r2, #1]
 273 0024 06E0     		b	.L18
 274              	.L17:
 542:Generated_Source\PSoC4/USBUART_std.c ****         }
 543:Generated_Source\PSoC4/USBUART_std.c ****         else
 544:Generated_Source\PSoC4/USBUART_std.c ****         {
 545:Generated_Source\PSoC4/USBUART_std.c ****             /* OUT Endpoint */
 546:Generated_Source\PSoC4/USBUART_std.c ****             USBUART_EP[i].apiEpState = USBUART_NO_EVENT_PENDING;
 275              		.loc 1 546 0
 276 0026 5900     		lsls	r1, r3, #1
 277 0028 C918     		adds	r1, r1, r3
 278 002a 8A00     		lsls	r2, r1, #2
 279 002c 0449     		ldr	r1, .L20
 280 002e 8A18     		adds	r2, r1, r2
 281 0030 0021     		movs	r1, #0
 282 0032 5170     		strb	r1, [r2, #1]
 283              	.L18:
 536:Generated_Source\PSoC4/USBUART_std.c ****     { 
 284              		.loc 1 536 0 discriminator 2
 285 0034 0133     		adds	r3, r3, #1
 286              	.LVL15:
 287 0036 DBB2     		uxtb	r3, r3
 288              	.LVL16:
 289              	.L16:
 536:Generated_Source\PSoC4/USBUART_std.c ****     { 
 290              		.loc 1 536 0 is_stmt 0 discriminator 1
 291 0038 082B     		cmp	r3, #8
 292 003a E3D9     		bls	.L19
 547:Generated_Source\PSoC4/USBUART_std.c ****         }
 548:Generated_Source\PSoC4/USBUART_std.c ****     }
 549:Generated_Source\PSoC4/USBUART_std.c ****                     
 550:Generated_Source\PSoC4/USBUART_std.c **** }
 293              		.loc 1 550 0 is_stmt 1
 294              		@ sp needed
 295 003c 7047     		bx	lr
 296              	.L21:
 297 003e C046     		.align	2
 298              	.L20:
ARM GAS  C:\Users\TERENC~1\AppData\Local\Temp\ccz498Tm.s 			page 16


 299 0040 00000000 		.word	USBUART_EP
 300              		.cfi_endproc
 301              	.LFE4:
 302              		.size	USBUART_EpStateInit, .-USBUART_EpStateInit
 303              		.section	.text.USBUART_GetConfigTablePtr,"ax",%progbits
 304              		.align	2
 305              		.global	USBUART_GetConfigTablePtr
 306              		.code	16
 307              		.thumb_func
 308              		.type	USBUART_GetConfigTablePtr, %function
 309              	USBUART_GetConfigTablePtr:
 310              	.LFB7:
 551:Generated_Source\PSoC4/USBUART_std.c **** 
 552:Generated_Source\PSoC4/USBUART_std.c **** 
 553:Generated_Source\PSoC4/USBUART_std.c **** /*******************************************************************************
 554:Generated_Source\PSoC4/USBUART_std.c **** * Function Name: USBUART_Config
 555:Generated_Source\PSoC4/USBUART_std.c **** ****************************************************************************//**
 556:Generated_Source\PSoC4/USBUART_std.c **** *
 557:Generated_Source\PSoC4/USBUART_std.c **** *  This routine configures endpoints for the entire configuration by scanning
 558:Generated_Source\PSoC4/USBUART_std.c **** *  the configuration descriptor.
 559:Generated_Source\PSoC4/USBUART_std.c **** *
 560:Generated_Source\PSoC4/USBUART_std.c **** *  \param clearAltSetting: It configures the bAlternateSetting 0 for each interface.
 561:Generated_Source\PSoC4/USBUART_std.c **** *
 562:Generated_Source\PSoC4/USBUART_std.c **** * USBUART_interfaceClass - Initialized class array for each interface.
 563:Generated_Source\PSoC4/USBUART_std.c **** *   It is used for handling Class specific requests depend on interface class.
 564:Generated_Source\PSoC4/USBUART_std.c **** *   Different classes in multiple Alternate settings does not supported.
 565:Generated_Source\PSoC4/USBUART_std.c **** *
 566:Generated_Source\PSoC4/USBUART_std.c **** * \reentrant
 567:Generated_Source\PSoC4/USBUART_std.c **** *  No.
 568:Generated_Source\PSoC4/USBUART_std.c **** *
 569:Generated_Source\PSoC4/USBUART_std.c **** *******************************************************************************/
 570:Generated_Source\PSoC4/USBUART_std.c **** void USBUART_Config(uint8 clearAltSetting) 
 571:Generated_Source\PSoC4/USBUART_std.c **** {
 572:Generated_Source\PSoC4/USBUART_std.c ****     uint8 ep;
 573:Generated_Source\PSoC4/USBUART_std.c ****     uint8 curEp;
 574:Generated_Source\PSoC4/USBUART_std.c ****     uint8 i;
 575:Generated_Source\PSoC4/USBUART_std.c ****     uint8 epType;
 576:Generated_Source\PSoC4/USBUART_std.c ****     const uint8 *pDescr;
 577:Generated_Source\PSoC4/USBUART_std.c ****     
 578:Generated_Source\PSoC4/USBUART_std.c ****     #if (!USBUART_EP_MANAGEMENT_DMA_AUTO)
 579:Generated_Source\PSoC4/USBUART_std.c ****         uint16 buffCount = 0u;
 580:Generated_Source\PSoC4/USBUART_std.c ****     #endif /* (!USBUART_EP_MANAGEMENT_DMA_AUTO) */
 581:Generated_Source\PSoC4/USBUART_std.c **** 
 582:Generated_Source\PSoC4/USBUART_std.c ****     const T_USBUART_LUT CYCODE *pTmp;
 583:Generated_Source\PSoC4/USBUART_std.c ****     const T_USBUART_EP_SETTINGS_BLOCK CYCODE *pEP;
 584:Generated_Source\PSoC4/USBUART_std.c **** 
 585:Generated_Source\PSoC4/USBUART_std.c ****     /* Clear endpoints settings */
 586:Generated_Source\PSoC4/USBUART_std.c ****     for (ep = 0u; ep < USBUART_MAX_EP; ++ep)
 587:Generated_Source\PSoC4/USBUART_std.c ****     {
 588:Generated_Source\PSoC4/USBUART_std.c ****         USBUART_EP[ep].attrib     = 0u;
 589:Generated_Source\PSoC4/USBUART_std.c ****         USBUART_EP[ep].hwEpState  = 0u;
 590:Generated_Source\PSoC4/USBUART_std.c ****         USBUART_EP[ep].epToggle   = 0u;
 591:Generated_Source\PSoC4/USBUART_std.c ****         USBUART_EP[ep].bufferSize = 0u;
 592:Generated_Source\PSoC4/USBUART_std.c ****         USBUART_EP[ep].interface  = 0u;
 593:Generated_Source\PSoC4/USBUART_std.c ****         USBUART_EP[ep].apiEpState = USBUART_NO_EVENT_PENDING;
 594:Generated_Source\PSoC4/USBUART_std.c ****         USBUART_EP[ep].epMode     = USBUART_MODE_DISABLE;   
 595:Generated_Source\PSoC4/USBUART_std.c ****     }
ARM GAS  C:\Users\TERENC~1\AppData\Local\Temp\ccz498Tm.s 			page 17


 596:Generated_Source\PSoC4/USBUART_std.c **** 
 597:Generated_Source\PSoC4/USBUART_std.c ****     /* Clear Alternate settings for all interfaces. */
 598:Generated_Source\PSoC4/USBUART_std.c ****     if (0u != clearAltSetting)
 599:Generated_Source\PSoC4/USBUART_std.c ****     {
 600:Generated_Source\PSoC4/USBUART_std.c ****         for (i = 0u; i < USBUART_MAX_INTERFACES_NUMBER; ++i)
 601:Generated_Source\PSoC4/USBUART_std.c ****         {
 602:Generated_Source\PSoC4/USBUART_std.c ****             USBUART_interfaceSetting[i]     = 0u;
 603:Generated_Source\PSoC4/USBUART_std.c ****             USBUART_interfaceSettingLast[i] = 0u;
 604:Generated_Source\PSoC4/USBUART_std.c ****         }
 605:Generated_Source\PSoC4/USBUART_std.c ****     }
 606:Generated_Source\PSoC4/USBUART_std.c **** 
 607:Generated_Source\PSoC4/USBUART_std.c ****     /* Init Endpoints and Device Status if configured */
 608:Generated_Source\PSoC4/USBUART_std.c ****     if (USBUART_configuration > 0u)
 609:Generated_Source\PSoC4/USBUART_std.c ****     {
 610:Generated_Source\PSoC4/USBUART_std.c ****         #if defined(USBUART_ENABLE_CDC_CLASS)
 611:Generated_Source\PSoC4/USBUART_std.c ****             uint8 cdcComNums = 0u;
 612:Generated_Source\PSoC4/USBUART_std.c ****         #endif  /* (USBUART_ENABLE_CDC_CLASS) */  
 613:Generated_Source\PSoC4/USBUART_std.c **** 
 614:Generated_Source\PSoC4/USBUART_std.c ****         pTmp = USBUART_GetConfigTablePtr(USBUART_configuration - 1u);
 615:Generated_Source\PSoC4/USBUART_std.c ****         
 616:Generated_Source\PSoC4/USBUART_std.c ****         /* Set Power status for current configuration */
 617:Generated_Source\PSoC4/USBUART_std.c ****         pDescr = (const uint8 *)pTmp->p_list;
 618:Generated_Source\PSoC4/USBUART_std.c ****         if ((pDescr[USBUART_CONFIG_DESCR_ATTRIB] & USBUART_CONFIG_DESCR_ATTRIB_SELF_POWERED) != 0u)
 619:Generated_Source\PSoC4/USBUART_std.c ****         {
 620:Generated_Source\PSoC4/USBUART_std.c ****             USBUART_deviceStatus |= (uint8)  USBUART_DEVICE_STATUS_SELF_POWERED;
 621:Generated_Source\PSoC4/USBUART_std.c ****         }
 622:Generated_Source\PSoC4/USBUART_std.c ****         else
 623:Generated_Source\PSoC4/USBUART_std.c ****         {
 624:Generated_Source\PSoC4/USBUART_std.c ****             USBUART_deviceStatus &= (uint8) ~USBUART_DEVICE_STATUS_SELF_POWERED;
 625:Generated_Source\PSoC4/USBUART_std.c ****         }
 626:Generated_Source\PSoC4/USBUART_std.c ****         
 627:Generated_Source\PSoC4/USBUART_std.c ****         /* Move to next element */
 628:Generated_Source\PSoC4/USBUART_std.c ****         pTmp = &pTmp[1u];
 629:Generated_Source\PSoC4/USBUART_std.c ****         ep = pTmp->c;  /* For this table, c is the number of endpoints configurations  */
 630:Generated_Source\PSoC4/USBUART_std.c **** 
 631:Generated_Source\PSoC4/USBUART_std.c ****         #if (USBUART_EP_MANAGEMENT_MANUAL && USBUART_EP_ALLOC_DYNAMIC)
 632:Generated_Source\PSoC4/USBUART_std.c ****             /* Configure for dynamic EP memory allocation */
 633:Generated_Source\PSoC4/USBUART_std.c ****             /* p_list points the endpoint setting table. */
 634:Generated_Source\PSoC4/USBUART_std.c ****             pEP = (T_USBUART_EP_SETTINGS_BLOCK *) pTmp->p_list;
 635:Generated_Source\PSoC4/USBUART_std.c ****             
 636:Generated_Source\PSoC4/USBUART_std.c ****             for (i = 0u; i < ep; i++)
 637:Generated_Source\PSoC4/USBUART_std.c ****             {     
 638:Generated_Source\PSoC4/USBUART_std.c ****                 /* Compare current Alternate setting with EP Alt */
 639:Generated_Source\PSoC4/USBUART_std.c ****                 if (USBUART_interfaceSetting[pEP->interface] == pEP->altSetting)
 640:Generated_Source\PSoC4/USBUART_std.c ****                 {                                                          
 641:Generated_Source\PSoC4/USBUART_std.c ****                     curEp  = pEP->addr & USBUART_DIR_UNUSED;
 642:Generated_Source\PSoC4/USBUART_std.c ****                     epType = pEP->attributes & USBUART_EP_TYPE_MASK;
 643:Generated_Source\PSoC4/USBUART_std.c ****                     
 644:Generated_Source\PSoC4/USBUART_std.c ****                     USBUART_EP[curEp].addr       = pEP->addr;
 645:Generated_Source\PSoC4/USBUART_std.c ****                     USBUART_EP[curEp].attrib     = pEP->attributes;
 646:Generated_Source\PSoC4/USBUART_std.c ****                     USBUART_EP[curEp].bufferSize = pEP->bufferSize;
 647:Generated_Source\PSoC4/USBUART_std.c **** 
 648:Generated_Source\PSoC4/USBUART_std.c ****                     if (0u != (pEP->addr & USBUART_DIR_IN))
 649:Generated_Source\PSoC4/USBUART_std.c ****                     {
 650:Generated_Source\PSoC4/USBUART_std.c ****                         /* IN Endpoint */
 651:Generated_Source\PSoC4/USBUART_std.c ****                         USBUART_EP[curEp].epMode     = USBUART_GET_ACTIVE_IN_EP_CR0_MODE(epType);
 652:Generated_Source\PSoC4/USBUART_std.c ****                         USBUART_EP[curEp].apiEpState = USBUART_EVENT_PENDING;
ARM GAS  C:\Users\TERENC~1\AppData\Local\Temp\ccz498Tm.s 			page 18


 653:Generated_Source\PSoC4/USBUART_std.c ****                     
 654:Generated_Source\PSoC4/USBUART_std.c ****                     #if (defined(USBUART_ENABLE_MIDI_STREAMING) && (USBUART_MIDI_IN_BUFF_SIZE > 0))
 655:Generated_Source\PSoC4/USBUART_std.c ****                         if ((pEP->bMisc == USBUART_CLASS_AUDIO) && (epType == USBUART_EP_TYPE_BULK)
 656:Generated_Source\PSoC4/USBUART_std.c ****                         {
 657:Generated_Source\PSoC4/USBUART_std.c ****                             USBUART_midi_in_ep = curEp;
 658:Generated_Source\PSoC4/USBUART_std.c ****                         }
 659:Generated_Source\PSoC4/USBUART_std.c ****                     #endif  /* (USBUART_ENABLE_MIDI_STREAMING) */
 660:Generated_Source\PSoC4/USBUART_std.c ****                     }
 661:Generated_Source\PSoC4/USBUART_std.c ****                     else
 662:Generated_Source\PSoC4/USBUART_std.c ****                     {
 663:Generated_Source\PSoC4/USBUART_std.c ****                         /* OUT Endpoint */
 664:Generated_Source\PSoC4/USBUART_std.c ****                         USBUART_EP[curEp].epMode     = USBUART_GET_ACTIVE_OUT_EP_CR0_MODE(epType);
 665:Generated_Source\PSoC4/USBUART_std.c ****                         USBUART_EP[curEp].apiEpState = USBUART_NO_EVENT_PENDING;
 666:Generated_Source\PSoC4/USBUART_std.c ****                         
 667:Generated_Source\PSoC4/USBUART_std.c ****                     #if (defined(USBUART_ENABLE_MIDI_STREAMING) && (USBUART_MIDI_OUT_BUFF_SIZE > 0)
 668:Generated_Source\PSoC4/USBUART_std.c ****                         if ((pEP->bMisc == USBUART_CLASS_AUDIO) && (epType == USBUART_EP_TYPE_BULK)
 669:Generated_Source\PSoC4/USBUART_std.c ****                         {
 670:Generated_Source\PSoC4/USBUART_std.c ****                             USBUART_midi_out_ep = curEp;
 671:Generated_Source\PSoC4/USBUART_std.c ****                         }
 672:Generated_Source\PSoC4/USBUART_std.c ****                     #endif  /* (USBUART_ENABLE_MIDI_STREAMING) */
 673:Generated_Source\PSoC4/USBUART_std.c ****                     }
 674:Generated_Source\PSoC4/USBUART_std.c **** 
 675:Generated_Source\PSoC4/USBUART_std.c ****                 #if(defined (USBUART_ENABLE_CDC_CLASS))
 676:Generated_Source\PSoC4/USBUART_std.c ****                     if((pEP->bMisc == USBUART_CLASS_CDC_DATA) ||(pEP->bMisc == USBUART_CLASS_CDC))
 677:Generated_Source\PSoC4/USBUART_std.c ****                     {
 678:Generated_Source\PSoC4/USBUART_std.c ****                         cdcComNums = USBUART_Cdc_EpInit(pEP, curEp, cdcComNums);
 679:Generated_Source\PSoC4/USBUART_std.c ****                     }
 680:Generated_Source\PSoC4/USBUART_std.c ****                 #endif  /* (USBUART_ENABLE_CDC_CLASS) */
 681:Generated_Source\PSoC4/USBUART_std.c ****                 }
 682:Generated_Source\PSoC4/USBUART_std.c ****                 
 683:Generated_Source\PSoC4/USBUART_std.c ****                 pEP = &pEP[1u];
 684:Generated_Source\PSoC4/USBUART_std.c ****             }
 685:Generated_Source\PSoC4/USBUART_std.c ****             
 686:Generated_Source\PSoC4/USBUART_std.c ****         #else
 687:Generated_Source\PSoC4/USBUART_std.c ****             for (i = USBUART_EP1; i < USBUART_MAX_EP; ++i)
 688:Generated_Source\PSoC4/USBUART_std.c ****             {
 689:Generated_Source\PSoC4/USBUART_std.c ****                 /* p_list points the endpoint setting table. */
 690:Generated_Source\PSoC4/USBUART_std.c ****                 pEP = (const T_USBUART_EP_SETTINGS_BLOCK CYCODE *) pTmp->p_list;
 691:Generated_Source\PSoC4/USBUART_std.c ****                 /* Find max length for each EP and select it (length could be different in differen
 692:Generated_Source\PSoC4/USBUART_std.c ****                 /* but other settings should be correct with regards to Interface alt Setting */
 693:Generated_Source\PSoC4/USBUART_std.c ****                 
 694:Generated_Source\PSoC4/USBUART_std.c ****                 for (curEp = 0u; curEp < ep; ++curEp)
 695:Generated_Source\PSoC4/USBUART_std.c ****                 {
 696:Generated_Source\PSoC4/USBUART_std.c ****                     if (i == (pEP->addr & USBUART_DIR_UNUSED))
 697:Generated_Source\PSoC4/USBUART_std.c ****                     {
 698:Generated_Source\PSoC4/USBUART_std.c ****                         /* Compare endpoint buffers size with current size to find greater. */
 699:Generated_Source\PSoC4/USBUART_std.c ****                         if (USBUART_EP[i].bufferSize < pEP->bufferSize)
 700:Generated_Source\PSoC4/USBUART_std.c ****                         {
 701:Generated_Source\PSoC4/USBUART_std.c ****                             USBUART_EP[i].bufferSize = pEP->bufferSize;
 702:Generated_Source\PSoC4/USBUART_std.c ****                         }
 703:Generated_Source\PSoC4/USBUART_std.c ****                         
 704:Generated_Source\PSoC4/USBUART_std.c ****                         /* Compare current Alternate setting with EP Alt */
 705:Generated_Source\PSoC4/USBUART_std.c ****                         if (USBUART_interfaceSetting[pEP->interface] == pEP->altSetting)
 706:Generated_Source\PSoC4/USBUART_std.c ****                         {                            
 707:Generated_Source\PSoC4/USBUART_std.c ****                             USBUART_EP[i].addr = pEP->addr;
 708:Generated_Source\PSoC4/USBUART_std.c ****                             USBUART_EP[i].attrib = pEP->attributes;
 709:Generated_Source\PSoC4/USBUART_std.c ****                             
ARM GAS  C:\Users\TERENC~1\AppData\Local\Temp\ccz498Tm.s 			page 19


 710:Generated_Source\PSoC4/USBUART_std.c ****                             epType = pEP->attributes & USBUART_EP_TYPE_MASK;
 711:Generated_Source\PSoC4/USBUART_std.c ****                             
 712:Generated_Source\PSoC4/USBUART_std.c ****                             if (0u != (pEP->addr & USBUART_DIR_IN))
 713:Generated_Source\PSoC4/USBUART_std.c ****                             {
 714:Generated_Source\PSoC4/USBUART_std.c ****                                 /* IN Endpoint */
 715:Generated_Source\PSoC4/USBUART_std.c ****                                 USBUART_EP[i].epMode     = USBUART_GET_ACTIVE_IN_EP_CR0_MODE(epType
 716:Generated_Source\PSoC4/USBUART_std.c ****                                 USBUART_EP[i].apiEpState = USBUART_EVENT_PENDING;
 717:Generated_Source\PSoC4/USBUART_std.c ****                                 
 718:Generated_Source\PSoC4/USBUART_std.c ****                             #if (defined(USBUART_ENABLE_MIDI_STREAMING) && (USBUART_MIDI_IN_BUFF_SI
 719:Generated_Source\PSoC4/USBUART_std.c ****                                 if ((pEP->bMisc == USBUART_CLASS_AUDIO) && (epType == USBUART_EP_TY
 720:Generated_Source\PSoC4/USBUART_std.c ****                                 {
 721:Generated_Source\PSoC4/USBUART_std.c ****                                     USBUART_midi_in_ep = i;
 722:Generated_Source\PSoC4/USBUART_std.c ****                                 }
 723:Generated_Source\PSoC4/USBUART_std.c ****                             #endif  /* (USBUART_ENABLE_MIDI_STREAMING) */
 724:Generated_Source\PSoC4/USBUART_std.c ****                             }
 725:Generated_Source\PSoC4/USBUART_std.c ****                             else
 726:Generated_Source\PSoC4/USBUART_std.c ****                             {
 727:Generated_Source\PSoC4/USBUART_std.c ****                                 /* OUT Endpoint */
 728:Generated_Source\PSoC4/USBUART_std.c ****                                 USBUART_EP[i].epMode     = USBUART_GET_ACTIVE_OUT_EP_CR0_MODE(epTyp
 729:Generated_Source\PSoC4/USBUART_std.c ****                                 USBUART_EP[i].apiEpState = USBUART_NO_EVENT_PENDING;
 730:Generated_Source\PSoC4/USBUART_std.c ****                                 
 731:Generated_Source\PSoC4/USBUART_std.c ****                             #if (defined(USBUART_ENABLE_MIDI_STREAMING) && (USBUART_MIDI_OUT_BUFF_S
 732:Generated_Source\PSoC4/USBUART_std.c ****                                 if ((pEP->bMisc == USBUART_CLASS_AUDIO) && (epType == USBUART_EP_TY
 733:Generated_Source\PSoC4/USBUART_std.c ****                                 {
 734:Generated_Source\PSoC4/USBUART_std.c ****                                     USBUART_midi_out_ep = i;
 735:Generated_Source\PSoC4/USBUART_std.c ****                                 }
 736:Generated_Source\PSoC4/USBUART_std.c ****                             #endif  /* (USBUART_ENABLE_MIDI_STREAMING) */
 737:Generated_Source\PSoC4/USBUART_std.c ****                             }
 738:Generated_Source\PSoC4/USBUART_std.c **** 
 739:Generated_Source\PSoC4/USBUART_std.c ****                         #if (defined(USBUART_ENABLE_CDC_CLASS))
 740:Generated_Source\PSoC4/USBUART_std.c ****                             if((pEP->bMisc == USBUART_CLASS_CDC_DATA) ||(pEP->bMisc == USBUART_CLAS
 741:Generated_Source\PSoC4/USBUART_std.c ****                             {
 742:Generated_Source\PSoC4/USBUART_std.c ****                                 cdcComNums = USBUART_Cdc_EpInit(pEP, i, cdcComNums);
 743:Generated_Source\PSoC4/USBUART_std.c ****                             }
 744:Generated_Source\PSoC4/USBUART_std.c ****                         #endif  /* (USBUART_ENABLE_CDC_CLASS) */
 745:Generated_Source\PSoC4/USBUART_std.c **** 
 746:Generated_Source\PSoC4/USBUART_std.c ****                             #if (USBUART_EP_MANAGEMENT_DMA_AUTO)
 747:Generated_Source\PSoC4/USBUART_std.c ****                                 break;  /* Use first EP setting in Auto memory management */
 748:Generated_Source\PSoC4/USBUART_std.c ****                             #endif /* (USBUART_EP_MANAGEMENT_DMA_AUTO) */
 749:Generated_Source\PSoC4/USBUART_std.c ****                         }
 750:Generated_Source\PSoC4/USBUART_std.c ****                     }
 751:Generated_Source\PSoC4/USBUART_std.c ****                     
 752:Generated_Source\PSoC4/USBUART_std.c ****                     pEP = &pEP[1u];
 753:Generated_Source\PSoC4/USBUART_std.c ****                 }
 754:Generated_Source\PSoC4/USBUART_std.c ****             }
 755:Generated_Source\PSoC4/USBUART_std.c ****         #endif /*  (USBUART_EP_MANAGEMENT_MANUAL && USBUART_EP_ALLOC_DYNAMIC) */
 756:Generated_Source\PSoC4/USBUART_std.c **** 
 757:Generated_Source\PSoC4/USBUART_std.c ****         /* Init class array for each interface and interface number for each EP.
 758:Generated_Source\PSoC4/USBUART_std.c ****         *  It is used for handling Class specific requests directed to either an
 759:Generated_Source\PSoC4/USBUART_std.c ****         *  interface or the endpoint.
 760:Generated_Source\PSoC4/USBUART_std.c ****         */
 761:Generated_Source\PSoC4/USBUART_std.c ****         /* p_list points the endpoint setting table. */
 762:Generated_Source\PSoC4/USBUART_std.c ****         pEP = (const T_USBUART_EP_SETTINGS_BLOCK CYCODE *) pTmp->p_list;
 763:Generated_Source\PSoC4/USBUART_std.c ****         for (i = 0u; i < ep; i++)
 764:Generated_Source\PSoC4/USBUART_std.c ****         {
 765:Generated_Source\PSoC4/USBUART_std.c ****             /* Configure interface number for each EP */
 766:Generated_Source\PSoC4/USBUART_std.c ****             USBUART_EP[pEP->addr & USBUART_DIR_UNUSED].interface = pEP->interface;
ARM GAS  C:\Users\TERENC~1\AppData\Local\Temp\ccz498Tm.s 			page 20


 767:Generated_Source\PSoC4/USBUART_std.c ****             pEP = &pEP[1u];
 768:Generated_Source\PSoC4/USBUART_std.c ****         }
 769:Generated_Source\PSoC4/USBUART_std.c ****         
 770:Generated_Source\PSoC4/USBUART_std.c ****         /* Init pointer on interface class table */
 771:Generated_Source\PSoC4/USBUART_std.c ****         USBUART_interfaceClass = USBUART_GetInterfaceClassTablePtr();
 772:Generated_Source\PSoC4/USBUART_std.c ****         
 773:Generated_Source\PSoC4/USBUART_std.c ****     /* Set the endpoint buffer addresses */
 774:Generated_Source\PSoC4/USBUART_std.c ****     #if (!USBUART_EP_MANAGEMENT_DMA_AUTO)
 775:Generated_Source\PSoC4/USBUART_std.c ****         buffCount = 0u;
 776:Generated_Source\PSoC4/USBUART_std.c ****         for (ep = USBUART_EP1; ep < USBUART_MAX_EP; ++ep)
 777:Generated_Source\PSoC4/USBUART_std.c ****         {
 778:Generated_Source\PSoC4/USBUART_std.c ****             USBUART_EP[ep].buffOffset = buffCount;        
 779:Generated_Source\PSoC4/USBUART_std.c ****             buffCount += USBUART_EP[ep].bufferSize;
 780:Generated_Source\PSoC4/USBUART_std.c ****             
 781:Generated_Source\PSoC4/USBUART_std.c ****         #if (USBUART_GEN_16BITS_EP_ACCESS)
 782:Generated_Source\PSoC4/USBUART_std.c ****             /* Align EP buffers to be event size to access 16-bits DR register. */
 783:Generated_Source\PSoC4/USBUART_std.c ****             buffCount += (0u != (buffCount & 0x01u)) ? 1u : 0u;
 784:Generated_Source\PSoC4/USBUART_std.c ****         #endif /* (USBUART_GEN_16BITS_EP_ACCESS) */            
 785:Generated_Source\PSoC4/USBUART_std.c ****         }
 786:Generated_Source\PSoC4/USBUART_std.c ****     #endif /* (!USBUART_EP_MANAGEMENT_DMA_AUTO) */
 787:Generated_Source\PSoC4/USBUART_std.c **** 
 788:Generated_Source\PSoC4/USBUART_std.c ****         /* Configure hardware registers */
 789:Generated_Source\PSoC4/USBUART_std.c ****         USBUART_ConfigReg();
 790:Generated_Source\PSoC4/USBUART_std.c ****     }
 791:Generated_Source\PSoC4/USBUART_std.c **** }
 792:Generated_Source\PSoC4/USBUART_std.c **** 
 793:Generated_Source\PSoC4/USBUART_std.c **** 
 794:Generated_Source\PSoC4/USBUART_std.c **** /*******************************************************************************
 795:Generated_Source\PSoC4/USBUART_std.c **** * Function Name: USBUART_ConfigAltChanged
 796:Generated_Source\PSoC4/USBUART_std.c **** ****************************************************************************//**
 797:Generated_Source\PSoC4/USBUART_std.c **** *
 798:Generated_Source\PSoC4/USBUART_std.c **** *  This routine update configuration for the required endpoints only.
 799:Generated_Source\PSoC4/USBUART_std.c **** *  It is called after SET_INTERFACE request when Static memory allocation used.
 800:Generated_Source\PSoC4/USBUART_std.c **** *
 801:Generated_Source\PSoC4/USBUART_std.c **** * \reentrant
 802:Generated_Source\PSoC4/USBUART_std.c **** *  No.
 803:Generated_Source\PSoC4/USBUART_std.c **** *
 804:Generated_Source\PSoC4/USBUART_std.c **** *******************************************************************************/
 805:Generated_Source\PSoC4/USBUART_std.c **** void USBUART_ConfigAltChanged(void) 
 806:Generated_Source\PSoC4/USBUART_std.c **** {
 807:Generated_Source\PSoC4/USBUART_std.c ****     uint32 ep;
 808:Generated_Source\PSoC4/USBUART_std.c ****     uint32 curEp;
 809:Generated_Source\PSoC4/USBUART_std.c ****     uint32 epType;
 810:Generated_Source\PSoC4/USBUART_std.c ****     uint32 i;
 811:Generated_Source\PSoC4/USBUART_std.c ****     uint8 interfaceNum;
 812:Generated_Source\PSoC4/USBUART_std.c **** 
 813:Generated_Source\PSoC4/USBUART_std.c ****     const T_USBUART_LUT CYCODE *pTmp;
 814:Generated_Source\PSoC4/USBUART_std.c ****     const T_USBUART_EP_SETTINGS_BLOCK CYCODE *pEP;
 815:Generated_Source\PSoC4/USBUART_std.c **** 
 816:Generated_Source\PSoC4/USBUART_std.c ****     /* Init Endpoints and Device Status if configured */
 817:Generated_Source\PSoC4/USBUART_std.c ****     if (USBUART_configuration > 0u)
 818:Generated_Source\PSoC4/USBUART_std.c ****     {
 819:Generated_Source\PSoC4/USBUART_std.c ****         /* Get number of endpoints configurations (ep). */
 820:Generated_Source\PSoC4/USBUART_std.c ****         pTmp = USBUART_GetConfigTablePtr(USBUART_configuration - 1u);
 821:Generated_Source\PSoC4/USBUART_std.c ****         pTmp = &pTmp[1u];
 822:Generated_Source\PSoC4/USBUART_std.c ****         ep = pTmp->c;
 823:Generated_Source\PSoC4/USBUART_std.c **** 
ARM GAS  C:\Users\TERENC~1\AppData\Local\Temp\ccz498Tm.s 			page 21


 824:Generated_Source\PSoC4/USBUART_std.c ****         /* Get pointer to endpoints setting table (pEP). */
 825:Generated_Source\PSoC4/USBUART_std.c ****         pEP = (const T_USBUART_EP_SETTINGS_BLOCK CYCODE *) pTmp->p_list;
 826:Generated_Source\PSoC4/USBUART_std.c ****         
 827:Generated_Source\PSoC4/USBUART_std.c ****         /* Look through all possible endpoint configurations. Find endpoints 
 828:Generated_Source\PSoC4/USBUART_std.c ****         * which belong to current interface and alternate settings for 
 829:Generated_Source\PSoC4/USBUART_std.c ****         * re-configuration.
 830:Generated_Source\PSoC4/USBUART_std.c ****         */
 831:Generated_Source\PSoC4/USBUART_std.c ****         interfaceNum = USBUART_interfaceNumber;
 832:Generated_Source\PSoC4/USBUART_std.c ****         for (i = 0u; i < ep; i++)
 833:Generated_Source\PSoC4/USBUART_std.c ****         {
 834:Generated_Source\PSoC4/USBUART_std.c ****             /* Find endpoints which belong to current interface and alternate settings. */
 835:Generated_Source\PSoC4/USBUART_std.c ****             if ((interfaceNum == pEP->interface) && 
 836:Generated_Source\PSoC4/USBUART_std.c ****                 (USBUART_interfaceSetting[interfaceNum] == pEP->altSetting))
 837:Generated_Source\PSoC4/USBUART_std.c ****             {
 838:Generated_Source\PSoC4/USBUART_std.c ****                 curEp  = ((uint32) pEP->addr & USBUART_DIR_UNUSED);
 839:Generated_Source\PSoC4/USBUART_std.c ****                 epType = ((uint32) pEP->attributes & USBUART_EP_TYPE_MASK);
 840:Generated_Source\PSoC4/USBUART_std.c ****                 
 841:Generated_Source\PSoC4/USBUART_std.c ****                 /* Change the SIE mode for the selected EP to NAK ALL */
 842:Generated_Source\PSoC4/USBUART_std.c ****                 USBUART_EP[curEp].epToggle   = 0u;
 843:Generated_Source\PSoC4/USBUART_std.c ****                 USBUART_EP[curEp].addr       = pEP->addr;
 844:Generated_Source\PSoC4/USBUART_std.c ****                 USBUART_EP[curEp].attrib     = pEP->attributes;
 845:Generated_Source\PSoC4/USBUART_std.c ****                 USBUART_EP[curEp].bufferSize = pEP->bufferSize;
 846:Generated_Source\PSoC4/USBUART_std.c **** 
 847:Generated_Source\PSoC4/USBUART_std.c ****                 if (0u != (pEP->addr & USBUART_DIR_IN))
 848:Generated_Source\PSoC4/USBUART_std.c ****                 {
 849:Generated_Source\PSoC4/USBUART_std.c ****                     /* IN Endpoint */
 850:Generated_Source\PSoC4/USBUART_std.c ****                     USBUART_EP[curEp].epMode     = USBUART_GET_ACTIVE_IN_EP_CR0_MODE(epType);
 851:Generated_Source\PSoC4/USBUART_std.c ****                     USBUART_EP[curEp].apiEpState = USBUART_EVENT_PENDING;
 852:Generated_Source\PSoC4/USBUART_std.c ****                 }
 853:Generated_Source\PSoC4/USBUART_std.c ****                 else
 854:Generated_Source\PSoC4/USBUART_std.c ****                 {
 855:Generated_Source\PSoC4/USBUART_std.c ****                     /* OUT Endpoint */
 856:Generated_Source\PSoC4/USBUART_std.c ****                     USBUART_EP[curEp].epMode     = USBUART_GET_ACTIVE_OUT_EP_CR0_MODE(epType);
 857:Generated_Source\PSoC4/USBUART_std.c ****                     USBUART_EP[curEp].apiEpState = USBUART_NO_EVENT_PENDING;
 858:Generated_Source\PSoC4/USBUART_std.c ****                 }
 859:Generated_Source\PSoC4/USBUART_std.c ****                 
 860:Generated_Source\PSoC4/USBUART_std.c ****                 /* Make SIE to NAK any endpoint requests */
 861:Generated_Source\PSoC4/USBUART_std.c ****                 USBUART_SIE_EP_BASE.sieEp[curEp].epCr0 = USBUART_MODE_NAK_IN_OUT;
 862:Generated_Source\PSoC4/USBUART_std.c **** 
 863:Generated_Source\PSoC4/USBUART_std.c ****             #if (USBUART_EP_MANAGEMENT_DMA_AUTO)
 864:Generated_Source\PSoC4/USBUART_std.c ****                 /* Clear IN data ready. */
 865:Generated_Source\PSoC4/USBUART_std.c ****                 USBUART_ARB_EP_BASE.arbEp[curEp].epCfg &= (uint32) ~USBUART_ARB_EPX_CFG_IN_DATA_RDY
 866:Generated_Source\PSoC4/USBUART_std.c **** 
 867:Generated_Source\PSoC4/USBUART_std.c ****                 /* Select endpoint number of reconfiguration */
 868:Generated_Source\PSoC4/USBUART_std.c ****                 USBUART_DYN_RECONFIG_REG = (uint32) ((curEp - 1u) << USBUART_DYN_RECONFIG_EP_SHIFT)
 869:Generated_Source\PSoC4/USBUART_std.c ****                 
 870:Generated_Source\PSoC4/USBUART_std.c ****                 /* Request for dynamic re-configuration of endpoint. */
 871:Generated_Source\PSoC4/USBUART_std.c ****                 USBUART_DYN_RECONFIG_REG |= USBUART_DYN_RECONFIG_ENABLE;
 872:Generated_Source\PSoC4/USBUART_std.c ****                 
 873:Generated_Source\PSoC4/USBUART_std.c ****                 /* Wait until block is ready for re-configuration */
 874:Generated_Source\PSoC4/USBUART_std.c ****                 while (0u == (USBUART_DYN_RECONFIG_REG & USBUART_DYN_RECONFIG_RDY_STS))
 875:Generated_Source\PSoC4/USBUART_std.c ****                 {
 876:Generated_Source\PSoC4/USBUART_std.c ****                 }
 877:Generated_Source\PSoC4/USBUART_std.c ****                 
 878:Generated_Source\PSoC4/USBUART_std.c ****                 /* Once DYN_RECONFIG_RDY_STS bit is set, FW can change the EP configuration. */
 879:Generated_Source\PSoC4/USBUART_std.c ****                 /* Change EP Type with new direction */
 880:Generated_Source\PSoC4/USBUART_std.c ****                 if (0u != (pEP->addr & USBUART_DIR_IN))
ARM GAS  C:\Users\TERENC~1\AppData\Local\Temp\ccz498Tm.s 			page 22


 881:Generated_Source\PSoC4/USBUART_std.c ****                 {
 882:Generated_Source\PSoC4/USBUART_std.c ****                     /* Set endpoint type: 0 - IN and 1 - OUT. */
 883:Generated_Source\PSoC4/USBUART_std.c ****                     USBUART_EP_TYPE_REG &= (uint32) ~(uint32)((uint32) 0x01u << (curEp - 1u));
 884:Generated_Source\PSoC4/USBUART_std.c ****                     
 885:Generated_Source\PSoC4/USBUART_std.c ****                 #if (CY_PSOC4)
 886:Generated_Source\PSoC4/USBUART_std.c ****                     /* Clear DMA_TERMIN for IN endpoint */
 887:Generated_Source\PSoC4/USBUART_std.c ****                     USBUART_ARB_EP_BASE.arbEp[curEp].epIntEn &= (uint32) ~USBUART_ARB_EPX_INT_DMA_T
 888:Generated_Source\PSoC4/USBUART_std.c ****                 #endif /* (CY_PSOC4) */
 889:Generated_Source\PSoC4/USBUART_std.c ****                 }
 890:Generated_Source\PSoC4/USBUART_std.c ****                 else
 891:Generated_Source\PSoC4/USBUART_std.c ****                 {
 892:Generated_Source\PSoC4/USBUART_std.c ****                     /* Set endpoint type: 0 - IN and 1- OUT. */
 893:Generated_Source\PSoC4/USBUART_std.c ****                     USBUART_EP_TYPE_REG |= (uint32) ((uint32) 0x01u << (curEp - 1u));
 894:Generated_Source\PSoC4/USBUART_std.c ****                     
 895:Generated_Source\PSoC4/USBUART_std.c ****                 #if (CY_PSOC4)
 896:Generated_Source\PSoC4/USBUART_std.c ****                     /* Set DMA_TERMIN for OUT endpoint */
 897:Generated_Source\PSoC4/USBUART_std.c ****                     USBUART_ARB_EP_BASE.arbEp[curEp].epIntEn |= (uint32) USBUART_ARB_EPX_INT_DMA_TE
 898:Generated_Source\PSoC4/USBUART_std.c ****                 #endif /* (CY_PSOC4) */
 899:Generated_Source\PSoC4/USBUART_std.c ****                 }
 900:Generated_Source\PSoC4/USBUART_std.c ****                 
 901:Generated_Source\PSoC4/USBUART_std.c ****                 /* Complete dynamic re-configuration: all endpoint related status and signals 
 902:Generated_Source\PSoC4/USBUART_std.c ****                 * are set into the default state.
 903:Generated_Source\PSoC4/USBUART_std.c ****                 */
 904:Generated_Source\PSoC4/USBUART_std.c ****                 USBUART_DYN_RECONFIG_REG &= (uint32) ~USBUART_DYN_RECONFIG_ENABLE;
 905:Generated_Source\PSoC4/USBUART_std.c **** 
 906:Generated_Source\PSoC4/USBUART_std.c ****             #else
 907:Generated_Source\PSoC4/USBUART_std.c ****                 USBUART_SIE_EP_BASE.sieEp[curEp].epCnt0 = HI8(USBUART_EP[curEp].bufferSize);
 908:Generated_Source\PSoC4/USBUART_std.c ****                 USBUART_SIE_EP_BASE.sieEp[curEp].epCnt1 = LO8(USBUART_EP[curEp].bufferSize);
 909:Generated_Source\PSoC4/USBUART_std.c ****                 
 910:Generated_Source\PSoC4/USBUART_std.c ****                 #if (CY_PSOC4)
 911:Generated_Source\PSoC4/USBUART_std.c ****                     USBUART_ARB_EP16_BASE.arbEp[curEp].rwRa16  = (uint32) USBUART_EP[curEp].buffOff
 912:Generated_Source\PSoC4/USBUART_std.c ****                     USBUART_ARB_EP16_BASE.arbEp[curEp].rwWa16  = (uint32) USBUART_EP[curEp].buffOff
 913:Generated_Source\PSoC4/USBUART_std.c ****                 #else
 914:Generated_Source\PSoC4/USBUART_std.c ****                     USBUART_ARB_EP_BASE.arbEp[curEp].rwRa    = LO8(USBUART_EP[curEp].buffOffset);
 915:Generated_Source\PSoC4/USBUART_std.c ****                     USBUART_ARB_EP_BASE.arbEp[curEp].rwRaMsb = HI8(USBUART_EP[curEp].buffOffset);
 916:Generated_Source\PSoC4/USBUART_std.c ****                     USBUART_ARB_EP_BASE.arbEp[curEp].rwWa    = LO8(USBUART_EP[curEp].buffOffset);
 917:Generated_Source\PSoC4/USBUART_std.c ****                     USBUART_ARB_EP_BASE.arbEp[curEp].rwWaMsb = HI8(USBUART_EP[curEp].buffOffset);
 918:Generated_Source\PSoC4/USBUART_std.c ****                 #endif /* (CY_PSOC4) */                
 919:Generated_Source\PSoC4/USBUART_std.c ****             #endif /* (USBUART_EP_MANAGEMENT_DMA_AUTO) */
 920:Generated_Source\PSoC4/USBUART_std.c ****             }
 921:Generated_Source\PSoC4/USBUART_std.c ****             
 922:Generated_Source\PSoC4/USBUART_std.c ****             pEP = &pEP[1u]; /* Get next EP element */
 923:Generated_Source\PSoC4/USBUART_std.c ****         }
 924:Generated_Source\PSoC4/USBUART_std.c ****         
 925:Generated_Source\PSoC4/USBUART_std.c ****         /* The main loop has to re-enable DMA and OUT endpoint */
 926:Generated_Source\PSoC4/USBUART_std.c ****     }
 927:Generated_Source\PSoC4/USBUART_std.c **** }
 928:Generated_Source\PSoC4/USBUART_std.c **** 
 929:Generated_Source\PSoC4/USBUART_std.c **** 
 930:Generated_Source\PSoC4/USBUART_std.c **** /*******************************************************************************
 931:Generated_Source\PSoC4/USBUART_std.c **** * Function Name: USBUART_GetConfigTablePtr
 932:Generated_Source\PSoC4/USBUART_std.c **** ****************************************************************************//**
 933:Generated_Source\PSoC4/USBUART_std.c **** *
 934:Generated_Source\PSoC4/USBUART_std.c **** *  This routine returns a pointer a configuration table entry
 935:Generated_Source\PSoC4/USBUART_std.c **** *
 936:Generated_Source\PSoC4/USBUART_std.c **** *  \param confIndex:  Configuration Index
 937:Generated_Source\PSoC4/USBUART_std.c **** *
ARM GAS  C:\Users\TERENC~1\AppData\Local\Temp\ccz498Tm.s 			page 23


 938:Generated_Source\PSoC4/USBUART_std.c **** * \return
 939:Generated_Source\PSoC4/USBUART_std.c **** *  Device Descriptor pointer or NULL when descriptor does not exist.
 940:Generated_Source\PSoC4/USBUART_std.c **** *
 941:Generated_Source\PSoC4/USBUART_std.c **** *******************************************************************************/
 942:Generated_Source\PSoC4/USBUART_std.c **** const T_USBUART_LUT CYCODE *USBUART_GetConfigTablePtr(uint8 confIndex)
 943:Generated_Source\PSoC4/USBUART_std.c ****                                                         
 944:Generated_Source\PSoC4/USBUART_std.c **** {
 311              		.loc 1 944 0
 312              		.cfi_startproc
 313              		@ args = 0, pretend = 0, frame = 0
 314              		@ frame_needed = 0, uses_anonymous_args = 0
 315              		@ link register save eliminated.
 316              	.LVL17:
 945:Generated_Source\PSoC4/USBUART_std.c ****     /* Device Table */
 946:Generated_Source\PSoC4/USBUART_std.c ****     const T_USBUART_LUT CYCODE *pTmp;
 947:Generated_Source\PSoC4/USBUART_std.c **** 
 948:Generated_Source\PSoC4/USBUART_std.c ****     pTmp = (const T_USBUART_LUT CYCODE *) USBUART_TABLE[USBUART_device].p_list;
 317              		.loc 1 948 0
 318 0000 074B     		ldr	r3, .L25
 319 0002 1B78     		ldrb	r3, [r3]
 320 0004 DB00     		lsls	r3, r3, #3
 321 0006 074A     		ldr	r2, .L25+4
 322 0008 D318     		adds	r3, r2, r3
 323 000a 5B68     		ldr	r3, [r3, #4]
 324              	.LVL18:
 949:Generated_Source\PSoC4/USBUART_std.c **** 
 950:Generated_Source\PSoC4/USBUART_std.c ****     /* The first entry points to the Device Descriptor,
 951:Generated_Source\PSoC4/USBUART_std.c ****     *  the second entry point to the BOS Descriptor
 952:Generated_Source\PSoC4/USBUART_std.c ****     *  the rest configuration entries.
 953:Generated_Source\PSoC4/USBUART_std.c ****     *  Set pointer to the first Configuration Descriptor
 954:Generated_Source\PSoC4/USBUART_std.c ****     */
 955:Generated_Source\PSoC4/USBUART_std.c ****     pTmp = &pTmp[2u];
 956:Generated_Source\PSoC4/USBUART_std.c ****     /* For this table, c is the number of configuration descriptors  */
 957:Generated_Source\PSoC4/USBUART_std.c ****     if(confIndex >= pTmp->c)   /* Verify that required configuration descriptor exists */
 325              		.loc 1 957 0
 326 000c 1A7C     		ldrb	r2, [r3, #16]
 327 000e 8242     		cmp	r2, r0
 328 0010 04D9     		bls	.L24
 958:Generated_Source\PSoC4/USBUART_std.c ****     {
 959:Generated_Source\PSoC4/USBUART_std.c ****         pTmp = (const T_USBUART_LUT CYCODE *) NULL;
 960:Generated_Source\PSoC4/USBUART_std.c ****     }
 961:Generated_Source\PSoC4/USBUART_std.c ****     else
 962:Generated_Source\PSoC4/USBUART_std.c ****     {
 963:Generated_Source\PSoC4/USBUART_std.c ****         pTmp = (const T_USBUART_LUT CYCODE *) pTmp[confIndex].p_list;
 329              		.loc 1 963 0
 330 0012 C000     		lsls	r0, r0, #3
 331              	.LVL19:
 332 0014 1030     		adds	r0, r0, #16
 333 0016 1818     		adds	r0, r3, r0
 334 0018 4068     		ldr	r0, [r0, #4]
 335              	.LVL20:
 336 001a 00E0     		b	.L23
 337              	.LVL21:
 338              	.L24:
 959:Generated_Source\PSoC4/USBUART_std.c ****     }
 339              		.loc 1 959 0
 340 001c 0020     		movs	r0, #0
ARM GAS  C:\Users\TERENC~1\AppData\Local\Temp\ccz498Tm.s 			page 24


 341              	.LVL22:
 342              	.L23:
 964:Generated_Source\PSoC4/USBUART_std.c ****     }
 965:Generated_Source\PSoC4/USBUART_std.c **** 
 966:Generated_Source\PSoC4/USBUART_std.c ****     return (pTmp);
 967:Generated_Source\PSoC4/USBUART_std.c **** }
 343              		.loc 1 967 0
 344              		@ sp needed
 345 001e 7047     		bx	lr
 346              	.L26:
 347              		.align	2
 348              	.L25:
 349 0020 00000000 		.word	USBUART_device
 350 0024 00000000 		.word	USBUART_TABLE
 351              		.cfi_endproc
 352              	.LFE7:
 353              		.size	USBUART_GetConfigTablePtr, .-USBUART_GetConfigTablePtr
 354              		.section	.text.USBUART_ConfigAltChanged,"ax",%progbits
 355              		.align	2
 356              		.global	USBUART_ConfigAltChanged
 357              		.code	16
 358              		.thumb_func
 359              		.type	USBUART_ConfigAltChanged, %function
 360              	USBUART_ConfigAltChanged:
 361              	.LFB6:
 806:Generated_Source\PSoC4/USBUART_std.c ****     uint32 ep;
 362              		.loc 1 806 0
 363              		.cfi_startproc
 364              		@ args = 0, pretend = 0, frame = 0
 365              		@ frame_needed = 0, uses_anonymous_args = 0
 366 0000 F0B5     		push	{r4, r5, r6, r7, lr}
 367              		.cfi_def_cfa_offset 20
 368              		.cfi_offset 4, -20
 369              		.cfi_offset 5, -16
 370              		.cfi_offset 6, -12
 371              		.cfi_offset 7, -8
 372              		.cfi_offset 14, -4
 373 0002 5746     		mov	r7, r10
 374 0004 4E46     		mov	r6, r9
 375 0006 4546     		mov	r5, r8
 376 0008 E0B4     		push	{r5, r6, r7}
 377              		.cfi_def_cfa_offset 32
 378              		.cfi_offset 8, -32
 379              		.cfi_offset 9, -28
 380              		.cfi_offset 10, -24
 817:Generated_Source\PSoC4/USBUART_std.c ****     {
 381              		.loc 1 817 0
 382 000a 3F4B     		ldr	r3, .L38
 383 000c 1B78     		ldrb	r3, [r3]
 384 000e 002B     		cmp	r3, #0
 385 0010 75D0     		beq	.L27
 820:Generated_Source\PSoC4/USBUART_std.c ****         pTmp = &pTmp[1u];
 386              		.loc 1 820 0
 387 0012 3D4B     		ldr	r3, .L38
 388 0014 1878     		ldrb	r0, [r3]
 389 0016 0138     		subs	r0, r0, #1
 390 0018 C0B2     		uxtb	r0, r0
ARM GAS  C:\Users\TERENC~1\AppData\Local\Temp\ccz498Tm.s 			page 25


 391 001a FFF7FEFF 		bl	USBUART_GetConfigTablePtr
 392              	.LVL23:
 822:Generated_Source\PSoC4/USBUART_std.c **** 
 393              		.loc 1 822 0
 394 001e 047A     		ldrb	r4, [r0, #8]
 395              	.LVL24:
 825:Generated_Source\PSoC4/USBUART_std.c ****         
 396              		.loc 1 825 0
 397 0020 C368     		ldr	r3, [r0, #12]
 398              	.LVL25:
 831:Generated_Source\PSoC4/USBUART_std.c ****         for (i = 0u; i < ep; i++)
 399              		.loc 1 831 0
 400 0022 3A4A     		ldr	r2, .L38+4
 401 0024 1078     		ldrb	r0, [r2]
 402              	.LVL26:
 403 0026 C0B2     		uxtb	r0, r0
 404              	.LVL27:
 832:Generated_Source\PSoC4/USBUART_std.c ****         {
 405              		.loc 1 832 0
 406 0028 0022     		movs	r2, #0
 407 002a 66E0     		b	.L29
 408              	.LVL28:
 409              	.L35:
 835:Generated_Source\PSoC4/USBUART_std.c ****                 (USBUART_interfaceSetting[interfaceNum] == pEP->altSetting))
 410              		.loc 1 835 0
 411 002c 1978     		ldrb	r1, [r3]
 412 002e 8842     		cmp	r0, r1
 413 0030 61D1     		bne	.L30
 836:Generated_Source\PSoC4/USBUART_std.c ****             {
 414              		.loc 1 836 0 discriminator 1
 415 0032 3749     		ldr	r1, .L38+8
 416 0034 095C     		ldrb	r1, [r1, r0]
 417 0036 C9B2     		uxtb	r1, r1
 418 0038 5D78     		ldrb	r5, [r3, #1]
 835:Generated_Source\PSoC4/USBUART_std.c ****                 (USBUART_interfaceSetting[interfaceNum] == pEP->altSetting))
 419              		.loc 1 835 0 discriminator 1
 420 003a A942     		cmp	r1, r5
 421 003c 5BD1     		bne	.L30
 838:Generated_Source\PSoC4/USBUART_std.c ****                 epType = ((uint32) pEP->attributes & USBUART_EP_TYPE_MASK);
 422              		.loc 1 838 0
 423 003e 9978     		ldrb	r1, [r3, #2]
 424 0040 7F25     		movs	r5, #127
 425 0042 2940     		ands	r1, r5
 426              	.LVL29:
 839:Generated_Source\PSoC4/USBUART_std.c ****                 
 427              		.loc 1 839 0
 428 0044 DD78     		ldrb	r5, [r3, #3]
 429 0046 0326     		movs	r6, #3
 430 0048 2E40     		ands	r6, r5
 431 004a B446     		mov	ip, r6
 432              	.LVL30:
 842:Generated_Source\PSoC4/USBUART_std.c ****                 USBUART_EP[curEp].addr       = pEP->addr;
 433              		.loc 1 842 0
 434 004c 314D     		ldr	r5, .L38+12
 435 004e A846     		mov	r8, r5
 436 0050 4E00     		lsls	r6, r1, #1
 437              	.LVL31:
ARM GAS  C:\Users\TERENC~1\AppData\Local\Temp\ccz498Tm.s 			page 26


 438 0052 7718     		adds	r7, r6, r1
 439 0054 BD00     		lsls	r5, r7, #2
 440 0056 4544     		add	r5, r5, r8
 441 0058 AA46     		mov	r10, r5
 442 005a 0027     		movs	r7, #0
 443 005c EF70     		strb	r7, [r5, #3]
 843:Generated_Source\PSoC4/USBUART_std.c ****                 USBUART_EP[curEp].attrib     = pEP->attributes;
 444              		.loc 1 843 0
 445 005e 9F78     		ldrb	r7, [r3, #2]
 446 0060 2F71     		strb	r7, [r5, #4]
 844:Generated_Source\PSoC4/USBUART_std.c ****                 USBUART_EP[curEp].bufferSize = pEP->bufferSize;
 447              		.loc 1 844 0
 448 0062 DF78     		ldrb	r7, [r3, #3]
 449 0064 B946     		mov	r9, r7
 450 0066 7618     		adds	r6, r6, r1
 451 0068 B700     		lsls	r7, r6, #2
 452 006a 4646     		mov	r6, r8
 453 006c 4D46     		mov	r5, r9
 454 006e BD55     		strb	r5, [r7, r6]
 845:Generated_Source\PSoC4/USBUART_std.c **** 
 455              		.loc 1 845 0
 456 0070 9E88     		ldrh	r6, [r3, #4]
 457 0072 5546     		mov	r5, r10
 458 0074 2E81     		strh	r6, [r5, #8]
 847:Generated_Source\PSoC4/USBUART_std.c ****                 {
 459              		.loc 1 847 0
 460 0076 0225     		movs	r5, #2
 461 0078 5D57     		ldrsb	r5, [r3, r5]
 462 007a 002D     		cmp	r5, #0
 463 007c 0EDA     		bge	.L31
 850:Generated_Source\PSoC4/USBUART_std.c ****                     USBUART_EP[curEp].apiEpState = USBUART_EVENT_PENDING;
 464              		.loc 1 850 0
 465 007e 6546     		mov	r5, ip
 466 0080 012D     		cmp	r5, #1
 467 0082 01D1     		bne	.L36
 468 0084 0727     		movs	r7, #7
 469 0086 00E0     		b	.L32
 470              	.L36:
 471 0088 0D27     		movs	r7, #13
 472              	.L32:
 850:Generated_Source\PSoC4/USBUART_std.c ****                     USBUART_EP[curEp].apiEpState = USBUART_EVENT_PENDING;
 473              		.loc 1 850 0 is_stmt 0 discriminator 4
 474 008a 4E00     		lsls	r6, r1, #1
 475 008c 7618     		adds	r6, r6, r1
 476 008e B500     		lsls	r5, r6, #2
 477 0090 204E     		ldr	r6, .L38+12
 478 0092 7519     		adds	r5, r6, r5
 479 0094 6F71     		strb	r7, [r5, #5]
 851:Generated_Source\PSoC4/USBUART_std.c ****                 }
 480              		.loc 1 851 0 is_stmt 1 discriminator 4
 481 0096 0126     		movs	r6, #1
 482 0098 6E70     		strb	r6, [r5, #1]
 483 009a 0DE0     		b	.L33
 484              	.L31:
 856:Generated_Source\PSoC4/USBUART_std.c ****                     USBUART_EP[curEp].apiEpState = USBUART_NO_EVENT_PENDING;
 485              		.loc 1 856 0
 486 009c 6546     		mov	r5, ip
ARM GAS  C:\Users\TERENC~1\AppData\Local\Temp\ccz498Tm.s 			page 27


 487 009e 012D     		cmp	r5, #1
 488 00a0 01D1     		bne	.L37
 489              	.LVL32:
 490 00a2 0527     		movs	r7, #5
 491 00a4 00E0     		b	.L34
 492              	.L37:
 493 00a6 0927     		movs	r7, #9
 494              	.L34:
 856:Generated_Source\PSoC4/USBUART_std.c ****                     USBUART_EP[curEp].apiEpState = USBUART_NO_EVENT_PENDING;
 495              		.loc 1 856 0 is_stmt 0 discriminator 4
 496 00a8 4E00     		lsls	r6, r1, #1
 497 00aa 7618     		adds	r6, r6, r1
 498 00ac B500     		lsls	r5, r6, #2
 499              	.LVL33:
 500 00ae 194E     		ldr	r6, .L38+12
 501 00b0 7519     		adds	r5, r6, r5
 502 00b2 6F71     		strb	r7, [r5, #5]
 857:Generated_Source\PSoC4/USBUART_std.c ****                 }
 503              		.loc 1 857 0 is_stmt 1 discriminator 4
 504 00b4 0026     		movs	r6, #0
 505 00b6 6E70     		strb	r6, [r5, #1]
 506              	.L33:
 861:Generated_Source\PSoC4/USBUART_std.c **** 
 507              		.loc 1 861 0
 508 00b8 8D01     		lsls	r5, r1, #6
 509 00ba 174E     		ldr	r6, .L38+16
 510 00bc B146     		mov	r9, r6
 511 00be A944     		add	r9, r9, r5
 512 00c0 0126     		movs	r6, #1
 513 00c2 4F46     		mov	r7, r9
 514 00c4 BE60     		str	r6, [r7, #8]
 907:Generated_Source\PSoC4/USBUART_std.c ****                 USBUART_SIE_EP_BASE.sieEp[curEp].epCnt1 = LO8(USBUART_EP[curEp].bufferSize);
 515              		.loc 1 907 0
 516 00c6 4E00     		lsls	r6, r1, #1
 517 00c8 7118     		adds	r1, r6, r1
 518              	.LVL34:
 519 00ca 8E00     		lsls	r6, r1, #2
 520 00cc 1149     		ldr	r1, .L38+12
 521 00ce 8919     		adds	r1, r1, r6
 522 00d0 0E89     		ldrh	r6, [r1, #8]
 523 00d2 360A     		lsrs	r6, r6, #8
 524 00d4 B046     		mov	r8, r6
 525 00d6 104E     		ldr	r6, .L38+16
 526 00d8 4746     		mov	r7, r8
 527 00da AF51     		str	r7, [r5, r6]
 908:Generated_Source\PSoC4/USBUART_std.c ****                 
 528              		.loc 1 908 0
 529 00dc 0E89     		ldrh	r6, [r1, #8]
 530 00de F6B2     		uxtb	r6, r6
 531 00e0 4F46     		mov	r7, r9
 532 00e2 7E60     		str	r6, [r7, #4]
 911:Generated_Source\PSoC4/USBUART_std.c ****                     USBUART_ARB_EP16_BASE.arbEp[curEp].rwWa16  = (uint32) USBUART_EP[curEp].buffOff
 533              		.loc 1 911 0
 534 00e4 CE88     		ldrh	r6, [r1, #6]
 535 00e6 B6B2     		uxth	r6, r6
 536 00e8 0C4F     		ldr	r7, .L38+20
 537 00ea EF19     		adds	r7, r5, r7
ARM GAS  C:\Users\TERENC~1\AppData\Local\Temp\ccz498Tm.s 			page 28


 538 00ec BE60     		str	r6, [r7, #8]
 912:Generated_Source\PSoC4/USBUART_std.c ****                 #else
 539              		.loc 1 912 0
 540 00ee C988     		ldrh	r1, [r1, #6]
 541 00f0 89B2     		uxth	r1, r1
 542 00f2 0A4E     		ldr	r6, .L38+20
 543 00f4 A951     		str	r1, [r5, r6]
 544              	.LVL35:
 545              	.L30:
 922:Generated_Source\PSoC4/USBUART_std.c ****         }
 546              		.loc 1 922 0 discriminator 2
 547 00f6 0833     		adds	r3, r3, #8
 548              	.LVL36:
 832:Generated_Source\PSoC4/USBUART_std.c ****         {
 549              		.loc 1 832 0 discriminator 2
 550 00f8 0132     		adds	r2, r2, #1
 551              	.LVL37:
 552              	.L29:
 832:Generated_Source\PSoC4/USBUART_std.c ****         {
 553              		.loc 1 832 0 is_stmt 0 discriminator 1
 554 00fa A242     		cmp	r2, r4
 555 00fc 96D3     		bcc	.L35
 556              	.LVL38:
 557              	.L27:
 927:Generated_Source\PSoC4/USBUART_std.c **** 
 558              		.loc 1 927 0 is_stmt 1
 559              		@ sp needed
 560 00fe 1CBC     		pop	{r2, r3, r4}
 561 0100 9046     		mov	r8, r2
 562 0102 9946     		mov	r9, r3
 563 0104 A246     		mov	r10, r4
 564 0106 F0BD     		pop	{r4, r5, r6, r7, pc}
 565              	.L39:
 566              		.align	2
 567              	.L38:
 568 0108 00000000 		.word	USBUART_configuration
 569 010c 00000000 		.word	USBUART_interfaceNumber
 570 0110 00000000 		.word	USBUART_interfaceSetting
 571 0114 00000000 		.word	USBUART_EP
 572 0118 F0FF2B40 		.word	1076625392
 573 011c D0112C40 		.word	1076629968
 574              		.cfi_endproc
 575              	.LFE6:
 576              		.size	USBUART_ConfigAltChanged, .-USBUART_ConfigAltChanged
 577              		.section	.text.USBUART_GetDeviceTablePtr,"ax",%progbits
 578              		.align	2
 579              		.global	USBUART_GetDeviceTablePtr
 580              		.code	16
 581              		.thumb_func
 582              		.type	USBUART_GetDeviceTablePtr, %function
 583              	USBUART_GetDeviceTablePtr:
 584              	.LFB8:
 968:Generated_Source\PSoC4/USBUART_std.c **** 
 969:Generated_Source\PSoC4/USBUART_std.c **** 
 970:Generated_Source\PSoC4/USBUART_std.c **** #if (USBUART_BOS_ENABLE)
 971:Generated_Source\PSoC4/USBUART_std.c ****     /*******************************************************************************
 972:Generated_Source\PSoC4/USBUART_std.c ****     * Function Name: USBUART_GetBOSPtr
ARM GAS  C:\Users\TERENC~1\AppData\Local\Temp\ccz498Tm.s 			page 29


 973:Generated_Source\PSoC4/USBUART_std.c ****     ****************************************************************************//**
 974:Generated_Source\PSoC4/USBUART_std.c ****     *
 975:Generated_Source\PSoC4/USBUART_std.c ****     *  This routine returns a pointer a BOS table entry
 976:Generated_Source\PSoC4/USBUART_std.c ****     *
 977:Generated_Source\PSoC4/USBUART_std.c ****     *  
 978:Generated_Source\PSoC4/USBUART_std.c ****     *
 979:Generated_Source\PSoC4/USBUART_std.c ****     * \return
 980:Generated_Source\PSoC4/USBUART_std.c ****     *  BOS Descriptor pointer or NULL when descriptor does not exist.
 981:Generated_Source\PSoC4/USBUART_std.c ****     *
 982:Generated_Source\PSoC4/USBUART_std.c ****     *******************************************************************************/
 983:Generated_Source\PSoC4/USBUART_std.c ****     const T_USBUART_LUT CYCODE *USBUART_GetBOSPtr(void)
 984:Generated_Source\PSoC4/USBUART_std.c ****                                                             
 985:Generated_Source\PSoC4/USBUART_std.c ****     {
 986:Generated_Source\PSoC4/USBUART_std.c ****         /* Device Table */
 987:Generated_Source\PSoC4/USBUART_std.c ****         const T_USBUART_LUT CYCODE *pTmp;
 988:Generated_Source\PSoC4/USBUART_std.c **** 
 989:Generated_Source\PSoC4/USBUART_std.c ****         pTmp = (const T_USBUART_LUT CYCODE *) USBUART_TABLE[USBUART_device].p_list;
 990:Generated_Source\PSoC4/USBUART_std.c **** 
 991:Generated_Source\PSoC4/USBUART_std.c ****         /* The first entry points to the Device Descriptor,
 992:Generated_Source\PSoC4/USBUART_std.c ****         *  the second entry points to the BOS Descriptor
 993:Generated_Source\PSoC4/USBUART_std.c ****         */
 994:Generated_Source\PSoC4/USBUART_std.c ****         pTmp = &pTmp[1u];
 995:Generated_Source\PSoC4/USBUART_std.c ****         pTmp = (const T_USBUART_LUT CYCODE *) pTmp->p_list;
 996:Generated_Source\PSoC4/USBUART_std.c ****         return (pTmp);
 997:Generated_Source\PSoC4/USBUART_std.c ****     }
 998:Generated_Source\PSoC4/USBUART_std.c **** #endif /* (USBUART_BOS_ENABLE) */
 999:Generated_Source\PSoC4/USBUART_std.c **** 
1000:Generated_Source\PSoC4/USBUART_std.c **** 
1001:Generated_Source\PSoC4/USBUART_std.c **** /*******************************************************************************
1002:Generated_Source\PSoC4/USBUART_std.c **** * Function Name: USBUART_GetDeviceTablePtr
1003:Generated_Source\PSoC4/USBUART_std.c **** ****************************************************************************//**
1004:Generated_Source\PSoC4/USBUART_std.c **** *
1005:Generated_Source\PSoC4/USBUART_std.c **** *  This routine returns a pointer to the Device table
1006:Generated_Source\PSoC4/USBUART_std.c **** *
1007:Generated_Source\PSoC4/USBUART_std.c **** * \return
1008:Generated_Source\PSoC4/USBUART_std.c **** *  Device Table pointer
1009:Generated_Source\PSoC4/USBUART_std.c **** *
1010:Generated_Source\PSoC4/USBUART_std.c **** *******************************************************************************/
1011:Generated_Source\PSoC4/USBUART_std.c **** const T_USBUART_LUT CYCODE *USBUART_GetDeviceTablePtr(void)
1012:Generated_Source\PSoC4/USBUART_std.c ****                                                             
1013:Generated_Source\PSoC4/USBUART_std.c **** {
 585              		.loc 1 1013 0
 586              		.cfi_startproc
 587              		@ args = 0, pretend = 0, frame = 0
 588              		@ frame_needed = 0, uses_anonymous_args = 0
 589              		@ link register save eliminated.
1014:Generated_Source\PSoC4/USBUART_std.c ****     /* Device Table */
1015:Generated_Source\PSoC4/USBUART_std.c ****     return( (const T_USBUART_LUT CYCODE *) USBUART_TABLE[USBUART_device].p_list );
 590              		.loc 1 1015 0
 591 0000 034B     		ldr	r3, .L41
 592 0002 1B78     		ldrb	r3, [r3]
 593 0004 DB00     		lsls	r3, r3, #3
 594 0006 034A     		ldr	r2, .L41+4
 595 0008 D318     		adds	r3, r2, r3
 596 000a 5868     		ldr	r0, [r3, #4]
1016:Generated_Source\PSoC4/USBUART_std.c **** }
 597              		.loc 1 1016 0
ARM GAS  C:\Users\TERENC~1\AppData\Local\Temp\ccz498Tm.s 			page 30


 598              		@ sp needed
 599 000c 7047     		bx	lr
 600              	.L42:
 601 000e C046     		.align	2
 602              	.L41:
 603 0010 00000000 		.word	USBUART_device
 604 0014 00000000 		.word	USBUART_TABLE
 605              		.cfi_endproc
 606              	.LFE8:
 607              		.size	USBUART_GetDeviceTablePtr, .-USBUART_GetDeviceTablePtr
 608              		.section	.text.USBUART_GetInterfaceClassTablePtr,"ax",%progbits
 609              		.align	2
 610              		.global	USBUART_GetInterfaceClassTablePtr
 611              		.code	16
 612              		.thumb_func
 613              		.type	USBUART_GetInterfaceClassTablePtr, %function
 614              	USBUART_GetInterfaceClassTablePtr:
 615              	.LFB9:
1017:Generated_Source\PSoC4/USBUART_std.c **** 
1018:Generated_Source\PSoC4/USBUART_std.c **** 
1019:Generated_Source\PSoC4/USBUART_std.c **** /*******************************************************************************
1020:Generated_Source\PSoC4/USBUART_std.c **** * Function Name: USB_GetInterfaceClassTablePtr
1021:Generated_Source\PSoC4/USBUART_std.c **** ****************************************************************************//**
1022:Generated_Source\PSoC4/USBUART_std.c **** *
1023:Generated_Source\PSoC4/USBUART_std.c **** *  This routine returns Interface Class table pointer, which contains
1024:Generated_Source\PSoC4/USBUART_std.c **** *  the relation between interface number and interface class.
1025:Generated_Source\PSoC4/USBUART_std.c **** *
1026:Generated_Source\PSoC4/USBUART_std.c **** * \return
1027:Generated_Source\PSoC4/USBUART_std.c **** *  Interface Class table pointer.
1028:Generated_Source\PSoC4/USBUART_std.c **** *
1029:Generated_Source\PSoC4/USBUART_std.c **** *******************************************************************************/
1030:Generated_Source\PSoC4/USBUART_std.c **** const uint8 CYCODE *USBUART_GetInterfaceClassTablePtr(void)
1031:Generated_Source\PSoC4/USBUART_std.c ****                                                         
1032:Generated_Source\PSoC4/USBUART_std.c **** {
 616              		.loc 1 1032 0
 617              		.cfi_startproc
 618              		@ args = 0, pretend = 0, frame = 0
 619              		@ frame_needed = 0, uses_anonymous_args = 0
 620 0000 10B5     		push	{r4, lr}
 621              		.cfi_def_cfa_offset 8
 622              		.cfi_offset 4, -8
 623              		.cfi_offset 14, -4
1033:Generated_Source\PSoC4/USBUART_std.c ****     const T_USBUART_LUT CYCODE *pTmp;
1034:Generated_Source\PSoC4/USBUART_std.c ****     const uint8 CYCODE *pInterfaceClass;
1035:Generated_Source\PSoC4/USBUART_std.c ****     uint8 currentInterfacesNum;
1036:Generated_Source\PSoC4/USBUART_std.c **** 
1037:Generated_Source\PSoC4/USBUART_std.c ****     pTmp = USBUART_GetConfigTablePtr(USBUART_configuration - 1u);
 624              		.loc 1 1037 0
 625 0002 084B     		ldr	r3, .L46
 626 0004 1878     		ldrb	r0, [r3]
 627 0006 0138     		subs	r0, r0, #1
 628 0008 C0B2     		uxtb	r0, r0
 629 000a FFF7FEFF 		bl	USBUART_GetConfigTablePtr
 630              	.LVL39:
1038:Generated_Source\PSoC4/USBUART_std.c ****     if (pTmp != NULL)
 631              		.loc 1 1038 0
 632 000e 0028     		cmp	r0, #0
ARM GAS  C:\Users\TERENC~1\AppData\Local\Temp\ccz498Tm.s 			page 31


 633 0010 06D0     		beq	.L45
1039:Generated_Source\PSoC4/USBUART_std.c ****     {
1040:Generated_Source\PSoC4/USBUART_std.c ****         currentInterfacesNum  = ((const uint8 *) pTmp->p_list)[USBUART_CONFIG_DESCR_NUM_INTERFACES]
 634              		.loc 1 1040 0
 635 0012 4368     		ldr	r3, [r0, #4]
 636 0014 1B79     		ldrb	r3, [r3, #4]
 637              	.LVL40:
1041:Generated_Source\PSoC4/USBUART_std.c ****         /* Third entry in the LUT starts the Interface Table pointers */
1042:Generated_Source\PSoC4/USBUART_std.c ****         /* The INTERFACE_CLASS table is located after all interfaces */
1043:Generated_Source\PSoC4/USBUART_std.c ****         pTmp = &pTmp[currentInterfacesNum + 2u];
 638              		.loc 1 1043 0
 639 0016 0233     		adds	r3, r3, #2
 640              	.LVL41:
 641 0018 DB00     		lsls	r3, r3, #3
 642              	.LVL42:
 643 001a C018     		adds	r0, r0, r3
 644              	.LVL43:
1044:Generated_Source\PSoC4/USBUART_std.c ****         pInterfaceClass = (const uint8 CYCODE *) pTmp->p_list;
 645              		.loc 1 1044 0
 646 001c 4068     		ldr	r0, [r0, #4]
 647              	.LVL44:
 648 001e 00E0     		b	.L44
 649              	.LVL45:
 650              	.L45:
1045:Generated_Source\PSoC4/USBUART_std.c ****     }
1046:Generated_Source\PSoC4/USBUART_std.c ****     else
1047:Generated_Source\PSoC4/USBUART_std.c ****     {
1048:Generated_Source\PSoC4/USBUART_std.c ****         pInterfaceClass = (const uint8 CYCODE *) NULL;
 651              		.loc 1 1048 0
 652 0020 0020     		movs	r0, #0
 653              	.LVL46:
 654              	.L44:
1049:Generated_Source\PSoC4/USBUART_std.c ****     }
1050:Generated_Source\PSoC4/USBUART_std.c **** 
1051:Generated_Source\PSoC4/USBUART_std.c ****     return (pInterfaceClass);
1052:Generated_Source\PSoC4/USBUART_std.c **** }
 655              		.loc 1 1052 0
 656              		@ sp needed
 657 0022 10BD     		pop	{r4, pc}
 658              	.L47:
 659              		.align	2
 660              	.L46:
 661 0024 00000000 		.word	USBUART_configuration
 662              		.cfi_endproc
 663              	.LFE9:
 664              		.size	USBUART_GetInterfaceClassTablePtr, .-USBUART_GetInterfaceClassTablePtr
 665              		.section	.text.USBUART_Config,"ax",%progbits
 666              		.align	2
 667              		.global	USBUART_Config
 668              		.code	16
 669              		.thumb_func
 670              		.type	USBUART_Config, %function
 671              	USBUART_Config:
 672              	.LFB5:
 571:Generated_Source\PSoC4/USBUART_std.c ****     uint8 ep;
 673              		.loc 1 571 0
 674              		.cfi_startproc
ARM GAS  C:\Users\TERENC~1\AppData\Local\Temp\ccz498Tm.s 			page 32


 675              		@ args = 0, pretend = 0, frame = 8
 676              		@ frame_needed = 0, uses_anonymous_args = 0
 677              	.LVL47:
 678 0000 F0B5     		push	{r4, r5, r6, r7, lr}
 679              		.cfi_def_cfa_offset 20
 680              		.cfi_offset 4, -20
 681              		.cfi_offset 5, -16
 682              		.cfi_offset 6, -12
 683              		.cfi_offset 7, -8
 684              		.cfi_offset 14, -4
 685 0002 5746     		mov	r7, r10
 686 0004 4E46     		mov	r6, r9
 687 0006 4546     		mov	r5, r8
 688 0008 E0B4     		push	{r5, r6, r7}
 689              		.cfi_def_cfa_offset 32
 690              		.cfi_offset 8, -32
 691              		.cfi_offset 9, -28
 692              		.cfi_offset 10, -24
 693 000a 82B0     		sub	sp, sp, #8
 694              		.cfi_def_cfa_offset 40
 695              	.LVL48:
 586:Generated_Source\PSoC4/USBUART_std.c ****     {
 696              		.loc 1 586 0
 697 000c 0023     		movs	r3, #0
 698 000e 12E0     		b	.L49
 699              	.LVL49:
 700              	.L50:
 588:Generated_Source\PSoC4/USBUART_std.c ****         USBUART_EP[ep].hwEpState  = 0u;
 701              		.loc 1 588 0 discriminator 3
 702 0010 724E     		ldr	r6, .L75
 703 0012 5900     		lsls	r1, r3, #1
 704 0014 CC18     		adds	r4, r1, r3
 705 0016 A200     		lsls	r2, r4, #2
 706 0018 0024     		movs	r4, #0
 707 001a 9455     		strb	r4, [r2, r6]
 589:Generated_Source\PSoC4/USBUART_std.c ****         USBUART_EP[ep].epToggle   = 0u;
 708              		.loc 1 589 0 discriminator 3
 709 001c B218     		adds	r2, r6, r2
 710 001e 9470     		strb	r4, [r2, #2]
 590:Generated_Source\PSoC4/USBUART_std.c ****         USBUART_EP[ep].bufferSize = 0u;
 711              		.loc 1 590 0 discriminator 3
 712 0020 D470     		strb	r4, [r2, #3]
 591:Generated_Source\PSoC4/USBUART_std.c ****         USBUART_EP[ep].interface  = 0u;
 713              		.loc 1 591 0 discriminator 3
 714 0022 0025     		movs	r5, #0
 715 0024 1481     		strh	r4, [r2, #8]
 592:Generated_Source\PSoC4/USBUART_std.c ****         USBUART_EP[ep].apiEpState = USBUART_NO_EVENT_PENDING;
 716              		.loc 1 592 0 discriminator 3
 717 0026 9572     		strb	r5, [r2, #10]
 593:Generated_Source\PSoC4/USBUART_std.c ****         USBUART_EP[ep].epMode     = USBUART_MODE_DISABLE;   
 718              		.loc 1 593 0 discriminator 3
 719 0028 5570     		strb	r5, [r2, #1]
 594:Generated_Source\PSoC4/USBUART_std.c ****     }
 720              		.loc 1 594 0 discriminator 3
 721 002a C918     		adds	r1, r1, r3
 722 002c 8A00     		lsls	r2, r1, #2
 723 002e B218     		adds	r2, r6, r2
ARM GAS  C:\Users\TERENC~1\AppData\Local\Temp\ccz498Tm.s 			page 33


 724 0030 5571     		strb	r5, [r2, #5]
 586:Generated_Source\PSoC4/USBUART_std.c ****     {
 725              		.loc 1 586 0 discriminator 3
 726 0032 0133     		adds	r3, r3, #1
 727              	.LVL50:
 728 0034 DBB2     		uxtb	r3, r3
 729              	.LVL51:
 730              	.L49:
 586:Generated_Source\PSoC4/USBUART_std.c ****     {
 731              		.loc 1 586 0 is_stmt 0 discriminator 1
 732 0036 082B     		cmp	r3, #8
 733 0038 EAD9     		bls	.L50
 598:Generated_Source\PSoC4/USBUART_std.c ****     {
 734              		.loc 1 598 0 is_stmt 1
 735 003a 0028     		cmp	r0, #0
 736 003c 08D1     		bne	.L72
 737 003e 0AE0     		b	.L52
 738              	.LVL52:
 739              	.L53:
 602:Generated_Source\PSoC4/USBUART_std.c ****             USBUART_interfaceSettingLast[i] = 0u;
 740              		.loc 1 602 0 discriminator 3
 741 0040 0022     		movs	r2, #0
 742 0042 6749     		ldr	r1, .L75+4
 743 0044 CA54     		strb	r2, [r1, r3]
 603:Generated_Source\PSoC4/USBUART_std.c ****         }
 744              		.loc 1 603 0 discriminator 3
 745 0046 6749     		ldr	r1, .L75+8
 746 0048 CA54     		strb	r2, [r1, r3]
 600:Generated_Source\PSoC4/USBUART_std.c ****         {
 747              		.loc 1 600 0 discriminator 3
 748 004a 0133     		adds	r3, r3, #1
 749              	.LVL53:
 750 004c DBB2     		uxtb	r3, r3
 751              	.LVL54:
 752 004e 00E0     		b	.L51
 753              	.LVL55:
 754              	.L72:
 755 0050 0023     		movs	r3, #0
 756              	.LVL56:
 757              	.L51:
 600:Generated_Source\PSoC4/USBUART_std.c ****         {
 758              		.loc 1 600 0 is_stmt 0 discriminator 1
 759 0052 012B     		cmp	r3, #1
 760 0054 F4D9     		bls	.L53
 761              	.LVL57:
 762              	.L52:
 608:Generated_Source\PSoC4/USBUART_std.c ****     {
 763              		.loc 1 608 0 is_stmt 1
 764 0056 644B     		ldr	r3, .L75+12
 765 0058 1B78     		ldrb	r3, [r3]
 766 005a 002B     		cmp	r3, #0
 767 005c 00D1     		bne	.LCB749
 768 005e B6E0     		b	.L48	@long jump
 769              	.LCB749:
 770              	.LVL58:
 771              	.LBB2:
 614:Generated_Source\PSoC4/USBUART_std.c ****         
ARM GAS  C:\Users\TERENC~1\AppData\Local\Temp\ccz498Tm.s 			page 34


 772              		.loc 1 614 0
 773 0060 614B     		ldr	r3, .L75+12
 774 0062 1878     		ldrb	r0, [r3]
 775              	.LVL59:
 776 0064 0138     		subs	r0, r0, #1
 777 0066 C0B2     		uxtb	r0, r0
 778 0068 FFF7FEFF 		bl	USBUART_GetConfigTablePtr
 779              	.LVL60:
 780 006c 8046     		mov	r8, r0
 781              	.LVL61:
 618:Generated_Source\PSoC4/USBUART_std.c ****         {
 782              		.loc 1 618 0
 783 006e 4368     		ldr	r3, [r0, #4]
 784 0070 DB79     		ldrb	r3, [r3, #7]
 785 0072 5B06     		lsls	r3, r3, #25
 786 0074 06D5     		bpl	.L55
 620:Generated_Source\PSoC4/USBUART_std.c ****         }
 787              		.loc 1 620 0
 788 0076 5D4A     		ldr	r2, .L75+16
 789 0078 1178     		ldrb	r1, [r2]
 790 007a 0123     		movs	r3, #1
 791 007c 0B43     		orrs	r3, r1
 792 007e DBB2     		uxtb	r3, r3
 793 0080 1370     		strb	r3, [r2]
 794 0082 04E0     		b	.L56
 795              	.L55:
 624:Generated_Source\PSoC4/USBUART_std.c ****         }
 796              		.loc 1 624 0
 797 0084 594A     		ldr	r2, .L75+16
 798 0086 1378     		ldrb	r3, [r2]
 799 0088 0121     		movs	r1, #1
 800 008a 8B43     		bics	r3, r1
 801 008c 1370     		strb	r3, [r2]
 802              	.L56:
 803              	.LVL62:
 629:Generated_Source\PSoC4/USBUART_std.c **** 
 804              		.loc 1 629 0
 805 008e 4346     		mov	r3, r8
 806 0090 1F7A     		ldrb	r7, [r3, #8]
 807              	.LVL63:
 611:Generated_Source\PSoC4/USBUART_std.c ****         #endif  /* (USBUART_ENABLE_CDC_CLASS) */  
 808              		.loc 1 611 0
 809 0092 0023     		movs	r3, #0
 810 0094 0193     		str	r3, [sp, #4]
 687:Generated_Source\PSoC4/USBUART_std.c ****             {
 811              		.loc 1 687 0
 812 0096 0126     		movs	r6, #1
 813 0098 6EE0     		b	.L57
 814              	.LVL64:
 815              	.L67:
 690:Generated_Source\PSoC4/USBUART_std.c ****                 /* Find max length for each EP and select it (length could be different in differen
 816              		.loc 1 690 0
 817 009a 4346     		mov	r3, r8
 818 009c DD68     		ldr	r5, [r3, #12]
 819              	.LVL65:
 694:Generated_Source\PSoC4/USBUART_std.c ****                 {
 820              		.loc 1 694 0
ARM GAS  C:\Users\TERENC~1\AppData\Local\Temp\ccz498Tm.s 			page 35


 821 009e 0024     		movs	r4, #0
 822 00a0 66E0     		b	.L58
 823              	.LVL66:
 824              	.L66:
 696:Generated_Source\PSoC4/USBUART_std.c ****                     {
 825              		.loc 1 696 0
 826 00a2 AB78     		ldrb	r3, [r5, #2]
 827 00a4 7F21     		movs	r1, #127
 828 00a6 0B40     		ands	r3, r1
 829 00a8 9E42     		cmp	r6, r3
 830 00aa 5ED1     		bne	.L59
 699:Generated_Source\PSoC4/USBUART_std.c ****                         {
 831              		.loc 1 699 0
 832 00ac 3000     		movs	r0, r6
 833 00ae 7100     		lsls	r1, r6, #1
 834 00b0 8919     		adds	r1, r1, r6
 835 00b2 8B00     		lsls	r3, r1, #2
 836 00b4 4949     		ldr	r1, .L75
 837 00b6 CB18     		adds	r3, r1, r3
 838 00b8 1B89     		ldrh	r3, [r3, #8]
 839 00ba 9BB2     		uxth	r3, r3
 840 00bc A988     		ldrh	r1, [r5, #4]
 841 00be 8B42     		cmp	r3, r1
 842 00c0 05D2     		bcs	.L60
 701:Generated_Source\PSoC4/USBUART_std.c ****                         }
 843              		.loc 1 701 0
 844 00c2 7300     		lsls	r3, r6, #1
 845 00c4 9A19     		adds	r2, r3, r6
 846 00c6 9300     		lsls	r3, r2, #2
 847 00c8 444A     		ldr	r2, .L75
 848 00ca D318     		adds	r3, r2, r3
 849 00cc 1981     		strh	r1, [r3, #8]
 850              	.L60:
 705:Generated_Source\PSoC4/USBUART_std.c ****                         {                            
 851              		.loc 1 705 0
 852 00ce 2B78     		ldrb	r3, [r5]
 853 00d0 4349     		ldr	r1, .L75+4
 854 00d2 CB5C     		ldrb	r3, [r1, r3]
 855 00d4 DBB2     		uxtb	r3, r3
 856 00d6 6978     		ldrb	r1, [r5, #1]
 857 00d8 8B42     		cmp	r3, r1
 858 00da 46D1     		bne	.L59
 707:Generated_Source\PSoC4/USBUART_std.c ****                             USBUART_EP[i].attrib = pEP->attributes;
 859              		.loc 1 707 0
 860 00dc AB78     		ldrb	r3, [r5, #2]
 861 00de 9A46     		mov	r10, r3
 862 00e0 3E4B     		ldr	r3, .L75
 863 00e2 9C46     		mov	ip, r3
 864 00e4 4300     		lsls	r3, r0, #1
 865 00e6 1918     		adds	r1, r3, r0
 866 00e8 8900     		lsls	r1, r1, #2
 867 00ea 6144     		add	r1, r1, ip
 868 00ec 5246     		mov	r2, r10
 869 00ee 0A71     		strb	r2, [r1, #4]
 708:Generated_Source\PSoC4/USBUART_std.c ****                             
 870              		.loc 1 708 0
 871 00f0 EA78     		ldrb	r2, [r5, #3]
ARM GAS  C:\Users\TERENC~1\AppData\Local\Temp\ccz498Tm.s 			page 36


 872 00f2 1B18     		adds	r3, r3, r0
 873 00f4 9900     		lsls	r1, r3, #2
 874 00f6 131C     		adds	r3, r2, #0
 875 00f8 6246     		mov	r2, ip
 876 00fa 8B54     		strb	r3, [r1, r2]
 710:Generated_Source\PSoC4/USBUART_std.c ****                             
 877              		.loc 1 710 0
 878 00fc EB78     		ldrb	r3, [r5, #3]
 879 00fe 0321     		movs	r1, #3
 880 0100 0B40     		ands	r3, r1
 881              	.LVL67:
 712:Generated_Source\PSoC4/USBUART_std.c ****                             {
 882              		.loc 1 712 0
 883 0102 0221     		movs	r1, #2
 884 0104 6956     		ldrsb	r1, [r5, r1]
 885 0106 0029     		cmp	r1, #0
 886 0108 12DA     		bge	.L61
 715:Generated_Source\PSoC4/USBUART_std.c ****                                 USBUART_EP[i].apiEpState = USBUART_EVENT_PENDING;
 887              		.loc 1 715 0
 888 010a 012B     		cmp	r3, #1
 889 010c 02D1     		bne	.L73
 890 010e 0633     		adds	r3, r3, #6
 891              	.LVL68:
 892 0110 9A46     		mov	r10, r3
 893 0112 01E0     		b	.L62
 894              	.LVL69:
 895              	.L73:
 896 0114 0D23     		movs	r3, #13
 897              	.LVL70:
 898 0116 9A46     		mov	r10, r3
 899              	.L62:
 715:Generated_Source\PSoC4/USBUART_std.c ****                                 USBUART_EP[i].apiEpState = USBUART_EVENT_PENDING;
 900              		.loc 1 715 0 is_stmt 0 discriminator 4
 901 0118 304B     		ldr	r3, .L75
 902 011a 9C46     		mov	ip, r3
 903 011c 4300     		lsls	r3, r0, #1
 904 011e 1918     		adds	r1, r3, r0
 905 0120 8900     		lsls	r1, r1, #2
 906 0122 6144     		add	r1, r1, ip
 907 0124 5246     		mov	r2, r10
 908 0126 4A71     		strb	r2, [r1, #5]
 909              	.LVL71:
 716:Generated_Source\PSoC4/USBUART_std.c ****                                 
 910              		.loc 1 716 0 is_stmt 1 discriminator 4
 911 0128 0B00     		movs	r3, r1
 912 012a 0121     		movs	r1, #1
 913 012c 5970     		strb	r1, [r3, #1]
 914 012e 11E0     		b	.L63
 915              	.LVL72:
 916              	.L61:
 728:Generated_Source\PSoC4/USBUART_std.c ****                                 USBUART_EP[i].apiEpState = USBUART_NO_EVENT_PENDING;
 917              		.loc 1 728 0
 918 0130 012B     		cmp	r3, #1
 919 0132 02D1     		bne	.L74
 920 0134 0433     		adds	r3, r3, #4
 921              	.LVL73:
 922 0136 9A46     		mov	r10, r3
ARM GAS  C:\Users\TERENC~1\AppData\Local\Temp\ccz498Tm.s 			page 37


 923 0138 01E0     		b	.L64
 924              	.LVL74:
 925              	.L74:
 926 013a 0923     		movs	r3, #9
 927              	.LVL75:
 928 013c 9A46     		mov	r10, r3
 929              	.L64:
 728:Generated_Source\PSoC4/USBUART_std.c ****                                 USBUART_EP[i].apiEpState = USBUART_NO_EVENT_PENDING;
 930              		.loc 1 728 0 is_stmt 0 discriminator 4
 931 013e 274B     		ldr	r3, .L75
 932 0140 9C46     		mov	ip, r3
 933 0142 4300     		lsls	r3, r0, #1
 934 0144 1918     		adds	r1, r3, r0
 935 0146 8900     		lsls	r1, r1, #2
 936 0148 6144     		add	r1, r1, ip
 937 014a 5246     		mov	r2, r10
 938 014c 4A71     		strb	r2, [r1, #5]
 939              	.LVL76:
 729:Generated_Source\PSoC4/USBUART_std.c ****                                 
 940              		.loc 1 729 0 is_stmt 1 discriminator 4
 941 014e 0B00     		movs	r3, r1
 942 0150 0021     		movs	r1, #0
 943 0152 5970     		strb	r1, [r3, #1]
 944              	.L63:
 740:Generated_Source\PSoC4/USBUART_std.c ****                             {
 945              		.loc 1 740 0
 946 0154 AB79     		ldrb	r3, [r5, #6]
 947 0156 0A2B     		cmp	r3, #10
 948 0158 01D0     		beq	.L65
 740:Generated_Source\PSoC4/USBUART_std.c ****                             {
 949              		.loc 1 740 0 is_stmt 0 discriminator 1
 950 015a 022B     		cmp	r3, #2
 951 015c 05D1     		bne	.L59
 952              	.L65:
 742:Generated_Source\PSoC4/USBUART_std.c ****                             }
 953              		.loc 1 742 0 is_stmt 1
 954 015e 019A     		ldr	r2, [sp, #4]
 955 0160 3100     		movs	r1, r6
 956 0162 2800     		movs	r0, r5
 957 0164 FFF7FEFF 		bl	USBUART_Cdc_EpInit
 958              	.LVL77:
 959 0168 0190     		str	r0, [sp, #4]
 960              	.LVL78:
 961              	.L59:
 752:Generated_Source\PSoC4/USBUART_std.c ****                 }
 962              		.loc 1 752 0 discriminator 2
 963 016a 0835     		adds	r5, r5, #8
 964              	.LVL79:
 694:Generated_Source\PSoC4/USBUART_std.c ****                 {
 965              		.loc 1 694 0 discriminator 2
 966 016c 0134     		adds	r4, r4, #1
 967              	.LVL80:
 968 016e E4B2     		uxtb	r4, r4
 969              	.LVL81:
 970              	.L58:
 694:Generated_Source\PSoC4/USBUART_std.c ****                 {
 971              		.loc 1 694 0 is_stmt 0 discriminator 1
ARM GAS  C:\Users\TERENC~1\AppData\Local\Temp\ccz498Tm.s 			page 38


 972 0170 BC42     		cmp	r4, r7
 973 0172 96D3     		bcc	.L66
 687:Generated_Source\PSoC4/USBUART_std.c ****             {
 974              		.loc 1 687 0 is_stmt 1 discriminator 2
 975 0174 0136     		adds	r6, r6, #1
 976              	.LVL82:
 977 0176 F6B2     		uxtb	r6, r6
 978              	.LVL83:
 979              	.L57:
 687:Generated_Source\PSoC4/USBUART_std.c ****             {
 980              		.loc 1 687 0 is_stmt 0 discriminator 1
 981 0178 082E     		cmp	r6, #8
 982 017a 8ED9     		bls	.L67
 762:Generated_Source\PSoC4/USBUART_std.c ****         for (i = 0u; i < ep; i++)
 983              		.loc 1 762 0 is_stmt 1
 984 017c 4346     		mov	r3, r8
 985 017e D868     		ldr	r0, [r3, #12]
 986              	.LVL84:
 763:Generated_Source\PSoC4/USBUART_std.c ****         {
 987              		.loc 1 763 0
 988 0180 0022     		movs	r2, #0
 989 0182 0CE0     		b	.L68
 990              	.LVL85:
 991              	.L69:
 766:Generated_Source\PSoC4/USBUART_std.c ****             pEP = &pEP[1u];
 992              		.loc 1 766 0 discriminator 3
 993 0184 8378     		ldrb	r3, [r0, #2]
 994 0186 7F21     		movs	r1, #127
 995 0188 0B40     		ands	r3, r1
 996 018a 0478     		ldrb	r4, [r0]
 997 018c 5900     		lsls	r1, r3, #1
 998 018e CB18     		adds	r3, r1, r3
 999 0190 9900     		lsls	r1, r3, #2
 1000 0192 124B     		ldr	r3, .L75
 1001 0194 5918     		adds	r1, r3, r1
 1002 0196 8C72     		strb	r4, [r1, #10]
 767:Generated_Source\PSoC4/USBUART_std.c ****         }
 1003              		.loc 1 767 0 discriminator 3
 1004 0198 0830     		adds	r0, r0, #8
 1005              	.LVL86:
 763:Generated_Source\PSoC4/USBUART_std.c ****         {
 1006              		.loc 1 763 0 discriminator 3
 1007 019a 0132     		adds	r2, r2, #1
 1008              	.LVL87:
 1009 019c D2B2     		uxtb	r2, r2
 1010              	.LVL88:
 1011              	.L68:
 763:Generated_Source\PSoC4/USBUART_std.c ****         {
 1012              		.loc 1 763 0 is_stmt 0 discriminator 1
 1013 019e BA42     		cmp	r2, r7
 1014 01a0 F0D3     		bcc	.L69
 771:Generated_Source\PSoC4/USBUART_std.c ****         
 1015              		.loc 1 771 0 is_stmt 1
 1016 01a2 FFF7FEFF 		bl	USBUART_GetInterfaceClassTablePtr
 1017              	.LVL89:
 1018 01a6 124B     		ldr	r3, .L75+20
 1019 01a8 1860     		str	r0, [r3]
ARM GAS  C:\Users\TERENC~1\AppData\Local\Temp\ccz498Tm.s 			page 39


 1020              	.LVL90:
 775:Generated_Source\PSoC4/USBUART_std.c ****         for (ep = USBUART_EP1; ep < USBUART_MAX_EP; ++ep)
 1021              		.loc 1 775 0
 1022 01aa 0021     		movs	r1, #0
 776:Generated_Source\PSoC4/USBUART_std.c ****         {
 1023              		.loc 1 776 0
 1024 01ac 0123     		movs	r3, #1
 1025 01ae 0AE0     		b	.L70
 1026              	.LVL91:
 1027              	.L71:
 778:Generated_Source\PSoC4/USBUART_std.c ****             buffCount += USBUART_EP[ep].bufferSize;
 1028              		.loc 1 778 0 discriminator 3
 1029 01b0 0A4D     		ldr	r5, .L75
 1030 01b2 5A00     		lsls	r2, r3, #1
 1031 01b4 D018     		adds	r0, r2, r3
 1032 01b6 8400     		lsls	r4, r0, #2
 1033 01b8 2C19     		adds	r4, r5, r4
 1034 01ba E180     		strh	r1, [r4, #6]
 779:Generated_Source\PSoC4/USBUART_std.c ****             
 1035              		.loc 1 779 0 discriminator 3
 1036 01bc 2289     		ldrh	r2, [r4, #8]
 1037 01be 5118     		adds	r1, r2, r1
 1038              	.LVL92:
 1039 01c0 89B2     		uxth	r1, r1
 1040              	.LVL93:
 776:Generated_Source\PSoC4/USBUART_std.c ****         {
 1041              		.loc 1 776 0 discriminator 3
 1042 01c2 0133     		adds	r3, r3, #1
 1043              	.LVL94:
 1044 01c4 DBB2     		uxtb	r3, r3
 1045              	.LVL95:
 1046              	.L70:
 776:Generated_Source\PSoC4/USBUART_std.c ****         {
 1047              		.loc 1 776 0 is_stmt 0 discriminator 1
 1048 01c6 082B     		cmp	r3, #8
 1049 01c8 F2D9     		bls	.L71
 789:Generated_Source\PSoC4/USBUART_std.c ****     }
 1050              		.loc 1 789 0 is_stmt 1
 1051 01ca FFF7FEFF 		bl	USBUART_ConfigReg
 1052              	.LVL96:
 1053              	.L48:
 1054              	.LBE2:
 791:Generated_Source\PSoC4/USBUART_std.c **** 
 1055              		.loc 1 791 0
 1056 01ce 02B0     		add	sp, sp, #8
 1057              		@ sp needed
 1058 01d0 1CBC     		pop	{r2, r3, r4}
 1059 01d2 9046     		mov	r8, r2
 1060 01d4 9946     		mov	r9, r3
 1061 01d6 A246     		mov	r10, r4
 1062 01d8 F0BD     		pop	{r4, r5, r6, r7, pc}
 1063              	.L76:
 1064 01da C046     		.align	2
 1065              	.L75:
 1066 01dc 00000000 		.word	USBUART_EP
 1067 01e0 00000000 		.word	USBUART_interfaceSetting
 1068 01e4 00000000 		.word	USBUART_interfaceSettingLast
ARM GAS  C:\Users\TERENC~1\AppData\Local\Temp\ccz498Tm.s 			page 40


 1069 01e8 00000000 		.word	USBUART_configuration
 1070 01ec 00000000 		.word	USBUART_deviceStatus
 1071 01f0 00000000 		.word	USBUART_interfaceClass
 1072              		.cfi_endproc
 1073              	.LFE5:
 1074              		.size	USBUART_Config, .-USBUART_Config
 1075              		.section	.text.USBUART_TerminateEP,"ax",%progbits
 1076              		.align	2
 1077              		.global	USBUART_TerminateEP
 1078              		.code	16
 1079              		.thumb_func
 1080              		.type	USBUART_TerminateEP, %function
 1081              	USBUART_TerminateEP:
 1082              	.LFB10:
1053:Generated_Source\PSoC4/USBUART_std.c **** 
1054:Generated_Source\PSoC4/USBUART_std.c **** 
1055:Generated_Source\PSoC4/USBUART_std.c **** /*******************************************************************************
1056:Generated_Source\PSoC4/USBUART_std.c **** * Function Name: USBUART_TerminateEP
1057:Generated_Source\PSoC4/USBUART_std.c **** ****************************************************************************//**
1058:Generated_Source\PSoC4/USBUART_std.c **** *
1059:Generated_Source\PSoC4/USBUART_std.c **** *  This function terminates the specified USBFS endpoint.
1060:Generated_Source\PSoC4/USBUART_std.c **** *  This function should be used before endpoint reconfiguration.
1061:Generated_Source\PSoC4/USBUART_std.c **** *
1062:Generated_Source\PSoC4/USBUART_std.c **** *  \param ep Contains the data endpoint number.
1063:Generated_Source\PSoC4/USBUART_std.c **** *
1064:Generated_Source\PSoC4/USBUART_std.c **** *  \reentrant
1065:Generated_Source\PSoC4/USBUART_std.c **** *  No.
1066:Generated_Source\PSoC4/USBUART_std.c **** *
1067:Generated_Source\PSoC4/USBUART_std.c **** * \sideeffect
1068:Generated_Source\PSoC4/USBUART_std.c **** * 
1069:Generated_Source\PSoC4/USBUART_std.c **** * The device responds with a NAK for any transactions on the selected endpoint.
1070:Generated_Source\PSoC4/USBUART_std.c **** *   
1071:Generated_Source\PSoC4/USBUART_std.c **** *******************************************************************************/
1072:Generated_Source\PSoC4/USBUART_std.c **** void USBUART_TerminateEP(uint8 epNumber) 
1073:Generated_Source\PSoC4/USBUART_std.c **** {
 1083              		.loc 1 1073 0
 1084              		.cfi_startproc
 1085              		@ args = 0, pretend = 0, frame = 0
 1086              		@ frame_needed = 0, uses_anonymous_args = 0
 1087              		@ link register save eliminated.
 1088              	.LVL97:
1074:Generated_Source\PSoC4/USBUART_std.c ****     /* Get endpoint number */
1075:Generated_Source\PSoC4/USBUART_std.c ****     epNumber &= USBUART_DIR_UNUSED;
 1089              		.loc 1 1075 0
 1090 0000 7F23     		movs	r3, #127
 1091 0002 1840     		ands	r0, r3
 1092              	.LVL98:
1076:Generated_Source\PSoC4/USBUART_std.c **** 
1077:Generated_Source\PSoC4/USBUART_std.c ****     if ((epNumber > USBUART_EP0) && (epNumber < USBUART_MAX_EP))
 1093              		.loc 1 1077 0
 1094 0004 431E     		subs	r3, r0, #1
 1095 0006 DBB2     		uxtb	r3, r3
 1096 0008 072B     		cmp	r3, #7
 1097 000a 1ED8     		bhi	.L77
1078:Generated_Source\PSoC4/USBUART_std.c ****     {
1079:Generated_Source\PSoC4/USBUART_std.c ****         /* Set the endpoint Halt */
1080:Generated_Source\PSoC4/USBUART_std.c ****         USBUART_EP[epNumber].hwEpState |= USBUART_ENDPOINT_STATUS_HALT;
ARM GAS  C:\Users\TERENC~1\AppData\Local\Temp\ccz498Tm.s 			page 41


 1098              		.loc 1 1080 0
 1099 000c 4200     		lsls	r2, r0, #1
 1100 000e 1218     		adds	r2, r2, r0
 1101 0010 9300     		lsls	r3, r2, #2
 1102 0012 0E4A     		ldr	r2, .L80
 1103 0014 D318     		adds	r3, r2, r3
 1104 0016 9978     		ldrb	r1, [r3, #2]
 1105 0018 0122     		movs	r2, #1
 1106 001a 0A43     		orrs	r2, r1
 1107 001c D2B2     		uxtb	r2, r2
 1108 001e 9A70     		strb	r2, [r3, #2]
1081:Generated_Source\PSoC4/USBUART_std.c **** 
1082:Generated_Source\PSoC4/USBUART_std.c ****         /* Clear the data toggle */
1083:Generated_Source\PSoC4/USBUART_std.c ****         USBUART_EP[epNumber].epToggle = 0u;
 1109              		.loc 1 1083 0
 1110 0020 0022     		movs	r2, #0
 1111 0022 DA70     		strb	r2, [r3, #3]
1084:Generated_Source\PSoC4/USBUART_std.c ****         USBUART_EP[epNumber].apiEpState = USBUART_NO_EVENT_ALLOWED;
 1112              		.loc 1 1084 0
 1113 0024 0232     		adds	r2, r2, #2
 1114 0026 5A70     		strb	r2, [r3, #1]
1085:Generated_Source\PSoC4/USBUART_std.c **** 
1086:Generated_Source\PSoC4/USBUART_std.c ****         if ((USBUART_EP[epNumber].addr & USBUART_DIR_IN) != 0u)
 1115              		.loc 1 1086 0
 1116 0028 1B79     		ldrb	r3, [r3, #4]
 1117 002a 5BB2     		sxtb	r3, r3
 1118 002c 002B     		cmp	r3, #0
 1119 002e 06DA     		bge	.L79
1087:Generated_Source\PSoC4/USBUART_std.c ****         {   
1088:Generated_Source\PSoC4/USBUART_std.c ****             /* IN Endpoint */
1089:Generated_Source\PSoC4/USBUART_std.c ****             USBUART_SIE_EP_BASE.sieEp[epNumber].epCr0 = USBUART_MODE_NAK_IN;
 1120              		.loc 1 1089 0
 1121 0030 8001     		lsls	r0, r0, #6
 1122              	.LVL99:
 1123 0032 074B     		ldr	r3, .L80+4
 1124 0034 9C46     		mov	ip, r3
 1125 0036 6044     		add	r0, r0, ip
 1126 0038 0C23     		movs	r3, #12
 1127 003a 8360     		str	r3, [r0, #8]
 1128 003c 05E0     		b	.L77
 1129              	.LVL100:
 1130              	.L79:
1090:Generated_Source\PSoC4/USBUART_std.c ****         }
1091:Generated_Source\PSoC4/USBUART_std.c ****         else
1092:Generated_Source\PSoC4/USBUART_std.c ****         {
1093:Generated_Source\PSoC4/USBUART_std.c ****             /* OUT Endpoint */
1094:Generated_Source\PSoC4/USBUART_std.c ****             USBUART_SIE_EP_BASE.sieEp[epNumber].epCr0 = USBUART_MODE_NAK_OUT;
 1131              		.loc 1 1094 0
 1132 003e 8001     		lsls	r0, r0, #6
 1133              	.LVL101:
 1134 0040 034B     		ldr	r3, .L80+4
 1135 0042 9C46     		mov	ip, r3
 1136 0044 6044     		add	r0, r0, ip
 1137 0046 0823     		movs	r3, #8
 1138 0048 8360     		str	r3, [r0, #8]
 1139              	.L77:
1095:Generated_Source\PSoC4/USBUART_std.c ****         }
ARM GAS  C:\Users\TERENC~1\AppData\Local\Temp\ccz498Tm.s 			page 42


1096:Generated_Source\PSoC4/USBUART_std.c ****     }
1097:Generated_Source\PSoC4/USBUART_std.c **** }
 1140              		.loc 1 1097 0
 1141              		@ sp needed
 1142 004a 7047     		bx	lr
 1143              	.L81:
 1144              		.align	2
 1145              	.L80:
 1146 004c 00000000 		.word	USBUART_EP
 1147 0050 F0FF2B40 		.word	1076625392
 1148              		.cfi_endproc
 1149              	.LFE10:
 1150              		.size	USBUART_TerminateEP, .-USBUART_TerminateEP
 1151              		.section	.text.USBUART_SetEndpointHalt,"ax",%progbits
 1152              		.align	2
 1153              		.global	USBUART_SetEndpointHalt
 1154              		.code	16
 1155              		.thumb_func
 1156              		.type	USBUART_SetEndpointHalt, %function
 1157              	USBUART_SetEndpointHalt:
 1158              	.LFB11:
1098:Generated_Source\PSoC4/USBUART_std.c **** 
1099:Generated_Source\PSoC4/USBUART_std.c **** 
1100:Generated_Source\PSoC4/USBUART_std.c **** /*******************************************************************************
1101:Generated_Source\PSoC4/USBUART_std.c **** * Function Name: USBUART_SetEndpointHalt
1102:Generated_Source\PSoC4/USBUART_std.c **** ****************************************************************************//**
1103:Generated_Source\PSoC4/USBUART_std.c **** *
1104:Generated_Source\PSoC4/USBUART_std.c **** *  This routine handles set endpoint halt.
1105:Generated_Source\PSoC4/USBUART_std.c **** *
1106:Generated_Source\PSoC4/USBUART_std.c **** * \return
1107:Generated_Source\PSoC4/USBUART_std.c **** *  requestHandled.
1108:Generated_Source\PSoC4/USBUART_std.c **** *
1109:Generated_Source\PSoC4/USBUART_std.c **** * \reentrant
1110:Generated_Source\PSoC4/USBUART_std.c **** *  No.
1111:Generated_Source\PSoC4/USBUART_std.c **** *
1112:Generated_Source\PSoC4/USBUART_std.c **** *******************************************************************************/
1113:Generated_Source\PSoC4/USBUART_std.c **** uint8 USBUART_SetEndpointHalt(void) 
1114:Generated_Source\PSoC4/USBUART_std.c **** {
 1159              		.loc 1 1114 0
 1160              		.cfi_startproc
 1161              		@ args = 0, pretend = 0, frame = 0
 1162              		@ frame_needed = 0, uses_anonymous_args = 0
 1163 0000 10B5     		push	{r4, lr}
 1164              		.cfi_def_cfa_offset 8
 1165              		.cfi_offset 4, -8
 1166              		.cfi_offset 14, -4
 1167              	.LVL102:
1115:Generated_Source\PSoC4/USBUART_std.c ****     uint8 requestHandled = USBUART_FALSE;
1116:Generated_Source\PSoC4/USBUART_std.c ****     uint32 ep;
1117:Generated_Source\PSoC4/USBUART_std.c ****     
1118:Generated_Source\PSoC4/USBUART_std.c ****     /* Set endpoint halt */
1119:Generated_Source\PSoC4/USBUART_std.c ****     ep = USBUART_wIndexLoReg & USBUART_DIR_UNUSED;
 1168              		.loc 1 1119 0
 1169 0002 174B     		ldr	r3, .L87
 1170 0004 1B69     		ldr	r3, [r3, #16]
 1171 0006 7F22     		movs	r2, #127
 1172 0008 1340     		ands	r3, r2
ARM GAS  C:\Users\TERENC~1\AppData\Local\Temp\ccz498Tm.s 			page 43


 1173              	.LVL103:
1120:Generated_Source\PSoC4/USBUART_std.c **** 
1121:Generated_Source\PSoC4/USBUART_std.c ****     if ((ep > USBUART_EP0) && (ep < USBUART_MAX_EP))
 1174              		.loc 1 1121 0
 1175 000a 5A1E     		subs	r2, r3, #1
 1176 000c 072A     		cmp	r2, #7
 1177 000e 24D8     		bhi	.L86
1122:Generated_Source\PSoC4/USBUART_std.c ****     {
1123:Generated_Source\PSoC4/USBUART_std.c ****         /* Set the endpoint Halt */
1124:Generated_Source\PSoC4/USBUART_std.c ****         USBUART_EP[ep].hwEpState |= (USBUART_ENDPOINT_STATUS_HALT);
 1178              		.loc 1 1124 0
 1179 0010 5900     		lsls	r1, r3, #1
 1180 0012 C918     		adds	r1, r1, r3
 1181 0014 8A00     		lsls	r2, r1, #2
 1182 0016 1349     		ldr	r1, .L87+4
 1183 0018 8A18     		adds	r2, r1, r2
 1184 001a 9078     		ldrb	r0, [r2, #2]
 1185 001c 0121     		movs	r1, #1
 1186 001e 0143     		orrs	r1, r0
 1187 0020 C9B2     		uxtb	r1, r1
 1188 0022 9170     		strb	r1, [r2, #2]
1125:Generated_Source\PSoC4/USBUART_std.c **** 
1126:Generated_Source\PSoC4/USBUART_std.c ****         /* Clear the data toggle */
1127:Generated_Source\PSoC4/USBUART_std.c ****         USBUART_EP[ep].epToggle = 0u;
 1189              		.loc 1 1127 0
 1190 0024 0021     		movs	r1, #0
 1191 0026 D170     		strb	r1, [r2, #3]
1128:Generated_Source\PSoC4/USBUART_std.c ****         USBUART_EP[ep].apiEpState |= USBUART_NO_EVENT_ALLOWED;
 1192              		.loc 1 1128 0
 1193 0028 5078     		ldrb	r0, [r2, #1]
 1194 002a 0221     		movs	r1, #2
 1195 002c 0143     		orrs	r1, r0
 1196 002e C9B2     		uxtb	r1, r1
 1197 0030 5170     		strb	r1, [r2, #1]
1129:Generated_Source\PSoC4/USBUART_std.c **** 
1130:Generated_Source\PSoC4/USBUART_std.c ****         if ((USBUART_EP[ep].addr & USBUART_DIR_IN) != 0u)
 1198              		.loc 1 1130 0
 1199 0032 1279     		ldrb	r2, [r2, #4]
 1200 0034 52B2     		sxtb	r2, r2
 1201 0036 002A     		cmp	r2, #0
 1202 0038 06DA     		bge	.L84
1131:Generated_Source\PSoC4/USBUART_std.c ****         {
1132:Generated_Source\PSoC4/USBUART_std.c ****             /* IN Endpoint */
1133:Generated_Source\PSoC4/USBUART_std.c ****             USBUART_SIE_EP_BASE.sieEp[ep].epCr0 = (USBUART_MODE_STALL_DATA_EP | 
 1203              		.loc 1 1133 0
 1204 003a 9B01     		lsls	r3, r3, #6
 1205              	.LVL104:
 1206 003c 0A4A     		ldr	r2, .L87+8
 1207 003e 9446     		mov	ip, r2
 1208 0040 6344     		add	r3, r3, ip
 1209 0042 8D22     		movs	r2, #141
 1210 0044 9A60     		str	r2, [r3, #8]
 1211 0046 05E0     		b	.L85
 1212              	.LVL105:
 1213              	.L84:
1134:Generated_Source\PSoC4/USBUART_std.c ****                                                             USBUART_MODE_ACK_IN);
1135:Generated_Source\PSoC4/USBUART_std.c ****         }
ARM GAS  C:\Users\TERENC~1\AppData\Local\Temp\ccz498Tm.s 			page 44


1136:Generated_Source\PSoC4/USBUART_std.c ****         else
1137:Generated_Source\PSoC4/USBUART_std.c ****         {
1138:Generated_Source\PSoC4/USBUART_std.c ****             /* OUT Endpoint */
1139:Generated_Source\PSoC4/USBUART_std.c ****             USBUART_SIE_EP_BASE.sieEp[ep].epCr0 = (USBUART_MODE_STALL_DATA_EP | 
 1214              		.loc 1 1139 0
 1215 0048 9B01     		lsls	r3, r3, #6
 1216              	.LVL106:
 1217 004a 074A     		ldr	r2, .L87+8
 1218 004c 9446     		mov	ip, r2
 1219 004e 6344     		add	r3, r3, ip
 1220 0050 8922     		movs	r2, #137
 1221 0052 9A60     		str	r2, [r3, #8]
 1222              	.L85:
1140:Generated_Source\PSoC4/USBUART_std.c ****                                                             USBUART_MODE_ACK_OUT);
1141:Generated_Source\PSoC4/USBUART_std.c ****         }
1142:Generated_Source\PSoC4/USBUART_std.c ****         requestHandled = USBUART_InitNoDataControlTransfer();
 1223              		.loc 1 1142 0
 1224 0054 FFF7FEFF 		bl	USBUART_InitNoDataControlTransfer
 1225              	.LVL107:
 1226 0058 00E0     		b	.L83
 1227              	.LVL108:
 1228              	.L86:
1115:Generated_Source\PSoC4/USBUART_std.c ****     uint32 ep;
 1229              		.loc 1 1115 0
 1230 005a 0020     		movs	r0, #0
 1231              	.LVL109:
 1232              	.L83:
1143:Generated_Source\PSoC4/USBUART_std.c ****     }
1144:Generated_Source\PSoC4/USBUART_std.c **** 
1145:Generated_Source\PSoC4/USBUART_std.c ****     return (requestHandled);
1146:Generated_Source\PSoC4/USBUART_std.c **** }
 1233              		.loc 1 1146 0
 1234              		@ sp needed
 1235 005c 10BD     		pop	{r4, pc}
 1236              	.L88:
 1237 005e C046     		.align	2
 1238              	.L87:
 1239 0060 00002C40 		.word	1076625408
 1240 0064 00000000 		.word	USBUART_EP
 1241 0068 F0FF2B40 		.word	1076625392
 1242              		.cfi_endproc
 1243              	.LFE11:
 1244              		.size	USBUART_SetEndpointHalt, .-USBUART_SetEndpointHalt
 1245              		.section	.text.USBUART_ClearEndpointHalt,"ax",%progbits
 1246              		.align	2
 1247              		.global	USBUART_ClearEndpointHalt
 1248              		.code	16
 1249              		.thumb_func
 1250              		.type	USBUART_ClearEndpointHalt, %function
 1251              	USBUART_ClearEndpointHalt:
 1252              	.LFB12:
1147:Generated_Source\PSoC4/USBUART_std.c **** 
1148:Generated_Source\PSoC4/USBUART_std.c **** 
1149:Generated_Source\PSoC4/USBUART_std.c **** /*******************************************************************************
1150:Generated_Source\PSoC4/USBUART_std.c **** * Function Name: USBUART_ClearEndpointHalt
1151:Generated_Source\PSoC4/USBUART_std.c **** ****************************************************************************//**
1152:Generated_Source\PSoC4/USBUART_std.c **** *
ARM GAS  C:\Users\TERENC~1\AppData\Local\Temp\ccz498Tm.s 			page 45


1153:Generated_Source\PSoC4/USBUART_std.c **** *  This routine handles clear endpoint halt.
1154:Generated_Source\PSoC4/USBUART_std.c **** *
1155:Generated_Source\PSoC4/USBUART_std.c **** * \return
1156:Generated_Source\PSoC4/USBUART_std.c **** *  requestHandled.
1157:Generated_Source\PSoC4/USBUART_std.c **** *
1158:Generated_Source\PSoC4/USBUART_std.c **** * \reentrant
1159:Generated_Source\PSoC4/USBUART_std.c **** *  No.
1160:Generated_Source\PSoC4/USBUART_std.c **** *
1161:Generated_Source\PSoC4/USBUART_std.c **** *******************************************************************************/
1162:Generated_Source\PSoC4/USBUART_std.c **** uint8 USBUART_ClearEndpointHalt(void) 
1163:Generated_Source\PSoC4/USBUART_std.c **** {
 1253              		.loc 1 1163 0
 1254              		.cfi_startproc
 1255              		@ args = 0, pretend = 0, frame = 0
 1256              		@ frame_needed = 0, uses_anonymous_args = 0
 1257 0000 10B5     		push	{r4, lr}
 1258              		.cfi_def_cfa_offset 8
 1259              		.cfi_offset 4, -8
 1260              		.cfi_offset 14, -4
 1261              	.LVL110:
1164:Generated_Source\PSoC4/USBUART_std.c ****     uint8 requestHandled = USBUART_FALSE;
1165:Generated_Source\PSoC4/USBUART_std.c ****     uint32 ep;
1166:Generated_Source\PSoC4/USBUART_std.c **** 
1167:Generated_Source\PSoC4/USBUART_std.c ****     /* Clear endpoint halt */
1168:Generated_Source\PSoC4/USBUART_std.c ****     ep = USBUART_wIndexLoReg & USBUART_DIR_UNUSED;
 1262              		.loc 1 1168 0
 1263 0002 274B     		ldr	r3, .L96
 1264 0004 1B69     		ldr	r3, [r3, #16]
 1265 0006 7F22     		movs	r2, #127
 1266 0008 1340     		ands	r3, r2
 1267              	.LVL111:
1169:Generated_Source\PSoC4/USBUART_std.c **** 
1170:Generated_Source\PSoC4/USBUART_std.c ****     if ((ep > USBUART_EP0) && (ep < USBUART_MAX_EP))
 1268              		.loc 1 1170 0
 1269 000a 5A1E     		subs	r2, r3, #1
 1270 000c 072A     		cmp	r2, #7
 1271 000e 45D8     		bhi	.L95
1171:Generated_Source\PSoC4/USBUART_std.c ****     {
1172:Generated_Source\PSoC4/USBUART_std.c ****         /* Clear the endpoint Halt */
1173:Generated_Source\PSoC4/USBUART_std.c ****         USBUART_EP[ep].hwEpState &= (uint8) ~USBUART_ENDPOINT_STATUS_HALT;
 1272              		.loc 1 1173 0
 1273 0010 5900     		lsls	r1, r3, #1
 1274 0012 C918     		adds	r1, r1, r3
 1275 0014 8A00     		lsls	r2, r1, #2
 1276 0016 2349     		ldr	r1, .L96+4
 1277 0018 8A18     		adds	r2, r1, r2
 1278 001a 9178     		ldrb	r1, [r2, #2]
 1279 001c 0120     		movs	r0, #1
 1280 001e 8143     		bics	r1, r0
 1281 0020 9170     		strb	r1, [r2, #2]
1174:Generated_Source\PSoC4/USBUART_std.c **** 
1175:Generated_Source\PSoC4/USBUART_std.c ****         /* Clear the data toggle */
1176:Generated_Source\PSoC4/USBUART_std.c ****         USBUART_EP[ep].epToggle = 0u;
 1282              		.loc 1 1176 0
 1283 0022 0021     		movs	r1, #0
 1284 0024 D170     		strb	r1, [r2, #3]
1177:Generated_Source\PSoC4/USBUART_std.c ****         
ARM GAS  C:\Users\TERENC~1\AppData\Local\Temp\ccz498Tm.s 			page 46


1178:Generated_Source\PSoC4/USBUART_std.c ****         /* Clear toggle bit for already armed packet */
1179:Generated_Source\PSoC4/USBUART_std.c ****         USBUART_SIE_EP_BASE.sieEp[ep].epCnt0 = (uint32) ~(uint32)USBUART_EPX_CNT_DATA_TOGGLE;
 1285              		.loc 1 1179 0
 1286 0026 9901     		lsls	r1, r3, #6
 1287 0028 8124     		movs	r4, #129
 1288 002a 6442     		rsbs	r4, r4, #0
 1289 002c 1E48     		ldr	r0, .L96+8
 1290 002e 0C50     		str	r4, [r1, r0]
1180:Generated_Source\PSoC4/USBUART_std.c ****         
1181:Generated_Source\PSoC4/USBUART_std.c ****         /* Return API State as it was defined before */
1182:Generated_Source\PSoC4/USBUART_std.c ****         USBUART_EP[ep].apiEpState &= (uint8) ~USBUART_NO_EVENT_ALLOWED;
 1291              		.loc 1 1182 0
 1292 0030 5178     		ldrb	r1, [r2, #1]
 1293 0032 0220     		movs	r0, #2
 1294 0034 8143     		bics	r1, r0
 1295 0036 5170     		strb	r1, [r2, #1]
1183:Generated_Source\PSoC4/USBUART_std.c **** 
1184:Generated_Source\PSoC4/USBUART_std.c ****         if ((USBUART_EP[ep].addr & USBUART_DIR_IN) != 0u)
 1296              		.loc 1 1184 0
 1297 0038 1279     		ldrb	r2, [r2, #4]
 1298 003a 52B2     		sxtb	r2, r2
 1299 003c 002A     		cmp	r2, #0
 1300 003e 15DA     		bge	.L91
1185:Generated_Source\PSoC4/USBUART_std.c ****         {
1186:Generated_Source\PSoC4/USBUART_std.c ****             /* IN Endpoint */
1187:Generated_Source\PSoC4/USBUART_std.c ****             if(USBUART_EP[ep].apiEpState == USBUART_IN_BUFFER_EMPTY)
 1301              		.loc 1 1187 0
 1302 0040 5900     		lsls	r1, r3, #1
 1303 0042 C918     		adds	r1, r1, r3
 1304 0044 8A00     		lsls	r2, r1, #2
 1305 0046 1749     		ldr	r1, .L96+4
 1306 0048 8A18     		adds	r2, r1, r2
 1307 004a 5278     		ldrb	r2, [r2, #1]
 1308 004c 012A     		cmp	r2, #1
 1309 004e 06D1     		bne	.L92
1188:Generated_Source\PSoC4/USBUART_std.c ****             {       
1189:Generated_Source\PSoC4/USBUART_std.c ****                 /* Wait for next packet from application */
1190:Generated_Source\PSoC4/USBUART_std.c ****                 USBUART_SIE_EP_BASE.sieEp[ep].epCr0 = USBUART_MODE_NAK_IN;
 1310              		.loc 1 1190 0
 1311 0050 9B01     		lsls	r3, r3, #6
 1312              	.LVL112:
 1313 0052 154A     		ldr	r2, .L96+8
 1314 0054 9446     		mov	ip, r2
 1315 0056 6344     		add	r3, r3, ip
 1316 0058 0C22     		movs	r2, #12
 1317 005a 9A60     		str	r2, [r3, #8]
 1318 005c 1BE0     		b	.L93
 1319              	.LVL113:
 1320              	.L92:
1191:Generated_Source\PSoC4/USBUART_std.c ****             }
1192:Generated_Source\PSoC4/USBUART_std.c ****             else    /* Continue armed transfer */
1193:Generated_Source\PSoC4/USBUART_std.c ****             {
1194:Generated_Source\PSoC4/USBUART_std.c ****                 USBUART_SIE_EP_BASE.sieEp[ep].epCr0 = USBUART_MODE_ACK_IN;
 1321              		.loc 1 1194 0
 1322 005e 9B01     		lsls	r3, r3, #6
 1323              	.LVL114:
 1324 0060 114A     		ldr	r2, .L96+8
ARM GAS  C:\Users\TERENC~1\AppData\Local\Temp\ccz498Tm.s 			page 47


 1325 0062 9446     		mov	ip, r2
 1326 0064 6344     		add	r3, r3, ip
 1327 0066 0D22     		movs	r2, #13
 1328 0068 9A60     		str	r2, [r3, #8]
 1329 006a 14E0     		b	.L93
 1330              	.LVL115:
 1331              	.L91:
1195:Generated_Source\PSoC4/USBUART_std.c ****             }
1196:Generated_Source\PSoC4/USBUART_std.c ****         }
1197:Generated_Source\PSoC4/USBUART_std.c ****         else
1198:Generated_Source\PSoC4/USBUART_std.c ****         {
1199:Generated_Source\PSoC4/USBUART_std.c ****             /* OUT Endpoint */
1200:Generated_Source\PSoC4/USBUART_std.c ****             if (USBUART_EP[ep].apiEpState == USBUART_OUT_BUFFER_FULL)
 1332              		.loc 1 1200 0
 1333 006c 5900     		lsls	r1, r3, #1
 1334 006e C918     		adds	r1, r1, r3
 1335 0070 8A00     		lsls	r2, r1, #2
 1336 0072 0C49     		ldr	r1, .L96+4
 1337 0074 8A18     		adds	r2, r1, r2
 1338 0076 5278     		ldrb	r2, [r2, #1]
 1339 0078 012A     		cmp	r2, #1
 1340 007a 06D1     		bne	.L94
1201:Generated_Source\PSoC4/USBUART_std.c ****             {       
1202:Generated_Source\PSoC4/USBUART_std.c ****                 /* Allow application to read full buffer */
1203:Generated_Source\PSoC4/USBUART_std.c ****                 USBUART_SIE_EP_BASE.sieEp[ep].epCr0 = USBUART_MODE_NAK_OUT;
 1341              		.loc 1 1203 0
 1342 007c 9B01     		lsls	r3, r3, #6
 1343              	.LVL116:
 1344 007e 0A4A     		ldr	r2, .L96+8
 1345 0080 9446     		mov	ip, r2
 1346 0082 6344     		add	r3, r3, ip
 1347 0084 0822     		movs	r2, #8
 1348 0086 9A60     		str	r2, [r3, #8]
 1349 0088 05E0     		b	.L93
 1350              	.LVL117:
 1351              	.L94:
1204:Generated_Source\PSoC4/USBUART_std.c ****             }
1205:Generated_Source\PSoC4/USBUART_std.c ****             else    /* Mark endpoint as empty, so it will be reloaded */
1206:Generated_Source\PSoC4/USBUART_std.c ****             {
1207:Generated_Source\PSoC4/USBUART_std.c ****                 USBUART_SIE_EP_BASE.sieEp[ep].epCr0 = USBUART_MODE_ACK_OUT;
 1352              		.loc 1 1207 0
 1353 008a 9B01     		lsls	r3, r3, #6
 1354              	.LVL118:
 1355 008c 064A     		ldr	r2, .L96+8
 1356 008e 9446     		mov	ip, r2
 1357 0090 6344     		add	r3, r3, ip
 1358 0092 0922     		movs	r2, #9
 1359 0094 9A60     		str	r2, [r3, #8]
 1360              	.L93:
1208:Generated_Source\PSoC4/USBUART_std.c ****             }
1209:Generated_Source\PSoC4/USBUART_std.c ****         }
1210:Generated_Source\PSoC4/USBUART_std.c ****         
1211:Generated_Source\PSoC4/USBUART_std.c ****         requestHandled = USBUART_InitNoDataControlTransfer();
 1361              		.loc 1 1211 0
 1362 0096 FFF7FEFF 		bl	USBUART_InitNoDataControlTransfer
 1363              	.LVL119:
 1364 009a 00E0     		b	.L90
ARM GAS  C:\Users\TERENC~1\AppData\Local\Temp\ccz498Tm.s 			page 48


 1365              	.LVL120:
 1366              	.L95:
1164:Generated_Source\PSoC4/USBUART_std.c ****     uint32 ep;
 1367              		.loc 1 1164 0
 1368 009c 0020     		movs	r0, #0
 1369              	.LVL121:
 1370              	.L90:
1212:Generated_Source\PSoC4/USBUART_std.c ****     }
1213:Generated_Source\PSoC4/USBUART_std.c **** 
1214:Generated_Source\PSoC4/USBUART_std.c ****     return(requestHandled);
1215:Generated_Source\PSoC4/USBUART_std.c **** }
 1371              		.loc 1 1215 0
 1372              		@ sp needed
 1373 009e 10BD     		pop	{r4, pc}
 1374              	.L97:
 1375              		.align	2
 1376              	.L96:
 1377 00a0 00002C40 		.word	1076625408
 1378 00a4 00000000 		.word	USBUART_EP
 1379 00a8 F0FF2B40 		.word	1076625392
 1380              		.cfi_endproc
 1381              	.LFE12:
 1382              		.size	USBUART_ClearEndpointHalt, .-USBUART_ClearEndpointHalt
 1383              		.section	.text.USBUART_ValidateAlternateSetting,"ax",%progbits
 1384              		.align	2
 1385              		.global	USBUART_ValidateAlternateSetting
 1386              		.code	16
 1387              		.thumb_func
 1388              		.type	USBUART_ValidateAlternateSetting, %function
 1389              	USBUART_ValidateAlternateSetting:
 1390              	.LFB13:
1216:Generated_Source\PSoC4/USBUART_std.c **** 
1217:Generated_Source\PSoC4/USBUART_std.c **** 
1218:Generated_Source\PSoC4/USBUART_std.c **** /*******************************************************************************
1219:Generated_Source\PSoC4/USBUART_std.c **** * Function Name: USBUART_ValidateAlternateSetting
1220:Generated_Source\PSoC4/USBUART_std.c **** ****************************************************************************//**
1221:Generated_Source\PSoC4/USBUART_std.c **** *
1222:Generated_Source\PSoC4/USBUART_std.c **** *  Validates (and records) a SET INTERFACE request.
1223:Generated_Source\PSoC4/USBUART_std.c **** *
1224:Generated_Source\PSoC4/USBUART_std.c **** * \return
1225:Generated_Source\PSoC4/USBUART_std.c **** *  requestHandled.
1226:Generated_Source\PSoC4/USBUART_std.c **** *
1227:Generated_Source\PSoC4/USBUART_std.c **** * \reentrant
1228:Generated_Source\PSoC4/USBUART_std.c **** *  No.
1229:Generated_Source\PSoC4/USBUART_std.c **** *
1230:Generated_Source\PSoC4/USBUART_std.c **** *******************************************************************************/
1231:Generated_Source\PSoC4/USBUART_std.c **** uint8 USBUART_ValidateAlternateSetting(void) 
1232:Generated_Source\PSoC4/USBUART_std.c **** {
 1391              		.loc 1 1232 0
 1392              		.cfi_startproc
 1393              		@ args = 0, pretend = 0, frame = 0
 1394              		@ frame_needed = 0, uses_anonymous_args = 0
 1395 0000 70B5     		push	{r4, r5, r6, lr}
 1396              		.cfi_def_cfa_offset 16
 1397              		.cfi_offset 4, -16
 1398              		.cfi_offset 5, -12
 1399              		.cfi_offset 6, -8
ARM GAS  C:\Users\TERENC~1\AppData\Local\Temp\ccz498Tm.s 			page 49


 1400              		.cfi_offset 14, -4
 1401              	.LVL122:
1233:Generated_Source\PSoC4/USBUART_std.c ****     uint8 requestHandled = USBUART_FALSE;
1234:Generated_Source\PSoC4/USBUART_std.c ****     
1235:Generated_Source\PSoC4/USBUART_std.c ****     uint8 interfaceNum;
1236:Generated_Source\PSoC4/USBUART_std.c ****     uint8 curInterfacesNum;
1237:Generated_Source\PSoC4/USBUART_std.c ****     const T_USBUART_LUT CYCODE *pTmp;
1238:Generated_Source\PSoC4/USBUART_std.c ****     
1239:Generated_Source\PSoC4/USBUART_std.c ****     /* Get interface number from the request. */
1240:Generated_Source\PSoC4/USBUART_std.c ****     interfaceNum = (uint8) USBUART_wIndexLoReg;
 1402              		.loc 1 1240 0
 1403 0002 0F4B     		ldr	r3, .L102
 1404 0004 1C69     		ldr	r4, [r3, #16]
 1405 0006 E5B2     		uxtb	r5, r4
 1406              	.LVL123:
1241:Generated_Source\PSoC4/USBUART_std.c ****     
1242:Generated_Source\PSoC4/USBUART_std.c ****     /* Get number of interfaces for current configuration. */
1243:Generated_Source\PSoC4/USBUART_std.c ****     pTmp = USBUART_GetConfigTablePtr(USBUART_configuration - 1u);
 1407              		.loc 1 1243 0
 1408 0008 0E4B     		ldr	r3, .L102+4
 1409 000a 1878     		ldrb	r0, [r3]
 1410 000c 0138     		subs	r0, r0, #1
 1411 000e C0B2     		uxtb	r0, r0
 1412 0010 FFF7FEFF 		bl	USBUART_GetConfigTablePtr
 1413              	.LVL124:
1244:Generated_Source\PSoC4/USBUART_std.c ****     curInterfacesNum  = ((const uint8 *) pTmp->p_list)[USBUART_CONFIG_DESCR_NUM_INTERFACES];
 1414              		.loc 1 1244 0
 1415 0014 4368     		ldr	r3, [r0, #4]
 1416 0016 1B79     		ldrb	r3, [r3, #4]
 1417              	.LVL125:
1245:Generated_Source\PSoC4/USBUART_std.c **** 
1246:Generated_Source\PSoC4/USBUART_std.c ****     /* Validate that interface number is within range. */
1247:Generated_Source\PSoC4/USBUART_std.c ****     if ((interfaceNum <= curInterfacesNum) || (interfaceNum <= USBUART_MAX_INTERFACES_NUMBER))
 1418              		.loc 1 1247 0
 1419 0018 9D42     		cmp	r5, r3
 1420 001a 01D9     		bls	.L99
 1421              		.loc 1 1247 0 is_stmt 0 discriminator 1
 1422 001c 022D     		cmp	r5, #2
 1423 001e 0CD8     		bhi	.L101
 1424              	.L99:
1248:Generated_Source\PSoC4/USBUART_std.c ****     {
1249:Generated_Source\PSoC4/USBUART_std.c ****         /* Save current and new alternate settings (come with request) to make 
1250:Generated_Source\PSoC4/USBUART_std.c ****         * desicion about following endpoint re-configuration.
1251:Generated_Source\PSoC4/USBUART_std.c ****         */
1252:Generated_Source\PSoC4/USBUART_std.c ****         USBUART_interfaceSettingLast[interfaceNum] = USBUART_interfaceSetting[interfaceNum];
 1425              		.loc 1 1252 0 is_stmt 1
 1426 0020 FF23     		movs	r3, #255
 1427              	.LVL126:
 1428 0022 2340     		ands	r3, r4
 1429 0024 0849     		ldr	r1, .L102+8
 1430 0026 CA5C     		ldrb	r2, [r1, r3]
 1431 0028 D2B2     		uxtb	r2, r2
 1432 002a 0848     		ldr	r0, .L102+12
 1433              	.LVL127:
 1434 002c C254     		strb	r2, [r0, r3]
1253:Generated_Source\PSoC4/USBUART_std.c ****         USBUART_interfaceSetting[interfaceNum]     = (uint8) USBUART_wValueLoReg;
 1435              		.loc 1 1253 0
ARM GAS  C:\Users\TERENC~1\AppData\Local\Temp\ccz498Tm.s 			page 50


 1436 002e 044A     		ldr	r2, .L102
 1437 0030 9268     		ldr	r2, [r2, #8]
 1438 0032 D2B2     		uxtb	r2, r2
 1439 0034 CA54     		strb	r2, [r1, r3]
 1440              	.LVL128:
1254:Generated_Source\PSoC4/USBUART_std.c ****         
1255:Generated_Source\PSoC4/USBUART_std.c ****         requestHandled = USBUART_TRUE;
 1441              		.loc 1 1255 0
 1442 0036 0120     		movs	r0, #1
 1443 0038 00E0     		b	.L100
 1444              	.LVL129:
 1445              	.L101:
1233:Generated_Source\PSoC4/USBUART_std.c ****     
 1446              		.loc 1 1233 0
 1447 003a 0020     		movs	r0, #0
 1448              	.LVL130:
 1449              	.L100:
1256:Generated_Source\PSoC4/USBUART_std.c ****     }
1257:Generated_Source\PSoC4/USBUART_std.c **** 
1258:Generated_Source\PSoC4/USBUART_std.c ****     return (requestHandled);
1259:Generated_Source\PSoC4/USBUART_std.c **** }
 1450              		.loc 1 1259 0
 1451              		@ sp needed
 1452              	.LVL131:
 1453 003c 70BD     		pop	{r4, r5, r6, pc}
 1454              	.L103:
 1455 003e C046     		.align	2
 1456              	.L102:
 1457 0040 00002C40 		.word	1076625408
 1458 0044 00000000 		.word	USBUART_configuration
 1459 0048 00000000 		.word	USBUART_interfaceSetting
 1460 004c 00000000 		.word	USBUART_interfaceSettingLast
 1461              		.cfi_endproc
 1462              	.LFE13:
 1463              		.size	USBUART_ValidateAlternateSetting, .-USBUART_ValidateAlternateSetting
 1464              		.section	.text.USBUART_HandleStandardRqst,"ax",%progbits
 1465              		.align	2
 1466              		.global	USBUART_HandleStandardRqst
 1467              		.code	16
 1468              		.thumb_func
 1469              		.type	USBUART_HandleStandardRqst, %function
 1470              	USBUART_HandleStandardRqst:
 1471              	.LFB1:
  85:Generated_Source\PSoC4/USBUART_std.c ****     uint8 requestHandled = USBUART_FALSE;
 1472              		.loc 1 85 0
 1473              		.cfi_startproc
 1474              		@ args = 0, pretend = 0, frame = 0
 1475              		@ frame_needed = 0, uses_anonymous_args = 0
 1476 0000 10B5     		push	{r4, lr}
 1477              		.cfi_def_cfa_offset 8
 1478              		.cfi_offset 4, -8
 1479              		.cfi_offset 14, -4
 1480              	.LVL132:
  89:Generated_Source\PSoC4/USBUART_std.c **** 
 1481              		.loc 1 89 0
 1482 0002 B54B     		ldr	r3, .L160
 1483 0004 1B68     		ldr	r3, [r3]
ARM GAS  C:\Users\TERENC~1\AppData\Local\Temp\ccz498Tm.s 			page 51


 1484              	.LVL133:
 102:Generated_Source\PSoC4/USBUART_std.c **** 
 1485              		.loc 1 102 0
 1486 0006 0021     		movs	r1, #0
 1487 0008 B44A     		ldr	r2, .L160+4
 1488 000a 1180     		strh	r1, [r2]
 104:Generated_Source\PSoC4/USBUART_std.c ****     {
 1489              		.loc 1 104 0
 1490 000c 1A06     		lsls	r2, r3, #24
 1491 000e 00D4     		bmi	.LCB1524
 1492 0010 A6E0     		b	.L105	@long jump
 1493              	.LCB1524:
 107:Generated_Source\PSoC4/USBUART_std.c ****         {
 1494              		.loc 1 107 0
 1495 0012 B14A     		ldr	r2, .L160
 1496 0014 5268     		ldr	r2, [r2, #4]
 1497 0016 062A     		cmp	r2, #6
 1498 0018 0AD0     		beq	.L107
 1499 001a 02D8     		bhi	.L108
 1500 001c 002A     		cmp	r2, #0
 1501 001e 63D0     		beq	.L109
 1502 0020 3CE1     		b	.L139
 1503              	.L108:
 1504 0022 082A     		cmp	r2, #8
 1505 0024 00D1     		bne	.LCB1538
 1506 0026 88E0     		b	.L110	@long jump
 1507              	.LCB1538:
 1508 0028 0A2A     		cmp	r2, #10
 1509 002a 00D1     		bne	.LCB1540
 1510 002c 8DE0     		b	.L111	@long jump
 1511              	.LCB1540:
 1512 002e 35E1     		b	.L139
 1513              	.L107:
 110:Generated_Source\PSoC4/USBUART_std.c ****                 {
 1514              		.loc 1 110 0
 1515 0030 A94B     		ldr	r3, .L160
 1516              	.LVL134:
 1517 0032 DB68     		ldr	r3, [r3, #12]
 1518 0034 012B     		cmp	r3, #1
 1519 0036 09D1     		bne	.L112
 112:Generated_Source\PSoC4/USBUART_std.c ****                     USBUART_currentTD.pData = (volatile uint8 *)pTmp->p_list;
 1520              		.loc 1 112 0
 1521 0038 FFF7FEFF 		bl	USBUART_GetDeviceTablePtr
 1522              	.LVL135:
 113:Generated_Source\PSoC4/USBUART_std.c ****                     USBUART_currentTD.count = USBUART_DEVICE_DESCR_LENGTH;
 1523              		.loc 1 113 0
 1524 003c 4268     		ldr	r2, [r0, #4]
 1525 003e A74B     		ldr	r3, .L160+4
 1526 0040 5A60     		str	r2, [r3, #4]
 114:Generated_Source\PSoC4/USBUART_std.c ****                     
 1527              		.loc 1 114 0
 1528 0042 1222     		movs	r2, #18
 1529 0044 1A80     		strh	r2, [r3]
 116:Generated_Source\PSoC4/USBUART_std.c ****                 }
 1530              		.loc 1 116 0
 1531 0046 FFF7FEFF 		bl	USBUART_InitControlRead
 1532              	.LVL136:
ARM GAS  C:\Users\TERENC~1\AppData\Local\Temp\ccz498Tm.s 			page 52


 1533 004a 44E1     		b	.L106
 1534              	.LVL137:
 1535              	.L112:
 118:Generated_Source\PSoC4/USBUART_std.c ****                 {
 1536              		.loc 1 118 0
 1537 004c A24B     		ldr	r3, .L160
 1538 004e DB68     		ldr	r3, [r3, #12]
 1539 0050 022B     		cmp	r3, #2
 1540 0052 14D1     		bne	.L113
 120:Generated_Source\PSoC4/USBUART_std.c ****                     
 1541              		.loc 1 120 0
 1542 0054 A04B     		ldr	r3, .L160
 1543 0056 9868     		ldr	r0, [r3, #8]
 1544 0058 C0B2     		uxtb	r0, r0
 1545 005a FFF7FEFF 		bl	USBUART_GetConfigTablePtr
 1546              	.LVL138:
 123:Generated_Source\PSoC4/USBUART_std.c ****                     {
 1547              		.loc 1 123 0
 1548 005e 0028     		cmp	r0, #0
 1549 0060 00D1     		bne	.LCB1579
 1550 0062 1DE1     		b	.L140	@long jump
 1551              	.LCB1579:
 125:Generated_Source\PSoC4/USBUART_std.c ****                         USBUART_currentTD.count = (uint16)((uint16)(USBUART_currentTD.pData)[USBUAR
 1552              		.loc 1 125 0
 1553 0064 4368     		ldr	r3, [r0, #4]
 1554 0066 9D4A     		ldr	r2, .L160+4
 1555 0068 5360     		str	r3, [r2, #4]
 126:Generated_Source\PSoC4/USBUART_std.c ****                                                                             (USBUART_currentTD.pDat
 1556              		.loc 1 126 0
 1557 006a 5368     		ldr	r3, [r2, #4]
 1558 006c DB78     		ldrb	r3, [r3, #3]
 1559 006e 1B02     		lsls	r3, r3, #8
 127:Generated_Source\PSoC4/USBUART_std.c ****                         requestHandled  = USBUART_InitControlRead();
 1560              		.loc 1 127 0
 1561 0070 5168     		ldr	r1, [r2, #4]
 1562 0072 8978     		ldrb	r1, [r1, #2]
 126:Generated_Source\PSoC4/USBUART_std.c ****                                                                             (USBUART_currentTD.pDat
 1563              		.loc 1 126 0
 1564 0074 0B43     		orrs	r3, r1
 1565 0076 1380     		strh	r3, [r2]
 128:Generated_Source\PSoC4/USBUART_std.c ****                     }
 1566              		.loc 1 128 0
 1567 0078 FFF7FEFF 		bl	USBUART_InitControlRead
 1568              	.LVL139:
 1569 007c 2BE1     		b	.L106
 1570              	.LVL140:
 1571              	.L113:
 149:Generated_Source\PSoC4/USBUART_std.c ****                 {
 1572              		.loc 1 149 0
 1573 007e 964B     		ldr	r3, .L160
 1574 0080 DB68     		ldr	r3, [r3, #12]
 1575 0082 032B     		cmp	r3, #3
 1576 0084 05D0     		beq	.L141
 1577 0086 2CE0     		b	.L156
 1578              	.LVL141:
 1579              	.L117:
 159:Generated_Source\PSoC4/USBUART_std.c ****                         /* Move to next string descriptor */
ARM GAS  C:\Users\TERENC~1\AppData\Local\Temp\ccz498Tm.s 			page 53


 1580              		.loc 1 159 0
 1581 0088 1178     		ldrb	r1, [r2]
 1582              	.LVL142:
 161:Generated_Source\PSoC4/USBUART_std.c ****                         nStr++;
 1583              		.loc 1 161 0
 1584 008a 5218     		adds	r2, r2, r1
 1585              	.LVL143:
 162:Generated_Source\PSoC4/USBUART_std.c ****                     }
 1586              		.loc 1 162 0
 1587 008c 0133     		adds	r3, r3, #1
 1588              	.LVL144:
 1589 008e DBB2     		uxtb	r3, r3
 1590              	.LVL145:
 1591 0090 01E0     		b	.L114
 1592              	.LVL146:
 1593              	.L141:
 1594 0092 0023     		movs	r3, #0
 1595 0094 924A     		ldr	r2, .L160+8
 1596              	.LVL147:
 1597              	.L114:
 156:Generated_Source\PSoC4/USBUART_std.c ****                     {
 1598              		.loc 1 156 0
 1599 0096 9049     		ldr	r1, .L160
 1600 0098 8968     		ldr	r1, [r1, #8]
 1601 009a 9942     		cmp	r1, r3
 1602 009c 02D9     		bls	.L116
 156:Generated_Source\PSoC4/USBUART_std.c ****                     {
 1603              		.loc 1 156 0 is_stmt 0 discriminator 1
 1604 009e 1178     		ldrb	r1, [r2]
 1605 00a0 0029     		cmp	r1, #0
 1606 00a2 F1D1     		bne	.L117
 1607              	.L116:
 168:Generated_Source\PSoC4/USBUART_std.c ****                     {
 1608              		.loc 1 168 0 is_stmt 1
 1609 00a4 8C4B     		ldr	r3, .L160
 1610              	.LVL148:
 1611 00a6 9B68     		ldr	r3, [r3, #8]
 1612 00a8 EE2B     		cmp	r3, #238
 1613 00aa 00D1     		bne	.L118
 170:Generated_Source\PSoC4/USBUART_std.c ****                     }
 1614              		.loc 1 170 0
 1615 00ac 8D4A     		ldr	r2, .L160+12
 1616              	.LVL149:
 1617              	.L118:
 176:Generated_Source\PSoC4/USBUART_std.c ****                         (USBUART_wValueLoReg == USBUART_DEVICE0_DESCR[USBUART_DEVICE_DESCR_SN_SHIFT
 1618              		.loc 1 176 0
 1619 00ae 8A4B     		ldr	r3, .L160
 1620 00b0 9B68     		ldr	r3, [r3, #8]
 1621 00b2 002B     		cmp	r3, #0
 1622 00b4 0AD0     		beq	.L119
 177:Generated_Source\PSoC4/USBUART_std.c ****                     {
 1623              		.loc 1 177 0 discriminator 1
 1624 00b6 884B     		ldr	r3, .L160
 1625 00b8 9968     		ldr	r1, [r3, #8]
 1626 00ba 8B4B     		ldr	r3, .L160+16
 1627 00bc 1B7C     		ldrb	r3, [r3, #16]
 176:Generated_Source\PSoC4/USBUART_std.c ****                         (USBUART_wValueLoReg == USBUART_DEVICE0_DESCR[USBUART_DEVICE_DESCR_SN_SHIFT
ARM GAS  C:\Users\TERENC~1\AppData\Local\Temp\ccz498Tm.s 			page 54


 1628              		.loc 1 176 0 discriminator 1
 1629 00be 9942     		cmp	r1, r3
 1630 00c0 04D1     		bne	.L119
 181:Generated_Source\PSoC4/USBUART_std.c ****                         pStr = USBUART_idSerialNumberStringDescriptor;
 1631              		.loc 1 181 0
 1632 00c2 8A4C     		ldr	r4, .L160+20
 1633 00c4 2000     		movs	r0, r4
 1634 00c6 FFF7FEFF 		bl	USBUART_ReadDieID
 1635              	.LVL150:
 182:Generated_Source\PSoC4/USBUART_std.c ****                     #elif defined(USBUART_ENABLE_FWSN_STRING)
 1636              		.loc 1 182 0
 1637 00ca 2200     		movs	r2, r4
 1638              	.LVL151:
 1639              	.L119:
 199:Generated_Source\PSoC4/USBUART_std.c ****                     {
 1640              		.loc 1 199 0
 1641 00cc 1378     		ldrb	r3, [r2]
 1642 00ce 002B     		cmp	r3, #0
 1643 00d0 00D1     		bne	.LCB1681
 1644 00d2 E7E0     		b	.L143	@long jump
 1645              	.LCB1681:
 201:Generated_Source\PSoC4/USBUART_std.c ****                         USBUART_currentTD.pData = pStr;
 1646              		.loc 1 201 0
 1647 00d4 1378     		ldrb	r3, [r2]
 1648 00d6 8149     		ldr	r1, .L160+4
 1649 00d8 0B80     		strh	r3, [r1]
 202:Generated_Source\PSoC4/USBUART_std.c ****                         requestHandled  = USBUART_InitControlRead();
 1650              		.loc 1 202 0
 1651 00da 4A60     		str	r2, [r1, #4]
 203:Generated_Source\PSoC4/USBUART_std.c ****                     }
 1652              		.loc 1 203 0
 1653 00dc FFF7FEFF 		bl	USBUART_InitControlRead
 1654              	.LVL152:
 1655 00e0 F9E0     		b	.L106
 1656              	.LVL153:
 1657              	.L156:
 209:Generated_Source\PSoC4/USBUART_std.c ****                 }
 1658              		.loc 1 209 0
 1659 00e2 FFF7FEFF 		bl	USBUART_DispatchClassRqst
 1660              	.LVL154:
 1661 00e6 F6E0     		b	.L106
 1662              	.LVL155:
 1663              	.L109:
 214:Generated_Source\PSoC4/USBUART_std.c ****                 {
 1664              		.loc 1 214 0
 1665 00e8 0322     		movs	r2, #3
 1666 00ea 1340     		ands	r3, r2
 1667              	.LVL156:
 1668 00ec 17D0     		beq	.L120
 1669 00ee 022B     		cmp	r3, #2
 1670 00f0 00D0     		beq	.LCB1713
 1671 00f2 D9E0     		b	.L157	@long jump
 1672              	.LCB1713:
 217:Generated_Source\PSoC4/USBUART_std.c ****                         USBUART_tBuffer[0u]     = USBUART_EP[USBUART_wIndexLoReg & USBUART_DIR_UNUS
 1673              		.loc 1 217 0
 1674 00f4 7949     		ldr	r1, .L160+4
 1675 00f6 0B80     		strh	r3, [r1]
ARM GAS  C:\Users\TERENC~1\AppData\Local\Temp\ccz498Tm.s 			page 55


 218:Generated_Source\PSoC4/USBUART_std.c ****                         USBUART_tBuffer[1u]     = 0u;
 1676              		.loc 1 218 0
 1677 00f8 774B     		ldr	r3, .L160
 1678 00fa 1B69     		ldr	r3, [r3, #16]
 1679 00fc 7C32     		adds	r2, r2, #124
 1680 00fe 1340     		ands	r3, r2
 1681 0100 5A00     		lsls	r2, r3, #1
 1682 0102 D318     		adds	r3, r2, r3
 1683 0104 9A00     		lsls	r2, r3, #2
 1684 0106 7A4B     		ldr	r3, .L160+24
 1685 0108 9A18     		adds	r2, r3, r2
 1686 010a 9278     		ldrb	r2, [r2, #2]
 1687 010c D2B2     		uxtb	r2, r2
 1688 010e 794B     		ldr	r3, .L160+28
 1689 0110 1A70     		strb	r2, [r3]
 219:Generated_Source\PSoC4/USBUART_std.c ****                         USBUART_currentTD.pData = &USBUART_tBuffer[0u];
 1690              		.loc 1 219 0
 1691 0112 0022     		movs	r2, #0
 1692 0114 5A70     		strb	r2, [r3, #1]
 220:Generated_Source\PSoC4/USBUART_std.c ****                         
 1693              		.loc 1 220 0
 1694 0116 4B60     		str	r3, [r1, #4]
 222:Generated_Source\PSoC4/USBUART_std.c ****                         break;
 1695              		.loc 1 222 0
 1696 0118 FFF7FEFF 		bl	USBUART_InitControlRead
 1697              	.LVL157:
 223:Generated_Source\PSoC4/USBUART_std.c ****                     case USBUART_RQST_RCPT_DEV:
 1698              		.loc 1 223 0
 1699 011c DBE0     		b	.L106
 1700              	.LVL158:
 1701              	.L120:
 225:Generated_Source\PSoC4/USBUART_std.c ****                         USBUART_tBuffer[0u]     = USBUART_deviceStatus;
 1702              		.loc 1 225 0
 1703 011e 6F49     		ldr	r1, .L160+4
 1704 0120 0223     		movs	r3, #2
 1705 0122 0B80     		strh	r3, [r1]
 226:Generated_Source\PSoC4/USBUART_std.c ****                         USBUART_tBuffer[1u]     = 0u;
 1706              		.loc 1 226 0
 1707 0124 744B     		ldr	r3, .L160+32
 1708 0126 1A78     		ldrb	r2, [r3]
 1709 0128 D2B2     		uxtb	r2, r2
 1710 012a 724B     		ldr	r3, .L160+28
 1711 012c 1A70     		strb	r2, [r3]
 227:Generated_Source\PSoC4/USBUART_std.c ****                         USBUART_currentTD.pData = &USBUART_tBuffer[0u];
 1712              		.loc 1 227 0
 1713 012e 0022     		movs	r2, #0
 1714 0130 5A70     		strb	r2, [r3, #1]
 228:Generated_Source\PSoC4/USBUART_std.c ****                         
 1715              		.loc 1 228 0
 1716 0132 4B60     		str	r3, [r1, #4]
 230:Generated_Source\PSoC4/USBUART_std.c ****                         break;
 1717              		.loc 1 230 0
 1718 0134 FFF7FEFF 		bl	USBUART_InitControlRead
 1719              	.LVL159:
 231:Generated_Source\PSoC4/USBUART_std.c ****                     default:    /* requestHandled is initialized as FALSE by default */
 1720              		.loc 1 231 0
 1721 0138 CDE0     		b	.L106
ARM GAS  C:\Users\TERENC~1\AppData\Local\Temp\ccz498Tm.s 			page 56


 1722              	.LVL160:
 1723              	.L110:
 238:Generated_Source\PSoC4/USBUART_std.c ****                 USBUART_currentTD.pData = (volatile uint8 *) &USBUART_configuration;
 1724              		.loc 1 238 0
 1725 013a 684B     		ldr	r3, .L160+4
 1726              	.LVL161:
 1727 013c 0122     		movs	r2, #1
 1728 013e 1A80     		strh	r2, [r3]
 239:Generated_Source\PSoC4/USBUART_std.c ****                 requestHandled  = USBUART_InitControlRead();
 1729              		.loc 1 239 0
 1730 0140 6E4A     		ldr	r2, .L160+36
 1731 0142 5A60     		str	r2, [r3, #4]
 240:Generated_Source\PSoC4/USBUART_std.c ****                 break;
 1732              		.loc 1 240 0
 1733 0144 FFF7FEFF 		bl	USBUART_InitControlRead
 1734              	.LVL162:
 241:Generated_Source\PSoC4/USBUART_std.c ****                 
 1735              		.loc 1 241 0
 1736 0148 C5E0     		b	.L106
 1737              	.LVL163:
 1738              	.L111:
 244:Generated_Source\PSoC4/USBUART_std.c ****                 USBUART_currentTD.pData = (volatile uint8 *) &USBUART_interfaceSetting[USBUART_wInd
 1739              		.loc 1 244 0
 1740 014a 644A     		ldr	r2, .L160+4
 1741 014c 0123     		movs	r3, #1
 1742              	.LVL164:
 1743 014e 1380     		strh	r3, [r2]
 245:Generated_Source\PSoC4/USBUART_std.c ****                 requestHandled  = USBUART_InitControlRead();
 1744              		.loc 1 245 0
 1745 0150 614B     		ldr	r3, .L160
 1746 0152 1969     		ldr	r1, [r3, #16]
 1747 0154 6A4B     		ldr	r3, .L160+40
 1748 0156 CB18     		adds	r3, r1, r3
 1749 0158 5360     		str	r3, [r2, #4]
 246:Generated_Source\PSoC4/USBUART_std.c ****                 break;
 1750              		.loc 1 246 0
 1751 015a FFF7FEFF 		bl	USBUART_InitControlRead
 1752              	.LVL165:
 247:Generated_Source\PSoC4/USBUART_std.c ****                 
 1753              		.loc 1 247 0
 1754 015e BAE0     		b	.L106
 1755              	.LVL166:
 1756              	.L105:
 256:Generated_Source\PSoC4/USBUART_std.c ****         {
 1757              		.loc 1 256 0
 1758 0160 5D4A     		ldr	r2, .L160
 1759 0162 5268     		ldr	r2, [r2, #4]
 1760 0164 0B2A     		cmp	r2, #11
 1761 0166 00D9     		bls	.LCB1796
 1762 0168 A0E0     		b	.L145	@long jump
 1763              	.LCB1796:
 1764 016a 9200     		lsls	r2, r2, #2
 1765 016c 6549     		ldr	r1, .L160+44
 1766 016e 8A58     		ldr	r2, [r1, r2]
 1767 0170 9746     		mov	pc, r2
 1768              		.section	.rodata
 1769              		.align	2
ARM GAS  C:\Users\TERENC~1\AppData\Local\Temp\ccz498Tm.s 			page 57


 1770              	.L123:
 1771 0000 AC020000 		.word	.L145
 1772 0004 F6010000 		.word	.L122
 1773 0008 AC020000 		.word	.L145
 1774 000c 48020000 		.word	.L124
 1775 0010 AC020000 		.word	.L145
 1776 0014 72010000 		.word	.L125
 1777 0018 AC020000 		.word	.L145
 1778 001c AC020000 		.word	.L145
 1779 0020 AC020000 		.word	.L145
 1780 0024 82010000 		.word	.L126
 1781 0028 AC020000 		.word	.L145
 1782 002c C2010000 		.word	.L127
 1783              		.section	.text.USBUART_HandleStandardRqst
 1784              	.L125:
 260:Generated_Source\PSoC4/USBUART_std.c ****                 requestHandled = USBUART_InitNoDataControlTransfer();
 1785              		.loc 1 260 0
 1786 0172 594B     		ldr	r3, .L160
 1787              	.LVL167:
 1788 0174 9B68     		ldr	r3, [r3, #8]
 1789 0176 DBB2     		uxtb	r3, r3
 1790 0178 634A     		ldr	r2, .L160+48
 1791 017a 1370     		strb	r3, [r2]
 261:Generated_Source\PSoC4/USBUART_std.c ****                 break;
 1792              		.loc 1 261 0
 1793 017c FFF7FEFF 		bl	USBUART_InitNoDataControlTransfer
 1794              	.LVL168:
 262:Generated_Source\PSoC4/USBUART_std.c ****                 
 1795              		.loc 1 262 0
 1796 0180 A9E0     		b	.L106
 1797              	.LVL169:
 1798              	.L126:
 265:Generated_Source\PSoC4/USBUART_std.c ****                 
 1799              		.loc 1 265 0
 1800 0182 554B     		ldr	r3, .L160
 1801              	.LVL170:
 1802 0184 9C68     		ldr	r4, [r3, #8]
 1803              	.LVL171:
 268:Generated_Source\PSoC4/USBUART_std.c ****                 {
 1804              		.loc 1 268 0
 1805 0186 002C     		cmp	r4, #0
 1806 0188 03D0     		beq	.L128
 270:Generated_Source\PSoC4/USBUART_std.c ****                 }
 1807              		.loc 1 270 0
 1808 018a 601E     		subs	r0, r4, #1
 1809 018c C0B2     		uxtb	r0, r0
 1810 018e FFF7FEFF 		bl	USBUART_GetConfigTablePtr
 1811              	.LVL172:
 1812              	.L128:
 274:Generated_Source\PSoC4/USBUART_std.c ****                 {
 1813              		.loc 1 274 0
 1814 0192 002C     		cmp	r4, #0
 1815 0194 01D0     		beq	.L129
 274:Generated_Source\PSoC4/USBUART_std.c ****                 {
 1816              		.loc 1 274 0 is_stmt 0 discriminator 1
 1817 0196 0028     		cmp	r0, #0
 1818 0198 02D1     		bne	.L130
ARM GAS  C:\Users\TERENC~1\AppData\Local\Temp\ccz498Tm.s 			page 58


 1819              	.L129:
 274:Generated_Source\PSoC4/USBUART_std.c ****                 {
 1820              		.loc 1 274 0 discriminator 3
 1821 019a 002C     		cmp	r4, #0
 1822 019c 00D0     		beq	.LCB1844
 1823 019e 87E0     		b	.L146	@long jump
 1824              	.LCB1844:
 1825              	.L130:
 277:Generated_Source\PSoC4/USBUART_std.c ****                     {
 1826              		.loc 1 277 0 is_stmt 1
 1827 01a0 564B     		ldr	r3, .L160+36
 1828 01a2 1B78     		ldrb	r3, [r3]
 1829 01a4 DBB2     		uxtb	r3, r3
 1830 01a6 9C42     		cmp	r4, r3
 1831 01a8 08D0     		beq	.L131
 279:Generated_Source\PSoC4/USBUART_std.c ****                         USBUART_configurationChanged = USBUART_TRUE;
 1832              		.loc 1 279 0
 1833 01aa E4B2     		uxtb	r4, r4
 1834              	.LVL173:
 1835 01ac 534B     		ldr	r3, .L160+36
 1836 01ae 1C70     		strb	r4, [r3]
 280:Generated_Source\PSoC4/USBUART_std.c ****                         USBUART_Config(USBUART_TRUE);
 1837              		.loc 1 280 0
 1838 01b0 0122     		movs	r2, #1
 1839 01b2 564B     		ldr	r3, .L160+52
 1840 01b4 1A70     		strb	r2, [r3]
 281:Generated_Source\PSoC4/USBUART_std.c ****                     }
 1841              		.loc 1 281 0
 1842 01b6 0120     		movs	r0, #1
 1843              	.LVL174:
 1844 01b8 FFF7FEFF 		bl	USBUART_Config
 1845              	.LVL175:
 1846              	.L131:
 283:Generated_Source\PSoC4/USBUART_std.c ****                 }
 1847              		.loc 1 283 0
 1848 01bc FFF7FEFF 		bl	USBUART_InitNoDataControlTransfer
 1849              	.LVL176:
 1850 01c0 89E0     		b	.L106
 1851              	.LVL177:
 1852              	.L127:
 288:Generated_Source\PSoC4/USBUART_std.c ****                 {
 1853              		.loc 1 288 0
 1854 01c2 FFF7FEFF 		bl	USBUART_ValidateAlternateSetting
 1855              	.LVL178:
 1856 01c6 0028     		cmp	r0, #0
 1857 01c8 74D0     		beq	.L147
 291:Generated_Source\PSoC4/USBUART_std.c ****                     USBUART_interfaceNumber = (uint8) USBUART_wIndexLoReg;
 1858              		.loc 1 291 0
 1859 01ca 434B     		ldr	r3, .L160
 1860 01cc 1969     		ldr	r1, [r3, #16]
 1861              	.LVL179:
 292:Generated_Source\PSoC4/USBUART_std.c ****                      
 1862              		.loc 1 292 0
 1863 01ce 1B69     		ldr	r3, [r3, #16]
 1864 01d0 DBB2     		uxtb	r3, r3
 1865 01d2 4F4A     		ldr	r2, .L160+56
 1866 01d4 1370     		strb	r3, [r2]
ARM GAS  C:\Users\TERENC~1\AppData\Local\Temp\ccz498Tm.s 			page 59


 295:Generated_Source\PSoC4/USBUART_std.c ****                     {
 1867              		.loc 1 295 0
 1868 01d6 4F4B     		ldr	r3, .L160+60
 1869 01d8 5A5C     		ldrb	r2, [r3, r1]
 1870 01da D2B2     		uxtb	r2, r2
 1871 01dc 484B     		ldr	r3, .L160+40
 1872 01de 5B5C     		ldrb	r3, [r3, r1]
 1873 01e0 DBB2     		uxtb	r3, r3
 1874 01e2 9A42     		cmp	r2, r3
 1875 01e4 04D0     		beq	.L132
 297:Generated_Source\PSoC4/USBUART_std.c ****                     
 1876              		.loc 1 297 0
 1877 01e6 0122     		movs	r2, #1
 1878 01e8 484B     		ldr	r3, .L160+52
 1879 01ea 1A70     		strb	r2, [r3]
 303:Generated_Source\PSoC4/USBUART_std.c ****                     #endif /* (USBUART_EP_MANAGEMENT_MANUAL && USBUART_EP_ALLOC_DYNAMIC) */
 1880              		.loc 1 303 0
 1881 01ec FFF7FEFF 		bl	USBUART_ConfigAltChanged
 1882              	.LVL180:
 1883              	.L132:
 307:Generated_Source\PSoC4/USBUART_std.c ****                 }
 1884              		.loc 1 307 0
 1885 01f0 FFF7FEFF 		bl	USBUART_InitNoDataControlTransfer
 1886              	.LVL181:
 1887 01f4 6FE0     		b	.L106
 1888              	.LVL182:
 1889              	.L122:
 312:Generated_Source\PSoC4/USBUART_std.c ****                 {
 1890              		.loc 1 312 0
 1891 01f6 0322     		movs	r2, #3
 1892 01f8 1340     		ands	r3, r2
 1893              	.LVL183:
 1894 01fa 012B     		cmp	r3, #1
 1895 01fc 16D0     		beq	.L133
 1896 01fe 002B     		cmp	r3, #0
 1897 0200 08D0     		beq	.L134
 1898 0202 022B     		cmp	r3, #2
 1899 0204 58D1     		bne	.L158
 315:Generated_Source\PSoC4/USBUART_std.c ****                         {
 1900              		.loc 1 315 0
 1901 0206 344B     		ldr	r3, .L160
 1902 0208 9B68     		ldr	r3, [r3, #8]
 1903 020a 002B     		cmp	r3, #0
 1904 020c 56D1     		bne	.L149
 317:Generated_Source\PSoC4/USBUART_std.c ****                         }
 1905              		.loc 1 317 0
 1906 020e FFF7FEFF 		bl	USBUART_ClearEndpointHalt
 1907              	.LVL184:
 1908 0212 60E0     		b	.L106
 1909              	.LVL185:
 1910              	.L134:
 322:Generated_Source\PSoC4/USBUART_std.c ****                         {
 1911              		.loc 1 322 0
 1912 0214 304B     		ldr	r3, .L160
 1913 0216 9B68     		ldr	r3, [r3, #8]
 1914 0218 012B     		cmp	r3, #1
 1915 021a 51D1     		bne	.L150
ARM GAS  C:\Users\TERENC~1\AppData\Local\Temp\ccz498Tm.s 			page 60


 324:Generated_Source\PSoC4/USBUART_std.c ****                             requestHandled = USBUART_InitNoDataControlTransfer();
 1916              		.loc 1 324 0
 1917 021c 364A     		ldr	r2, .L160+32
 1918 021e 1378     		ldrb	r3, [r2]
 1919 0220 0221     		movs	r1, #2
 1920 0222 8B43     		bics	r3, r1
 1921 0224 1370     		strb	r3, [r2]
 325:Generated_Source\PSoC4/USBUART_std.c ****                         }
 1922              		.loc 1 325 0
 1923 0226 FFF7FEFF 		bl	USBUART_InitNoDataControlTransfer
 1924              	.LVL186:
 1925 022a 54E0     		b	.L106
 1926              	.LVL187:
 1927              	.L133:
 330:Generated_Source\PSoC4/USBUART_std.c ****                         {
 1928              		.loc 1 330 0
 1929 022c 2A4B     		ldr	r3, .L160
 1930 022e 1B69     		ldr	r3, [r3, #16]
 1931 0230 012B     		cmp	r3, #1
 1932 0232 47D8     		bhi	.L151
 332:Generated_Source\PSoC4/USBUART_std.c ****                             requestHandled = USBUART_InitNoDataControlTransfer();
 1933              		.loc 1 332 0
 1934 0234 284B     		ldr	r3, .L160
 1935 0236 9868     		ldr	r0, [r3, #8]
 1936 0238 1A69     		ldr	r2, [r3, #16]
 1937 023a 3749     		ldr	r1, .L160+64
 1938 023c 8B5C     		ldrb	r3, [r1, r2]
 1939 023e 8343     		bics	r3, r0
 1940 0240 8B54     		strb	r3, [r1, r2]
 333:Generated_Source\PSoC4/USBUART_std.c ****                         }
 1941              		.loc 1 333 0
 1942 0242 FFF7FEFF 		bl	USBUART_InitNoDataControlTransfer
 1943              	.LVL188:
 1944 0246 46E0     		b	.L106
 1945              	.LVL189:
 1946              	.L124:
 342:Generated_Source\PSoC4/USBUART_std.c ****                 {
 1947              		.loc 1 342 0
 1948 0248 0322     		movs	r2, #3
 1949 024a 1340     		ands	r3, r2
 1950              	.LVL190:
 1951 024c 012B     		cmp	r3, #1
 1952 024e 17D0     		beq	.L136
 1953 0250 002B     		cmp	r3, #0
 1954 0252 08D0     		beq	.L137
 1955 0254 022B     		cmp	r3, #2
 1956 0256 37D1     		bne	.L159
 345:Generated_Source\PSoC4/USBUART_std.c ****                         {
 1957              		.loc 1 345 0
 1958 0258 1F4B     		ldr	r3, .L160
 1959 025a 9B68     		ldr	r3, [r3, #8]
 1960 025c 002B     		cmp	r3, #0
 1961 025e 35D1     		bne	.L153
 347:Generated_Source\PSoC4/USBUART_std.c ****                         }
 1962              		.loc 1 347 0
 1963 0260 FFF7FEFF 		bl	USBUART_SetEndpointHalt
 1964              	.LVL191:
ARM GAS  C:\Users\TERENC~1\AppData\Local\Temp\ccz498Tm.s 			page 61


 1965 0264 37E0     		b	.L106
 1966              	.LVL192:
 1967              	.L137:
 353:Generated_Source\PSoC4/USBUART_std.c ****                         {
 1968              		.loc 1 353 0
 1969 0266 1C4B     		ldr	r3, .L160
 1970 0268 9B68     		ldr	r3, [r3, #8]
 1971 026a 012B     		cmp	r3, #1
 1972 026c 30D1     		bne	.L154
 355:Generated_Source\PSoC4/USBUART_std.c ****                             requestHandled = USBUART_InitNoDataControlTransfer();
 1973              		.loc 1 355 0
 1974 026e 224A     		ldr	r2, .L160+32
 1975 0270 1178     		ldrb	r1, [r2]
 1976 0272 0223     		movs	r3, #2
 1977 0274 0B43     		orrs	r3, r1
 1978 0276 DBB2     		uxtb	r3, r3
 1979 0278 1370     		strb	r3, [r2]
 356:Generated_Source\PSoC4/USBUART_std.c ****                         }
 1980              		.loc 1 356 0
 1981 027a FFF7FEFF 		bl	USBUART_InitNoDataControlTransfer
 1982              	.LVL193:
 1983 027e 2AE0     		b	.L106
 1984              	.LVL194:
 1985              	.L136:
 362:Generated_Source\PSoC4/USBUART_std.c ****                         {
 1986              		.loc 1 362 0
 1987 0280 154B     		ldr	r3, .L160
 1988 0282 1B69     		ldr	r3, [r3, #16]
 1989 0284 012B     		cmp	r3, #1
 1990 0286 25D8     		bhi	.L155
 364:Generated_Source\PSoC4/USBUART_std.c ****                             requestHandled = USBUART_InitNoDataControlTransfer();
 1991              		.loc 1 364 0
 1992 0288 134B     		ldr	r3, .L160
 1993 028a 9868     		ldr	r0, [r3, #8]
 1994 028c 1A69     		ldr	r2, [r3, #16]
 1995 028e 2249     		ldr	r1, .L160+64
 1996 0290 8B5C     		ldrb	r3, [r1, r2]
 1997 0292 8343     		bics	r3, r0
 1998 0294 8B54     		strb	r3, [r1, r2]
 365:Generated_Source\PSoC4/USBUART_std.c ****                         }
 1999              		.loc 1 365 0
 2000 0296 FFF7FEFF 		bl	USBUART_InitNoDataControlTransfer
 2001              	.LVL195:
 2002 029a 1CE0     		b	.L106
 2003              	.LVL196:
 2004              	.L139:
  86:Generated_Source\PSoC4/USBUART_std.c ****     uint32 interfaceNumber;
 2005              		.loc 1 86 0
 2006 029c 0020     		movs	r0, #0
 2007 029e 1AE0     		b	.L106
 2008              	.LVL197:
 2009              	.L140:
 2010 02a0 0020     		movs	r0, #0
 2011              	.LVL198:
 2012 02a2 18E0     		b	.L106
 2013              	.LVL199:
 2014              	.L143:
ARM GAS  C:\Users\TERENC~1\AppData\Local\Temp\ccz498Tm.s 			page 62


 2015 02a4 0020     		movs	r0, #0
 2016 02a6 16E0     		b	.L106
 2017              	.LVL200:
 2018              	.L157:
 2019 02a8 0020     		movs	r0, #0
 2020 02aa 14E0     		b	.L106
 2021              	.LVL201:
 2022              	.L145:
 2023 02ac 0020     		movs	r0, #0
 2024 02ae 12E0     		b	.L106
 2025              	.LVL202:
 2026              	.L146:
 2027 02b0 0020     		movs	r0, #0
 2028              	.LVL203:
 2029 02b2 10E0     		b	.L106
 2030              	.LVL204:
 2031              	.L147:
 2032 02b4 0020     		movs	r0, #0
 2033 02b6 0EE0     		b	.L106
 2034              	.L158:
 2035 02b8 0020     		movs	r0, #0
 2036 02ba 0CE0     		b	.L106
 2037              	.L149:
 2038 02bc 0020     		movs	r0, #0
 2039 02be 0AE0     		b	.L106
 2040              	.L150:
 2041 02c0 0020     		movs	r0, #0
 2042 02c2 08E0     		b	.L106
 2043              	.L151:
 2044 02c4 0020     		movs	r0, #0
 2045 02c6 06E0     		b	.L106
 2046              	.L159:
 2047 02c8 0020     		movs	r0, #0
 2048 02ca 04E0     		b	.L106
 2049              	.L153:
 2050 02cc 0020     		movs	r0, #0
 2051 02ce 02E0     		b	.L106
 2052              	.L154:
 2053 02d0 0020     		movs	r0, #0
 2054 02d2 00E0     		b	.L106
 2055              	.L155:
 2056 02d4 0020     		movs	r0, #0
 2057              	.LVL205:
 2058              	.L106:
 380:Generated_Source\PSoC4/USBUART_std.c **** 
 2059              		.loc 1 380 0
 2060              		@ sp needed
 2061 02d6 10BD     		pop	{r4, pc}
 2062              	.L161:
 2063              		.align	2
 2064              	.L160:
 2065 02d8 00002C40 		.word	1076625408
 2066 02dc 00000000 		.word	USBUART_currentTD
 2067 02e0 00000000 		.word	USBUART_STRING_DESCRIPTORS
 2068 02e4 00000000 		.word	USBUART_MSOS_DESCRIPTOR
 2069 02e8 00000000 		.word	USBUART_DEVICE0_DESCR
 2070 02ec 00000000 		.word	USBUART_idSerialNumberStringDescriptor
ARM GAS  C:\Users\TERENC~1\AppData\Local\Temp\ccz498Tm.s 			page 63


 2071 02f0 00000000 		.word	USBUART_EP
 2072 02f4 00000000 		.word	.LANCHOR0
 2073 02f8 00000000 		.word	USBUART_deviceStatus
 2074 02fc 00000000 		.word	USBUART_configuration
 2075 0300 00000000 		.word	USBUART_interfaceSetting
 2076 0304 00000000 		.word	.L123
 2077 0308 00000000 		.word	USBUART_deviceAddress
 2078 030c 00000000 		.word	USBUART_configurationChanged
 2079 0310 00000000 		.word	USBUART_interfaceNumber
 2080 0314 00000000 		.word	USBUART_interfaceSettingLast
 2081 0318 00000000 		.word	USBUART_interfaceStatus
 2082              		.cfi_endproc
 2083              	.LFE1:
 2084              		.size	USBUART_HandleStandardRqst, .-USBUART_HandleStandardRqst
 2085              		.section	.rodata.str1.4,"aMS",%progbits,1
 2086              		.align	2
 2087              	.LC0:
 2088 0000 30313233 		.ascii	"0123456789ABCDEF\000"
 2088      34353637 
 2088      38394142 
 2088      43444546 
 2088      00
 2089              		.bss
 2090              		.align	2
 2091              		.set	.LANCHOR0,. + 0
 2092              		.type	USBUART_tBuffer.5262, %object
 2093              		.size	USBUART_tBuffer.5262, 2
 2094              	USBUART_tBuffer.5262:
 2095 0000 0000     		.space	2
 2096              		.text
 2097              	.Letext0:
 2098              		.file 2 "Generated_Source\\PSoC4\\cytypes.h"
 2099              		.file 3 "Generated_Source\\PSoC4\\USBUART.h"
 2100              		.file 4 "Generated_Source\\PSoC4\\USBUART_pvt.h"
 2101              		.file 5 "Generated_Source\\PSoC4\\CyLib.h"