ARM GAS  C:\Users\TERENC~1\AppData\Local\Temp\ccz498Tm.s 			page 1


   1              		.syntax unified
   2              		.cpu cortex-m0
   3              		.fpu softvfp
   4              		.eabi_attribute 20, 1
   5              		.eabi_attribute 21, 1
   6              		.eabi_attribute 23, 3
   7              		.eabi_attribute 24, 1
   8              		.eabi_attribute 25, 1
   9              		.eabi_attribute 26, 1
  10              		.eabi_attribute 30, 1
  11              		.eabi_attribute 34, 0
  12              		.eabi_attribute 18, 4
  13              		.thumb
  14              		.syntax unified
  15              		.file	"USBUART_std.c"
  16              		.text
  17              	.Ltext0:
  18              		.cfi_sections	.debug_frame
  19              		.section	.text.USBUART_ReadDieID,"ax",%progbits
  20              		.align	2
  21              		.global	USBUART_ReadDieID
  22              		.code	16
  23              		.thumb_func
  24              		.type	USBUART_ReadDieID, %function
  25              	USBUART_ReadDieID:
  26              	.LFB2:
  27              		.file 1 "Generated_Source\\PSoC4\\USBUART_std.c"
   1:Generated_Source\PSoC4/USBUART_std.c **** /***************************************************************************//**
   2:Generated_Source\PSoC4/USBUART_std.c **** * \file USBUART_std.c
   3:Generated_Source\PSoC4/USBUART_std.c **** * \version 3.10
   4:Generated_Source\PSoC4/USBUART_std.c **** *
   5:Generated_Source\PSoC4/USBUART_std.c **** * \brief
   6:Generated_Source\PSoC4/USBUART_std.c **** *  This file contains the USB Standard request handler.
   7:Generated_Source\PSoC4/USBUART_std.c **** *
   8:Generated_Source\PSoC4/USBUART_std.c **** ********************************************************************************
   9:Generated_Source\PSoC4/USBUART_std.c **** * \copyright
  10:Generated_Source\PSoC4/USBUART_std.c **** * Copyright 2008-2016, Cypress Semiconductor Corporation.  All rights reserved.
  11:Generated_Source\PSoC4/USBUART_std.c **** * You may use this file only in accordance with the license, terms, conditions,
  12:Generated_Source\PSoC4/USBUART_std.c **** * disclaimers, and limitations in the end user license agreement accompanying
  13:Generated_Source\PSoC4/USBUART_std.c **** * the software package with which this file was provided.
  14:Generated_Source\PSoC4/USBUART_std.c **** *******************************************************************************/
  15:Generated_Source\PSoC4/USBUART_std.c **** 
  16:Generated_Source\PSoC4/USBUART_std.c **** #include "USBUART_pvt.h"
  17:Generated_Source\PSoC4/USBUART_std.c **** 
  18:Generated_Source\PSoC4/USBUART_std.c **** /***************************************
  19:Generated_Source\PSoC4/USBUART_std.c **** *   Static data allocation
  20:Generated_Source\PSoC4/USBUART_std.c **** ***************************************/
  21:Generated_Source\PSoC4/USBUART_std.c **** 
  22:Generated_Source\PSoC4/USBUART_std.c **** #if defined(USBUART_ENABLE_FWSN_STRING)
  23:Generated_Source\PSoC4/USBUART_std.c ****     static volatile uint8* USBUART_fwSerialNumberStringDescriptor;
  24:Generated_Source\PSoC4/USBUART_std.c ****     static volatile uint8  USBUART_snStringConfirm = USBUART_FALSE;
  25:Generated_Source\PSoC4/USBUART_std.c **** #endif  /* (USBUART_ENABLE_FWSN_STRING) */
  26:Generated_Source\PSoC4/USBUART_std.c **** 
  27:Generated_Source\PSoC4/USBUART_std.c **** #if defined(USBUART_ENABLE_FWSN_STRING)
  28:Generated_Source\PSoC4/USBUART_std.c ****     /***************************************************************************
  29:Generated_Source\PSoC4/USBUART_std.c ****     * Function Name: USBUART_SerialNumString
  30:Generated_Source\PSoC4/USBUART_std.c ****     ************************************************************************//**
ARM GAS  C:\Users\TERENC~1\AppData\Local\Temp\ccz498Tm.s 			page 2


  31:Generated_Source\PSoC4/USBUART_std.c ****     *
  32:Generated_Source\PSoC4/USBUART_std.c ****     *  This function is available only when the User Call Back option in the 
  33:Generated_Source\PSoC4/USBUART_std.c ****     *  Serial Number String descriptor properties is selected. Application 
  34:Generated_Source\PSoC4/USBUART_std.c ****     *  firmware can provide the source of the USB device serial number string 
  35:Generated_Source\PSoC4/USBUART_std.c ****     *  descriptor during run time. The default string is used if the application 
  36:Generated_Source\PSoC4/USBUART_std.c ****     *  firmware does not use this function or sets the wrong string descriptor.
  37:Generated_Source\PSoC4/USBUART_std.c ****     *
  38:Generated_Source\PSoC4/USBUART_std.c ****     *  \param snString:  Pointer to the user-defined string descriptor. The 
  39:Generated_Source\PSoC4/USBUART_std.c ****     *  string descriptor should meet the Universal Serial Bus Specification 
  40:Generated_Source\PSoC4/USBUART_std.c ****     *  revision 2.0 chapter 9.6.7
  41:Generated_Source\PSoC4/USBUART_std.c ****     *  Offset|Size|Value|Description
  42:Generated_Source\PSoC4/USBUART_std.c ****     *  ------|----|------|---------------------------------
  43:Generated_Source\PSoC4/USBUART_std.c ****     *  0     |1   |N     |Size of this descriptor in bytes
  44:Generated_Source\PSoC4/USBUART_std.c ****     *  1     |1   |0x03  |STRING Descriptor Type
  45:Generated_Source\PSoC4/USBUART_std.c ****     *  2     |N-2 |Number|UNICODE encoded string
  46:Generated_Source\PSoC4/USBUART_std.c ****     *  
  47:Generated_Source\PSoC4/USBUART_std.c ****     * *For example:* uint8 snString[16]={0x0E,0x03,'F',0,'W',0,'S',0,'N',0,'0',0,'1',0};
  48:Generated_Source\PSoC4/USBUART_std.c ****     *
  49:Generated_Source\PSoC4/USBUART_std.c ****     * \reentrant
  50:Generated_Source\PSoC4/USBUART_std.c ****     *  No.
  51:Generated_Source\PSoC4/USBUART_std.c ****     *
  52:Generated_Source\PSoC4/USBUART_std.c ****     ***************************************************************************/
  53:Generated_Source\PSoC4/USBUART_std.c ****     void  USBUART_SerialNumString(uint8 snString[]) 
  54:Generated_Source\PSoC4/USBUART_std.c ****     {
  55:Generated_Source\PSoC4/USBUART_std.c ****         USBUART_snStringConfirm = USBUART_FALSE;
  56:Generated_Source\PSoC4/USBUART_std.c ****         
  57:Generated_Source\PSoC4/USBUART_std.c ****         if (snString != NULL)
  58:Generated_Source\PSoC4/USBUART_std.c ****         {
  59:Generated_Source\PSoC4/USBUART_std.c ****             /* Check descriptor validation */
  60:Generated_Source\PSoC4/USBUART_std.c ****             if ((snString[0u] > 1u) && (snString[1u] == USBUART_DESCR_STRING))
  61:Generated_Source\PSoC4/USBUART_std.c ****             {
  62:Generated_Source\PSoC4/USBUART_std.c ****                 USBUART_fwSerialNumberStringDescriptor = snString;
  63:Generated_Source\PSoC4/USBUART_std.c ****                 USBUART_snStringConfirm = USBUART_TRUE;
  64:Generated_Source\PSoC4/USBUART_std.c ****             }
  65:Generated_Source\PSoC4/USBUART_std.c ****         }
  66:Generated_Source\PSoC4/USBUART_std.c ****     }
  67:Generated_Source\PSoC4/USBUART_std.c **** #endif  /* USBUART_ENABLE_FWSN_STRING */
  68:Generated_Source\PSoC4/USBUART_std.c **** 
  69:Generated_Source\PSoC4/USBUART_std.c **** 
  70:Generated_Source\PSoC4/USBUART_std.c **** /*******************************************************************************
  71:Generated_Source\PSoC4/USBUART_std.c **** * Function Name: USBUART_HandleStandardRqst
  72:Generated_Source\PSoC4/USBUART_std.c **** ****************************************************************************//**
  73:Generated_Source\PSoC4/USBUART_std.c **** *
  74:Generated_Source\PSoC4/USBUART_std.c **** *  This Routine dispatches standard requests
  75:Generated_Source\PSoC4/USBUART_std.c **** *
  76:Generated_Source\PSoC4/USBUART_std.c **** *
  77:Generated_Source\PSoC4/USBUART_std.c **** * \return
  78:Generated_Source\PSoC4/USBUART_std.c **** *  TRUE if request handled.
  79:Generated_Source\PSoC4/USBUART_std.c **** *
  80:Generated_Source\PSoC4/USBUART_std.c **** * \reentrant
  81:Generated_Source\PSoC4/USBUART_std.c **** *  No.
  82:Generated_Source\PSoC4/USBUART_std.c **** *
  83:Generated_Source\PSoC4/USBUART_std.c **** *******************************************************************************/
  84:Generated_Source\PSoC4/USBUART_std.c **** uint8 USBUART_HandleStandardRqst(void) 
  85:Generated_Source\PSoC4/USBUART_std.c **** {
  86:Generated_Source\PSoC4/USBUART_std.c ****     uint8 requestHandled = USBUART_FALSE;
  87:Generated_Source\PSoC4/USBUART_std.c ****     uint32 interfaceNumber;
ARM GAS  C:\Users\TERENC~1\AppData\Local\Temp\ccz498Tm.s 			page 3


  88:Generated_Source\PSoC4/USBUART_std.c ****     uint32 configurationN;
  89:Generated_Source\PSoC4/USBUART_std.c ****     uint32 bmRequestType = USBUART_bmRequestTypeReg;
  90:Generated_Source\PSoC4/USBUART_std.c **** 
  91:Generated_Source\PSoC4/USBUART_std.c **** #if defined(USBUART_ENABLE_STRINGS)
  92:Generated_Source\PSoC4/USBUART_std.c ****     volatile uint8 *pStr = 0u;
  93:Generated_Source\PSoC4/USBUART_std.c ****     #if defined(USBUART_ENABLE_DESCRIPTOR_STRINGS)
  94:Generated_Source\PSoC4/USBUART_std.c ****         uint8 nStr;
  95:Generated_Source\PSoC4/USBUART_std.c ****         uint8 descrLength;
  96:Generated_Source\PSoC4/USBUART_std.c ****     #endif /* (USBUART_ENABLE_DESCRIPTOR_STRINGS) */
  97:Generated_Source\PSoC4/USBUART_std.c **** #endif /* (USBUART_ENABLE_STRINGS) */
  98:Generated_Source\PSoC4/USBUART_std.c ****     
  99:Generated_Source\PSoC4/USBUART_std.c ****     static volatile uint8 USBUART_tBuffer[USBUART_STATUS_LENGTH_MAX];
 100:Generated_Source\PSoC4/USBUART_std.c ****     const T_USBUART_LUT CYCODE *pTmp;
 101:Generated_Source\PSoC4/USBUART_std.c **** 
 102:Generated_Source\PSoC4/USBUART_std.c ****     USBUART_currentTD.count = 0u;
 103:Generated_Source\PSoC4/USBUART_std.c **** 
 104:Generated_Source\PSoC4/USBUART_std.c ****     if (USBUART_RQST_DIR_D2H == (bmRequestType & USBUART_RQST_DIR_MASK))
 105:Generated_Source\PSoC4/USBUART_std.c ****     {
 106:Generated_Source\PSoC4/USBUART_std.c ****         /* Control Read */
 107:Generated_Source\PSoC4/USBUART_std.c ****         switch (USBUART_bRequestReg)
 108:Generated_Source\PSoC4/USBUART_std.c ****         {
 109:Generated_Source\PSoC4/USBUART_std.c ****             case USBUART_GET_DESCRIPTOR:
 110:Generated_Source\PSoC4/USBUART_std.c ****                 if (USBUART_DESCR_DEVICE ==USBUART_wValueHiReg)
 111:Generated_Source\PSoC4/USBUART_std.c ****                 {
 112:Generated_Source\PSoC4/USBUART_std.c ****                     pTmp = USBUART_GetDeviceTablePtr();
 113:Generated_Source\PSoC4/USBUART_std.c ****                     USBUART_currentTD.pData = (volatile uint8 *)pTmp->p_list;
 114:Generated_Source\PSoC4/USBUART_std.c ****                     USBUART_currentTD.count = USBUART_DEVICE_DESCR_LENGTH;
 115:Generated_Source\PSoC4/USBUART_std.c ****                     
 116:Generated_Source\PSoC4/USBUART_std.c ****                     requestHandled  = USBUART_InitControlRead();
 117:Generated_Source\PSoC4/USBUART_std.c ****                 }
 118:Generated_Source\PSoC4/USBUART_std.c ****                 else if (USBUART_DESCR_CONFIG == USBUART_wValueHiReg)
 119:Generated_Source\PSoC4/USBUART_std.c ****                 {
 120:Generated_Source\PSoC4/USBUART_std.c ****                     pTmp = USBUART_GetConfigTablePtr((uint8) USBUART_wValueLoReg);
 121:Generated_Source\PSoC4/USBUART_std.c ****                     
 122:Generated_Source\PSoC4/USBUART_std.c ****                     /* Verify that requested descriptor exists */
 123:Generated_Source\PSoC4/USBUART_std.c ****                     if (pTmp != NULL)
 124:Generated_Source\PSoC4/USBUART_std.c ****                     {
 125:Generated_Source\PSoC4/USBUART_std.c ****                         USBUART_currentTD.pData = (volatile uint8 *)pTmp->p_list;
 126:Generated_Source\PSoC4/USBUART_std.c ****                         USBUART_currentTD.count = (uint16)((uint16)(USBUART_currentTD.pData)[USBUAR
 127:Generated_Source\PSoC4/USBUART_std.c ****                                                                             (USBUART_currentTD.pDat
 128:Generated_Source\PSoC4/USBUART_std.c ****                         requestHandled  = USBUART_InitControlRead();
 129:Generated_Source\PSoC4/USBUART_std.c ****                     }
 130:Generated_Source\PSoC4/USBUART_std.c ****                 }
 131:Generated_Source\PSoC4/USBUART_std.c ****                 
 132:Generated_Source\PSoC4/USBUART_std.c ****             #if(USBUART_BOS_ENABLE)
 133:Generated_Source\PSoC4/USBUART_std.c ****                 else if (USBUART_DESCR_BOS == USBUART_wValueHiReg)
 134:Generated_Source\PSoC4/USBUART_std.c ****                 {
 135:Generated_Source\PSoC4/USBUART_std.c ****                     pTmp = USBUART_GetBOSPtr();
 136:Generated_Source\PSoC4/USBUART_std.c ****                     
 137:Generated_Source\PSoC4/USBUART_std.c ****                     /* Verify that requested descriptor exists */
 138:Generated_Source\PSoC4/USBUART_std.c ****                     if (pTmp != NULL)
 139:Generated_Source\PSoC4/USBUART_std.c ****                     {
 140:Generated_Source\PSoC4/USBUART_std.c ****                         USBUART_currentTD.pData = (volatile uint8 *)pTmp;
 141:Generated_Source\PSoC4/USBUART_std.c ****                         USBUART_currentTD.count = ((uint16)((uint16)(USBUART_currentTD.pData)[USBUA
 142:Generated_Source\PSoC4/USBUART_std.c ****                                                                              (USBUART_currentTD.pDa
 143:Generated_Source\PSoC4/USBUART_std.c ****                         requestHandled  = USBUART_InitControlRead();
 144:Generated_Source\PSoC4/USBUART_std.c ****                     }
ARM GAS  C:\Users\TERENC~1\AppData\Local\Temp\ccz498Tm.s 			page 4


 145:Generated_Source\PSoC4/USBUART_std.c ****                 }
 146:Generated_Source\PSoC4/USBUART_std.c ****             #endif /*(USBUART_BOS_ENABLE)*/
 147:Generated_Source\PSoC4/USBUART_std.c ****             
 148:Generated_Source\PSoC4/USBUART_std.c ****             #if defined(USBUART_ENABLE_STRINGS)
 149:Generated_Source\PSoC4/USBUART_std.c ****                 else if (USBUART_DESCR_STRING == USBUART_wValueHiReg)
 150:Generated_Source\PSoC4/USBUART_std.c ****                 {
 151:Generated_Source\PSoC4/USBUART_std.c ****                 /* Descriptor Strings */
 152:Generated_Source\PSoC4/USBUART_std.c ****                 #if defined(USBUART_ENABLE_DESCRIPTOR_STRINGS)
 153:Generated_Source\PSoC4/USBUART_std.c ****                     nStr = 0u;
 154:Generated_Source\PSoC4/USBUART_std.c ****                     pStr = (volatile uint8 *) &USBUART_STRING_DESCRIPTORS[0u];
 155:Generated_Source\PSoC4/USBUART_std.c ****                     
 156:Generated_Source\PSoC4/USBUART_std.c ****                     while ((USBUART_wValueLoReg > nStr) && (*pStr != 0u))
 157:Generated_Source\PSoC4/USBUART_std.c ****                     {
 158:Generated_Source\PSoC4/USBUART_std.c ****                         /* Read descriptor length from 1st byte */
 159:Generated_Source\PSoC4/USBUART_std.c ****                         descrLength = *pStr;
 160:Generated_Source\PSoC4/USBUART_std.c ****                         /* Move to next string descriptor */
 161:Generated_Source\PSoC4/USBUART_std.c ****                         pStr = &pStr[descrLength];
 162:Generated_Source\PSoC4/USBUART_std.c ****                         nStr++;
 163:Generated_Source\PSoC4/USBUART_std.c ****                     }
 164:Generated_Source\PSoC4/USBUART_std.c ****                 #endif /* (USBUART_ENABLE_DESCRIPTOR_STRINGS) */
 165:Generated_Source\PSoC4/USBUART_std.c ****                 
 166:Generated_Source\PSoC4/USBUART_std.c ****                 /* Microsoft OS String */
 167:Generated_Source\PSoC4/USBUART_std.c ****                 #if defined(USBUART_ENABLE_MSOS_STRING)
 168:Generated_Source\PSoC4/USBUART_std.c ****                     if (USBUART_STRING_MSOS == USBUART_wValueLoReg)
 169:Generated_Source\PSoC4/USBUART_std.c ****                     {
 170:Generated_Source\PSoC4/USBUART_std.c ****                         pStr = (volatile uint8 *)& USBUART_MSOS_DESCRIPTOR[0u];
 171:Generated_Source\PSoC4/USBUART_std.c ****                     }
 172:Generated_Source\PSoC4/USBUART_std.c ****                 #endif /* (USBUART_ENABLE_MSOS_STRING) */
 173:Generated_Source\PSoC4/USBUART_std.c ****                 
 174:Generated_Source\PSoC4/USBUART_std.c ****                 /* SN string */
 175:Generated_Source\PSoC4/USBUART_std.c ****                 #if defined(USBUART_ENABLE_SN_STRING)
 176:Generated_Source\PSoC4/USBUART_std.c ****                     if ((USBUART_wValueLoReg != 0u) && 
 177:Generated_Source\PSoC4/USBUART_std.c ****                         (USBUART_wValueLoReg == USBUART_DEVICE0_DESCR[USBUART_DEVICE_DESCR_SN_SHIFT
 178:Generated_Source\PSoC4/USBUART_std.c ****                     {
 179:Generated_Source\PSoC4/USBUART_std.c ****                     #if defined(USBUART_ENABLE_IDSN_STRING)
 180:Generated_Source\PSoC4/USBUART_std.c ****                         /* Read DIE ID and generate string descriptor in RAM */
 181:Generated_Source\PSoC4/USBUART_std.c ****                         USBUART_ReadDieID(USBUART_idSerialNumberStringDescriptor);
 182:Generated_Source\PSoC4/USBUART_std.c ****                         pStr = USBUART_idSerialNumberStringDescriptor;
 183:Generated_Source\PSoC4/USBUART_std.c ****                     #elif defined(USBUART_ENABLE_FWSN_STRING)
 184:Generated_Source\PSoC4/USBUART_std.c ****                         
 185:Generated_Source\PSoC4/USBUART_std.c ****                         if(USBUART_snStringConfirm != USBUART_FALSE)
 186:Generated_Source\PSoC4/USBUART_std.c ****                         {
 187:Generated_Source\PSoC4/USBUART_std.c ****                             pStr = USBUART_fwSerialNumberStringDescriptor;
 188:Generated_Source\PSoC4/USBUART_std.c ****                         }
 189:Generated_Source\PSoC4/USBUART_std.c ****                         else
 190:Generated_Source\PSoC4/USBUART_std.c ****                         {
 191:Generated_Source\PSoC4/USBUART_std.c ****                             pStr = (volatile uint8 *)&USBUART_SN_STRING_DESCRIPTOR[0u];
 192:Generated_Source\PSoC4/USBUART_std.c ****                         }
 193:Generated_Source\PSoC4/USBUART_std.c ****                     #else
 194:Generated_Source\PSoC4/USBUART_std.c ****                         pStr = (volatile uint8 *)&USBUART_SN_STRING_DESCRIPTOR[0u];
 195:Generated_Source\PSoC4/USBUART_std.c ****                     #endif  /* (USBUART_ENABLE_IDSN_STRING) */
 196:Generated_Source\PSoC4/USBUART_std.c ****                     }
 197:Generated_Source\PSoC4/USBUART_std.c ****                 #endif /* (USBUART_ENABLE_SN_STRING) */
 198:Generated_Source\PSoC4/USBUART_std.c ****                 
 199:Generated_Source\PSoC4/USBUART_std.c ****                     if (*pStr != 0u)
 200:Generated_Source\PSoC4/USBUART_std.c ****                     {
 201:Generated_Source\PSoC4/USBUART_std.c ****                         USBUART_currentTD.count = *pStr;
ARM GAS  C:\Users\TERENC~1\AppData\Local\Temp\ccz498Tm.s 			page 5


 202:Generated_Source\PSoC4/USBUART_std.c ****                         USBUART_currentTD.pData = pStr;
 203:Generated_Source\PSoC4/USBUART_std.c ****                         requestHandled  = USBUART_InitControlRead();
 204:Generated_Source\PSoC4/USBUART_std.c ****                     }
 205:Generated_Source\PSoC4/USBUART_std.c ****                 }
 206:Generated_Source\PSoC4/USBUART_std.c ****             #endif /*  USBUART_ENABLE_STRINGS */
 207:Generated_Source\PSoC4/USBUART_std.c ****                 else
 208:Generated_Source\PSoC4/USBUART_std.c ****                 {
 209:Generated_Source\PSoC4/USBUART_std.c ****                     requestHandled = USBUART_DispatchClassRqst();
 210:Generated_Source\PSoC4/USBUART_std.c ****                 }
 211:Generated_Source\PSoC4/USBUART_std.c ****                 break;
 212:Generated_Source\PSoC4/USBUART_std.c ****                 
 213:Generated_Source\PSoC4/USBUART_std.c ****             case USBUART_GET_STATUS:
 214:Generated_Source\PSoC4/USBUART_std.c ****                 switch (bmRequestType & USBUART_RQST_RCPT_MASK)
 215:Generated_Source\PSoC4/USBUART_std.c ****                 {
 216:Generated_Source\PSoC4/USBUART_std.c ****                     case USBUART_RQST_RCPT_EP:
 217:Generated_Source\PSoC4/USBUART_std.c ****                         USBUART_currentTD.count = USBUART_EP_STATUS_LENGTH;
 218:Generated_Source\PSoC4/USBUART_std.c ****                         USBUART_tBuffer[0u]     = USBUART_EP[USBUART_wIndexLoReg & USBUART_DIR_UNUS
 219:Generated_Source\PSoC4/USBUART_std.c ****                         USBUART_tBuffer[1u]     = 0u;
 220:Generated_Source\PSoC4/USBUART_std.c ****                         USBUART_currentTD.pData = &USBUART_tBuffer[0u];
 221:Generated_Source\PSoC4/USBUART_std.c ****                         
 222:Generated_Source\PSoC4/USBUART_std.c ****                         requestHandled  = USBUART_InitControlRead();
 223:Generated_Source\PSoC4/USBUART_std.c ****                         break;
 224:Generated_Source\PSoC4/USBUART_std.c ****                     case USBUART_RQST_RCPT_DEV:
 225:Generated_Source\PSoC4/USBUART_std.c ****                         USBUART_currentTD.count = USBUART_DEVICE_STATUS_LENGTH;
 226:Generated_Source\PSoC4/USBUART_std.c ****                         USBUART_tBuffer[0u]     = USBUART_deviceStatus;
 227:Generated_Source\PSoC4/USBUART_std.c ****                         USBUART_tBuffer[1u]     = 0u;
 228:Generated_Source\PSoC4/USBUART_std.c ****                         USBUART_currentTD.pData = &USBUART_tBuffer[0u];
 229:Generated_Source\PSoC4/USBUART_std.c ****                         
 230:Generated_Source\PSoC4/USBUART_std.c ****                         requestHandled  = USBUART_InitControlRead();
 231:Generated_Source\PSoC4/USBUART_std.c ****                         break;
 232:Generated_Source\PSoC4/USBUART_std.c ****                     default:    /* requestHandled is initialized as FALSE by default */
 233:Generated_Source\PSoC4/USBUART_std.c ****                         break;
 234:Generated_Source\PSoC4/USBUART_std.c ****                 }
 235:Generated_Source\PSoC4/USBUART_std.c ****                 break;
 236:Generated_Source\PSoC4/USBUART_std.c ****                 
 237:Generated_Source\PSoC4/USBUART_std.c ****             case USBUART_GET_CONFIGURATION:
 238:Generated_Source\PSoC4/USBUART_std.c ****                 USBUART_currentTD.count = 1u;
 239:Generated_Source\PSoC4/USBUART_std.c ****                 USBUART_currentTD.pData = (volatile uint8 *) &USBUART_configuration;
 240:Generated_Source\PSoC4/USBUART_std.c ****                 requestHandled  = USBUART_InitControlRead();
 241:Generated_Source\PSoC4/USBUART_std.c ****                 break;
 242:Generated_Source\PSoC4/USBUART_std.c ****                 
 243:Generated_Source\PSoC4/USBUART_std.c ****             case USBUART_GET_INTERFACE:
 244:Generated_Source\PSoC4/USBUART_std.c ****                 USBUART_currentTD.count = 1u;
 245:Generated_Source\PSoC4/USBUART_std.c ****                 USBUART_currentTD.pData = (volatile uint8 *) &USBUART_interfaceSetting[USBUART_wInd
 246:Generated_Source\PSoC4/USBUART_std.c ****                 requestHandled  = USBUART_InitControlRead();
 247:Generated_Source\PSoC4/USBUART_std.c ****                 break;
 248:Generated_Source\PSoC4/USBUART_std.c ****                 
 249:Generated_Source\PSoC4/USBUART_std.c ****             default: /* requestHandled is initialized as FALSE by default */
 250:Generated_Source\PSoC4/USBUART_std.c ****                 break;
 251:Generated_Source\PSoC4/USBUART_std.c ****         }
 252:Generated_Source\PSoC4/USBUART_std.c ****     }
 253:Generated_Source\PSoC4/USBUART_std.c ****     else
 254:Generated_Source\PSoC4/USBUART_std.c ****     {
 255:Generated_Source\PSoC4/USBUART_std.c ****         /* Control Write */
 256:Generated_Source\PSoC4/USBUART_std.c ****         switch (USBUART_bRequestReg)
 257:Generated_Source\PSoC4/USBUART_std.c ****         {
 258:Generated_Source\PSoC4/USBUART_std.c ****             case USBUART_SET_ADDRESS:
ARM GAS  C:\Users\TERENC~1\AppData\Local\Temp\ccz498Tm.s 			page 6


 259:Generated_Source\PSoC4/USBUART_std.c ****                 /* Store address to be set in USBUART_NoDataControlStatusStage(). */
 260:Generated_Source\PSoC4/USBUART_std.c ****                 USBUART_deviceAddress = (uint8) USBUART_wValueLoReg;
 261:Generated_Source\PSoC4/USBUART_std.c ****                 requestHandled = USBUART_InitNoDataControlTransfer();
 262:Generated_Source\PSoC4/USBUART_std.c ****                 break;
 263:Generated_Source\PSoC4/USBUART_std.c ****                 
 264:Generated_Source\PSoC4/USBUART_std.c ****             case USBUART_SET_CONFIGURATION:
 265:Generated_Source\PSoC4/USBUART_std.c ****                 configurationN = USBUART_wValueLoReg;
 266:Generated_Source\PSoC4/USBUART_std.c ****                 
 267:Generated_Source\PSoC4/USBUART_std.c ****                 /* Verify that configuration descriptor exists */
 268:Generated_Source\PSoC4/USBUART_std.c ****                 if(configurationN > 0u)
 269:Generated_Source\PSoC4/USBUART_std.c ****                 {
 270:Generated_Source\PSoC4/USBUART_std.c ****                     pTmp = USBUART_GetConfigTablePtr((uint8) configurationN - 1u);
 271:Generated_Source\PSoC4/USBUART_std.c ****                 }
 272:Generated_Source\PSoC4/USBUART_std.c ****                 
 273:Generated_Source\PSoC4/USBUART_std.c ****                 /* Responds with a Request Error when configuration number is invalid */
 274:Generated_Source\PSoC4/USBUART_std.c ****                 if (((configurationN > 0u) && (pTmp != NULL)) || (configurationN == 0u))
 275:Generated_Source\PSoC4/USBUART_std.c ****                 {
 276:Generated_Source\PSoC4/USBUART_std.c ****                     /* Set new configuration if it has been changed */
 277:Generated_Source\PSoC4/USBUART_std.c ****                     if(configurationN != USBUART_configuration)
 278:Generated_Source\PSoC4/USBUART_std.c ****                     {
 279:Generated_Source\PSoC4/USBUART_std.c ****                         USBUART_configuration = (uint8) configurationN;
 280:Generated_Source\PSoC4/USBUART_std.c ****                         USBUART_configurationChanged = USBUART_TRUE;
 281:Generated_Source\PSoC4/USBUART_std.c ****                         USBUART_Config(USBUART_TRUE);
 282:Generated_Source\PSoC4/USBUART_std.c ****                     }
 283:Generated_Source\PSoC4/USBUART_std.c ****                     requestHandled = USBUART_InitNoDataControlTransfer();
 284:Generated_Source\PSoC4/USBUART_std.c ****                 }
 285:Generated_Source\PSoC4/USBUART_std.c ****                 break;
 286:Generated_Source\PSoC4/USBUART_std.c ****                 
 287:Generated_Source\PSoC4/USBUART_std.c ****             case USBUART_SET_INTERFACE:
 288:Generated_Source\PSoC4/USBUART_std.c ****                 if (0u != USBUART_ValidateAlternateSetting())
 289:Generated_Source\PSoC4/USBUART_std.c ****                 {
 290:Generated_Source\PSoC4/USBUART_std.c ****                     /* Get interface number from the request. */
 291:Generated_Source\PSoC4/USBUART_std.c ****                     interfaceNumber = USBUART_wIndexLoReg;
 292:Generated_Source\PSoC4/USBUART_std.c ****                     USBUART_interfaceNumber = (uint8) USBUART_wIndexLoReg;
 293:Generated_Source\PSoC4/USBUART_std.c ****                      
 294:Generated_Source\PSoC4/USBUART_std.c ****                     /* Check if alternate settings is changed for interface. */
 295:Generated_Source\PSoC4/USBUART_std.c ****                     if (USBUART_interfaceSettingLast[interfaceNumber] != USBUART_interfaceSetting[i
 296:Generated_Source\PSoC4/USBUART_std.c ****                     {
 297:Generated_Source\PSoC4/USBUART_std.c ****                         USBUART_configurationChanged = USBUART_TRUE;
 298:Generated_Source\PSoC4/USBUART_std.c ****                     
 299:Generated_Source\PSoC4/USBUART_std.c ****                         /* Change alternate setting for the endpoints. */
 300:Generated_Source\PSoC4/USBUART_std.c ****                     #if (USBUART_EP_MANAGEMENT_MANUAL && USBUART_EP_ALLOC_DYNAMIC)
 301:Generated_Source\PSoC4/USBUART_std.c ****                         USBUART_Config(USBUART_FALSE);
 302:Generated_Source\PSoC4/USBUART_std.c ****                     #else
 303:Generated_Source\PSoC4/USBUART_std.c ****                         USBUART_ConfigAltChanged();
 304:Generated_Source\PSoC4/USBUART_std.c ****                     #endif /* (USBUART_EP_MANAGEMENT_MANUAL && USBUART_EP_ALLOC_DYNAMIC) */
 305:Generated_Source\PSoC4/USBUART_std.c ****                     }
 306:Generated_Source\PSoC4/USBUART_std.c ****                     
 307:Generated_Source\PSoC4/USBUART_std.c ****                     requestHandled = USBUART_InitNoDataControlTransfer();
 308:Generated_Source\PSoC4/USBUART_std.c ****                 }
 309:Generated_Source\PSoC4/USBUART_std.c ****                 break;
 310:Generated_Source\PSoC4/USBUART_std.c ****                 
 311:Generated_Source\PSoC4/USBUART_std.c ****             case USBUART_CLEAR_FEATURE:
 312:Generated_Source\PSoC4/USBUART_std.c ****                 switch (bmRequestType & USBUART_RQST_RCPT_MASK)
 313:Generated_Source\PSoC4/USBUART_std.c ****                 {
 314:Generated_Source\PSoC4/USBUART_std.c ****                     case USBUART_RQST_RCPT_EP:
 315:Generated_Source\PSoC4/USBUART_std.c ****                         if (USBUART_wValueLoReg == USBUART_ENDPOINT_HALT)
ARM GAS  C:\Users\TERENC~1\AppData\Local\Temp\ccz498Tm.s 			page 7


 316:Generated_Source\PSoC4/USBUART_std.c ****                         {
 317:Generated_Source\PSoC4/USBUART_std.c ****                             requestHandled = USBUART_ClearEndpointHalt();
 318:Generated_Source\PSoC4/USBUART_std.c ****                         }
 319:Generated_Source\PSoC4/USBUART_std.c ****                         break;
 320:Generated_Source\PSoC4/USBUART_std.c ****                     case USBUART_RQST_RCPT_DEV:
 321:Generated_Source\PSoC4/USBUART_std.c ****                         /* Clear device REMOTE_WAKEUP */
 322:Generated_Source\PSoC4/USBUART_std.c ****                         if (USBUART_wValueLoReg == USBUART_DEVICE_REMOTE_WAKEUP)
 323:Generated_Source\PSoC4/USBUART_std.c ****                         {
 324:Generated_Source\PSoC4/USBUART_std.c ****                             USBUART_deviceStatus &= (uint8)~USBUART_DEVICE_STATUS_REMOTE_WAKEUP;
 325:Generated_Source\PSoC4/USBUART_std.c ****                             requestHandled = USBUART_InitNoDataControlTransfer();
 326:Generated_Source\PSoC4/USBUART_std.c ****                         }
 327:Generated_Source\PSoC4/USBUART_std.c ****                         break;
 328:Generated_Source\PSoC4/USBUART_std.c ****                     case USBUART_RQST_RCPT_IFC:
 329:Generated_Source\PSoC4/USBUART_std.c ****                         /* Validate interfaceNumber */
 330:Generated_Source\PSoC4/USBUART_std.c ****                         if (USBUART_wIndexLoReg < USBUART_MAX_INTERFACES_NUMBER)
 331:Generated_Source\PSoC4/USBUART_std.c ****                         {
 332:Generated_Source\PSoC4/USBUART_std.c ****                             USBUART_interfaceStatus[USBUART_wIndexLoReg] &= (uint8) ~USBUART_wValue
 333:Generated_Source\PSoC4/USBUART_std.c ****                             requestHandled = USBUART_InitNoDataControlTransfer();
 334:Generated_Source\PSoC4/USBUART_std.c ****                         }
 335:Generated_Source\PSoC4/USBUART_std.c ****                         break;
 336:Generated_Source\PSoC4/USBUART_std.c ****                     default:    /* requestHandled is initialized as FALSE by default */
 337:Generated_Source\PSoC4/USBUART_std.c ****                         break;
 338:Generated_Source\PSoC4/USBUART_std.c ****                 }
 339:Generated_Source\PSoC4/USBUART_std.c ****                 break;
 340:Generated_Source\PSoC4/USBUART_std.c ****                 
 341:Generated_Source\PSoC4/USBUART_std.c ****             case USBUART_SET_FEATURE:
 342:Generated_Source\PSoC4/USBUART_std.c ****                 switch (bmRequestType & USBUART_RQST_RCPT_MASK)
 343:Generated_Source\PSoC4/USBUART_std.c ****                 {
 344:Generated_Source\PSoC4/USBUART_std.c ****                     case USBUART_RQST_RCPT_EP:
 345:Generated_Source\PSoC4/USBUART_std.c ****                         if (USBUART_wValueLoReg == USBUART_ENDPOINT_HALT)
 346:Generated_Source\PSoC4/USBUART_std.c ****                         {
 347:Generated_Source\PSoC4/USBUART_std.c ****                             requestHandled = USBUART_SetEndpointHalt();
 348:Generated_Source\PSoC4/USBUART_std.c ****                         }
 349:Generated_Source\PSoC4/USBUART_std.c ****                         break;
 350:Generated_Source\PSoC4/USBUART_std.c ****                         
 351:Generated_Source\PSoC4/USBUART_std.c ****                     case USBUART_RQST_RCPT_DEV:
 352:Generated_Source\PSoC4/USBUART_std.c ****                         /* Set device REMOTE_WAKEUP */
 353:Generated_Source\PSoC4/USBUART_std.c ****                         if (USBUART_wValueLoReg == USBUART_DEVICE_REMOTE_WAKEUP)
 354:Generated_Source\PSoC4/USBUART_std.c ****                         {
 355:Generated_Source\PSoC4/USBUART_std.c ****                             USBUART_deviceStatus |= USBUART_DEVICE_STATUS_REMOTE_WAKEUP;
 356:Generated_Source\PSoC4/USBUART_std.c ****                             requestHandled = USBUART_InitNoDataControlTransfer();
 357:Generated_Source\PSoC4/USBUART_std.c ****                         }
 358:Generated_Source\PSoC4/USBUART_std.c ****                         break;
 359:Generated_Source\PSoC4/USBUART_std.c ****                         
 360:Generated_Source\PSoC4/USBUART_std.c ****                     case USBUART_RQST_RCPT_IFC:
 361:Generated_Source\PSoC4/USBUART_std.c ****                         /* Validate interfaceNumber */
 362:Generated_Source\PSoC4/USBUART_std.c ****                         if (USBUART_wIndexLoReg < USBUART_MAX_INTERFACES_NUMBER)
 363:Generated_Source\PSoC4/USBUART_std.c ****                         {
 364:Generated_Source\PSoC4/USBUART_std.c ****                             USBUART_interfaceStatus[USBUART_wIndexLoReg] &= (uint8) ~USBUART_wValue
 365:Generated_Source\PSoC4/USBUART_std.c ****                             requestHandled = USBUART_InitNoDataControlTransfer();
 366:Generated_Source\PSoC4/USBUART_std.c ****                         }
 367:Generated_Source\PSoC4/USBUART_std.c ****                         break;
 368:Generated_Source\PSoC4/USBUART_std.c ****                     
 369:Generated_Source\PSoC4/USBUART_std.c ****                     default:    /* requestHandled is initialized as FALSE by default */
 370:Generated_Source\PSoC4/USBUART_std.c ****                         break;
 371:Generated_Source\PSoC4/USBUART_std.c ****                 }
 372:Generated_Source\PSoC4/USBUART_std.c ****                 break;
ARM GAS  C:\Users\TERENC~1\AppData\Local\Temp\ccz498Tm.s 			page 8


 373:Generated_Source\PSoC4/USBUART_std.c ****                 
 374:Generated_Source\PSoC4/USBUART_std.c ****             default:    /* requestHandled is initialized as FALSE by default */
 375:Generated_Source\PSoC4/USBUART_std.c ****                 break;
 376:Generated_Source\PSoC4/USBUART_std.c ****         }
 377:Generated_Source\PSoC4/USBUART_std.c ****     }
 378:Generated_Source\PSoC4/USBUART_std.c ****     
 379:Generated_Source\PSoC4/USBUART_std.c ****     return (requestHandled);
 380:Generated_Source\PSoC4/USBUART_std.c **** }
 381:Generated_Source\PSoC4/USBUART_std.c **** 
 382:Generated_Source\PSoC4/USBUART_std.c **** 
 383:Generated_Source\PSoC4/USBUART_std.c **** #if defined(USBUART_ENABLE_IDSN_STRING)
 384:Generated_Source\PSoC4/USBUART_std.c ****     /***************************************************************************
 385:Generated_Source\PSoC4/USBUART_std.c ****     * Function Name: USBUART_ReadDieID
 386:Generated_Source\PSoC4/USBUART_std.c ****     ************************************************************************//**
 387:Generated_Source\PSoC4/USBUART_std.c ****     *
 388:Generated_Source\PSoC4/USBUART_std.c ****     *  This routine read Die ID and generate Serial Number string descriptor.
 389:Generated_Source\PSoC4/USBUART_std.c ****     *
 390:Generated_Source\PSoC4/USBUART_std.c ****     *  \param descr:  pointer on string descriptor. This string size has to be equal or
 391:Generated_Source\PSoC4/USBUART_std.c ****     *          greater than USBUART_IDSN_DESCR_LENGTH.
 392:Generated_Source\PSoC4/USBUART_std.c ****     *
 393:Generated_Source\PSoC4/USBUART_std.c ****     *
 394:Generated_Source\PSoC4/USBUART_std.c ****     * \reentrant
 395:Generated_Source\PSoC4/USBUART_std.c ****     *  No.
 396:Generated_Source\PSoC4/USBUART_std.c ****     *
 397:Generated_Source\PSoC4/USBUART_std.c ****     ***************************************************************************/
 398:Generated_Source\PSoC4/USBUART_std.c ****     void USBUART_ReadDieID(uint8 descr[]) 
 399:Generated_Source\PSoC4/USBUART_std.c ****     {
  28              		.loc 1 399 0
  29              		.cfi_startproc
  30              		@ args = 0, pretend = 0, frame = 32
  31              		@ frame_needed = 0, uses_anonymous_args = 0
  32              	.LVL0:
  33 0000 F0B5     		push	{r4, r5, r6, r7, lr}
  34              		.cfi_def_cfa_offset 20
  35              		.cfi_offset 4, -20
  36              		.cfi_offset 5, -16
  37              		.cfi_offset 6, -12
  38              		.cfi_offset 7, -8
  39              		.cfi_offset 14, -4
  40 0002 89B0     		sub	sp, sp, #36
  41              		.cfi_def_cfa_offset 56
  42 0004 0400     		movs	r4, r0
 400:Generated_Source\PSoC4/USBUART_std.c ****         const char8 CYCODE hex[] = "0123456789ABCDEF";
  43              		.loc 1 400 0
  44 0006 03AB     		add	r3, sp, #12
  45 0008 154A     		ldr	r2, .L5
  46 000a 23CA     		ldmia	r2!, {r0, r1, r5}
  47 000c 23C3     		stmia	r3!, {r0, r1, r5}
  48              	.LVL1:
  49 000e 1900     		movs	r1, r3
  50 0010 1368     		ldr	r3, [r2]
  51 0012 0B60     		str	r3, [r1]
  52 0014 1379     		ldrb	r3, [r2, #4]
  53 0016 0B71     		strb	r3, [r1, #4]
  54              	.LVL2:
 401:Generated_Source\PSoC4/USBUART_std.c ****         uint32 i;
 402:Generated_Source\PSoC4/USBUART_std.c ****         uint32 j = 0u;
ARM GAS  C:\Users\TERENC~1\AppData\Local\Temp\ccz498Tm.s 			page 9


 403:Generated_Source\PSoC4/USBUART_std.c ****         uint8 uniqueId[8u];
 404:Generated_Source\PSoC4/USBUART_std.c **** 
 405:Generated_Source\PSoC4/USBUART_std.c ****         if (NULL != descr)
  55              		.loc 1 405 0
  56 0018 002C     		cmp	r4, #0
  57 001a 1FD0     		beq	.L1
 406:Generated_Source\PSoC4/USBUART_std.c ****         {
 407:Generated_Source\PSoC4/USBUART_std.c ****             /* Initialize descriptor header. */
 408:Generated_Source\PSoC4/USBUART_std.c ****             descr[0u] = USBUART_IDSN_DESCR_LENGTH;
  58              		.loc 1 408 0
  59 001c 2223     		movs	r3, #34
  60 001e 2370     		strb	r3, [r4]
 409:Generated_Source\PSoC4/USBUART_std.c ****             descr[1u] = USBUART_DESCR_STRING;
  61              		.loc 1 409 0
  62 0020 1F3B     		subs	r3, r3, #31
  63 0022 6370     		strb	r3, [r4, #1]
 410:Generated_Source\PSoC4/USBUART_std.c ****             
 411:Generated_Source\PSoC4/USBUART_std.c ****             /* Unique ID size is 8 bytes. */
 412:Generated_Source\PSoC4/USBUART_std.c ****             CyGetUniqueId((uint32 *) uniqueId);
  64              		.loc 1 412 0
  65 0024 01A8     		add	r0, sp, #4
  66 0026 FFF7FEFF 		bl	CyGetUniqueId
  67              	.LVL3:
 402:Generated_Source\PSoC4/USBUART_std.c ****         uint8 uniqueId[8u];
  68              		.loc 1 402 0
  69 002a 0020     		movs	r0, #0
 413:Generated_Source\PSoC4/USBUART_std.c **** 
 414:Generated_Source\PSoC4/USBUART_std.c ****             /* Fill descriptor with unique device ID. */
 415:Generated_Source\PSoC4/USBUART_std.c ****             for (i = 2u; i < USBUART_IDSN_DESCR_LENGTH; i += 4u)
  70              		.loc 1 415 0
  71 002c 0223     		movs	r3, #2
  72 002e 13E0     		b	.L3
  73              	.LVL4:
  74              	.L4:
 416:Generated_Source\PSoC4/USBUART_std.c ****             {
 417:Generated_Source\PSoC4/USBUART_std.c ****                 descr[i]      = (uint8) hex[(uniqueId[j] >> 4u)];
  75              		.loc 1 417 0 discriminator 3
  76 0030 01AA     		add	r2, sp, #4
  77 0032 125C     		ldrb	r2, [r2, r0]
  78 0034 1109     		lsrs	r1, r2, #4
  79 0036 03AD     		add	r5, sp, #12
  80 0038 695C     		ldrb	r1, [r5, r1]
  81 003a E154     		strb	r1, [r4, r3]
 418:Generated_Source\PSoC4/USBUART_std.c ****                 descr[i + 1u] = 0u;
  82              		.loc 1 418 0 discriminator 3
  83 003c 591C     		adds	r1, r3, #1
  84 003e 6118     		adds	r1, r4, r1
  85 0040 0026     		movs	r6, #0
  86 0042 0E70     		strb	r6, [r1]
 419:Generated_Source\PSoC4/USBUART_std.c ****                 descr[i + 2u] = (uint8) hex[(uniqueId[j] & 0x0Fu)];
  87              		.loc 1 419 0 discriminator 3
  88 0044 991C     		adds	r1, r3, #2
  89 0046 0F27     		movs	r7, #15
  90 0048 3A40     		ands	r2, r7
  91 004a AA5C     		ldrb	r2, [r5, r2]
  92 004c 6254     		strb	r2, [r4, r1]
 420:Generated_Source\PSoC4/USBUART_std.c ****                 descr[i + 3u] = 0u;
ARM GAS  C:\Users\TERENC~1\AppData\Local\Temp\ccz498Tm.s 			page 10


  93              		.loc 1 420 0 discriminator 3
  94 004e DA1C     		adds	r2, r3, #3
  95 0050 A218     		adds	r2, r4, r2
  96 0052 1670     		strb	r6, [r2]
 421:Generated_Source\PSoC4/USBUART_std.c ****                 ++j;
  97              		.loc 1 421 0 discriminator 3
  98 0054 0130     		adds	r0, r0, #1
  99              	.LVL5:
 415:Generated_Source\PSoC4/USBUART_std.c ****             {
 100              		.loc 1 415 0 discriminator 3
 101 0056 0433     		adds	r3, r3, #4
 102              	.LVL6:
 103              	.L3:
 415:Generated_Source\PSoC4/USBUART_std.c ****             {
 104              		.loc 1 415 0 is_stmt 0 discriminator 1
 105 0058 212B     		cmp	r3, #33
 106 005a E9D9     		bls	.L4
 107              	.LVL7:
 108              	.L1:
 422:Generated_Source\PSoC4/USBUART_std.c ****             }
 423:Generated_Source\PSoC4/USBUART_std.c ****         }
 424:Generated_Source\PSoC4/USBUART_std.c ****     }
 109              		.loc 1 424 0 is_stmt 1
 110 005c 09B0     		add	sp, sp, #36
 111              		@ sp needed
 112              	.LVL8:
 113 005e F0BD     		pop	{r4, r5, r6, r7, pc}
 114              	.L6:
 115              		.align	2
 116              	.L5:
 117 0060 00000000 		.word	.LC0
 118              		.cfi_endproc
 119              	.LFE2:
 120              		.size	USBUART_ReadDieID, .-USBUART_ReadDieID
 121              		.section	.text.USBUART_ConfigReg,"ax",%progbits
 122              		.align	2
 123              		.global	USBUART_ConfigReg
 124              		.code	16
 125              		.thumb_func
 126              		.type	USBUART_ConfigReg, %function
 127              	USBUART_ConfigReg:
 128              	.LFB3:
 425:Generated_Source\PSoC4/USBUART_std.c **** #endif /* (USBUART_ENABLE_IDSN_STRING) */
 426:Generated_Source\PSoC4/USBUART_std.c **** 
 427:Generated_Source\PSoC4/USBUART_std.c **** 
 428:Generated_Source\PSoC4/USBUART_std.c **** /*******************************************************************************
 429:Generated_Source\PSoC4/USBUART_std.c **** * Function Name: USBUART_ConfigReg
 430:Generated_Source\PSoC4/USBUART_std.c **** ****************************************************************************//**
 431:Generated_Source\PSoC4/USBUART_std.c **** *
 432:Generated_Source\PSoC4/USBUART_std.c **** *  This routine configures hardware registers from the variables.
 433:Generated_Source\PSoC4/USBUART_std.c **** *  It is called from USBUART_Config() function and from RestoreConfig
 434:Generated_Source\PSoC4/USBUART_std.c **** *  after Wakeup.
 435:Generated_Source\PSoC4/USBUART_std.c **** *
 436:Generated_Source\PSoC4/USBUART_std.c **** *******************************************************************************/
 437:Generated_Source\PSoC4/USBUART_std.c **** void USBUART_ConfigReg(void) 
 438:Generated_Source\PSoC4/USBUART_std.c **** {
 129              		.loc 1 438 0
ARM GAS  C:\Users\TERENC~1\AppData\Local\Temp\ccz498Tm.s 			page 11


 130              		.cfi_startproc
 131              		@ args = 0, pretend = 0, frame = 0
 132              		@ frame_needed = 0, uses_anonymous_args = 0
 133 0000 10B5     		push	{r4, lr}
 134              		.cfi_def_cfa_offset 8
 135              		.cfi_offset 4, -8
 136              		.cfi_offset 14, -4
 137              	.LVL9:
 439:Generated_Source\PSoC4/USBUART_std.c ****     uint32 ep;
 440:Generated_Source\PSoC4/USBUART_std.c **** 
 441:Generated_Source\PSoC4/USBUART_std.c **** #if (USBUART_EP_MANAGEMENT_DMA_AUTO)
 442:Generated_Source\PSoC4/USBUART_std.c ****     uint8 epType = 0u;
 443:Generated_Source\PSoC4/USBUART_std.c **** #endif /* (USBUART_EP_MANAGEMENT_DMA_AUTO) */
 444:Generated_Source\PSoC4/USBUART_std.c **** 
 445:Generated_Source\PSoC4/USBUART_std.c ****     /* Go thought all endpoints and set hardware configuration */
 446:Generated_Source\PSoC4/USBUART_std.c ****     for (ep = USBUART_EP1; ep < USBUART_MAX_EP; ++ep)
 138              		.loc 1 446 0
 139 0002 0123     		movs	r3, #1
 140 0004 38E0     		b	.L8
 141              	.LVL10:
 142              	.L12:
 447:Generated_Source\PSoC4/USBUART_std.c ****     {
 448:Generated_Source\PSoC4/USBUART_std.c ****         USBUART_ARB_EP_BASE.arbEp[ep].epCfg = USBUART_ARB_EPX_CFG_DEFAULT;
 143              		.loc 1 448 0
 144 0006 9A01     		lsls	r2, r3, #6
 145 0008 0C20     		movs	r0, #12
 146 000a 1E49     		ldr	r1, .L13
 147 000c 5050     		str	r0, [r2, r1]
 449:Generated_Source\PSoC4/USBUART_std.c ****         
 450:Generated_Source\PSoC4/USBUART_std.c ****     #if (USBUART_EP_MANAGEMENT_DMA)
 451:Generated_Source\PSoC4/USBUART_std.c ****         /* Enable arbiter endpoint interrupt sources */
 452:Generated_Source\PSoC4/USBUART_std.c ****         USBUART_ARB_EP_BASE.arbEp[ep].epIntEn = USBUART_ARB_EPX_INT_MASK;
 453:Generated_Source\PSoC4/USBUART_std.c ****     #endif /* (USBUART_EP_MANAGEMENT_DMA) */
 454:Generated_Source\PSoC4/USBUART_std.c ****     
 455:Generated_Source\PSoC4/USBUART_std.c ****         if (USBUART_EP[ep].epMode != USBUART_MODE_DISABLE)
 148              		.loc 1 455 0
 149 000e 5900     		lsls	r1, r3, #1
 150 0010 C918     		adds	r1, r1, r3
 151 0012 8A00     		lsls	r2, r1, #2
 152 0014 1C49     		ldr	r1, .L13+4
 153 0016 8A18     		adds	r2, r1, r2
 154 0018 5279     		ldrb	r2, [r2, #5]
 155 001a 002A     		cmp	r2, #0
 156 001c 16D0     		beq	.L9
 456:Generated_Source\PSoC4/USBUART_std.c ****         {
 457:Generated_Source\PSoC4/USBUART_std.c ****             if (0u != (USBUART_EP[ep].addr & USBUART_DIR_IN))
 157              		.loc 1 457 0
 158 001e 5900     		lsls	r1, r3, #1
 159 0020 C918     		adds	r1, r1, r3
 160 0022 8A00     		lsls	r2, r1, #2
 161 0024 1849     		ldr	r1, .L13+4
 162 0026 8A18     		adds	r2, r1, r2
 163 0028 1279     		ldrb	r2, [r2, #4]
 164 002a 52B2     		sxtb	r2, r2
 165 002c 002A     		cmp	r2, #0
 166 002e 06DA     		bge	.L10
 458:Generated_Source\PSoC4/USBUART_std.c ****             {
ARM GAS  C:\Users\TERENC~1\AppData\Local\Temp\ccz498Tm.s 			page 12


 459:Generated_Source\PSoC4/USBUART_std.c ****                 USBUART_SIE_EP_BASE.sieEp[ep].epCr0 = USBUART_MODE_NAK_IN;
 167              		.loc 1 459 0
 168 0030 9A01     		lsls	r2, r3, #6
 169 0032 1649     		ldr	r1, .L13+8
 170 0034 8C46     		mov	ip, r1
 171 0036 6244     		add	r2, r2, ip
 172 0038 0C21     		movs	r1, #12
 173 003a 9160     		str	r1, [r2, #8]
 174 003c 0CE0     		b	.L11
 175              	.L10:
 460:Generated_Source\PSoC4/USBUART_std.c ****                 
 461:Generated_Source\PSoC4/USBUART_std.c ****             #if (USBUART_EP_MANAGEMENT_DMA_AUTO && CY_PSOC4)
 462:Generated_Source\PSoC4/USBUART_std.c ****                 /* Clear DMA_TERMIN for IN endpoint. */
 463:Generated_Source\PSoC4/USBUART_std.c ****                 USBUART_ARB_EP_BASE.arbEp[ep].epIntEn &= (uint32) ~USBUART_ARB_EPX_INT_DMA_TERMIN;
 464:Generated_Source\PSoC4/USBUART_std.c ****             #endif /* (USBUART_EP_MANAGEMENT_DMA_AUTO && CY_PSOC4) */
 465:Generated_Source\PSoC4/USBUART_std.c ****             }
 466:Generated_Source\PSoC4/USBUART_std.c ****             else
 467:Generated_Source\PSoC4/USBUART_std.c ****             {
 468:Generated_Source\PSoC4/USBUART_std.c ****                 USBUART_SIE_EP_BASE.sieEp[ep].epCr0 = USBUART_MODE_NAK_OUT;
 176              		.loc 1 468 0
 177 003e 9A01     		lsls	r2, r3, #6
 178 0040 1249     		ldr	r1, .L13+8
 179 0042 8C46     		mov	ip, r1
 180 0044 6244     		add	r2, r2, ip
 181 0046 0821     		movs	r1, #8
 182 0048 9160     		str	r1, [r2, #8]
 183 004a 05E0     		b	.L11
 184              	.L9:
 469:Generated_Source\PSoC4/USBUART_std.c **** 
 470:Generated_Source\PSoC4/USBUART_std.c ****             #if (USBUART_EP_MANAGEMENT_DMA_AUTO)
 471:Generated_Source\PSoC4/USBUART_std.c ****                 /* (CY_PSOC4): DMA_TERMIN for OUT endpoint is set above. */
 472:Generated_Source\PSoC4/USBUART_std.c ****                 
 473:Generated_Source\PSoC4/USBUART_std.c ****                 /* Prepare endpoint type mask. */
 474:Generated_Source\PSoC4/USBUART_std.c ****                 epType |= (uint8) (0x01u << (ep - USBUART_EP1));
 475:Generated_Source\PSoC4/USBUART_std.c ****             #endif /* (USBUART_EP_MANAGEMENT_DMA_AUTO) */
 476:Generated_Source\PSoC4/USBUART_std.c ****             }
 477:Generated_Source\PSoC4/USBUART_std.c ****         }
 478:Generated_Source\PSoC4/USBUART_std.c ****         else
 479:Generated_Source\PSoC4/USBUART_std.c ****         {
 480:Generated_Source\PSoC4/USBUART_std.c ****             USBUART_SIE_EP_BASE.sieEp[ep].epCr0 = USBUART_MODE_STALL_DATA_EP;
 185              		.loc 1 480 0
 186 004c 9A01     		lsls	r2, r3, #6
 187 004e 0F49     		ldr	r1, .L13+8
 188 0050 8C46     		mov	ip, r1
 189 0052 6244     		add	r2, r2, ip
 190 0054 8021     		movs	r1, #128
 191 0056 9160     		str	r1, [r2, #8]
 192              	.L11:
 481:Generated_Source\PSoC4/USBUART_std.c ****         }
 482:Generated_Source\PSoC4/USBUART_std.c ****         
 483:Generated_Source\PSoC4/USBUART_std.c ****     #if (!USBUART_EP_MANAGEMENT_DMA_AUTO)
 484:Generated_Source\PSoC4/USBUART_std.c ****         #if (CY_PSOC4)
 485:Generated_Source\PSoC4/USBUART_std.c ****             USBUART_ARB_EP16_BASE.arbEp[ep].rwRa16  = (uint32) USBUART_EP[ep].buffOffset;
 193              		.loc 1 485 0 discriminator 2
 194 0058 5900     		lsls	r1, r3, #1
 195 005a C918     		adds	r1, r1, r3
 196 005c 8A00     		lsls	r2, r1, #2
ARM GAS  C:\Users\TERENC~1\AppData\Local\Temp\ccz498Tm.s 			page 13


 197 005e 0A49     		ldr	r1, .L13+4
 198 0060 8A18     		adds	r2, r1, r2
 199 0062 D188     		ldrh	r1, [r2, #6]
 200 0064 89B2     		uxth	r1, r1
 201 0066 9801     		lsls	r0, r3, #6
 202 0068 094C     		ldr	r4, .L13+12
 203 006a 0419     		adds	r4, r0, r4
 204 006c A160     		str	r1, [r4, #8]
 486:Generated_Source\PSoC4/USBUART_std.c ****             USBUART_ARB_EP16_BASE.arbEp[ep].rwWa16  = (uint32) USBUART_EP[ep].buffOffset;
 205              		.loc 1 486 0 discriminator 2
 206 006e D288     		ldrh	r2, [r2, #6]
 207 0070 92B2     		uxth	r2, r2
 208 0072 0749     		ldr	r1, .L13+12
 209 0074 4250     		str	r2, [r0, r1]
 446:Generated_Source\PSoC4/USBUART_std.c ****     {
 210              		.loc 1 446 0 discriminator 2
 211 0076 0133     		adds	r3, r3, #1
 212              	.LVL11:
 213              	.L8:
 446:Generated_Source\PSoC4/USBUART_std.c ****     {
 214              		.loc 1 446 0 is_stmt 0 discriminator 1
 215 0078 082B     		cmp	r3, #8
 216 007a C4D9     		bls	.L12
 487:Generated_Source\PSoC4/USBUART_std.c ****         #else
 488:Generated_Source\PSoC4/USBUART_std.c ****             USBUART_ARB_EP_BASE.arbEp[ep].rwRa    = LO8(USBUART_EP[ep].buffOffset);
 489:Generated_Source\PSoC4/USBUART_std.c ****             USBUART_ARB_EP_BASE.arbEp[ep].rwRaMsb = HI8(USBUART_EP[ep].buffOffset);
 490:Generated_Source\PSoC4/USBUART_std.c ****             USBUART_ARB_EP_BASE.arbEp[ep].rwWa    = LO8(USBUART_EP[ep].buffOffset);
 491:Generated_Source\PSoC4/USBUART_std.c ****             USBUART_ARB_EP_BASE.arbEp[ep].rwWaMsb = HI8(USBUART_EP[ep].buffOffset);
 492:Generated_Source\PSoC4/USBUART_std.c ****         #endif /* (CY_PSOC4) */
 493:Generated_Source\PSoC4/USBUART_std.c ****     #endif /* (!USBUART_EP_MANAGEMENT_DMA_AUTO) */
 494:Generated_Source\PSoC4/USBUART_std.c ****     }
 495:Generated_Source\PSoC4/USBUART_std.c **** 
 496:Generated_Source\PSoC4/USBUART_std.c **** #if (USBUART_EP_MANAGEMENT_DMA_AUTO)
 497:Generated_Source\PSoC4/USBUART_std.c ****      /* BUF_SIZE depend on DMA_THRESS value:0x55-32 bytes  0x44-16 bytes 0x33-8 bytes 0x22-4 bytes 
 498:Generated_Source\PSoC4/USBUART_std.c ****     USBUART_BUF_SIZE_REG = USBUART_DMA_BUF_SIZE;
 499:Generated_Source\PSoC4/USBUART_std.c **** 
 500:Generated_Source\PSoC4/USBUART_std.c ****     /* Configure DMA burst threshold */
 501:Generated_Source\PSoC4/USBUART_std.c **** #if (CY_PSOC4)
 502:Generated_Source\PSoC4/USBUART_std.c ****     USBUART_DMA_THRES16_REG   = USBUART_DMA_BYTES_PER_BURST;
 503:Generated_Source\PSoC4/USBUART_std.c **** #else
 504:Generated_Source\PSoC4/USBUART_std.c ****     USBUART_DMA_THRES_REG     = USBUART_DMA_BYTES_PER_BURST;
 505:Generated_Source\PSoC4/USBUART_std.c ****     USBUART_DMA_THRES_MSB_REG = 0u;
 506:Generated_Source\PSoC4/USBUART_std.c **** #endif /* (CY_PSOC4) */
 507:Generated_Source\PSoC4/USBUART_std.c ****     USBUART_EP_ACTIVE_REG = USBUART_DEFAULT_ARB_INT_EN;
 508:Generated_Source\PSoC4/USBUART_std.c ****     USBUART_EP_TYPE_REG   = epType;
 509:Generated_Source\PSoC4/USBUART_std.c ****     
 510:Generated_Source\PSoC4/USBUART_std.c ****     /* Cfg_cmp bit set to 1 once configuration is complete. */
 511:Generated_Source\PSoC4/USBUART_std.c ****     /* Lock arbiter configtuation */
 512:Generated_Source\PSoC4/USBUART_std.c ****     USBUART_ARB_CFG_REG |= (uint32)  USBUART_ARB_CFG_CFG_CMP;
 513:Generated_Source\PSoC4/USBUART_std.c ****     /* Cfg_cmp bit set to 0 during configuration of PFSUSB Registers. */
 514:Generated_Source\PSoC4/USBUART_std.c ****     USBUART_ARB_CFG_REG &= (uint32) ~USBUART_ARB_CFG_CFG_CMP;
 515:Generated_Source\PSoC4/USBUART_std.c **** 
 516:Generated_Source\PSoC4/USBUART_std.c **** #endif /* (USBUART_EP_MANAGEMENT_DMA_AUTO) */
 517:Generated_Source\PSoC4/USBUART_std.c **** 
 518:Generated_Source\PSoC4/USBUART_std.c ****     /* Enable interrupt SIE interurpt source from EP0-EP1 */
 519:Generated_Source\PSoC4/USBUART_std.c ****     USBUART_SIE_EP_INT_EN_REG = (uint32) USBUART_DEFAULT_SIE_EP_INT_EN;
 217              		.loc 1 519 0 is_stmt 1
ARM GAS  C:\Users\TERENC~1\AppData\Local\Temp\ccz498Tm.s 			page 14


 218 007c FF22     		movs	r2, #255
 219 007e 054B     		ldr	r3, .L13+16
 220              	.LVL12:
 221 0080 1A60     		str	r2, [r3]
 520:Generated_Source\PSoC4/USBUART_std.c **** }
 222              		.loc 1 520 0
 223              		@ sp needed
 224 0082 10BD     		pop	{r4, pc}
 225              	.L14:
 226              		.align	2
 227              	.L13:
 228 0084 C0012C40 		.word	1076625856
 229 0088 00000000 		.word	USBUART_EP
 230 008c F0FF2B40 		.word	1076625392
 231 0090 D0112C40 		.word	1076629968
 232 0094 28002C40 		.word	1076625448
 233              		.cfi_endproc
 234              	.LFE3:
 235              		.size	USBUART_ConfigReg, .-USBUART_ConfigReg
 236              		.section	.text.USBUART_EpStateInit,"ax",%progbits
 237              		.align	2
 238              		.global	USBUART_EpStateInit
 239              		.code	16
 240              		.thumb_func
 241              		.type	USBUART_EpStateInit, %function
 242              	USBUART_EpStateInit:
 243              	.LFB4:
 521:Generated_Source\PSoC4/USBUART_std.c **** 
 522:Generated_Source\PSoC4/USBUART_std.c **** 
 523:Generated_Source\PSoC4/USBUART_std.c **** /*******************************************************************************
 524:Generated_Source\PSoC4/USBUART_std.c **** * Function Name: USBUART_EpStateInit
 525:Generated_Source\PSoC4/USBUART_std.c **** ****************************************************************************//**
 526:Generated_Source\PSoC4/USBUART_std.c **** *
 527:Generated_Source\PSoC4/USBUART_std.c **** *  This routine initialize state of Data end points based of its type: 
 528:Generated_Source\PSoC4/USBUART_std.c **** *   IN  - USBUART_IN_BUFFER_EMPTY (USBUART_EVENT_PENDING)
 529:Generated_Source\PSoC4/USBUART_std.c **** *   OUT - USBUART_OUT_BUFFER_EMPTY (USBUART_NO_EVENT_PENDING)
 530:Generated_Source\PSoC4/USBUART_std.c **** *
 531:Generated_Source\PSoC4/USBUART_std.c **** *******************************************************************************/
 532:Generated_Source\PSoC4/USBUART_std.c **** void USBUART_EpStateInit(void) 
 533:Generated_Source\PSoC4/USBUART_std.c **** {
 244              		.loc 1 533 0
 245              		.cfi_startproc
 246              		@ args = 0, pretend = 0, frame = 0
 247              		@ frame_needed = 0, uses_anonymous_args = 0
 248              		@ link register save eliminated.
 249              	.LVL13:
 534:Generated_Source\PSoC4/USBUART_std.c ****     uint8 i;
 535:Generated_Source\PSoC4/USBUART_std.c **** 
 536:Generated_Source\PSoC4/USBUART_std.c ****     for (i = USBUART_EP1; i < USBUART_MAX_EP; i++)
 250              		.loc 1 536 0
 251 0000 0123     		movs	r3, #1
 252 0002 19E0     		b	.L16
 253              	.LVL14:
 254              	.L19:
 537:Generated_Source\PSoC4/USBUART_std.c ****     { 
 538:Generated_Source\PSoC4/USBUART_std.c ****         if (0u != (USBUART_EP[i].addr & USBUART_DIR_IN))
 255              		.loc 1 538 0
ARM GAS  C:\Users\TERENC~1\AppData\Local\Temp\ccz498Tm.s 			page 15


 256 0004 5900     		lsls	r1, r3, #1
 257 0006 C918     		adds	r1, r1, r3
 258 0008 8A00     		lsls	r2, r1, #2
 259 000a 0D49     		ldr	r1, .L20
 260 000c 8A18     		adds	r2, r1, r2
 261 000e 1279     		ldrb	r2, [r2, #4]
 262 0010 52B2     		sxtb	r2, r2
 263 0012 002A     		cmp	r2, #0
 264 0014 07DA     		bge	.L17
 539:Generated_Source\PSoC4/USBUART_std.c ****         {
 540:Generated_Source\PSoC4/USBUART_std.c ****             /* IN Endpoint */
 541:Generated_Source\PSoC4/USBUART_std.c ****             USBUART_EP[i].apiEpState = USBUART_EVENT_PENDING;
 265              		.loc 1 541 0
 266 0016 5900     		lsls	r1, r3, #1
 267 0018 C918     		adds	r1, r1, r3
 268 001a 8A00     		lsls	r2, r1, #2
 269 001c 0849     		ldr	r1, .L20
 270 001e 8A18     		adds	r2, r1, r2
 271 0020 0121     		movs	r1, #1
 272 0022 5170     		strb	r1, [r2, #1]
 273 0024 06E0     		b	.L18
 274              	.L17:
 542:Generated_Source\PSoC4/USBUART_std.c ****         }
 543:Generated_Source\PSoC4/USBUART_std.c ****         else
 544:Generated_Source\PSoC4/USBUART_std.c ****         {
 545:Generated_Source\PSoC4/USBUART_std.c ****             /* OUT Endpoint */
 546:Generated_Source\PSoC4/USBUART_std.c ****             USBUART_EP[i].apiEpState = USBUART_NO_EVENT_PENDING;
 275              		.loc 1 546 0
 276 0026 5900     		lsls	r1, r3, #1
 277 0028 C918     		adds	r1, r1, r3
 278 002a 8A00     		lsls	r2, r1, #2
 279 002c 0449     		ldr	r1, .L20
 280 002e 8A18     		adds	r2, r1, r2
 281 0030 0021     		movs	r1, #0
 282 0032 5170     		strb	r1, [r2, #1]
 283              	.L18:
 536:Generated_Source\PSoC4/USBUART_std.c ****     { 
 284              		.loc 1 536 0 discriminator 2
 285 0034 0133     		adds	r3, r3, #1
 286              	.LVL15:
 287 0036 DBB2     		uxtb	r3, r3
 288              	.LVL16:
 289              	.L16:
 536:Generated_Source\PSoC4/USBUART_std.c ****     { 
 290              		.loc 1 536 0 is_stmt 0 discriminator 1
 291 0038 082B     		cmp	r3, #8
 292 003a E3D9     		bls	.L19
 547:Generated_Source\PSoC4/USBUART_std.c ****         }
 548:Generated_Source\PSoC4/USBUART_std.c ****     }
 549:Generated_Source\PSoC4/USBUART_std.c ****                     
 550:Generated_Source\PSoC4/USBUART_std.c **** }
 293              		.loc 1 550 0 is_stmt 1
 294              		@ sp needed
 295 003c 7047     		bx	lr
 296              	.L21:
 297 003e C046     		.align	2
 298              	.L20:
ARM GAS  C:\Users\TERENC~1\AppData\Local\Temp\ccz498Tm.s 			page 16


 299 0040 00000000 		.word	USBUART_EP
 300              		.cfi_endproc
 301              	.LFE4:
 302              		.size	USBUART_EpStateInit, .-USBUART_EpStateInit
 303              		.section	.text.USBUART_GetConfigTablePtr,"ax",%progbits
 304              		.align	2
 305              		.global	USBUART_GetConfigTablePtr
 306              		.code	16
 307              		.thumb_func
 308              		.type	USBUART_GetConfigTablePtr, %function
 309              	USBUART_GetConfigTablePtr:
 310              	.LFB7:
 551:Generated_Source\PSoC4/USBUART_std.c **** 
 552:Generated_Source\PSoC4/USBUART_std.c **** 
 553:Generated_Source\PSoC4/USBUART_std.c **** /*******************************************************************************
 554:Generated_Source\PSoC4/USBUART_std.c **** * Function Name: USBUART_Config
 555:Generated_Source\PSoC4/USBUART_std.c **** ****************************************************************************//**
 556:Generated_Source\PSoC4/USBUART_std.c **** *
 557:Generated_Source\PSoC4/USBUART_std.c **** *  This routine configures endpoints for the entire configuration by scanning
 558:Generated_Source\PSoC4/USBUART_std.c **** *  the configuration descriptor.
 559:Generated_Source\PSoC4/USBUART_std.c **** *
 560:Generated_Source\PSoC4/USBUART_std.c **** *  \param clearAltSetting: It configures the bAlternateSetting 0 for each interface.
 561:Generated_Source\PSoC4/USBUART_std.c **** *
 562:Generated_Source\PSoC4/USBUART_std.c **** * USBUART_interfaceClass - Initialized class array for each interface.
 563:Generated_Source\PSoC4/USBUART_std.c **** *   It is used for handling Class specific requests depend on interface class.
 564:Generated_Source\PSoC4/USBUART_std.c **** *   Different classes in multiple Alternate settings does not supported.
 565:Generated_Source\PSoC4/USBUART_std.c **** *
 566:Generated_Source\PSoC4/USBUART_std.c **** * \reentrant
 567:Generated_Source\PSoC4/USBUART_std.c **** *  No.
 568:Generated_Source\PSoC4/USBUART_std.c **** *
 569:Generated_Source\PSoC4/USBUART_std.c **** *******************************************************************************/
 570:Generated_Source\PSoC4/USBUART_std.c **** void USBUART_Config(uint8 clearAltSetting) 
 571:Generated_Source\PSoC4/USBUART_std.c **** {
 572:Generated_Source\PSoC4/USBUART_std.c ****     uint8 ep;
 573:Generated_Source\PSoC4/USBUART_std.c ****     uint8 curEp;
 574:Generated_Source\PSoC4/USBUART_std.c ****     uint8 i;
 575:Generated_Source\PSoC4/USBUART_std.c ****     uint8 epType;
 576:Generated_Source\PSoC4/USBUART_std.c ****     const uint8 *pDescr;
 577:Generated_Source\PSoC4/USBUART_std.c ****     
 578:Generated_Source\PSoC4/USBUART_std.c ****     #if (!USBUART_EP_MANAGEMENT_DMA_AUTO)
 579:Generated_Source\PSoC4/USBUART_std.c ****         uint16 buffCount = 0u;
 580:Generated_Source\PSoC4/USBUART_std.c ****     #endif /* (!USBUART_EP_MANAGEMENT_DMA_AUTO) */
 581:Generated_Source\PSoC4/USBUART_std.c **** 
 582:Generated_Source\PSoC4/USBUART_std.c ****     const T_USBUART_LUT CYCODE *pTmp;
 583:Generated_Source\PSoC4/USBUART_std.c ****     const T_USBUART_EP_SETTINGS_BLOCK CYCODE *pEP;
 584:Generated_Source\PSoC4/USBUART_std.c **** 
 585:Generated_Source\PSoC4/USBUART_std.c ****     /* Clear endpoints settings */
 586:Generated_Source\PSoC4/USBUART_std.c ****     for (ep = 0u; ep < USBUART_MAX_EP; ++ep)
 587:Generated_Source\PSoC4/USBUART_std.c ****     {
 588:Generated_Source\PSoC4/USBUART_std.c ****         USBUART_EP[ep].attrib     = 0u;
 589:Generated_Source\PSoC4/USBUART_std.c ****         USBUART_EP[ep].hwEpState  = 0u;
 590:Generated_Source\PSoC4/USBUART_std.c ****         USBUART_EP[ep].epToggle   = 0u;
 591:Generated_Source\PSoC4/USBUART_std.c ****         USBUART_EP[ep].bufferSize = 0u;
 592:Generated_Source\PSoC4/USBUART_std.c ****         USBUART_EP[ep].interface  = 0u;
 593:Generated_Source\PSoC4/USBUART_std.c ****         USBUART_EP[ep].apiEpState = USBUART_NO_EVENT_PENDING;
 594:Generated_Source\PSoC4/USBUART_std.c ****         USBUART_EP[ep].epMode     = USBUART_MODE_DISABLE;   
 595:Generated_Source\PSoC4/USBUART_std.c ****     }
ARM GAS  C:\Users\TERENC~1\AppData\Local\Temp\ccz498Tm.s 			page 17


 596:Generated_Source\PSoC4/USBUART_std.c **** 
 597:Generated_Source\PSoC4/USBUART_std.c ****     /* Clear Alternate settings for all interfaces. */
 598:Generated_Source\PSoC4/USBUART_std.c ****     if (0u != clearAltSetting)
 599:Generated_Source\PSoC4/USBUART_std.c ****     {
 600:Generated_Source\PSoC4/USBUART_std.c ****         for (i = 0u; i < USBUART_MAX_INTERFACES_NUMBER; ++i)
 601:Generated_Source\PSoC4/USBUART_std.c ****         {
 602:Generated_Source\PSoC4/USBUART_std.c ****             USBUART_interfaceSetting[i]     = 0u;
 603:Generated_Source\PSoC4/USBUART_std.c ****             USBUART_interfaceSettingLast[i] = 0u;
 604:Generated_Source\PSoC4/USBUART_std.c ****         }
 605:Generated_Source\PSoC4/USBUART_std.c ****     }
 606:Generated_Source\PSoC4/USBUART_std.c **** 
 607:Generated_Source\PSoC4/USBUART_std.c ****     /* Init Endpoints and Device Status if configured */
 608:Generated_Source\PSoC4/USBUART_std.c ****     if (USBUART_configuration > 0u)
 609:Generated_Source\PSoC4/USBUART_std.c ****     {
 610:Generated_Source\PSoC4/USBUART_std.c ****         #if defined(USBUART_ENABLE_CDC_CLASS)
 611:Generated_Source\PSoC4/USBUART_std.c ****             uint8 cdcComNums = 0u;
 612:Generated_Source\PSoC4/USBUART_std.c ****         #endif  /* (USBUART_ENABLE_CDC_CLASS) */  
 613:Generated_Source\PSoC4/USBUART_std.c **** 
 614:Generated_Source\PSoC4/USBUART_std.c ****         pTmp = USBUART_GetConfigTablePtr(USBUART_configuration - 1u);
 615:Generated_Source\PSoC4/USBUART_std.c ****         
 616:Generated_Source\PSoC4/USBUART_std.c ****         /* Set Power status for current configuration */
 617:Generated_Source\PSoC4/USBUART_std.c ****         pDescr = (const uint8 *)pTmp->p_list;
 618:Generated_Source\PSoC4/USBUART_std.c ****         if ((pDescr[USBUART_CONFIG_DESCR_ATTRIB] & USBUART_CONFIG_DESCR_ATTRIB_SELF_POWERED) != 0u)
 619:Generated_Source\PSoC4/USBUART_std.c ****         {
 620:Generated_Source\PSoC4/USBUART_std.c ****             USBUART_deviceStatus |= (uint8)  USBUART_DEVICE_STATUS_SELF_POWERED;
 621:Generated_Source\PSoC4/USBUART_std.c ****         }
 622:Generated_Source\PSoC4/USBUART_std.c ****         else
 623:Generated_Source\PSoC4/USBUART_std.c ****         {
 624:Generated_Source\PSoC4/USBUART_std.c ****             USBUART_deviceStatus &= (uint8) ~USBUART_DEVICE_STATUS_SELF_POWERED;
 625:Generated_Source\PSoC4/USBUART_std.c ****         }
 626:Generated_Source\PSoC4/USBUART_std.c ****         
 627:Generated_Source\PSoC4/USBUART_std.c ****         /* Move to next element */
 628:Generated_Source\PSoC4/USBUART_std.c ****         pTmp = &pTmp[1u];
 629:Generated_Source\PSoC4/USBUART_std.c ****         ep = pTmp->c;  /* For this table, c is the number of endpoints configurations  */
 630:Generated_Source\PSoC4/USBUART_std.c **** 
 631:Generated_Source\PSoC4/USBUART_std.c ****         #if (USBUART_EP_MANAGEMENT_MANUAL && USBUART_EP_ALLOC_DYNAMIC)
 632:Generated_Source\PSoC4/USBUART_std.c ****             /* Configure for dynamic EP memory allocation */
 633:Generated_Source\PSoC4/USBUART_std.c ****             /* p_list points the endpoint setting table. */
 634:Generated_Source\PSoC4/USBUART_std.c ****             pEP = (T_USBUART_EP_SETTINGS_BLOCK *) pTmp->p_list;
 635:Generated_Source\PSoC4/USBUART_std.c ****             
 636:Generated_Source\PSoC4/USBUART_std.c ****             for (i = 0u; i < ep; i++)
 637:Generated_Source\PSoC4/USBUART_std.c ****             {     
 638:Generated_Source\PSoC4/USBUART_std.c ****                 /* Compare current Alternate setting with EP Alt */
 639:Generated_Source\PSoC4/USBUART_std.c ****                 if (USBUART_interfaceSetting[pEP->interface] == pEP->altSetting)
 640:Generated_Source\PSoC4/USBUART_std.c ****                 {                                                          
 641:Generated_Source\PSoC4/USBUART_std.c ****                     curEp  = pEP->addr & USBUART_DIR_UNUSED;
 642:Generated_Source\PSoC4/USBUART_std.c ****                     epType = pEP->attributes & USBUART_EP_TYPE_MASK;
 643:Generated_Source\PSoC4/USBUART_std.c ****                     
 644:Generated_Source\PSoC4/USBUART_std.c ****                     USBUART_EP[curEp].addr       = pEP->addr;
 645:Generated_Source\PSoC4/USBUART_std.c ****                     USBUART_EP[curEp].attrib     = pEP->attributes;
 646:Generated_Source\PSoC4/USBUART_std.c ****                     USBUART_EP[curEp].bufferSize = pEP->bufferSize;
 647:Generated_Source\PSoC4/USBUART_std.c **** 
 648:Generated_Source\PSoC4/USBUART_std.c ****                     if (0u != (pEP->addr & USBUART_DIR_IN))
 649:Generated_Source\PSoC4/USBUART_std.c ****                     {
 650:Generated_Source\PSoC4/USBUART_std.c ****                         /* IN Endpoint */
 651:Generated_Source\PSoC4/USBUART_std.c ****                         USBUART_EP[curEp].epMode     = USBUART_GET_ACTIVE_IN_EP_CR0_MODE(epType);
 652:Generated_Source\PSoC4/USBUART_std.c ****                         USBUART_EP[curEp].apiEpState = USBUART_EVENT_PENDING;
ARM GAS  C:\Users\TERENC~1\AppData\Local\Temp\ccz498Tm.s 			page 18


 653:Generated_Source\PSoC4/USBUART_std.c ****                     
 654:Generated_Source\PSoC4/USBUART_std.c ****                     #if (defined(USBUART_ENABLE_MIDI_STREAMING) && (USBUART_MIDI_IN_BUFF_SIZE > 0))
 655:Generated_Source\PSoC4/USBUART_std.c ****                         if ((pEP->bMisc == USBUART_CLASS_AUDIO) && (epType == USBUART_EP_TYPE_BULK)
 656:Generated_Source\PSoC4/USBUART_std.c ****                         {
 657:Generated_Source\PSoC4/USBUART_std.c ****                             USBUART_midi_in_ep = curEp;
 658:Generated_Source\PSoC4/USBUART_std.c ****                         }
 659:Generated_Source\PSoC4/USBUART_std.c ****                     #endif  /* (USBUART_ENABLE_MIDI_STREAMING) */
 660:Generated_Source\PSoC4/USBUART_std.c ****                     }
 661:Generated_Source\PSoC4/USBUART_std.c ****                     else
 662:Generated_Source\PSoC4/USBUART_std.c ****                     {
 663:Generated_Source\PSoC4/USBUART_std.c ****                         /* OUT Endpoint */
 664:Generated_Source\PSoC4/USBUART_std.c ****                         USBUART_EP[curEp].epMode     = USBUART_GET_ACTIVE_OUT_EP_CR0_MODE(epType);
 665:Generated_Source\PSoC4/USBUART_std.c ****                         USBUART_EP[curEp].apiEpState = USBUART_NO_EVENT_PENDING;
 666:Generated_Source\PSoC4/USBUART_std.c ****                         
 667:Generated_Source\PSoC4/USBUART_std.c ****                     #if (defined(USBUART_ENABLE_MIDI_STREAMING) && (USBUART_MIDI_OUT_BUFF_SIZE > 0)
 668:Generated_Source\PSoC4/USBUART_std.c ****                         if ((pEP->bMisc == USBUART_CLASS_AUDIO) && (epType == USBUART_EP_TYPE_BULK)
 669:Generated_Source\PSoC4/USBUART_std.c ****                         {
 670:Generated_Source\PSoC4/USBUART_std.c ****                             USBUART_midi_out_ep = curEp;
 671:Generated_Source\PSoC4/USBUART_std.c ****                         }
 672:Generated_Source\PSoC4/USBUART_std.c ****                     #endif  /* (USBUART_ENABLE_MIDI_STREAMING) */
 673:Generated_Source\PSoC4/USBUART_std.c ****                     }
 674:Generated_Source\PSoC4/USBUART_std.c **** 
 675:Generated_Source\PSoC4/USBUART_std.c ****                 #if(defined (USBUART_ENABLE_CDC_CLASS))
 676:Generated_Source\PSoC4/USBUART_std.c ****                     if((pEP->bMisc == USBUART_CLASS_CDC_DATA) ||(pEP->bMisc == USBUART_CLASS_CDC))
 677:Generated_Source\PSoC4/USBUART_std.c ****                     {
 678:Generated_Source\PSoC4/USBUART_std.c ****                         cdcComNums = USBUART_Cdc_EpInit(pEP, curEp, cdcComNums);
 679:Generated_Source\PSoC4/USBUART_std.c ****                     }
 680:Generated_Source\PSoC4/USBUART_std.c ****                 #endif  /* (USBUART_ENABLE_CDC_CLASS) */
 681:Generated_Source\PSoC4/USBUART_std.c ****                 }
 682:Generated_Source\PSoC4/USBUART_std.c ****                 
 683:Generated_Source\PSoC4/USBUART_std.c ****                 pEP = &pEP[1u];
 684:Generated_Source\PSoC4/USBUART_std.c ****             }
 685:Generated_Source\PSoC4/USBUART_std.c ****             
 686:Generated_Source\PSoC4/USBUART_std.c ****         #else
 687:Generated_Source\PSoC4/USBUART_std.c ****             for (i = USBUART_EP1; i < USBUART_MAX_EP; ++i)
 688:Generated_Source\PSoC4/USBUART_std.c ****             {
 689:Generated_Source\PSoC4/USBUART_std.c ****                 /* p_list points the endpoint setting table. */
 690:Generated_Source\PSoC4/USBUART_std.c ****                 pEP = (const T_USBUART_EP_SETTINGS_BLOCK CYCODE *) pTmp->p_list;
 691:Generated_Source\PSoC4/USBUART_std.c ****                 /* Find max length for each EP and select it (length could be different in differen
 692:Generated_Source\PSoC4/USBUART_std.c ****                 /* but other settings should be correct with regards to Interface alt Setting */
 693:Generated_Source\PSoC4/USBUART_std.c ****                 
 694:Generated_Source\PSoC4/USBUART_std.c ****                 for (curEp = 0u; curEp < ep; ++curEp)
 695:Generated_Source\PSoC4/USBUART_std.c ****                 {
 696:Generated_Source\PSoC4/USBUART_std.c ****                     if (i == (pEP->addr & USBUART_DIR_UNUSED))
 697:Generated_Source\PSoC4/USBUART_std.c ****                     {
 698:Generated_Source\PSoC4/USBUART_std.c ****                         /* Compare endpoint buffers size with current size to find greater. */
 699:Generated_Source\PSoC4/USBUART_std.c ****                         if (USBUART_EP[i].bufferSize < pEP->bufferSize)
 700:Generated_Source\PSoC4/USBUART_std.c ****                         {
 701:Generated_Source\PSoC4/USBUART_std.c ****                             USBUART_EP[i].bufferSize = pEP->bufferSize;
 702:Generated_Source\PSoC4/USBUART_std.c ****                         }
 703:Generated_Source\PSoC4/USBUART_std.c ****                         
 704:Generated_Source\PSoC4/USBUART_std.c ****                         /* Compare current Alternate setting with EP Alt */
 705:Generated_Source\PSoC4/USBUART_std.c ****                         if (USBUART_interfaceSetting[pEP->interface] == pEP->altSetting)
 706:Generated_Source\PSoC4/USBUART_std.c ****                         {                            
 707:Generated_Source\PSoC4/USBUART_std.c ****                             USBUART_EP[i].addr = pEP->addr;
 708:Generated_Source\PSoC4/USBUART_std.c ****                             USBUART_EP[i].attrib = pEP->attributes;
 709:Generated_Source\PSoC4/USBUART_std.c ****                             
ARM GAS  C:\Users\TERENC~1\AppData\Local\Temp\ccz498Tm.s 			page 19


 710:Generated_Source\PSoC4/USBUART_std.c ****                             epType = pEP->attributes & USBUART_EP_TYPE_MASK;
 711:Generated_Source\PSoC4/USBUART_std.c ****                             
 712:Generated_Source\PSoC4/USBUART_std.c ****                             if (0u != (pEP->addr & USBUART_DIR_IN))
 713:Generated_Source\PSoC4/USBUART_std.c ****                             {
 714:Generated_Source\PSoC4/USBUART_std.c ****                                 /* IN Endpoint */
 715:Generated_Source\PSoC4/USBUART_std.c ****                                 USBUART_EP[i].epMode     = USBUART_GET_ACTIVE_IN_EP_CR0_MODE(epType
 716:Generated_Source\PSoC4/USBUART_std.c ****                                 USBUART_EP[i].apiEpState = USBUART_EVENT_PENDING;
 717:Generated_Source\PSoC4/USBUART_std.c ****                                 
 718:Generated_Source\PSoC4/USBUART_std.c ****                             #if (defined(USBUART_ENABLE_MIDI_STREAMING) && (USBUART_MIDI_IN_BUFF_SI
 719:Generated_Source\PSoC4/USBUART_std.c ****                                 if ((pEP->bMisc == USBUART_CLASS_AUDIO) && (epType == USBUART_EP_TY
 720:Generated_Source\PSoC4/USBUART_std.c ****                                 {
 721:Generated_Source\PSoC4/USBUART_std.c ****                                     USBUART_midi_in_ep = i;
 722:Generated_Source\PSoC4/USBUART_std.c ****                                 }
 723:Generated_Source\PSoC4/USBUART_std.c ****                             #endif  /* (USBUART_ENABLE_MIDI_STREAMING) */
 724:Generated_Source\PSoC4/USBUART_std.c ****                             }
 725:Generated_Source\PSoC4/USBUART_std.c ****                             else
 726:Generated_Source\PSoC4/USBUART_std.c ****                             {
 727:Generated_Source\PSoC4/USBUART_std.c ****                                 /* OUT Endpoint */
 728:Generated_Source\PSoC4/USBUART_std.c ****                                 USBUART_EP[i].epMode     = USBUART_GET_ACTIVE_OUT_EP_CR0_MODE(epTyp
 729:Generated_Source\PSoC4/USBUART_std.c ****                                 USBUART_EP[i].apiEpState = USBUART_NO_EVENT_PENDING;
 730:Generated_Source\PSoC4/USBUART_std.c ****                                 
 731:Generated_Source\PSoC4/USBUART_std.c ****                             #if (defined(USBUART_ENABLE_MIDI_STREAMING) && (USBUART_MIDI_OUT_BUFF_S
 732:Generated_Source\PSoC4/USBUART_std.c ****                                 if ((pEP->bMisc == USBUART_CLASS_AUDIO) && (epType == USBUART_EP_TY
 733:Generated_Source\PSoC4/USBUART_std.c ****                                 {
 734:Generated_Source\PSoC4/USBUART_std.c ****                                     USBUART_midi_out_ep = i;
 735:Generated_Source\PSoC4/USBUART_std.c ****                                 }
 736:Generated_Source\PSoC4/USBUART_std.c ****                             #endif  /* (USBUART_ENABLE_MIDI_STREAMING) */
 737:Generated_Source\PSoC4/USBUART_std.c ****                             }
 738:Generated_Source\PSoC4/USBUART_std.c **** 
 739:Generated_Source\PSoC4/USBUART_std.c ****                         #if (defined(USBUART_ENABLE_CDC_CLASS))
 740:Generated_Source\PSoC4/USBUART_std.c ****                             if((pEP->bMisc == USBUART_CLASS_CDC_DATA) ||(pEP->bMisc == USBUART_CLAS
 741:Generated_Source\PSoC4/USBUART_std.c ****                             {
 742:Generated_Source\PSoC4/USBUART_std.c ****                                 cdcComNums = USBUART_Cdc_EpInit(pEP, i, cdcComNums);
 743:Generated_Source\PSoC4/USBUART_std.c ****                             }
 744:Generated_Source\PSoC4/USBUART_std.c ****                         #endif  /* (USBUART_ENABLE_CDC_CLASS) */
 745:Generated_Source\PSoC4/USBUART_std.c **** 
 746:Generated_Source\PSoC4/USBUART_std.c ****                             #if (USBUART_EP_MANAGEMENT_DMA_AUTO)
 747:Generated_Source\PSoC4/USBUART_std.c ****                                 break;  /* Use first EP setting in Auto memory management */
 748:Generated_Source\PSoC4/USBUART_std.c ****                             #endif /* (USBUART_EP_MANAGEMENT_DMA_AUTO) */
 749:Generated_Source\PSoC4/USBUART_std.c ****                         }
 750:Generated_Source\PSoC4/USBUART_std.c ****                     }
 751:Generated_Source\PSoC4/USBUART_std.c ****                     
 752:Generated_Source\PSoC4/USBUART_std.c ****                     pEP = &pEP[1u];
 753:Generated_Source\PSoC4/USBUART_std.c ****                 }
 754:Generated_Source\PSoC4/USBUART_std.c ****             }
 755:Generated_Source\PSoC4/USBUART_std.c ****         #endif /*  (USBUART_EP_MANAGEMENT_MANUAL && USBUART_EP_ALLOC_DYNAMIC) */
 756:Generated_Source\PSoC4/USBUART_std.c **** 
 757:Generated_Source\PSoC4/USBUART_std.c ****         /* Init class array for each interface and interface number for each EP.
 758:Generated_Source\PSoC4/USBUART_std.c ****         *  It is used for handling Class specific requests directed to either an
 759:Generated_Source\PSoC4/USBUART_std.c ****         *  interface or the endpoint.
 760:Generated_Source\PSoC4/USBUART_std.c ****         */
 761:Generated_Source\PSoC4/USBUART_std.c ****         /* p_list points the endpoint setting table. */
 762:Generated_Source\PSoC4/USBUART_std.c ****         pEP = (const T_USBUART_EP_SETTINGS_BLOCK CYCODE *) pTmp->p_list;
 763:Generated_Source\PSoC4/USBUART_std.c ****         for (i = 0u; i < ep; i++)
 764:Generated_Source\PSoC4/USBUART_std.c ****         {
 765:Generated_Source\PSoC4/USBUART_std.c ****             /* Configure interface number for each EP */
 766:Generated_Source\PSoC4/USBUART_std.c ****             USBUART_EP[pEP->addr & USBUART_DIR_UNUSED].interface = pEP->interface;
ARM GAS  C:\Users\TERENC~1\AppData\Local\Temp\ccz498Tm.s 			page 20


 767:Generated_Source\PSoC4/USBUART_std.c ****             pEP = &pEP[1u];
 768:Generated_Source\PSoC4/USBUART_std.c ****         }
 769:Generated_Source\PSoC4/USBUART_std.c ****         
 770:Generated_Source\PSoC4/USBUART_std.c ****         /* Init pointer on interface class table */
 771:Generated_Source\PSoC4/USBUART_std.c ****         USBUART_interfaceClass = USBUART_GetInterfaceClassTablePtr();
 772:Generated_Source\PSoC4/USBUART_std.c ****         
 773:Generated_Source\PSoC4/USBUART_std.c ****     /* Set the endpoint buffer addresses */
 774:Generated_Source\PSoC4/USBUART_std.c ****     #if (!USBUART_EP_MANAGEMENT_DMA_AUTO)
 775:Generated_Source\PSoC4/USBUART_std.c ****         buffCount = 0u;
 776:Generated_Source\PSoC4/USBUART_std.c ****         for (ep = USBUART_EP1; ep < USBUART_MAX_EP; ++ep)
 777:Generated_Source\PSoC4/USBUART_std.c ****         {
 778:Generated_Source\PSoC4/USBUART_std.c ****             USBUART_EP[ep].buffOffset = buffCount;        
 779:Generated_Source\PSoC4/USBUART_std.c ****             buffCount += USBUART_EP[ep].bufferSize;
 780:Generated_Source\PSoC4/USBUART_std.c ****             
 781:Generated_Source\PSoC4/USBUART_std.c ****         #if (USBUART_GEN_16BITS_EP_ACCESS)
 782:Generated_Source\PSoC4/USBUART_std.c ****             /* Align EP buffers to be event size to access 16-bits DR register. */
 783:Generated_Source\PSoC4/USBUART_std.c ****             buffCount += (0u != (buffCount & 0x01u)) ? 1u : 0u;
 784:Generated_Source\PSoC4/USBUART_std.c ****         #endif /* (USBUART_GEN_16BITS_EP_ACCESS) */            
 785:Generated_Source\PSoC4/USBUART_std.c ****         }
 786:Generated_Source\PSoC4/USBUART_std.c ****     #endif /* (!USBUART_EP_MANAGEMENT_DMA_AUTO) */
 787:Generated_Source\PSoC4/USBUART_std.c **** 
 788:Generated_Source\PSoC4/USBUART_std.c ****         /* Configure hardware registers */
 789:Generated_Source\PSoC4/USBUART_std.c ****         USBUART_ConfigReg();
 790:Generated_Source\PSoC4/USBUART_std.c ****     }
 791:Generated_Source\PSoC4/USBUART_std.c **** }
 792:Generated_Source\PSoC4/USBUART_std.c **** 
 793:Generated_Source\PSoC4/USBUART_std.c **** 
 794:Generated_Source\PSoC4/USBUART_std.c **** /*******************************************************************************
 795:Generated_Source\PSoC4/USBUART_std.c **** * Function Name: USBUART_ConfigAltChanged
 796:Generated_Source\PSoC4/USBUART_std.c **** ****************************************************************************//**
 797:Generated_Source\PSoC4/USBUART_std.c **** *
 798:Generated_Source\PSoC4/USBUART_std.c **** *  This routine update configuration for the required endpoints only.
 799:Generated_Source\PSoC4/USBUART_std.c **** *  It is called after SET_INTERFACE request when Static memory allocation used.
 800:Generated_Source\PSoC4/USBUART_std.c **** *
 801:Generated_Source\PSoC4/USBUART_std.c **** * \reentrant
 802:Generated_Source\PSoC4/USBUART_std.c **** *  No.
 803:Generated_Source\PSoC4/USBUART_std.c **** *
 804:Generated_Source\PSoC4/USBUART_std.c **** *******************************************************************************/
 805:Generated_Source\PSoC4/USBUART_std.c **** void USBUART_ConfigAltChanged(void) 
 806:Generated_Source\PSoC4/USBUART_std.c **** {
 807:Generated_Source\PSoC4/USBUART_std.c ****     uint32 ep;
 808:Generated_Source\PSoC4/USBUART_std.c ****     uint32 curEp;
 809:Generated_Source\PSoC4/USBUART_std.c ****     uint32 epType;
 810:Generated_Source\PSoC4/USBUART_std.c ****     uint32 i;
 811:Generated_Source\PSoC4/USBUART_std.c ****     uint8 interfaceNum;
 812:Generated_Source\PSoC4/USBUART_std.c **** 
 813:Generated_Source\PSoC4/USBUART_std.c ****     const T_USBUART_LUT CYCODE *pTmp;
 814:Generated_Source\PSoC4/USBUART_std.c ****     const T_USBUART_EP_SETTINGS_BLOCK CYCODE *pEP;
 815:Generated_Source\PSoC4/USBUART_std.c **** 
 816:Generated_Source\PSoC4/USBUART_std.c ****     /* Init Endpoints and Device Status if configured */
 817:Generated_Source\PSoC4/USBUART_std.c ****     if (USBUART_configuration > 0u)
 818:Generated_Source\PSoC4/USBUART_std.c ****     {
 819:Generated_Source\PSoC4/USBUART_std.c ****         /* Get number of endpoints configurations (ep). */
 820:Generated_Source\PSoC4/USBUART_std.c ****         pTmp = USBUART_GetConfigTablePtr(USBUART_configuration - 1u);
 821:Generated_Source\PSoC4/USBUART_std.c ****         pTmp = &pTmp[1u];
 822:Generated_Source\PSoC4/USBUART_std.c ****         ep = pTmp->c;
 823:Generated_Source\PSoC4/USBUART_std.c **** 
ARM GAS  C:\Users\TERENC~1\AppData\Local\Temp\ccz498Tm.s 			page 21


 824:Generated_Source\PSoC4/USBUART_std.c ****         /* Get pointer to endpoints setting table (pEP). */
 825:Generated_Source\PSoC4/USBUART_std.c ****         pEP = (const T_USBUART_EP_SETTINGS_BLOCK CYCODE *) pTmp->p_list;
 826:Generated_Source\PSoC4/USBUART_std.c ****         
 827:Generated_Source\PSoC4/USBUART_std.c ****         /* Look through all possible endpoint configurations. Find endpoints 
 828:Generated_Source\PSoC4/USBUART_std.c ****         * which belong to current interface and alternate settings for 
 829:Generated_Source\PSoC4/USBUART_std.c ****         * re-configuration.
 830:Generated_Source\PSoC4/USBUART_std.c ****         */
 831:Generated_Source\PSoC4/USBUART_std.c ****         interfaceNum = USBUART_interfaceNumber;
 832:Generated_Source\PSoC4/USBUART_std.c ****         for (i = 0u; i < ep; i++)
 833:Generated_Source\PSoC4/USBUART_std.c ****         {
 834:Generated_Source\PSoC4/USBUART_std.c ****             /* Find endpoints which belong to current interface and alternate settings. */
 835:Generated_Source\PSoC4/USBUART_std.c ****             if ((interfaceNum == pEP->interface) && 
 836:Generated_Source\PSoC4/USBUART_std.c ****                 (USBUART_interfaceSetting[interfaceNum] == pEP->altSetting))
 837:Generated_Source\PSoC4/USBUART_std.c ****             {
 838:Generated_Source\PSoC4/USBUART_std.c ****                 curEp  = ((uint32) pEP->addr & USBUART_DIR_UNUSED);
 839:Generated_Source\PSoC4/USBUART_std.c ****                 epType = ((uint32) pEP->attributes & USBUART_EP_TYPE_MASK);
 840:Generated_Source\PSoC4/USBUART_std.c ****                 
 841:Generated_Source\PSoC4/USBUART_std.c ****                 /* Change the SIE mode for the selected EP to NAK ALL */
 842:Generated_Source\PSoC4/USBUART_std.c ****                 USBUART_EP[curEp].epToggle   = 0u;
 843:Generated_Source\PSoC4/USBUART_std.c ****                 USBUART_EP[curEp].addr       = pEP->addr;
 844:Generated_Source\PSoC4/USBUART_std.c ****                 USBUART_EP[curEp].attrib     = pEP->attributes;
 845:Generated_Source\PSoC4/USBUART_std.c ****                 USBUART_EP[curEp].bufferSize = pEP->bufferSize;
 846:Generated_Source\PSoC4/USBUART_std.c **** 
 847:Generated_Source\PSoC4/USBUART_std.c ****                 if (0u != (pEP->addr & USBUART_DIR_IN))
 848:Generated_Source\PSoC4/USBUART_std.c ****                 {
 849:Generated_Source\PSoC4/USBUART_std.c ****                     /* IN Endpoint */
 850:Generated_Source\PSoC4/USBUART_std.c ****                     USBUART_EP[curEp].epMode     = USBUART_GET_ACTIVE_IN_EP_CR0_MODE(epType);
 851:Generated_Source\PSoC4/USBUART_std.c ****                     USBUART_EP[curEp].apiEpState = USBUART_EVENT_PENDING;
 852:Generated_Source\PSoC4/USBUART_std.c ****                 }
 853:Generated_Source\PSoC4/USBUART_std.c ****                 else
 854:Generated_Source\PSoC4/USBUART_std.c ****                 {
 855:Generated_Source\PSoC4/USBUART_std.c ****                     /* OUT Endpoint */
 856:Generated_Source\PSoC4/USBUART_std.c ****                     USBUART_EP[curEp].epMode     = USBUART_GET_ACTIVE_OUT_EP_CR0_MODE(epType);
 857:Generated_Source\PSoC4/USBUART_std.c ****                     USBUART_EP[curEp].apiEpState = USBUART_NO_EVENT_PENDING;
 858:Generated_Source\PSoC4/USBUART_std.c ****                 }
 859:Generated_Source\PSoC4/USBUART_std.c ****                 
 860:Generated_Source\PSoC4/USBUART_std.c ****                 /* Make SIE to NAK any endpoint requests */
 861:Generated_Source\PSoC4/USBUART_std.c ****                 USBUART_SIE_EP_BASE.sieEp[curEp].epCr0 = USBUART_MODE_NAK_IN_OUT;
 862:Generated_Source\PSoC4/USBUART_std.c **** 
 863:Generated_Source\PSoC4/USBUART_std.c ****             #if (USBUART_EP_MANAGEMENT_DMA_AUTO)
 864:Generated_Source\PSoC4/USBUART_std.c ****                 /* Clear IN data ready. */
 865:Generated_Source\PSoC4/USBUART_std.c ****                 USBUART_ARB_EP_BASE.arbEp[curEp].epCfg &= (uint32) ~USBUART_ARB_EPX_CFG_IN_DATA_RDY
 866:Generated_Source\PSoC4/USBUART_std.c **** 
 867:Generated_Source\PSoC4/USBUART_std.c ****                 /* Select endpoint number of reconfiguration */
 868:Generated_Source\PSoC4/USBUART_std.c ****                 USBUART_DYN_RECONFIG_REG = (uint32) ((curEp - 1u) << USBUART_DYN_RECONFIG_EP_SHIFT)
 869:Generated_Source\PSoC4/USBUART_std.c ****                 
 870:Generated_Source\PSoC4/USBUART_std.c ****                 /* Request for dynamic re-configuration of endpoint. */
 871:Generated_Source\PSoC4/USBUART_std.c ****                 USBUART_DYN_RECONFIG_REG |= USBUART_DYN_RECONFIG_ENABLE;
 872:Generated_Source\PSoC4/USBUART_std.c ****                 
 873:Generated_Source\PSoC4/USBUART_std.c ****                 /* Wait until block is ready for re-configuration */
 874:Generated_Source\PSoC4/USBUART_std.c ****                 while (0u == (USBUART_DYN_RECONFIG_REG & USBUART_DYN_RECONFIG_RDY_STS))
 875:Generated_Source\PSoC4/USBUART_std.c ****                 {
 876:Generated_Source\PSoC4/USBUART_std.c ****                 }
 877:Generated_Source\PSoC4/USBUART_std.c ****                 
 878:Generated_Source\PSoC4/USBUART_std.c ****                 /* Once DYN_RECONFIG_RDY_STS bit is set, FW can change the EP configuration. */
 879:Generated_Source\PSoC4/USBUART_std.c ****                 /* Change EP Type with new direction */
 880:Generated_Source\PSoC4/USBUART_std.c ****                 if (0u != (pEP->addr & USBUART_DIR_IN))
ARM GAS  C:\Users\TERENC~1\AppData\Local\Temp\ccz498Tm.s 			page 22


 881:Generated_Source\PSoC4/USBUART_std.c ****                 {
 882:Generated_Source\PSoC4/USBUART_std.c ****                     /* Set endpoint type: 0 - IN and 1 - OUT. */
 883:Generated_Source\PSoC4/USBUART_std.c ****                     USBUART_EP_TYPE_REG &= (uint32) ~(uint32)((uint32) 0x01u << (curEp - 1u));
 884:Generated_Source\PSoC4/USBUART_std.c ****                     
 885:Generated_Source\PSoC4/USBUART_std.c ****                 #if (CY_PSOC4)
 886:Generated_Source\PSoC4/USBUART_std.c ****                     /* Clear DMA_TERMIN for IN endpoint */
 887:Generated_Source\PSoC4/USBUART_std.c ****                     USBUART_ARB_EP_BASE.arbEp[curEp].epIntEn &= (uint32) ~USBUART_ARB_EPX_INT_DMA_T
 888:Generated_Source\PSoC4/USBUART_std.c ****                 #endif /* (CY_PSOC4) */
 889:Generated_Source\PSoC4/USBUART_std.c ****                 }
 890:Generated_Source\PSoC4/USBUART_std.c ****                 else
 891:Generated_Source\PSoC4/USBUART_std.c ****                 {
 892:Generated_Source\PSoC4/USBUART_std.c ****                     /* Set endpoint type: 0 - IN and 1- OUT. */
 893:Generated_Source\PSoC4/USBUART_std.c ****                     USBUART_EP_TYPE_REG |= (uint32) ((uint32) 0x01u << (curEp - 1u));
 894:Generated_Source\PSoC4/USBUART_std.c ****                     
 895:Generated_Source\PSoC4/USBUART_std.c ****                 #if (CY_PSOC4)
 896:Generated_Source\PSoC4/USBUART_std.c ****                     /* Set DMA_TERMIN for OUT endpoint */
 897:Generated_Source\PSoC4/USBUART_std.c ****                     USBUART_ARB_EP_BASE.arbEp[curEp].epIntEn |= (uint32) USBUART_ARB_EPX_INT_DMA_TE
 898:Generated_Source\PSoC4/USBUART_std.c ****                 #endif /* (CY_PSOC4) */
 899:Generated_Source\PSoC4/USBUART_std.c ****                 }
 900:Generated_Source\PSoC4/USBUART_std.c ****                 
 901:Generated_Source\PSoC4/USBUART_std.c ****                 /* Complete dynamic re-configuration: all endpoint related status and signals 
 902:Generated_Source\PSoC4/USBUART_std.c ****                 * are set into the default state.
 903:Generated_Source\PSoC4/USBUART_std.c ****                 */
 904:Generated_Source\PSoC4/USBUART_std.c ****                 USBUART_DYN_RECONFIG_REG &= (uint32) ~USBUART_DYN_RECONFIG_ENABLE;
 905:Generated_Source\PSoC4/USBUART_std.c **** 
 906:Generated_Source\PSoC4/USBUART_std.c ****             #else
 907:Generated_Source\PSoC4/USBUART_std.c ****                 USBUART_SIE_EP_BASE.sieEp[curEp].epCnt0 = HI8(USBUART_EP[curEp].bufferSize);
 908:Generated_Source\PSoC4/USBUART_std.c ****                 USBUART_SIE_EP_BASE.sieEp[curEp].epCnt1 = LO8(USBUART_EP[curEp].bufferSize);
 909:Generated_Source\PSoC4/USBUART_std.c ****                 
 910:Generated_Source\PSoC4/USBUART_std.c ****                 #if (CY_PSOC4)
 911:Generated_Source\PSoC4/USBUART_std.c ****                     USBUART_ARB_EP16_BASE.arbEp[curEp].rwRa16  = (uint32) USBUART_EP[curEp].buffOff
 912:Generated_Source\PSoC4/USBUART_std.c ****                     USBUART_ARB_EP16_BASE.arbEp[curEp].rwWa16  = (uint32) USBUART_EP[curEp].buffOff
 913:Generated_Source\PSoC4/USBUART_std.c ****                 #else
 914:Generated_Source\PSoC4/USBUART_std.c ****                     USBUART_ARB_EP_BASE.arbEp[curEp].rwRa    = LO8(USBUART_EP[curEp].buffOffset);
 915:Generated_Source\PSoC4/USBUART_std.c ****                     USBUART_ARB_EP_BASE.arbEp[curEp].rwRaMsb = HI8(USBUART_EP[curEp].buffOffset);
 916:Generated_Source\PSoC4/USBUART_std.c ****                     USBUART_ARB_EP_BASE.arbEp[curEp].rwWa    = LO8(USBUART_EP[curEp].buffOffset);
 917:Generated_Source\PSoC4/USBUART_std.c ****                     USBUART_ARB_EP_BASE.arbEp[curEp].rwWaMsb = HI8(USBUART_EP[curEp].buffOffset);
 918:Generated_Source\PSoC4/USBUART_std.c ****                 #endif /* (CY_PSOC4) */                
 919:Generated_Source\PSoC4/USBUART_std.c ****             #endif /* (USBUART_EP_MANAGEMENT_DMA_AUTO) */
 920:Generated_Source\PSoC4/USBUART_std.c ****             }
 921:Generated_Source\PSoC4/USBUART_std.c ****             
 922:Generated_Source\PSoC4/USBUART_std.c ****             pEP = &pEP[1u]; /* Get next EP element */
 923:Generated_Source\PSoC4/USBUART_std.c ****         }
 924:Generated_Source\PSoC4/USBUART_std.c ****         
 925:Generated_Source\PSoC4/USBUART_std.c ****         /* The main loop has to re-enable DMA and OUT endpoint */
 926:Generated_Source\PSoC4/USBUART_std.c ****     }
 927:Generated_Source\PSoC4/USBUART_std.c **** }
 928:Generated_Source\PSoC4/USBUART_std.c **** 
 929:Generated_Source\PSoC4/USBUART_std.c **** 
 930:Generated_Source\PSoC4/USBUART_std.c **** /*******************************************************************************
 931:Generated_Source\PSoC4/USBUART_std.c **** * Function Name: USBUART_GetConfigTablePtr
 932:Generated_Source\PSoC4/USBUART_std.c **** ****************************************************************************//**
 933:Generated_Source\PSoC4/USBUART_std.c **** *
 934:Generated_Source\PSoC4/USBUART_std.c **** *  This routine returns a pointer a configuration table entry
 935:Generated_Source\PSoC4/USBUART_std.c **** *
 936:Generated_Source\PSoC4/USBUART_std.c **** *  \param confIndex:  Configuration Index
 937:Generated_Source\PSoC4/USBUART_std.c **** *
ARM GAS  C:\Users\TERENC~1\AppData\Local\Temp\ccz498Tm.s 			page 23


 938:Generated_Source\PSoC4/USBUART_std.c **** * \return
 939:Generated_Source\PSoC4/USBUART_std.c **** *  Device Descriptor pointer or NULL when descriptor does not exist.
 940:Generated_Source\PSoC4/USBUART_std.c **** *
 941:Generated_Source\PSoC4/USBUART_std.c **** *******************************************************************************/
 942:Generated_Source\PSoC4/USBUART_std.c **** const T_USBUART_LUT CYCODE *USBUART_GetConfigTablePtr(uint8 confIndex)
 943:Generated_Source\PSoC4/USBUART_std.c ****                                                         
 944:Generated_Source\PSoC4/USBUART_std.c **** {
 311              		.loc 1 944 0
 312              		.cfi_startproc
 313              		@ args = 0, pretend = 0, frame = 0
 314              		@ frame_needed = 0, uses_anonymous_args = 0
 315              		@ link register save eliminated.
 316              	.LVL17:
 945:Generated_Source\PSoC4/USBUART_std.c ****     /* Device Table */
 946:Generated_Source\PSoC4/USBUART_std.c ****     const T_USBUART_LUT CYCODE *pTmp;
 947:Generated_Source\PSoC4/USBUART_std.c **** 
 948:Generated_Source\PSoC4/USBUART_std.c ****     pTmp = (const T_USBUART_LUT CYCODE *) USBUART_TABLE[USBUART_device].p_list;
 317              		.loc 1 948 0
 318 0000 074B     		ldr	r3, .L25
 319 0002 1B78     		ldrb	r3, [r3]
 320 0004 DB00     		lsls	r3, r3, #3
 321 0006 074A     		ldr	r2, .L25+4
 322 0008 D318     		adds	r3, r2, r3
 323 000a 5B68     		ldr	r3, [r3, #4]
 324              	.LVL18:
 949:Generated_Source\PSoC4/USBUART_std.c **** 
 950:Generated_Source\PSoC4/USBUART_std.c ****     /* The first entry points to the Device Descriptor,
 951:Generated_Source\PSoC4/USBUART_std.c ****     *  the second entry point to the BOS Descriptor
 952:Generated_Source\PSoC4/USBUART_std.c ****     *  the rest configuration entries.
 953:Generated_Source\PSoC4/USBUART_std.c ****     *  Set pointer to the first Configuration Descriptor
 954:Generated_Source\PSoC4/USBUART_std.c ****     */
 955:Generated_Source\PSoC4/USBUART_std.c ****     pTmp = &pTmp[2u];
 956:Generated_Source\PSoC4/USBUART_std.c ****     /* For this table, c is the number of configuration descriptors  */
 957:Generated_Source\PSoC4/USBUART_std.c ****     if(confIndex >= pTmp->c)   /* Verify that required configuration descriptor exists */
 325              		.loc 1 957 0
 326 000c 1A7C     		ldrb	r2, [r3, #16]
 327 000e 8242     		cmp	r2, r0
 328 0010 04D9     		bls	.L24
 958:Generated_Source\PSoC4/USBUART_std.c ****     {
 959:Generated_Source\PSoC4/USBUART_std.c ****         pTmp = (const T_USBUART_LUT CYCODE *) NULL;
 960:Generated_Source\PSoC4/USBUART_std.c ****     }
 961:Generated_Source\PSoC4/USBUART_std.c ****     else
 962:Generated_Source\PSoC4/USBUART_std.c ****     {
 963:Generated_Source\PSoC4/USBUART_std.c ****         pTmp = (const T_USBUART_LUT CYCODE *) pTmp[confIndex].p_list;
 329              		.loc 1 963 0
 330 0012 C000     		lsls	r0, r0, #3
 331              	.LVL19:
 332 0014 1030     		adds	r0, r0, #16
 333 0016 1818     		adds	r0, r3, r0
 334 0018 4068     		ldr	r0, [r0, #4]
 335              	.LVL20:
 336 001a 00E0     		b	.L23
 337              	.LVL21:
 338              	.L24:
 959:Generated_Source\PSoC4/USBUART_std.c ****     }
 339              		.loc 1 959 0
 340 001c 0020     		movs	r0, #0
ARM GAS  C:\Users\TERENC~1\AppData\Local\Temp\ccz498Tm.s 			page 24


 341              	.LVL22:
 342              	.L23:
 964:Generated_Source\PSoC4/USBUART_std.c ****     }
 965:Generated_Source\PSoC4/USBUART_std.c **** 
 966:Generated_Source\PSoC4/USBUART_std.c ****     return (pTmp);
 967:Generated_Source\PSoC4/USBUART_std.c **** }
 343              		.loc 1 967 0
 344              		@ sp needed
 345 001e 7047     		bx	lr
 346              	.L26:
 347              		.align	2
 348              	.L25:
 349 0020 00000000 		.word	USBUART_device
 350 0024 00000000 		.word	USBUART_TABLE
 351              		.cfi_endproc
 352              	.LFE7:
 353              		.size	USBUART_GetConfigTablePtr, .-USBUART_GetConfigTablePtr
 354              		.section	.text.USBUART_ConfigAltChanged,"ax",%progbits
 355              		.align	2
 356              		.global	USBUART_ConfigAltChanged
 357              		.code	16
 358              		.thumb_func
 359              		.type	USBUART_ConfigAltChanged, %function
 360              	USBUART_ConfigAltChanged:
 361              	.LFB6:
 806:Generated_Source\PSoC4/USBUART_std.c ****     uint32 ep;
 362              		.loc 1 806 0
 363              		.cfi_startproc
 364              		@ args = 0, pretend = 0, frame = 0
 365              		@ frame_needed = 0, uses_anonymous_args = 0
 366 0000 F0B5     		push	{r4, r5, r6, r7, lr}
 367              		.cfi_def_cfa_offset 20
 368              		.cfi_offset 4, -20
 369              		.cfi_offset 5, -16
 370              		.cfi_offset 6, -12
 371              		.cfi_offset 7, -8
 372              		.cfi_offset 14, -4
 373 0002 5746     		mov	r7, r10
 374 0004 4E46     		mov	r6, r9
 375 0006 4546     		mov	r5, r8
 376 0008 E0B4     		push	{r5, r6, r7}
 377              		.cfi_def_cfa_offset 32
 378              		.cfi_offset 8, -32
 379              		.cfi_offset 9, -28
 380              		.cfi_offset 10, -24
 817:Generated_Source\PSoC4/USBUART_std.c ****     {
 381              		.loc 1 817 0
 382 000a 3F4B     		ldr	r3, .L38
 383 000c 1B78     		ldrb	r3, [r3]
 384 000e 002B     		cmp	r3, #0
 385 0010 75D0     		beq	.L27
 820:Generated_Source\PSoC4/USBUART_std.c ****         pTmp = &pTmp[1u];
 386              		.loc 1 820 0
 387 0012 3D4B     		ldr	r3, .L38
 388 0014 1878     		ldrb	r0, [r3]
 389 0016 0138     		subs	r0, r0, #1
 390 0018 C0B2     		uxtb	r0, r0
ARM GAS  C:\Users\TERENC~1\AppData\Local\Temp\ccz498Tm.s 			page 25


 391 001a FFF7FEFF 		bl	USBUART_GetConfigTablePtr
 392              	.LVL23:
 822:Generated_Source\PSoC4/USBUART_std.c **** 
 393              		.loc 1 822 0
 394 001e 047A     		ldrb	r4, [r0, #8]
 395              	.LVL24:
 825:Generated_Source\PSoC4/USBUART_std.c ****         
 396              		.loc 1 825 0
 397 0020 C368     		ldr	r3, [r0, #12]
 398              	.LVL25:
 831:Generated_Source\PSoC4/USBUART_std.c ****         for (i = 0u; i < ep; i++)
 399              		.loc 1 831 0
 400 0022 3A4A     		ldr	r2, .L38+4
 401 0024 1078     		ldrb	r0, [r2]
 402              	.LVL26:
 403 0026 C0B2     		uxtb	r0, r0
 404              	.LVL27:
 832:Generated_Source\PSoC4/USBUART_std.c ****         {
 405              		.loc 1 832 0
 406 0028 0022     		movs	r2, #0
 407 002a 66E0     		b	.L29
 408              	.LVL28:
 409              	.L35:
 835:Generated_Source\PSoC4/USBUART_std.c ****                 (USBUART_interfaceSetting[interfaceNum] == pEP->altSetting))
 410              		.loc 1 835 0
 411 002c 1978     		ldrb	r1, [r3]
 412 002e 8842     		cmp	r0, r1
 413 0030 61D1     		bne	.L30
 836:Generated_Source\PSoC4/USBUART_std.c ****             {
 414              		.loc 1 836 0 discriminator 1
 415 0032 3749     		ldr	r1, .L38+8
 416 0034 095C     		ldrb	r1, [r1, r0]
 417 0036 C9B2     		uxtb	r1, r1
 418 0038 5D78     		ldrb	r5, [r3, #1]
 835:Generated_Source\PSoC4/USBUART_std.c ****                 (USBUART_interfaceSetting[interfaceNum] == pEP->altSetting))
 419              		.loc 1 835 0 discriminator 1
 420 003a A942     		cmp	r1, r5
 421 003c 5BD1     		bne	.L30
 838:Generated_Source\PSoC4/USBUART_std.c ****                 epType = ((uint32) pEP->attributes & USBUART_EP_TYPE_MASK);
 422              		.loc 1 838 0
 423 003e 9978     		ldrb	r1, [r3, #2]
 424 0040 7F25     		movs	r5, #127
 425 0042 2940     		ands	r1, r5
 426              	.LVL29:
 839:Generated_Source\PSoC4/USBUART_std.c ****                 
 427              		.loc 1 839 0
 428 0044 DD78     		ldrb	r5, [r3, #3]
 429 0046 0326     		movs	r6, #3
 430 0048 2E40     		ands	r6, r5
 431 004a B446     		mov	ip, r6
 432              	.LVL30:
 842:Generated_Source\PSoC4/USBUART_std.c ****                 USBUART_EP[curEp].addr       = pEP->addr;
 433              		.loc 1 842 0
 434 004c 314D     		ldr	r5, .L38+12
 435 004e A846     		mov	r8, r5
 436 0050 4E00     		lsls	r6, r1, #1
 437              	.LVL31:
ARM GAS  C:\Users\TERENC~1\AppData\Local\Temp\ccz498Tm.s 			page 26


 438 0052 7718     		adds	r7, r6, r1
 439 0054 BD00     		lsls	r5, r7, #2
 440 0056 4544     		add	r5, r5, r8
 441 0058 AA46     		mov	r10, r5
 442 005a 0027     		movs	r7, #0
 443 005c EF70     		strb	r7, [r5, #3]
 843:Generated_Source\PSoC4/USBUART_std.c ****                 USBUART_EP[curEp].attrib     = pEP->attributes;
 444              		.loc 1 843 0
 445 005e 9F78     		ldrb	r7, [r3, #2]
 446 0060 2F71     		strb	r7, [r5, #4]
 844:Generated_Source\PSoC4/USBUART_std.c ****                 USBUART_EP[curEp].bufferSize = pEP->bufferSize;
 447              		.loc 1 844 0
 448 0062 DF78     		ldrb	r7, [r3, #3]
 449 0064 B946     		mov	r9, r7
 450 0066 7618     		adds	r6, r6, r1
 451 0068 B700     		lsls	r7, r6, #2
 452 006a 4646     		mov	r6, r8
 453 006c 4D46     		mov	r5, r9
 454 006e BD55     		strb	r5, [r7, r6]
 845:Generated_Source\PSoC4/USBUART_std.c **** 
 455              		.loc 1 845 0
 456 0070 9E88     		ldrh	r6, [r3, #4]
 457 0072 5546     		mov	r5, r10
 458 0074 2E81     		strh	r6, [r5, #8]
 847:Generated_Source\PSoC4/USBUART_std.c ****                 {
 459              		.loc 1 847 0
 460 0076 0225     		movs	r5, #2
 461 0078 5D57     		ldrsb	r5, [r3, r5]
 462 007a 002D     		cmp	r5, #0
 463 007c 0EDA     		bge	.L31
 850:Generated_Source\PSoC4/USBUART_std.c ****                     USBUART_EP[curEp].apiEpState = USBUART_EVENT_PENDING;
 464              		.loc 1 850 0
 465 007e 6546     		mov	r5, ip
 466 0080 012D     		cmp	r5, #1
 467 0082 01D1     		bne	.L36
 468 0084 0727     		movs	r7, #7
 469 0086 00E0     		b	.L32
 470              	.L36:
 471 0088 0D27     		movs	r7, #13
 472              	.L32:
 850:Generated_Source\PSoC4/USBUART_std.c ****                     USBUART_EP[curEp].apiEpState = USBUART_EVENT_PENDING;
 473              		.loc 1 850 0 is_stmt 0 discriminator 4
 474 008a 4E00     		lsls	r6, r1, #1
 475 008c 7618     		adds	r6, r6, r1
 476 008e B500     		lsls	r5, r6, #2
 477 0090 204E     		ldr	r6, .L38+12
 478 0092 7519     		adds	r5, r6, r5
 479 0094 6F71     		strb	r7, [r5, #5]
 851:Generated_Source\PSoC4/USBUART_std.c ****                 }
 480              		.loc 1 851 0 is_stmt 1 discriminator 4
 481 0096 0126     		movs	r6, #1
 482 0098 6E70     		strb	r6, [r5, #1]
 483 009a 0DE0     		b	.L33
 484              	.L31:
 856:Generated_Source\PSoC4/USBUART_std.c ****                     USBUART_EP[curEp].apiEpState = USBUART_NO_EVENT_PENDING;
 485              		.loc 1 856 0
 486 009c 6546     		mov	r5, ip
ARM GAS  C:\Users\TERENC~1\AppData\Local\Temp\ccz498Tm.s 			page 27


 487 009e 012D     		cmp	r5, #1
 488 00a0 01D1     		bne	.L37
 489              	.LVL32:
 490 00a2 0527     		movs	r7, #5
 491 00a4 00E0     		b	.L34
 492              	.L37:
 493 00a6 0927     		movs	r7, #9
 494              	.L34:
 856:Generated_Source\PSoC4/USBUART_std.c ****                     USBUART_EP[curEp].apiEpState = USBUART_NO_EVENT_PENDING;
 495              		.loc 1 856 0 is_stmt 0 discriminator 4
 496 00a8 4E00     		lsls	r6, r1, #1
 497 00aa 7618     		adds	r6, r6, r1
 498 00ac B500     		lsls	r5, r6, #2
 499              	.LVL33:
 500 00ae 194E     		ldr	r6, .L38+12
 501 00b0 7519     		adds	r5, r6, r5
 502 00b2 6F71     		strb	r7, [r5, #5]
 857:Generated_Source\PSoC4/USBUART_std.c ****                 }
 503              		.loc 1 857 0 is_stmt 1 discriminator 4
 504 00b4 0026     		movs	r6, #0
 505 00b6 6E70     		strb	r6, [r5, #1]
 506              	.L33:
 861:Generated_Source\PSoC4/USBUART_std.c **** 
 507              		.loc 1 861 0
 508 00b8 8D01     		lsls	r5, r1, #6
 509 00ba 174E     		ldr	r6, .L38+16
 510 00bc B146     		mov	r9, r6
 511 00be A944     		add	r9, r9, r5
 512 00c0 0126     		movs	r6, #1
 513 00c2 4F46     		mov	r7, r9
 514 00c4 BE60     		str	r6, [r7, #8]
 907:Generated_Source\PSoC4/USBUART_std.c ****                 USBUART_SIE_EP_BASE.sieEp[curEp].epCnt1 = LO8(USBUART_EP[curEp].bufferSize);
 515              		.loc 1 907 0
 516 00c6 4E00     		lsls	r6, r1, #1
 517 00c8 7118     		adds	r1, r6, r1
 518              	.LVL34:
 519 00ca 8E00     		lsls	r6, r1, #2
 520 00cc 1149     		ldr	r1, .L38+12
 521 00ce 8919     		adds	r1, r1, r6
 522 00d0 0E89     		ldrh	r6, [r1, #8]
 523 00d2 360A     		lsrs	r6, r6, #8
 524 00d4 B046     		mov	r8, r6
 525 00d6 104E     		ldr	r6, .L38+16
 526 00d8 4746     		mov	r7, r8
 527 00da AF51     		str	r7, [r5, r6]
 908:Generated_Source\PSoC4/USBUART_std.c ****                 
 528              		.loc 1 908 0
 529 00dc 0E89     		ldrh	r6, [r1, #8]
 530 00de F6B2     		uxtb	r6, r6
 531 00e0 4F46     		mov	r7, r9
 532 00e2 7E60     		str	r6, [r7, #4]
 911:Generated_Source\PSoC4/USBUART_std.c ****                     USBUART_ARB_EP16_BASE.arbEp[curEp].rwWa16  = (uint32) USBUART_EP[curEp].buffOff
 533              		.loc 1 911 0
 534 00e4 CE88     		ldrh	r6, [r1, #6]
 535 00e6 B6B2     		uxth	r6, r6
 536 00e8 0C4F     		ldr	r7, .L38+20
 537 00ea EF19     		adds	r7, r5, r7
ARM GAS  C:\Users\TERENC~1\AppData\Local\Temp\ccz498Tm.s 			page 28


 538 00ec BE60     		str	r6, [r7, #8]
 912:Generated_Source\PSoC4/USBUART_std.c ****                 #else
 539              		.loc 1 912 0
 540 00ee C988     		ldrh	r1, [r1, #6]
 541 00f0 89B2     		uxth	r1, r1
 542 00f2 0A4E     		ldr	r6, .L38+20
 543 00f4 A951     		str	r1, [r5, r6]
 544              	.LVL35:
 545              	.L30:
 922:Generated_Source\PSoC4/USBUART_std.c ****         }
 546              		.loc 1 922 0 discriminator 2
 547 00f6 0833     		adds	r3, r3, #8
 548              	.LVL36:
 832:Generated_Source\PSoC4/USBUART_std.c ****         {
 549              		.loc 1 832 0 discriminator 2
 550 00f8 0132     		adds	r2, r2, #1
 551              	.LVL37:
 552              	.L29:
 832:Generated_Source\PSoC4/USBUART_std.c ****         {
 553              		.loc 1 832 0 is_stmt 0 discriminator 1
 554 00fa A242     		cmp	r2, r4
 555 00fc 96D3     		bcc	.L35
 556              	.LVL38:
 557              	.L27:
 927:Generated_Source\PSoC4/USBUART_std.c **** 
 558              		.loc 1 927 0 is_stmt 1
 559              		@ sp needed
 560 00fe 1CBC     		pop	{r2, r3, r4}
 561 0100 9046     		mov	r8, r2
 562 0102 9946     		mov	r9, r3
 563 0104 A246     		mov	r10, r4
 564 0106 F0BD     		pop	{r4, r5, r6, r7, pc}
 565              	.L39:
 566              		.align	2
 567              	.L38:
 568 0108 00000000 		.word	USBUART_configuration
 569 010c 00000000 		.word	USBUART_interfaceNumber
 570 0110 00000000 		.word	USBUART_interfaceSetting
 571 0114 00000000 		.word	USBUART_EP
 572 0118 F0FF2B40 		.word	1076625392
 573 011c D0112C40 		.word	1076629968
 574              		.cfi_endproc
 575              	.LFE6:
 576              		.size	USBUART_ConfigAltChanged, .-USBUART_ConfigAltChanged
 577              		.section	.text.USBUART_GetDeviceTablePtr,"ax",%progbits
 578              		.align	2
 579              		.global	USBUART_GetDeviceTablePtr
 580              		.code	16
 581              		.thumb_func
 582              		.type	USBUART_GetDeviceTablePtr, %function
 583              	USBUART_GetDeviceTablePtr:
 584              	.LFB8:
 968:Generated_Source\PSoC4/USBUART_std.c **** 
 969:Generated_Source\PSoC4/USBUART_std.c **** 
 970:Generated_Source\PSoC4/USBUART_std.c **** #if (USBUART_BOS_ENABLE)
 971:Generated_Source\PSoC4/USBUART_std.c ****     /*******************************************************************************
 972:Generated_Source\PSoC4/USBUART_std.c ****     * Function Name: USBUART_GetBOSPtr
ARM GAS  C:\Users\TERENC~1\AppData\Local\Temp\ccz498Tm.s 			page 29


 973:Generated_Source\PSoC4/USBUART_std.c ****     ****************************************************************************//**
 974:Generated_Source\PSoC4/USBUART_std.c ****     *
 975:Generated_Source\PSoC4/USBUART_std.c ****     *  This routine returns a pointer a BOS table entry
 976:Generated_Source\PSoC4/USBUART_std.c ****     *
 977:Generated_Source\PSoC4/USBUART_std.c ****     *  
 978:Generated_Source\PSoC4/USBUART_std.c ****     *
 979:Generated_Source\PSoC4/USBUART_std.c ****     * \return
 980:Generated_Source\PSoC4/USBUART_std.c ****     *  BOS Descriptor pointer or NULL when descriptor does not exist.
 981:Generated_Source\PSoC4/USBUART_std.c ****     *
 982:Generated_Source\PSoC4/USBUART_std.c ****     *******************************************************************************/
 983:Generated_Source\PSoC4/USBUART_std.c ****     const T_USBUART_LUT CYCODE *USBUART_GetBOSPtr(void)
 984:Generated_Source\PSoC4/USBUART_std.c ****                                                             
 985:Generated_Source\PSoC4/USBUART_std.c ****     {
 986:Generated_Source\PSoC4/USBUART_std.c ****         /* Device Table */
 987:Generated_Source\PSoC4/USBUART_std.c ****         const T_USBUART_LUT CYCODE *pTmp;
 988:Generated_Source\PSoC4/USBUART_std.c **** 
 989:Generated_Source\PSoC4/USBUART_std.c ****         pTmp = (const T_USBUART_LUT CYCODE *) USBUART_TABLE[USBUART_device].p_list;
 990:Generated_Source\PSoC4/USBUART_std.c **** 
 991:Generated_Source\PSoC4/USBUART_std.c ****         /* The first entry points to the Device Descriptor,
 992:Generated_Source\PSoC4/USBUART_std.c ****         *  the second entry points to the BOS Descriptor
 993:Generated_Source\PSoC4/USBUART_std.c ****         */
 994:Generated_Source\PSoC4/USBUART_std.c ****         pTmp = &pTmp[1u];
 995:Generated_Source\PSoC4/USBUART_std.c ****         pTmp = (const T_USBUART_LUT CYCODE *) pTmp->p_list;
 996:Generated_Source\PSoC4/USBUART_std.c ****         return (pTmp);
 997:Generated_Source\PSoC4/USBUART_std.c ****     }
 998:Generated_Source\PSoC4/USBUART_std.c **** #endif /* (USBUART_BOS_ENABLE) */
 999:Generated_Source\PSoC4/USBUART_std.c **** 
1000:Generated_Source\PSoC4/USBUART_std.c **** 
1001:Generated_Source\PSoC4/USBUART_std.c **** /*******************************************************************************
1002:Generated_Source\PSoC4/USBUART_std.c **** * Function Name: USBUART_GetDeviceTablePtr
1003:Generated_Source\PSoC4/USBUART_std.c **** ****************************************************************************//**
1004:Generated_Source\PSoC4/USBUART_std.c **** *
1005:Generated_Source\PSoC4/USBUART_std.c **** *  This routine returns a pointer to the Device table
1006:Generated_Source\PSoC4/USBUART_std.c **** *
1007:Generated_Source\PSoC4/USBUART_std.c **** * \return
1008:Generated_Source\PSoC4/USBUART_std.c **** *  Device Table pointer
1009:Generated_Source\PSoC4/USBUART_std.c **** *
1010:Generated_Source\PSoC4/USBUART_std.c **** *******************************************************************************/
1011:Generated_Source\PSoC4/USBUART_std.c **** const T_USBUART_LUT CYCODE *USBUART_GetDeviceTablePtr(void)
1012:Generated_Source\PSoC4/USBUART_std.c ****                                                             
1013:Generated_Source\PSoC4/USBUART_std.c **** {
 585              		.loc 1 1013 0
 586              		.cfi_startproc
 587              		@ args = 0, pretend = 0, frame = 0
 588              		@ frame_needed = 0, uses_anonymous_args = 0
 589              		@ link register save eliminated.
1014:Generated_Source\PSoC4/USBUART_std.c ****     /* Device Table */
1015:Generated_Source\PSoC4/USBUART_std.c ****     return( (const T_USBUART_LUT CYCODE *) USBUART_TABLE[USBUART_device].p_list );
 590              		.loc 1 1015 0
 591 0000 034B     		ldr	r3, .L41
 592 0002 1B78     		ldrb	r3, [r3]
 593 0004 DB00     		lsls	r3, r3, #3
 594 0006 034A     		ldr	r2, .L41+4
 595 0008 D318     		adds	r3, r2, r3
 596 000a 5868     		ldr	r0, [r3, #4]
1016:Generated_Source\PSoC4/USBUART_std.c **** }
 597              		.loc 1 1016 0
ARM GAS  C:\Users\TERENC~1\AppData\Local\Temp\ccz498Tm.s 			page 30


 598              		@ sp needed
 599 000c 7047     		bx	lr
 600              	.L42:
 601 000e C046     		.align	2
 602              	.L41:
 603 0010 00000000 		.word	USBUART_device
 604 0014 00000000 		.word	USBUART_TABLE
 605              		.cfi_endproc
 606              	.LFE8:
 607              		.size	USBUART_GetDeviceTablePtr, .-USBUART_GetDeviceTablePtr
 608              		.section	.text.USBUART_GetInterfaceClassTablePtr,"ax",%progbits
 609              		.align	2
 610              		.global	USBUART_GetInterfaceClassTablePtr
 611              		.code	16
 612              		.thumb_func
 613              		.type	USBUART_GetInterfaceClassTablePtr, %function
 614              	USBUART_GetInterfaceClassTablePtr:
 615              	.LFB9:
1017:Generated_Source\PSoC4/USBUART_std.c **** 
1018:Generated_Source\PSoC4/USBUART_std.c **** 
1019:Generated_Source\PSoC4/USBUART_std.c **** /*******************************************************************************
1020:Generated_Source\PSoC4/USBUART_std.c **** * Function Name: USB_GetInterfaceClassTablePtr
1021:Generated_Source\PSoC4/USBUART_std.c **** ****************************************************************************//**
1022:Generated_Source\PSoC4/USBUART_std.c **** *
1023:Generated_Source\PSoC4/USBUART_std.c **** *  This routine returns Interface Class table pointer, which contains
1024:Generated_Source\PSoC4/USBUART_std.c **** *  the relation between interface number and interface class.
1025:Generated_Source\PSoC4/USBUART_std.c **** *
1026:Generated_Source\PSoC4/USBUART_std.c **** * \return
1027:Generated_Source\PSoC4/USBUART_std.c **** *  Interface Class table pointer.
1028:Generated_Source\PSoC4/USBUART_std.c **** *
1029:Generated_Source\PSoC4/USBUART_std.c **** *******************************************************************************/
1030:Generated_Source\PSoC4/USBUART_std.c **** const uint8 CYCODE *USBUART_GetInterfaceClassTablePtr(void)
1031:Generated_Source\PSoC4/USBUART_std.c ****                                                         
1032:Generated_Source\PSoC4/USBUART_std.c **** {
 616              		.loc 1 1032 0
 617              		.cfi_startproc
 618              		@ args = 0, pretend = 0, frame = 0
 619              		@ frame_needed = 0, uses_anonymous_args = 0
 620 0000 10B5     		push	{r4, lr}
 621              		.cfi_def_cfa_offset 8
 622              		.cfi_offset 4, -8
 623              		.cfi_offset 14, -4
1033:Generated_Source\PSoC4/USBUART_std.c ****     const T_USBUART_LUT CYCODE *pTmp;
1034:Generated_Source\PSoC4/USBUART_std.c ****     const uint8 CYCODE *pInterfaceClass;
1035:Generated_Source\PSoC4/USBUART_std.c ****     uint8 currentInterfacesNum;
1036:Generated_Source\PSoC4/USBUART_std.c **** 
1037:Generated_Source\PSoC4/USBUART_std.c ****     pTmp = USBUART_GetConfigTablePtr(USBUART_configuration - 1u);
 624              		.loc 1 1037 0
 625 0002 084B     		ldr	r3, .L46
 626 0004 1878     		ldrb	r0, [r3]
 627 0006 0138     		subs	r0, r0, #1
 628 0008 C0B2     		uxtb	r0, r0
 629 000a FFF7FEFF 		bl	USBUART_GetConfigTablePtr
 630              	.LVL39:
1038:Generated_Source\PSoC4/USBUART_std.c ****     if (pTmp != NULL)
 631              		.loc 1 1038 0
 632 000e 0028     		cmp	r0, #0
ARM GAS  C:\Users\TERENC~1\AppData\Local\Temp\ccz498Tm.s 			page 31


 633 0010 06D0     		beq	.L45
1039:Generated_Source\PSoC4/USBUART_std.c ****     {
1040:Generated_Source\PSoC4/USBUART_std.c ****         currentInterfacesNum  = ((const uint8 *) pTmp->p_list)[USBUART_CONFIG_DESCR_NUM_INTERFACES]
 634              		.loc 1 1040 0
 635 0012 4368     		ldr	r3, [r0, #4]
 636 0014 1B79     		ldrb	r3, [r3, #4]
 637              	.LVL40:
1041:Generated_Source\PSoC4/USBUART_std.c ****         /* Third entry in the LUT starts the Interface Table pointers */
1042:Generated_Source\PSoC4/USBUART_std.c ****         /* The INTERFACE_CLASS table is located after all interfaces */
1043:Generated_Source\PSoC4/USBUART_std.c ****         pTmp = &pTmp[currentInterfacesNum + 2u];
 638              		.loc 1 1043 0
 639 0016 0233     		adds	r3, r3, #2
 640              	.LVL41:
 641 0018 DB00     		lsls	r3, r3, #3
 642              	.LVL42:
 643 001a C018     		adds	r0, r0, r3
 644              	.LVL43:
1044:Generated_Source\PSoC4/USBUART_std.c ****         pInterfaceClass = (const uint8 CYCODE *) pTmp->p_list;
 645              		.loc 1 1044 0
 646 001c 4068     		ldr	r0, [r0, #4]
 647              	.LVL44:
 648 001e 00E0     		b	.L44
 649              	.LVL45:
 650              	.L45:
1045:Generated_Source\PSoC4/USBUART_std.c ****     }
1046:Generated_Source\PSoC4/USBUART_std.c ****     else
1047:Generated_Source\PSoC4/USBUART_std.c ****     {
1048:Generated_Source\PSoC4/USBUART_std.c ****         pInterfaceClass = (const uint8 CYCODE *) NULL;
 651              		.loc 1 1048 0
 652 0020 0020     		movs	r0, #0
 653              	.LVL46:
 654              	.L44:
1049:Generated_Source\PSoC4/USBUART_std.c ****     }
1050:Generated_Source\PSoC4/USBUART_std.c **** 
1051:Generated_Source\PSoC4/USBUART_std.c ****     return (pInterfaceClass);
1052:Generated_Source\PSoC4/USBUART_std.c **** }
 655              		.loc 1 1052 0
 656              		@ sp needed
 657 0022 10BD     		pop	{r4, pc}
 658              	.L47:
 659              		.align	2
 660              	.L46:
 661 0024 00000000 		.word	USBUART_configuration
 662              		.cfi_endproc
 663              	.LFE9:
 664              		.size	USBUART_GetInterfaceClassTablePtr, .-USBUART_GetInterfaceClassTablePtr
 665              		.section	.text.USBUART_Config,"ax",%progbits
 666              		.align	2
 667              		.global	USBUART_Config
 668              		.code	16
 669              		.thumb_func
 670              		.type	USBUART_Config, %function
 671              	USBUART_Config:
 672              	.LFB5:
 571:Generated_Source\PSoC4/USBUART_std.c ****     uint8 ep;
 673              		.loc 1 571 0
 674              		.cfi_startproc
ARM GAS  C:\Users\TERENC~1\AppData\Local\Temp\ccz498Tm.s 			page 32


 675              		@ args = 0, pretend = 0, frame = 8
 676              		@ frame_needed = 0, uses_anonymous_args = 0
 677              	.LVL47:
 678 0000 F0B5     		push	{r4, r5, r6, r7, lr}
 679              		.cfi_def_cfa_offset 20
 680              		.cfi_offset 4, -20
 681              		.cfi_offset 5, -16
 682              		.cfi_offset 6, -12
 683              		.cfi_offset 7, -8
 684              		.cfi_offset 14, -4
 685 0002 5746     		mov	r7, r10
 686 0004 4E46     		mov	r6, r9
 687 0006 4546     		mov	r5, r8
 688 0008 E0B4     		push	{r5, r6, r7}
 689              		.cfi_def_cfa_offset 32
 690              		.cfi_offset 8, -32
 691              		.cfi_offset 9, -28
 692              		.cfi_offset 10, -24
 693 000a 82B0     		sub	sp, sp, #8
 694              		.cfi_def_cfa_offset 40
 695              	.LVL48:
 586:Generated_Source\PSoC4/USBUART_std.c ****     {
 696              		.loc 1 586 0
 697 000c 0023     		movs	r3, #0
 698 000e 12E0     		b	.L49
 699              	.LVL49:
 700              	.L50:
 588:Generated_Source\PSoC4/USBUART_std.c ****         USBUART_EP[ep].hwEpState  = 0u;
 701              		.loc 1 588 0 discriminator 3
 702 0010 724E     		ldr	r6, .L75
 703 0012 5900     		lsls	r1, r3, #1
 704 0014 CC18     		adds	r4, r1, r3
 705 0016 A200     		lsls	r2, r4, #2
 706 0018 0024     		movs	r4, #0
 707 001a 9455     		strb	r4, [r2, r6]
 589:Generated_Source\PSoC4/USBUART_std.c ****         USBUART_EP[ep].epToggle   = 0u;
 708              		.loc 1 589 0 discriminator 3
 709 001c B218     		adds	r2, r6, r2
 710 001e 9470     		strb	r4, [r2, #2]
 590:Generated_Source\PSoC4/USBUART_std.c ****         USBUART_EP[ep].bufferSize = 0u;
 711              		.loc 1 590 0 discriminator 3
 712 0020 D470     		strb	r4, [r2, #3]
 591:Generated_Source\PSoC4/USBUART_std.c ****         USBUART_EP[ep].interface  = 0u;
 713              		.loc 1 591 0 discriminator 3
 714 0022 0025     		movs	r5, #0
 715 0024 1481     		strh	r4, [r2, #8]
 592:Generated_Source\PSoC4/USBUART_std.c ****         USBUART_EP[ep].apiEpState = USBUART_NO_EVENT_PENDING;
 716              		.loc 1 592 0 discriminator 3
 717 0026 9572     		strb	r5, [r2, #10]
 593:Generated_Source\PSoC4/USBUART_std.c ****         USBUART_EP[ep].epMode     = USBUART_MODE_DISABLE;   
 718              		.loc 1 593 0 discriminator 3
 719 0028 5570     		strb	r5, [r2, #1]
 594:Generated_Source\PSoC4/USBUART_std.c ****     }
 720              		.loc 1 594 0 discriminator 3
 721 002a C918     		adds	r1, r1, r3
 722 002c 8A00     		lsls	r2, r1, #2
 723 002e B218     		adds	r2, r6, r2
ARM GAS  C:\Users\TERENC~1\AppData\Local\Temp\ccz498Tm.s 			page 33


 724 0030 5571     		strb	r5, [r2, #5]
 586:Generated_Source\PSoC4/USBUART_std.c ****     {
 725              		.loc 1 586 0 discriminator 3
 726 0032 0133     		adds	r3, r3, #1
 727              	.LVL50:
 728 0034 DBB2     		uxtb	r3, r3
 729              	.LVL51:
 730              	.L49:
 586:Generated_Source\PSoC4/USBUART_std.c ****     {
 731              		.loc 1 586 0 is_stmt 0 discriminator 1
 732 0036 082B     		cmp	r3, #8
 733 0038 EAD9     		bls	.L50
 598:Generated_Source\PSoC4/USBUART_std.c ****     {
 734              		.loc 1 598 0 is_stmt 1
 735 003a 0028     		cmp	r0, #0
 736 003c 08D1     		bne	.L72
 737 003e 0AE0     		b	.L52
 738              	.LVL52:
 739              	.L53:
 602:Generated_Source\PSoC4/USBUART_std.c ****             USBUART_interfaceSettingLast[i] = 0u;
 740              		.loc 1 602 0 discriminator 3
 741 0040 0022     		movs	r2, #0
 742 0042 6749     		ldr	r1, .L75+4
 743 0044 CA54     		strb	r2, [r1, r3]
 603:Generated_Source\PSoC4/USBUART_std.c ****         }
 744              		.loc 1 603 0 discriminator 3
 745 0046 6749     		ldr	r1, .L75+8
 746 0048 CA54     		strb	r2, [r1, r3]
 600:Generated_Source\PSoC4/USBUART_std.c ****         {
 747              		.loc 1 600 0 discriminator 3
 748 004a 0133     		adds	r3, r3, #1
 749              	.LVL53:
 750 004c DBB2     		uxtb	r3, r3
 751              	.LVL54:
 752 004e 00E0     		b	.L51
 753              	.LVL55:
 754              	.L72:
 755 0050 0023     		movs	r3, #0
 756              	.LVL56:
 757              	.L51:
 600:Generated_Source\PSoC4/USBUART_std.c ****         {
 758              		.loc 1 600 0 is_stmt 0 discriminator 1
 759 0052 012B     		cmp	r3, #1
 760 0054 F4D9     		bls	.L53
 761              	.LVL57:
 762              	.L52:
 608:Generated_Source\PSoC4/USBUART_std.c ****     {
 763              		.loc 1 608 0 is_stmt 1
 764 0056 644B     		ldr	r3, .L75+12
 765 0058 1B78     		ldrb	r3, [r3]
 766 005a 002B     		cmp	r3, #0
 767 005c 00D1     		bne	.LCB749
 768 005e B6E0     		b	.L48	@long jump
 769              	.LCB749:
 770              	.LVL58:
 771              	.LBB2:
 614:Generated_Source\PSoC4/USBUART_std.c ****         
ARM GAS  C:\Users\TERENC~1\AppData\Local\Temp\ccz498Tm.s 			page 34


 772              		.loc 1 614 0
 773 0060 614B     		ldr	r3, .L75+12
 774 0062 1878     		ldrb	r0, [r3]
 775              	.LVL59:
 776 0064 0138     		subs	r0, r0, #1
 777 0066 C0B2     		uxtb	r0, r0
 778 0068 FFF7FEFF 		bl	USBUART_GetConfigTablePtr
 779              	.LVL60:
 780 006c 8046     		mov	r8, r0
 781              	.LVL61:
 618:Generated_Source\PSoC4/USBUART_std.c ****         {
 782              		.loc 1 618 0
 783 006e 4368     		ldr	r3, [r0, #4]
 784 0070 DB79     		ldrb	r3, [r3, #7]
 785 0072 5B06     		lsls	r3, r3, #25
 786 0074 06D5     		bpl	.L55
 620:Generated_Source\PSoC4/USBUART_std.c ****         }
 787              		.loc 1 620 0
 788 0076 5D4A     		ldr	r2, .L75+16
 789 0078 1178     		ldrb	r1, [r2]
 790 007a 0123     		movs	r3, #1
 791 007c 0B43     		orrs	r3, r1
 792 007e DBB2     		uxtb	r3, r3
 793 0080 1370     		strb	r3, [r2]
 794 0082 04E0     		b	.L56
 795              	.L55:
 624:Generated_Source\PSoC4/USBUART_std.c ****         }
 796              		.loc 1 624 0
 797 0084 594A     		ldr	r2, .L75+16
 798 0086 1378     		ldrb	r3, [r2]
 799 0088 0121     		movs	r1, #1
 800 008a 8B43     		bics	r3, r1
 801 008c 1370     		strb	r3, [r2]
 802              	.L56:
 803              	.LVL62:
 629:Generated_Source\PSoC4/USBUART_std.c **** 
 804              		.loc 1 629 0
 805 008e 4346     		mov	r3, r8
 806 0090 1F7A     		ldrb	r7, [r3, #8]
 807              	.LVL63:
 611:Generated_Source\PSoC4/USBUART_std.c ****         #endif  /* (USBUART_ENABLE_CDC_CLASS) */  
 808              		.loc 1 611 0
 809 0092 0023     		movs	r3, #0
 810 0094 0193     		str	r3, [sp, #4]
 687:Generated_Source\PSoC4/USBUART_std.c ****             {
 811              		.loc 1 687 0
 812 0096 0126     		movs	r6, #1
 813 0098 6EE0     		b	.L57
 814              	.LVL64:
 815              	.L67:
 690:Generated_Source\PSoC4/USBUART_std.c ****                 /* Find max length for each EP and select it (length could be different in differen
 816              		.loc 1 690 0
 817 009a 4346     		mov	r3, r8
 818 009c DD68     		ldr	r5, [r3, #12]
 819              	.LVL65:
 694:Generated_Source\PSoC4/USBUART_std.c ****                 {
 820              		.loc 1 694 0
ARM GAS  C:\Users\TERENC~1\AppData\Local\Temp\ccz498Tm.s 			page 35


 821 009e 0024     		movs	r4, #0
 822 00a0 66E0     		b	.L58
 823              	.LVL66:
 824              	.L66:
 696:Generated_Source\PSoC4/USBUART_std.c ****                     {
 825              		.loc 1 696 0
 826 00a2 AB78     		ldrb	r3, [r5, #2]
 827 00a4 7F21     		movs	r1, #127
 828 00a6 0B40     		ands	r3, r1
 829 00a8 9E42     		cmp	r6, r3
 830 00aa 5ED1     		bne	.L59
 699:Generated_Source\PSoC4/USBUART_std.c ****                         {
 831              		.loc 1 699 0
 832 00ac 3000     		movs	r0, r6
 833 00ae 7100     		lsls	r1, r6, #1
 834 00b0 8919     		adds	r1, r1, r6
 835 00b2 8B00     		lsls	r3, r1, #2
 836 00b4 4949     		ldr	r1, .L75
 837 00b6 CB18     		adds	r3, r1, r3
 838 00b8 1B89     		ldrh	r3, [r3, #8]
 839 00ba 9BB2     		uxth	r3, r3
 840 00bc A988     		ldrh	r1, [r5, #4]
 841 00be 8B42     		cmp	r3, r1
 842 00c0 05D2     		bcs	.L60
 701:Generated_Source\PSoC4/USBUART_std.c ****                         }
 843              		.loc 1 701 0
 844 00c2 7300     		lsls	r3, r6, #1
 845 00c4 9A19     		adds	r2, r3, r6
 846 00c6 9300     		lsls	r3, r2, #2
 847 00c8 444A     		ldr	r2, .L75
 848 00ca D318     		adds	r3, r2, r3
 849 00cc 1981     		strh	r1, [r3, #8]
 850              	.L60:
 705:Generated_Source\PSoC4/USBUART_std.c ****                         {                            
 851              		.loc 1 705 0
 852 00ce 2B78     		ldrb	r3, [r5]
 853 00d0 4349     		ldr	r1, .L75+4
 854 00d2 CB5C     		ldrb	r3, [r1, r3]
 855 00d4 DBB2     		uxtb	r3, r3
 856 00d6 6978     		ldrb	r1, [r5, #1]
 857 00d8 8B42     		cmp	r3, r1
 858 00da 46D1     		bne	.L59
 707:Generated_Source\PSoC4/USBUART_std.c ****                             USBUART_EP[i].attrib = pEP->attributes;
 859              		.loc 1 707 0
 860 00dc AB78     		ldrb	r3, [r5, #2]
 861 00de 9A46     		mov	r10, r3
 862 00e0 3E4B     		ldr	r3, .L75
 863 00e2 9C46     		mov	ip, r3
 864 00e4 4300     		lsls	r3, r0, #1
 865 00e6 1918     		adds	r1, r3, r0
 866 00e8 8900     		lsls	r1, r1, #2
 867 00ea 6144     		add	r1, r1, ip
 868 00ec 5246     		mov	r2, r10
 869 00ee 0A71     		strb	r2, [r1, #4]
 708:Generated_Source\PSoC4/USBUART_std.c ****                             
 870              		.loc 1 708 0
 871 00f0 EA78     		ldrb	r2, [r5, #3]
ARM GAS  C:\Users\TERENC~1\AppData\Local\Temp\ccz498Tm.s 			page 36


 872 00f2 1B18     		adds	r3, r3, r0
 873 00f4 9900     		lsls	r1, r3, #2
 874 00f6 131C     		adds	r3, r2, #0
 875 00f8 6246     		mov	r2, ip
 876 00fa 8B54     		strb	r3, [r1, r2]
 710:Generated_Source\PSoC4/USBUART_std.c ****                             
 877              		.loc 1 710 0
 878 00fc EB78     		ldrb	r3, [r5, #3]
 879 00fe 0321     		movs	r1, #3
 880 0100 0B40     		ands	r3, r1
 881              	.LVL67:
 712:Generated_Source\PSoC4/USBUART_std.c ****                             {
 882              		.loc 1 712 0
 883 0102 0221     		movs	r1, #2
 884 0104 6956     		ldrsb	r1, [r5, r1]
 885 0106 0029     		cmp	r1, #0
 886 0108 12DA     		bge	.L61
 715:Generated_Source\PSoC4/USBUART_std.c ****                                 USBUART_EP[i].apiEpState = USBUART_EVENT_PENDING;
 887              		.loc 1 715 0
 888 010a 012B     		cmp	r3, #1
 889 010c 02D1     		bne	.L73
 890 010e 0633     		adds	r3, r3, #6
 891              	.LVL68:
 892 0110 9A46     		mov	r10, r3
 893 0112 01E0     		b	.L62
 894              	.LVL69:
 895              	.L73:
 896 0114 0D23     		movs	r3, #13
 897              	.LVL70:
 898 0116 9A46     		mov	r10, r3
 899              	.L62:
 715:Generated_Source\PSoC4/USBUART_std.c ****                                 USBUART_EP[i].apiEpState = USBUART_EVENT_PENDING;
 900              		.loc 1 715 0 is_stmt 0 discriminator 4
 901 0118 304B     		ldr	r3, .L75
 902 011a 9C46     		mov	ip, r3
 903 011c 4300     		lsls	r3, r0, #1
 904 011e 1918     		adds	r1, r3, r0
 905 0120 8900     		lsls	r1, r1, #2
 906 0122 6144     		add	r1, r1, ip
 907 0124 5246     		mov	r2, r10
 908 0126 4A71     		strb	r2, [r1, #5]
 909              	.LVL71:
 716:Generated_Source\PSoC4/USBUART_std.c ****                                 
 910              		.loc 1 716 0 is_stmt 1 discriminator 4
 911 0128 0B00     		movs	r3, r1
 912 012a 0121     		movs	r1, #1
 913 012c 5970     		strb	r1, [r3, #1]
 914 012e 11E0     		b	.L63
 915              	.LVL72:
 916              	.L61:
 728:Generated_Source\PSoC4/USBUART_std.c ****                                 USBUART_EP[i].apiEpState = USBUART_NO_EVENT_PENDING;
 917              		.loc 1 728 0
 918 0130 012B     		cmp	r3, #1
 919 0132 02D1     		bne	.L74
 920 0134 0433     		adds	r3, r3, #4
 921              	.LVL73:
 922 0136 9A46     		mov	r10, r3
ARM GAS  C:\Users\TERENC~1\AppData\Local\Temp\ccz498Tm.s 			page 37


 923 0138 01E0     		b	.L64
 924              	.LVL74:
 925              	.L74:
 926 013a 0923     		movs	r3, #9
 927              	.LVL75:
 928 013c 9A46     		mov	r10, r3
 929              	.L64:
 728:Generated_Source\PSoC4/USBUART_std.c ****                                 USBUART_EP[i].apiEpState = USBUART_NO_EVENT_PENDING;
 930              		.loc 1 728 0 is_stmt 0 discriminator 4
 931 013e 274B     		ldr	r3, .L75
 932 0140 9C46     		mov	ip, r3
 933 0142 4300     		lsls	r3, r0, #1
 934 0144 1918     		adds	r1, r3, r0
 935 0146 8900     		lsls	r1, r1, #2
 936 0148 6144     		add	r1, r1, ip
 937 014a 5246     		mov	r2, r10
 938 014c 4A71     		strb	r2, [r1, #5]
 939              	.LVL76:
 729:Generated_Source\PSoC4/USBUART_std.c ****                                 
 940              		.loc 1 729 0 is_stmt 1 discriminator 4
 941 014e 0B00     		movs	r3, r1
 942 0150 0021     		movs	r1, #0
 943 0152 5970     		strb	r1, [r3, #1]
 944              	.L63:
 740:Generated_Source\PSoC4/USBUART_std.c ****                             {
 945              		.loc 1 740 0
 946 0154 AB79     		ldrb	r3, [r5, #6]
 947 0156 0A2B     		cmp	r3, #10
 948 0158 01D0     		beq	.L65
 740:Generated_Source\PSoC4/USBUART_std.c ****                             {
 949              		.loc 1 740 0 is_stmt 0 discriminator 1
 950 015a 022B     		cmp	r3, #2
 951 015c 05D1     		bne	.L59
 952              	.L65:
 742:Generated_Source\PSoC4/USBUART_std.c ****                             }
 953              		.loc 1 742 0 is_stmt 1
 954 015e 019A     		ldr	r2, [sp, #4]
 955 0160 3100     		movs	r1, r6
 956 0162 2800     		movs	r0, r5
 957 0164 FFF7FEFF 		bl	USBUART_Cdc_EpInit
 958              	.LVL77:
 959 0168 0190     		str	r0, [sp, #4]
 960              	.LVL78:
 961              	.L59:
 752:Generated_Source\PSoC4/USBUART_std.c ****                 }
 962              		.loc 1 752 0 discriminator 2
 963 016a 0835     		adds	r5, r5, #8
 964              	.LVL79:
 694:Generated_Source\PSoC4/USBUART_std.c ****                 {
 965              		.loc 1 694 0 discriminator 2
 966 016c 0134     		adds	r4, r4, #1
 967              	.LVL80:
 968 016e E4B2     		uxtb	r4, r4
 969              	.LVL81:
 970              	.L58:
 694:Generated_Source\PSoC4/USBUART_std.c ****                 {
 971              		.loc 1 694 0 is_stmt 0 discriminator 1
ARM GAS  C:\Users\TERENC~1\AppData\Local\Temp\ccz498Tm.s 			page 38


 972 0170 BC42     		cmp	r4, r7
 973 0172 96D3     		bcc	.L66
 687:Generated_Source\PSoC4/USBUART_std.c ****             {
 974              		.loc 1 687 0 is_stmt 1 discriminator 2
 975 0174 0136     		adds	r6, r6, #1
 976              	.LVL82:
 977 0176 F6B2     		uxtb	r6, r6
 978              	.LVL83:
 979              	.L57:
 687:Generated_Source\PSoC4/USBUART_std.c ****             {
 980              		.loc 1 687 0 is_stmt 0 discriminator 1
 981 0178 082E     		cmp	r6, #8
 982 017a 8ED9     		bls	.L67
 762:Generated_Source\PSoC4/USBUART_std.c ****         for (i = 0u; i < ep; i++)
 983              		.loc 1 762 0 is_stmt 1
 984 017c 4346     		mov	r3, r8
 985 017e D868     		ldr	r0, [r3, #12]
 986              	.LVL84:
 763:Generated_Source\PSoC4/USBUART_std.c ****         {
 987              		.loc 1 763 0
 988 0180 0022     		movs	r2, #0
 989 0182 0CE0     		b	.L68
 990              	.LVL85:
 991              	.L69:
 766:Generated_Source\PSoC4/USBUART_std.c ****             pEP = &pEP[1u];
 992              		.loc 1 766 0 discriminator 3
 993 0184 8378     		ldrb	r3, [r0, #2]
 994 0186 7F21     		movs	r1, #127
 995 0188 0B40     		ands	r3, r1
 996 018a 0478     		ldrb	r4, [r0]
 997 018c 5900     		lsls	r1, r3, #1
 998 018e CB18     		adds	r3, r1, r3
 999 0190 9900     		lsls	r1, r3, #2
 1000 0192 124B     		ldr	r3, .L75
 1001 0194 5918     		adds	r1, r3, r1
 1002 0196 8C72     		strb	r4, [r1, #10]
 767:Generated_Source\PSoC4/USBUART_std.c ****         }
 1003              		.loc 1 767 0 discriminator 3
 1004 0198 0830     		adds	r0, r0, #8
 1005              	.LVL86:
 763:Generated_Source\PSoC4/USBUART_std.c ****         {
 1006              		.loc 1 763 0 discriminator 3
 1007 019a 0132     		adds	r2, r2, #1
 1008              	.LVL87:
 1009 019c D2B2     		uxtb	r2, r2
 1010              	.LVL88:
 1011              	.L68:
 763:Generated_Source\PSoC4/USBUART_std.c ****         {
 1012              		.loc 1 763 0 is_stmt 0 discriminator 1
 1013 019e BA42     		cmp	r2, r7
 1014 01a0 F0D3     		bcc	.L69
 771:Generated_Source\PSoC4/USBUART_std.c ****         
 1015              		.loc 1 771 0 is_stmt 1
 1016 01a2 FFF7FEFF 		bl	USBUART_GetInterfaceClassTablePtr
 1017              	.LVL89:
 1018 01a6 124B     		ldr	r3, .L75+20
 1019 01a8 1860     		str	r0, [r3]
ARM GAS  C:\Users\TERENC~1\AppData\Local\Temp\ccz498Tm.s 			page 39


 1020              	.LVL90:
 775:Generated_Source\PSoC4/USBUART_std.c ****         for (ep = USBUART_EP1; ep < USBUART_MAX_EP; ++ep)
 1021              		.loc 1 775 0
 1022 01aa 0021     		movs	r1, #0
 776:Generated_Source\PSoC4/USBUART_std.c ****         {
 1023              		.loc 1 776 0
 1024 01ac 0123     		movs	r3, #1
 1025 01ae 0AE0     		b	.L70
 1026              	.LVL91:
 1027              	.L71:
 778:Generated_Source\PSoC4/USBUART_std.c ****             buffCount += USBUART_EP[ep].bufferSize;
 1028              		.loc 1 778 0 discriminator 3
 1029 01b0 0A4D     		ldr	r5, .L75
 1030 01b2 5A00     		lsls	r2, r3, #1
 1031 01b4 D018     		adds	r0, r2, r3
 1032 01b6 8400     		lsls	r4, r0, #2
 1033 01b8 2C19     		adds	r4, r5, r4
 1034 01ba E180     		strh	r1, [r4, #6]
 779:Generated_Source\PSoC4/USBUART_std.c ****             
 1035              		.loc 1 779 0 discriminator 3
 1036 01bc 2289     		ldrh	r2, [r4, #8]
 1037 01be 5118     		adds	r1, r2, r1
 1038              	.LVL92:
 1039 01c0 89B2     		uxth	r1, r1
 1040              	.LVL93:
 776:Generated_Source\PSoC4/USBUART_std.c ****         {
 1041              		.loc 1 776 0 discriminator 3
 1042 01c2 0133     		adds	r3, r3, #1
 1043              	.LVL94:
 1044 01c4 DBB2     		uxtb	r3, r3
 1045              	.LVL95:
 1046              	.L70:
 776:Generated_Source\PSoC4/USBUART_std.c ****         {
 1047              		.loc 1 776 0 is_stmt 0 discriminator 1
 1048 01c6 082B     		cmp	r3, #8
 1049 01c8 F2D9     		bls	.L71
 789:Generated_Source\PSoC4/USBUART_std.c ****     }
 1050              		.loc 1 789 0 is_stmt 1
 1051 01ca FFF7FEFF 		bl	USBUART_ConfigReg
 1052              	.LVL96:
 1053              	.L48:
 1054              	.LBE2:
 791:Generated_Source\PSoC4/USBUART_std.c **** 
 1055              		.loc 1 791 0
 1056 01ce 02B0     		add	sp, sp, #8
 1057              		@ sp needed
 1058 01d0 1CBC     		pop	{r2, r3, r4}
 1059 01d2 9046     		mov	r8, r2
 1060 01d4 9946     		mov	r9, r3
 1061 01d6 A246     		mov	r10, r4
 1062 01d8 F0BD     		pop	{r4, r5, r6, r7, pc}
 1063              	.L76:
 1064 01da C046     		.align	2
 1065              	.L75:
 1066 01dc 00000000 		.word	USBUART_EP
 1067 01e0 00000000 		.word	USBUART_interfaceSetting
 1068 01e4 00000000 		.word	USBUART_interfaceSettingLast
ARM GAS  C:\Users\TERENC~1\AppData\Local\Temp\ccz498Tm.s 			page 40


 1069 01e8 00000000 		.word	USBUART_configuration
 1070 01ec 00000000 		.word	USBUART_deviceStatus
 1071 01f0 00000000 		.word	USBUART_interfaceClass
 1072              		.cfi_endproc
 1073              	.LFE5:
 1074              		.size	USBUART_Config, .-USBUART_Config
 1075              		.section	.text.USBUART_TerminateEP,"ax",%progbits
 1076              		.align	2
 1077              		.global	USBUART_TerminateEP
 1078              		.code	16
 1079              		.thumb_func
 1080              		.type	USBUART_TerminateEP, %function
 1081              	USBUART_TerminateEP:
 1082              	.LFB10:
1053:Generated_Source\PSoC4/USBUART_std.c **** 
1054:Generated_Source\PSoC4/USBUART_std.c **** 
1055:Generated_Source\PSoC4/USBUART_std.c **** /*******************************************************************************
1056:Generated_Source\PSoC4/USBUART_std.c **** * Function Name: USBUART_TerminateEP
1057:Generated_Source\PSoC4/USBUART_std.c **** ****************************************************************************//**
1058:Generated_Source\PSoC4/USBUART_std.c **** *
1059:Generated_Source\PSoC4/USBUART_std.c **** *  This function terminates the specified USBFS endpoint.
1060:Generated_Source\PSoC4/USBUART_std.c **** *  This function should be used before endpoint reconfiguration.
1061:Generated_Source\PSoC4/USBUART_std.c **** *
1062:Generated_Source\PSoC4/USBUART_std.c **** *  \param ep Contains the data endpoint number.
1063:Generated_Source\PSoC4/USBUART_std.c **** *
1064:Generated_Source\PSoC4/USBUART_std.c **** *  \reentrant
1065:Generated_Source\PSoC4/USBUART_std.c **** *  No.
1066:Generated_Source\PSoC4/USBUART_std.c **** *
1067:Generated_Source\PSoC4/USBUART_std.c **** * \sideeffect
1068:Generated_Source\PSoC4/USBUART_std.c **** * 
1069:Generated_Source\PSoC4/USBUART_std.c **** * The device responds with a NAK for any transactions on the selected endpoint.
1070:Generated_Source\PSoC4/USBUART_std.c **** *   
1071:Generated_Source\PSoC4/USBUART_std.c **** *******************************************************************************/
1072:Generated_Source\PSoC4/USBUART_std.c **** void USBUART_TerminateEP(uint8 epNumber) 
1073:Generated_Source\PSoC4/USBUART_std.c **** {
 1083              		.loc 1 1073 0
 1084              		.cfi_startproc
 1085              		@ args = 0, pretend = 0, frame = 0
 1086              		@ frame_needed = 0, uses_anonymous_args = 0
 1087              		@ link register save eliminated.
 1088              	.LVL97:
1074:Generated_Source\PSoC4/USBUART_std.c ****     /* Get endpoint number */
1075:Generated_Source\PSoC4/USBUART_std.c ****     epNumber &= USBUART_DIR_UNUSED;
 1089              		.loc 1 1075 0
 1090 0000 7F23     		movs	r3, #127
 1091 0002 1840     		ands	r0, r3
 1092              	.LVL98:
1076:Generated_Source\PSoC4/USBUART_std.c **** 
1077:Generated_Source\PSoC4/USBUART_std.c ****     if ((epNumber > USBUART_EP0) && (epNumber < USBUART_MAX_EP))
 1093              		.loc 1 1077 0
 1094 0004 431E     		subs	r3, r0, #1
 1095 0006 DBB2     		uxtb	r3, r3
 1096 0008 072B     		cmp	r3, #7
 1097 000a 1ED8     		bhi	.L77
1078:Generated_Source\PSoC4/USBUART_std.c ****     {
1079:Generated_Source\PSoC4/USBUART_std.c ****         /* Set the endpoint Halt */
1080:Generated_Source\PSoC4/USBUART_std.c ****         USBUART_EP[epNumber].hwEpState |= USBUART_ENDPOINT_STATUS_HALT;
ARM GAS  C:\Users\TERENC~1\AppData\Local\Temp\ccz498Tm.s 			page 41


 1098              		.loc 1 1080 0
 1099 000c 4200     		lsls	r2, r0, #1
 1100 000e 1218     		adds	r2, r2, r0
 1101 0010 9300     		lsls	r3, r2, #2
 1102 0012 0E4A     		ldr	r2, .L80
 1103 0014 D318     		adds	r3, r2, r3
 1104 0016 9978     		ldrb	r1, [r3, #2]
 1105 0018 0122     		movs	r2, #1
 1106 001a 0A43     		orrs	r2, r1
 1107 001c D2B2     		uxtb	r2, r2
 1108 001e 9A70     		strb	r2, [r3, #2]
1081:Generated_Source\PSoC4/USBUART_std.c **** 
1082:Generated_Source\PSoC4/USBUART_std.c ****         /* Clear the data toggle */
1083:Generated_Source\PSoC4/USBUART_std.c ****         USBUART_EP[epNumber].epToggle = 0u;
 1109              		.loc 1 1083 0
 1110 0020 0022     		movs	r2, #0
 1111 0022 DA70     		strb	r2, [r3, #3]
1084:Generated_Source\PSoC4/USBUART_std.c ****         USBUART_EP[epNumber].apiEpState = USBUART_NO_EVENT_ALLOWED;
 1112              		.loc 1 1084 0
 1113 0024 0232     		adds	r2, r2, #2
 1114 0026 5A70     		strb	r2, [r3, #1]
1085:Generated_Source\PSoC4/USBUART_std.c **** 
1086:Generated_Source\PSoC4/USBUART_std.c ****         if ((USBUART_EP[epNumber].addr & USBUART_DIR_IN) != 0u)
 1115              		.loc 1 1086 0
 1116 0028 1B79     		ldrb	r3, [r3, #4]
 1117 002a 5BB2     		sxtb	r3, r3
 1118 002c 002B     		cmp	r3, #0
 1119 002e 06DA     		bge	.L79
1087:Generated_Source\PSoC4/USBUART_std.c ****         {   
1088:Generated_Source\PSoC4/USBUART_std.c ****             /* IN Endpoint */
1089:Generated_Source\PSoC4/USBUART_std.c ****             USBUART_SIE_EP_BASE.sieEp[epNumber].epCr0 = USBUART_MODE_NAK_IN;
 1120              		.loc 1 1089 0
 1121 0030 8001     		lsls	r0, r0, #6
 1122              	.LVL99:
 1123 0032 074B     		ldr	r3, .L80+4
 1124 0034 9C46     		mov	ip, r3
 1125 0036 6044     		add	r0, r0, ip
 1126 0038 0C23     		movs	r3, #12
 1127 003a 8360     		str	r3, [r0, #8]
 1128 003c 05E0     		b	.L77
 1129              	.LVL100:
 1130              	.L79:
1090:Generated_Source\PSoC4/USBUART_std.c ****         }
1091:Generated_Source\PSoC4/USBUART_std.c ****         else
1092:Generated_Source\PSoC4/USBUART_std.c ****         {
1093:Generated_Source\PSoC4/USBUART_std.c ****             /* OUT Endpoint */
1094:Generated_Source\PSoC4/USBUART_std.c ****             USBUART_SIE_EP_BASE.sieEp[epNumber].epCr0 = USBUART_MODE_NAK_OUT;
 1131              		.loc 1 1094 0
 1132 003e 8001     		lsls	r0, r0, #6
 1133              	.LVL101:
 1134 0040 034B     		ldr	r3, .L80+4
 1135 0042 9C46     		mov	ip, r3
 1136 0044 6044     		add	r0, r0, ip
 1137 0046 0823     		movs	r3, #8
 1138 0048 8360     		str	r3, [r0, #8]
 1139              	.L77:
1095:Generated_Source\PSoC4/USBUART_std.c ****         }
ARM GAS  C:\Users\TERENC~1\AppData\Local\Temp\ccz498Tm.s 			page 42


1096:Generated_Source\PSoC4/USBUART_std.c ****     }
1097:Generated_Source\PSoC4/USBUART_std.c **** }
 1140              		.loc 1 1097 0
 1141              		@ sp needed
 1142 004a 7047     		bx	lr
 1143              	.L81:
 1144              		.align	2
 1145              	.L80:
 1146 004c 00000000 		.word	USBUART_EP
 1147 0050 F0FF2B40 		.word	1076625392
 1148              		.cfi_endproc
 1149              	.LFE10:
 1150              		.size	USBUART_TerminateEP, .-USBUART_TerminateEP
 1151              		.section	.text.USBUART_SetEndpointHalt,"ax",%progbits
 1152              		.align	2
 1153              		.global	USBUART_SetEndpointHalt
 1154              		.code	16
 1155              		.thumb_func
 1156              		.type	USBUART_SetEndpointHalt, %function
 1157              	USBUART_SetEndpointHalt:
 1158              	.LFB11:
1098:Generated_Source\PSoC4/USBUART_std.c **** 
1099:Generated_Source\PSoC4/USBUART_std.c **** 
1100:Generated_Source\PSoC4/USBUART_std.c **** /*******************************************************************************
1101:Generated_Source\PSoC4/USBUART_std.c **** * Function Name: USBUART_SetEndpointHalt
1102:Generated_Source\PSoC4/USBUART_std.c **** ****************************************************************************//**
1103:Generated_Source\PSoC4/USBUART_std.c **** *
1104:Generated_Source\PSoC4/USBUART_std.c **** *  This routine handles set endpoint halt.
1105:Generated_Source\PSoC4/USBUART_std.c **** *
1106:Generated_Source\PSoC4/USBUART_std.c **** * \return
1107:Generated_Source\PSoC4/USBUART_std.c **** *  requestHandled.
1108:Generated_Source\PSoC4/USBUART_std.c **** *
1109:Generated_Source\PSoC4/USBUART_std.c **** * \reentrant
1110:Generated_Source\PSoC4/USBUART_std.c **** *  No.
1111:Generated_Source\PSoC4/USBUART_std.c **** *
1112:Generated_Source\PSoC4/USBUART_std.c **** *******************************************************************************/
1113:Generated_Source\PSoC4/USBUART_std.c **** uint8 USBUART_SetEndpointHalt(void) 
1114:Generated_Source\PSoC4/USBUART_std.c **** {
 1159              		.loc 1 1114 0
 1160              		.cfi_startproc
 1161              		@ args = 0, pretend = 0, frame = 0
 1162              		@ frame_needed = 0, uses_anonymous_args = 0
 1163 0000 10B5     		push	{r4, lr}
 1164              		.cfi_def_cfa_offset 8
 1165              		.cfi_offset 4, -8
 1166              		.cfi_offset 14, -4
 1167              	.LVL102:
1115:Generated_Source\PSoC4/USBUART_std.c ****     uint8 requestHandled = USBUART_FALSE;
1116:Generated_Source\PSoC4/USBUART_std.c ****     uint32 ep;
1117:Generated_Source\PSoC4/USBUART_std.c ****     
1118:Generated_Source\PSoC4/USBUART_std.c ****     /* Set endpoint halt */
1119:Generated_Source\PSoC4/USBUART_std.c ****     ep = USBUART_wIndexLoReg & USBUART_DIR_UNUSED;
 1168              		.loc 1 1119 0
 1169 0002 174B     		ldr	r3, .L87
 1170 0004 1B69     		ldr	r3, [r3, #16]
 1171 0006 7F22     		movs	r2, #127
 1172 0008 1340     		ands	r3, r2
ARM GAS  C:\Users\TERENC~1\AppData\Local\Temp\ccz498Tm.s 			page 43


 1173              	.LVL103:
1120:Generated_Source\PSoC4/USBUART_std.c **** 
1121:Generated_Source\PSoC4/USBUART_std.c ****     if ((ep > USBUART_EP0) && (ep < USBUART_MAX_EP))
 1174              		.loc 1 1121 0
 1175 000a 5A1E     		subs	r2, r3, #1
 1176 000c 072A     		cmp	r2, #7
 1177 000e 24D8     		bhi	.L86
1122:Generated_Source\PSoC4/USBUART_std.c ****     {
1123:Generated_Source\PSoC4/USBUART_std.c ****         /* Set the endpoint Halt */
1124:Generated_Source\PSoC4/USBUART_std.c ****         USBUART_EP[ep].hwEpState |= (USBUART_ENDPOINT_STATUS_HALT);
 1178              		.loc 1 1124 0
 1179 0010 5900     		lsls	r1, r3, #1
 1180 0012 C918     		adds	r1, r1, r3
 1181 0014 8A00     		lsls	r2, r1, #2
 1182 0016 1349     		ldr	r1, .L87+4
 1183 0018 8A18     		adds	r2, r1, r2
 1184 001a 9078     		ldrb	r0, [r2, #2]
 1185 001c 0121     		movs	r1, #1
 1186 001e 0143     		orrs	r1, r0
 1187 0020 C9B2     		uxtb	r1, r1
 1188 0022 9170     		strb	r1, [r2, #2]
1125:Generated_Source\PSoC4/USBUART_std.c **** 
1126:Generated_Source\PSoC4/USBUART_std.c ****         /* Clear the data toggle */
1127:Generated_Source\PSoC4/USBUART_std.c ****         USBUART_EP[ep].epToggle = 0u;
 1189              		.loc 1 1127 0
 1190 0024 0021     		movs	r1, #0
 1191 0026 D170     		strb	r1, [r2, #3]
1128:Generated_Source\PSoC4/USBUART_std.c ****         USBUART_EP[ep].apiEpState |= USBUART_NO_EVENT_ALLOWED;
 1192              		.loc 1 1128 0
 1193 0028 5078     		ldrb	r0, [r2, #1]
 1194 002a 0221     		movs	r1, #2
 1195 002c 0143     		orrs	r1, r0
 1196 002e C9B2     		uxtb	r1, r1
 1197 0030 5170     		strb	r1, [r2, #1]
1129:Generated_Source\PSoC4/USBUART_std.c **** 
1130:Generated_Source\PSoC4/USBUART_std.c ****         if ((USBUART_EP[ep].addr & USBUART_DIR_IN) != 0u)
 1198              		.loc 1 1130 0
 1199 0032 1279     		ldrb	r2, [r2, #4]
 1200 0034 52B2     		sxtb	r2, r2
 1201 0036 002A     		cmp	r2, #0
 1202 0038 06DA     		bge	.L84
1131:Generated_Source\PSoC4/USBUART_std.c ****         {
1132:Generated_Source\PSoC4/USBUART_std.c ****             /* IN Endpoint */
1133:Generated_Source\PSoC4/USBUART_std.c ****             USBUART_SIE_EP_BASE.sieEp[ep].epCr0 = (USBUART_MODE_STALL_DATA_EP | 
 1203              		.loc 1 1133 0
 1204 003a 9B01     		lsls	r3, r3, #6
 1205              	.LVL104:
 1206 003c 0A4A     		ldr	r2, .L87+8
 1207 003e 9446     		mov	ip, r2
 1208 0040 6344     		add	r3, r3, ip
 1209 0042 8D22     		movs	r2, #141
 1210 0044 9A60     		str	r2, [r3, #8]
 1211 0046 05E0     		b	.L85
 1212              	.LVL105:
 1213              	.L84:
1134:Generated_Source\PSoC4/USBUART_std.c ****                                                             USBUART_MODE_ACK_IN);
1135:Generated_Source\PSoC4/USBUART_std.c ****         }
ARM GAS  C:\Users\TERENC~1\AppData\Local\Temp\ccz498Tm.s 			page 44


1136:Generated_Source\PSoC4/USBUART_std.c ****         else
1137:Generated_Source\PSoC4/USBUART_std.c ****         {
1138:Generated_Source\PSoC4/USBUART_std.c ****             /* OUT Endpoint */
1139:Generated_Source\PSoC4/USBUART_std.c ****             USBUART_SIE_EP_BASE.sieEp[ep].epCr0 = (USBUART_MODE_STALL_DATA_EP | 
 1214              		.loc 1 1139 0
 1215 0048 9B01     		lsls	r3, r3, #6
 1216              	.LVL106:
 1217 004a 074A     		ldr	r2, .L87+8
 1218 004c 9446     		mov	ip, r2
 1219 004e 6344     		add	r3, r3, ip
 1220 0050 8922     		movs	r2, #137
 1221 0052 9A60     		str	r2, [r3, #8]
 1222              	.L85:
1140:Generated_Source\PSoC4/USBUART_std.c ****                                                             USBUART_MODE_ACK_OUT);
1141:Generated_Source\PSoC4/USBUART_std.c ****         }
1142:Generated_Source\PSoC4/USBUART_std.c ****         requestHandled = USBUART_InitNoDataControlTransfer();
 1223              		.loc 1 1142 0
 1224 0054 FFF7FEFF 		bl	USBUART_InitNoDataControlTransfer
 1225              	.LVL107:
 1226 0058 00E0     		b	.L83
 1227              	.LVL108:
 1228              	.L86:
1115:Generated_Source\PSoC4/USBUART_std.c ****     uint32 ep;
 1229              		.loc 1 1115 0
 1230 005a 0020     		movs	r0, #0
 1231              	.LVL109:
 1232              	.L83:
1143:Generated_Source\PSoC4/USBUART_std.c ****     }
1144:Generated_Source\PSoC4/USBUART_std.c **** 
1145:Generated_Source\PSoC4/USBUART_std.c ****     return (requestHandled);
1146:Generated_Source\PSoC4/USBUART_std.c **** }
 1233              		.loc 1 1146 0
 1234              		@ sp needed
 1235 005c 10BD     		pop	{r4, pc}
 1236              	.L88:
 1237 005e C046     		.align	2
 1238              	.L87:
 1239 0060 00002C40 		.word	1076625408
 1240 0064 00000000 		.word	USBUART_EP
 1241 0068 F0FF2B40 		.word	1076625392
 1242              		.cfi_endproc
 1243              	.LFE11:
 1244              		.size	USBUART_SetEndpointHalt, .-USBUART_SetEndpointHalt
 1245              		.section	.text.USBUART_ClearEndpointHalt,"ax",%progbits
 1246              		.align	2
 1247              		.global	USBUART_ClearEndpointHalt
 1248              		.code	16
 1249              		.thumb_func
 1250              		.type	USBUART_ClearEndpointHalt, %function
 1251              	USBUART_ClearEndpointHalt:
 1252              	.LFB12:
1147:Generated_Source\PSoC4/USBUART_std.c **** 
1148:Generated_Source\PSoC4/USBUART_std.c **** 
1149:Generated_Source\PSoC4/USBUART_std.c **** /*******************************************************************************
1150:Generated_Source\PSoC4/USBUART_std.c **** * Function Name: USBUART_ClearEndpointHalt
1151:Generated_Source\PSoC4/USBUART_std.c **** ****************************************************************************//**
1152:Generated_Source\PSoC4/USBUART_std.c **** *
ARM GAS  C:\Users\TERENC~1\AppData\Local\Temp\ccz498Tm.s 			page 45


1153:Generated_Source\PSoC4/USBUART_std.c **** *  This routine handles clear endpoint halt.
1154:Generated_Source\PSoC4/USBUART_std.c **** *
1155:Generated_Source\PSoC4/USBUART_std.c **** * \return
1156:Generated_Source\PSoC4/USBUART_std.c **** *  requestHandled.
1157:Generated_Source\PSoC4/USBUART_std.c **** *
1158:Generated_Source\PSoC4/USBUART_std.c **** * \reentrant
1159:Generated_Source\PSoC4/USBUART_std.c **** *  No.
1160:Generated_Source\PSoC4/USBUART_std.c **** *
1161:Generated_Source\PSoC4/USBUART_std.c **** *******************************************************************************/
1162:Generated_Source\PSoC4/USBUART_std.c **** uint8 USBUART_ClearEndpointHalt(void) 
1163:Generated_Source\PSoC4/USBUART_std.c **** {
 1253              		.loc 1 1163 0
 1254              		.cfi_startproc
 1255              		@ args = 0, pretend = 0, frame = 0
 1256              		@ frame_needed = 0, uses_anonymous_args = 0
 1257 0000 10B5     		push	{r4, lr}
 1258              		.cfi_def_cfa_offset 8
 1259              		.cfi_offset 4, -8
 1260              		.cfi_offset 14, -4
 1261              	.LVL110:
1164:Generated_Source\PSoC4/USBUART_std.c ****     uint8 requestHandled = USBUART_FALSE;
1165:Generated_Source\PSoC4/USBUART_std.c ****     uint32 ep;
1166:Generated_Source\PSoC4/USBUART_std.c **** 
1167:Generated_Source\PSoC4/USBUART_std.c ****     /* Clear endpoint halt */
1168:Generated_Source\PSoC4/USBUART_std.c ****     ep = USBUART_wIndexLoReg & USBUART_DIR_UNUSED;
 1262              		.loc 1 1168 0
 1263 0002 274B     		ldr	r3, .L96
 1264 0004 1B69     		ldr	r3, [r3, #16]
 1265 0006 7F22     		movs	r2, #127
 1266 0008 1340     		ands	r3, r2
 1267              	.LVL111:
1169:Generated_Source\PSoC4/USBUART_std.c **** 
1170:Generated_Source\PSoC4/USBUART_std.c ****     if ((ep > USBUART_EP0) && (ep < USBUART_MAX_EP))
 1268              		.loc 1 1170 0
 1269 000a 5A1E     		subs	r2, r3, #1
 1270 000c 072A     		cmp	r2, #7
 1271 000e 45D8     		bhi	.L95
1171:Generated_Source\PSoC4/USBUART_std.c ****     {
1172:Generated_Source\PSoC4/USBUART_std.c ****         /* Clear the endpoint Halt */
1173:Generated_Source\PSoC4/USBUART_std.c ****         USBUART_EP[ep].hwEpState &= (uint8) ~USBUART_ENDPOINT_STATUS_HALT;
 1272              		.loc 1 1173 0
 1273 0010 5900     		lsls	r1, r3, #1
 1274 0012 C918     		adds	r1, r1, r3
 1275 0014 8A00     		lsls	r2, r1, #2
 1276 0016 2349     		ldr	r1, .L96+4
 1277 0018 8A18     		adds	r2, r1, r2
 1278 001a 9178     		ldrb	r1, [r2, #2]
 1279 001c 0120     		movs	r0, #1
 1280 001e 8143     		bics	r1, r0
 1281 0020 9170     		strb	r1, [r2, #2]
1174:Generated_Source\PSoC4/USBUART_std.c **** 
1175:Generated_Source\PSoC4/USBUART_std.c ****         /* Clear the data toggle */
1176:Generated_Source\PSoC4/USBUART_std.c ****         USBUART_EP[ep].epToggle = 0u;
 1282              		.loc 1 1176 0
 1283 0022 0021     		movs	r1, #0
 1284 0024 D170     		strb	r1, [r2, #3]
1177:Generated_Source\PSoC4/USBUART_std.c ****         
ARM GAS  C:\Users\TERENC~1\AppData\Local\Temp\ccz498Tm.s 			page 46


1178:Generated_Source\PSoC4/USBUART_std.c ****         /* Clear toggle bit for already armed packet */
1179:Generated_Source\PSoC4/USBUART_std.c ****         USBUART_SIE_EP_BASE.sieEp[ep].epCnt0 = (uint32) ~(uint32)USBUART_EPX_CNT_DATA_TOGGLE;
 1285              		.loc 1 1179 0
 1286 0026 9901     		lsls	r1, r3, #6
 1287 0028 8124     		movs	r4, #129
 1288 002a 6442     		rsbs	r4, r4, #0
 1289 002c 1E48     		ldr	r0, .L96+8
 1290 002e 0C50     		str	r4, [r1, r0]
1180:Generated_Source\PSoC4/USBUART_std.c ****         
1181:Generated_Source\PSoC4/USBUART_std.c ****         /* Return API State as it was defined before */
1182:Generated_Source\PSoC4/USBUART_std.c ****         USBUART_EP[ep].apiEpState &= (uint8) ~USBUART_NO_EVENT_ALLOWED;
 1291              		.loc 1 1182 0
 1292 0030 5178     		ldrb	r1, [r2, #1]
 1293 0032 0220     		movs	r0, #2
 1294 0034 8143     		bics	r1, r0
 1295 0036 5170     		strb	r1, [r2, #1]
1183:Generated_Source\PSoC4/USBUART_std.c **** 
1184:Generated_Source\PSoC4/USBUART_std.c ****         if ((USBUART_EP[ep].addr & USBUART_DIR_IN) != 0u)
 1296              		.loc 1 1184 0
 1297 0038 1279     		ldrb	r2, [r2, #4]
 1298 003a 52B2     		sxtb	r2, r2
 1299 003c 002A     		cmp	r2, #0
 1300 003e 15DA     		bge	.L91
1185:Generated_Source\PSoC4/USBUART_std.c ****         {
1186:Generated_Source\PSoC4/USBUART_std.c ****             /* IN Endpoint */
1187:Generated_Source\PSoC4/USBUART_std.c ****             if(USBUART_EP[ep].apiEpState == USBUART_IN_BUFFER_EMPTY)
 1301              		.loc 1 1187 0
 1302 0040 5900     		lsls	r1, r3, #1
 1303 0042 C918     		adds	r1, r1, r3
 1304 0044 8A00     		lsls	r2, r1, #2
 1305 0046 1749     		ldr	r1, .L96+4
 1306 0048 8A18     		adds	r2, r1, r2
 1307 004a 5278     		ldrb	r2, [r2, #1]
 1308 004c 012A     		cmp	r2, #1
 1309 004e 06D1     		bne	.L92
1188:Generated_Source\PSoC4/USBUART_std.c ****             {       
1189:Generated_Source\PSoC4/USBUART_std.c ****                 /* Wait for next packet from application */
1190:Generated_Source\PSoC4/USBUART_std.c ****                 USBUART_SIE_EP_BASE.sieEp[ep].epCr0 = USBUART_MODE_NAK_IN;
 1310              		.loc 1 1190 0
 1311 0050 9B01     		lsls	r3, r3, #6
 1312              	.LVL112:
 1313 0052 154A     		ldr	r2, .L96+8
 1314 0054 9446     		mov	ip, r2
 1315 0056 6344     		add	r3, r3, ip
 1316 0058 0C22     		movs	r2, #12
 1317 005a 9A60     		str	r2, [r3, #8]
 1318 005c 1BE0     		b	.L93
 1319              	.LVL113:
 1320              	.L92:
1191:Generated_Source\PSoC4/USBUART_std.c ****             }
1192:Generated_Source\PSoC4/USBUART_std.c ****             else    /* Continue armed transfer */
1193:Generated_Source\PSoC4/USBUART_std.c ****             {
1194:Generated_Source\PSoC4/USBUART_std.c ****                 USBUART_SIE_EP_BASE.sieEp[ep].epCr0 = USBUART_MODE_ACK_IN;
 1321              		.loc 1 1194 0
 1322 005e 9B01     		lsls	r3, r3, #6
 1323              	.LVL114:
 1324 0060 114A     		ldr	r2, .L96+8
ARM GAS  C:\Users\TERENC~1\AppData\Local\Temp\ccz498Tm.s 			page 47


 1325 0062 9446     		mov	ip, r2
 1326 0064 6344     		add	r3, r3, ip
 1327 0066 0D22     		movs	r2, #13
 1328 0068 9A60     		str	r2, [r3, #8]
 1329 006a 14E0     		b	.L93
 1330              	.LVL115:
 1331              	.L91:
1195:Generated_Source\PSoC4/USBUART_std.c ****             }
1196:Generated_Source\PSoC4/USBUART_std.c ****         }
1197:Generated_Source\PSoC4/USBUART_std.c ****         else
1198:Generated_Source\PSoC4/USBUART_std.c ****         {
1199:Generated_Source\PSoC4/USBUART_std.c ****             /* OUT Endpoint */
1200:Generated_Source\PSoC4/USBUART_std.c ****             if (USBUART_EP[ep].apiEpState == USBUART_OUT_BUFFER_FULL)
 1332              		.loc 1 1200 0
 1333 006c 5900     		lsls	r1, r3, #1
 1334 006e C918     		adds	r1, r1, r3
 1335 0070 8A00     		lsls	r2, r1, #2
 1336 0072 0C49     		ldr	r1, .L96+4
 1337 0074 8A18     		adds	r2, r1, r2
 1338 0076 5278     		ldrb	r2, [r2, #1]
 1339 0078 012A     		cmp	r2, #1
 1340 007a 06D1     		bne	.L94
1201:Generated_Source\PSoC4/USBUART_std.c ****             {       
1202:Generated_Source\PSoC4/USBUART_std.c ****                 /* Allow application to read full buffer */
1203:Generated_Source\PSoC4/USBUART_std.c ****                 USBUART_SIE_EP_BASE.sieEp[ep].epCr0 = USBUART_MODE_NAK_OUT;
 1341              		.loc 1 1203 0
 1342 007c 9B01     		lsls	r3, r3, #6
 1343              	.LVL116:
 1344 007e 0A4A     		ldr	r2, .L96+8
 1345 0080 9446     		mov	ip, r2
 1346 0082 6344     		add	r3, r3, ip
 1347 0084 0822     		movs	r2, #8
 1348 0086 9A60     		str	r2, [r3, #8]
 1349 0088 05E0     		b	.L93
 1350              	.LVL117:
 1351              	.L94:
1204:Generated_Source\PSoC4/USBUART_std.c ****             }
1205:Generated_Source\PSoC4/USBUART_std.c ****             else    /* Mark endpoint as empty, so it will be reloaded */
1206:Generated_Source\PSoC4/USBUART_std.c ****             {
1207:Generated_Source\PSoC4/USBUART_std.c ****                 USBUART_SIE_EP_BASE.sieEp[ep].epCr0 = USBUART_MODE_ACK_OUT;
 1352              		.loc 1 1207 0
 1353 008a 9B01     		lsls	r3, r3, #6
 1354              	.LVL118:
 1355 008c 064A     		ldr	r2, .L96+8
 1356 008e 9446     		mov	ip, r2
 1357 0090 6344     		add	r3, r3, ip
 1358 0092 0922     		movs	r2, #9
 1359 0094 9A60     		str	r2, [r3, #8]
 1360              	.L93:
1208:Generated_Source\PSoC4/USBUART_std.c ****             }
1209:Generated_Source\PSoC4/USBUART_std.c ****         }
1210:Generated_Source\PSoC4/USBUART_std.c ****         
1211:Generated_Source\PSoC4/USBUART_std.c ****         requestHandled = USBUART_InitNoDataControlTransfer();
 1361              		.loc 1 1211 0
 1362 0096 FFF7FEFF 		bl	USBUART_InitNoDataControlTransfer
 1363              	.LVL119:
 1364 009a 00E0     		b	.L90
ARM GAS  C:\Users\TERENC~1\AppData\Local\Temp\ccz498Tm.s 			page 48


 1365              	.LVL120:
 1366              	.L95:
1164:Generated_Source\PSoC4/USBUART_std.c ****     uint32 ep;
 1367              		.loc 1 1164 0
 1368 009c 0020     		movs	r0, #0
 1369              	.LVL121:
 1370              	.L90:
1212:Generated_Source\PSoC4/USBUART_std.c ****     }
1213:Generated_Source\PSoC4/USBUART_std.c **** 
1214:Generated_Source\PSoC4/USBUART_std.c ****     return(requestHandled);
1215:Generated_Source\PSoC4/USBUART_std.c **** }
 1371              		.loc 1 1215 0
 1372              		@ sp needed
 1373 009e 10BD     		pop	{r4, pc}
 1374              	.L97:
 1375              		.align	2
 1376              	.L96:
 1377 00a0 00002C40 		.word	1076625408
 1378 00a4 00000000 		.word	USBUART_EP
 1379 00a8 F0FF2B40 		.word	1076625392
 1380              		.cfi_endproc
 1381              	.LFE12:
 1382              		.size	USBUART_ClearEndpointHalt, .-USBUART_ClearEndpointHalt
 1383              		.section	.text.USBUART_ValidateAlternateSetting,"ax",%progbits
 1384              		.align	2
 1385              		.global	USBUART_ValidateAlternateSetting
 1386              		.code	16
 1387              		.thumb_func
 1388              		.type	USBUART_ValidateAlternateSetting, %function
 1389              	USBUART_ValidateAlternateSetting:
 1390              	.LFB13:
1216:Generated_Source\PSoC4/USBUART_std.c **** 
1217:Generated_Source\PSoC4/USBUART_std.c **** 
1218:Generated_Source\PSoC4/USBUART_std.c **** /*******************************************************************************
1219:Generated_Source\PSoC4/USBUART_std.c **** * Function Name: USBUART_ValidateAlternateSetting
1220:Generated_Source\PSoC4/USBUART_std.c **** ****************************************************************************//**
1221:Generated_Source\PSoC4/USBUART_std.c **** *
1222:Generated_Source\PSoC4/USBUART_std.c **** *  Validates (and records) a SET INTERFACE request.
1223:Generated_Source\PSoC4/USBUART_std.c **** *
1224:Generated_Source\PSoC4/USBUART_std.c **** * \return
1225:Generated_Source\PSoC4/USBUART_std.c **** *  requestHandled.
1226:Generated_Source\PSoC4/USBUART_std.c **** *
1227:Generated_Source\PSoC4/USBUART_std.c **** * \reentrant
1228:Generated_Source\PSoC4/USBUART_std.c **** *  No.
1229:Generated_Source\PSoC4/USBUART_std.c **** *
1230:Generated_Source\PSoC4/USBUART_std.c **** *******************************************************************************/
1231:Generated_Source\PSoC4/USBUART_std.c **** uint8 USBUART_ValidateAlternateSetting(void) 
1232:Generated_Source\PSoC4/USBUART_std.c **** {
 1391              		.loc 1 1232 0
 1392              		.cfi_startproc
 1393              		@ args = 0, pretend = 0, frame = 0
 1394              		@ frame_needed = 0, uses_anonymous_args = 0
 1395 0000 70B5     		push	{r4, r5, r6, lr}
 1396              		.cfi_def_cfa_offset 16
 1397              		.cfi_offset 4, -16
 1398              		.cfi_offset 5, -12
 1399              		.cfi_offset 6, -8
ARM GAS  C:\Users\TERENC~1\AppData\Local\Temp\ccz498Tm.s 			page 49


 1400              		.cfi_offset 14, -4
 1401              	.LVL122:
1233:Generated_Source\PSoC4/USBUART_std.c ****     uint8 requestHandled = USBUART_FALSE;
1234:Generated_Source\PSoC4/USBUART_std.c ****     
1235:Generated_Source\PSoC4/USBUART_std.c ****     uint8 interfaceNum;
1236:Generated_Source\PSoC4/USBUART_std.c ****     uint8 curInterfacesNum;
1237:Generated_Source\PSoC4/USBUART_std.c ****     const T_USBUART_LUT CYCODE *pTmp;
1238:Generated_Source\PSoC4/USBUART_std.c ****     
1239:Generated_Source\PSoC4/USBUART_std.c ****     /* Get interface number from the request. */
1240:Generated_Source\PSoC4/USBUART_std.c ****     interfaceNum = (uint8) USBUART_wIndexLoReg;
 1402              		.loc 1 1240 0
 1403 0002 0F4B     		ldr	r3, .L102
 1404 0004 1C69     		ldr	r4, [r3, #16]
 1405 0006 E5B2     		uxtb	r5, r4
 1406              	.LVL123:
1241:Generated_Source\PSoC4/USBUART_std.c ****     
1242:Generated_Source\PSoC4/USBUART_std.c ****     /* Get number of interfaces for current configuration. */
1243:Generated_Source\PSoC4/USBUART_std.c ****     pTmp = USBUART_GetConfigTablePtr(USBUART_configuration - 1u);
 1407              		.loc 1 1243 0
 1408 0008 0E4B     		ldr	r3, .L102+4
 1409 000a 1878     		ldrb	r0, [r3]
 1410 000c 0138     		subs	r0, r0, #1
 1411 000e C0B2     		uxtb	r0, r0
 1412 0010 FFF7FEFF 		bl	USBUART_GetConfigTablePtr
 1413              	.LVL124:
1244:Generated_Source\PSoC4/USBUART_std.c ****     curInterfacesNum  = ((const uint8 *) pTmp->p_list)[USBUART_CONFIG_DESCR_NUM_INTERFACES];
 1414              		.loc 1 1244 0
 1415 0014 4368     		ldr	r3, [r0, #4]
 1416 0016 1B79     		ldrb	r3, [r3, #4]
 1417              	.LVL125:
1245:Generated_Source\PSoC4/USBUART_std.c **** 
1246:Generated_Source\PSoC4/USBUART_std.c ****     /* Validate that interface number is within range. */
1247:Generated_Source\PSoC4/USBUART_std.c ****     if ((interfaceNum <= curInterfacesNum) || (interfaceNum <= USBUART_MAX_INTERFACES_NUMBER))
 1418              		.loc 1 1247 0
 1419 0018 9D42     		cmp	r5, r3
 1420 001a 01D9     		bls	.L99
 1421              		.loc 1 1247 0 is_stmt 0 discriminator 1
 1422 001c 022D     		cmp	r5, #2
 1423 001e 0CD8     		bhi	.L101
 1424              	.L99:
1248:Generated_Source\PSoC4/USBUART_std.c ****     {
1249:Generated_Source\PSoC4/USBUART_std.c ****         /* Save current and new alternate settings (come with request) to make 
1250:Generated_Source\PSoC4/USBUART_std.c ****         * desicion about following endpoint re-configuration.
1251:Generated_Source\PSoC4/USBUART_std.c ****         */
1252:Generated_Source\PSoC4/USBUART_std.c ****         USBUART_interfaceSettingLast[interfaceNum] = USBUART_interfaceSetting[interfaceNum];
 1425              		.loc 1 1252 0 is_stmt 1
 1426 0020 FF23     		movs	r3, #255
 1427              	.LVL126:
 1428 0022 2340     		ands	r3, r4
 1429 0024 0849     		ldr	r1, .L102+8
 1430 0026 CA5C     		ldrb	r2, [r1, r3]
 1431 0028 D2B2     		uxtb	r2, r2
 1432 002a 0848     		ldr	r0, .L102+12
 1433              	.LVL127:
 1434 002c C254     		strb	r2, [r0, r3]
1253:Generated_Source\PSoC4/USBUART_std.c ****         USBUART_interfaceSetting[interfaceNum]     = (uint8) USBUART_wValueLoReg;
 1435              		.loc 1 1253 0
ARM GAS  C:\Users\TERENC~1\AppData\Local\Temp\ccz498Tm.s 			page 50


 1436 002e 044A     		ldr	r2, .L102
 1437 0030 9268     		ldr	r2, [r2, #8]
 1438 0032 D2B2     		uxtb	r2, r2
 1439 0034 CA54     		strb	r2, [r1, r3]
 1440              	.LVL128:
1254:Generated_Source\PSoC4/USBUART_std.c ****         
1255:Generated_Source\PSoC4/USBUART_std.c ****         requestHandled = USBUART_TRUE;
 1441              		.loc 1 1255 0
 1442 0036 0120     		movs	r0, #1
 1443 0038 00E0     		b	.L100
 1444              	.LVL129:
 1445              	.L101:
1233:Generated_Source\PSoC4/USBUART_std.c ****     
 1446              		.loc 1 1233 0
 1447 003a 0020     		movs	r0, #0
 1448              	.LVL130:
 1449              	.L100:
1256:Generated_Source\PSoC4/USBUART_std.c ****     }
1257:Generated_Source\PSoC4/USBUART_std.c **** 
1258:Generated_Source\PSoC4/USBUART_std.c ****     return (requestHandled);
1259:Generated_Source\PSoC4/USBUART_std.c **** }
 1450              		.loc 1 1259 0
 1451              		@ sp needed
 1452              	.LVL131:
 1453 003c 70BD     		pop	{r4, r5, r6, pc}
 1454              	.L103:
 1455 003e C046     		.align	2
 1456              	.L102:
 1457 0040 00002C40 		.word	1076625408
 1458 0044 00000000 		.word	USBUART_configuration
 1459 0048 00000000 		.word	USBUART_interfaceSetting
 1460 004c 00000000 		.word	USBUART_interfaceSettingLast
 1461              		.cfi_endproc
 1462              	.LFE13:
 1463              		.size	USBUART_ValidateAlternateSetting, .-USBUART_ValidateAlternateSetting
 1464              		.section	.text.USBUART_HandleStandardRqst,"ax",%progbits
 1465              		.align	2
 1466              		.global	USBUART_HandleStandardRqst
 1467              		.code	16
 1468              		.thumb_func
 1469              		.type	USBUART_HandleStandardRqst, %function
 1470              	USBUART_HandleStandardRqst:
 1471              	.LFB1:
  85:Generated_Source\PSoC4/USBUART_std.c ****     uint8 requestHandled = USBUART_FALSE;
 1472              		.loc 1 85 0
 1473              		.cfi_startproc
 1474              		@ args = 0, pretend = 0, frame = 0
 1475              		@ frame_needed = 0, uses_anonymous_args = 0
 1476 0000 10B5     		push	{r4, lr}
 1477              		.cfi_def_cfa_offset 8
 1478              		.cfi_offset 4, -8
 1479              		.cfi_offset 14, -4
 1480              	.LVL132:
  89:Generated_Source\PSoC4/USBUART_std.c **** 
 1481              		.loc 1 89 0
 1482 0002 B54B     		ldr	r3, .L160
 1483 0004 1B68     		ldr	r3, [r3]
ARM GAS  C:\Users\TERENC~1\AppData\Local\Temp\ccz498Tm.s 			page 51


 1484              	.LVL133:
 102:Generated_Source\PSoC4/USBUART_std.c **** 
 1485              		.loc 1 102 0
 1486 0006 0021     		movs	r1, #0
 1487 0008 B44A     		ldr	r2, .L160+4
 1488 000a 1180     		strh	r1, [r2]
 104:Generated_Source\PSoC4/USBUART_std.c ****     {
 1489              		.loc 1 104 0
 1490 000c 1A06     		lsls	r2, r3, #24
 1491 000e 00D4     		bmi	.LCB1524
 1492 0010 A6E0     		b	.L105	@long jump
 1493              	.LCB1524:
 107:Generated_Source\PSoC4/USBUART_std.c ****         {
 1494              		.loc 1 107 0
 1495 0012 B14A     		ldr	r2, .L160
 1496 0014 5268     		ldr	r2, [r2, #4]
 1497 0016 062A     		cmp	r2, #6
 1498 0018 0AD0     		beq	.L107
 1499 001a 02D8     		bhi	.L108
 1500 001c 002A     		cmp	r2, #0
 1501 001e 63D0     		beq	.L109
 1502 0020 3CE1     		b	.L139
 1503              	.L108:
 1504 0022 082A     		cmp	r2, #8
 1505 0024 00D1     		bne	.LCB1538
 1506 0026 88E0     		b	.L110	@long jump
 1507              	.LCB1538:
 1508 0028 0A2A     		cmp	r2, #10
 1509 002a 00D1     		bne	.LCB1540
 1510 002c 8DE0     		b	.L111	@long jump
 1511              	.LCB1540:
 1512 002e 35E1     		b	.L139
 1513              	.L107:
 110:Generated_Source\PSoC4/USBUART_std.c ****                 {
 1514              		.loc 1 110 0
 1515 0030 A94B     		ldr	r3, .L160
 1516              	.LVL134:
 1517 0032 DB68     		ldr	r3, [r3, #12]
 1518 0034 012B     		cmp	r3, #1
 1519 0036 09D1     		bne	.L112
 112:Generated_Source\PSoC4/USBUART_std.c ****                     USBUART_currentTD.pData = (volatile uint8 *)pTmp->p_list;
 1520              		.loc 1 112 0
 1521 0038 FFF7FEFF 		bl	USBUART_GetDeviceTablePtr
 1522              	.LVL135:
 113:Generated_Source\PSoC4/USBUART_std.c ****                     USBUART_currentTD.count = USBUART_DEVICE_DESCR_LENGTH;
 1523              		.loc 1 113 0
 1524 003c 4268     		ldr	r2, [r0, #4]
 1525 003e A74B     		ldr	r3, .L160+4
 1526 0040 5A60     		str	r2, [r3, #4]
 114:Generated_Source\PSoC4/USBUART_std.c ****                     
 1527              		.loc 1 114 0
 1528 0042 1222     		movs	r2, #18
 1529 0044 1A80     		strh	r2, [r3]
 116:Generated_Source\PSoC4/USBUART_std.c ****                 }
 1530              		.loc 1 116 0
 1531 0046 FFF7FEFF 		bl	USBUART_InitControlRead
 1532              	.LVL136:
ARM GAS  C:\Users\TERENC~1\AppData\Local\Temp\ccz498Tm.s 			page 52


 1533 004a 44E1     		b	.L106
 1534              	.LVL137:
 1535              	.L112:
 118:Generated_Source\PSoC4/USBUART_std.c ****                 {
 1536              		.loc 1 118 0
 1537 004c A24B     		ldr	r3, .L160
 1538 004e DB68     		ldr	r3, [r3, #12]
 1539 0050 022B     		cmp	r3, #2
 1540 0052 14D1     		bne	.L113
 120:Generated_Source\PSoC4/USBUART_std.c ****                     
 1541              		.loc 1 120 0
 1542 0054 A04B     		ldr	r3, .L160
 1543 0056 9868     		ldr	r0, [r3, #8]
 1544 0058 C0B2     		uxtb	r0, r0
 1545 005a FFF7FEFF 		bl	USBUART_GetConfigTablePtr
 1546              	.LVL138:
 123:Generated_Source\PSoC4/USBUART_std.c ****                     {
 1547              		.loc 1 123 0
 1548 005e 0028     		cmp	r0, #0
 1549 0060 00D1     		bne	.LCB1579
 1550 0062 1DE1     		b	.L140	@long jump
 1551              	.LCB1579:
 125:Generated_Source\PSoC4/USBUART_std.c ****                         USBUART_currentTD.count = (uint16)((uint16)(USBUART_currentTD.pData)[USBUAR
 1552              		.loc 1 125 0
 1553 0064 4368     		ldr	r3, [r0, #4]
 1554 0066 9D4A     		ldr	r2, .L160+4
 1555 0068 5360     		str	r3, [r2, #4]
 126:Generated_Source\PSoC4/USBUART_std.c ****                                                                             (USBUART_currentTD.pDat
 1556              		.loc 1 126 0
 1557 006a 5368     		ldr	r3, [r2, #4]
 1558 006c DB78     		ldrb	r3, [r3, #3]
 1559 006e 1B02     		lsls	r3, r3, #8
 127:Generated_Source\PSoC4/USBUART_std.c ****                         requestHandled  = USBUART_InitControlRead();
 1560              		.loc 1 127 0
 1561 0070 5168     		ldr	r1, [r2, #4]
 1562 0072 8978     		ldrb	r1, [r1, #2]
 126:Generated_Source\PSoC4/USBUART_std.c ****                                                                             (USBUART_currentTD.pDat
 1563              		.loc 1 126 0
 1564 0074 0B43     		orrs	r3, r1
 1565 0076 1380     		strh	r3, [r2]
 128:Generated_Source\PSoC4/USBUART_std.c ****                     }
 1566              		.loc 1 128 0
 1567 0078 FFF7FEFF 		bl	USBUART_InitControlRead
 1568              	.LVL139:
 1569 007c 2BE1     		b	.L106
 1570              	.LVL140:
 1571              	.L113:
 149:Generated_Source\PSoC4/USBUART_std.c ****                 {
 1572              		.loc 1 149 0
 1573 007e 964B     		ldr	r3, .L160
 1574 0080 DB68     		ldr	r3, [r3, #12]
 1575 0082 032B     		cmp	r3, #3
 1576 0084 05D0     		beq	.L141
 1577 0086 2CE0     		b	.L156
 1578              	.LVL141:
 1579              	.L117:
 159:Generated_Source\PSoC4/USBUART_std.c ****                         /* Move to next string descriptor */
ARM GAS  C:\Users\TERENC~1\AppData\Local\Temp\ccz498Tm.s 			page 53


 1580              		.loc 1 159 0
 1581 0088 1178     		ldrb	r1, [r2]
 1582              	.LVL142:
 161:Generated_Source\PSoC4/USBUART_std.c ****                         nStr++;
 1583              		.loc 1 161 0
 1584 008a 5218     		adds	r2, r2, r1
 1585              	.LVL143:
 162:Generated_Source\PSoC4/USBUART_std.c ****                     }
 1586              		.loc 1 162 0
 1587 008c 0133     		adds	r3, r3, #1
 1588              	.LVL144:
 1589 008e DBB2     		uxtb	r3, r3
 1590              	.LVL145:
 1591 0090 01E0     		b	.L114
 1592              	.LVL146:
 1593              	.L141:
 1594 0092 0023     		movs	r3, #0
 1595 0094 924A     		ldr	r2, .L160+8
 1596              	.LVL147:
 1597              	.L114:
 156:Generated_Source\PSoC4/USBUART_std.c ****                     {
 1598              		.loc 1 156 0
 1599 0096 9049     		ldr	r1, .L160
 1600 0098 8968     		ldr	r1, [r1, #8]
 1601 009a 9942     		cmp	r1, r3
 1602 009c 02D9     		bls	.L116
 156:Generated_Source\PSoC4/USBUART_std.c ****                     {
 1603              		.loc 1 156 0 is_stmt 0 discriminator 1
 1604 009e 1178     		ldrb	r1, [r2]
 1605 00a0 0029     		cmp	r1, #0
 1606 00a2 F1D1     		bne	.L117
 1607              	.L116:
 168:Generated_Source\PSoC4/USBUART_std.c ****                     {
 1608              		.loc 1 168 0 is_stmt 1
 1609 00a4 8C4B     		ldr	r3, .L160
 1610              	.LVL148:
 1611 00a6 9B68     		ldr	r3, [r3, #8]
 1612 00a8 EE2B     		cmp	r3, #238
 1613 00aa 00D1     		bne	.L118
 170:Generated_Source\PSoC4/USBUART_std.c ****                     }
 1614              		.loc 1 170 0
 1615 00ac 8D4A     		ldr	r2, .L160+12
 1616              	.LVL149:
 1617              	.L118:
 176:Generated_Source\PSoC4/USBUART_std.c ****                         (USBUART_wValueLoReg == USBUART_DEVICE0_DESCR[USBUART_DEVICE_DESCR_SN_SHIFT
 1618              		.loc 1 176 0
 1619 00ae 8A4B     		ldr	r3, .L160
 1620 00b0 9B68     		ldr	r3, [r3, #8]
 1621 00b2 002B     		cmp	r3, #0
 1622 00b4 0AD0     		beq	.L119
 177:Generated_Source\PSoC4/USBUART_std.c ****                     {
 1623              		.loc 1 177 0 discriminator 1
 1624 00b6 884B     		ldr	r3, .L160
 1625 00b8 9968     		ldr	r1, [r3, #8]
 1626 00ba 8B4B     		ldr	r3, .L160+16
 1627 00bc 1B7C     		ldrb	r3, [r3, #16]
 176:Generated_Source\PSoC4/USBUART_std.c ****                         (USBUART_wValueLoReg == USBUART_DEVICE0_DESCR[USBUART_DEVICE_DESCR_SN_SHIFT
ARM GAS  C:\Users\TERENC~1\AppData\Local\Temp\ccz498Tm.s 			page 54


 1628              		.loc 1 176 0 discriminator 1
 1629 00be 9942     		cmp	r1, r3
 1630 00c0 04D1     		bne	.L119
 181:Generated_Source\PSoC4/USBUART_std.c ****                         pStr = USBUART_idSerialNumberStringDescriptor;
 1631              		.loc 1 181 0
 1632 00c2 8A4C     		ldr	r4, .L160+20
 1633 00c4 2000     		movs	r0, r4
 1634 00c6 FFF7FEFF 		bl	USBUART_ReadDieID
 1635              	.LVL150:
 182:Generated_Source\PSoC4/USBUART_std.c ****                     #elif defined(USBUART_ENABLE_FWSN_STRING)
 1636              		.loc 1 182 0
 1637 00ca 2200     		movs	r2, r4
 1638              	.LVL151:
 1639              	.L119:
 199:Generated_Source\PSoC4/USBUART_std.c ****                     {
 1640              		.loc 1 199 0
 1641 00cc 1378     		ldrb	r3, [r2]
 1642 00ce 002B     		cmp	r3, #0
 1643 00d0 00D1     		bne	.LCB1681
 1644 00d2 E7E0     		b	.L143	@long jump
 1645              	.LCB1681:
 201:Generated_Source\PSoC4/USBUART_std.c ****                         USBUART_currentTD.pData = pStr;
 1646              		.loc 1 201 0
 1647 00d4 1378     		ldrb	r3, [r2]
 1648 00d6 8149     		ldr	r1, .L160+4
 1649 00d8 0B80     		strh	r3, [r1]
 202:Generated_Source\PSoC4/USBUART_std.c ****                         requestHandled  = USBUART_InitControlRead();
 1650              		.loc 1 202 0
 1651 00da 4A60     		str	r2, [r1, #4]
 203:Generated_Source\PSoC4/USBUART_std.c ****                     }
 1652              		.loc 1 203 0
 1653 00dc FFF7FEFF 		bl	USBUART_InitControlRead
 1654              	.LVL152:
 1655 00e0 F9E0     		b	.L106
 1656              	.LVL153:
 1657              	.L156:
 209:Generated_Source\PSoC4/USBUART_std.c ****                 }
 1658              		.loc 1 209 0
 1659 00e2 FFF7FEFF 		bl	USBUART_DispatchClassRqst
 1660              	.LVL154:
 1661 00e6 F6E0     		b	.L106
 1662              	.LVL155:
 1663              	.L109:
 214:Generated_Source\PSoC4/USBUART_std.c ****                 {
 1664              		.loc 1 214 0
 1665 00e8 0322     		movs	r2, #3
 1666 00ea 1340     		ands	r3, r2
 1667              	.LVL156:
 1668 00ec 17D0     		beq	.L120
 1669 00ee 022B     		cmp	r3, #2
 1670 00f0 00D0     		beq	.LCB1713
 1671 00f2 D9E0     		b	.L157	@long jump
 1672              	.LCB1713:
 217:Generated_Source\PSoC4/USBUART_std.c ****                         USBUART_tBuffer[0u]     = USBUART_EP[USBUART_wIndexLoReg & USBUART_DIR_UNUS
 1673              		.loc 1 217 0
 1674 00f4 7949     		ldr	r1, .L160+4
 1675 00f6 0B80     		strh	r3, [r1]
ARM GAS  C:\Users\TERENC~1\AppData\Local\Temp\ccz498Tm.s 			page 55


 218:Generated_Source\PSoC4/USBUART_std.c ****                         USBUART_tBuffer[1u]     = 0u;
 1676              		.loc 1 218 0
 1677 00f8 774B     		ldr	r3, .L160
 1678 00fa 1B69     		ldr	r3, [r3, #16]
 1679 00fc 7C32     		adds	r2, r2, #124
 1680 00fe 1340     		ands	r3, r2
 1681 0100 5A00     		lsls	r2, r3, #1
 1682 0102 D318     		adds	r3, r2, r3
 1683 0104 9A00     		lsls	r2, r3, #2
 1684 0106 7A4B     		ldr	r3, .L160+24
 1685 0108 9A18     		adds	r2, r3, r2
 1686 010a 9278     		ldrb	r2, [r2, #2]
 1687 010c D2B2     		uxtb	r2, r2
 1688 010e 794B     		ldr	r3, .L160+28
 1689 0110 1A70     		strb	r2, [r3]
 219:Generated_Source\PSoC4/USBUART_std.c ****                         USBUART_currentTD.pData = &USBUART_tBuffer[0u];
 1690              		.loc 1 219 0
 1691 0112 0022     		movs	r2, #0
 1692 0114 5A70     		strb	r2, [r3, #1]
 220:Generated_Source\PSoC4/USBUART_std.c ****                         
 1693              		.loc 1 220 0
 1694 0116 4B60     		str	r3, [r1, #4]
 222:Generated_Source\PSoC4/USBUART_std.c ****                         break;
 1695              		.loc 1 222 0
 1696 0118 FFF7FEFF 		bl	USBUART_InitControlRead
 1697              	.LVL157:
 223:Generated_Source\PSoC4/USBUART_std.c ****                     case USBUART_RQST_RCPT_DEV:
 1698              		.loc 1 223 0
 1699 011c DBE0     		b	.L106
 1700              	.LVL158:
 1701              	.L120:
 225:Generated_Source\PSoC4/USBUART_std.c ****                         USBUART_tBuffer[0u]     = USBUART_deviceStatus;
 1702              		.loc 1 225 0
 1703 011e 6F49     		ldr	r1, .L160+4
 1704 0120 0223     		movs	r3, #2
 1705 0122 0B80     		strh	r3, [r1]
 226:Generated_Source\PSoC4/USBUART_std.c ****                         USBUART_tBuffer[1u]     = 0u;
 1706              		.loc 1 226 0
 1707 0124 744B     		ldr	r3, .L160+32
 1708 0126 1A78     		ldrb	r2, [r3]
 1709 0128 D2B2     		uxtb	r2, r2
 1710 012a 724B     		ldr	r3, .L160+28
 1711 012c 1A70     		strb	r2, [r3]
 227:Generated_Source\PSoC4/USBUART_std.c ****                         USBUART_currentTD.pData = &USBUART_tBuffer[0u];
 1712              		.loc 1 227 0
 1713 012e 0022     		movs	r2, #0
 1714 0130 5A70     		strb	r2, [r3, #1]
 228:Generated_Source\PSoC4/USBUART_std.c ****                         
 1715              		.loc 1 228 0
 1716 0132 4B60     		str	r3, [r1, #4]
 230:Generated_Source\PSoC4/USBUART_std.c ****                         break;
 1717              		.loc 1 230 0
 1718 0134 FFF7FEFF 		bl	USBUART_InitControlRead
 1719              	.LVL159:
 231:Generated_Source\PSoC4/USBUART_std.c ****                     default:    /* requestHandled is initialized as FALSE by default */
 1720              		.loc 1 231 0
 1721 0138 CDE0     		b	.L106
ARM GAS  C:\Users\TERENC~1\AppData\Local\Temp\ccz498Tm.s 			page 56


 1722              	.LVL160:
 1723              	.L110:
 238:Generated_Source\PSoC4/USBUART_std.c ****                 USBUART_currentTD.pData = (volatile uint8 *) &USBUART_configuration;
 1724              		.loc 1 238 0
 1725 013a 684B     		ldr	r3, .L160+4
 1726              	.LVL161:
 1727 013c 0122     		movs	r2, #1
 1728 013e 1A80     		strh	r2, [r3]
 239:Generated_Source\PSoC4/USBUART_std.c ****                 requestHandled  = USBUART_InitControlRead();
 1729              		.loc 1 239 0
 1730 0140 6E4A     		ldr	r2, .L160+36
 1731 0142 5A60     		str	r2, [r3, #4]
 240:Generated_Source\PSoC4/USBUART_std.c ****                 break;
 1732              		.loc 1 240 0
 1733 0144 FFF7FEFF 		bl	USBUART_InitControlRead
 1734              	.LVL162:
 241:Generated_Source\PSoC4/USBUART_std.c ****                 
 1735              		.loc 1 241 0
 1736 0148 C5E0     		b	.L106
 1737              	.LVL163:
 1738              	.L111:
 244:Generated_Source\PSoC4/USBUART_std.c ****                 USBUART_currentTD.pData = (volatile uint8 *) &USBUART_interfaceSetting[USBUART_wInd
 1739              		.loc 1 244 0
 1740 014a 644A     		ldr	r2, .L160+4
 1741 014c 0123     		movs	r3, #1
 1742              	.LVL164:
 1743 014e 1380     		strh	r3, [r2]
 245:Generated_Source\PSoC4/USBUART_std.c ****                 requestHandled  = USBUART_InitControlRead();
 1744              		.loc 1 245 0
 1745 0150 614B     		ldr	r3, .L160
 1746 0152 1969     		ldr	r1, [r3, #16]
 1747 0154 6A4B     		ldr	r3, .L160+40
 1748 0156 CB18     		adds	r3, r1, r3
 1749 0158 5360     		str	r3, [r2, #4]
 246:Generated_Source\PSoC4/USBUART_std.c ****                 break;
 1750              		.loc 1 246 0
 1751 015a FFF7FEFF 		bl	USBUART_InitControlRead
 1752              	.LVL165:
 247:Generated_Source\PSoC4/USBUART_std.c ****                 
 1753              		.loc 1 247 0
 1754 015e BAE0     		b	.L106
 1755              	.LVL166:
 1756              	.L105:
 256:Generated_Source\PSoC4/USBUART_std.c ****         {
 1757              		.loc 1 256 0
 1758 0160 5D4A     		ldr	r2, .L160
 1759 0162 5268     		ldr	r2, [r2, #4]
 1760 0164 0B2A     		cmp	r2, #11
 1761 0166 00D9     		bls	.LCB1796
 1762 0168 A0E0     		b	.L145	@long jump
 1763              	.LCB1796:
 1764 016a 9200     		lsls	r2, r2, #2
 1765 016c 6549     		ldr	r1, .L160+44
 1766 016e 8A58     		ldr	r2, [r1, r2]
 1767 0170 9746     		mov	pc, r2
 1768              		.section	.rodata
 1769              		.align	2
ARM GAS  C:\Users\TERENC~1\AppData\Local\Temp\ccz498Tm.s 			page 57


 1770              	.L123:
 1771 0000 AC020000 		.word	.L145
 1772 0004 F6010000 		.word	.L122
 1773 0008 AC020000 		.word	.L145
 1774 000c 48020000 		.word	.L124
 1775 0010 AC020000 		.word	.L145
 1776 0014 72010000 		.word	.L125
 1777 0018 AC020000 		.word	.L145
 1778 001c AC020000 		.word	.L145
 1779 0020 AC020000 		.word	.L145
 1780 0024 82010000 		.word	.L126
 1781 0028 AC020000 		.word	.L145
 1782 002c C2010000 		.word	.L127
 1783              		.section	.text.USBUART_HandleStandardRqst
 1784              	.L125:
 260:Generated_Source\PSoC4/USBUART_std.c ****                 requestHandled = USBUART_InitNoDataControlTransfer();
 1785              		.loc 1 260 0
 1786 0172 594B     		ldr	r3, .L160
 1787              	.LVL167:
 1788 0174 9B68     		ldr	r3, [r3, #8]
 1789 0176 DBB2     		uxtb	r3, r3
 1790 0178 634A     		ldr	r2, .L160+48
 1791 017a 1370     		strb	r3, [r2]
 261:Generated_Source\PSoC4/USBUART_std.c ****                 break;
 1792              		.loc 1 261 0
 1793 017c FFF7FEFF 		bl	USBUART_InitNoDataControlTransfer
 1794              	.LVL168:
 262:Generated_Source\PSoC4/USBUART_std.c ****                 
 1795              		.loc 1 262 0
 1796 0180 A9E0     		b	.L106
 1797              	.LVL169:
 1798              	.L126:
 265:Generated_Source\PSoC4/USBUART_std.c ****                 
 1799              		.loc 1 265 0
 1800 0182 554B     		ldr	r3, .L160
 1801              	.LVL170:
 1802 0184 9C68     		ldr	r4, [r3, #8]
 1803              	.LVL171:
 268:Generated_Source\PSoC4/USBUART_std.c ****                 {
 1804              		.loc 1 268 0
 1805 0186 002C     		cmp	r4, #0
 1806 0188 03D0     		beq	.L128
 270:Generated_Source\PSoC4/USBUART_std.c ****                 }
 1807              		.loc 1 270 0
 1808 018a 601E     		subs	r0, r4, #1
 1809 018c C0B2     		uxtb	r0, r0
 1810 018e FFF7FEFF 		bl	USBUART_GetConfigTablePtr
 1811              	.LVL172:
 1812              	.L128:
 274:Generated_Source\PSoC4/USBUART_std.c ****                 {
 1813              		.loc 1 274 0
 1814 0192 002C     		cmp	r4, #0
 1815 0194 01D0     		beq	.L129
 274:Generated_Source\PSoC4/USBUART_std.c ****                 {
 1816              		.loc 1 274 0 is_stmt 0 discriminator 1
 1817 0196 0028     		cmp	r0, #0
 1818 0198 02D1     		bne	.L130
ARM GAS  C:\Users\TERENC~1\AppData\Local\Temp\ccz498Tm.s 			page 58


 1819              	.L129:
 274:Generated_Source\PSoC4/USBUART_std.c ****                 {
 1820              		.loc 1 274 0 discriminator 3
 1821 019a 002C     		cmp	r4, #0
 1822 019c 00D0     		beq	.LCB1844
 1823 019e 87E0     		b	.L146	@long jump
 1824              	.LCB1844:
 1825              	.L130:
 277:Generated_Source\PSoC4/USBUART_std.c ****                     {
 1826              		.loc 1 277 0 is_stmt 1
 1827 01a0 564B     		ldr	r3, .L160+36
 1828 01a2 1B78     		ldrb	r3, [r3]
 1829 01a4 DBB2     		uxtb	r3, r3
 1830 01a6 9C42     		cmp	r4, r3
 1831 01a8 08D0     		beq	.L131
 279:Generated_Source\PSoC4/USBUART_std.c ****                         USBUART_configurationChanged = USBUART_TRUE;
 1832              		.loc 1 279 0
 1833 01aa E4B2     		uxtb	r4, r4
 1834              	.LVL173:
 1835 01ac 534B     		ldr	r3, .L160+36
 1836 01ae 1C70     		strb	r4, [r3]
 280:Generated_Source\PSoC4/USBUART_std.c ****                         USBUART_Config(USBUART_TRUE);
 1837              		.loc 1 280 0
 1838 01b0 0122     		movs	r2, #1
 1839 01b2 564B     		ldr	r3, .L160+52
 1840 01b4 1A70     		strb	r2, [r3]
 281:Generated_Source\PSoC4/USBUART_std.c ****                     }
 1841              		.loc 1 281 0
 1842 01b6 0120     		movs	r0, #1
 1843              	.LVL174:
 1844 01b8 FFF7FEFF 		bl	USBUART_Config
 1845              	.LVL175:
 1846              	.L131:
 283:Generated_Source\PSoC4/USBUART_std.c ****                 }
 1847              		.loc 1 283 0
 1848 01bc FFF7FEFF 		bl	USBUART_InitNoDataControlTransfer
 1849              	.LVL176:
 1850 01c0 89E0     		b	.L106
 1851              	.LVL177:
 1852              	.L127:
 288:Generated_Source\PSoC4/USBUART_std.c ****                 {
 1853              		.loc 1 288 0
 1854 01c2 FFF7FEFF 		bl	USBUART_ValidateAlternateSetting
 1855              	.LVL178:
 1856 01c6 0028     		cmp	r0, #0
 1857 01c8 74D0     		beq	.L147
 291:Generated_Source\PSoC4/USBUART_std.c ****                     USBUART_interfaceNumber = (uint8) USBUART_wIndexLoReg;
 1858              		.loc 1 291 0
 1859 01ca 434B     		ldr	r3, .L160
 1860 01cc 1969     		ldr	r1, [r3, #16]
 1861              	.LVL179:
 292:Generated_Source\PSoC4/USBUART_std.c ****                      
 1862              		.loc 1 292 0
 1863 01ce 1B69     		ldr	r3, [r3, #16]
 1864 01d0 DBB2     		uxtb	r3, r3
 1865 01d2 4F4A     		ldr	r2, .L160+56
 1866 01d4 1370     		strb	r3, [r2]
ARM GAS  C:\Users\TERENC~1\AppData\Local\Temp\ccz498Tm.s 			page 59


 295:Generated_Source\PSoC4/USBUART_std.c ****                     {
 1867              		.loc 1 295 0
 1868 01d6 4F4B     		ldr	r3, .L160+60
 1869 01d8 5A5C     		ldrb	r2, [r3, r1]
 1870 01da D2B2     		uxtb	r2, r2
 1871 01dc 484B     		ldr	r3, .L160+40
 1872 01de 5B5C     		ldrb	r3, [r3, r1]
 1873 01e0 DBB2     		uxtb	r3, r3
 1874 01e2 9A42     		cmp	r2, r3
 1875 01e4 04D0     		beq	.L132
 297:Generated_Source\PSoC4/USBUART_std.c ****                     
 1876              		.loc 1 297 0
 1877 01e6 0122     		movs	r2, #1
 1878 01e8 484B     		ldr	r3, .L160+52
 1879 01ea 1A70     		strb	r2, [r3]
 303:Generated_Source\PSoC4/USBUART_std.c ****                     #endif /* (USBUART_EP_MANAGEMENT_MANUAL && USBUART_EP_ALLOC_DYNAMIC) */
 1880              		.loc 1 303 0
 1881 01ec FFF7FEFF 		bl	USBUART_ConfigAltChanged
 1882              	.LVL180:
 1883              	.L132:
 307:Generated_Source\PSoC4/USBUART_std.c ****                 }
 1884              		.loc 1 307 0
 1885 01f0 FFF7FEFF 		bl	USBUART_InitNoDataControlTransfer
 1886              	.LVL181:
 1887 01f4 6FE0     		b	.L106
 1888              	.LVL182:
 1889              	.L122:
 312:Generated_Source\PSoC4/USBUART_std.c ****                 {
 1890              		.loc 1 312 0
 1891 01f6 0322     		movs	r2, #3
 1892 01f8 1340     		ands	r3, r2
 1893              	.LVL183:
 1894 01fa 012B     		cmp	r3, #1
 1895 01fc 16D0     		beq	.L133
 1896 01fe 002B     		cmp	r3, #0
 1897 0200 08D0     		beq	.L134
 1898 0202 022B     		cmp	r3, #2
 1899 0204 58D1     		bne	.L158
 315:Generated_Source\PSoC4/USBUART_std.c ****                         {
 1900              		.loc 1 315 0
 1901 0206 344B     		ldr	r3, .L160
 1902 0208 9B68     		ldr	r3, [r3, #8]
 1903 020a 002B     		cmp	r3, #0
 1904 020c 56D1     		bne	.L149
 317:Generated_Source\PSoC4/USBUART_std.c ****                         }
 1905              		.loc 1 317 0
 1906 020e FFF7FEFF 		bl	USBUART_ClearEndpointHalt
 1907              	.LVL184:
 1908 0212 60E0     		b	.L106
 1909              	.LVL185:
 1910              	.L134:
 322:Generated_Source\PSoC4/USBUART_std.c ****                         {
 1911              		.loc 1 322 0
 1912 0214 304B     		ldr	r3, .L160
 1913 0216 9B68     		ldr	r3, [r3, #8]
 1914 0218 012B     		cmp	r3, #1
 1915 021a 51D1     		bne	.L150
ARM GAS  C:\Users\TERENC~1\AppData\Local\Temp\ccz498Tm.s 			page 60


 324:Generated_Source\PSoC4/USBUART_std.c ****                             requestHandled = USBUART_InitNoDataControlTransfer();
 1916              		.loc 1 324 0
 1917 021c 364A     		ldr	r2, .L160+32
 1918 021e 1378     		ldrb	r3, [r2]
 1919 0220 0221     		movs	r1, #2
 1920 0222 8B43     		bics	r3, r1
 1921 0224 1370     		strb	r3, [r2]
 325:Generated_Source\PSoC4/USBUART_std.c ****                         }
 1922              		.loc 1 325 0
 1923 0226 FFF7FEFF 		bl	USBUART_InitNoDataControlTransfer
 1924              	.LVL186:
 1925 022a 54E0     		b	.L106
 1926              	.LVL187:
 1927              	.L133:
 330:Generated_Source\PSoC4/USBUART_std.c ****                         {
 1928              		.loc 1 330 0
 1929 022c 2A4B     		ldr	r3, .L160
 1930 022e 1B69     		ldr	r3, [r3, #16]
 1931 0230 012B     		cmp	r3, #1
 1932 0232 47D8     		bhi	.L151
 332:Generated_Source\PSoC4/USBUART_std.c ****                             requestHandled = USBUART_InitNoDataControlTransfer();
 1933              		.loc 1 332 0
 1934 0234 284B     		ldr	r3, .L160
 1935 0236 9868     		ldr	r0, [r3, #8]
 1936 0238 1A69     		ldr	r2, [r3, #16]
 1937 023a 3749     		ldr	r1, .L160+64
 1938 023c 8B5C     		ldrb	r3, [r1, r2]
 1939 023e 8343     		bics	r3, r0
 1940 0240 8B54     		strb	r3, [r1, r2]
 333:Generated_Source\PSoC4/USBUART_std.c ****                         }
 1941              		.loc 1 333 0
 1942 0242 FFF7FEFF 		bl	USBUART_InitNoDataControlTransfer
 1943              	.LVL188:
 1944 0246 46E0     		b	.L106
 1945              	.LVL189:
 1946              	.L124:
 342:Generated_Source\PSoC4/USBUART_std.c ****                 {
 1947              		.loc 1 342 0
 1948 0248 0322     		movs	r2, #3
 1949 024a 1340     		ands	r3, r2
 1950              	.LVL190:
 1951 024c 012B     		cmp	r3, #1
 1952 024e 17D0     		beq	.L136
 1953 0250 002B     		cmp	r3, #0
 1954 0252 08D0     		beq	.L137
 1955 0254 022B     		cmp	r3, #2
 1956 0256 37D1     		bne	.L159
 345:Generated_Source\PSoC4/USBUART_std.c ****                         {
 1957              		.loc 1 345 0
 1958 0258 1F4B     		ldr	r3, .L160
 1959 025a 9B68     		ldr	r3, [r3, #8]
 1960 025c 002B     		cmp	r3, #0
 1961 025e 35D1     		bne	.L153
 347:Generated_Source\PSoC4/USBUART_std.c ****                         }
 1962              		.loc 1 347 0
 1963 0260 FFF7FEFF 		bl	USBUART_SetEndpointHalt
 1964              	.LVL191:
ARM GAS  C:\Users\TERENC~1\AppData\Local\Temp\ccz498Tm.s 			page 61


 1965 0264 37E0     		b	.L106
 1966              	.LVL192:
 1967              	.L137:
 353:Generated_Source\PSoC4/USBUART_std.c ****                         {
 1968              		.loc 1 353 0
 1969 0266 1C4B     		ldr	r3, .L160
 1970 0268 9B68     		ldr	r3, [r3, #8]
 1971 026a 012B     		cmp	r3, #1
 1972 026c 30D1     		bne	.L154
 355:Generated_Source\PSoC4/USBUART_std.c ****                             requestHandled = USBUART_InitNoDataControlTransfer();
 1973              		.loc 1 355 0
 1974 026e 224A     		ldr	r2, .L160+32
 1975 0270 1178     		ldrb	r1, [r2]
 1976 0272 0223     		movs	r3, #2
 1977 0274 0B43     		orrs	r3, r1
 1978 0276 DBB2     		uxtb	r3, r3
 1979 0278 1370     		strb	r3, [r2]
 356:Generated_Source\PSoC4/USBUART_std.c ****                         }
 1980              		.loc 1 356 0
 1981 027a FFF7FEFF 		bl	USBUART_InitNoDataControlTransfer
 1982              	.LVL193:
 1983 027e 2AE0     		b	.L106
 1984              	.LVL194:
 1985              	.L136:
 362:Generated_Source\PSoC4/USBUART_std.c ****                         {
 1986              		.loc 1 362 0
 1987 0280 154B     		ldr	r3, .L160
 1988 0282 1B69     		ldr	r3, [r3, #16]
 1989 0284 012B     		cmp	r3, #1
 1990 0286 25D8     		bhi	.L155
 364:Generated_Source\PSoC4/USBUART_std.c ****                             requestHandled = USBUART_InitNoDataControlTransfer();
 1991              		.loc 1 364 0
 1992 0288 134B     		ldr	r3, .L160
 1993 028a 9868     		ldr	r0, [r3, #8]
 1994 028c 1A69     		ldr	r2, [r3, #16]
 1995 028e 2249     		ldr	r1, .L160+64
 1996 0290 8B5C     		ldrb	r3, [r1, r2]
 1997 0292 8343     		bics	r3, r0
 1998 0294 8B54     		strb	r3, [r1, r2]
 365:Generated_Source\PSoC4/USBUART_std.c ****                         }
 1999              		.loc 1 365 0
 2000 0296 FFF7FEFF 		bl	USBUART_InitNoDataControlTransfer
 2001              	.LVL195:
 2002 029a 1CE0     		b	.L106
 2003              	.LVL196:
 2004              	.L139:
  86:Generated_Source\PSoC4/USBUART_std.c ****     uint32 interfaceNumber;
 2005              		.loc 1 86 0
 2006 029c 0020     		movs	r0, #0
 2007 029e 1AE0     		b	.L106
 2008              	.LVL197:
 2009              	.L140:
 2010 02a0 0020     		movs	r0, #0
 2011              	.LVL198:
 2012 02a2 18E0     		b	.L106
 2013              	.LVL199:
 2014              	.L143:
ARM GAS  C:\Users\TERENC~1\AppData\Local\Temp\ccz498Tm.s 			page 62


 2015 02a4 0020     		movs	r0, #0
 2016 02a6 16E0     		b	.L106
 2017              	.LVL200:
 2018              	.L157:
 2019 02a8 0020     		movs	r0, #0
 2020 02aa 14E0     		b	.L106
 2021              	.LVL201:
 2022              	.L145:
 2023 02ac 0020     		movs	r0, #0
 2024 02ae 12E0     		b	.L106
 2025              	.LVL202:
 2026              	.L146:
 2027 02b0 0020     		movs	r0, #0
 2028              	.LVL203:
 2029 02b2 10E0     		b	.L106
 2030              	.LVL204:
 2031              	.L147:
 2032 02b4 0020     		movs	r0, #0
 2033 02b6 0EE0     		b	.L106
 2034              	.L158:
 2035 02b8 0020     		movs	r0, #0
 2036 02ba 0CE0     		b	.L106
 2037              	.L149:
 2038 02bc 0020     		movs	r0, #0
 2039 02be 0AE0     		b	.L106
 2040              	.L150:
 2041 02c0 0020     		movs	r0, #0
 2042 02c2 08E0     		b	.L106
 2043              	.L151:
 2044 02c4 0020     		movs	r0, #0
 2045 02c6 06E0     		b	.L106
 2046              	.L159:
 2047 02c8 0020     		movs	r0, #0
 2048 02ca 04E0     		b	.L106
 2049              	.L153:
 2050 02cc 0020     		movs	r0, #0
 2051 02ce 02E0     		b	.L106
 2052              	.L154:
 2053 02d0 0020     		movs	r0, #0
 2054 02d2 00E0     		b	.L106
 2055              	.L155:
 2056 02d4 0020     		movs	r0, #0
 2057              	.LVL205:
 2058              	.L106:
 380:Generated_Source\PSoC4/USBUART_std.c **** 
 2059              		.loc 1 380 0
 2060              		@ sp needed
 2061 02d6 10BD     		pop	{r4, pc}
 2062              	.L161:
 2063              		.align	2
 2064              	.L160:
 2065 02d8 00002C40 		.word	1076625408
 2066 02dc 00000000 		.word	USBUART_currentTD
 2067 02e0 00000000 		.word	USBUART_STRING_DESCRIPTORS
 2068 02e4 00000000 		.word	USBUART_MSOS_DESCRIPTOR
 2069 02e8 00000000 		.word	USBUART_DEVICE0_DESCR
 2070 02ec 00000000 		.word	USBUART_idSerialNumberStringDescriptor
ARM GAS  C:\Users\TERENC~1\AppData\Local\Temp\ccz498Tm.s 			page 63


 2071 02f0 00000000 		.word	USBUART_EP
 2072 02f4 00000000 		.word	.LANCHOR0
 2073 02f8 00000000 		.word	USBUART_deviceStatus
 2074 02fc 00000000 		.word	USBUART_configuration
 2075 0300 00000000 		.word	USBUART_interfaceSetting
 2076 0304 00000000 		.word	.L123
 2077 0308 00000000 		.word	USBUART_deviceAddress
 2078 030c 00000000 		.word	USBUART_configurationChanged
 2079 0310 00000000 		.word	USBUART_interfaceNumber
 2080 0314 00000000 		.word	USBUART_interfaceSettingLast
 2081 0318 00000000 		.word	USBUART_interfaceStatus
 2082              		.cfi_endproc
 2083              	.LFE1:
 2084              		.size	USBUART_HandleStandardRqst, .-USBUART_HandleStandardRqst
 2085              		.section	.rodata.str1.4,"aMS",%progbits,1
 2086              		.align	2
 2087              	.LC0:
 2088 0000 30313233 		.ascii	"0123456789ABCDEF\000"
 2088      34353637 
 2088      38394142 
 2088      43444546 
 2088      00
 2089              		.bss
 2090              		.align	2
 2091              		.set	.LANCHOR0,. + 0
 2092              		.type	USBUART_tBuffer.5262, %object
 2093              		.size	USBUART_tBuffer.5262, 2
 2094              	USBUART_tBuffer.5262:
 2095 0000 0000     		.space	2
 2096              		.text
 2097              	.Letext0:
 2098              		.file 2 "Generated_Source\\PSoC4\\cytypes.h"
 2099              		.file 3 "Generated_Source\\PSoC4\\USBUART.h"
 2100              		.file 4 "Generated_Source\\PSoC4\\USBUART_pvt.h"
 2101              		.file 5 "Generated_Source\\PSoC4\\CyLib.h"
 2102              		.section	.debug_info,"",%progbits
 2103              	.Ldebug_info0:
 2104 0000 F30B0000 		.4byte	0xbf3
 2105 0004 0400     		.2byte	0x4
 2106 0006 00000000 		.4byte	.Ldebug_abbrev0
 2107 000a 04       		.byte	0x4
 2108 000b 01       		.uleb128 0x1
 2109 000c 39000000 		.4byte	.LASF126
 2110 0010 0C       		.byte	0xc
 2111 0011 E8000000 		.4byte	.LASF127
 2112 0015 DD030000 		.4byte	.LASF128
 2113 0019 00000000 		.4byte	.Ldebug_ranges0+0
 2114 001d 00000000 		.4byte	0
 2115 0021 00000000 		.4byte	.Ldebug_line0
 2116 0025 02       		.uleb128 0x2
 2117 0026 01       		.byte	0x1
 2118 0027 06       		.byte	0x6
 2119 0028 87010000 		.4byte	.LASF0
 2120 002c 02       		.uleb128 0x2
 2121 002d 01       		.byte	0x1
 2122 002e 08       		.byte	0x8
 2123 002f 29060000 		.4byte	.LASF1
ARM GAS  C:\Users\TERENC~1\AppData\Local\Temp\ccz498Tm.s 			page 64


 2124 0033 02       		.uleb128 0x2
 2125 0034 02       		.byte	0x2
 2126 0035 05       		.byte	0x5
 2127 0036 3E060000 		.4byte	.LASF2
 2128 003a 02       		.uleb128 0x2
 2129 003b 02       		.byte	0x2
 2130 003c 07       		.byte	0x7
 2131 003d 39040000 		.4byte	.LASF3
 2132 0041 02       		.uleb128 0x2
 2133 0042 04       		.byte	0x4
 2134 0043 05       		.byte	0x5
 2135 0044 5B020000 		.4byte	.LASF4
 2136 0048 02       		.uleb128 0x2
 2137 0049 04       		.byte	0x4
 2138 004a 07       		.byte	0x7
 2139 004b CB030000 		.4byte	.LASF5
 2140 004f 02       		.uleb128 0x2
 2141 0050 08       		.byte	0x8
 2142 0051 05       		.byte	0x5
 2143 0052 79010000 		.4byte	.LASF6
 2144 0056 02       		.uleb128 0x2
 2145 0057 08       		.byte	0x8
 2146 0058 07       		.byte	0x7
 2147 0059 D1000000 		.4byte	.LASF7
 2148 005d 03       		.uleb128 0x3
 2149 005e 04       		.byte	0x4
 2150 005f 05       		.byte	0x5
 2151 0060 696E7400 		.ascii	"int\000"
 2152 0064 02       		.uleb128 0x2
 2153 0065 04       		.byte	0x4
 2154 0066 07       		.byte	0x7
 2155 0067 9C030000 		.4byte	.LASF8
 2156 006b 04       		.uleb128 0x4
 2157 006c 97020000 		.4byte	.LASF9
 2158 0070 02       		.byte	0x2
 2159 0071 E401     		.2byte	0x1e4
 2160 0073 2C000000 		.4byte	0x2c
 2161 0077 04       		.uleb128 0x4
 2162 0078 13000000 		.4byte	.LASF10
 2163 007c 02       		.byte	0x2
 2164 007d E501     		.2byte	0x1e5
 2165 007f 3A000000 		.4byte	0x3a
 2166 0083 04       		.uleb128 0x4
 2167 0084 FF020000 		.4byte	.LASF11
 2168 0088 02       		.byte	0x2
 2169 0089 E601     		.2byte	0x1e6
 2170 008b 48000000 		.4byte	0x48
 2171 008f 02       		.uleb128 0x2
 2172 0090 04       		.byte	0x4
 2173 0091 04       		.byte	0x4
 2174 0092 D1050000 		.4byte	.LASF12
 2175 0096 02       		.uleb128 0x2
 2176 0097 08       		.byte	0x8
 2177 0098 04       		.byte	0x4
 2178 0099 D2020000 		.4byte	.LASF13
 2179 009d 04       		.uleb128 0x4
 2180 009e 33070000 		.4byte	.LASF14
ARM GAS  C:\Users\TERENC~1\AppData\Local\Temp\ccz498Tm.s 			page 65


 2181 00a2 02       		.byte	0x2
 2182 00a3 F501     		.2byte	0x1f5
 2183 00a5 A9000000 		.4byte	0xa9
 2184 00a9 02       		.uleb128 0x2
 2185 00aa 01       		.byte	0x1
 2186 00ab 08       		.byte	0x8
 2187 00ac C0060000 		.4byte	.LASF15
 2188 00b0 05       		.uleb128 0x5
 2189 00b1 6B000000 		.4byte	0x6b
 2190 00b5 04       		.uleb128 0x4
 2191 00b6 98040000 		.4byte	.LASF16
 2192 00ba 02       		.byte	0x2
 2193 00bb 9002     		.2byte	0x290
 2194 00bd C1000000 		.4byte	0xc1
 2195 00c1 05       		.uleb128 0x5
 2196 00c2 83000000 		.4byte	0x83
 2197 00c6 02       		.uleb128 0x2
 2198 00c7 08       		.byte	0x8
 2199 00c8 04       		.byte	0x4
 2200 00c9 08050000 		.4byte	.LASF17
 2201 00cd 02       		.uleb128 0x2
 2202 00ce 04       		.byte	0x4
 2203 00cf 07       		.byte	0x7
 2204 00d0 FF040000 		.4byte	.LASF18
 2205 00d4 06       		.uleb128 0x6
 2206 00d5 0C       		.byte	0xc
 2207 00d6 03       		.byte	0x3
 2208 00d7 92       		.byte	0x92
 2209 00d8 49010000 		.4byte	0x149
 2210 00dc 07       		.uleb128 0x7
 2211 00dd 43050000 		.4byte	.LASF19
 2212 00e1 03       		.byte	0x3
 2213 00e2 94       		.byte	0x94
 2214 00e3 6B000000 		.4byte	0x6b
 2215 00e7 00       		.byte	0
 2216 00e8 07       		.uleb128 0x7
 2217 00e9 D7050000 		.4byte	.LASF20
 2218 00ed 03       		.byte	0x3
 2219 00ee 95       		.byte	0x95
 2220 00ef 6B000000 		.4byte	0x6b
 2221 00f3 01       		.byte	0x1
 2222 00f4 07       		.uleb128 0x7
 2223 00f5 DE040000 		.4byte	.LASF21
 2224 00f9 03       		.byte	0x3
 2225 00fa 96       		.byte	0x96
 2226 00fb 6B000000 		.4byte	0x6b
 2227 00ff 02       		.byte	0x2
 2228 0100 07       		.uleb128 0x7
 2229 0101 9D020000 		.4byte	.LASF22
 2230 0105 03       		.byte	0x3
 2231 0106 97       		.byte	0x97
 2232 0107 6B000000 		.4byte	0x6b
 2233 010b 03       		.byte	0x3
 2234 010c 07       		.uleb128 0x7
 2235 010d 0D010000 		.4byte	.LASF23
 2236 0111 03       		.byte	0x3
 2237 0112 98       		.byte	0x98
ARM GAS  C:\Users\TERENC~1\AppData\Local\Temp\ccz498Tm.s 			page 66


 2238 0113 6B000000 		.4byte	0x6b
 2239 0117 04       		.byte	0x4
 2240 0118 07       		.uleb128 0x7
 2241 0119 2C030000 		.4byte	.LASF24
 2242 011d 03       		.byte	0x3
 2243 011e 99       		.byte	0x99
 2244 011f 6B000000 		.4byte	0x6b
 2245 0123 05       		.byte	0x5
 2246 0124 07       		.uleb128 0x7
 2247 0125 28070000 		.4byte	.LASF25
 2248 0129 03       		.byte	0x3
 2249 012a 9A       		.byte	0x9a
 2250 012b 77000000 		.4byte	0x77
 2251 012f 06       		.byte	0x6
 2252 0130 07       		.uleb128 0x7
 2253 0131 C5060000 		.4byte	.LASF26
 2254 0135 03       		.byte	0x3
 2255 0136 9B       		.byte	0x9b
 2256 0137 77000000 		.4byte	0x77
 2257 013b 08       		.byte	0x8
 2258 013c 07       		.uleb128 0x7
 2259 013d 7C040000 		.4byte	.LASF27
 2260 0141 03       		.byte	0x3
 2261 0142 9C       		.byte	0x9c
 2262 0143 6B000000 		.4byte	0x6b
 2263 0147 0A       		.byte	0xa
 2264 0148 00       		.byte	0
 2265 0149 08       		.uleb128 0x8
 2266 014a 11070000 		.4byte	.LASF28
 2267 014e 03       		.byte	0x3
 2268 014f 9D       		.byte	0x9d
 2269 0150 D4000000 		.4byte	0xd4
 2270 0154 06       		.uleb128 0x6
 2271 0155 08       		.byte	0x8
 2272 0156 03       		.byte	0x3
 2273 0157 9F       		.byte	0x9f
 2274 0158 A5010000 		.4byte	0x1a5
 2275 015c 07       		.uleb128 0x7
 2276 015d 7C040000 		.4byte	.LASF27
 2277 0161 03       		.byte	0x3
 2278 0162 A1       		.byte	0xa1
 2279 0163 6B000000 		.4byte	0x6b
 2280 0167 00       		.byte	0
 2281 0168 07       		.uleb128 0x7
 2282 0169 B5060000 		.4byte	.LASF29
 2283 016d 03       		.byte	0x3
 2284 016e A2       		.byte	0xa2
 2285 016f 6B000000 		.4byte	0x6b
 2286 0173 01       		.byte	0x1
 2287 0174 07       		.uleb128 0x7
 2288 0175 0D010000 		.4byte	.LASF23
 2289 0179 03       		.byte	0x3
 2290 017a A3       		.byte	0xa3
 2291 017b 6B000000 		.4byte	0x6b
 2292 017f 02       		.byte	0x2
 2293 0180 07       		.uleb128 0x7
 2294 0181 90060000 		.4byte	.LASF30
ARM GAS  C:\Users\TERENC~1\AppData\Local\Temp\ccz498Tm.s 			page 67


 2295 0185 03       		.byte	0x3
 2296 0186 A4       		.byte	0xa4
 2297 0187 6B000000 		.4byte	0x6b
 2298 018b 03       		.byte	0x3
 2299 018c 07       		.uleb128 0x7
 2300 018d C5060000 		.4byte	.LASF26
 2301 0191 03       		.byte	0x3
 2302 0192 A5       		.byte	0xa5
 2303 0193 77000000 		.4byte	0x77
 2304 0197 04       		.byte	0x4
 2305 0198 07       		.uleb128 0x7
 2306 0199 C0070000 		.4byte	.LASF31
 2307 019d 03       		.byte	0x3
 2308 019e A6       		.byte	0xa6
 2309 019f 6B000000 		.4byte	0x6b
 2310 01a3 06       		.byte	0x6
 2311 01a4 00       		.byte	0
 2312 01a5 08       		.uleb128 0x8
 2313 01a6 39070000 		.4byte	.LASF32
 2314 01aa 03       		.byte	0x3
 2315 01ab A7       		.byte	0xa7
 2316 01ac 54010000 		.4byte	0x154
 2317 01b0 06       		.uleb128 0x6
 2318 01b1 04       		.byte	0x4
 2319 01b2 03       		.byte	0x3
 2320 01b3 A9       		.byte	0xa9
 2321 01b4 D1010000 		.4byte	0x1d1
 2322 01b8 07       		.uleb128 0x7
 2323 01b9 86070000 		.4byte	.LASF33
 2324 01bd 03       		.byte	0x3
 2325 01be AB       		.byte	0xab
 2326 01bf 6B000000 		.4byte	0x6b
 2327 01c3 00       		.byte	0
 2328 01c4 07       		.uleb128 0x7
 2329 01c5 6E070000 		.4byte	.LASF34
 2330 01c9 03       		.byte	0x3
 2331 01ca AC       		.byte	0xac
 2332 01cb 77000000 		.4byte	0x77
 2333 01cf 02       		.byte	0x2
 2334 01d0 00       		.byte	0
 2335 01d1 08       		.uleb128 0x8
 2336 01d2 26010000 		.4byte	.LASF35
 2337 01d6 03       		.byte	0x3
 2338 01d7 AD       		.byte	0xad
 2339 01d8 B0010000 		.4byte	0x1b0
 2340 01dc 06       		.uleb128 0x6
 2341 01dd 0C       		.byte	0xc
 2342 01de 03       		.byte	0x3
 2343 01df AF       		.byte	0xaf
 2344 01e0 09020000 		.4byte	0x209
 2345 01e4 07       		.uleb128 0x7
 2346 01e5 0D000000 		.4byte	.LASF36
 2347 01e9 03       		.byte	0x3
 2348 01ea B1       		.byte	0xb1
 2349 01eb 77000000 		.4byte	0x77
 2350 01ef 00       		.byte	0
 2351 01f0 07       		.uleb128 0x7
ARM GAS  C:\Users\TERENC~1\AppData\Local\Temp\ccz498Tm.s 			page 68


 2352 01f1 20030000 		.4byte	.LASF37
 2353 01f5 03       		.byte	0x3
 2354 01f6 B2       		.byte	0xb2
 2355 01f7 09020000 		.4byte	0x209
 2356 01fb 04       		.byte	0x4
 2357 01fc 07       		.uleb128 0x7
 2358 01fd 00000000 		.4byte	.LASF38
 2359 0201 03       		.byte	0x3
 2360 0202 B3       		.byte	0xb3
 2361 0203 0F020000 		.4byte	0x20f
 2362 0207 08       		.byte	0x8
 2363 0208 00       		.byte	0
 2364 0209 09       		.uleb128 0x9
 2365 020a 04       		.byte	0x4
 2366 020b B0000000 		.4byte	0xb0
 2367 020f 09       		.uleb128 0x9
 2368 0210 04       		.byte	0x4
 2369 0211 D1010000 		.4byte	0x1d1
 2370 0215 08       		.uleb128 0x8
 2371 0216 55060000 		.4byte	.LASF39
 2372 021a 03       		.byte	0x3
 2373 021b B4       		.byte	0xb4
 2374 021c DC010000 		.4byte	0x1dc
 2375 0220 06       		.uleb128 0x6
 2376 0221 08       		.byte	0x8
 2377 0222 03       		.byte	0x3
 2378 0223 B6       		.byte	0xb6
 2379 0224 3F020000 		.4byte	0x23f
 2380 0228 0A       		.uleb128 0xa
 2381 0229 6300     		.ascii	"c\000"
 2382 022b 03       		.byte	0x3
 2383 022c B8       		.byte	0xb8
 2384 022d 6B000000 		.4byte	0x6b
 2385 0231 00       		.byte	0
 2386 0232 07       		.uleb128 0x7
 2387 0233 32050000 		.4byte	.LASF40
 2388 0237 03       		.byte	0x3
 2389 0238 B9       		.byte	0xb9
 2390 0239 3F020000 		.4byte	0x23f
 2391 023d 04       		.byte	0x4
 2392 023e 00       		.byte	0
 2393 023f 09       		.uleb128 0x9
 2394 0240 04       		.byte	0x4
 2395 0241 45020000 		.4byte	0x245
 2396 0245 0B       		.uleb128 0xb
 2397 0246 08       		.uleb128 0x8
 2398 0247 9E040000 		.4byte	.LASF41
 2399 024b 03       		.byte	0x3
 2400 024c BA       		.byte	0xba
 2401 024d 20020000 		.4byte	0x220
 2402 0251 06       		.uleb128 0x6
 2403 0252 20       		.byte	0x20
 2404 0253 03       		.byte	0x3
 2405 0254 CA       		.byte	0xca
 2406 0255 66020000 		.4byte	0x266
 2407 0259 07       		.uleb128 0x7
 2408 025a B9070000 		.4byte	.LASF42
ARM GAS  C:\Users\TERENC~1\AppData\Local\Temp\ccz498Tm.s 			page 69


 2409 025e 03       		.byte	0x3
 2410 025f CC       		.byte	0xcc
 2411 0260 66020000 		.4byte	0x266
 2412 0264 00       		.byte	0
 2413 0265 00       		.byte	0
 2414 0266 0C       		.uleb128 0xc
 2415 0267 83000000 		.4byte	0x83
 2416 026b 76020000 		.4byte	0x276
 2417 026f 0D       		.uleb128 0xd
 2418 0270 CD000000 		.4byte	0xcd
 2419 0274 07       		.byte	0x7
 2420 0275 00       		.byte	0
 2421 0276 08       		.uleb128 0x8
 2422 0277 43020000 		.4byte	.LASF43
 2423 027b 03       		.byte	0x3
 2424 027c CD       		.byte	0xcd
 2425 027d 51020000 		.4byte	0x251
 2426 0281 06       		.uleb128 0x6
 2427 0282 40       		.byte	0x40
 2428 0283 03       		.byte	0x3
 2429 0284 D9       		.byte	0xd9
 2430 0285 BA020000 		.4byte	0x2ba
 2431 0289 07       		.uleb128 0x7
 2432 028a 95050000 		.4byte	.LASF44
 2433 028e 03       		.byte	0x3
 2434 028f DB       		.byte	0xdb
 2435 0290 83000000 		.4byte	0x83
 2436 0294 00       		.byte	0
 2437 0295 07       		.uleb128 0x7
 2438 0296 9C050000 		.4byte	.LASF45
 2439 029a 03       		.byte	0x3
 2440 029b DC       		.byte	0xdc
 2441 029c 83000000 		.4byte	0x83
 2442 02a0 04       		.byte	0x4
 2443 02a1 07       		.uleb128 0x7
 2444 02a2 BE050000 		.4byte	.LASF46
 2445 02a6 03       		.byte	0x3
 2446 02a7 DD       		.byte	0xdd
 2447 02a8 83000000 		.4byte	0x83
 2448 02ac 08       		.byte	0x8
 2449 02ad 0A       		.uleb128 0xa
 2450 02ae 67617000 		.ascii	"gap\000"
 2451 02b2 03       		.byte	0x3
 2452 02b3 DE       		.byte	0xde
 2453 02b4 BA020000 		.4byte	0x2ba
 2454 02b8 0C       		.byte	0xc
 2455 02b9 00       		.byte	0
 2456 02ba 0C       		.uleb128 0xc
 2457 02bb 83000000 		.4byte	0x83
 2458 02bf CA020000 		.4byte	0x2ca
 2459 02c3 0D       		.uleb128 0xd
 2460 02c4 CD000000 		.4byte	0xcd
 2461 02c8 0C       		.byte	0xc
 2462 02c9 00       		.byte	0
 2463 02ca 08       		.uleb128 0x8
 2464 02cb 7A060000 		.4byte	.LASF47
 2465 02cf 03       		.byte	0x3
ARM GAS  C:\Users\TERENC~1\AppData\Local\Temp\ccz498Tm.s 			page 70


 2466 02d0 DF       		.byte	0xdf
 2467 02d1 81020000 		.4byte	0x281
 2468 02d5 06       		.uleb128 0x6
 2469 02d6 40       		.byte	0x40
 2470 02d7 03       		.byte	0x3
 2471 02d8 EB       		.byte	0xeb
 2472 02d9 56030000 		.4byte	0x356
 2473 02dd 07       		.uleb128 0x7
 2474 02de 19010000 		.4byte	.LASF48
 2475 02e2 03       		.byte	0x3
 2476 02e3 ED       		.byte	0xed
 2477 02e4 83000000 		.4byte	0x83
 2478 02e8 00       		.byte	0
 2479 02e9 07       		.uleb128 0x7
 2480 02ea DE070000 		.4byte	.LASF49
 2481 02ee 03       		.byte	0x3
 2482 02ef EE       		.byte	0xee
 2483 02f0 83000000 		.4byte	0x83
 2484 02f4 04       		.byte	0x4
 2485 02f5 07       		.uleb128 0x7
 2486 02f6 E2020000 		.4byte	.LASF50
 2487 02fa 03       		.byte	0x3
 2488 02fb EF       		.byte	0xef
 2489 02fc 83000000 		.4byte	0x83
 2490 0300 08       		.byte	0x8
 2491 0301 07       		.uleb128 0x7
 2492 0302 48030000 		.4byte	.LASF51
 2493 0306 03       		.byte	0x3
 2494 0307 F0       		.byte	0xf0
 2495 0308 83000000 		.4byte	0x83
 2496 030c 0C       		.byte	0xc
 2497 030d 07       		.uleb128 0x7
 2498 030e A6020000 		.4byte	.LASF52
 2499 0312 03       		.byte	0x3
 2500 0313 F1       		.byte	0xf1
 2501 0314 83000000 		.4byte	0x83
 2502 0318 10       		.byte	0x10
 2503 0319 07       		.uleb128 0x7
 2504 031a 4D060000 		.4byte	.LASF53
 2505 031e 03       		.byte	0x3
 2506 031f F2       		.byte	0xf2
 2507 0320 83000000 		.4byte	0x83
 2508 0324 14       		.byte	0x14
 2509 0325 07       		.uleb128 0x7
 2510 0326 48060000 		.4byte	.LASF54
 2511 032a 03       		.byte	0x3
 2512 032b F3       		.byte	0xf3
 2513 032c 83000000 		.4byte	0x83
 2514 0330 18       		.byte	0x18
 2515 0331 07       		.uleb128 0x7
 2516 0332 8D050000 		.4byte	.LASF55
 2517 0336 03       		.byte	0x3
 2518 0337 F4       		.byte	0xf4
 2519 0338 83000000 		.4byte	0x83
 2520 033c 1C       		.byte	0x1c
 2521 033d 07       		.uleb128 0x7
 2522 033e 8D070000 		.4byte	.LASF56
ARM GAS  C:\Users\TERENC~1\AppData\Local\Temp\ccz498Tm.s 			page 71


 2523 0342 03       		.byte	0x3
 2524 0343 F5       		.byte	0xf5
 2525 0344 83000000 		.4byte	0x83
 2526 0348 20       		.byte	0x20
 2527 0349 0A       		.uleb128 0xa
 2528 034a 67617000 		.ascii	"gap\000"
 2529 034e 03       		.byte	0x3
 2530 034f F6       		.byte	0xf6
 2531 0350 56030000 		.4byte	0x356
 2532 0354 24       		.byte	0x24
 2533 0355 00       		.byte	0
 2534 0356 0C       		.uleb128 0xc
 2535 0357 83000000 		.4byte	0x83
 2536 035b 66030000 		.4byte	0x366
 2537 035f 0D       		.uleb128 0xd
 2538 0360 CD000000 		.4byte	0xcd
 2539 0364 06       		.byte	0x6
 2540 0365 00       		.byte	0
 2541 0366 08       		.uleb128 0x8
 2542 0367 C8040000 		.4byte	.LASF57
 2543 036b 03       		.byte	0x3
 2544 036c F7       		.byte	0xf7
 2545 036d D5020000 		.4byte	0x2d5
 2546 0371 0E       		.uleb128 0xe
 2547 0372 40       		.byte	0x40
 2548 0373 03       		.byte	0x3
 2549 0374 0401     		.2byte	0x104
 2550 0376 C9030000 		.4byte	0x3c9
 2551 037a 0F       		.uleb128 0xf
 2552 037b 12010000 		.4byte	.LASF58
 2553 037f 03       		.byte	0x3
 2554 0380 0601     		.2byte	0x106
 2555 0382 83000000 		.4byte	0x83
 2556 0386 00       		.byte	0
 2557 0387 0F       		.uleb128 0xf
 2558 0388 E6070000 		.4byte	.LASF59
 2559 038c 03       		.byte	0x3
 2560 038d 0701     		.2byte	0x107
 2561 038f 83000000 		.4byte	0x83
 2562 0393 04       		.byte	0x4
 2563 0394 0F       		.uleb128 0xf
 2564 0395 37060000 		.4byte	.LASF60
 2565 0399 03       		.byte	0x3
 2566 039a 0801     		.2byte	0x108
 2567 039c 83000000 		.4byte	0x83
 2568 03a0 08       		.byte	0x8
 2569 03a1 0F       		.uleb128 0xf
 2570 03a2 F0070000 		.4byte	.LASF61
 2571 03a6 03       		.byte	0x3
 2572 03a7 0901     		.2byte	0x109
 2573 03a9 83000000 		.4byte	0x83
 2574 03ad 0C       		.byte	0xc
 2575 03ae 0F       		.uleb128 0xf
 2576 03af 1F010000 		.4byte	.LASF62
 2577 03b3 03       		.byte	0x3
 2578 03b4 0A01     		.2byte	0x10a
 2579 03b6 83000000 		.4byte	0x83
ARM GAS  C:\Users\TERENC~1\AppData\Local\Temp\ccz498Tm.s 			page 72


 2580 03ba 10       		.byte	0x10
 2581 03bb 10       		.uleb128 0x10
 2582 03bc 67617000 		.ascii	"gap\000"
 2583 03c0 03       		.byte	0x3
 2584 03c1 0B01     		.2byte	0x10b
 2585 03c3 C9030000 		.4byte	0x3c9
 2586 03c7 14       		.byte	0x14
 2587 03c8 00       		.byte	0
 2588 03c9 0C       		.uleb128 0xc
 2589 03ca 83000000 		.4byte	0x83
 2590 03ce D9030000 		.4byte	0x3d9
 2591 03d2 0D       		.uleb128 0xd
 2592 03d3 CD000000 		.4byte	0xcd
 2593 03d7 0A       		.byte	0xa
 2594 03d8 00       		.byte	0
 2595 03d9 04       		.uleb128 0x4
 2596 03da 80030000 		.4byte	.LASF63
 2597 03de 03       		.byte	0x3
 2598 03df 0C01     		.2byte	0x10c
 2599 03e1 71030000 		.4byte	0x371
 2600 03e5 11       		.uleb128 0x11
 2601 03e6 4002     		.2byte	0x240
 2602 03e8 03       		.byte	0x3
 2603 03e9 1301     		.2byte	0x113
 2604 03eb FD030000 		.4byte	0x3fd
 2605 03ef 0F       		.uleb128 0xf
 2606 03f0 26030000 		.4byte	.LASF64
 2607 03f4 03       		.byte	0x3
 2608 03f5 1501     		.2byte	0x115
 2609 03f7 FD030000 		.4byte	0x3fd
 2610 03fb 00       		.byte	0
 2611 03fc 00       		.byte	0
 2612 03fd 0C       		.uleb128 0xc
 2613 03fe CA020000 		.4byte	0x2ca
 2614 0402 0D040000 		.4byte	0x40d
 2615 0406 0D       		.uleb128 0xd
 2616 0407 CD000000 		.4byte	0xcd
 2617 040b 08       		.byte	0x8
 2618 040c 00       		.byte	0
 2619 040d 04       		.uleb128 0x4
 2620 040e 14020000 		.4byte	.LASF65
 2621 0412 03       		.byte	0x3
 2622 0413 1601     		.2byte	0x116
 2623 0415 E5030000 		.4byte	0x3e5
 2624 0419 11       		.uleb128 0x11
 2625 041a 4002     		.2byte	0x240
 2626 041c 03       		.byte	0x3
 2627 041d 1901     		.2byte	0x119
 2628 041f 31040000 		.4byte	0x431
 2629 0423 0F       		.uleb128 0xf
 2630 0424 76040000 		.4byte	.LASF66
 2631 0428 03       		.byte	0x3
 2632 0429 1B01     		.2byte	0x11b
 2633 042b 31040000 		.4byte	0x431
 2634 042f 00       		.byte	0
 2635 0430 00       		.byte	0
 2636 0431 0C       		.uleb128 0xc
ARM GAS  C:\Users\TERENC~1\AppData\Local\Temp\ccz498Tm.s 			page 73


 2637 0432 66030000 		.4byte	0x366
 2638 0436 41040000 		.4byte	0x441
 2639 043a 0D       		.uleb128 0xd
 2640 043b CD000000 		.4byte	0xcd
 2641 043f 08       		.byte	0x8
 2642 0440 00       		.byte	0
 2643 0441 04       		.uleb128 0x4
 2644 0442 E8040000 		.4byte	.LASF67
 2645 0446 03       		.byte	0x3
 2646 0447 1C01     		.2byte	0x11c
 2647 0449 19040000 		.4byte	0x419
 2648 044d 11       		.uleb128 0x11
 2649 044e 4002     		.2byte	0x240
 2650 0450 03       		.byte	0x3
 2651 0451 2001     		.2byte	0x120
 2652 0453 65040000 		.4byte	0x465
 2653 0457 0F       		.uleb128 0xf
 2654 0458 76040000 		.4byte	.LASF66
 2655 045c 03       		.byte	0x3
 2656 045d 2201     		.2byte	0x122
 2657 045f 65040000 		.4byte	0x465
 2658 0463 00       		.byte	0
 2659 0464 00       		.byte	0
 2660 0465 0C       		.uleb128 0xc
 2661 0466 D9030000 		.4byte	0x3d9
 2662 046a 75040000 		.4byte	0x475
 2663 046e 0D       		.uleb128 0xd
 2664 046f CD000000 		.4byte	0xcd
 2665 0473 08       		.byte	0x8
 2666 0474 00       		.byte	0
 2667 0475 04       		.uleb128 0x4
 2668 0476 D0060000 		.4byte	.LASF68
 2669 047a 03       		.byte	0x3
 2670 047b 2301     		.2byte	0x123
 2671 047d 4D040000 		.4byte	0x44d
 2672 0481 12       		.uleb128 0x12
 2673 0482 85020000 		.4byte	.LASF70
 2674 0486 01       		.byte	0x1
 2675 0487 8E01     		.2byte	0x18e
 2676 0489 00000000 		.4byte	.LFB2
 2677 048d 64000000 		.4byte	.LFE2-.LFB2
 2678 0491 01       		.uleb128 0x1
 2679 0492 9C       		.byte	0x9c
 2680 0493 F2040000 		.4byte	0x4f2
 2681 0497 13       		.uleb128 0x13
 2682 0498 23060000 		.4byte	.LASF73
 2683 049c 01       		.byte	0x1
 2684 049d 8E01     		.2byte	0x18e
 2685 049f F2040000 		.4byte	0x4f2
 2686 04a3 00000000 		.4byte	.LLST0
 2687 04a7 14       		.uleb128 0x14
 2688 04a8 68657800 		.ascii	"hex\000"
 2689 04ac 01       		.byte	0x1
 2690 04ad 9001     		.2byte	0x190
 2691 04af 0D050000 		.4byte	0x50d
 2692 04b3 02       		.uleb128 0x2
 2693 04b4 91       		.byte	0x91
ARM GAS  C:\Users\TERENC~1\AppData\Local\Temp\ccz498Tm.s 			page 74


 2694 04b5 54       		.sleb128 -44
 2695 04b6 15       		.uleb128 0x15
 2696 04b7 6900     		.ascii	"i\000"
 2697 04b9 01       		.byte	0x1
 2698 04ba 9101     		.2byte	0x191
 2699 04bc 83000000 		.4byte	0x83
 2700 04c0 2C000000 		.4byte	.LLST1
 2701 04c4 15       		.uleb128 0x15
 2702 04c5 6A00     		.ascii	"j\000"
 2703 04c7 01       		.byte	0x1
 2704 04c8 9201     		.2byte	0x192
 2705 04ca 83000000 		.4byte	0x83
 2706 04ce 4B000000 		.4byte	.LLST2
 2707 04d2 16       		.uleb128 0x16
 2708 04d3 55070000 		.4byte	.LASF69
 2709 04d7 01       		.byte	0x1
 2710 04d8 9301     		.2byte	0x193
 2711 04da 12050000 		.4byte	0x512
 2712 04de 02       		.uleb128 0x2
 2713 04df 91       		.byte	0x91
 2714 04e0 4C       		.sleb128 -52
 2715 04e1 17       		.uleb128 0x17
 2716 04e2 2A000000 		.4byte	.LVL3
 2717 04e6 BD0B0000 		.4byte	0xbbd
 2718 04ea 18       		.uleb128 0x18
 2719 04eb 01       		.uleb128 0x1
 2720 04ec 50       		.byte	0x50
 2721 04ed 02       		.uleb128 0x2
 2722 04ee 91       		.byte	0x91
 2723 04ef 4C       		.sleb128 -52
 2724 04f0 00       		.byte	0
 2725 04f1 00       		.byte	0
 2726 04f2 09       		.uleb128 0x9
 2727 04f3 04       		.byte	0x4
 2728 04f4 6B000000 		.4byte	0x6b
 2729 04f8 0C       		.uleb128 0xc
 2730 04f9 08050000 		.4byte	0x508
 2731 04fd 08050000 		.4byte	0x508
 2732 0501 0D       		.uleb128 0xd
 2733 0502 CD000000 		.4byte	0xcd
 2734 0506 10       		.byte	0x10
 2735 0507 00       		.byte	0
 2736 0508 19       		.uleb128 0x19
 2737 0509 9D000000 		.4byte	0x9d
 2738 050d 19       		.uleb128 0x19
 2739 050e F8040000 		.4byte	0x4f8
 2740 0512 0C       		.uleb128 0xc
 2741 0513 6B000000 		.4byte	0x6b
 2742 0517 22050000 		.4byte	0x522
 2743 051b 0D       		.uleb128 0xd
 2744 051c CD000000 		.4byte	0xcd
 2745 0520 07       		.byte	0x7
 2746 0521 00       		.byte	0
 2747 0522 12       		.uleb128 0x12
 2748 0523 86040000 		.4byte	.LASF71
 2749 0527 01       		.byte	0x1
 2750 0528 B501     		.2byte	0x1b5
ARM GAS  C:\Users\TERENC~1\AppData\Local\Temp\ccz498Tm.s 			page 75


 2751 052a 00000000 		.4byte	.LFB3
 2752 052e 98000000 		.4byte	.LFE3-.LFB3
 2753 0532 01       		.uleb128 0x1
 2754 0533 9C       		.byte	0x9c
 2755 0534 48050000 		.4byte	0x548
 2756 0538 15       		.uleb128 0x15
 2757 0539 657000   		.ascii	"ep\000"
 2758 053c 01       		.byte	0x1
 2759 053d B701     		.2byte	0x1b7
 2760 053f 83000000 		.4byte	0x83
 2761 0543 6A000000 		.4byte	.LLST3
 2762 0547 00       		.byte	0
 2763 0548 12       		.uleb128 0x12
 2764 0549 E3010000 		.4byte	.LASF72
 2765 054d 01       		.byte	0x1
 2766 054e 1402     		.2byte	0x214
 2767 0550 00000000 		.4byte	.LFB4
 2768 0554 44000000 		.4byte	.LFE4-.LFB4
 2769 0558 01       		.uleb128 0x1
 2770 0559 9C       		.byte	0x9c
 2771 055a 6D050000 		.4byte	0x56d
 2772 055e 15       		.uleb128 0x15
 2773 055f 6900     		.ascii	"i\000"
 2774 0561 01       		.byte	0x1
 2775 0562 1602     		.2byte	0x216
 2776 0564 6B000000 		.4byte	0x6b
 2777 0568 89000000 		.4byte	.LLST4
 2778 056c 00       		.byte	0
 2779 056d 1A       		.uleb128 0x1a
 2780 056e 06030000 		.4byte	.LASF80
 2781 0572 01       		.byte	0x1
 2782 0573 AE03     		.2byte	0x3ae
 2783 0575 A8050000 		.4byte	0x5a8
 2784 0579 00000000 		.4byte	.LFB7
 2785 057d 28000000 		.4byte	.LFE7-.LFB7
 2786 0581 01       		.uleb128 0x1
 2787 0582 9C       		.byte	0x9c
 2788 0583 A8050000 		.4byte	0x5a8
 2789 0587 13       		.uleb128 0x13
 2790 0588 C7000000 		.4byte	.LASF74
 2791 058c 01       		.byte	0x1
 2792 058d AE03     		.2byte	0x3ae
 2793 058f 6B000000 		.4byte	0x6b
 2794 0593 B3000000 		.4byte	.LLST5
 2795 0597 1B       		.uleb128 0x1b
 2796 0598 2D050000 		.4byte	.LASF75
 2797 059c 01       		.byte	0x1
 2798 059d B203     		.2byte	0x3b2
 2799 059f A8050000 		.4byte	0x5a8
 2800 05a3 ED000000 		.4byte	.LLST6
 2801 05a7 00       		.byte	0
 2802 05a8 09       		.uleb128 0x9
 2803 05a9 04       		.byte	0x4
 2804 05aa AE050000 		.4byte	0x5ae
 2805 05ae 19       		.uleb128 0x19
 2806 05af 46020000 		.4byte	0x246
 2807 05b3 12       		.uleb128 0x12
ARM GAS  C:\Users\TERENC~1\AppData\Local\Temp\ccz498Tm.s 			page 76


 2808 05b4 14050000 		.4byte	.LASF76
 2809 05b8 01       		.byte	0x1
 2810 05b9 2503     		.2byte	0x325
 2811 05bb 00000000 		.4byte	.LFB6
 2812 05bf 20010000 		.4byte	.LFE6-.LFB6
 2813 05c3 01       		.uleb128 0x1
 2814 05c4 9C       		.byte	0x9c
 2815 05c5 40060000 		.4byte	0x640
 2816 05c9 15       		.uleb128 0x15
 2817 05ca 657000   		.ascii	"ep\000"
 2818 05cd 01       		.byte	0x1
 2819 05ce 2703     		.2byte	0x327
 2820 05d0 83000000 		.4byte	0x83
 2821 05d4 25010000 		.4byte	.LLST7
 2822 05d8 1B       		.uleb128 0x1b
 2823 05d9 C2040000 		.4byte	.LASF77
 2824 05dd 01       		.byte	0x1
 2825 05de 2803     		.2byte	0x328
 2826 05e0 83000000 		.4byte	0x83
 2827 05e4 38010000 		.4byte	.LLST8
 2828 05e8 1B       		.uleb128 0x1b
 2829 05e9 33030000 		.4byte	.LASF78
 2830 05ed 01       		.byte	0x1
 2831 05ee 2903     		.2byte	0x329
 2832 05f0 83000000 		.4byte	0x83
 2833 05f4 4B010000 		.4byte	.LLST9
 2834 05f8 15       		.uleb128 0x15
 2835 05f9 6900     		.ascii	"i\000"
 2836 05fb 01       		.byte	0x1
 2837 05fc 2A03     		.2byte	0x32a
 2838 05fe 83000000 		.4byte	0x83
 2839 0602 7F010000 		.4byte	.LLST10
 2840 0606 1B       		.uleb128 0x1b
 2841 0607 C4050000 		.4byte	.LASF79
 2842 060b 01       		.byte	0x1
 2843 060c 2B03     		.2byte	0x32b
 2844 060e 6B000000 		.4byte	0x6b
 2845 0612 9E010000 		.4byte	.LLST11
 2846 0616 1B       		.uleb128 0x1b
 2847 0617 2D050000 		.4byte	.LASF75
 2848 061b 01       		.byte	0x1
 2849 061c 2D03     		.2byte	0x32d
 2850 061e A8050000 		.4byte	0x5a8
 2851 0622 B1010000 		.4byte	.LLST12
 2852 0626 15       		.uleb128 0x15
 2853 0627 70455000 		.ascii	"pEP\000"
 2854 062b 01       		.byte	0x1
 2855 062c 2E03     		.2byte	0x32e
 2856 062e 40060000 		.4byte	0x640
 2857 0632 C6010000 		.4byte	.LLST13
 2858 0636 1C       		.uleb128 0x1c
 2859 0637 1E000000 		.4byte	.LVL23
 2860 063b 6D050000 		.4byte	0x56d
 2861 063f 00       		.byte	0
 2862 0640 09       		.uleb128 0x9
 2863 0641 04       		.byte	0x4
 2864 0642 46060000 		.4byte	0x646
ARM GAS  C:\Users\TERENC~1\AppData\Local\Temp\ccz498Tm.s 			page 77


 2865 0646 19       		.uleb128 0x19
 2866 0647 A5010000 		.4byte	0x1a5
 2867 064b 1D       		.uleb128 0x1d
 2868 064c 1F040000 		.4byte	.LASF129
 2869 0650 01       		.byte	0x1
 2870 0651 F303     		.2byte	0x3f3
 2871 0653 A8050000 		.4byte	0x5a8
 2872 0657 00000000 		.4byte	.LFB8
 2873 065b 18000000 		.4byte	.LFE8-.LFB8
 2874 065f 01       		.uleb128 0x1
 2875 0660 9C       		.byte	0x9c
 2876 0661 1A       		.uleb128 0x1a
 2877 0662 A9030000 		.4byte	.LASF81
 2878 0666 01       		.byte	0x1
 2879 0667 0604     		.2byte	0x406
 2880 0669 B5060000 		.4byte	0x6b5
 2881 066d 00000000 		.4byte	.LFB9
 2882 0671 28000000 		.4byte	.LFE9-.LFB9
 2883 0675 01       		.uleb128 0x1
 2884 0676 9C       		.byte	0x9c
 2885 0677 B5060000 		.4byte	0x6b5
 2886 067b 1B       		.uleb128 0x1b
 2887 067c 2D050000 		.4byte	.LASF75
 2888 0680 01       		.byte	0x1
 2889 0681 0904     		.2byte	0x409
 2890 0683 A8050000 		.4byte	0x5a8
 2891 0687 D9010000 		.4byte	.LLST14
 2892 068b 1B       		.uleb128 0x1b
 2893 068c 66040000 		.4byte	.LASF82
 2894 0690 01       		.byte	0x1
 2895 0691 0A04     		.2byte	0x40a
 2896 0693 B5060000 		.4byte	0x6b5
 2897 0697 F7010000 		.4byte	.LLST15
 2898 069b 1B       		.uleb128 0x1b
 2899 069c FC060000 		.4byte	.LASF83
 2900 06a0 01       		.byte	0x1
 2901 06a1 0B04     		.2byte	0x40b
 2902 06a3 6B000000 		.4byte	0x6b
 2903 06a7 15020000 		.4byte	.LLST16
 2904 06ab 1C       		.uleb128 0x1c
 2905 06ac 0E000000 		.4byte	.LVL39
 2906 06b0 6D050000 		.4byte	0x56d
 2907 06b4 00       		.byte	0
 2908 06b5 09       		.uleb128 0x9
 2909 06b6 04       		.byte	0x4
 2910 06b7 BB060000 		.4byte	0x6bb
 2911 06bb 19       		.uleb128 0x19
 2912 06bc 6B000000 		.4byte	0x6b
 2913 06c0 12       		.uleb128 0x12
 2914 06c1 C9010000 		.4byte	.LASF84
 2915 06c5 01       		.byte	0x1
 2916 06c6 3A02     		.2byte	0x23a
 2917 06c8 00000000 		.4byte	.LFB5
 2918 06cc F4010000 		.4byte	.LFE5-.LFB5
 2919 06d0 01       		.uleb128 0x1
 2920 06d1 9C       		.byte	0x9c
 2921 06d2 BB070000 		.4byte	0x7bb
ARM GAS  C:\Users\TERENC~1\AppData\Local\Temp\ccz498Tm.s 			page 78


 2922 06d6 13       		.uleb128 0x13
 2923 06d7 A1010000 		.4byte	.LASF85
 2924 06db 01       		.byte	0x1
 2925 06dc 3A02     		.2byte	0x23a
 2926 06de 6B000000 		.4byte	0x6b
 2927 06e2 44020000 		.4byte	.LLST17
 2928 06e6 15       		.uleb128 0x15
 2929 06e7 657000   		.ascii	"ep\000"
 2930 06ea 01       		.byte	0x1
 2931 06eb 3C02     		.2byte	0x23c
 2932 06ed 6B000000 		.4byte	0x6b
 2933 06f1 65020000 		.4byte	.LLST18
 2934 06f5 1B       		.uleb128 0x1b
 2935 06f6 C2040000 		.4byte	.LASF77
 2936 06fa 01       		.byte	0x1
 2937 06fb 3D02     		.2byte	0x23d
 2938 06fd 6B000000 		.4byte	0x6b
 2939 0701 C7020000 		.4byte	.LLST19
 2940 0705 15       		.uleb128 0x15
 2941 0706 6900     		.ascii	"i\000"
 2942 0708 01       		.byte	0x1
 2943 0709 3E02     		.2byte	0x23e
 2944 070b 6B000000 		.4byte	0x6b
 2945 070f F1020000 		.4byte	.LLST20
 2946 0713 1B       		.uleb128 0x1b
 2947 0714 33030000 		.4byte	.LASF78
 2948 0718 01       		.byte	0x1
 2949 0719 3F02     		.2byte	0x23f
 2950 071b 6B000000 		.4byte	0x6b
 2951 071f 5E030000 		.4byte	.LLST21
 2952 0723 1B       		.uleb128 0x1b
 2953 0724 5F040000 		.4byte	.LASF86
 2954 0728 01       		.byte	0x1
 2955 0729 4002     		.2byte	0x240
 2956 072b B5060000 		.4byte	0x6b5
 2957 072f CE030000 		.4byte	.LLST22
 2958 0733 1B       		.uleb128 0x1b
 2959 0734 39050000 		.4byte	.LASF87
 2960 0738 01       		.byte	0x1
 2961 0739 4302     		.2byte	0x243
 2962 073b 77000000 		.4byte	0x77
 2963 073f E2030000 		.4byte	.LLST23
 2964 0743 1B       		.uleb128 0x1b
 2965 0744 2D050000 		.4byte	.LASF75
 2966 0748 01       		.byte	0x1
 2967 0749 4602     		.2byte	0x246
 2968 074b A8050000 		.4byte	0x5a8
 2969 074f 18040000 		.4byte	.LLST24
 2970 0753 15       		.uleb128 0x15
 2971 0754 70455000 		.ascii	"pEP\000"
 2972 0758 01       		.byte	0x1
 2973 0759 4702     		.2byte	0x247
 2974 075b 40060000 		.4byte	0x640
 2975 075f 45040000 		.4byte	.LLST25
 2976 0763 1E       		.uleb128 0x1e
 2977 0764 60000000 		.4byte	.LBB2
 2978 0768 6E010000 		.4byte	.LBE2-.LBB2
ARM GAS  C:\Users\TERENC~1\AppData\Local\Temp\ccz498Tm.s 			page 79


 2979 076c 1B       		.uleb128 0x1b
 2980 076d 64020000 		.4byte	.LASF88
 2981 0771 01       		.byte	0x1
 2982 0772 6302     		.2byte	0x263
 2983 0774 6B000000 		.4byte	0x6b
 2984 0778 63040000 		.4byte	.LLST26
 2985 077c 1C       		.uleb128 0x1c
 2986 077d 6C000000 		.4byte	.LVL60
 2987 0781 6D050000 		.4byte	0x56d
 2988 0785 1F       		.uleb128 0x1f
 2989 0786 68010000 		.4byte	.LVL77
 2990 078a C80B0000 		.4byte	0xbc8
 2991 078e A7070000 		.4byte	0x7a7
 2992 0792 18       		.uleb128 0x18
 2993 0793 01       		.uleb128 0x1
 2994 0794 50       		.byte	0x50
 2995 0795 02       		.uleb128 0x2
 2996 0796 75       		.byte	0x75
 2997 0797 00       		.sleb128 0
 2998 0798 18       		.uleb128 0x18
 2999 0799 01       		.uleb128 0x1
 3000 079a 51       		.byte	0x51
 3001 079b 02       		.uleb128 0x2
 3002 079c 76       		.byte	0x76
 3003 079d 00       		.sleb128 0
 3004 079e 18       		.uleb128 0x18
 3005 079f 01       		.uleb128 0x1
 3006 07a0 52       		.byte	0x52
 3007 07a1 04       		.uleb128 0x4
 3008 07a2 91       		.byte	0x91
 3009 07a3 5C       		.sleb128 -36
 3010 07a4 94       		.byte	0x94
 3011 07a5 01       		.byte	0x1
 3012 07a6 00       		.byte	0
 3013 07a7 1C       		.uleb128 0x1c
 3014 07a8 A6010000 		.4byte	.LVL89
 3015 07ac 61060000 		.4byte	0x661
 3016 07b0 1C       		.uleb128 0x1c
 3017 07b1 CE010000 		.4byte	.LVL96
 3018 07b5 22050000 		.4byte	0x522
 3019 07b9 00       		.byte	0
 3020 07ba 00       		.byte	0
 3021 07bb 12       		.uleb128 0x12
 3022 07bc E2050000 		.4byte	.LASF89
 3023 07c0 01       		.byte	0x1
 3024 07c1 3004     		.2byte	0x430
 3025 07c3 00000000 		.4byte	.LFB10
 3026 07c7 54000000 		.4byte	.LFE10-.LFB10
 3027 07cb 01       		.uleb128 0x1
 3028 07cc 9C       		.byte	0x9c
 3029 07cd E2070000 		.4byte	0x7e2
 3030 07d1 13       		.uleb128 0x13
 3031 07d2 D9020000 		.4byte	.LASF90
 3032 07d6 01       		.byte	0x1
 3033 07d7 3004     		.2byte	0x430
 3034 07d9 6B000000 		.4byte	0x6b
 3035 07dd 83040000 		.4byte	.LLST27
ARM GAS  C:\Users\TERENC~1\AppData\Local\Temp\ccz498Tm.s 			page 80


 3036 07e1 00       		.byte	0
 3037 07e2 1A       		.uleb128 0x1a
 3038 07e3 C6070000 		.4byte	.LASF91
 3039 07e7 01       		.byte	0x1
 3040 07e8 5904     		.2byte	0x459
 3041 07ea 6B000000 		.4byte	0x6b
 3042 07ee 00000000 		.4byte	.LFB11
 3043 07f2 6C000000 		.4byte	.LFE11-.LFB11
 3044 07f6 01       		.uleb128 0x1
 3045 07f7 9C       		.byte	0x9c
 3046 07f8 25080000 		.4byte	0x825
 3047 07fc 1B       		.uleb128 0x1b
 3048 07fd ED060000 		.4byte	.LASF92
 3049 0801 01       		.byte	0x1
 3050 0802 5B04     		.2byte	0x45b
 3051 0804 6B000000 		.4byte	0x6b
 3052 0808 AC040000 		.4byte	.LLST28
 3053 080c 15       		.uleb128 0x15
 3054 080d 657000   		.ascii	"ep\000"
 3055 0810 01       		.byte	0x1
 3056 0811 5C04     		.2byte	0x45c
 3057 0813 83000000 		.4byte	0x83
 3058 0817 E2040000 		.4byte	.LLST29
 3059 081b 1C       		.uleb128 0x1c
 3060 081c 58000000 		.4byte	.LVL107
 3061 0820 D40B0000 		.4byte	0xbd4
 3062 0824 00       		.byte	0
 3063 0825 1A       		.uleb128 0x1a
 3064 0826 9B060000 		.4byte	.LASF93
 3065 082a 01       		.byte	0x1
 3066 082b 8A04     		.2byte	0x48a
 3067 082d 6B000000 		.4byte	0x6b
 3068 0831 00000000 		.4byte	.LFB12
 3069 0835 AC000000 		.4byte	.LFE12-.LFB12
 3070 0839 01       		.uleb128 0x1
 3071 083a 9C       		.byte	0x9c
 3072 083b 68080000 		.4byte	0x868
 3073 083f 1B       		.uleb128 0x1b
 3074 0840 ED060000 		.4byte	.LASF92
 3075 0844 01       		.byte	0x1
 3076 0845 8C04     		.2byte	0x48c
 3077 0847 6B000000 		.4byte	0x6b
 3078 084b 0B050000 		.4byte	.LLST30
 3079 084f 15       		.uleb128 0x15
 3080 0850 657000   		.ascii	"ep\000"
 3081 0853 01       		.byte	0x1
 3082 0854 8D04     		.2byte	0x48d
 3083 0856 83000000 		.4byte	0x83
 3084 085a 41050000 		.4byte	.LLST31
 3085 085e 1C       		.uleb128 0x1c
 3086 085f 9A000000 		.4byte	.LVL119
 3087 0863 D40B0000 		.4byte	0xbd4
 3088 0867 00       		.byte	0
 3089 0868 1A       		.uleb128 0x1a
 3090 0869 51030000 		.4byte	.LASF94
 3091 086d 01       		.byte	0x1
 3092 086e CF04     		.2byte	0x4cf
ARM GAS  C:\Users\TERENC~1\AppData\Local\Temp\ccz498Tm.s 			page 81


 3093 0870 6B000000 		.4byte	0x6b
 3094 0874 00000000 		.4byte	.LFB13
 3095 0878 50000000 		.4byte	.LFE13-.LFB13
 3096 087c 01       		.uleb128 0x1
 3097 087d 9C       		.byte	0x9c
 3098 087e CC080000 		.4byte	0x8cc
 3099 0882 1B       		.uleb128 0x1b
 3100 0883 ED060000 		.4byte	.LASF92
 3101 0887 01       		.byte	0x1
 3102 0888 D104     		.2byte	0x4d1
 3103 088a 6B000000 		.4byte	0x6b
 3104 088e 80050000 		.4byte	.LLST32
 3105 0892 1B       		.uleb128 0x1b
 3106 0893 C4050000 		.4byte	.LASF79
 3107 0897 01       		.byte	0x1
 3108 0898 D304     		.2byte	0x4d3
 3109 089a 6B000000 		.4byte	0x6b
 3110 089e B7050000 		.4byte	.LLST33
 3111 08a2 1B       		.uleb128 0x1b
 3112 08a3 92070000 		.4byte	.LASF95
 3113 08a7 01       		.byte	0x1
 3114 08a8 D404     		.2byte	0x4d4
 3115 08aa 6B000000 		.4byte	0x6b
 3116 08ae CA050000 		.4byte	.LLST34
 3117 08b2 1B       		.uleb128 0x1b
 3118 08b3 2D050000 		.4byte	.LASF75
 3119 08b7 01       		.byte	0x1
 3120 08b8 D504     		.2byte	0x4d5
 3121 08ba A8050000 		.4byte	0x5a8
 3122 08be F7050000 		.4byte	.LLST35
 3123 08c2 1C       		.uleb128 0x1c
 3124 08c3 14000000 		.4byte	.LVL124
 3125 08c7 6D050000 		.4byte	0x56d
 3126 08cb 00       		.byte	0
 3127 08cc 20       		.uleb128 0x20
 3128 08cd 04040000 		.4byte	.LASF96
 3129 08d1 01       		.byte	0x1
 3130 08d2 54       		.byte	0x54
 3131 08d3 6B000000 		.4byte	0x6b
 3132 08d7 00000000 		.4byte	.LFB1
 3133 08db 1C030000 		.4byte	.LFE1-.LFB1
 3134 08df 01       		.uleb128 0x1
 3135 08e0 9C       		.byte	0x9c
 3136 08e1 670A0000 		.4byte	0xa67
 3137 08e5 21       		.uleb128 0x21
 3138 08e6 ED060000 		.4byte	.LASF92
 3139 08ea 01       		.byte	0x1
 3140 08eb 56       		.byte	0x56
 3141 08ec 6B000000 		.4byte	0x6b
 3142 08f0 15060000 		.4byte	.LLST36
 3143 08f4 21       		.uleb128 0x21
 3144 08f5 5E070000 		.4byte	.LASF97
 3145 08f9 01       		.byte	0x1
 3146 08fa 57       		.byte	0x57
 3147 08fb 83000000 		.4byte	0x83
 3148 08ff BB070000 		.4byte	.LLST37
 3149 0903 21       		.uleb128 0x21
ARM GAS  C:\Users\TERENC~1\AppData\Local\Temp\ccz498Tm.s 			page 82


 3150 0904 F6050000 		.4byte	.LASF98
 3151 0908 01       		.byte	0x1
 3152 0909 58       		.byte	0x58
 3153 090a 83000000 		.4byte	0x83
 3154 090e CE070000 		.4byte	.LLST38
 3155 0912 21       		.uleb128 0x21
 3156 0913 3A030000 		.4byte	.LASF99
 3157 0917 01       		.byte	0x1
 3158 0918 59       		.byte	0x59
 3159 0919 83000000 		.4byte	0x83
 3160 091d EC070000 		.4byte	.LLST39
 3161 0921 21       		.uleb128 0x21
 3162 0922 05060000 		.4byte	.LASF100
 3163 0926 01       		.byte	0x1
 3164 0927 5C       		.byte	0x5c
 3165 0928 09020000 		.4byte	0x209
 3166 092c 6D080000 		.4byte	.LLST40
 3167 0930 21       		.uleb128 0x21
 3168 0931 75070000 		.4byte	.LASF101
 3169 0935 01       		.byte	0x1
 3170 0936 5E       		.byte	0x5e
 3171 0937 6B000000 		.4byte	0x6b
 3172 093b D1080000 		.4byte	.LLST41
 3173 093f 21       		.uleb128 0x21
 3174 0940 7A070000 		.4byte	.LASF102
 3175 0944 01       		.byte	0x1
 3176 0945 5F       		.byte	0x5f
 3177 0946 6B000000 		.4byte	0x6b
 3178 094a FA080000 		.4byte	.LLST42
 3179 094e 22       		.uleb128 0x22
 3180 094f 29000000 		.4byte	.LASF103
 3181 0953 01       		.byte	0x1
 3182 0954 63       		.byte	0x63
 3183 0955 770A0000 		.4byte	0xa77
 3184 0959 05       		.uleb128 0x5
 3185 095a 03       		.byte	0x3
 3186 095b 00000000 		.4byte	USBUART_tBuffer.5262
 3187 095f 21       		.uleb128 0x21
 3188 0960 2D050000 		.4byte	.LASF75
 3189 0964 01       		.byte	0x1
 3190 0965 64       		.byte	0x64
 3191 0966 A8050000 		.4byte	0x5a8
 3192 096a 0D090000 		.4byte	.LLST43
 3193 096e 1C       		.uleb128 0x1c
 3194 096f 3C000000 		.4byte	.LVL135
 3195 0973 4B060000 		.4byte	0x64b
 3196 0977 1C       		.uleb128 0x1c
 3197 0978 4A000000 		.4byte	.LVL136
 3198 097c DF0B0000 		.4byte	0xbdf
 3199 0980 1C       		.uleb128 0x1c
 3200 0981 5E000000 		.4byte	.LVL138
 3201 0985 6D050000 		.4byte	0x56d
 3202 0989 1C       		.uleb128 0x1c
 3203 098a 7C000000 		.4byte	.LVL139
 3204 098e DF0B0000 		.4byte	0xbdf
 3205 0992 1F       		.uleb128 0x1f
 3206 0993 CA000000 		.4byte	.LVL150
ARM GAS  C:\Users\TERENC~1\AppData\Local\Temp\ccz498Tm.s 			page 83


 3207 0997 81040000 		.4byte	0x481
 3208 099b A6090000 		.4byte	0x9a6
 3209 099f 18       		.uleb128 0x18
 3210 09a0 01       		.uleb128 0x1
 3211 09a1 50       		.byte	0x50
 3212 09a2 02       		.uleb128 0x2
 3213 09a3 74       		.byte	0x74
 3214 09a4 00       		.sleb128 0
 3215 09a5 00       		.byte	0
 3216 09a6 1C       		.uleb128 0x1c
 3217 09a7 E0000000 		.4byte	.LVL152
 3218 09ab DF0B0000 		.4byte	0xbdf
 3219 09af 1C       		.uleb128 0x1c
 3220 09b0 E6000000 		.4byte	.LVL154
 3221 09b4 EA0B0000 		.4byte	0xbea
 3222 09b8 1C       		.uleb128 0x1c
 3223 09b9 1C010000 		.4byte	.LVL157
 3224 09bd DF0B0000 		.4byte	0xbdf
 3225 09c1 1C       		.uleb128 0x1c
 3226 09c2 38010000 		.4byte	.LVL159
 3227 09c6 DF0B0000 		.4byte	0xbdf
 3228 09ca 1C       		.uleb128 0x1c
 3229 09cb 48010000 		.4byte	.LVL162
 3230 09cf DF0B0000 		.4byte	0xbdf
 3231 09d3 1C       		.uleb128 0x1c
 3232 09d4 5E010000 		.4byte	.LVL165
 3233 09d8 DF0B0000 		.4byte	0xbdf
 3234 09dc 1C       		.uleb128 0x1c
 3235 09dd 80010000 		.4byte	.LVL168
 3236 09e1 D40B0000 		.4byte	0xbd4
 3237 09e5 1F       		.uleb128 0x1f
 3238 09e6 92010000 		.4byte	.LVL172
 3239 09ea 6D050000 		.4byte	0x56d
 3240 09ee F9090000 		.4byte	0x9f9
 3241 09f2 18       		.uleb128 0x18
 3242 09f3 01       		.uleb128 0x1
 3243 09f4 50       		.byte	0x50
 3244 09f5 02       		.uleb128 0x2
 3245 09f6 74       		.byte	0x74
 3246 09f7 7F       		.sleb128 -1
 3247 09f8 00       		.byte	0
 3248 09f9 1F       		.uleb128 0x1f
 3249 09fa BC010000 		.4byte	.LVL175
 3250 09fe C0060000 		.4byte	0x6c0
 3251 0a02 0C0A0000 		.4byte	0xa0c
 3252 0a06 18       		.uleb128 0x18
 3253 0a07 01       		.uleb128 0x1
 3254 0a08 50       		.byte	0x50
 3255 0a09 01       		.uleb128 0x1
 3256 0a0a 31       		.byte	0x31
 3257 0a0b 00       		.byte	0
 3258 0a0c 1C       		.uleb128 0x1c
 3259 0a0d C0010000 		.4byte	.LVL176
 3260 0a11 D40B0000 		.4byte	0xbd4
 3261 0a15 1C       		.uleb128 0x1c
 3262 0a16 C6010000 		.4byte	.LVL178
 3263 0a1a 68080000 		.4byte	0x868
ARM GAS  C:\Users\TERENC~1\AppData\Local\Temp\ccz498Tm.s 			page 84


 3264 0a1e 1C       		.uleb128 0x1c
 3265 0a1f F0010000 		.4byte	.LVL180
 3266 0a23 B3050000 		.4byte	0x5b3
 3267 0a27 1C       		.uleb128 0x1c
 3268 0a28 F4010000 		.4byte	.LVL181
 3269 0a2c D40B0000 		.4byte	0xbd4
 3270 0a30 1C       		.uleb128 0x1c
 3271 0a31 12020000 		.4byte	.LVL184
 3272 0a35 25080000 		.4byte	0x825
 3273 0a39 1C       		.uleb128 0x1c
 3274 0a3a 2A020000 		.4byte	.LVL186
 3275 0a3e D40B0000 		.4byte	0xbd4
 3276 0a42 1C       		.uleb128 0x1c
 3277 0a43 46020000 		.4byte	.LVL188
 3278 0a47 D40B0000 		.4byte	0xbd4
 3279 0a4b 1C       		.uleb128 0x1c
 3280 0a4c 64020000 		.4byte	.LVL191
 3281 0a50 E2070000 		.4byte	0x7e2
 3282 0a54 1C       		.uleb128 0x1c
 3283 0a55 7E020000 		.4byte	.LVL193
 3284 0a59 D40B0000 		.4byte	0xbd4
 3285 0a5d 1C       		.uleb128 0x1c
 3286 0a5e 9A020000 		.4byte	.LVL195
 3287 0a62 D40B0000 		.4byte	0xbd4
 3288 0a66 00       		.byte	0
 3289 0a67 0C       		.uleb128 0xc
 3290 0a68 B0000000 		.4byte	0xb0
 3291 0a6c 770A0000 		.4byte	0xa77
 3292 0a70 0D       		.uleb128 0xd
 3293 0a71 CD000000 		.4byte	0xcd
 3294 0a75 01       		.byte	0x1
 3295 0a76 00       		.byte	0
 3296 0a77 05       		.uleb128 0x5
 3297 0a78 670A0000 		.4byte	0xa67
 3298 0a7c 23       		.uleb128 0x23
 3299 0a7d 1A000000 		.4byte	.LASF104
 3300 0a81 03       		.byte	0x3
 3301 0a82 D702     		.2byte	0x2d7
 3302 0a84 B0000000 		.4byte	0xb0
 3303 0a88 23       		.uleb128 0x23
 3304 0a89 A3070000 		.4byte	.LASF105
 3305 0a8d 03       		.byte	0x3
 3306 0a8e D902     		.2byte	0x2d9
 3307 0a90 B0000000 		.4byte	0xb0
 3308 0a94 23       		.uleb128 0x23
 3309 0a95 FA070000 		.4byte	.LASF106
 3310 0a99 03       		.byte	0x3
 3311 0a9a DA02     		.2byte	0x2da
 3312 0a9c B0000000 		.4byte	0xb0
 3313 0aa0 23       		.uleb128 0x23
 3314 0aa1 64010000 		.4byte	.LASF107
 3315 0aa5 03       		.byte	0x3
 3316 0aa6 DB02     		.2byte	0x2db
 3317 0aa8 B0000000 		.4byte	0xb0
 3318 0aac 0C       		.uleb128 0xc
 3319 0aad BB060000 		.4byte	0x6bb
 3320 0ab1 BC0A0000 		.4byte	0xabc
ARM GAS  C:\Users\TERENC~1\AppData\Local\Temp\ccz498Tm.s 			page 85


 3321 0ab5 0D       		.uleb128 0xd
 3322 0ab6 CD000000 		.4byte	0xcd
 3323 0aba 11       		.byte	0x11
 3324 0abb 00       		.byte	0
 3325 0abc 24       		.uleb128 0x24
 3326 0abd 6F020000 		.4byte	.LASF108
 3327 0ac1 04       		.byte	0x4
 3328 0ac2 61       		.byte	0x61
 3329 0ac3 C70A0000 		.4byte	0xac7
 3330 0ac7 19       		.uleb128 0x19
 3331 0ac8 AC0A0000 		.4byte	0xaac
 3332 0acc 0C       		.uleb128 0xc
 3333 0acd AE050000 		.4byte	0x5ae
 3334 0ad1 DC0A0000 		.4byte	0xadc
 3335 0ad5 0D       		.uleb128 0xd
 3336 0ad6 CD000000 		.4byte	0xcd
 3337 0ada 00       		.byte	0
 3338 0adb 00       		.byte	0
 3339 0adc 24       		.uleb128 0x24
 3340 0add 93010000 		.4byte	.LASF109
 3341 0ae1 04       		.byte	0x4
 3342 0ae2 67       		.byte	0x67
 3343 0ae3 E70A0000 		.4byte	0xae7
 3344 0ae7 19       		.uleb128 0x19
 3345 0ae8 CC0A0000 		.4byte	0xacc
 3346 0aec 0C       		.uleb128 0xc
 3347 0aed BB060000 		.4byte	0x6bb
 3348 0af1 FC0A0000 		.4byte	0xafc
 3349 0af5 0D       		.uleb128 0xd
 3350 0af6 CD000000 		.4byte	0xcd
 3351 0afa 9E       		.byte	0x9e
 3352 0afb 00       		.byte	0
 3353 0afc 24       		.uleb128 0x24
 3354 0afd A3050000 		.4byte	.LASF110
 3355 0b01 04       		.byte	0x4
 3356 0b02 69       		.byte	0x69
 3357 0b03 070B0000 		.4byte	0xb07
 3358 0b07 19       		.uleb128 0x19
 3359 0b08 EC0A0000 		.4byte	0xaec
 3360 0b0c 24       		.uleb128 0x24
 3361 0b0d 2B020000 		.4byte	.LASF111
 3362 0b11 04       		.byte	0x4
 3363 0b12 6D       		.byte	0x6d
 3364 0b13 170B0000 		.4byte	0xb17
 3365 0b17 19       		.uleb128 0x19
 3366 0b18 AC0A0000 		.4byte	0xaac
 3367 0b1c 0C       		.uleb128 0xc
 3368 0b1d 6B000000 		.4byte	0x6b
 3369 0b21 2C0B0000 		.4byte	0xb2c
 3370 0b25 0D       		.uleb128 0xd
 3371 0b26 CD000000 		.4byte	0xcd
 3372 0b2a 21       		.byte	0x21
 3373 0b2b 00       		.byte	0
 3374 0b2c 24       		.uleb128 0x24
 3375 0b2d AB020000 		.4byte	.LASF112
 3376 0b31 04       		.byte	0x4
 3377 0b32 70       		.byte	0x70
ARM GAS  C:\Users\TERENC~1\AppData\Local\Temp\ccz498Tm.s 			page 86


 3378 0b33 1C0B0000 		.4byte	0xb1c
 3379 0b37 24       		.uleb128 0x24
 3380 0b38 E7020000 		.4byte	.LASF113
 3381 0b3c 04       		.byte	0x4
 3382 0b3d 73       		.byte	0x73
 3383 0b3e B0000000 		.4byte	0xb0
 3384 0b42 24       		.uleb128 0x24
 3385 0b43 0A060000 		.4byte	.LASF114
 3386 0b47 04       		.byte	0x4
 3387 0b48 74       		.byte	0x74
 3388 0b49 4D0B0000 		.4byte	0xb4d
 3389 0b4d 05       		.uleb128 0x5
 3390 0b4e 670A0000 		.4byte	0xa67
 3391 0b52 24       		.uleb128 0x24
 3392 0b53 F7010000 		.4byte	.LASF115
 3393 0b57 04       		.byte	0x4
 3394 0b58 75       		.byte	0x75
 3395 0b59 5D0B0000 		.4byte	0xb5d
 3396 0b5d 05       		.uleb128 0x5
 3397 0b5e 670A0000 		.4byte	0xa67
 3398 0b62 24       		.uleb128 0x24
 3399 0b63 AC040000 		.4byte	.LASF116
 3400 0b67 04       		.byte	0x4
 3401 0b68 76       		.byte	0x76
 3402 0b69 B0000000 		.4byte	0xb0
 3403 0b6d 24       		.uleb128 0x24
 3404 0b6e 62060000 		.4byte	.LASF117
 3405 0b72 04       		.byte	0x4
 3406 0b73 77       		.byte	0x77
 3407 0b74 780B0000 		.4byte	0xb78
 3408 0b78 05       		.uleb128 0x5
 3409 0b79 670A0000 		.4byte	0xa67
 3410 0b7d 24       		.uleb128 0x24
 3411 0b7e 4A050000 		.4byte	.LASF118
 3412 0b82 04       		.byte	0x4
 3413 0b83 78       		.byte	0x78
 3414 0b84 B5060000 		.4byte	0x6b5
 3415 0b88 0C       		.uleb128 0xc
 3416 0b89 980B0000 		.4byte	0xb98
 3417 0b8d 980B0000 		.4byte	0xb98
 3418 0b91 0D       		.uleb128 0xd
 3419 0b92 CD000000 		.4byte	0xcd
 3420 0b96 08       		.byte	0x8
 3421 0b97 00       		.byte	0
 3422 0b98 05       		.uleb128 0x5
 3423 0b99 49010000 		.4byte	0x149
 3424 0b9d 24       		.uleb128 0x24
 3425 0b9e D8010000 		.4byte	.LASF119
 3426 0ba2 04       		.byte	0x4
 3427 0ba3 7A       		.byte	0x7a
 3428 0ba4 A80B0000 		.4byte	0xba8
 3429 0ba8 05       		.uleb128 0x5
 3430 0ba9 880B0000 		.4byte	0xb88
 3431 0bad 24       		.uleb128 0x24
 3432 0bae 61050000 		.4byte	.LASF120
 3433 0bb2 04       		.byte	0x4
 3434 0bb3 7B       		.byte	0x7b
ARM GAS  C:\Users\TERENC~1\AppData\Local\Temp\ccz498Tm.s 			page 87


 3435 0bb4 B80B0000 		.4byte	0xbb8
 3436 0bb8 05       		.uleb128 0x5
 3437 0bb9 15020000 		.4byte	0x215
 3438 0bbd 25       		.uleb128 0x25
 3439 0bbe 72030000 		.4byte	.LASF121
 3440 0bc2 72030000 		.4byte	.LASF121
 3441 0bc6 05       		.byte	0x5
 3442 0bc7 E9       		.byte	0xe9
 3443 0bc8 26       		.uleb128 0x26
 3444 0bc9 4C040000 		.4byte	.LASF122
 3445 0bcd 4C040000 		.4byte	.LASF122
 3446 0bd1 04       		.byte	0x4
 3447 0bd2 7C01     		.2byte	0x17c
 3448 0bd4 25       		.uleb128 0x25
 3449 0bd5 42010000 		.4byte	.LASF123
 3450 0bd9 42010000 		.4byte	.LASF123
 3451 0bdd 04       		.byte	0x4
 3452 0bde B4       		.byte	0xb4
 3453 0bdf 25       		.uleb128 0x25
 3454 0be0 B1010000 		.4byte	.LASF124
 3455 0be4 B1010000 		.4byte	.LASF124
 3456 0be8 04       		.byte	0x4
 3457 0be9 AA       		.byte	0xaa
 3458 0bea 26       		.uleb128 0x26
 3459 0beb 73050000 		.4byte	.LASF125
 3460 0bef 73050000 		.4byte	.LASF125
 3461 0bf3 04       		.byte	0x4
 3462 0bf4 4F01     		.2byte	0x14f
 3463 0bf6 00       		.byte	0
 3464              		.section	.debug_abbrev,"",%progbits
 3465              	.Ldebug_abbrev0:
 3466 0000 01       		.uleb128 0x1
 3467 0001 11       		.uleb128 0x11
 3468 0002 01       		.byte	0x1
 3469 0003 25       		.uleb128 0x25
 3470 0004 0E       		.uleb128 0xe
 3471 0005 13       		.uleb128 0x13
 3472 0006 0B       		.uleb128 0xb
 3473 0007 03       		.uleb128 0x3
 3474 0008 0E       		.uleb128 0xe
 3475 0009 1B       		.uleb128 0x1b
 3476 000a 0E       		.uleb128 0xe
 3477 000b 55       		.uleb128 0x55
 3478 000c 17       		.uleb128 0x17
 3479 000d 11       		.uleb128 0x11
 3480 000e 01       		.uleb128 0x1
 3481 000f 10       		.uleb128 0x10
 3482 0010 17       		.uleb128 0x17
 3483 0011 00       		.byte	0
 3484 0012 00       		.byte	0
 3485 0013 02       		.uleb128 0x2
 3486 0014 24       		.uleb128 0x24
 3487 0015 00       		.byte	0
 3488 0016 0B       		.uleb128 0xb
 3489 0017 0B       		.uleb128 0xb
 3490 0018 3E       		.uleb128 0x3e
 3491 0019 0B       		.uleb128 0xb
ARM GAS  C:\Users\TERENC~1\AppData\Local\Temp\ccz498Tm.s 			page 88


 3492 001a 03       		.uleb128 0x3
 3493 001b 0E       		.uleb128 0xe
 3494 001c 00       		.byte	0
 3495 001d 00       		.byte	0
 3496 001e 03       		.uleb128 0x3
 3497 001f 24       		.uleb128 0x24
 3498 0020 00       		.byte	0
 3499 0021 0B       		.uleb128 0xb
 3500 0022 0B       		.uleb128 0xb
 3501 0023 3E       		.uleb128 0x3e
 3502 0024 0B       		.uleb128 0xb
 3503 0025 03       		.uleb128 0x3
 3504 0026 08       		.uleb128 0x8
 3505 0027 00       		.byte	0
 3506 0028 00       		.byte	0
 3507 0029 04       		.uleb128 0x4
 3508 002a 16       		.uleb128 0x16
 3509 002b 00       		.byte	0
 3510 002c 03       		.uleb128 0x3
 3511 002d 0E       		.uleb128 0xe
 3512 002e 3A       		.uleb128 0x3a
 3513 002f 0B       		.uleb128 0xb
 3514 0030 3B       		.uleb128 0x3b
 3515 0031 05       		.uleb128 0x5
 3516 0032 49       		.uleb128 0x49
 3517 0033 13       		.uleb128 0x13
 3518 0034 00       		.byte	0
 3519 0035 00       		.byte	0
 3520 0036 05       		.uleb128 0x5
 3521 0037 35       		.uleb128 0x35
 3522 0038 00       		.byte	0
 3523 0039 49       		.uleb128 0x49
 3524 003a 13       		.uleb128 0x13
 3525 003b 00       		.byte	0
 3526 003c 00       		.byte	0
 3527 003d 06       		.uleb128 0x6
 3528 003e 13       		.uleb128 0x13
 3529 003f 01       		.byte	0x1
 3530 0040 0B       		.uleb128 0xb
 3531 0041 0B       		.uleb128 0xb
 3532 0042 3A       		.uleb128 0x3a
 3533 0043 0B       		.uleb128 0xb
 3534 0044 3B       		.uleb128 0x3b
 3535 0045 0B       		.uleb128 0xb
 3536 0046 01       		.uleb128 0x1
 3537 0047 13       		.uleb128 0x13
 3538 0048 00       		.byte	0
 3539 0049 00       		.byte	0
 3540 004a 07       		.uleb128 0x7
 3541 004b 0D       		.uleb128 0xd
 3542 004c 00       		.byte	0
 3543 004d 03       		.uleb128 0x3
 3544 004e 0E       		.uleb128 0xe
 3545 004f 3A       		.uleb128 0x3a
 3546 0050 0B       		.uleb128 0xb
 3547 0051 3B       		.uleb128 0x3b
 3548 0052 0B       		.uleb128 0xb
ARM GAS  C:\Users\TERENC~1\AppData\Local\Temp\ccz498Tm.s 			page 89


 3549 0053 49       		.uleb128 0x49
 3550 0054 13       		.uleb128 0x13
 3551 0055 38       		.uleb128 0x38
 3552 0056 0B       		.uleb128 0xb
 3553 0057 00       		.byte	0
 3554 0058 00       		.byte	0
 3555 0059 08       		.uleb128 0x8
 3556 005a 16       		.uleb128 0x16
 3557 005b 00       		.byte	0
 3558 005c 03       		.uleb128 0x3
 3559 005d 0E       		.uleb128 0xe
 3560 005e 3A       		.uleb128 0x3a
 3561 005f 0B       		.uleb128 0xb
 3562 0060 3B       		.uleb128 0x3b
 3563 0061 0B       		.uleb128 0xb
 3564 0062 49       		.uleb128 0x49
 3565 0063 13       		.uleb128 0x13
 3566 0064 00       		.byte	0
 3567 0065 00       		.byte	0
 3568 0066 09       		.uleb128 0x9
 3569 0067 0F       		.uleb128 0xf
 3570 0068 00       		.byte	0
 3571 0069 0B       		.uleb128 0xb
 3572 006a 0B       		.uleb128 0xb
 3573 006b 49       		.uleb128 0x49
 3574 006c 13       		.uleb128 0x13
 3575 006d 00       		.byte	0
 3576 006e 00       		.byte	0
 3577 006f 0A       		.uleb128 0xa
 3578 0070 0D       		.uleb128 0xd
 3579 0071 00       		.byte	0
 3580 0072 03       		.uleb128 0x3
 3581 0073 08       		.uleb128 0x8
 3582 0074 3A       		.uleb128 0x3a
 3583 0075 0B       		.uleb128 0xb
 3584 0076 3B       		.uleb128 0x3b
 3585 0077 0B       		.uleb128 0xb
 3586 0078 49       		.uleb128 0x49
 3587 0079 13       		.uleb128 0x13
 3588 007a 38       		.uleb128 0x38
 3589 007b 0B       		.uleb128 0xb
 3590 007c 00       		.byte	0
 3591 007d 00       		.byte	0
 3592 007e 0B       		.uleb128 0xb
 3593 007f 26       		.uleb128 0x26
 3594 0080 00       		.byte	0
 3595 0081 00       		.byte	0
 3596 0082 00       		.byte	0
 3597 0083 0C       		.uleb128 0xc
 3598 0084 01       		.uleb128 0x1
 3599 0085 01       		.byte	0x1
 3600 0086 49       		.uleb128 0x49
 3601 0087 13       		.uleb128 0x13
 3602 0088 01       		.uleb128 0x1
 3603 0089 13       		.uleb128 0x13
 3604 008a 00       		.byte	0
 3605 008b 00       		.byte	0
ARM GAS  C:\Users\TERENC~1\AppData\Local\Temp\ccz498Tm.s 			page 90


 3606 008c 0D       		.uleb128 0xd
 3607 008d 21       		.uleb128 0x21
 3608 008e 00       		.byte	0
 3609 008f 49       		.uleb128 0x49
 3610 0090 13       		.uleb128 0x13
 3611 0091 2F       		.uleb128 0x2f
 3612 0092 0B       		.uleb128 0xb
 3613 0093 00       		.byte	0
 3614 0094 00       		.byte	0
 3615 0095 0E       		.uleb128 0xe
 3616 0096 13       		.uleb128 0x13
 3617 0097 01       		.byte	0x1
 3618 0098 0B       		.uleb128 0xb
 3619 0099 0B       		.uleb128 0xb
 3620 009a 3A       		.uleb128 0x3a
 3621 009b 0B       		.uleb128 0xb
 3622 009c 3B       		.uleb128 0x3b
 3623 009d 05       		.uleb128 0x5
 3624 009e 01       		.uleb128 0x1
 3625 009f 13       		.uleb128 0x13
 3626 00a0 00       		.byte	0
 3627 00a1 00       		.byte	0
 3628 00a2 0F       		.uleb128 0xf
 3629 00a3 0D       		.uleb128 0xd
 3630 00a4 00       		.byte	0
 3631 00a5 03       		.uleb128 0x3
 3632 00a6 0E       		.uleb128 0xe
 3633 00a7 3A       		.uleb128 0x3a
 3634 00a8 0B       		.uleb128 0xb
 3635 00a9 3B       		.uleb128 0x3b
 3636 00aa 05       		.uleb128 0x5
 3637 00ab 49       		.uleb128 0x49
 3638 00ac 13       		.uleb128 0x13
 3639 00ad 38       		.uleb128 0x38
 3640 00ae 0B       		.uleb128 0xb
 3641 00af 00       		.byte	0
 3642 00b0 00       		.byte	0
 3643 00b1 10       		.uleb128 0x10
 3644 00b2 0D       		.uleb128 0xd
 3645 00b3 00       		.byte	0
 3646 00b4 03       		.uleb128 0x3
 3647 00b5 08       		.uleb128 0x8
 3648 00b6 3A       		.uleb128 0x3a
 3649 00b7 0B       		.uleb128 0xb
 3650 00b8 3B       		.uleb128 0x3b
 3651 00b9 05       		.uleb128 0x5
 3652 00ba 49       		.uleb128 0x49
 3653 00bb 13       		.uleb128 0x13
 3654 00bc 38       		.uleb128 0x38
 3655 00bd 0B       		.uleb128 0xb
 3656 00be 00       		.byte	0
 3657 00bf 00       		.byte	0
 3658 00c0 11       		.uleb128 0x11
 3659 00c1 13       		.uleb128 0x13
 3660 00c2 01       		.byte	0x1
 3661 00c3 0B       		.uleb128 0xb
 3662 00c4 05       		.uleb128 0x5
ARM GAS  C:\Users\TERENC~1\AppData\Local\Temp\ccz498Tm.s 			page 91


 3663 00c5 3A       		.uleb128 0x3a
 3664 00c6 0B       		.uleb128 0xb
 3665 00c7 3B       		.uleb128 0x3b
 3666 00c8 05       		.uleb128 0x5
 3667 00c9 01       		.uleb128 0x1
 3668 00ca 13       		.uleb128 0x13
 3669 00cb 00       		.byte	0
 3670 00cc 00       		.byte	0
 3671 00cd 12       		.uleb128 0x12
 3672 00ce 2E       		.uleb128 0x2e
 3673 00cf 01       		.byte	0x1
 3674 00d0 3F       		.uleb128 0x3f
 3675 00d1 19       		.uleb128 0x19
 3676 00d2 03       		.uleb128 0x3
 3677 00d3 0E       		.uleb128 0xe
 3678 00d4 3A       		.uleb128 0x3a
 3679 00d5 0B       		.uleb128 0xb
 3680 00d6 3B       		.uleb128 0x3b
 3681 00d7 05       		.uleb128 0x5
 3682 00d8 27       		.uleb128 0x27
 3683 00d9 19       		.uleb128 0x19
 3684 00da 11       		.uleb128 0x11
 3685 00db 01       		.uleb128 0x1
 3686 00dc 12       		.uleb128 0x12
 3687 00dd 06       		.uleb128 0x6
 3688 00de 40       		.uleb128 0x40
 3689 00df 18       		.uleb128 0x18
 3690 00e0 9742     		.uleb128 0x2117
 3691 00e2 19       		.uleb128 0x19
 3692 00e3 01       		.uleb128 0x1
 3693 00e4 13       		.uleb128 0x13
 3694 00e5 00       		.byte	0
 3695 00e6 00       		.byte	0
 3696 00e7 13       		.uleb128 0x13
 3697 00e8 05       		.uleb128 0x5
 3698 00e9 00       		.byte	0
 3699 00ea 03       		.uleb128 0x3
 3700 00eb 0E       		.uleb128 0xe
 3701 00ec 3A       		.uleb128 0x3a
 3702 00ed 0B       		.uleb128 0xb
 3703 00ee 3B       		.uleb128 0x3b
 3704 00ef 05       		.uleb128 0x5
 3705 00f0 49       		.uleb128 0x49
 3706 00f1 13       		.uleb128 0x13
 3707 00f2 02       		.uleb128 0x2
 3708 00f3 17       		.uleb128 0x17
 3709 00f4 00       		.byte	0
 3710 00f5 00       		.byte	0
 3711 00f6 14       		.uleb128 0x14
 3712 00f7 34       		.uleb128 0x34
 3713 00f8 00       		.byte	0
 3714 00f9 03       		.uleb128 0x3
 3715 00fa 08       		.uleb128 0x8
 3716 00fb 3A       		.uleb128 0x3a
 3717 00fc 0B       		.uleb128 0xb
 3718 00fd 3B       		.uleb128 0x3b
 3719 00fe 05       		.uleb128 0x5
ARM GAS  C:\Users\TERENC~1\AppData\Local\Temp\ccz498Tm.s 			page 92


 3720 00ff 49       		.uleb128 0x49
 3721 0100 13       		.uleb128 0x13
 3722 0101 02       		.uleb128 0x2
 3723 0102 18       		.uleb128 0x18
 3724 0103 00       		.byte	0
 3725 0104 00       		.byte	0
 3726 0105 15       		.uleb128 0x15
 3727 0106 34       		.uleb128 0x34
 3728 0107 00       		.byte	0
 3729 0108 03       		.uleb128 0x3
 3730 0109 08       		.uleb128 0x8
 3731 010a 3A       		.uleb128 0x3a
 3732 010b 0B       		.uleb128 0xb
 3733 010c 3B       		.uleb128 0x3b
 3734 010d 05       		.uleb128 0x5
 3735 010e 49       		.uleb128 0x49
 3736 010f 13       		.uleb128 0x13
 3737 0110 02       		.uleb128 0x2
 3738 0111 17       		.uleb128 0x17
 3739 0112 00       		.byte	0
 3740 0113 00       		.byte	0
 3741 0114 16       		.uleb128 0x16
 3742 0115 34       		.uleb128 0x34
 3743 0116 00       		.byte	0
 3744 0117 03       		.uleb128 0x3
 3745 0118 0E       		.uleb128 0xe
 3746 0119 3A       		.uleb128 0x3a
 3747 011a 0B       		.uleb128 0xb
 3748 011b 3B       		.uleb128 0x3b
 3749 011c 05       		.uleb128 0x5
 3750 011d 49       		.uleb128 0x49
 3751 011e 13       		.uleb128 0x13
 3752 011f 02       		.uleb128 0x2
 3753 0120 18       		.uleb128 0x18
 3754 0121 00       		.byte	0
 3755 0122 00       		.byte	0
 3756 0123 17       		.uleb128 0x17
 3757 0124 898201   		.uleb128 0x4109
 3758 0127 01       		.byte	0x1
 3759 0128 11       		.uleb128 0x11
 3760 0129 01       		.uleb128 0x1
 3761 012a 31       		.uleb128 0x31
 3762 012b 13       		.uleb128 0x13
 3763 012c 00       		.byte	0
 3764 012d 00       		.byte	0
 3765 012e 18       		.uleb128 0x18
 3766 012f 8A8201   		.uleb128 0x410a
 3767 0132 00       		.byte	0
 3768 0133 02       		.uleb128 0x2
 3769 0134 18       		.uleb128 0x18
 3770 0135 9142     		.uleb128 0x2111
 3771 0137 18       		.uleb128 0x18
 3772 0138 00       		.byte	0
 3773 0139 00       		.byte	0
 3774 013a 19       		.uleb128 0x19
 3775 013b 26       		.uleb128 0x26
 3776 013c 00       		.byte	0
ARM GAS  C:\Users\TERENC~1\AppData\Local\Temp\ccz498Tm.s 			page 93


 3777 013d 49       		.uleb128 0x49
 3778 013e 13       		.uleb128 0x13
 3779 013f 00       		.byte	0
 3780 0140 00       		.byte	0
 3781 0141 1A       		.uleb128 0x1a
 3782 0142 2E       		.uleb128 0x2e
 3783 0143 01       		.byte	0x1
 3784 0144 3F       		.uleb128 0x3f
 3785 0145 19       		.uleb128 0x19
 3786 0146 03       		.uleb128 0x3
 3787 0147 0E       		.uleb128 0xe
 3788 0148 3A       		.uleb128 0x3a
 3789 0149 0B       		.uleb128 0xb
 3790 014a 3B       		.uleb128 0x3b
 3791 014b 05       		.uleb128 0x5
 3792 014c 27       		.uleb128 0x27
 3793 014d 19       		.uleb128 0x19
 3794 014e 49       		.uleb128 0x49
 3795 014f 13       		.uleb128 0x13
 3796 0150 11       		.uleb128 0x11
 3797 0151 01       		.uleb128 0x1
 3798 0152 12       		.uleb128 0x12
 3799 0153 06       		.uleb128 0x6
 3800 0154 40       		.uleb128 0x40
 3801 0155 18       		.uleb128 0x18
 3802 0156 9742     		.uleb128 0x2117
 3803 0158 19       		.uleb128 0x19
 3804 0159 01       		.uleb128 0x1
 3805 015a 13       		.uleb128 0x13
 3806 015b 00       		.byte	0
 3807 015c 00       		.byte	0
 3808 015d 1B       		.uleb128 0x1b
 3809 015e 34       		.uleb128 0x34
 3810 015f 00       		.byte	0
 3811 0160 03       		.uleb128 0x3
 3812 0161 0E       		.uleb128 0xe
 3813 0162 3A       		.uleb128 0x3a
 3814 0163 0B       		.uleb128 0xb
 3815 0164 3B       		.uleb128 0x3b
 3816 0165 05       		.uleb128 0x5
 3817 0166 49       		.uleb128 0x49
 3818 0167 13       		.uleb128 0x13
 3819 0168 02       		.uleb128 0x2
 3820 0169 17       		.uleb128 0x17
 3821 016a 00       		.byte	0
 3822 016b 00       		.byte	0
 3823 016c 1C       		.uleb128 0x1c
 3824 016d 898201   		.uleb128 0x4109
 3825 0170 00       		.byte	0
 3826 0171 11       		.uleb128 0x11
 3827 0172 01       		.uleb128 0x1
 3828 0173 31       		.uleb128 0x31
 3829 0174 13       		.uleb128 0x13
 3830 0175 00       		.byte	0
 3831 0176 00       		.byte	0
 3832 0177 1D       		.uleb128 0x1d
 3833 0178 2E       		.uleb128 0x2e
ARM GAS  C:\Users\TERENC~1\AppData\Local\Temp\ccz498Tm.s 			page 94


 3834 0179 00       		.byte	0
 3835 017a 3F       		.uleb128 0x3f
 3836 017b 19       		.uleb128 0x19
 3837 017c 03       		.uleb128 0x3
 3838 017d 0E       		.uleb128 0xe
 3839 017e 3A       		.uleb128 0x3a
 3840 017f 0B       		.uleb128 0xb
 3841 0180 3B       		.uleb128 0x3b
 3842 0181 05       		.uleb128 0x5
 3843 0182 27       		.uleb128 0x27
 3844 0183 19       		.uleb128 0x19
 3845 0184 49       		.uleb128 0x49
 3846 0185 13       		.uleb128 0x13
 3847 0186 11       		.uleb128 0x11
 3848 0187 01       		.uleb128 0x1
 3849 0188 12       		.uleb128 0x12
 3850 0189 06       		.uleb128 0x6
 3851 018a 40       		.uleb128 0x40
 3852 018b 18       		.uleb128 0x18
 3853 018c 9742     		.uleb128 0x2117
 3854 018e 19       		.uleb128 0x19
 3855 018f 00       		.byte	0
 3856 0190 00       		.byte	0
 3857 0191 1E       		.uleb128 0x1e
 3858 0192 0B       		.uleb128 0xb
 3859 0193 01       		.byte	0x1
 3860 0194 11       		.uleb128 0x11
 3861 0195 01       		.uleb128 0x1
 3862 0196 12       		.uleb128 0x12
 3863 0197 06       		.uleb128 0x6
 3864 0198 00       		.byte	0
 3865 0199 00       		.byte	0
 3866 019a 1F       		.uleb128 0x1f
 3867 019b 898201   		.uleb128 0x4109
 3868 019e 01       		.byte	0x1
 3869 019f 11       		.uleb128 0x11
 3870 01a0 01       		.uleb128 0x1
 3871 01a1 31       		.uleb128 0x31
 3872 01a2 13       		.uleb128 0x13
 3873 01a3 01       		.uleb128 0x1
 3874 01a4 13       		.uleb128 0x13
 3875 01a5 00       		.byte	0
 3876 01a6 00       		.byte	0
 3877 01a7 20       		.uleb128 0x20
 3878 01a8 2E       		.uleb128 0x2e
 3879 01a9 01       		.byte	0x1
 3880 01aa 3F       		.uleb128 0x3f
 3881 01ab 19       		.uleb128 0x19
 3882 01ac 03       		.uleb128 0x3
 3883 01ad 0E       		.uleb128 0xe
 3884 01ae 3A       		.uleb128 0x3a
 3885 01af 0B       		.uleb128 0xb
 3886 01b0 3B       		.uleb128 0x3b
 3887 01b1 0B       		.uleb128 0xb
 3888 01b2 27       		.uleb128 0x27
 3889 01b3 19       		.uleb128 0x19
 3890 01b4 49       		.uleb128 0x49
ARM GAS  C:\Users\TERENC~1\AppData\Local\Temp\ccz498Tm.s 			page 95


 3891 01b5 13       		.uleb128 0x13
 3892 01b6 11       		.uleb128 0x11
 3893 01b7 01       		.uleb128 0x1
 3894 01b8 12       		.uleb128 0x12
 3895 01b9 06       		.uleb128 0x6
 3896 01ba 40       		.uleb128 0x40
 3897 01bb 18       		.uleb128 0x18
 3898 01bc 9742     		.uleb128 0x2117
 3899 01be 19       		.uleb128 0x19
 3900 01bf 01       		.uleb128 0x1
 3901 01c0 13       		.uleb128 0x13
 3902 01c1 00       		.byte	0
 3903 01c2 00       		.byte	0
 3904 01c3 21       		.uleb128 0x21
 3905 01c4 34       		.uleb128 0x34
 3906 01c5 00       		.byte	0
 3907 01c6 03       		.uleb128 0x3
 3908 01c7 0E       		.uleb128 0xe
 3909 01c8 3A       		.uleb128 0x3a
 3910 01c9 0B       		.uleb128 0xb
 3911 01ca 3B       		.uleb128 0x3b
 3912 01cb 0B       		.uleb128 0xb
 3913 01cc 49       		.uleb128 0x49
 3914 01cd 13       		.uleb128 0x13
 3915 01ce 02       		.uleb128 0x2
 3916 01cf 17       		.uleb128 0x17
 3917 01d0 00       		.byte	0
 3918 01d1 00       		.byte	0
 3919 01d2 22       		.uleb128 0x22
 3920 01d3 34       		.uleb128 0x34
 3921 01d4 00       		.byte	0
 3922 01d5 03       		.uleb128 0x3
 3923 01d6 0E       		.uleb128 0xe
 3924 01d7 3A       		.uleb128 0x3a
 3925 01d8 0B       		.uleb128 0xb
 3926 01d9 3B       		.uleb128 0x3b
 3927 01da 0B       		.uleb128 0xb
 3928 01db 49       		.uleb128 0x49
 3929 01dc 13       		.uleb128 0x13
 3930 01dd 02       		.uleb128 0x2
 3931 01de 18       		.uleb128 0x18
 3932 01df 00       		.byte	0
 3933 01e0 00       		.byte	0
 3934 01e1 23       		.uleb128 0x23
 3935 01e2 34       		.uleb128 0x34
 3936 01e3 00       		.byte	0
 3937 01e4 03       		.uleb128 0x3
 3938 01e5 0E       		.uleb128 0xe
 3939 01e6 3A       		.uleb128 0x3a
 3940 01e7 0B       		.uleb128 0xb
 3941 01e8 3B       		.uleb128 0x3b
 3942 01e9 05       		.uleb128 0x5
 3943 01ea 49       		.uleb128 0x49
 3944 01eb 13       		.uleb128 0x13
 3945 01ec 3F       		.uleb128 0x3f
 3946 01ed 19       		.uleb128 0x19
 3947 01ee 3C       		.uleb128 0x3c
ARM GAS  C:\Users\TERENC~1\AppData\Local\Temp\ccz498Tm.s 			page 96


 3948 01ef 19       		.uleb128 0x19
 3949 01f0 00       		.byte	0
 3950 01f1 00       		.byte	0
 3951 01f2 24       		.uleb128 0x24
 3952 01f3 34       		.uleb128 0x34
 3953 01f4 00       		.byte	0
 3954 01f5 03       		.uleb128 0x3
 3955 01f6 0E       		.uleb128 0xe
 3956 01f7 3A       		.uleb128 0x3a
 3957 01f8 0B       		.uleb128 0xb
 3958 01f9 3B       		.uleb128 0x3b
 3959 01fa 0B       		.uleb128 0xb
 3960 01fb 49       		.uleb128 0x49
 3961 01fc 13       		.uleb128 0x13
 3962 01fd 3F       		.uleb128 0x3f
 3963 01fe 19       		.uleb128 0x19
 3964 01ff 3C       		.uleb128 0x3c
 3965 0200 19       		.uleb128 0x19
 3966 0201 00       		.byte	0
 3967 0202 00       		.byte	0
 3968 0203 25       		.uleb128 0x25
 3969 0204 2E       		.uleb128 0x2e
 3970 0205 00       		.byte	0
 3971 0206 3F       		.uleb128 0x3f
 3972 0207 19       		.uleb128 0x19
 3973 0208 3C       		.uleb128 0x3c
 3974 0209 19       		.uleb128 0x19
 3975 020a 6E       		.uleb128 0x6e
 3976 020b 0E       		.uleb128 0xe
 3977 020c 03       		.uleb128 0x3
 3978 020d 0E       		.uleb128 0xe
 3979 020e 3A       		.uleb128 0x3a
 3980 020f 0B       		.uleb128 0xb
 3981 0210 3B       		.uleb128 0x3b
 3982 0211 0B       		.uleb128 0xb
 3983 0212 00       		.byte	0
 3984 0213 00       		.byte	0
 3985 0214 26       		.uleb128 0x26
 3986 0215 2E       		.uleb128 0x2e
 3987 0216 00       		.byte	0
 3988 0217 3F       		.uleb128 0x3f
 3989 0218 19       		.uleb128 0x19
 3990 0219 3C       		.uleb128 0x3c
 3991 021a 19       		.uleb128 0x19
 3992 021b 6E       		.uleb128 0x6e
 3993 021c 0E       		.uleb128 0xe
 3994 021d 03       		.uleb128 0x3
 3995 021e 0E       		.uleb128 0xe
 3996 021f 3A       		.uleb128 0x3a
 3997 0220 0B       		.uleb128 0xb
 3998 0221 3B       		.uleb128 0x3b
 3999 0222 05       		.uleb128 0x5
 4000 0223 00       		.byte	0
 4001 0224 00       		.byte	0
 4002 0225 00       		.byte	0
 4003              		.section	.debug_loc,"",%progbits
 4004              	.Ldebug_loc0:
ARM GAS  C:\Users\TERENC~1\AppData\Local\Temp\ccz498Tm.s 			page 97


 4005              	.LLST0:
 4006 0000 00000000 		.4byte	.LVL0
 4007 0004 0E000000 		.4byte	.LVL1
 4008 0008 0100     		.2byte	0x1
 4009 000a 50       		.byte	0x50
 4010 000b 0E000000 		.4byte	.LVL1
 4011 000f 5E000000 		.4byte	.LVL8
 4012 0013 0100     		.2byte	0x1
 4013 0015 54       		.byte	0x54
 4014 0016 5E000000 		.4byte	.LVL8
 4015 001a 64000000 		.4byte	.LFE2
 4016 001e 0400     		.2byte	0x4
 4017 0020 F3       		.byte	0xf3
 4018 0021 01       		.uleb128 0x1
 4019 0022 50       		.byte	0x50
 4020 0023 9F       		.byte	0x9f
 4021 0024 00000000 		.4byte	0
 4022 0028 00000000 		.4byte	0
 4023              	.LLST1:
 4024 002c 2A000000 		.4byte	.LVL3
 4025 0030 30000000 		.4byte	.LVL4
 4026 0034 0200     		.2byte	0x2
 4027 0036 32       		.byte	0x32
 4028 0037 9F       		.byte	0x9f
 4029 0038 30000000 		.4byte	.LVL4
 4030 003c 5C000000 		.4byte	.LVL7
 4031 0040 0100     		.2byte	0x1
 4032 0042 53       		.byte	0x53
 4033 0043 00000000 		.4byte	0
 4034 0047 00000000 		.4byte	0
 4035              	.LLST2:
 4036 004b 18000000 		.4byte	.LVL2
 4037 004f 30000000 		.4byte	.LVL4
 4038 0053 0200     		.2byte	0x2
 4039 0055 30       		.byte	0x30
 4040 0056 9F       		.byte	0x9f
 4041 0057 30000000 		.4byte	.LVL4
 4042 005b 5C000000 		.4byte	.LVL7
 4043 005f 0100     		.2byte	0x1
 4044 0061 50       		.byte	0x50
 4045 0062 00000000 		.4byte	0
 4046 0066 00000000 		.4byte	0
 4047              	.LLST3:
 4048 006a 02000000 		.4byte	.LVL9
 4049 006e 06000000 		.4byte	.LVL10
 4050 0072 0200     		.2byte	0x2
 4051 0074 31       		.byte	0x31
 4052 0075 9F       		.byte	0x9f
 4053 0076 06000000 		.4byte	.LVL10
 4054 007a 80000000 		.4byte	.LVL12
 4055 007e 0100     		.2byte	0x1
 4056 0080 53       		.byte	0x53
 4057 0081 00000000 		.4byte	0
 4058 0085 00000000 		.4byte	0
 4059              	.LLST4:
 4060 0089 00000000 		.4byte	.LVL13
 4061 008d 04000000 		.4byte	.LVL14
ARM GAS  C:\Users\TERENC~1\AppData\Local\Temp\ccz498Tm.s 			page 98


 4062 0091 0200     		.2byte	0x2
 4063 0093 31       		.byte	0x31
 4064 0094 9F       		.byte	0x9f
 4065 0095 04000000 		.4byte	.LVL14
 4066 0099 36000000 		.4byte	.LVL15
 4067 009d 0100     		.2byte	0x1
 4068 009f 53       		.byte	0x53
 4069 00a0 38000000 		.4byte	.LVL16
 4070 00a4 44000000 		.4byte	.LFE4
 4071 00a8 0100     		.2byte	0x1
 4072 00aa 53       		.byte	0x53
 4073 00ab 00000000 		.4byte	0
 4074 00af 00000000 		.4byte	0
 4075              	.LLST5:
 4076 00b3 00000000 		.4byte	.LVL17
 4077 00b7 14000000 		.4byte	.LVL19
 4078 00bb 0100     		.2byte	0x1
 4079 00bd 50       		.byte	0x50
 4080 00be 14000000 		.4byte	.LVL19
 4081 00c2 1C000000 		.4byte	.LVL21
 4082 00c6 0400     		.2byte	0x4
 4083 00c8 F3       		.byte	0xf3
 4084 00c9 01       		.uleb128 0x1
 4085 00ca 50       		.byte	0x50
 4086 00cb 9F       		.byte	0x9f
 4087 00cc 1C000000 		.4byte	.LVL21
 4088 00d0 1E000000 		.4byte	.LVL22
 4089 00d4 0100     		.2byte	0x1
 4090 00d6 50       		.byte	0x50
 4091 00d7 1E000000 		.4byte	.LVL22
 4092 00db 28000000 		.4byte	.LFE7
 4093 00df 0400     		.2byte	0x4
 4094 00e1 F3       		.byte	0xf3
 4095 00e2 01       		.uleb128 0x1
 4096 00e3 50       		.byte	0x50
 4097 00e4 9F       		.byte	0x9f
 4098 00e5 00000000 		.4byte	0
 4099 00e9 00000000 		.4byte	0
 4100              	.LLST6:
 4101 00ed 0C000000 		.4byte	.LVL18
 4102 00f1 1A000000 		.4byte	.LVL20
 4103 00f5 0300     		.2byte	0x3
 4104 00f7 73       		.byte	0x73
 4105 00f8 10       		.sleb128 16
 4106 00f9 9F       		.byte	0x9f
 4107 00fa 1A000000 		.4byte	.LVL20
 4108 00fe 1C000000 		.4byte	.LVL21
 4109 0102 0100     		.2byte	0x1
 4110 0104 50       		.byte	0x50
 4111 0105 1C000000 		.4byte	.LVL21
 4112 0109 1E000000 		.4byte	.LVL22
 4113 010d 0300     		.2byte	0x3
 4114 010f 73       		.byte	0x73
 4115 0110 10       		.sleb128 16
 4116 0111 9F       		.byte	0x9f
 4117 0112 1E000000 		.4byte	.LVL22
 4118 0116 28000000 		.4byte	.LFE7
ARM GAS  C:\Users\TERENC~1\AppData\Local\Temp\ccz498Tm.s 			page 99


 4119 011a 0100     		.2byte	0x1
 4120 011c 50       		.byte	0x50
 4121 011d 00000000 		.4byte	0
 4122 0121 00000000 		.4byte	0
 4123              	.LLST7:
 4124 0125 20000000 		.4byte	.LVL24
 4125 0129 FE000000 		.4byte	.LVL38
 4126 012d 0100     		.2byte	0x1
 4127 012f 54       		.byte	0x54
 4128 0130 00000000 		.4byte	0
 4129 0134 00000000 		.4byte	0
 4130              	.LLST8:
 4131 0138 44000000 		.4byte	.LVL29
 4132 013c CA000000 		.4byte	.LVL34
 4133 0140 0100     		.2byte	0x1
 4134 0142 51       		.byte	0x51
 4135 0143 00000000 		.4byte	0
 4136 0147 00000000 		.4byte	0
 4137              	.LLST9:
 4138 014b 4C000000 		.4byte	.LVL30
 4139 014f 52000000 		.4byte	.LVL31
 4140 0153 0100     		.2byte	0x1
 4141 0155 56       		.byte	0x56
 4142 0156 52000000 		.4byte	.LVL31
 4143 015a A2000000 		.4byte	.LVL32
 4144 015e 0100     		.2byte	0x1
 4145 0160 5C       		.byte	0x5c
 4146 0161 A2000000 		.4byte	.LVL32
 4147 0165 AE000000 		.4byte	.LVL33
 4148 0169 0100     		.2byte	0x1
 4149 016b 55       		.byte	0x55
 4150 016c AE000000 		.4byte	.LVL33
 4151 0170 F6000000 		.4byte	.LVL35
 4152 0174 0100     		.2byte	0x1
 4153 0176 5C       		.byte	0x5c
 4154 0177 00000000 		.4byte	0
 4155 017b 00000000 		.4byte	0
 4156              	.LLST10:
 4157 017f 28000000 		.4byte	.LVL27
 4158 0183 2C000000 		.4byte	.LVL28
 4159 0187 0200     		.2byte	0x2
 4160 0189 30       		.byte	0x30
 4161 018a 9F       		.byte	0x9f
 4162 018b 2C000000 		.4byte	.LVL28
 4163 018f FE000000 		.4byte	.LVL38
 4164 0193 0100     		.2byte	0x1
 4165 0195 52       		.byte	0x52
 4166 0196 00000000 		.4byte	0
 4167 019a 00000000 		.4byte	0
 4168              	.LLST11:
 4169 019e 28000000 		.4byte	.LVL27
 4170 01a2 FE000000 		.4byte	.LVL38
 4171 01a6 0100     		.2byte	0x1
 4172 01a8 50       		.byte	0x50
 4173 01a9 00000000 		.4byte	0
 4174 01ad 00000000 		.4byte	0
 4175              	.LLST12:
ARM GAS  C:\Users\TERENC~1\AppData\Local\Temp\ccz498Tm.s 			page 100


 4176 01b1 1E000000 		.4byte	.LVL23
 4177 01b5 26000000 		.4byte	.LVL26
 4178 01b9 0300     		.2byte	0x3
 4179 01bb 70       		.byte	0x70
 4180 01bc 08       		.sleb128 8
 4181 01bd 9F       		.byte	0x9f
 4182 01be 00000000 		.4byte	0
 4183 01c2 00000000 		.4byte	0
 4184              	.LLST13:
 4185 01c6 22000000 		.4byte	.LVL25
 4186 01ca FE000000 		.4byte	.LVL38
 4187 01ce 0100     		.2byte	0x1
 4188 01d0 53       		.byte	0x53
 4189 01d1 00000000 		.4byte	0
 4190 01d5 00000000 		.4byte	0
 4191              	.LLST14:
 4192 01d9 0E000000 		.4byte	.LVL39
 4193 01dd 1E000000 		.4byte	.LVL44
 4194 01e1 0100     		.2byte	0x1
 4195 01e3 50       		.byte	0x50
 4196 01e4 20000000 		.4byte	.LVL45
 4197 01e8 22000000 		.4byte	.LVL46
 4198 01ec 0100     		.2byte	0x1
 4199 01ee 50       		.byte	0x50
 4200 01ef 00000000 		.4byte	0
 4201 01f3 00000000 		.4byte	0
 4202              	.LLST15:
 4203 01f7 1E000000 		.4byte	.LVL44
 4204 01fb 20000000 		.4byte	.LVL45
 4205 01ff 0100     		.2byte	0x1
 4206 0201 50       		.byte	0x50
 4207 0202 22000000 		.4byte	.LVL46
 4208 0206 28000000 		.4byte	.LFE9
 4209 020a 0100     		.2byte	0x1
 4210 020c 50       		.byte	0x50
 4211 020d 00000000 		.4byte	0
 4212 0211 00000000 		.4byte	0
 4213              	.LLST16:
 4214 0215 16000000 		.4byte	.LVL40
 4215 0219 18000000 		.4byte	.LVL41
 4216 021d 0100     		.2byte	0x1
 4217 021f 53       		.byte	0x53
 4218 0220 18000000 		.4byte	.LVL41
 4219 0224 1A000000 		.4byte	.LVL42
 4220 0228 0300     		.2byte	0x3
 4221 022a 73       		.byte	0x73
 4222 022b 7E       		.sleb128 -2
 4223 022c 9F       		.byte	0x9f
 4224 022d 1A000000 		.4byte	.LVL42
 4225 0231 1C000000 		.4byte	.LVL43
 4226 0235 0500     		.2byte	0x5
 4227 0237 70       		.byte	0x70
 4228 0238 04       		.sleb128 4
 4229 0239 06       		.byte	0x6
 4230 023a 23       		.byte	0x23
 4231 023b 04       		.uleb128 0x4
 4232 023c 00000000 		.4byte	0
ARM GAS  C:\Users\TERENC~1\AppData\Local\Temp\ccz498Tm.s 			page 101


 4233 0240 00000000 		.4byte	0
 4234              	.LLST17:
 4235 0244 00000000 		.4byte	.LVL47
 4236 0248 64000000 		.4byte	.LVL59
 4237 024c 0100     		.2byte	0x1
 4238 024e 50       		.byte	0x50
 4239 024f 64000000 		.4byte	.LVL59
 4240 0253 F4010000 		.4byte	.LFE5
 4241 0257 0400     		.2byte	0x4
 4242 0259 F3       		.byte	0xf3
 4243 025a 01       		.uleb128 0x1
 4244 025b 50       		.byte	0x50
 4245 025c 9F       		.byte	0x9f
 4246 025d 00000000 		.4byte	0
 4247 0261 00000000 		.4byte	0
 4248              	.LLST18:
 4249 0265 0C000000 		.4byte	.LVL48
 4250 0269 10000000 		.4byte	.LVL49
 4251 026d 0200     		.2byte	0x2
 4252 026f 30       		.byte	0x30
 4253 0270 9F       		.byte	0x9f
 4254 0271 10000000 		.4byte	.LVL49
 4255 0275 34000000 		.4byte	.LVL50
 4256 0279 0100     		.2byte	0x1
 4257 027b 53       		.byte	0x53
 4258 027c 36000000 		.4byte	.LVL51
 4259 0280 40000000 		.4byte	.LVL52
 4260 0284 0100     		.2byte	0x1
 4261 0286 53       		.byte	0x53
 4262 0287 50000000 		.4byte	.LVL55
 4263 028b 52000000 		.4byte	.LVL56
 4264 028f 0100     		.2byte	0x1
 4265 0291 53       		.byte	0x53
 4266 0292 92000000 		.4byte	.LVL63
 4267 0296 AA010000 		.4byte	.LVL90
 4268 029a 0100     		.2byte	0x1
 4269 029c 57       		.byte	0x57
 4270 029d AA010000 		.4byte	.LVL90
 4271 02a1 B0010000 		.4byte	.LVL91
 4272 02a5 0200     		.2byte	0x2
 4273 02a7 31       		.byte	0x31
 4274 02a8 9F       		.byte	0x9f
 4275 02a9 B0010000 		.4byte	.LVL91
 4276 02ad C4010000 		.4byte	.LVL94
 4277 02b1 0100     		.2byte	0x1
 4278 02b3 53       		.byte	0x53
 4279 02b4 C6010000 		.4byte	.LVL95
 4280 02b8 CD010000 		.4byte	.LVL96-1
 4281 02bc 0100     		.2byte	0x1
 4282 02be 53       		.byte	0x53
 4283 02bf 00000000 		.4byte	0
 4284 02c3 00000000 		.4byte	0
 4285              	.LLST19:
 4286 02c7 9E000000 		.4byte	.LVL65
 4287 02cb A2000000 		.4byte	.LVL66
 4288 02cf 0200     		.2byte	0x2
 4289 02d1 30       		.byte	0x30
ARM GAS  C:\Users\TERENC~1\AppData\Local\Temp\ccz498Tm.s 			page 102


 4290 02d2 9F       		.byte	0x9f
 4291 02d3 A2000000 		.4byte	.LVL66
 4292 02d7 6E010000 		.4byte	.LVL80
 4293 02db 0100     		.2byte	0x1
 4294 02dd 54       		.byte	0x54
 4295 02de 70010000 		.4byte	.LVL81
 4296 02e2 78010000 		.4byte	.LVL83
 4297 02e6 0100     		.2byte	0x1
 4298 02e8 54       		.byte	0x54
 4299 02e9 00000000 		.4byte	0
 4300 02ed 00000000 		.4byte	0
 4301              	.LLST20:
 4302 02f1 40000000 		.4byte	.LVL52
 4303 02f5 4C000000 		.4byte	.LVL53
 4304 02f9 0100     		.2byte	0x1
 4305 02fb 53       		.byte	0x53
 4306 02fc 4E000000 		.4byte	.LVL54
 4307 0300 50000000 		.4byte	.LVL55
 4308 0304 0100     		.2byte	0x1
 4309 0306 53       		.byte	0x53
 4310 0307 52000000 		.4byte	.LVL56
 4311 030b 56000000 		.4byte	.LVL57
 4312 030f 0100     		.2byte	0x1
 4313 0311 53       		.byte	0x53
 4314 0312 92000000 		.4byte	.LVL63
 4315 0316 9A000000 		.4byte	.LVL64
 4316 031a 0200     		.2byte	0x2
 4317 031c 31       		.byte	0x31
 4318 031d 9F       		.byte	0x9f
 4319 031e 9A000000 		.4byte	.LVL64
 4320 0322 76010000 		.4byte	.LVL82
 4321 0326 0100     		.2byte	0x1
 4322 0328 56       		.byte	0x56
 4323 0329 78010000 		.4byte	.LVL83
 4324 032d 80010000 		.4byte	.LVL84
 4325 0331 0100     		.2byte	0x1
 4326 0333 56       		.byte	0x56
 4327 0334 80010000 		.4byte	.LVL84
 4328 0338 84010000 		.4byte	.LVL85
 4329 033c 0200     		.2byte	0x2
 4330 033e 30       		.byte	0x30
 4331 033f 9F       		.byte	0x9f
 4332 0340 84010000 		.4byte	.LVL85
 4333 0344 9C010000 		.4byte	.LVL87
 4334 0348 0100     		.2byte	0x1
 4335 034a 52       		.byte	0x52
 4336 034b 9E010000 		.4byte	.LVL88
 4337 034f A5010000 		.4byte	.LVL89-1
 4338 0353 0100     		.2byte	0x1
 4339 0355 52       		.byte	0x52
 4340 0356 00000000 		.4byte	0
 4341 035a 00000000 		.4byte	0
 4342              	.LLST21:
 4343 035e 02010000 		.4byte	.LVL67
 4344 0362 10010000 		.4byte	.LVL68
 4345 0366 0100     		.2byte	0x1
 4346 0368 53       		.byte	0x53
ARM GAS  C:\Users\TERENC~1\AppData\Local\Temp\ccz498Tm.s 			page 103


 4347 0369 10010000 		.4byte	.LVL68
 4348 036d 14010000 		.4byte	.LVL69
 4349 0371 0300     		.2byte	0x3
 4350 0373 73       		.byte	0x73
 4351 0374 7A       		.sleb128 -6
 4352 0375 9F       		.byte	0x9f
 4353 0376 14010000 		.4byte	.LVL69
 4354 037a 16010000 		.4byte	.LVL70
 4355 037e 0100     		.2byte	0x1
 4356 0380 53       		.byte	0x53
 4357 0381 16010000 		.4byte	.LVL70
 4358 0385 28010000 		.4byte	.LVL71
 4359 0389 0700     		.2byte	0x7
 4360 038b 75       		.byte	0x75
 4361 038c 03       		.sleb128 3
 4362 038d 94       		.byte	0x94
 4363 038e 01       		.byte	0x1
 4364 038f 33       		.byte	0x33
 4365 0390 1A       		.byte	0x1a
 4366 0391 9F       		.byte	0x9f
 4367 0392 30010000 		.4byte	.LVL72
 4368 0396 36010000 		.4byte	.LVL73
 4369 039a 0100     		.2byte	0x1
 4370 039c 53       		.byte	0x53
 4371 039d 36010000 		.4byte	.LVL73
 4372 03a1 3A010000 		.4byte	.LVL74
 4373 03a5 0300     		.2byte	0x3
 4374 03a7 73       		.byte	0x73
 4375 03a8 7C       		.sleb128 -4
 4376 03a9 9F       		.byte	0x9f
 4377 03aa 3A010000 		.4byte	.LVL74
 4378 03ae 3C010000 		.4byte	.LVL75
 4379 03b2 0100     		.2byte	0x1
 4380 03b4 53       		.byte	0x53
 4381 03b5 3C010000 		.4byte	.LVL75
 4382 03b9 4E010000 		.4byte	.LVL76
 4383 03bd 0700     		.2byte	0x7
 4384 03bf 75       		.byte	0x75
 4385 03c0 03       		.sleb128 3
 4386 03c1 94       		.byte	0x94
 4387 03c2 01       		.byte	0x1
 4388 03c3 33       		.byte	0x33
 4389 03c4 1A       		.byte	0x1a
 4390 03c5 9F       		.byte	0x9f
 4391 03c6 00000000 		.4byte	0
 4392 03ca 00000000 		.4byte	0
 4393              	.LLST22:
 4394 03ce 6E000000 		.4byte	.LVL61
 4395 03d2 9A000000 		.4byte	.LVL64
 4396 03d6 0200     		.2byte	0x2
 4397 03d8 70       		.byte	0x70
 4398 03d9 04       		.sleb128 4
 4399 03da 00000000 		.4byte	0
 4400 03de 00000000 		.4byte	0
 4401              	.LLST23:
 4402 03e2 0C000000 		.4byte	.LVL48
 4403 03e6 B0010000 		.4byte	.LVL91
ARM GAS  C:\Users\TERENC~1\AppData\Local\Temp\ccz498Tm.s 			page 104


 4404 03ea 0200     		.2byte	0x2
 4405 03ec 30       		.byte	0x30
 4406 03ed 9F       		.byte	0x9f
 4407 03ee B0010000 		.4byte	.LVL91
 4408 03f2 C0010000 		.4byte	.LVL92
 4409 03f6 0100     		.2byte	0x1
 4410 03f8 51       		.byte	0x51
 4411 03f9 C0010000 		.4byte	.LVL92
 4412 03fd C2010000 		.4byte	.LVL93
 4413 0401 0200     		.2byte	0x2
 4414 0403 74       		.byte	0x74
 4415 0404 06       		.sleb128 6
 4416 0405 C2010000 		.4byte	.LVL93
 4417 0409 CD010000 		.4byte	.LVL96-1
 4418 040d 0100     		.2byte	0x1
 4419 040f 51       		.byte	0x51
 4420 0410 00000000 		.4byte	0
 4421 0414 00000000 		.4byte	0
 4422              	.LLST24:
 4423 0418 6E000000 		.4byte	.LVL61
 4424 041c 8E000000 		.4byte	.LVL62
 4425 0420 0100     		.2byte	0x1
 4426 0422 50       		.byte	0x50
 4427 0423 8E000000 		.4byte	.LVL62
 4428 0427 9A000000 		.4byte	.LVL64
 4429 042b 0300     		.2byte	0x3
 4430 042d 70       		.byte	0x70
 4431 042e 08       		.sleb128 8
 4432 042f 9F       		.byte	0x9f
 4433 0430 9A000000 		.4byte	.LVL64
 4434 0434 CE010000 		.4byte	.LVL96
 4435 0438 0300     		.2byte	0x3
 4436 043a 78       		.byte	0x78
 4437 043b 08       		.sleb128 8
 4438 043c 9F       		.byte	0x9f
 4439 043d 00000000 		.4byte	0
 4440 0441 00000000 		.4byte	0
 4441              	.LLST25:
 4442 0445 9E000000 		.4byte	.LVL65
 4443 0449 78010000 		.4byte	.LVL83
 4444 044d 0100     		.2byte	0x1
 4445 044f 55       		.byte	0x55
 4446 0450 80010000 		.4byte	.LVL84
 4447 0454 A5010000 		.4byte	.LVL89-1
 4448 0458 0100     		.2byte	0x1
 4449 045a 50       		.byte	0x50
 4450 045b 00000000 		.4byte	0
 4451 045f 00000000 		.4byte	0
 4452              	.LLST26:
 4453 0463 60000000 		.4byte	.LVL58
 4454 0467 9A000000 		.4byte	.LVL64
 4455 046b 0200     		.2byte	0x2
 4456 046d 30       		.byte	0x30
 4457 046e 9F       		.byte	0x9f
 4458 046f 9A000000 		.4byte	.LVL64
 4459 0473 CE010000 		.4byte	.LVL96
 4460 0477 0200     		.2byte	0x2
ARM GAS  C:\Users\TERENC~1\AppData\Local\Temp\ccz498Tm.s 			page 105


 4461 0479 91       		.byte	0x91
 4462 047a 5C       		.sleb128 -36
 4463 047b 00000000 		.4byte	0
 4464 047f 00000000 		.4byte	0
 4465              	.LLST27:
 4466 0483 00000000 		.4byte	.LVL97
 4467 0487 04000000 		.4byte	.LVL98
 4468 048b 0100     		.2byte	0x1
 4469 048d 50       		.byte	0x50
 4470 048e 04000000 		.4byte	.LVL98
 4471 0492 32000000 		.4byte	.LVL99
 4472 0496 0100     		.2byte	0x1
 4473 0498 50       		.byte	0x50
 4474 0499 3E000000 		.4byte	.LVL100
 4475 049d 40000000 		.4byte	.LVL101
 4476 04a1 0100     		.2byte	0x1
 4477 04a3 50       		.byte	0x50
 4478 04a4 00000000 		.4byte	0
 4479 04a8 00000000 		.4byte	0
 4480              	.LLST28:
 4481 04ac 02000000 		.4byte	.LVL102
 4482 04b0 58000000 		.4byte	.LVL107
 4483 04b4 0200     		.2byte	0x2
 4484 04b6 30       		.byte	0x30
 4485 04b7 9F       		.byte	0x9f
 4486 04b8 58000000 		.4byte	.LVL107
 4487 04bc 5A000000 		.4byte	.LVL108
 4488 04c0 0100     		.2byte	0x1
 4489 04c2 50       		.byte	0x50
 4490 04c3 5A000000 		.4byte	.LVL108
 4491 04c7 5C000000 		.4byte	.LVL109
 4492 04cb 0200     		.2byte	0x2
 4493 04cd 30       		.byte	0x30
 4494 04ce 9F       		.byte	0x9f
 4495 04cf 5C000000 		.4byte	.LVL109
 4496 04d3 6C000000 		.4byte	.LFE11
 4497 04d7 0100     		.2byte	0x1
 4498 04d9 50       		.byte	0x50
 4499 04da 00000000 		.4byte	0
 4500 04de 00000000 		.4byte	0
 4501              	.LLST29:
 4502 04e2 0A000000 		.4byte	.LVL103
 4503 04e6 3C000000 		.4byte	.LVL104
 4504 04ea 0100     		.2byte	0x1
 4505 04ec 53       		.byte	0x53
 4506 04ed 48000000 		.4byte	.LVL105
 4507 04f1 4A000000 		.4byte	.LVL106
 4508 04f5 0100     		.2byte	0x1
 4509 04f7 53       		.byte	0x53
 4510 04f8 5A000000 		.4byte	.LVL108
 4511 04fc 5C000000 		.4byte	.LVL109
 4512 0500 0100     		.2byte	0x1
 4513 0502 53       		.byte	0x53
 4514 0503 00000000 		.4byte	0
 4515 0507 00000000 		.4byte	0
 4516              	.LLST30:
 4517 050b 02000000 		.4byte	.LVL110
ARM GAS  C:\Users\TERENC~1\AppData\Local\Temp\ccz498Tm.s 			page 106


 4518 050f 9A000000 		.4byte	.LVL119
 4519 0513 0200     		.2byte	0x2
 4520 0515 30       		.byte	0x30
 4521 0516 9F       		.byte	0x9f
 4522 0517 9A000000 		.4byte	.LVL119
 4523 051b 9C000000 		.4byte	.LVL120
 4524 051f 0100     		.2byte	0x1
 4525 0521 50       		.byte	0x50
 4526 0522 9C000000 		.4byte	.LVL120
 4527 0526 9E000000 		.4byte	.LVL121
 4528 052a 0200     		.2byte	0x2
 4529 052c 30       		.byte	0x30
 4530 052d 9F       		.byte	0x9f
 4531 052e 9E000000 		.4byte	.LVL121
 4532 0532 AC000000 		.4byte	.LFE12
 4533 0536 0100     		.2byte	0x1
 4534 0538 50       		.byte	0x50
 4535 0539 00000000 		.4byte	0
 4536 053d 00000000 		.4byte	0
 4537              	.LLST31:
 4538 0541 0A000000 		.4byte	.LVL111
 4539 0545 52000000 		.4byte	.LVL112
 4540 0549 0100     		.2byte	0x1
 4541 054b 53       		.byte	0x53
 4542 054c 5E000000 		.4byte	.LVL113
 4543 0550 60000000 		.4byte	.LVL114
 4544 0554 0100     		.2byte	0x1
 4545 0556 53       		.byte	0x53
 4546 0557 6C000000 		.4byte	.LVL115
 4547 055b 7E000000 		.4byte	.LVL116
 4548 055f 0100     		.2byte	0x1
 4549 0561 53       		.byte	0x53
 4550 0562 8A000000 		.4byte	.LVL117
 4551 0566 8C000000 		.4byte	.LVL118
 4552 056a 0100     		.2byte	0x1
 4553 056c 53       		.byte	0x53
 4554 056d 9C000000 		.4byte	.LVL120
 4555 0571 9E000000 		.4byte	.LVL121
 4556 0575 0100     		.2byte	0x1
 4557 0577 53       		.byte	0x53
 4558 0578 00000000 		.4byte	0
 4559 057c 00000000 		.4byte	0
 4560              	.LLST32:
 4561 0580 02000000 		.4byte	.LVL122
 4562 0584 36000000 		.4byte	.LVL128
 4563 0588 0200     		.2byte	0x2
 4564 058a 30       		.byte	0x30
 4565 058b 9F       		.byte	0x9f
 4566 058c 36000000 		.4byte	.LVL128
 4567 0590 3A000000 		.4byte	.LVL129
 4568 0594 0200     		.2byte	0x2
 4569 0596 31       		.byte	0x31
 4570 0597 9F       		.byte	0x9f
 4571 0598 3A000000 		.4byte	.LVL129
 4572 059c 3C000000 		.4byte	.LVL130
 4573 05a0 0200     		.2byte	0x2
 4574 05a2 30       		.byte	0x30
ARM GAS  C:\Users\TERENC~1\AppData\Local\Temp\ccz498Tm.s 			page 107


 4575 05a3 9F       		.byte	0x9f
 4576 05a4 3C000000 		.4byte	.LVL130
 4577 05a8 50000000 		.4byte	.LFE13
 4578 05ac 0100     		.2byte	0x1
 4579 05ae 50       		.byte	0x50
 4580 05af 00000000 		.4byte	0
 4581 05b3 00000000 		.4byte	0
 4582              	.LLST33:
 4583 05b7 08000000 		.4byte	.LVL123
 4584 05bb 3C000000 		.4byte	.LVL131
 4585 05bf 0100     		.2byte	0x1
 4586 05c1 55       		.byte	0x55
 4587 05c2 00000000 		.4byte	0
 4588 05c6 00000000 		.4byte	0
 4589              	.LLST34:
 4590 05ca 18000000 		.4byte	.LVL125
 4591 05ce 22000000 		.4byte	.LVL126
 4592 05d2 0100     		.2byte	0x1
 4593 05d4 53       		.byte	0x53
 4594 05d5 22000000 		.4byte	.LVL126
 4595 05d9 2C000000 		.4byte	.LVL127
 4596 05dd 0500     		.2byte	0x5
 4597 05df 70       		.byte	0x70
 4598 05e0 04       		.sleb128 4
 4599 05e1 06       		.byte	0x6
 4600 05e2 23       		.byte	0x23
 4601 05e3 04       		.uleb128 0x4
 4602 05e4 3A000000 		.4byte	.LVL129
 4603 05e8 3C000000 		.4byte	.LVL130
 4604 05ec 0100     		.2byte	0x1
 4605 05ee 53       		.byte	0x53
 4606 05ef 00000000 		.4byte	0
 4607 05f3 00000000 		.4byte	0
 4608              	.LLST35:
 4609 05f7 14000000 		.4byte	.LVL124
 4610 05fb 2C000000 		.4byte	.LVL127
 4611 05ff 0100     		.2byte	0x1
 4612 0601 50       		.byte	0x50
 4613 0602 3A000000 		.4byte	.LVL129
 4614 0606 3C000000 		.4byte	.LVL130
 4615 060a 0100     		.2byte	0x1
 4616 060c 50       		.byte	0x50
 4617 060d 00000000 		.4byte	0
 4618 0611 00000000 		.4byte	0
 4619              	.LLST36:
 4620 0615 02000000 		.4byte	.LVL132
 4621 0619 4A000000 		.4byte	.LVL136
 4622 061d 0200     		.2byte	0x2
 4623 061f 30       		.byte	0x30
 4624 0620 9F       		.byte	0x9f
 4625 0621 4A000000 		.4byte	.LVL136
 4626 0625 4C000000 		.4byte	.LVL137
 4627 0629 0100     		.2byte	0x1
 4628 062b 50       		.byte	0x50
 4629 062c 4C000000 		.4byte	.LVL137
 4630 0630 7C000000 		.4byte	.LVL139
 4631 0634 0200     		.2byte	0x2
ARM GAS  C:\Users\TERENC~1\AppData\Local\Temp\ccz498Tm.s 			page 108


 4632 0636 30       		.byte	0x30
 4633 0637 9F       		.byte	0x9f
 4634 0638 7C000000 		.4byte	.LVL139
 4635 063c 7E000000 		.4byte	.LVL140
 4636 0640 0100     		.2byte	0x1
 4637 0642 50       		.byte	0x50
 4638 0643 7E000000 		.4byte	.LVL140
 4639 0647 E0000000 		.4byte	.LVL152
 4640 064b 0200     		.2byte	0x2
 4641 064d 30       		.byte	0x30
 4642 064e 9F       		.byte	0x9f
 4643 064f E0000000 		.4byte	.LVL152
 4644 0653 E2000000 		.4byte	.LVL153
 4645 0657 0100     		.2byte	0x1
 4646 0659 50       		.byte	0x50
 4647 065a E2000000 		.4byte	.LVL153
 4648 065e E6000000 		.4byte	.LVL154
 4649 0662 0200     		.2byte	0x2
 4650 0664 30       		.byte	0x30
 4651 0665 9F       		.byte	0x9f
 4652 0666 E6000000 		.4byte	.LVL154
 4653 066a E8000000 		.4byte	.LVL155
 4654 066e 0100     		.2byte	0x1
 4655 0670 50       		.byte	0x50
 4656 0671 E8000000 		.4byte	.LVL155
 4657 0675 1C010000 		.4byte	.LVL157
 4658 0679 0200     		.2byte	0x2
 4659 067b 30       		.byte	0x30
 4660 067c 9F       		.byte	0x9f
 4661 067d 1C010000 		.4byte	.LVL157
 4662 0681 1E010000 		.4byte	.LVL158
 4663 0685 0100     		.2byte	0x1
 4664 0687 50       		.byte	0x50
 4665 0688 1E010000 		.4byte	.LVL158
 4666 068c 38010000 		.4byte	.LVL159
 4667 0690 0200     		.2byte	0x2
 4668 0692 30       		.byte	0x30
 4669 0693 9F       		.byte	0x9f
 4670 0694 38010000 		.4byte	.LVL159
 4671 0698 3A010000 		.4byte	.LVL160
 4672 069c 0100     		.2byte	0x1
 4673 069e 50       		.byte	0x50
 4674 069f 3A010000 		.4byte	.LVL160
 4675 06a3 48010000 		.4byte	.LVL162
 4676 06a7 0200     		.2byte	0x2
 4677 06a9 30       		.byte	0x30
 4678 06aa 9F       		.byte	0x9f
 4679 06ab 48010000 		.4byte	.LVL162
 4680 06af 4A010000 		.4byte	.LVL163
 4681 06b3 0100     		.2byte	0x1
 4682 06b5 50       		.byte	0x50
 4683 06b6 4A010000 		.4byte	.LVL163
 4684 06ba 5E010000 		.4byte	.LVL165
 4685 06be 0200     		.2byte	0x2
 4686 06c0 30       		.byte	0x30
 4687 06c1 9F       		.byte	0x9f
 4688 06c2 5E010000 		.4byte	.LVL165
ARM GAS  C:\Users\TERENC~1\AppData\Local\Temp\ccz498Tm.s 			page 109


 4689 06c6 60010000 		.4byte	.LVL166
 4690 06ca 0100     		.2byte	0x1
 4691 06cc 50       		.byte	0x50
 4692 06cd 60010000 		.4byte	.LVL166
 4693 06d1 80010000 		.4byte	.LVL168
 4694 06d5 0200     		.2byte	0x2
 4695 06d7 30       		.byte	0x30
 4696 06d8 9F       		.byte	0x9f
 4697 06d9 80010000 		.4byte	.LVL168
 4698 06dd 82010000 		.4byte	.LVL169
 4699 06e1 0100     		.2byte	0x1
 4700 06e3 50       		.byte	0x50
 4701 06e4 82010000 		.4byte	.LVL169
 4702 06e8 C0010000 		.4byte	.LVL176
 4703 06ec 0200     		.2byte	0x2
 4704 06ee 30       		.byte	0x30
 4705 06ef 9F       		.byte	0x9f
 4706 06f0 C0010000 		.4byte	.LVL176
 4707 06f4 C2010000 		.4byte	.LVL177
 4708 06f8 0100     		.2byte	0x1
 4709 06fa 50       		.byte	0x50
 4710 06fb C2010000 		.4byte	.LVL177
 4711 06ff F4010000 		.4byte	.LVL181
 4712 0703 0200     		.2byte	0x2
 4713 0705 30       		.byte	0x30
 4714 0706 9F       		.byte	0x9f
 4715 0707 F4010000 		.4byte	.LVL181
 4716 070b F6010000 		.4byte	.LVL182
 4717 070f 0100     		.2byte	0x1
 4718 0711 50       		.byte	0x50
 4719 0712 F6010000 		.4byte	.LVL182
 4720 0716 12020000 		.4byte	.LVL184
 4721 071a 0200     		.2byte	0x2
 4722 071c 30       		.byte	0x30
 4723 071d 9F       		.byte	0x9f
 4724 071e 12020000 		.4byte	.LVL184
 4725 0722 14020000 		.4byte	.LVL185
 4726 0726 0100     		.2byte	0x1
 4727 0728 50       		.byte	0x50
 4728 0729 14020000 		.4byte	.LVL185
 4729 072d 2A020000 		.4byte	.LVL186
 4730 0731 0200     		.2byte	0x2
 4731 0733 30       		.byte	0x30
 4732 0734 9F       		.byte	0x9f
 4733 0735 2A020000 		.4byte	.LVL186
 4734 0739 2C020000 		.4byte	.LVL187
 4735 073d 0100     		.2byte	0x1
 4736 073f 50       		.byte	0x50
 4737 0740 2C020000 		.4byte	.LVL187
 4738 0744 46020000 		.4byte	.LVL188
 4739 0748 0200     		.2byte	0x2
 4740 074a 30       		.byte	0x30
 4741 074b 9F       		.byte	0x9f
 4742 074c 46020000 		.4byte	.LVL188
 4743 0750 48020000 		.4byte	.LVL189
 4744 0754 0100     		.2byte	0x1
 4745 0756 50       		.byte	0x50
ARM GAS  C:\Users\TERENC~1\AppData\Local\Temp\ccz498Tm.s 			page 110


 4746 0757 48020000 		.4byte	.LVL189
 4747 075b 64020000 		.4byte	.LVL191
 4748 075f 0200     		.2byte	0x2
 4749 0761 30       		.byte	0x30
 4750 0762 9F       		.byte	0x9f
 4751 0763 64020000 		.4byte	.LVL191
 4752 0767 66020000 		.4byte	.LVL192
 4753 076b 0100     		.2byte	0x1
 4754 076d 50       		.byte	0x50
 4755 076e 66020000 		.4byte	.LVL192
 4756 0772 7E020000 		.4byte	.LVL193
 4757 0776 0200     		.2byte	0x2
 4758 0778 30       		.byte	0x30
 4759 0779 9F       		.byte	0x9f
 4760 077a 7E020000 		.4byte	.LVL193
 4761 077e 80020000 		.4byte	.LVL194
 4762 0782 0100     		.2byte	0x1
 4763 0784 50       		.byte	0x50
 4764 0785 80020000 		.4byte	.LVL194
 4765 0789 9A020000 		.4byte	.LVL195
 4766 078d 0200     		.2byte	0x2
 4767 078f 30       		.byte	0x30
 4768 0790 9F       		.byte	0x9f
 4769 0791 9A020000 		.4byte	.LVL195
 4770 0795 9C020000 		.4byte	.LVL196
 4771 0799 0100     		.2byte	0x1
 4772 079b 50       		.byte	0x50
 4773 079c 9C020000 		.4byte	.LVL196
 4774 07a0 D6020000 		.4byte	.LVL205
 4775 07a4 0200     		.2byte	0x2
 4776 07a6 30       		.byte	0x30
 4777 07a7 9F       		.byte	0x9f
 4778 07a8 D6020000 		.4byte	.LVL205
 4779 07ac 1C030000 		.4byte	.LFE1
 4780 07b0 0100     		.2byte	0x1
 4781 07b2 50       		.byte	0x50
 4782 07b3 00000000 		.4byte	0
 4783 07b7 00000000 		.4byte	0
 4784              	.LLST37:
 4785 07bb CE010000 		.4byte	.LVL179
 4786 07bf EF010000 		.4byte	.LVL180-1
 4787 07c3 0100     		.2byte	0x1
 4788 07c5 51       		.byte	0x51
 4789 07c6 00000000 		.4byte	0
 4790 07ca 00000000 		.4byte	0
 4791              	.LLST38:
 4792 07ce 86010000 		.4byte	.LVL171
 4793 07d2 AC010000 		.4byte	.LVL173
 4794 07d6 0100     		.2byte	0x1
 4795 07d8 54       		.byte	0x54
 4796 07d9 B0020000 		.4byte	.LVL202
 4797 07dd B4020000 		.4byte	.LVL204
 4798 07e1 0100     		.2byte	0x1
 4799 07e3 54       		.byte	0x54
 4800 07e4 00000000 		.4byte	0
 4801 07e8 00000000 		.4byte	0
 4802              	.LLST39:
ARM GAS  C:\Users\TERENC~1\AppData\Local\Temp\ccz498Tm.s 			page 111


 4803 07ec 06000000 		.4byte	.LVL133
 4804 07f0 32000000 		.4byte	.LVL134
 4805 07f4 0100     		.2byte	0x1
 4806 07f6 53       		.byte	0x53
 4807 07f7 E8000000 		.4byte	.LVL155
 4808 07fb EC000000 		.4byte	.LVL156
 4809 07ff 0100     		.2byte	0x1
 4810 0801 53       		.byte	0x53
 4811 0802 3A010000 		.4byte	.LVL160
 4812 0806 3C010000 		.4byte	.LVL161
 4813 080a 0100     		.2byte	0x1
 4814 080c 53       		.byte	0x53
 4815 080d 4A010000 		.4byte	.LVL163
 4816 0811 4E010000 		.4byte	.LVL164
 4817 0815 0100     		.2byte	0x1
 4818 0817 53       		.byte	0x53
 4819 0818 60010000 		.4byte	.LVL166
 4820 081c 74010000 		.4byte	.LVL167
 4821 0820 0100     		.2byte	0x1
 4822 0822 53       		.byte	0x53
 4823 0823 82010000 		.4byte	.LVL169
 4824 0827 84010000 		.4byte	.LVL170
 4825 082b 0100     		.2byte	0x1
 4826 082d 53       		.byte	0x53
 4827 082e C2010000 		.4byte	.LVL177
 4828 0832 C5010000 		.4byte	.LVL178-1
 4829 0836 0100     		.2byte	0x1
 4830 0838 53       		.byte	0x53
 4831 0839 F6010000 		.4byte	.LVL182
 4832 083d FA010000 		.4byte	.LVL183
 4833 0841 0100     		.2byte	0x1
 4834 0843 53       		.byte	0x53
 4835 0844 48020000 		.4byte	.LVL189
 4836 0848 4C020000 		.4byte	.LVL190
 4837 084c 0100     		.2byte	0x1
 4838 084e 53       		.byte	0x53
 4839 084f 9C020000 		.4byte	.LVL196
 4840 0853 A0020000 		.4byte	.LVL197
 4841 0857 0100     		.2byte	0x1
 4842 0859 53       		.byte	0x53
 4843 085a AC020000 		.4byte	.LVL201
 4844 085e B0020000 		.4byte	.LVL202
 4845 0862 0100     		.2byte	0x1
 4846 0864 53       		.byte	0x53
 4847 0865 00000000 		.4byte	0
 4848 0869 00000000 		.4byte	0
 4849              	.LLST40:
 4850 086d 06000000 		.4byte	.LVL133
 4851 0871 88000000 		.4byte	.LVL141
 4852 0875 0200     		.2byte	0x2
 4853 0877 30       		.byte	0x30
 4854 0878 9F       		.byte	0x9f
 4855 0879 88000000 		.4byte	.LVL141
 4856 087d 92000000 		.4byte	.LVL146
 4857 0881 0100     		.2byte	0x1
 4858 0883 52       		.byte	0x52
 4859 0884 92000000 		.4byte	.LVL146
ARM GAS  C:\Users\TERENC~1\AppData\Local\Temp\ccz498Tm.s 			page 112


 4860 0888 96000000 		.4byte	.LVL147
 4861 088c 0200     		.2byte	0x2
 4862 088e 30       		.byte	0x30
 4863 088f 9F       		.byte	0x9f
 4864 0890 96000000 		.4byte	.LVL147
 4865 0894 C9000000 		.4byte	.LVL150-1
 4866 0898 0100     		.2byte	0x1
 4867 089a 52       		.byte	0x52
 4868 089b CC000000 		.4byte	.LVL151
 4869 089f DF000000 		.4byte	.LVL152-1
 4870 08a3 0100     		.2byte	0x1
 4871 08a5 52       		.byte	0x52
 4872 08a6 E2000000 		.4byte	.LVL153
 4873 08aa A4020000 		.4byte	.LVL199
 4874 08ae 0200     		.2byte	0x2
 4875 08b0 30       		.byte	0x30
 4876 08b1 9F       		.byte	0x9f
 4877 08b2 A4020000 		.4byte	.LVL199
 4878 08b6 A8020000 		.4byte	.LVL200
 4879 08ba 0100     		.2byte	0x1
 4880 08bc 52       		.byte	0x52
 4881 08bd A8020000 		.4byte	.LVL200
 4882 08c1 D6020000 		.4byte	.LVL205
 4883 08c5 0200     		.2byte	0x2
 4884 08c7 30       		.byte	0x30
 4885 08c8 9F       		.byte	0x9f
 4886 08c9 00000000 		.4byte	0
 4887 08cd 00000000 		.4byte	0
 4888              	.LLST41:
 4889 08d1 88000000 		.4byte	.LVL141
 4890 08d5 8E000000 		.4byte	.LVL144
 4891 08d9 0100     		.2byte	0x1
 4892 08db 53       		.byte	0x53
 4893 08dc 90000000 		.4byte	.LVL145
 4894 08e0 92000000 		.4byte	.LVL146
 4895 08e4 0100     		.2byte	0x1
 4896 08e6 53       		.byte	0x53
 4897 08e7 96000000 		.4byte	.LVL147
 4898 08eb A6000000 		.4byte	.LVL148
 4899 08ef 0100     		.2byte	0x1
 4900 08f1 53       		.byte	0x53
 4901 08f2 00000000 		.4byte	0
 4902 08f6 00000000 		.4byte	0
 4903              	.LLST42:
 4904 08fa 8A000000 		.4byte	.LVL142
 4905 08fe 92000000 		.4byte	.LVL146
 4906 0902 0100     		.2byte	0x1
 4907 0904 51       		.byte	0x51
 4908 0905 00000000 		.4byte	0
 4909 0909 00000000 		.4byte	0
 4910              	.LLST43:
 4911 090d 3C000000 		.4byte	.LVL135
 4912 0911 49000000 		.4byte	.LVL136-1
 4913 0915 0100     		.2byte	0x1
 4914 0917 50       		.byte	0x50
 4915 0918 5E000000 		.4byte	.LVL138
 4916 091c 7B000000 		.4byte	.LVL139-1
ARM GAS  C:\Users\TERENC~1\AppData\Local\Temp\ccz498Tm.s 			page 113


 4917 0920 0100     		.2byte	0x1
 4918 0922 50       		.byte	0x50
 4919 0923 92010000 		.4byte	.LVL172
 4920 0927 B8010000 		.4byte	.LVL174
 4921 092b 0100     		.2byte	0x1
 4922 092d 50       		.byte	0x50
 4923 092e A0020000 		.4byte	.LVL197
 4924 0932 A2020000 		.4byte	.LVL198
 4925 0936 0100     		.2byte	0x1
 4926 0938 50       		.byte	0x50
 4927 0939 B0020000 		.4byte	.LVL202
 4928 093d B2020000 		.4byte	.LVL203
 4929 0941 0100     		.2byte	0x1
 4930 0943 50       		.byte	0x50
 4931 0944 00000000 		.4byte	0
 4932 0948 00000000 		.4byte	0
 4933              		.section	.debug_aranges,"",%progbits
 4934 0000 7C000000 		.4byte	0x7c
 4935 0004 0200     		.2byte	0x2
 4936 0006 00000000 		.4byte	.Ldebug_info0
 4937 000a 04       		.byte	0x4
 4938 000b 00       		.byte	0
 4939 000c 0000     		.2byte	0
 4940 000e 0000     		.2byte	0
 4941 0010 00000000 		.4byte	.LFB2
 4942 0014 64000000 		.4byte	.LFE2-.LFB2
 4943 0018 00000000 		.4byte	.LFB3
 4944 001c 98000000 		.4byte	.LFE3-.LFB3
 4945 0020 00000000 		.4byte	.LFB4
 4946 0024 44000000 		.4byte	.LFE4-.LFB4
 4947 0028 00000000 		.4byte	.LFB7
 4948 002c 28000000 		.4byte	.LFE7-.LFB7
 4949 0030 00000000 		.4byte	.LFB6
 4950 0034 20010000 		.4byte	.LFE6-.LFB6
 4951 0038 00000000 		.4byte	.LFB8
 4952 003c 18000000 		.4byte	.LFE8-.LFB8
 4953 0040 00000000 		.4byte	.LFB9
 4954 0044 28000000 		.4byte	.LFE9-.LFB9
 4955 0048 00000000 		.4byte	.LFB5
 4956 004c F4010000 		.4byte	.LFE5-.LFB5
 4957 0050 00000000 		.4byte	.LFB10
 4958 0054 54000000 		.4byte	.LFE10-.LFB10
 4959 0058 00000000 		.4byte	.LFB11
 4960 005c 6C000000 		.4byte	.LFE11-.LFB11
 4961 0060 00000000 		.4byte	.LFB12
 4962 0064 AC000000 		.4byte	.LFE12-.LFB12
 4963 0068 00000000 		.4byte	.LFB13
 4964 006c 50000000 		.4byte	.LFE13-.LFB13
 4965 0070 00000000 		.4byte	.LFB1
 4966 0074 1C030000 		.4byte	.LFE1-.LFB1
 4967 0078 00000000 		.4byte	0
 4968 007c 00000000 		.4byte	0
 4969              		.section	.debug_ranges,"",%progbits
 4970              	.Ldebug_ranges0:
 4971 0000 00000000 		.4byte	.LFB2
 4972 0004 64000000 		.4byte	.LFE2
 4973 0008 00000000 		.4byte	.LFB3
ARM GAS  C:\Users\TERENC~1\AppData\Local\Temp\ccz498Tm.s 			page 114


 4974 000c 98000000 		.4byte	.LFE3
 4975 0010 00000000 		.4byte	.LFB4
 4976 0014 44000000 		.4byte	.LFE4
 4977 0018 00000000 		.4byte	.LFB7
 4978 001c 28000000 		.4byte	.LFE7
 4979 0020 00000000 		.4byte	.LFB6
 4980 0024 20010000 		.4byte	.LFE6
 4981 0028 00000000 		.4byte	.LFB8
 4982 002c 18000000 		.4byte	.LFE8
 4983 0030 00000000 		.4byte	.LFB9
 4984 0034 28000000 		.4byte	.LFE9
 4985 0038 00000000 		.4byte	.LFB5
 4986 003c F4010000 		.4byte	.LFE5
 4987 0040 00000000 		.4byte	.LFB10
 4988 0044 54000000 		.4byte	.LFE10
 4989 0048 00000000 		.4byte	.LFB11
 4990 004c 6C000000 		.4byte	.LFE11
 4991 0050 00000000 		.4byte	.LFB12
 4992 0054 AC000000 		.4byte	.LFE12
 4993 0058 00000000 		.4byte	.LFB13
 4994 005c 50000000 		.4byte	.LFE13
 4995 0060 00000000 		.4byte	.LFB1
 4996 0064 1C030000 		.4byte	.LFE1
 4997 0068 00000000 		.4byte	0
 4998 006c 00000000 		.4byte	0
 4999              		.section	.debug_line,"",%progbits
 5000              	.Ldebug_line0:
 5001 0000 D4030000 		.section	.debug_str,"MS",%progbits,1
 5001      02007100 
 5001      00000201 
 5001      FB0E0D00 
 5001      01010101 
 5002              	.LASF38:
 5003 0000 70537461 		.ascii	"pStatusBlock\000"
 5003      74757342 
 5003      6C6F636B 
 5003      00
 5004              	.LASF36:
 5005 000d 636F756E 		.ascii	"count\000"
 5005      7400
 5006              	.LASF10:
 5007 0013 75696E74 		.ascii	"uint16\000"
 5007      313600
 5008              	.LASF104:
 5009 001a 55534255 		.ascii	"USBUART_device\000"
 5009      4152545F 
 5009      64657669 
 5009      636500
 5010              	.LASF103:
 5011 0029 55534255 		.ascii	"USBUART_tBuffer\000"
 5011      4152545F 
 5011      74427566 
 5011      66657200 
 5012              	.LASF126:
 5013 0039 474E5520 		.ascii	"GNU C11 5.4.1 20160609 (release) [ARM/embedded-5-br"
 5013      43313120 
 5013      352E342E 
ARM GAS  C:\Users\TERENC~1\AppData\Local\Temp\ccz498Tm.s 			page 115


 5013      31203230 
 5013      31363036 
 5014 006c 616E6368 		.ascii	"anch revision 237715] -mcpu=cortex-m0 -mthumb -g -O"
 5014      20726576 
 5014      6973696F 
 5014      6E203233 
 5014      37373135 
 5015 009f 67202D66 		.ascii	"g -ffunction-sections -ffat-lto-objects\000"
 5015      66756E63 
 5015      74696F6E 
 5015      2D736563 
 5015      74696F6E 
 5016              	.LASF74:
 5017 00c7 636F6E66 		.ascii	"confIndex\000"
 5017      496E6465 
 5017      7800
 5018              	.LASF7:
 5019 00d1 6C6F6E67 		.ascii	"long long unsigned int\000"
 5019      206C6F6E 
 5019      6720756E 
 5019      7369676E 
 5019      65642069 
 5020              	.LASF127:
 5021 00e8 47656E65 		.ascii	"Generated_Source\\PSoC4\\USBUART_std.c\000"
 5021      72617465 
 5021      645F536F 
 5021      75726365 
 5021      5C50536F 
 5022              	.LASF23:
 5023 010d 61646472 		.ascii	"addr\000"
 5023      00
 5024              	.LASF58:
 5025 0112 72775761 		.ascii	"rwWa16\000"
 5025      313600
 5026              	.LASF48:
 5027 0119 65704366 		.ascii	"epCfg\000"
 5027      6700
 5028              	.LASF62:
 5029 011f 72774472 		.ascii	"rwDr16\000"
 5029      313600
 5030              	.LASF35:
 5031 0126 545F5553 		.ascii	"T_USBUART_XFER_STATUS_BLOCK\000"
 5031      42554152 
 5031      545F5846 
 5031      45525F53 
 5031      54415455 
 5032              	.LASF123:
 5033 0142 55534255 		.ascii	"USBUART_InitNoDataControlTransfer\000"
 5033      4152545F 
 5033      496E6974 
 5033      4E6F4461 
 5033      7461436F 
 5034              	.LASF107:
 5035 0164 55534255 		.ascii	"USBUART_deviceStatus\000"
 5035      4152545F 
 5035      64657669 
 5035      63655374 
ARM GAS  C:\Users\TERENC~1\AppData\Local\Temp\ccz498Tm.s 			page 116


 5035      61747573 
 5036              	.LASF6:
 5037 0179 6C6F6E67 		.ascii	"long long int\000"
 5037      206C6F6E 
 5037      6720696E 
 5037      7400
 5038              	.LASF0:
 5039 0187 7369676E 		.ascii	"signed char\000"
 5039      65642063 
 5039      68617200 
 5040              	.LASF109:
 5041 0193 55534255 		.ascii	"USBUART_TABLE\000"
 5041      4152545F 
 5041      5441424C 
 5041      4500
 5042              	.LASF85:
 5043 01a1 636C6561 		.ascii	"clearAltSetting\000"
 5043      72416C74 
 5043      53657474 
 5043      696E6700 
 5044              	.LASF124:
 5045 01b1 55534255 		.ascii	"USBUART_InitControlRead\000"
 5045      4152545F 
 5045      496E6974 
 5045      436F6E74 
 5045      726F6C52 
 5046              	.LASF84:
 5047 01c9 55534255 		.ascii	"USBUART_Config\000"
 5047      4152545F 
 5047      436F6E66 
 5047      696700
 5048              	.LASF119:
 5049 01d8 55534255 		.ascii	"USBUART_EP\000"
 5049      4152545F 
 5049      455000
 5050              	.LASF72:
 5051 01e3 55534255 		.ascii	"USBUART_EpStateInit\000"
 5051      4152545F 
 5051      45705374 
 5051      61746549 
 5051      6E697400 
 5052              	.LASF115:
 5053 01f7 55534255 		.ascii	"USBUART_interfaceSettingLast\000"
 5053      4152545F 
 5053      696E7465 
 5053      72666163 
 5053      65536574 
 5054              	.LASF65:
 5055 0214 55534255 		.ascii	"USBUART_sie_eps_struct\000"
 5055      4152545F 
 5055      7369655F 
 5055      6570735F 
 5055      73747275 
 5056              	.LASF111:
 5057 022b 55534255 		.ascii	"USBUART_MSOS_DESCRIPTOR\000"
 5057      4152545F 
 5057      4D534F53 
ARM GAS  C:\Users\TERENC~1\AppData\Local\Temp\ccz498Tm.s 			page 117


 5057      5F444553 
 5057      43524950 
 5058              	.LASF43:
 5059 0243 55534255 		.ascii	"USBUART_ep0_data_struct\000"
 5059      4152545F 
 5059      6570305F 
 5059      64617461 
 5059      5F737472 
 5060              	.LASF4:
 5061 025b 6C6F6E67 		.ascii	"long int\000"
 5061      20696E74 
 5061      00
 5062              	.LASF88:
 5063 0264 63646343 		.ascii	"cdcComNums\000"
 5063      6F6D4E75 
 5063      6D7300
 5064              	.LASF108:
 5065 026f 55534255 		.ascii	"USBUART_DEVICE0_DESCR\000"
 5065      4152545F 
 5065      44455649 
 5065      4345305F 
 5065      44455343 
 5066              	.LASF70:
 5067 0285 55534255 		.ascii	"USBUART_ReadDieID\000"
 5067      4152545F 
 5067      52656164 
 5067      44696549 
 5067      4400
 5068              	.LASF9:
 5069 0297 75696E74 		.ascii	"uint8\000"
 5069      3800
 5070              	.LASF22:
 5071 029d 6570546F 		.ascii	"epToggle\000"
 5071      67676C65 
 5071      00
 5072              	.LASF52:
 5073 02a6 72775761 		.ascii	"rwWa\000"
 5073      00
 5074              	.LASF112:
 5075 02ab 55534255 		.ascii	"USBUART_idSerialNumberStringDescriptor\000"
 5075      4152545F 
 5075      69645365 
 5075      7269616C 
 5075      4E756D62 
 5076              	.LASF13:
 5077 02d2 646F7562 		.ascii	"double\000"
 5077      6C6500
 5078              	.LASF90:
 5079 02d9 65704E75 		.ascii	"epNumber\000"
 5079      6D626572 
 5079      00
 5080              	.LASF50:
 5081 02e2 65705372 		.ascii	"epSr\000"
 5081      00
 5082              	.LASF113:
 5083 02e7 55534255 		.ascii	"USBUART_interfaceNumber\000"
 5083      4152545F 
ARM GAS  C:\Users\TERENC~1\AppData\Local\Temp\ccz498Tm.s 			page 118


 5083      696E7465 
 5083      72666163 
 5083      654E756D 
 5084              	.LASF11:
 5085 02ff 75696E74 		.ascii	"uint32\000"
 5085      333200
 5086              	.LASF80:
 5087 0306 55534255 		.ascii	"USBUART_GetConfigTablePtr\000"
 5087      4152545F 
 5087      47657443 
 5087      6F6E6669 
 5087      67546162 
 5088              	.LASF37:
 5089 0320 70446174 		.ascii	"pData\000"
 5089      6100
 5090              	.LASF64:
 5091 0326 73696545 		.ascii	"sieEp\000"
 5091      7000
 5092              	.LASF24:
 5093 032c 65704D6F 		.ascii	"epMode\000"
 5093      646500
 5094              	.LASF78:
 5095 0333 65705479 		.ascii	"epType\000"
 5095      706500
 5096              	.LASF99:
 5097 033a 626D5265 		.ascii	"bmRequestType\000"
 5097      71756573 
 5097      74547970 
 5097      6500
 5098              	.LASF51:
 5099 0348 72657365 		.ascii	"reserved\000"
 5099      72766564 
 5099      00
 5100              	.LASF94:
 5101 0351 55534255 		.ascii	"USBUART_ValidateAlternateSetting\000"
 5101      4152545F 
 5101      56616C69 
 5101      64617465 
 5101      416C7465 
 5102              	.LASF121:
 5103 0372 43794765 		.ascii	"CyGetUniqueId\000"
 5103      74556E69 
 5103      71756549 
 5103      6400
 5104              	.LASF63:
 5105 0380 55534255 		.ascii	"USBUART_arb_ep_reg16_struct\000"
 5105      4152545F 
 5105      6172625F 
 5105      65705F72 
 5105      65673136 
 5106              	.LASF8:
 5107 039c 756E7369 		.ascii	"unsigned int\000"
 5107      676E6564 
 5107      20696E74 
 5107      00
 5108              	.LASF81:
 5109 03a9 55534255 		.ascii	"USBUART_GetInterfaceClassTablePtr\000"
ARM GAS  C:\Users\TERENC~1\AppData\Local\Temp\ccz498Tm.s 			page 119


 5109      4152545F 
 5109      47657449 
 5109      6E746572 
 5109      66616365 
 5110              	.LASF5:
 5111 03cb 6C6F6E67 		.ascii	"long unsigned int\000"
 5111      20756E73 
 5111      69676E65 
 5111      6420696E 
 5111      7400
 5112              	.LASF128:
 5113 03dd 433A5C64 		.ascii	"C:\\dev\\git\\icebreaker\\Icebreaker.cydsn\000"
 5113      65765C67 
 5113      69745C69 
 5113      63656272 
 5113      65616B65 
 5114              	.LASF96:
 5115 0404 55534255 		.ascii	"USBUART_HandleStandardRqst\000"
 5115      4152545F 
 5115      48616E64 
 5115      6C655374 
 5115      616E6461 
 5116              	.LASF129:
 5117 041f 55534255 		.ascii	"USBUART_GetDeviceTablePtr\000"
 5117      4152545F 
 5117      47657444 
 5117      65766963 
 5117      65546162 
 5118              	.LASF3:
 5119 0439 73686F72 		.ascii	"short unsigned int\000"
 5119      7420756E 
 5119      7369676E 
 5119      65642069 
 5119      6E7400
 5120              	.LASF122:
 5121 044c 55534255 		.ascii	"USBUART_Cdc_EpInit\000"
 5121      4152545F 
 5121      4364635F 
 5121      4570496E 
 5121      697400
 5122              	.LASF86:
 5123 045f 70446573 		.ascii	"pDescr\000"
 5123      637200
 5124              	.LASF82:
 5125 0466 70496E74 		.ascii	"pInterfaceClass\000"
 5125      65726661 
 5125      6365436C 
 5125      61737300 
 5126              	.LASF66:
 5127 0476 61726245 		.ascii	"arbEp\000"
 5127      7000
 5128              	.LASF27:
 5129 047c 696E7465 		.ascii	"interface\000"
 5129      72666163 
 5129      6500
 5130              	.LASF71:
 5131 0486 55534255 		.ascii	"USBUART_ConfigReg\000"
ARM GAS  C:\Users\TERENC~1\AppData\Local\Temp\ccz498Tm.s 			page 120


 5131      4152545F 
 5131      436F6E66 
 5131      69675265 
 5131      6700
 5132              	.LASF16:
 5133 0498 72656733 		.ascii	"reg32\000"
 5133      3200
 5134              	.LASF41:
 5135 049e 545F5553 		.ascii	"T_USBUART_LUT\000"
 5135      42554152 
 5135      545F4C55 
 5135      5400
 5136              	.LASF116:
 5137 04ac 55534255 		.ascii	"USBUART_deviceAddress\000"
 5137      4152545F 
 5137      64657669 
 5137      63654164 
 5137      64726573 
 5138              	.LASF77:
 5139 04c2 63757245 		.ascii	"curEp\000"
 5139      7000
 5140              	.LASF57:
 5141 04c8 55534255 		.ascii	"USBUART_arb_ep_struct\000"
 5141      4152545F 
 5141      6172625F 
 5141      65705F73 
 5141      74727563 
 5142              	.LASF21:
 5143 04de 68774570 		.ascii	"hwEpState\000"
 5143      53746174 
 5143      6500
 5144              	.LASF67:
 5145 04e8 55534255 		.ascii	"USBUART_arb_eps_struct\000"
 5145      4152545F 
 5145      6172625F 
 5145      6570735F 
 5145      73747275 
 5146              	.LASF18:
 5147 04ff 73697A65 		.ascii	"sizetype\000"
 5147      74797065 
 5147      00
 5148              	.LASF17:
 5149 0508 6C6F6E67 		.ascii	"long double\000"
 5149      20646F75 
 5149      626C6500 
 5150              	.LASF76:
 5151 0514 55534255 		.ascii	"USBUART_ConfigAltChanged\000"
 5151      4152545F 
 5151      436F6E66 
 5151      6967416C 
 5151      74436861 
 5152              	.LASF75:
 5153 052d 70546D70 		.ascii	"pTmp\000"
 5153      00
 5154              	.LASF40:
 5155 0532 705F6C69 		.ascii	"p_list\000"
 5155      737400
ARM GAS  C:\Users\TERENC~1\AppData\Local\Temp\ccz498Tm.s 			page 121


 5156              	.LASF87:
 5157 0539 62756666 		.ascii	"buffCount\000"
 5157      436F756E 
 5157      7400
 5158              	.LASF19:
 5159 0543 61747472 		.ascii	"attrib\000"
 5159      696200
 5160              	.LASF118:
 5161 054a 55534255 		.ascii	"USBUART_interfaceClass\000"
 5161      4152545F 
 5161      696E7465 
 5161      72666163 
 5161      65436C61 
 5162              	.LASF120:
 5163 0561 55534255 		.ascii	"USBUART_currentTD\000"
 5163      4152545F 
 5163      63757272 
 5163      656E7454 
 5163      4400
 5164              	.LASF125:
 5165 0573 55534255 		.ascii	"USBUART_DispatchClassRqst\000"
 5165      4152545F 
 5165      44697370 
 5165      61746368 
 5165      436C6173 
 5166              	.LASF55:
 5167 058d 72775261 		.ascii	"rwRaMsb\000"
 5167      4D736200 
 5168              	.LASF44:
 5169 0595 6570436E 		.ascii	"epCnt0\000"
 5169      743000
 5170              	.LASF45:
 5171 059c 6570436E 		.ascii	"epCnt1\000"
 5171      743100
 5172              	.LASF110:
 5173 05a3 55534255 		.ascii	"USBUART_STRING_DESCRIPTORS\000"
 5173      4152545F 
 5173      53545249 
 5173      4E475F44 
 5173      45534352 
 5174              	.LASF46:
 5175 05be 65704372 		.ascii	"epCr0\000"
 5175      3000
 5176              	.LASF79:
 5177 05c4 696E7465 		.ascii	"interfaceNum\000"
 5177      72666163 
 5177      654E756D 
 5177      00
 5178              	.LASF12:
 5179 05d1 666C6F61 		.ascii	"float\000"
 5179      7400
 5180              	.LASF20:
 5181 05d7 61706945 		.ascii	"apiEpState\000"
 5181      70537461 
 5181      746500
 5182              	.LASF89:
 5183 05e2 55534255 		.ascii	"USBUART_TerminateEP\000"
ARM GAS  C:\Users\TERENC~1\AppData\Local\Temp\ccz498Tm.s 			page 122


 5183      4152545F 
 5183      5465726D 
 5183      696E6174 
 5183      65455000 
 5184              	.LASF98:
 5185 05f6 636F6E66 		.ascii	"configurationN\000"
 5185      69677572 
 5185      6174696F 
 5185      6E4E00
 5186              	.LASF100:
 5187 0605 70537472 		.ascii	"pStr\000"
 5187      00
 5188              	.LASF114:
 5189 060a 55534255 		.ascii	"USBUART_interfaceSetting\000"
 5189      4152545F 
 5189      696E7465 
 5189      72666163 
 5189      65536574 
 5190              	.LASF73:
 5191 0623 64657363 		.ascii	"descr\000"
 5191      7200
 5192              	.LASF1:
 5193 0629 756E7369 		.ascii	"unsigned char\000"
 5193      676E6564 
 5193      20636861 
 5193      7200
 5194              	.LASF60:
 5195 0637 72775261 		.ascii	"rwRa16\000"
 5195      313600
 5196              	.LASF2:
 5197 063e 73686F72 		.ascii	"short int\000"
 5197      7420696E 
 5197      7400
 5198              	.LASF54:
 5199 0648 72775261 		.ascii	"rwRa\000"
 5199      00
 5200              	.LASF53:
 5201 064d 72775761 		.ascii	"rwWaMsb\000"
 5201      4D736200 
 5202              	.LASF39:
 5203 0655 545F5553 		.ascii	"T_USBUART_TD\000"
 5203      42554152 
 5203      545F5444 
 5203      00
 5204              	.LASF117:
 5205 0662 55534255 		.ascii	"USBUART_interfaceStatus\000"
 5205      4152545F 
 5205      696E7465 
 5205      72666163 
 5205      65537461 
 5206              	.LASF47:
 5207 067a 55534255 		.ascii	"USBUART_sie_ep_struct\000"
 5207      4152545F 
 5207      7369655F 
 5207      65705F73 
 5207      74727563 
 5208              	.LASF30:
ARM GAS  C:\Users\TERENC~1\AppData\Local\Temp\ccz498Tm.s 			page 123


 5209 0690 61747472 		.ascii	"attributes\000"
 5209      69627574 
 5209      657300
 5210              	.LASF93:
 5211 069b 55534255 		.ascii	"USBUART_ClearEndpointHalt\000"
 5211      4152545F 
 5211      436C6561 
 5211      72456E64 
 5211      706F696E 
 5212              	.LASF29:
 5213 06b5 616C7453 		.ascii	"altSetting\000"
 5213      65747469 
 5213      6E6700
 5214              	.LASF15:
 5215 06c0 63686172 		.ascii	"char\000"
 5215      00
 5216              	.LASF26:
 5217 06c5 62756666 		.ascii	"bufferSize\000"
 5217      65725369 
 5217      7A6500
 5218              	.LASF68:
 5219 06d0 55534255 		.ascii	"USBUART_arb_eps_reg16_struct\000"
 5219      4152545F 
 5219      6172625F 
 5219      6570735F 
 5219      72656731 
 5220              	.LASF92:
 5221 06ed 72657175 		.ascii	"requestHandled\000"
 5221      65737448 
 5221      616E646C 
 5221      656400
 5222              	.LASF83:
 5223 06fc 63757272 		.ascii	"currentInterfacesNum\000"
 5223      656E7449 
 5223      6E746572 
 5223      66616365 
 5223      734E756D 
 5224              	.LASF28:
 5225 0711 545F5553 		.ascii	"T_USBUART_EP_CTL_BLOCK\000"
 5225      42554152 
 5225      545F4550 
 5225      5F43544C 
 5225      5F424C4F 
 5226              	.LASF25:
 5227 0728 62756666 		.ascii	"buffOffset\000"
 5227      4F666673 
 5227      657400
 5228              	.LASF14:
 5229 0733 63686172 		.ascii	"char8\000"
 5229      3800
 5230              	.LASF32:
 5231 0739 545F5553 		.ascii	"T_USBUART_EP_SETTINGS_BLOCK\000"
 5231      42554152 
 5231      545F4550 
 5231      5F534554 
 5231      54494E47 
 5232              	.LASF69:
ARM GAS  C:\Users\TERENC~1\AppData\Local\Temp\ccz498Tm.s 			page 124


 5233 0755 756E6971 		.ascii	"uniqueId\000"
 5233      75654964 
 5233      00
 5234              	.LASF97:
 5235 075e 696E7465 		.ascii	"interfaceNumber\000"
 5235      72666163 
 5235      654E756D 
 5235      62657200 
 5236              	.LASF34:
 5237 076e 6C656E67 		.ascii	"length\000"
 5237      746800
 5238              	.LASF101:
 5239 0775 6E537472 		.ascii	"nStr\000"
 5239      00
 5240              	.LASF102:
 5241 077a 64657363 		.ascii	"descrLength\000"
 5241      724C656E 
 5241      67746800 
 5242              	.LASF33:
 5243 0786 73746174 		.ascii	"status\000"
 5243      757300
 5244              	.LASF56:
 5245 078d 72774472 		.ascii	"rwDr\000"
 5245      00
 5246              	.LASF95:
 5247 0792 63757249 		.ascii	"curInterfacesNum\000"
 5247      6E746572 
 5247      66616365 
 5247      734E756D 
 5247      00
 5248              	.LASF105:
 5249 07a3 55534255 		.ascii	"USBUART_configuration\000"
 5249      4152545F 
 5249      636F6E66 
 5249      69677572 
 5249      6174696F 
 5250              	.LASF42:
 5251 07b9 65704461 		.ascii	"epData\000"
 5251      746100
 5252              	.LASF31:
 5253 07c0 624D6973 		.ascii	"bMisc\000"
 5253      6300
 5254              	.LASF91:
 5255 07c6 55534255 		.ascii	"USBUART_SetEndpointHalt\000"
 5255      4152545F 
 5255      53657445 
 5255      6E64706F 
 5255      696E7448 
 5256              	.LASF49:
 5257 07de 6570496E 		.ascii	"epIntEn\000"
 5257      74456E00 
 5258              	.LASF59:
 5259 07e6 72657365 		.ascii	"reserved0\000"
 5259      72766564 
 5259      3000
 5260              	.LASF61:
 5261 07f0 72657365 		.ascii	"reserved1\000"
ARM GAS  C:\Users\TERENC~1\AppData\Local\Temp\ccz498Tm.s 			page 125


 5261      72766564 
 5261      3100
 5262              	.LASF106:
 5263 07fa 55534255 		.ascii	"USBUART_configurationChanged\000"
 5263      4152545F 
 5263      636F6E66 
 5263      69677572 
 5263      6174696F 
 5264              		.ident	"GCC: (GNU Tools for ARM Embedded Processors) 5.4.1 20160609 (release) [ARM/embedded-5-bran
