ARM GAS  C:\Users\TERENC~1\AppData\Local\Temp\ccK5a9K6.s 			page 1


   1              		.syntax unified
   2              		.cpu cortex-m0
   3              		.fpu softvfp
   4              		.eabi_attribute 20, 1
   5              		.eabi_attribute 21, 1
   6              		.eabi_attribute 23, 3
   7              		.eabi_attribute 24, 1
   8              		.eabi_attribute 25, 1
   9              		.eabi_attribute 26, 1
  10              		.eabi_attribute 30, 1
  11              		.eabi_attribute 34, 0
  12              		.eabi_attribute 18, 4
  13              		.thumb
  14              		.syntax unified
  15              		.file	"VolumeControl.c"
  16              		.text
  17              	.Ltext0:
  18              		.cfi_sections	.debug_frame
  19              		.section	.text.DmaIntHandler,"ax",%progbits
  20              		.align	2
  21              		.global	DmaIntHandler
  22              		.code	16
  23              		.thumb_func
  24              		.type	DmaIntHandler, %function
  25              	DmaIntHandler:
  26              	.LFB34:
  27              		.file 1 "VolumeControl.c"
   1:VolumeControl.c **** /* ========================================
   2:VolumeControl.c ****  *
   3:VolumeControl.c ****  * Copyright YOUR COMPANY, THE YEAR
   4:VolumeControl.c ****  * All Rights Reserved
   5:VolumeControl.c ****  * UNPUBLISHED, LICENSED SOFTWARE.
   6:VolumeControl.c ****  *
   7:VolumeControl.c ****  * CONFIDENTIAL AND PROPRIETARY INFORMATION
   8:VolumeControl.c ****  * WHICH IS THE PROPERTY OF your company.
   9:VolumeControl.c ****  *
  10:VolumeControl.c ****  * ========================================
  11:VolumeControl.c **** */
  12:VolumeControl.c **** #include "VolumeControl.h"
  13:VolumeControl.c **** #include <Config.h>
  14:VolumeControl.c **** #include <Application.h>
  15:VolumeControl.c **** #include <ADC.h>
  16:VolumeControl.c **** #include <DMA.h>
  17:VolumeControl.c **** #include <Codec.h>
  18:VolumeControl.c **** #include <USBFS.h>
  19:VolumeControl.c **** #include <pcm1770.h>
  20:VolumeControl.c **** 
  21:VolumeControl.c **** int32 ADC_MIN_READING[vol_ctrl_both] = { -2, -2 };
  22:VolumeControl.c **** int32 ADC_MAX_READING[vol_ctrl_both] = { 2047, 2047 };
  23:VolumeControl.c **** 
  24:VolumeControl.c **** #define ADC_READING_RANGE(side)       (ADC_MAX_READING[side] - ADC_MIN_READING[side])
  25:VolumeControl.c **** 
  26:VolumeControl.c **** /* ADC measurement status and result */
  27:VolumeControl.c **** int16   adcSample[vol_ctrl_both] = { 0, 0 };
  28:VolumeControl.c **** 
  29:VolumeControl.c **** CY_ISR(DmaIntHandler)
  30:VolumeControl.c **** {
ARM GAS  C:\Users\TERENC~1\AppData\Local\Temp\ccK5a9K6.s 			page 2


  28              		.loc 1 30 0
  29              		.cfi_startproc
  30              		@ args = 0, pretend = 0, frame = 0
  31              		@ frame_needed = 0, uses_anonymous_args = 0
  32              		@ link register save eliminated.
  31:VolumeControl.c ****     // Do nothing
  32:VolumeControl.c **** }
  33              		.loc 1 32 0
  34              		@ sp needed
  35 0000 7047     		bx	lr
  36              		.cfi_endproc
  37              	.LFE34:
  38              		.size	DmaIntHandler, .-DmaIntHandler
  39 0002 C046     		.section	.text.VolumeControlInit,"ax",%progbits
  40              		.align	2
  41              		.global	VolumeControlInit
  42              		.code	16
  43              		.thumb_func
  44              		.type	VolumeControlInit, %function
  45              	VolumeControlInit:
  46              	.LFB35:
  33:VolumeControl.c **** 
  34:VolumeControl.c **** void VolumeControlInit(void)
  35:VolumeControl.c **** {
  47              		.loc 1 35 0
  48              		.cfi_startproc
  49              		@ args = 0, pretend = 0, frame = 0
  50              		@ frame_needed = 0, uses_anonymous_args = 0
  51 0000 10B5     		push	{r4, lr}
  52              		.cfi_def_cfa_offset 8
  53              		.cfi_offset 4, -8
  54              		.cfi_offset 14, -4
  36:VolumeControl.c ****     /* Initialize ADC. Conversion is not enabled yet. */
  37:VolumeControl.c ****     ADC_Start();
  55              		.loc 1 37 0
  56 0002 FFF7FEFF 		bl	ADC_Start
  57              	.LVL0:
  38:VolumeControl.c **** 
  39:VolumeControl.c ****     /* Configure DMA source and destination locations to transfer from
  40:VolumeControl.c ****     * ADC data register to memory variable.
  41:VolumeControl.c ****     */
  42:VolumeControl.c ****     DMA_Start((void *)ADC_SAR_CHAN0_RESULT_PTR, (void *)adcSample);
  58              		.loc 1 42 0
  59 0006 0549     		ldr	r1, .L3
  60 0008 0548     		ldr	r0, .L3+4
  61 000a FFF7FEFF 		bl	DMA_Start
  62              	.LVL1:
  63              	.LBB4:
  64              	.LBB5:
  65              		.file 2 "Generated_Source\\PSoC4/DMA.h"
   1:Generated_Source\PSoC4/DMA.h **** /*******************************************************************************
   2:Generated_Source\PSoC4/DMA.h **** * File Name: DMA.h
   3:Generated_Source\PSoC4/DMA.h **** * Version 1.0
   4:Generated_Source\PSoC4/DMA.h **** *
   5:Generated_Source\PSoC4/DMA.h **** * Description:
   6:Generated_Source\PSoC4/DMA.h **** *  This file provides DMA channel defines and API function definitions.
   7:Generated_Source\PSoC4/DMA.h **** *
ARM GAS  C:\Users\TERENC~1\AppData\Local\Temp\ccK5a9K6.s 			page 3


   8:Generated_Source\PSoC4/DMA.h **** ********************************************************************************
   9:Generated_Source\PSoC4/DMA.h **** * Copyright 2015, Cypress Semiconductor Corporation. All rights reserved.
  10:Generated_Source\PSoC4/DMA.h **** * You may use this file only in accordance with the license, terms, conditions,
  11:Generated_Source\PSoC4/DMA.h **** * disclaimers, and limitations in the end user license agreement accompanying
  12:Generated_Source\PSoC4/DMA.h **** * the software package with which this file was provided.
  13:Generated_Source\PSoC4/DMA.h **** *******************************************************************************/
  14:Generated_Source\PSoC4/DMA.h **** 
  15:Generated_Source\PSoC4/DMA.h **** #ifndef CY_DMA_CHANNEL_DMA_H
  16:Generated_Source\PSoC4/DMA.h **** #define CY_DMA_CHANNEL_DMA_H
  17:Generated_Source\PSoC4/DMA.h **** 
  18:Generated_Source\PSoC4/DMA.h **** #include "CyDMA.h"
  19:Generated_Source\PSoC4/DMA.h **** 
  20:Generated_Source\PSoC4/DMA.h ****     
  21:Generated_Source\PSoC4/DMA.h **** /***************************************
  22:Generated_Source\PSoC4/DMA.h **** *   Conditional Compilation Parameters
  23:Generated_Source\PSoC4/DMA.h **** ***************************************/
  24:Generated_Source\PSoC4/DMA.h **** 
  25:Generated_Source\PSoC4/DMA.h **** #define DMA_CHANNEL           (DMA__CHANNEL_NUMBER)
  26:Generated_Source\PSoC4/DMA.h **** #define DMA_CHANNEL_MASK      ((uint32)(1UL << DMA_CHANNEL))
  27:Generated_Source\PSoC4/DMA.h **** 
  28:Generated_Source\PSoC4/DMA.h **** 
  29:Generated_Source\PSoC4/DMA.h **** /***************************************
  30:Generated_Source\PSoC4/DMA.h **** *        Function Prototypes
  31:Generated_Source\PSoC4/DMA.h **** ***************************************/
  32:Generated_Source\PSoC4/DMA.h **** 
  33:Generated_Source\PSoC4/DMA.h **** /* Functions specific to this DMA channel */
  34:Generated_Source\PSoC4/DMA.h **** void DMA_Init(void);
  35:Generated_Source\PSoC4/DMA.h **** void DMA_Start(void * srcAddress, void * dstAddress);
  36:Generated_Source\PSoC4/DMA.h **** 
  37:Generated_Source\PSoC4/DMA.h **** /* Inline functions that call global API functions */
  38:Generated_Source\PSoC4/DMA.h **** static void   DMA_ChEnable(void);
  39:Generated_Source\PSoC4/DMA.h **** static void   DMA_ChDisable(void);
  40:Generated_Source\PSoC4/DMA.h **** static void   DMA_Trigger(void);
  41:Generated_Source\PSoC4/DMA.h **** static void   DMA_SetPriority(int32 priority);
  42:Generated_Source\PSoC4/DMA.h **** static int32  DMA_GetPriority(void);
  43:Generated_Source\PSoC4/DMA.h **** static void   DMA_SetNextDescriptor(int32 descriptor);
  44:Generated_Source\PSoC4/DMA.h **** static int32  DMA_GetNextDescriptor(void);
  45:Generated_Source\PSoC4/DMA.h **** static void   DMA_SetConfiguration(int32 descriptor, const cydma_init_struct * config);
  46:Generated_Source\PSoC4/DMA.h **** static void   DMA_ValidateDescriptor(int32 descriptor);
  47:Generated_Source\PSoC4/DMA.h **** static uint32 DMA_GetDescriptorStatus(int32 descriptor);
  48:Generated_Source\PSoC4/DMA.h **** static void   DMA_SetSrcAddress(int32 descriptor, void * srcAddress);
  49:Generated_Source\PSoC4/DMA.h **** static void * DMA_GetSrcAddress(int32 descriptor);
  50:Generated_Source\PSoC4/DMA.h **** static void   DMA_SetDstAddress(int32 descriptor, void * dstAddress);
  51:Generated_Source\PSoC4/DMA.h **** static void * DMA_GetDstAddress(int32 descriptor);
  52:Generated_Source\PSoC4/DMA.h **** static void   DMA_SetDataElementSize(int32 descriptor, uint32 dataElementSize);
  53:Generated_Source\PSoC4/DMA.h **** static uint32 DMA_GetDataElementSize(int32 descriptor);
  54:Generated_Source\PSoC4/DMA.h **** static void   DMA_SetNumDataElements(int32 descriptor, int32 numDataElements);
  55:Generated_Source\PSoC4/DMA.h **** static int32  DMA_GetNumDataElements(int32 descriptor);
  56:Generated_Source\PSoC4/DMA.h **** static void   DMA_SetSrcDstTransferWidth(int32 descriptor, uint32 transferWidth);
  57:Generated_Source\PSoC4/DMA.h **** static uint32 DMA_GetSrcDstTransferWidth(int32 descriptor);
  58:Generated_Source\PSoC4/DMA.h **** static void   DMA_SetAddressIncrement(int32 descriptor, uint32 addressIncrement);
  59:Generated_Source\PSoC4/DMA.h **** static uint32 DMA_GetAddressIncrement(int32 descriptor);
  60:Generated_Source\PSoC4/DMA.h **** static void   DMA_SetTriggerType(int32 descriptor, uint32 triggerType);
  61:Generated_Source\PSoC4/DMA.h **** static uint32 DMA_GetTriggerType(int32 descriptor);
  62:Generated_Source\PSoC4/DMA.h **** static void   DMA_SetTransferMode(int32 descriptor, uint32 transferMode);
  63:Generated_Source\PSoC4/DMA.h **** static uint32 DMA_GetTransferMode(int32 descriptor);
  64:Generated_Source\PSoC4/DMA.h **** static void   DMA_SetPreemptable(int32 descriptor, uint32 preemptable);
ARM GAS  C:\Users\TERENC~1\AppData\Local\Temp\ccK5a9K6.s 			page 4


  65:Generated_Source\PSoC4/DMA.h **** static uint32 DMA_GetPreemptable(int32 descriptor);
  66:Generated_Source\PSoC4/DMA.h **** static void   DMA_SetPostCompletionActions(int32 descriptor, uint32 actions);
  67:Generated_Source\PSoC4/DMA.h **** static uint32 DMA_GetPostCompletionAction(int32 descriptor);
  68:Generated_Source\PSoC4/DMA.h **** static cydma_callback_t DMA_SetInterruptCallback(cydma_callback_t callback);
  69:Generated_Source\PSoC4/DMA.h **** static cydma_callback_t DMA_GetInterruptCallback(void);
  70:Generated_Source\PSoC4/DMA.h **** 
  71:Generated_Source\PSoC4/DMA.h **** 
  72:Generated_Source\PSoC4/DMA.h **** /*******************************************************************************
  73:Generated_Source\PSoC4/DMA.h **** * Function Name: DMA_ChEnable
  74:Generated_Source\PSoC4/DMA.h **** ********************************************************************************
  75:Generated_Source\PSoC4/DMA.h **** *
  76:Generated_Source\PSoC4/DMA.h **** * Summary:
  77:Generated_Source\PSoC4/DMA.h **** *  Enables the DMA channel. It is not necessary to call DMA_ChEnable()
  78:Generated_Source\PSoC4/DMA.h **** *  because the DMA_Start() API calls this function, which is the
  79:Generated_Source\PSoC4/DMA.h **** *  preferred method to begin the component operation.
  80:Generated_Source\PSoC4/DMA.h **** *
  81:Generated_Source\PSoC4/DMA.h **** * Parameters:
  82:Generated_Source\PSoC4/DMA.h **** *  None.
  83:Generated_Source\PSoC4/DMA.h **** *                   
  84:Generated_Source\PSoC4/DMA.h **** * Return:
  85:Generated_Source\PSoC4/DMA.h **** *  None.
  86:Generated_Source\PSoC4/DMA.h **** *
  87:Generated_Source\PSoC4/DMA.h **** * Side effect:
  88:Generated_Source\PSoC4/DMA.h **** *  If this function is called before DMA_Start(), or DMA_Init()
  89:Generated_Source\PSoC4/DMA.h **** *  or DMA_SetConfiguration(), and DMA_SetSrcAddress()
  90:Generated_Source\PSoC4/DMA.h **** *  and DMA_SetDstAddress the operation of the DMA is 
  91:Generated_Source\PSoC4/DMA.h **** *  undefined and could result in system data corruption. 
  92:Generated_Source\PSoC4/DMA.h **** *
  93:Generated_Source\PSoC4/DMA.h **** *******************************************************************************/
  94:Generated_Source\PSoC4/DMA.h **** static CY_INLINE void DMA_ChEnable(void)
  95:Generated_Source\PSoC4/DMA.h **** {
  96:Generated_Source\PSoC4/DMA.h ****     CyDmaChEnable(DMA_CHANNEL);
  97:Generated_Source\PSoC4/DMA.h **** }
  98:Generated_Source\PSoC4/DMA.h **** 
  99:Generated_Source\PSoC4/DMA.h **** 
 100:Generated_Source\PSoC4/DMA.h **** /*******************************************************************************
 101:Generated_Source\PSoC4/DMA.h **** * Function Name: DMA_ChDisable
 102:Generated_Source\PSoC4/DMA.h **** ********************************************************************************
 103:Generated_Source\PSoC4/DMA.h **** *
 104:Generated_Source\PSoC4/DMA.h **** * Summary:
 105:Generated_Source\PSoC4/DMA.h **** *  Disables the DMA channel.
 106:Generated_Source\PSoC4/DMA.h **** *
 107:Generated_Source\PSoC4/DMA.h **** * Parameters:
 108:Generated_Source\PSoC4/DMA.h **** *  None.
 109:Generated_Source\PSoC4/DMA.h **** *                   
 110:Generated_Source\PSoC4/DMA.h **** * Return:
 111:Generated_Source\PSoC4/DMA.h **** *  None.
 112:Generated_Source\PSoC4/DMA.h **** *
 113:Generated_Source\PSoC4/DMA.h **** * Side effect:
 114:Generated_Source\PSoC4/DMA.h **** *  If this function is called during a DMA transfer the transfer is aborted. 
 115:Generated_Source\PSoC4/DMA.h **** *
 116:Generated_Source\PSoC4/DMA.h **** *******************************************************************************/
 117:Generated_Source\PSoC4/DMA.h **** static CY_INLINE void DMA_ChDisable(void)
 118:Generated_Source\PSoC4/DMA.h **** {
 119:Generated_Source\PSoC4/DMA.h ****     CyDmaChDisable(DMA_CHANNEL);
 120:Generated_Source\PSoC4/DMA.h **** }
 121:Generated_Source\PSoC4/DMA.h **** 
ARM GAS  C:\Users\TERENC~1\AppData\Local\Temp\ccK5a9K6.s 			page 5


 122:Generated_Source\PSoC4/DMA.h **** 
 123:Generated_Source\PSoC4/DMA.h **** /*******************************************************************************
 124:Generated_Source\PSoC4/DMA.h **** * Function Name: DMA_Trigger
 125:Generated_Source\PSoC4/DMA.h **** ********************************************************************************
 126:Generated_Source\PSoC4/DMA.h **** *
 127:Generated_Source\PSoC4/DMA.h **** * Summary:
 128:Generated_Source\PSoC4/DMA.h **** *  Triggers the DMA channel, this is useful only for software triggers. This is
 129:Generated_Source\PSoC4/DMA.h **** *  not needed when hardware triggers are used.
 130:Generated_Source\PSoC4/DMA.h **** *
 131:Generated_Source\PSoC4/DMA.h **** * Parameters:
 132:Generated_Source\PSoC4/DMA.h **** *  None.
 133:Generated_Source\PSoC4/DMA.h **** *                   
 134:Generated_Source\PSoC4/DMA.h **** * Return:
 135:Generated_Source\PSoC4/DMA.h **** *  None. 
 136:Generated_Source\PSoC4/DMA.h **** *
 137:Generated_Source\PSoC4/DMA.h **** *******************************************************************************/
 138:Generated_Source\PSoC4/DMA.h **** static CY_INLINE void DMA_Trigger(void)
 139:Generated_Source\PSoC4/DMA.h **** {
 140:Generated_Source\PSoC4/DMA.h ****     CyDmaTrigger(DMA_CHANNEL);
 141:Generated_Source\PSoC4/DMA.h **** }
 142:Generated_Source\PSoC4/DMA.h **** 
 143:Generated_Source\PSoC4/DMA.h **** 
 144:Generated_Source\PSoC4/DMA.h **** /*******************************************************************************
 145:Generated_Source\PSoC4/DMA.h **** * Function Name: DMA_SetPriority
 146:Generated_Source\PSoC4/DMA.h **** ********************************************************************************
 147:Generated_Source\PSoC4/DMA.h **** *
 148:Generated_Source\PSoC4/DMA.h **** * Summary:
 149:Generated_Source\PSoC4/DMA.h **** *  Sets the priority for the channel.
 150:Generated_Source\PSoC4/DMA.h **** *
 151:Generated_Source\PSoC4/DMA.h **** * Parameters:
 152:Generated_Source\PSoC4/DMA.h **** *  priority: Priority for channel. Priority can be 0,1,2, or 3.
 153:Generated_Source\PSoC4/DMA.h **** *            0 is the highest priority.
 154:Generated_Source\PSoC4/DMA.h **** *                   
 155:Generated_Source\PSoC4/DMA.h **** * Return:
 156:Generated_Source\PSoC4/DMA.h **** *  None.
 157:Generated_Source\PSoC4/DMA.h **** *
 158:Generated_Source\PSoC4/DMA.h **** * Side effect:
 159:Generated_Source\PSoC4/DMA.h **** *  This function should not be called while the channel is enabled.
 160:Generated_Source\PSoC4/DMA.h **** *
 161:Generated_Source\PSoC4/DMA.h **** *******************************************************************************/
 162:Generated_Source\PSoC4/DMA.h **** static CY_INLINE void DMA_SetPriority(int32 priority)
 163:Generated_Source\PSoC4/DMA.h **** {
 164:Generated_Source\PSoC4/DMA.h ****     CyDmaSetPriority(DMA_CHANNEL, priority);
 165:Generated_Source\PSoC4/DMA.h **** }
 166:Generated_Source\PSoC4/DMA.h **** 
 167:Generated_Source\PSoC4/DMA.h **** 
 168:Generated_Source\PSoC4/DMA.h **** /*******************************************************************************
 169:Generated_Source\PSoC4/DMA.h **** * Function Name: DMA_GetPriority
 170:Generated_Source\PSoC4/DMA.h **** ********************************************************************************
 171:Generated_Source\PSoC4/DMA.h **** *
 172:Generated_Source\PSoC4/DMA.h **** * Summary:
 173:Generated_Source\PSoC4/DMA.h **** *  Gets the priority for the channel.
 174:Generated_Source\PSoC4/DMA.h **** *
 175:Generated_Source\PSoC4/DMA.h **** * Parameters:
 176:Generated_Source\PSoC4/DMA.h **** *  None.
 177:Generated_Source\PSoC4/DMA.h **** *                   
 178:Generated_Source\PSoC4/DMA.h **** * Return:
ARM GAS  C:\Users\TERENC~1\AppData\Local\Temp\ccK5a9K6.s 			page 6


 179:Generated_Source\PSoC4/DMA.h **** *  Priority for channel. Priority can be 0,1,2, or 3. 0 is the highest priority.
 180:Generated_Source\PSoC4/DMA.h **** *
 181:Generated_Source\PSoC4/DMA.h **** *******************************************************************************/
 182:Generated_Source\PSoC4/DMA.h **** static CY_INLINE int32 DMA_GetPriority(void)
 183:Generated_Source\PSoC4/DMA.h **** {
 184:Generated_Source\PSoC4/DMA.h ****     return (CyDmaGetPriority(DMA_CHANNEL));
 185:Generated_Source\PSoC4/DMA.h **** }
 186:Generated_Source\PSoC4/DMA.h **** 
 187:Generated_Source\PSoC4/DMA.h **** 
 188:Generated_Source\PSoC4/DMA.h **** /*******************************************************************************
 189:Generated_Source\PSoC4/DMA.h **** * Function Name: DMA_SetNextDescriptor
 190:Generated_Source\PSoC4/DMA.h **** ********************************************************************************
 191:Generated_Source\PSoC4/DMA.h **** *
 192:Generated_Source\PSoC4/DMA.h **** * Summary:
 193:Generated_Source\PSoC4/DMA.h **** *  Sets the descriptor that should be run the next time the channel is
 194:Generated_Source\PSoC4/DMA.h **** *  triggered.
 195:Generated_Source\PSoC4/DMA.h **** *
 196:Generated_Source\PSoC4/DMA.h **** * Parameters:
 197:Generated_Source\PSoC4/DMA.h **** *  descriptor: Next Descriptor to run (0 or 1).
 198:Generated_Source\PSoC4/DMA.h **** *                   
 199:Generated_Source\PSoC4/DMA.h **** * Side effect:
 200:Generated_Source\PSoC4/DMA.h **** *  This function should not be called while the channel is enabled.
 201:Generated_Source\PSoC4/DMA.h **** *
 202:Generated_Source\PSoC4/DMA.h **** *******************************************************************************/
 203:Generated_Source\PSoC4/DMA.h **** static CY_INLINE void DMA_SetNextDescriptor(int32 descriptor)
 204:Generated_Source\PSoC4/DMA.h **** {
 205:Generated_Source\PSoC4/DMA.h ****     CyDmaSetNextDescriptor(DMA_CHANNEL, descriptor);
 206:Generated_Source\PSoC4/DMA.h **** }
 207:Generated_Source\PSoC4/DMA.h **** 
 208:Generated_Source\PSoC4/DMA.h **** 
 209:Generated_Source\PSoC4/DMA.h **** /*******************************************************************************
 210:Generated_Source\PSoC4/DMA.h **** * Function Name: DMA_GetNextDescriptor
 211:Generated_Source\PSoC4/DMA.h **** ********************************************************************************
 212:Generated_Source\PSoC4/DMA.h **** *
 213:Generated_Source\PSoC4/DMA.h **** * Summary:
 214:Generated_Source\PSoC4/DMA.h **** *  Returns the next descriptor that should be run, as set by 
 215:Generated_Source\PSoC4/DMA.h **** *  DMA_SetNextDescriptor().
 216:Generated_Source\PSoC4/DMA.h **** *
 217:Generated_Source\PSoC4/DMA.h **** * Parameters:
 218:Generated_Source\PSoC4/DMA.h **** *  None.
 219:Generated_Source\PSoC4/DMA.h **** *                   
 220:Generated_Source\PSoC4/DMA.h **** * Return:
 221:Generated_Source\PSoC4/DMA.h **** *  Next Descriptor to run (0 or 1).
 222:Generated_Source\PSoC4/DMA.h **** *
 223:Generated_Source\PSoC4/DMA.h **** *******************************************************************************/
 224:Generated_Source\PSoC4/DMA.h **** static CY_INLINE int32 DMA_GetNextDescriptor(void)
 225:Generated_Source\PSoC4/DMA.h **** {
 226:Generated_Source\PSoC4/DMA.h ****     return (CyDmaGetNextDescriptor(DMA_CHANNEL));
 227:Generated_Source\PSoC4/DMA.h **** }
 228:Generated_Source\PSoC4/DMA.h **** 
 229:Generated_Source\PSoC4/DMA.h **** 
 230:Generated_Source\PSoC4/DMA.h **** /*******************************************************************************
 231:Generated_Source\PSoC4/DMA.h **** * Function Name: DMA_SetConfiguration
 232:Generated_Source\PSoC4/DMA.h **** ********************************************************************************
 233:Generated_Source\PSoC4/DMA.h **** *
 234:Generated_Source\PSoC4/DMA.h **** * Summary:
 235:Generated_Source\PSoC4/DMA.h **** *  Sets configuration information for the specified descriptor.
ARM GAS  C:\Users\TERENC~1\AppData\Local\Temp\ccK5a9K6.s 			page 7


 236:Generated_Source\PSoC4/DMA.h **** *
 237:Generated_Source\PSoC4/DMA.h **** * Parameters:
 238:Generated_Source\PSoC4/DMA.h **** *  descriptor: Descriptor (0 or 1) modified by this function.
 239:Generated_Source\PSoC4/DMA.h **** *  config: Pointer to a configuration structure. Refer to cydma_init_struct
 240:Generated_Source\PSoC4/DMA.h **** *          structure definition in CyDMA_P4.h or the component datasheet.
 241:Generated_Source\PSoC4/DMA.h **** *                   
 242:Generated_Source\PSoC4/DMA.h **** * Return:
 243:Generated_Source\PSoC4/DMA.h **** *  None.
 244:Generated_Source\PSoC4/DMA.h **** *
 245:Generated_Source\PSoC4/DMA.h **** * Side effect:
 246:Generated_Source\PSoC4/DMA.h **** *  The status register associated with the specified descriptor is reset to
 247:Generated_Source\PSoC4/DMA.h **** *  zero after this function call. This function also validates the descriptor.
 248:Generated_Source\PSoC4/DMA.h **** *  This function should not be called while the descriptor is active.
 249:Generated_Source\PSoC4/DMA.h **** *  This can be checked by calling CyDmaGetStatus().
 250:Generated_Source\PSoC4/DMA.h **** *
 251:Generated_Source\PSoC4/DMA.h **** *******************************************************************************/
 252:Generated_Source\PSoC4/DMA.h **** static CY_INLINE void DMA_SetConfiguration(int32 descriptor, const cydma_init_struct * config)
 253:Generated_Source\PSoC4/DMA.h **** {
 254:Generated_Source\PSoC4/DMA.h ****     CyDmaSetConfiguration(DMA_CHANNEL, descriptor, config);
 255:Generated_Source\PSoC4/DMA.h **** }
 256:Generated_Source\PSoC4/DMA.h **** 
 257:Generated_Source\PSoC4/DMA.h **** 
 258:Generated_Source\PSoC4/DMA.h **** /*******************************************************************************
 259:Generated_Source\PSoC4/DMA.h **** * Function Name: DMA_ValidateDescriptor
 260:Generated_Source\PSoC4/DMA.h **** ********************************************************************************
 261:Generated_Source\PSoC4/DMA.h **** *
 262:Generated_Source\PSoC4/DMA.h **** * Summary:
 263:Generated_Source\PSoC4/DMA.h **** *  Validates the specified descriptor after it has been invalidated.
 264:Generated_Source\PSoC4/DMA.h **** *
 265:Generated_Source\PSoC4/DMA.h **** * Parameters:
 266:Generated_Source\PSoC4/DMA.h **** *  descriptor: Descriptor (0 or 1) modified by this function.
 267:Generated_Source\PSoC4/DMA.h **** *                   
 268:Generated_Source\PSoC4/DMA.h **** * Return:
 269:Generated_Source\PSoC4/DMA.h **** *  None. 
 270:Generated_Source\PSoC4/DMA.h **** *
 271:Generated_Source\PSoC4/DMA.h **** * Side effect:
 272:Generated_Source\PSoC4/DMA.h **** *  The status register associated with the specified descriptor is reset to
 273:Generated_Source\PSoC4/DMA.h **** *  zero after this function call. This function should not be called while the
 274:Generated_Source\PSoC4/DMA.h **** *  descriptor is active. This can be checked by calling CyDmaGetStatus().
 275:Generated_Source\PSoC4/DMA.h **** *
 276:Generated_Source\PSoC4/DMA.h **** *******************************************************************************/
 277:Generated_Source\PSoC4/DMA.h **** static CY_INLINE void DMA_ValidateDescriptor(int32 descriptor)
 278:Generated_Source\PSoC4/DMA.h **** {
 279:Generated_Source\PSoC4/DMA.h ****     CyDmaValidateDescriptor(DMA_CHANNEL, descriptor);
 280:Generated_Source\PSoC4/DMA.h **** }
 281:Generated_Source\PSoC4/DMA.h **** 
 282:Generated_Source\PSoC4/DMA.h **** 
 283:Generated_Source\PSoC4/DMA.h **** /*******************************************************************************
 284:Generated_Source\PSoC4/DMA.h **** * Function Name: DMA_GetDescriptorStatus
 285:Generated_Source\PSoC4/DMA.h **** ********************************************************************************
 286:Generated_Source\PSoC4/DMA.h **** *
 287:Generated_Source\PSoC4/DMA.h **** * Summary:
 288:Generated_Source\PSoC4/DMA.h **** *  Returns the status of the specified descriptor.
 289:Generated_Source\PSoC4/DMA.h **** *
 290:Generated_Source\PSoC4/DMA.h **** * Parameters:
 291:Generated_Source\PSoC4/DMA.h **** *  descriptor: Descriptor (0 or 1) modified by this function.
 292:Generated_Source\PSoC4/DMA.h **** *                   
ARM GAS  C:\Users\TERENC~1\AppData\Local\Temp\ccK5a9K6.s 			page 8


 293:Generated_Source\PSoC4/DMA.h **** * Return:
 294:Generated_Source\PSoC4/DMA.h **** *  Returns the contents of the specified descriptors status register. Refer to 
 295:Generated_Source\PSoC4/DMA.h **** *  descriptor status register bit definitions in CyDMA_P4.h or the API
 296:Generated_Source\PSoC4/DMA.h **** *  description in the DMA channel datasheet for more information.
 297:Generated_Source\PSoC4/DMA.h **** *
 298:Generated_Source\PSoC4/DMA.h **** *******************************************************************************/
 299:Generated_Source\PSoC4/DMA.h **** static CY_INLINE uint32 DMA_GetDescriptorStatus(int32 descriptor)
 300:Generated_Source\PSoC4/DMA.h **** {
 301:Generated_Source\PSoC4/DMA.h ****     return (CyDmaGetDescriptorStatus(DMA_CHANNEL, descriptor));
 302:Generated_Source\PSoC4/DMA.h **** }
 303:Generated_Source\PSoC4/DMA.h **** 
 304:Generated_Source\PSoC4/DMA.h **** 
 305:Generated_Source\PSoC4/DMA.h **** /*******************************************************************************
 306:Generated_Source\PSoC4/DMA.h **** * Function Name: DMA_SetSrcAddress
 307:Generated_Source\PSoC4/DMA.h **** ********************************************************************************
 308:Generated_Source\PSoC4/DMA.h **** *
 309:Generated_Source\PSoC4/DMA.h **** * Summary:
 310:Generated_Source\PSoC4/DMA.h **** *  Configures the source address for the specified descriptor.
 311:Generated_Source\PSoC4/DMA.h **** *
 312:Generated_Source\PSoC4/DMA.h **** * Parameters:
 313:Generated_Source\PSoC4/DMA.h **** *  descriptor: Descriptor (0 or 1) modified by this function.
 314:Generated_Source\PSoC4/DMA.h **** *  srcAddress: Address of DMA transfer source.
 315:Generated_Source\PSoC4/DMA.h **** *                   
 316:Generated_Source\PSoC4/DMA.h **** * Return:
 317:Generated_Source\PSoC4/DMA.h **** *  None.
 318:Generated_Source\PSoC4/DMA.h **** *
 319:Generated_Source\PSoC4/DMA.h **** * Side effect:
 320:Generated_Source\PSoC4/DMA.h **** *  This function should not be called when the specified descriptor is active
 321:Generated_Source\PSoC4/DMA.h **** *  in the DMA transfer engine. This can be checked by calling CyDmaGetStatus(). 
 322:Generated_Source\PSoC4/DMA.h **** *
 323:Generated_Source\PSoC4/DMA.h **** *******************************************************************************/
 324:Generated_Source\PSoC4/DMA.h **** static CY_INLINE void DMA_SetSrcAddress(int32 descriptor, void * srcAddress)
 325:Generated_Source\PSoC4/DMA.h **** {
 326:Generated_Source\PSoC4/DMA.h ****     CyDmaSetSrcAddress(DMA_CHANNEL, descriptor, srcAddress);
 327:Generated_Source\PSoC4/DMA.h **** }
 328:Generated_Source\PSoC4/DMA.h **** 
 329:Generated_Source\PSoC4/DMA.h **** 
 330:Generated_Source\PSoC4/DMA.h **** /*******************************************************************************
 331:Generated_Source\PSoC4/DMA.h **** * Function Name: DMA_GetSrcAddress
 332:Generated_Source\PSoC4/DMA.h **** ********************************************************************************
 333:Generated_Source\PSoC4/DMA.h **** *
 334:Generated_Source\PSoC4/DMA.h **** * Summary:
 335:Generated_Source\PSoC4/DMA.h **** *  Returns the source address for the specified descriptor, set by either 
 336:Generated_Source\PSoC4/DMA.h **** *  DMA_Start() or DMA_SetSrcAddress().
 337:Generated_Source\PSoC4/DMA.h **** *
 338:Generated_Source\PSoC4/DMA.h **** * Parameters:
 339:Generated_Source\PSoC4/DMA.h **** *  descriptor: Specifies descriptor (0 or 1) used by this function.
 340:Generated_Source\PSoC4/DMA.h **** *                   
 341:Generated_Source\PSoC4/DMA.h **** * Return:
 342:Generated_Source\PSoC4/DMA.h **** *  Source address written to specified descriptor.
 343:Generated_Source\PSoC4/DMA.h **** *
 344:Generated_Source\PSoC4/DMA.h **** *******************************************************************************/
 345:Generated_Source\PSoC4/DMA.h **** static CY_INLINE void * DMA_GetSrcAddress(int32 descriptor)
 346:Generated_Source\PSoC4/DMA.h **** {
 347:Generated_Source\PSoC4/DMA.h ****     return (CyDmaGetSrcAddress(DMA_CHANNEL, descriptor));
 348:Generated_Source\PSoC4/DMA.h **** }
 349:Generated_Source\PSoC4/DMA.h **** 
ARM GAS  C:\Users\TERENC~1\AppData\Local\Temp\ccK5a9K6.s 			page 9


 350:Generated_Source\PSoC4/DMA.h **** 
 351:Generated_Source\PSoC4/DMA.h **** /*******************************************************************************
 352:Generated_Source\PSoC4/DMA.h **** * Function Name: DMA_SetDstAddress
 353:Generated_Source\PSoC4/DMA.h **** ********************************************************************************
 354:Generated_Source\PSoC4/DMA.h **** *
 355:Generated_Source\PSoC4/DMA.h **** * Summary:
 356:Generated_Source\PSoC4/DMA.h **** *  Configures the destination address for the specified descriptor.
 357:Generated_Source\PSoC4/DMA.h **** *
 358:Generated_Source\PSoC4/DMA.h **** * Parameters:
 359:Generated_Source\PSoC4/DMA.h **** *  descriptor: Descriptor (0 or 1) modified by this function.
 360:Generated_Source\PSoC4/DMA.h **** *  dstAddress: Address of DMA transfer destination.
 361:Generated_Source\PSoC4/DMA.h **** *                   
 362:Generated_Source\PSoC4/DMA.h **** * Return:
 363:Generated_Source\PSoC4/DMA.h **** *  None.
 364:Generated_Source\PSoC4/DMA.h **** *
 365:Generated_Source\PSoC4/DMA.h **** * Side effect:
 366:Generated_Source\PSoC4/DMA.h **** *  This function should not be called when the specified descriptor is active
 367:Generated_Source\PSoC4/DMA.h **** *  in the DMA transfer engine. This can be checked by calling CyDmaGetStatus(). 
 368:Generated_Source\PSoC4/DMA.h **** *
 369:Generated_Source\PSoC4/DMA.h **** *******************************************************************************/
 370:Generated_Source\PSoC4/DMA.h **** static CY_INLINE void DMA_SetDstAddress(int32 descriptor, void * dstAddress)
 371:Generated_Source\PSoC4/DMA.h **** {
 372:Generated_Source\PSoC4/DMA.h ****     CyDmaSetDstAddress(DMA_CHANNEL, descriptor, dstAddress);
 373:Generated_Source\PSoC4/DMA.h **** }
 374:Generated_Source\PSoC4/DMA.h **** 
 375:Generated_Source\PSoC4/DMA.h **** 
 376:Generated_Source\PSoC4/DMA.h **** /*******************************************************************************
 377:Generated_Source\PSoC4/DMA.h **** * Function Name: DMA_GetDstAddress
 378:Generated_Source\PSoC4/DMA.h **** ********************************************************************************
 379:Generated_Source\PSoC4/DMA.h **** *
 380:Generated_Source\PSoC4/DMA.h **** * Summary:
 381:Generated_Source\PSoC4/DMA.h **** *  Returns the destination address for the specified descriptor, set by either 
 382:Generated_Source\PSoC4/DMA.h **** *  DMA_Start() or DMA_SetDstAddress().
 383:Generated_Source\PSoC4/DMA.h **** *
 384:Generated_Source\PSoC4/DMA.h **** * Parameters:
 385:Generated_Source\PSoC4/DMA.h **** *  descriptor: Specifies descriptor (0 or 1) used by this function.
 386:Generated_Source\PSoC4/DMA.h **** *                   
 387:Generated_Source\PSoC4/DMA.h **** * Return:
 388:Generated_Source\PSoC4/DMA.h **** *  Destination address written to specified descriptor.
 389:Generated_Source\PSoC4/DMA.h **** *
 390:Generated_Source\PSoC4/DMA.h **** *******************************************************************************/
 391:Generated_Source\PSoC4/DMA.h **** static CY_INLINE void * DMA_GetDstAddress(int32 descriptor)
 392:Generated_Source\PSoC4/DMA.h **** {
 393:Generated_Source\PSoC4/DMA.h ****     return (CyDmaGetDstAddress(DMA_CHANNEL, descriptor));
 394:Generated_Source\PSoC4/DMA.h **** }
 395:Generated_Source\PSoC4/DMA.h **** 
 396:Generated_Source\PSoC4/DMA.h **** 
 397:Generated_Source\PSoC4/DMA.h **** /*******************************************************************************
 398:Generated_Source\PSoC4/DMA.h **** * Function Name: DMA_SetDataElementSize
 399:Generated_Source\PSoC4/DMA.h **** ********************************************************************************
 400:Generated_Source\PSoC4/DMA.h **** *
 401:Generated_Source\PSoC4/DMA.h **** * Summary:
 402:Generated_Source\PSoC4/DMA.h **** *  Sets the data element size for the specified descriptor.
 403:Generated_Source\PSoC4/DMA.h **** *
 404:Generated_Source\PSoC4/DMA.h **** * Parameters:
 405:Generated_Source\PSoC4/DMA.h **** *  descriptor:      Descriptor (0 or 1) modified by this function.
 406:Generated_Source\PSoC4/DMA.h **** *  dataElementSize: Specifies the size of the data element. The DMA transfer
ARM GAS  C:\Users\TERENC~1\AppData\Local\Temp\ccK5a9K6.s 			page 10


 407:Generated_Source\PSoC4/DMA.h **** *                   engine transfers one data element at a time. How these
 408:Generated_Source\PSoC4/DMA.h **** *                   transfers occur is controlled by the transfer mode.
 409:Generated_Source\PSoC4/DMA.h **** *                   Refer to the API bit field definitions in CyDMA_P4.h or API
 410:Generated_Source\PSoC4/DMA.h **** *                   description in the DMA channel datasheet for the parameter
 411:Generated_Source\PSoC4/DMA.h **** *                   options.
 412:Generated_Source\PSoC4/DMA.h **** *
 413:Generated_Source\PSoC4/DMA.h **** * Return:
 414:Generated_Source\PSoC4/DMA.h **** *  None.
 415:Generated_Source\PSoC4/DMA.h **** *
 416:Generated_Source\PSoC4/DMA.h **** * Side effect:
 417:Generated_Source\PSoC4/DMA.h **** *  This function should not be called when the specified descriptor is active
 418:Generated_Source\PSoC4/DMA.h **** *  in the DMA transfer engine. This can be checked by calling CyDmaGetStatus(). 
 419:Generated_Source\PSoC4/DMA.h **** *
 420:Generated_Source\PSoC4/DMA.h **** *******************************************************************************/
 421:Generated_Source\PSoC4/DMA.h **** static CY_INLINE void DMA_SetDataElementSize(int32 descriptor, uint32 dataElementSize)
 422:Generated_Source\PSoC4/DMA.h **** {
 423:Generated_Source\PSoC4/DMA.h ****     CyDmaSetDataElementSize(DMA_CHANNEL, descriptor, dataElementSize);
 424:Generated_Source\PSoC4/DMA.h **** }
 425:Generated_Source\PSoC4/DMA.h **** 
 426:Generated_Source\PSoC4/DMA.h **** 
 427:Generated_Source\PSoC4/DMA.h **** /*******************************************************************************
 428:Generated_Source\PSoC4/DMA.h **** * Function Name: DMA_GetDataElementSize
 429:Generated_Source\PSoC4/DMA.h **** ********************************************************************************
 430:Generated_Source\PSoC4/DMA.h **** *
 431:Generated_Source\PSoC4/DMA.h **** * Summary:
 432:Generated_Source\PSoC4/DMA.h **** *  Returns the data element size configured for the specified descriptor, set by
 433:Generated_Source\PSoC4/DMA.h **** *  DMA_SetDataElementSize() or DMA_SetConfiguration().
 434:Generated_Source\PSoC4/DMA.h **** *
 435:Generated_Source\PSoC4/DMA.h **** * Parameters:
 436:Generated_Source\PSoC4/DMA.h **** *  descriptor: Descriptor (0 or 1) modified by this function.
 437:Generated_Source\PSoC4/DMA.h **** *                   
 438:Generated_Source\PSoC4/DMA.h **** * Return:
 439:Generated_Source\PSoC4/DMA.h **** *  The size of the data element. The DMA transfer engine transfers one data
 440:Generated_Source\PSoC4/DMA.h **** *  element at a time. How these transfers occur is controlled by the transfer
 441:Generated_Source\PSoC4/DMA.h **** *  mode. Refer to the API bit field definitions in CyDMA_P4.h or the API 
 442:Generated_Source\PSoC4/DMA.h **** *  description in the DMA channel datasheet for more information.
 443:Generated_Source\PSoC4/DMA.h **** *
 444:Generated_Source\PSoC4/DMA.h **** * Note:
 445:Generated_Source\PSoC4/DMA.h **** *  The size of the source and destination can be configured to use the
 446:Generated_Source\PSoC4/DMA.h **** *  data element size, or a Word, this is set in DMA_SetSrcDstTransferWidth().
 447:Generated_Source\PSoC4/DMA.h **** *
 448:Generated_Source\PSoC4/DMA.h **** *******************************************************************************/
 449:Generated_Source\PSoC4/DMA.h **** static CY_INLINE uint32 DMA_GetDataElementSize(int32 descriptor)
 450:Generated_Source\PSoC4/DMA.h **** {
 451:Generated_Source\PSoC4/DMA.h ****     return (CyDmaGetDataElementSize(DMA_CHANNEL, descriptor));
 452:Generated_Source\PSoC4/DMA.h **** }
 453:Generated_Source\PSoC4/DMA.h **** 
 454:Generated_Source\PSoC4/DMA.h **** 
 455:Generated_Source\PSoC4/DMA.h **** /*******************************************************************************
 456:Generated_Source\PSoC4/DMA.h **** * Function Name: DMA_SetNumDataElements
 457:Generated_Source\PSoC4/DMA.h **** ********************************************************************************
 458:Generated_Source\PSoC4/DMA.h **** *
 459:Generated_Source\PSoC4/DMA.h **** * Summary:
 460:Generated_Source\PSoC4/DMA.h **** *  Sets the number of data elements to transfer for specified descriptor.
 461:Generated_Source\PSoC4/DMA.h **** *
 462:Generated_Source\PSoC4/DMA.h **** * Parameters:
 463:Generated_Source\PSoC4/DMA.h **** *  descriptor:      Descriptor (0 or 1) modified by this function.
ARM GAS  C:\Users\TERENC~1\AppData\Local\Temp\ccK5a9K6.s 			page 11


 464:Generated_Source\PSoC4/DMA.h **** *  numDataElements: Total number of data elements this descriptor transfers.
 465:Generated_Source\PSoC4/DMA.h **** *                   Valid ranges are 1 to 65536.
 466:Generated_Source\PSoC4/DMA.h **** *                   
 467:Generated_Source\PSoC4/DMA.h **** * Return:
 468:Generated_Source\PSoC4/DMA.h **** *  None.
 469:Generated_Source\PSoC4/DMA.h **** *
 470:Generated_Source\PSoC4/DMA.h **** * Side effect:
 471:Generated_Source\PSoC4/DMA.h **** *  This function should not be called when the specified descriptor is active
 472:Generated_Source\PSoC4/DMA.h **** *  in the DMA transfer engine. This can be checked by calling CyDmaGetStatus(). 
 473:Generated_Source\PSoC4/DMA.h **** *
 474:Generated_Source\PSoC4/DMA.h **** *******************************************************************************/
 475:Generated_Source\PSoC4/DMA.h **** static CY_INLINE void DMA_SetNumDataElements(int32 descriptor, int32 numDataElements)
 476:Generated_Source\PSoC4/DMA.h **** {
 477:Generated_Source\PSoC4/DMA.h ****     CyDmaSetNumDataElements(DMA_CHANNEL, descriptor, numDataElements);
 478:Generated_Source\PSoC4/DMA.h **** }
 479:Generated_Source\PSoC4/DMA.h **** 
 480:Generated_Source\PSoC4/DMA.h **** 
 481:Generated_Source\PSoC4/DMA.h **** /*******************************************************************************
 482:Generated_Source\PSoC4/DMA.h **** * Function Name: DMA_GetNumDataElements
 483:Generated_Source\PSoC4/DMA.h **** ********************************************************************************
 484:Generated_Source\PSoC4/DMA.h **** *
 485:Generated_Source\PSoC4/DMA.h **** * Summary:
 486:Generated_Source\PSoC4/DMA.h **** *  Returns the number of data elements to be transferred. Only reflects the
 487:Generated_Source\PSoC4/DMA.h **** *  value written by DMA_SetNumDataElements() or DMA_SetConfiguration().
 488:Generated_Source\PSoC4/DMA.h **** *  This does not reflect how many elements have been transferred. For that
 489:Generated_Source\PSoC4/DMA.h **** *  information use the DMA_GetDescriptorStatus() function.
 490:Generated_Source\PSoC4/DMA.h **** *
 491:Generated_Source\PSoC4/DMA.h **** * Parameters:
 492:Generated_Source\PSoC4/DMA.h **** *  descriptor: Descriptor (0 or 1) modified by this function.
 493:Generated_Source\PSoC4/DMA.h **** *                   
 494:Generated_Source\PSoC4/DMA.h **** * Return:
 495:Generated_Source\PSoC4/DMA.h **** *  Number of data elements to transfer.
 496:Generated_Source\PSoC4/DMA.h **** *
 497:Generated_Source\PSoC4/DMA.h **** *******************************************************************************/
 498:Generated_Source\PSoC4/DMA.h **** static CY_INLINE int32 DMA_GetNumDataElements(int32 descriptor)
 499:Generated_Source\PSoC4/DMA.h **** {
 500:Generated_Source\PSoC4/DMA.h ****     return (CyDmaGetNumDataElements(DMA_CHANNEL, descriptor));
 501:Generated_Source\PSoC4/DMA.h **** }
 502:Generated_Source\PSoC4/DMA.h **** 
 503:Generated_Source\PSoC4/DMA.h **** 
 504:Generated_Source\PSoC4/DMA.h **** /*******************************************************************************
 505:Generated_Source\PSoC4/DMA.h **** * Function Name: DMA_SetSrcDstTransferWidth
 506:Generated_Source\PSoC4/DMA.h **** ********************************************************************************
 507:Generated_Source\PSoC4/DMA.h **** *
 508:Generated_Source\PSoC4/DMA.h **** * Summary:
 509:Generated_Source\PSoC4/DMA.h **** *  Sets the width of the source and destination. The DMA can either read and
 510:Generated_Source\PSoC4/DMA.h **** *  write data from the source and destination at the size specified by
 511:Generated_Source\PSoC4/DMA.h **** *  DMA_SetDataElementSize() or by a word (4bytes). This also determines how
 512:Generated_Source\PSoC4/DMA.h **** *  many bytes the addresses are incremented if increment source and destination
 513:Generated_Source\PSoC4/DMA.h **** *  address are turned on.
 514:Generated_Source\PSoC4/DMA.h **** *
 515:Generated_Source\PSoC4/DMA.h **** * Parameters:
 516:Generated_Source\PSoC4/DMA.h **** *  descriptor:    Descriptor (0 or 1) modified by this function.
 517:Generated_Source\PSoC4/DMA.h **** *  transferWidth: Specifies the source and destination widths. Refer to the API
 518:Generated_Source\PSoC4/DMA.h **** *                 bit field definitions in CyDMA_P4.h or the API description in
 519:Generated_Source\PSoC4/DMA.h **** *                 the DMA channel datasheet for the parameter options.
 520:Generated_Source\PSoC4/DMA.h **** *                   
ARM GAS  C:\Users\TERENC~1\AppData\Local\Temp\ccK5a9K6.s 			page 12


 521:Generated_Source\PSoC4/DMA.h **** * Return:
 522:Generated_Source\PSoC4/DMA.h **** *  None.
 523:Generated_Source\PSoC4/DMA.h **** *
 524:Generated_Source\PSoC4/DMA.h **** * Side effect:
 525:Generated_Source\PSoC4/DMA.h **** *  This function should not be called when the specified descriptor is active
 526:Generated_Source\PSoC4/DMA.h **** *  in the DMA transfer engine. This can be checked by calling CyDmaGetStatus(). 
 527:Generated_Source\PSoC4/DMA.h **** *
 528:Generated_Source\PSoC4/DMA.h **** *******************************************************************************/
 529:Generated_Source\PSoC4/DMA.h **** static CY_INLINE void DMA_SetSrcDstTransferWidth(int32 descriptor, uint32 transferWidth)
 530:Generated_Source\PSoC4/DMA.h **** {
 531:Generated_Source\PSoC4/DMA.h ****     CyDmaSetSrcDstTransferWidth(DMA_CHANNEL, descriptor, transferWidth);
 532:Generated_Source\PSoC4/DMA.h **** }
 533:Generated_Source\PSoC4/DMA.h **** 
 534:Generated_Source\PSoC4/DMA.h **** 
 535:Generated_Source\PSoC4/DMA.h **** /*******************************************************************************
 536:Generated_Source\PSoC4/DMA.h **** * Function Name: DMA_GetSrcDstTransferWidth
 537:Generated_Source\PSoC4/DMA.h **** ********************************************************************************
 538:Generated_Source\PSoC4/DMA.h **** *
 539:Generated_Source\PSoC4/DMA.h **** * Summary:
 540:Generated_Source\PSoC4/DMA.h **** *  Returns the width of the source and destination, as set by 
 541:Generated_Source\PSoC4/DMA.h **** *  DMA_SetSrcDstTransferWidth() or DMA_SetConfiguration().
 542:Generated_Source\PSoC4/DMA.h **** *
 543:Generated_Source\PSoC4/DMA.h **** * Parameters:
 544:Generated_Source\PSoC4/DMA.h **** *  descriptor: Descriptor (0 or 1) modified by this function.
 545:Generated_Source\PSoC4/DMA.h **** *                   
 546:Generated_Source\PSoC4/DMA.h **** * Return:
 547:Generated_Source\PSoC4/DMA.h **** *  Width of source and destination. Refer to the API bit field definitions in
 548:Generated_Source\PSoC4/DMA.h **** *  CyDMA_P4.h or the API description in the DMA channel datasheet for more
 549:Generated_Source\PSoC4/DMA.h **** *  information.
 550:Generated_Source\PSoC4/DMA.h **** *
 551:Generated_Source\PSoC4/DMA.h **** *******************************************************************************/
 552:Generated_Source\PSoC4/DMA.h **** static CY_INLINE uint32 DMA_GetSrcDstTransferWidth(int32 descriptor)
 553:Generated_Source\PSoC4/DMA.h **** {
 554:Generated_Source\PSoC4/DMA.h ****     return (CyDmaGetSrcDstTransferWidth(DMA_CHANNEL, descriptor));
 555:Generated_Source\PSoC4/DMA.h **** }
 556:Generated_Source\PSoC4/DMA.h **** 
 557:Generated_Source\PSoC4/DMA.h **** 
 558:Generated_Source\PSoC4/DMA.h **** /*******************************************************************************
 559:Generated_Source\PSoC4/DMA.h **** * Function Name: DMA_SetAddressIncrement
 560:Generated_Source\PSoC4/DMA.h **** ********************************************************************************
 561:Generated_Source\PSoC4/DMA.h **** *
 562:Generated_Source\PSoC4/DMA.h **** * Summary:
 563:Generated_Source\PSoC4/DMA.h **** *  Sets whether the source or destination addresses are incremented after the
 564:Generated_Source\PSoC4/DMA.h **** *  transfer of each data element. The amount that the source and destination
 565:Generated_Source\PSoC4/DMA.h **** *  address are incremented is determined by the DMA_SetSrcDstTransferWidth()
 566:Generated_Source\PSoC4/DMA.h **** *  function. The addresses will either be incremented by the data element size
 567:Generated_Source\PSoC4/DMA.h **** *  or by a word (4 bytes).
 568:Generated_Source\PSoC4/DMA.h **** *
 569:Generated_Source\PSoC4/DMA.h **** * Parameters:
 570:Generated_Source\PSoC4/DMA.h **** *  descriptor:       Descriptor (0 or 1) modified by this function.
 571:Generated_Source\PSoC4/DMA.h **** *  addressIncrement: Address increment settings. Refer to the API bit field
 572:Generated_Source\PSoC4/DMA.h **** *                    definitions in CyDMA_P4.h or the API description in the DMA
 573:Generated_Source\PSoC4/DMA.h **** *                    channel datasheet for the parameter options.
 574:Generated_Source\PSoC4/DMA.h **** *    
 575:Generated_Source\PSoC4/DMA.h **** * Return:
 576:Generated_Source\PSoC4/DMA.h **** *  None.
 577:Generated_Source\PSoC4/DMA.h **** *
ARM GAS  C:\Users\TERENC~1\AppData\Local\Temp\ccK5a9K6.s 			page 13


 578:Generated_Source\PSoC4/DMA.h **** * Side effect:
 579:Generated_Source\PSoC4/DMA.h **** *  This function should not be called when the specified descriptor is active
 580:Generated_Source\PSoC4/DMA.h **** *  in the DMA transfer engine. This can be checked by calling CyDmaGetStatus(). 
 581:Generated_Source\PSoC4/DMA.h **** *
 582:Generated_Source\PSoC4/DMA.h **** *******************************************************************************/
 583:Generated_Source\PSoC4/DMA.h **** static CY_INLINE void DMA_SetAddressIncrement(int32 descriptor, uint32 addressIncrement)
 584:Generated_Source\PSoC4/DMA.h **** {
 585:Generated_Source\PSoC4/DMA.h ****     CyDmaSetAddressIncrement(DMA_CHANNEL, descriptor, addressIncrement);
 586:Generated_Source\PSoC4/DMA.h **** }
 587:Generated_Source\PSoC4/DMA.h **** 
 588:Generated_Source\PSoC4/DMA.h **** 
 589:Generated_Source\PSoC4/DMA.h **** /*******************************************************************************
 590:Generated_Source\PSoC4/DMA.h **** * Function Name: DMA_GetAddressIncrement
 591:Generated_Source\PSoC4/DMA.h **** ********************************************************************************
 592:Generated_Source\PSoC4/DMA.h **** *
 593:Generated_Source\PSoC4/DMA.h **** * Summary:
 594:Generated_Source\PSoC4/DMA.h **** *  Returns address increment settings as set by DMA_SetAddressIncrement()
 595:Generated_Source\PSoC4/DMA.h **** *  or DMA_SetConfiguration().
 596:Generated_Source\PSoC4/DMA.h **** *
 597:Generated_Source\PSoC4/DMA.h **** * Parameters:
 598:Generated_Source\PSoC4/DMA.h **** *  descriptor: Descriptor (0 or 1) modified by this function.
 599:Generated_Source\PSoC4/DMA.h **** *                   
 600:Generated_Source\PSoC4/DMA.h **** * Return:
 601:Generated_Source\PSoC4/DMA.h **** *  Address increment settings. Refer to the API bit field definitions in
 602:Generated_Source\PSoC4/DMA.h **** *  CyDMA_P4.h or the API description in the DMA channel datasheet for more
 603:Generated_Source\PSoC4/DMA.h **** *  information.
 604:Generated_Source\PSoC4/DMA.h **** *
 605:Generated_Source\PSoC4/DMA.h **** *******************************************************************************/
 606:Generated_Source\PSoC4/DMA.h **** static CY_INLINE uint32 DMA_GetAddressIncrement(int32 descriptor)
 607:Generated_Source\PSoC4/DMA.h **** {
 608:Generated_Source\PSoC4/DMA.h ****     return (CyDmaGetAddressIncrement(DMA_CHANNEL, descriptor));
 609:Generated_Source\PSoC4/DMA.h **** }
 610:Generated_Source\PSoC4/DMA.h **** 
 611:Generated_Source\PSoC4/DMA.h **** 
 612:Generated_Source\PSoC4/DMA.h **** /*******************************************************************************
 613:Generated_Source\PSoC4/DMA.h **** * Function Name: DMA_SetTriggerType
 614:Generated_Source\PSoC4/DMA.h **** ********************************************************************************
 615:Generated_Source\PSoC4/DMA.h **** *
 616:Generated_Source\PSoC4/DMA.h **** * Summary:
 617:Generated_Source\PSoC4/DMA.h **** *  Sets the type of input trigger for the DMA For level sensitive triggers sets
 618:Generated_Source\PSoC4/DMA.h **** *  how long the DMA waits for the trigger to go low (deactivate) before
 619:Generated_Source\PSoC4/DMA.h **** *  triggering the channel again.
 620:Generated_Source\PSoC4/DMA.h **** *
 621:Generated_Source\PSoC4/DMA.h **** * Parameters:
 622:Generated_Source\PSoC4/DMA.h **** *  descriptor:  Descriptor (0 or 1) modified by this function.
 623:Generated_Source\PSoC4/DMA.h **** *  triggerType: Type of DMA trigger. Refer to the API bit field definitions in
 624:Generated_Source\PSoC4/DMA.h **** *               CyDMA_P4.h or the API description in the DMA channel datasheet
 625:Generated_Source\PSoC4/DMA.h **** *               for the parameter options.
 626:Generated_Source\PSoC4/DMA.h **** *                   
 627:Generated_Source\PSoC4/DMA.h **** * Return:
 628:Generated_Source\PSoC4/DMA.h **** *  None.
 629:Generated_Source\PSoC4/DMA.h **** *
 630:Generated_Source\PSoC4/DMA.h **** * Side effect:
 631:Generated_Source\PSoC4/DMA.h **** *  This function should not be called when the specified descriptor is active
 632:Generated_Source\PSoC4/DMA.h **** *  in the DMA transfer engine. This can be checked by calling CyDmaGetStatus(). 
 633:Generated_Source\PSoC4/DMA.h **** *
 634:Generated_Source\PSoC4/DMA.h **** *******************************************************************************/
ARM GAS  C:\Users\TERENC~1\AppData\Local\Temp\ccK5a9K6.s 			page 14


 635:Generated_Source\PSoC4/DMA.h **** static CY_INLINE void DMA_SetTriggerType(int32 descriptor, uint32 triggerType)
 636:Generated_Source\PSoC4/DMA.h **** {
 637:Generated_Source\PSoC4/DMA.h ****     CyDmaSetTriggerType(DMA_CHANNEL, descriptor, triggerType);
 638:Generated_Source\PSoC4/DMA.h **** }
 639:Generated_Source\PSoC4/DMA.h **** 
 640:Generated_Source\PSoC4/DMA.h **** 
 641:Generated_Source\PSoC4/DMA.h **** /*******************************************************************************
 642:Generated_Source\PSoC4/DMA.h **** * Function Name: DMA_GetTriggerType
 643:Generated_Source\PSoC4/DMA.h **** ********************************************************************************
 644:Generated_Source\PSoC4/DMA.h **** *
 645:Generated_Source\PSoC4/DMA.h **** * Summary:
 646:Generated_Source\PSoC4/DMA.h **** *  Returns the trigger deactivation settings as set by DMA_SetTriggerType()
 647:Generated_Source\PSoC4/DMA.h **** *  or DMA_SetConfiguration().
 648:Generated_Source\PSoC4/DMA.h **** *
 649:Generated_Source\PSoC4/DMA.h **** * Parameters:
 650:Generated_Source\PSoC4/DMA.h **** *  descriptor: Descriptor (0 or 1) modified by this function.
 651:Generated_Source\PSoC4/DMA.h **** *                   
 652:Generated_Source\PSoC4/DMA.h **** * Return:
 653:Generated_Source\PSoC4/DMA.h **** *  Trigger deactivation settings. Refer to the API bit field definitions in
 654:Generated_Source\PSoC4/DMA.h **** *  CyDMA_P4.h or the API description in the DMA channel datasheet for more
 655:Generated_Source\PSoC4/DMA.h **** *  information.
 656:Generated_Source\PSoC4/DMA.h **** *
 657:Generated_Source\PSoC4/DMA.h **** *******************************************************************************/
 658:Generated_Source\PSoC4/DMA.h **** static CY_INLINE uint32 DMA_GetTriggerType(int32 descriptor)
 659:Generated_Source\PSoC4/DMA.h **** {
 660:Generated_Source\PSoC4/DMA.h ****     return (CyDmaGetTriggerType(DMA_CHANNEL, descriptor));
 661:Generated_Source\PSoC4/DMA.h **** }
 662:Generated_Source\PSoC4/DMA.h **** 
 663:Generated_Source\PSoC4/DMA.h **** 
 664:Generated_Source\PSoC4/DMA.h **** /*******************************************************************************
 665:Generated_Source\PSoC4/DMA.h **** * Function Name: DMA_SetTransferMode
 666:Generated_Source\PSoC4/DMA.h **** ********************************************************************************
 667:Generated_Source\PSoC4/DMA.h **** *
 668:Generated_Source\PSoC4/DMA.h **** * Summary:
 669:Generated_Source\PSoC4/DMA.h **** *  Sets the DMA transfer mode. This determines how the DMA reacts to each trigger
 670:Generated_Source\PSoC4/DMA.h **** *  event.
 671:Generated_Source\PSoC4/DMA.h **** *
 672:Generated_Source\PSoC4/DMA.h **** * Parameters:
 673:Generated_Source\PSoC4/DMA.h **** *  descriptor:   Descriptor (0 or 1) modified by this function.
 674:Generated_Source\PSoC4/DMA.h **** *  transferMode: Specifies the DMA transfer mode settings. Refer to the API bit
 675:Generated_Source\PSoC4/DMA.h **** *                field definitions in CyDMA_P4.h or the API description in the
 676:Generated_Source\PSoC4/DMA.h **** *                DMA channel datasheet for the parameter options.
 677:Generated_Source\PSoC4/DMA.h **** *                   
 678:Generated_Source\PSoC4/DMA.h **** * Return:
 679:Generated_Source\PSoC4/DMA.h **** *  None.
 680:Generated_Source\PSoC4/DMA.h **** *
 681:Generated_Source\PSoC4/DMA.h **** * Side effect:
 682:Generated_Source\PSoC4/DMA.h **** *  This function should not be called when the specified descriptor is active
 683:Generated_Source\PSoC4/DMA.h **** *  in the DMA transfer engine. This can be checked by calling CyDmaGetStatus(). 
 684:Generated_Source\PSoC4/DMA.h **** *
 685:Generated_Source\PSoC4/DMA.h **** *******************************************************************************/
 686:Generated_Source\PSoC4/DMA.h **** static CY_INLINE void DMA_SetTransferMode(int32 descriptor, uint32 transferMode)
 687:Generated_Source\PSoC4/DMA.h **** {
 688:Generated_Source\PSoC4/DMA.h ****     CyDmaSetTransferMode(DMA_CHANNEL, descriptor, transferMode);
 689:Generated_Source\PSoC4/DMA.h **** }
 690:Generated_Source\PSoC4/DMA.h **** 
 691:Generated_Source\PSoC4/DMA.h **** 
ARM GAS  C:\Users\TERENC~1\AppData\Local\Temp\ccK5a9K6.s 			page 15


 692:Generated_Source\PSoC4/DMA.h **** /*******************************************************************************
 693:Generated_Source\PSoC4/DMA.h **** * Function Name: DMA_GetTransferMode
 694:Generated_Source\PSoC4/DMA.h **** ********************************************************************************
 695:Generated_Source\PSoC4/DMA.h **** *
 696:Generated_Source\PSoC4/DMA.h **** * Summary:
 697:Generated_Source\PSoC4/DMA.h **** *  Returns the transfer mode for the specified descriptor as set by 
 698:Generated_Source\PSoC4/DMA.h **** *  DMA_SetTransferMode() or DMA_SetConfiguration().
 699:Generated_Source\PSoC4/DMA.h **** *
 700:Generated_Source\PSoC4/DMA.h **** * Parameters:
 701:Generated_Source\PSoC4/DMA.h **** *  descriptor: Descriptor (0 or 1) modified by this function.
 702:Generated_Source\PSoC4/DMA.h **** *                   
 703:Generated_Source\PSoC4/DMA.h **** * Return:
 704:Generated_Source\PSoC4/DMA.h **** *  DMA transfer mode settings. Refer to the API bit field definitions in
 705:Generated_Source\PSoC4/DMA.h **** *  CyDMA_P4.h or the API description in the DMA channel datasheet for more
 706:Generated_Source\PSoC4/DMA.h **** *  information.
 707:Generated_Source\PSoC4/DMA.h **** *
 708:Generated_Source\PSoC4/DMA.h **** *******************************************************************************/
 709:Generated_Source\PSoC4/DMA.h **** static CY_INLINE uint32 DMA_GetTransferMode(int32 descriptor)
 710:Generated_Source\PSoC4/DMA.h **** {
 711:Generated_Source\PSoC4/DMA.h ****     return (CyDmaGetTransferMode(DMA_CHANNEL, descriptor));
 712:Generated_Source\PSoC4/DMA.h **** }
 713:Generated_Source\PSoC4/DMA.h **** 
 714:Generated_Source\PSoC4/DMA.h **** 
 715:Generated_Source\PSoC4/DMA.h **** /*******************************************************************************
 716:Generated_Source\PSoC4/DMA.h **** * Function Name: DMA_SetPreemptable
 717:Generated_Source\PSoC4/DMA.h **** ********************************************************************************
 718:Generated_Source\PSoC4/DMA.h **** *
 719:Generated_Source\PSoC4/DMA.h **** * Summary:
 720:Generated_Source\PSoC4/DMA.h **** *  Determines if the descriptor is preemptable.
 721:Generated_Source\PSoC4/DMA.h **** *
 722:Generated_Source\PSoC4/DMA.h **** * Parameters:
 723:Generated_Source\PSoC4/DMA.h **** *  descriptor:  Descriptor (0 or 1) modified by this function.
 724:Generated_Source\PSoC4/DMA.h **** *  preemptable: Descriptor preemption settings. Refer to the API bit field
 725:Generated_Source\PSoC4/DMA.h **** *               definitions in CyDMA_P4.h or the API description in the DMA 
 726:Generated_Source\PSoC4/DMA.h **** *               channel datasheet for the parameter options.
 727:Generated_Source\PSoC4/DMA.h **** *                   
 728:Generated_Source\PSoC4/DMA.h **** * Return:
 729:Generated_Source\PSoC4/DMA.h **** *  None.
 730:Generated_Source\PSoC4/DMA.h **** *
 731:Generated_Source\PSoC4/DMA.h **** * Side effect:
 732:Generated_Source\PSoC4/DMA.h **** *  This function should not be called when the specified descriptor is active
 733:Generated_Source\PSoC4/DMA.h **** *  in the DMA transfer engine. This can be checked by calling CyDmaGetStatus(). 
 734:Generated_Source\PSoC4/DMA.h **** *
 735:Generated_Source\PSoC4/DMA.h **** *******************************************************************************/
 736:Generated_Source\PSoC4/DMA.h **** static CY_INLINE void DMA_SetPreemptable(int32 descriptor, uint32 preemptable)
 737:Generated_Source\PSoC4/DMA.h **** {
 738:Generated_Source\PSoC4/DMA.h ****     CyDmaSetPreemptable(DMA_CHANNEL, descriptor, preemptable);
 739:Generated_Source\PSoC4/DMA.h **** }
 740:Generated_Source\PSoC4/DMA.h **** 
 741:Generated_Source\PSoC4/DMA.h **** 
 742:Generated_Source\PSoC4/DMA.h **** /*******************************************************************************
 743:Generated_Source\PSoC4/DMA.h **** * Function Name: DMA_GetPreemptable
 744:Generated_Source\PSoC4/DMA.h **** ********************************************************************************
 745:Generated_Source\PSoC4/DMA.h **** *
 746:Generated_Source\PSoC4/DMA.h **** * Summary:
 747:Generated_Source\PSoC4/DMA.h **** *  Returns whether or not the descriptor is preemptable.
 748:Generated_Source\PSoC4/DMA.h **** *
ARM GAS  C:\Users\TERENC~1\AppData\Local\Temp\ccK5a9K6.s 			page 16


 749:Generated_Source\PSoC4/DMA.h **** * Parameters:
 750:Generated_Source\PSoC4/DMA.h **** *  descriptor: Descriptor (0 or 1) modified by this function.
 751:Generated_Source\PSoC4/DMA.h **** *                   
 752:Generated_Source\PSoC4/DMA.h **** * Return:
 753:Generated_Source\PSoC4/DMA.h **** *  Descriptor preemption setting. Refer to the API bit field definitions in
 754:Generated_Source\PSoC4/DMA.h **** *  CyDMA_P4.h or the API description in the DMA channel datasheet for more
 755:Generated_Source\PSoC4/DMA.h **** *  information.
 756:Generated_Source\PSoC4/DMA.h **** *
 757:Generated_Source\PSoC4/DMA.h **** *******************************************************************************/
 758:Generated_Source\PSoC4/DMA.h **** static CY_INLINE uint32 DMA_GetPreemptable(int32 descriptor)
 759:Generated_Source\PSoC4/DMA.h **** {
 760:Generated_Source\PSoC4/DMA.h ****     return (CyDmaGetPreemptable(DMA_CHANNEL, descriptor));
 761:Generated_Source\PSoC4/DMA.h **** }
 762:Generated_Source\PSoC4/DMA.h **** 
 763:Generated_Source\PSoC4/DMA.h **** 
 764:Generated_Source\PSoC4/DMA.h **** /*******************************************************************************
 765:Generated_Source\PSoC4/DMA.h **** * Function Name: DMA_SetPostCompletionActions
 766:Generated_Source\PSoC4/DMA.h **** ********************************************************************************
 767:Generated_Source\PSoC4/DMA.h **** *
 768:Generated_Source\PSoC4/DMA.h **** * Summary:
 769:Generated_Source\PSoC4/DMA.h **** *  Determines what occurs after a descriptor completes.
 770:Generated_Source\PSoC4/DMA.h **** *
 771:Generated_Source\PSoC4/DMA.h **** * Parameters:
 772:Generated_Source\PSoC4/DMA.h **** *  descriptor: Descriptor (0 or 1) modified by this function.
 773:Generated_Source\PSoC4/DMA.h **** *  actions:    Specifies descriptor post completion actions. Refer to the API
 774:Generated_Source\PSoC4/DMA.h **** *              bit field definitions in CyDMA_P4.h or the API description in the
 775:Generated_Source\PSoC4/DMA.h **** *              DMA channel datasheet for the parameter options.
 776:Generated_Source\PSoC4/DMA.h **** *                   
 777:Generated_Source\PSoC4/DMA.h **** * Return:
 778:Generated_Source\PSoC4/DMA.h **** *  None.  
 779:Generated_Source\PSoC4/DMA.h **** *
 780:Generated_Source\PSoC4/DMA.h **** * Side effect:
 781:Generated_Source\PSoC4/DMA.h **** *  This function should not be called when the specified descriptor is active
 782:Generated_Source\PSoC4/DMA.h **** *  in the DMA transfer engine. This can be checked by calling CyDmaGetStatus(). 
 783:Generated_Source\PSoC4/DMA.h **** *
 784:Generated_Source\PSoC4/DMA.h **** *******************************************************************************/
 785:Generated_Source\PSoC4/DMA.h **** static CY_INLINE void DMA_SetPostCompletionActions(int32 descriptor, uint32 actions)
 786:Generated_Source\PSoC4/DMA.h **** {
 787:Generated_Source\PSoC4/DMA.h ****     CyDmaSetPostCompletionActions(DMA_CHANNEL, descriptor, actions);
 788:Generated_Source\PSoC4/DMA.h **** }
 789:Generated_Source\PSoC4/DMA.h **** 
 790:Generated_Source\PSoC4/DMA.h **** 
 791:Generated_Source\PSoC4/DMA.h **** /*******************************************************************************
 792:Generated_Source\PSoC4/DMA.h **** * Function Name: DMA_GetPostCompletionAction
 793:Generated_Source\PSoC4/DMA.h **** ********************************************************************************
 794:Generated_Source\PSoC4/DMA.h **** *
 795:Generated_Source\PSoC4/DMA.h **** * Summary:
 796:Generated_Source\PSoC4/DMA.h **** *  Returns the post descriptor action settings as set by 
 797:Generated_Source\PSoC4/DMA.h **** *  DMA_SetPostCompletionActions() or DMA_SetConfiguration().
 798:Generated_Source\PSoC4/DMA.h **** *
 799:Generated_Source\PSoC4/DMA.h **** * Parameters:
 800:Generated_Source\PSoC4/DMA.h **** *  descriptor: Descriptor (0 or 1) modified by this function.
 801:Generated_Source\PSoC4/DMA.h **** *                   
 802:Generated_Source\PSoC4/DMA.h **** * Return:
 803:Generated_Source\PSoC4/DMA.h **** *  Post descriptor actions. Refer to the API bit field definitions in CyDMA_P4.h
 804:Generated_Source\PSoC4/DMA.h **** *  or the API description in the DMA channel datasheet for more information.
 805:Generated_Source\PSoC4/DMA.h **** *
ARM GAS  C:\Users\TERENC~1\AppData\Local\Temp\ccK5a9K6.s 			page 17


 806:Generated_Source\PSoC4/DMA.h **** *******************************************************************************/
 807:Generated_Source\PSoC4/DMA.h **** static CY_INLINE uint32 DMA_GetPostCompletionAction(int32 descriptor)
 808:Generated_Source\PSoC4/DMA.h **** {
 809:Generated_Source\PSoC4/DMA.h ****     return (CyDmaGetPostCompletionActions(DMA_CHANNEL, descriptor));
 810:Generated_Source\PSoC4/DMA.h **** }
 811:Generated_Source\PSoC4/DMA.h **** 
 812:Generated_Source\PSoC4/DMA.h **** 
 813:Generated_Source\PSoC4/DMA.h **** /*******************************************************************************
 814:Generated_Source\PSoC4/DMA.h **** * Function Name: DMA_SetInterruptCallback
 815:Generated_Source\PSoC4/DMA.h **** ********************************************************************************
 816:Generated_Source\PSoC4/DMA.h **** *
 817:Generated_Source\PSoC4/DMA.h **** * Summary:
 818:Generated_Source\PSoC4/DMA.h **** *  Sets a user defined callback function to be called by the DMA interrupt. The
 819:Generated_Source\PSoC4/DMA.h **** *  function should contain code to process the interrupt request for the 
 820:Generated_Source\PSoC4/DMA.h **** *  associated DMA channel.
 821:Generated_Source\PSoC4/DMA.h **** *
 822:Generated_Source\PSoC4/DMA.h **** * Parameters:
 823:Generated_Source\PSoC4/DMA.h **** *  callback: Pointer to the user defined callback function.
 824:Generated_Source\PSoC4/DMA.h **** *
 825:Generated_Source\PSoC4/DMA.h **** * Return:
 826:Generated_Source\PSoC4/DMA.h **** *  Pointer to the function previously set for the specified channel. 
 827:Generated_Source\PSoC4/DMA.h **** *
 828:Generated_Source\PSoC4/DMA.h **** *******************************************************************************/
 829:Generated_Source\PSoC4/DMA.h **** static CY_INLINE cydma_callback_t DMA_SetInterruptCallback(cydma_callback_t callback)
 830:Generated_Source\PSoC4/DMA.h **** {
 831:Generated_Source\PSoC4/DMA.h ****     return (CyDmaSetInterruptCallback(DMA_CHANNEL, callback));
  66              		.loc 2 831 0
  67 000e 0549     		ldr	r1, .L3+8
  68 0010 0220     		movs	r0, #2
  69 0012 FFF7FEFF 		bl	CyDmaSetInterruptCallback
  70              	.LVL2:
  71              	.LBE5:
  72              	.LBE4:
  43:VolumeControl.c ****     
  44:VolumeControl.c ****     DMA_SetInterruptCallback(DmaIntHandler);
  45:VolumeControl.c **** 
  46:VolumeControl.c ****     /* Start ADC conversion. */
  47:VolumeControl.c ****     ADC_StartConvert();
  73              		.loc 1 47 0
  74 0016 FFF7FEFF 		bl	ADC_StartConvert
  75              	.LVL3:
  48:VolumeControl.c **** }
  76              		.loc 1 48 0
  77              		@ sp needed
  78 001a 10BD     		pop	{r4, pc}
  79              	.L4:
  80              		.align	2
  81              	.L3:
  82 001c 00000000 		.word	.LANCHOR0
  83 0020 80013A40 		.word	1077543296
  84 0024 00000000 		.word	DmaIntHandler
  85              		.cfi_endproc
  86              	.LFE35:
  87              		.size	VolumeControlInit, .-VolumeControlInit
  88              		.global	__aeabi_idiv
  89              		.section	.text.VolumeControlService,"ax",%progbits
  90              		.align	2
ARM GAS  C:\Users\TERENC~1\AppData\Local\Temp\ccK5a9K6.s 			page 18


  91              		.global	VolumeControlService
  92              		.code	16
  93              		.thumb_func
  94              		.type	VolumeControlService, %function
  95              	VolumeControlService:
  96              	.LFB36:
  49:VolumeControl.c **** 
  50:VolumeControl.c **** void VolumeControlService(void)
  51:VolumeControl.c **** {
  97              		.loc 1 51 0
  98              		.cfi_startproc
  99              		@ args = 0, pretend = 0, frame = 0
 100              		@ frame_needed = 0, uses_anonymous_args = 0
 101 0000 F0B5     		push	{r4, r5, r6, r7, lr}
 102              		.cfi_def_cfa_offset 20
 103              		.cfi_offset 4, -20
 104              		.cfi_offset 5, -16
 105              		.cfi_offset 6, -12
 106              		.cfi_offset 7, -8
 107              		.cfi_offset 14, -4
 108 0002 83B0     		sub	sp, sp, #12
 109              		.cfi_def_cfa_offset 32
 110              	.LVL4:
  52:VolumeControl.c ****     static int32 prevVol[vol_ctrl_both] = { 0, 0 };
  53:VolumeControl.c ****     int32 volume[vol_ctrl_both] = { 0, 0 };
  54:VolumeControl.c ****     int i;
  55:VolumeControl.c **** 
  56:VolumeControl.c ****     for (i = 0; i < vol_ctrl_both; i++)
 111              		.loc 1 56 0
 112 0004 0024     		movs	r4, #0
 113 0006 35E0     		b	.L6
 114              	.LVL5:
 115              	.L12:
  57:VolumeControl.c **** 	{
  58:VolumeControl.c ****         // Scale ADC reading to USBFS volume range
  59:VolumeControl.c ****         volume[i] = (adcSample[i] - ADC_MIN_READING[i]) * PC_VOLUME_MSB_MAX / ADC_READING_RANGE(i);
 116              		.loc 1 59 0
 117 0008 1C4E     		ldr	r6, .L14
 118 000a 6300     		lsls	r3, r4, #1
 119 000c 9A5F     		ldrsh	r2, [r3, r6]
 120 000e 1C4B     		ldr	r3, .L14+4
 121 0010 A500     		lsls	r5, r4, #2
 122 0012 E958     		ldr	r1, [r5, r3]
 123 0014 521A     		subs	r2, r2, r1
 124 0016 D001     		lsls	r0, r2, #7
 125 0018 801A     		subs	r0, r0, r2
 126 001a 5B19     		adds	r3, r3, r5
 127 001c 9B68     		ldr	r3, [r3, #8]
 128 001e 591A     		subs	r1, r3, r1
 129 0020 FFF7FEFF 		bl	__aeabi_idiv
 130              	.LVL6:
 131 0024 0700     		movs	r7, r0
  60:VolumeControl.c **** 
  61:VolumeControl.c ****         #if 0
  62:VolumeControl.c ****         /* Filter volume to be in the expected range */
  63:VolumeControl.c **** 		if((volume[i] > PC_VOLUME_MSB_MIN) && (volume[i] <= PC_VOLUME_MSB_MAX))
  64:VolumeControl.c **** 		{
ARM GAS  C:\Users\TERENC~1\AppData\Local\Temp\ccK5a9K6.s 			page 19


  65:VolumeControl.c **** 			volume[i] = (uint8)(((volume[i] - PC_VOLUME_MSB_MIN) * CODEC_HP_VOLUME_MAX) / (PC_VOLUME_MSB_MAX
  66:VolumeControl.c **** 		}
  67:VolumeControl.c **** 		else
  68:VolumeControl.c **** 		{
  69:VolumeControl.c **** 			/* Set volume to 0 if the volume from PC is not in expected range */
  70:VolumeControl.c **** 			volume[i] = 0;
  71:VolumeControl.c **** 		}
  72:VolumeControl.c ****         #endif
  73:VolumeControl.c **** 
  74:VolumeControl.c ****         if (volume[i] != prevVol[i])
 132              		.loc 1 74 0
 133 0026 7519     		adds	r5, r6, r5
 134 0028 6B68     		ldr	r3, [r5, #4]
 135 002a 9842     		cmp	r0, r3
 136 002c 21D0     		beq	.L7
  75:VolumeControl.c ****         {
  76:VolumeControl.c ****             /* Update the codec volume */
  77:VolumeControl.c ****             D_PRINTF(DEBUG, "%s volume knob change %ld -> %ld\n", (i == vol_ctrl_right) ? "Right" :
 137              		.loc 1 77 0
 138 002e 154A     		ldr	r2, .L14+8
 139 0030 1268     		ldr	r2, [r2]
 140 0032 002A     		cmp	r2, #0
 141 0034 10D0     		beq	.L8
 142              		.loc 1 77 0 is_stmt 0 discriminator 1
 143 0036 527C     		ldrb	r2, [r2, #17]
 144 0038 9207     		lsls	r2, r2, #30
 145 003a 0DD0     		beq	.L8
 146              		.loc 1 77 0 discriminator 2
 147 003c 002C     		cmp	r4, #0
 148 003e 01D1     		bne	.L13
 149              		.loc 1 77 0
 150 0040 114A     		ldr	r2, .L14+12
 151 0042 00E0     		b	.L9
 152              	.L13:
 153 0044 114A     		ldr	r2, .L14+16
 154              	.L9:
 155              		.loc 1 77 0 discriminator 6
 156 0046 124D     		ldr	r5, .L14+20
 157 0048 0097     		str	r7, [sp]
 158 004a 1249     		ldr	r1, .L14+24
 159 004c 2800     		movs	r0, r5
 160 004e FFF7FEFF 		bl	sprintf
 161              	.LVL7:
 162 0052 2800     		movs	r0, r5
 163 0054 FFF7FEFF 		bl	UART_UartPutString
 164              	.LVL8:
 165              	.L8:
  78:VolumeControl.c ****             
  79:VolumeControl.c ****             if (i == vol_ctrl_right)
 166              		.loc 1 79 0 is_stmt 1
 167 0058 002C     		cmp	r4, #0
 168 005a 03D1     		bne	.L10
  80:VolumeControl.c ****             {
  81:VolumeControl.c ****     		    Codec_AdjustBothHeadphoneVolumeLevel(volume[i]);
 169              		.loc 1 81 0
 170 005c F8B2     		uxtb	r0, r7
 171 005e FFF7FEFF 		bl	Codec_AdjustBothHeadphoneVolumeLevel
ARM GAS  C:\Users\TERENC~1\AppData\Local\Temp\ccK5a9K6.s 			page 20


 172              	.LVL9:
 173 0062 02E0     		b	.L11
 174              	.L10:
  82:VolumeControl.c ****             }
  83:VolumeControl.c ****             else
  84:VolumeControl.c ****             {
  85:VolumeControl.c ****                 pcm1770_volume_set_level(volume[i]);
 175              		.loc 1 85 0
 176 0064 F8B2     		uxtb	r0, r7
 177 0066 FFF7FEFF 		bl	pcm1770_volume_set_level
 178              	.LVL10:
 179              	.L11:
  86:VolumeControl.c ****             }
  87:VolumeControl.c ****             prevVol[i] = volume[i];
 180              		.loc 1 87 0
 181 006a A300     		lsls	r3, r4, #2
 182 006c 034A     		ldr	r2, .L14
 183 006e D318     		adds	r3, r2, r3
 184 0070 5F60     		str	r7, [r3, #4]
 185              	.L7:
  56:VolumeControl.c **** 	{
 186              		.loc 1 56 0 discriminator 2
 187 0072 0134     		adds	r4, r4, #1
 188              	.LVL11:
 189              	.L6:
  56:VolumeControl.c **** 	{
 190              		.loc 1 56 0 is_stmt 0 discriminator 1
 191 0074 012C     		cmp	r4, #1
 192 0076 C7DD     		ble	.L12
  88:VolumeControl.c ****         }
  89:VolumeControl.c ****     }
  90:VolumeControl.c **** }
 193              		.loc 1 90 0 is_stmt 1
 194 0078 03B0     		add	sp, sp, #12
 195              		@ sp needed
 196              	.LVL12:
 197 007a F0BD     		pop	{r4, r5, r6, r7, pc}
 198              	.L15:
 199              		.align	2
 200              	.L14:
 201 007c 00000000 		.word	.LANCHOR0
 202 0080 00000000 		.word	.LANCHOR1
 203 0084 00000000 		.word	cal_data
 204 0088 00000000 		.word	.LC2
 205 008c 08000000 		.word	.LC4
 206 0090 00000000 		.word	gbuf
 207 0094 10000000 		.word	.LC9
 208              		.cfi_endproc
 209              	.LFE36:
 210              		.size	VolumeControlService, .-VolumeControlService
 211              		.global	adcSample
 212              		.global	ADC_MAX_READING
 213              		.global	ADC_MIN_READING
 214              		.data
 215              		.align	2
 216              		.set	.LANCHOR1,. + 0
 217              		.type	ADC_MIN_READING, %object
ARM GAS  C:\Users\TERENC~1\AppData\Local\Temp\ccK5a9K6.s 			page 21


 218              		.size	ADC_MIN_READING, 8
 219              	ADC_MIN_READING:
 220 0000 FEFFFFFF 		.word	-2
 221 0004 FEFFFFFF 		.word	-2
 222              		.type	ADC_MAX_READING, %object
 223              		.size	ADC_MAX_READING, 8
 224              	ADC_MAX_READING:
 225 0008 FF070000 		.word	2047
 226 000c FF070000 		.word	2047
 227              		.section	.rodata.str1.4,"aMS",%progbits,1
 228              		.align	2
 229              	.LC2:
 230 0000 52696768 		.ascii	"Right\000"
 230      7400
 231 0006 0000     		.space	2
 232              	.LC4:
 233 0008 4C656674 		.ascii	"Left\000"
 233      00
 234 000d 000000   		.space	3
 235              	.LC9:
 236 0010 25732076 		.ascii	"%s volume knob change %ld -> %ld\012\000"
 236      6F6C756D 
 236      65206B6E 
 236      6F622063 
 236      68616E67 
 237              		.bss
 238              		.align	2
 239              		.set	.LANCHOR0,. + 0
 240              		.type	adcSample, %object
 241              		.size	adcSample, 4
 242              	adcSample:
 243 0000 00000000 		.space	4
 244              		.type	prevVol.6927, %object
 245              		.size	prevVol.6927, 8
 246              	prevVol.6927:
 247 0004 00000000 		.space	8
 247      00000000 
 248              		.text
 249              	.Letext0:
 250              		.file 3 "Generated_Source\\PSoC4/cytypes.h"
 251              		.file 4 "./Calibration.h"
 252              		.file 5 "Generated_Source\\PSoC4/CyDMA.h"
 253              		.file 6 "./Application.h"
 254              		.file 7 "Generated_Source\\PSoC4/ADC.h"
 255              		.file 8 "c:\\program files (x86)\\cypress\\psoc creator\\4.2\\psoc creator\\import\\gnu\\arm\\5.4.
 256              		.file 9 "Generated_Source\\PSoC4/UART_SPI_UART.h"
 257              		.file 10 "./Codec.h"
 258              		.file 11 "./pcm1770.h"
 259              		.file 12 "VolumeControl.h"