ARM GAS  C:\Users\Terence\AppData\Local\Temp\ccK5mKQ3.s 			page 1


   1              		.cpu cortex-m0
   2              		.fpu softvfp
   3              		.eabi_attribute 20, 1
   4              		.eabi_attribute 21, 1
   5              		.eabi_attribute 23, 3
   6              		.eabi_attribute 24, 1
   7              		.eabi_attribute 25, 1
   8              		.eabi_attribute 26, 1
   9              		.eabi_attribute 30, 1
  10              		.eabi_attribute 34, 0
  11              		.eabi_attribute 18, 4
  12              		.code	16
  13              		.file	"Application.c"
  14              		.text
  15              	.Ltext0:
  16              		.cfi_sections	.debug_frame
  17              		.section	.text.HandleUserInputs,"ax",%progbits
  18              		.align	2
  19              		.code	16
  20              		.thumb_func
  21              		.type	HandleUserInputs, %function
  22              	HandleUserInputs:
  23              	.LFB327:
  24              		.file 1 ".\\Application.c"
   1:.\Application.c **** /*******************************************************************************
   2:.\Application.c **** * File Name: Application.c
   3:.\Application.c **** *
   4:.\Application.c **** * Version 1.0
   5:.\Application.c **** *
   6:.\Application.c **** *  Description: This file contains all the application layer code which performs
   7:.\Application.c **** *               the user interface handling
   8:.\Application.c **** *
   9:.\Application.c **** *******************************************************************************
  10:.\Application.c **** * Copyright (2015), Cypress Semiconductor Corporation.
  11:.\Application.c **** *******************************************************************************
  12:.\Application.c **** * This software, including source code, documentation and related materials
  13:.\Application.c **** * ("Software") is owned by Cypress Semiconductor Corporation (Cypress) and is
  14:.\Application.c **** * protected by and subject to worldwide patent protection (United States and 
  15:.\Application.c **** * foreign), United States copyright laws and international treaty provisions. 
  16:.\Application.c **** * Cypress hereby grants to licensee a personal, non-exclusive, non-transferable
  17:.\Application.c **** * license to copy, use, modify, create derivative works of, and compile the 
  18:.\Application.c **** * Cypress source code and derivative works for the sole purpose of creating 
  19:.\Application.c **** * custom software in support of licensee product, such licensee product to be
  20:.\Application.c **** * used only in conjunction with Cypress's integrated circuit as specified in the
  21:.\Application.c **** * applicable agreement. Any reproduction, modification, translation, compilation,
  22:.\Application.c **** * or representation of this Software except as specified above is prohibited 
  23:.\Application.c **** * without the express written permission of Cypress.
  24:.\Application.c **** * 
  25:.\Application.c **** * Disclaimer: THIS SOFTWARE IS PROVIDED AS-IS, WITH NO WARRANTY OF ANY KIND, 
  26:.\Application.c **** * EXPRESS OR IMPLIED, INCLUDING, BUT NOT LIMITED TO, NONINFRINGEMENT, IMPLIED 
  27:.\Application.c **** * WARRANTIES OF MERCHANTABILITY AND FITNESS FOR A PARTICULAR PURPOSE.
  28:.\Application.c **** * Cypress reserves the right to make changes to the Software without notice. 
  29:.\Application.c **** * Cypress does not assume any liability arising out of the application or use
  30:.\Application.c **** * of Software or any product or circuit described in the Software. Cypress does
  31:.\Application.c **** * not authorize its products for use as critical components in any products 
  32:.\Application.c **** * where a malfunction or failure may reasonably be expected to result in 
  33:.\Application.c **** * significant injury or death ("ACTIVE Risk Product"). By including Cypress's 
ARM GAS  C:\Users\Terence\AppData\Local\Temp\ccK5mKQ3.s 			page 2


  34:.\Application.c **** * product in a ACTIVE Risk Product, the manufacturer of such system or application
  35:.\Application.c **** * assumes all risk of such use and in doing so indemnifies Cypress against all
  36:.\Application.c **** * liability. Use of this Software may be limited by and subject to the applicable
  37:.\Application.c **** * Cypress software license agreement.
  38:.\Application.c **** *******************************************************************************/
  39:.\Application.c **** #include <Application.h>
  40:.\Application.c **** #include <AudioControl.h>
  41:.\Application.c **** #include <Config.h>
  42:.\Application.c **** #include <project.h>
  43:.\Application.c **** #include <Interrupts.h>
  44:.\Application.c **** #include <stdio.h>
  45:.\Application.c **** #include <USBInterface.h>
  46:.\Application.c **** #include <Gesture.h>
  47:.\Application.c **** #include <Codec.h>
  48:.\Application.c **** 
  49:.\Application.c **** static void HandleUserInputs(uint32 gesture);
  50:.\Application.c **** 
  51:.\Application.c **** 
  52:.\Application.c **** extern CYPDATA uint8 audioSource;
  53:.\Application.c **** extern CYDATA uint8 auxConfigured;
  54:.\Application.c **** 
  55:.\Application.c **** extern uint32 accSliderDelta;
  56:.\Application.c **** 
  57:.\Application.c **** uint8 playlistControlReport;
  58:.\Application.c **** uint8 prevReport = 0;
  59:.\Application.c **** uint8 audioControlStatus;
  60:.\Application.c **** uint8 reportClearFlag;
  61:.\Application.c **** 
  62:.\Application.c **** extern volatile uint8 USBFS_currentVolume[];
  63:.\Application.c **** extern volatile uint8 USBFS_currentMute;
  64:.\Application.c **** extern CYPDATA uint8 newRate;
  65:.\Application.c **** 
  66:.\Application.c **** 
  67:.\Application.c **** /*******************************************************************************
  68:.\Application.c **** * Function Name: InitApp
  69:.\Application.c **** ********************************************************************************
  70:.\Application.c **** * Summary:
  71:.\Application.c **** *        This function configures the application layer hardware modules and
  72:.\Application.c **** *        clocks to be in sync with the audio clock updates done in 
  73:.\Application.c **** *        InitializeAudioPath API
  74:.\Application.c **** *
  75:.\Application.c **** * Parameters:
  76:.\Application.c **** *  void
  77:.\Application.c **** *
  78:.\Application.c **** * Return:
  79:.\Application.c **** *  void
  80:.\Application.c **** *
  81:.\Application.c **** *******************************************************************************/
  82:.\Application.c **** void InitApp(void)
  83:.\Application.c **** {
  84:.\Application.c ****     /* Configure CPU/DMA to be in round robin mode while accessing memory */
  85:.\Application.c **** 	CY_SET_REG32((void *) 0x40100038, CY_GET_REG32((void *) 0x40100038) | 0x22222222);     
  86:.\Application.c **** 	
  87:.\Application.c **** 	CyGlobalIntEnable;
  88:.\Application.c **** 	
  89:.\Application.c ****     #ifdef TXDEBUG
  90:.\Application.c **** 		UART_Start();
ARM GAS  C:\Users\Terence\AppData\Local\Temp\ccK5mKQ3.s 			page 3


  91:.\Application.c **** 		if(CySysGetResetReason(CY_SYS_RESET_SW) != CY_SYS_RESET_SW)
  92:.\Application.c **** 		{
  93:.\Application.c **** 			PRINT("\r\nApp Started...\r\n");
  94:.\Application.c **** 		}
  95:.\Application.c **** 		else
  96:.\Application.c **** 		{
  97:.\Application.c **** 			PRINT("\r\nApp Restarted after SW reset...\r\n");
  98:.\Application.c **** 		}
  99:.\Application.c **** 	#endif /* #ifdef TXDEBUG */
 100:.\Application.c **** 
 101:.\Application.c ****     /* Start I2C Master */
 102:.\Application.c ****     CodecI2CM_Start();	
 103:.\Application.c **** 	
 104:.\Application.c **** 	if(Codec_Init() == 0)
 105:.\Application.c **** 	{
 106:.\Application.c **** 		PRINT("Codec comm works!... \r\n");
 107:.\Application.c **** 	}
 108:.\Application.c **** 	else
 109:.\Application.c **** 	{
 110:.\Application.c **** 		PRINT("Codec comm DOESN'T work!... \r\n");
 111:.\Application.c **** 	}
 112:.\Application.c **** 	
 113:.\Application.c **** 	Update_VolumeAudioOut();
 114:.\Application.c **** 	
 115:.\Application.c **** 	I2S_Start();	
 116:.\Application.c **** 	
 117:.\Application.c **** 	USBFS_Start(PC_MAC_AUDIO_WITH_VOLUME_DEVICE, USBFS_5V_OPERATION);
 118:.\Application.c ****     USBDeviceState = USB_INIT_AFTER_ENUMERATION_REQUIRED;
 119:.\Application.c **** 	
 120:.\Application.c **** 	/* Enables SOF interrupt source */
 121:.\Application.c ****     USBFS_INTR_SIE_MASK_REG |= USBFS_INTR_SIE_SOF_INTR;
 122:.\Application.c **** 
 123:.\Application.c **** 	while(USBFS_GetConfiguration());
 124:.\Application.c **** 	
 125:.\Application.c **** 	CyIntSetPriority(CYDMA_INTR_NUMBER, 0);
 126:.\Application.c **** 	
 127:.\Application.c **** 	USBFS_LoadInEP(MAC_PC_HID_CONTROL_ENDPOINT, &playlistControlReport, sizeof(playlistControlReport))
 128:.\Application.c **** 	USBFS_LoadInEP(MAC_PC_HID_CONTROL_ENDPOINT, USBFS_NULL, sizeof(playlistControlReport) );	
 129:.\Application.c **** 	
 130:.\Application.c **** 	Async_Feedback_Counter_Start();
 131:.\Application.c **** 	
 132:.\Application.c **** 	CapSense_Start();
 133:.\Application.c **** 	CapSense_InitializeAllBaselines();
 134:.\Application.c **** 	CapSense_ScanEnabledWidgets();
 135:.\Application.c **** }
 136:.\Application.c **** 
 137:.\Application.c **** 
 138:.\Application.c **** /*******************************************************************************
 139:.\Application.c **** * Function Name: RunApplication
 140:.\Application.c **** ********************************************************************************
 141:.\Application.c **** * Summary:
 142:.\Application.c **** *      This function runs the application layer firmware of handling CapSense and
 143:.\Application.c **** *       volume control.
 144:.\Application.c **** *   
 145:.\Application.c **** * Parameters:
 146:.\Application.c **** *  void
 147:.\Application.c **** *
ARM GAS  C:\Users\Terence\AppData\Local\Temp\ccK5mKQ3.s 			page 4


 148:.\Application.c **** * Return:
 149:.\Application.c **** *  void
 150:.\Application.c **** *
 151:.\Application.c **** *******************************************************************************/
 152:.\Application.c **** void RunApplication(void)
 153:.\Application.c **** {
 154:.\Application.c ****     uint32 gesture = 0;
 155:.\Application.c **** 	           
 156:.\Application.c ****     if(!CapSense_IsBusy()) /* scan all CapSense buttons and sliders */
 157:.\Application.c ****     {
 158:.\Application.c ****         CapSense_UpdateEnabledBaselines(); /* update the baseline for the CapSense algorithm */
 159:.\Application.c **** 		gesture = DetectGesture(CapSense_CheckIsAnyWidgetActive());
 160:.\Application.c ****         CapSense_ScanEnabledWidgets();
 161:.\Application.c **** 		
 162:.\Application.c **** 		if(USBFS_GetConfiguration() == TRUE)
 163:.\Application.c **** 		{
 164:.\Application.c **** 			/* Handle CapSense button and slider user inputs */
 165:.\Application.c **** 	   	 	HandleUserInputs(gesture); 
 166:.\Application.c **** 		}
 167:.\Application.c ****     }
 168:.\Application.c ****     
 169:.\Application.c **** 	if(USBFS_GetConfiguration() == TRUE)
 170:.\Application.c **** 	{
 171:.\Application.c **** 		/* Update the volume data */
 172:.\Application.c **** 		Update_VolumeAudioOut();		
 173:.\Application.c **** 	}
 174:.\Application.c **** }
 175:.\Application.c **** 
 176:.\Application.c **** 
 177:.\Application.c **** /*******************************************************************************
 178:.\Application.c **** * Function Name: HandleUserInputs
 179:.\Application.c **** ********************************************************************************
 180:.\Application.c **** * Summary:  Handles CapSense button user inputs for next/previous/play track 
 181:.\Application.c **** *           functions.
 182:.\Application.c **** *
 183:.\Application.c **** * Parameters:
 184:.\Application.c **** *  void
 185:.\Application.c **** *
 186:.\Application.c **** * Return:
 187:.\Application.c **** *  void
 188:.\Application.c **** *
 189:.\Application.c **** *******************************************************************************/
 190:.\Application.c **** static void HandleUserInputs(uint32 gesture)
 191:.\Application.c **** {    
  25              		.loc 1 191 0
  26              		.cfi_startproc
  27              	.LVL0:
  28 0000 10B5     		push	{r4, lr}
  29              		.cfi_def_cfa_offset 8
  30              		.cfi_offset 4, -8
  31              		.cfi_offset 14, -4
  32 0002 041C     		mov	r4, r0
 192:.\Application.c **** 	static uint32 volUpdateThreshold = 0;
 193:.\Application.c **** 	static uint8 prevReport;	
 194:.\Application.c **** 	static bool volumeReport = false;
 195:.\Application.c **** 	#if (UP_BUTTON_FUNCTION == MIC_MUTE)
 196:.\Application.c **** 		static bool micMute;
ARM GAS  C:\Users\Terence\AppData\Local\Temp\ccK5mKQ3.s 			page 5


 197:.\Application.c **** 	#endif
 198:.\Application.c **** 	#ifndef VOLUME_BTN_UPDATE
 199:.\Application.c **** 		int32 volume;
 200:.\Application.c **** 	#endif
 201:.\Application.c **** 	
 202:.\Application.c **** 	switch(capsenseButtonStatus)
  33              		.loc 1 202 0
  34 0004 644B     		ldr	r3, .L24
  35 0006 1A68     		ldr	r2, [r3]
  36 0008 102A     		cmp	r2, #16
  37 000a 2FD8     		bhi	.L2
  38 000c 9300     		lsl	r3, r2, #2
  39 000e 634A     		ldr	r2, .L24+4
  40 0010 D358     		ldr	r3, [r2, r3]
  41 0012 9F46     		mov	pc, r3
  42              		.section	.rodata
  43              		.align	2
  44              	.L4:
  45 0000 6C000000 		.word	.L2
  46 0004 14000000 		.word	.L3
  47 0008 26000000 		.word	.L5
  48 000c 6C000000 		.word	.L2
  49 0010 38000000 		.word	.L6
  50 0014 6C000000 		.word	.L2
  51 0018 6C000000 		.word	.L2
  52 001c 6C000000 		.word	.L2
  53 0020 4A000000 		.word	.L7
  54 0024 6C000000 		.word	.L2
  55 0028 6C000000 		.word	.L2
  56 002c 6C000000 		.word	.L2
  57 0030 6C000000 		.word	.L2
  58 0034 6C000000 		.word	.L2
  59 0038 6C000000 		.word	.L2
  60 003c 6C000000 		.word	.L2
  61 0040 5C000000 		.word	.L8
  62              		.section	.text.HandleUserInputs
  63              	.L3:
 203:.\Application.c **** 	{
 204:.\Application.c **** 		case LEFT_BTN_MASK:		
 205:.\Application.c **** 			audioControlStatus |= MAC_PC_PREVIOUS_TRACK_MASK; 
  64              		.loc 1 205 0
  65 0014 624A     		ldr	r2, .L24+8
  66 0016 1178     		ldrb	r1, [r2]
  67 0018 0423     		mov	r3, #4
  68 001a 0B43     		orr	r3, r1
  69 001c 1370     		strb	r3, [r2]
 206:.\Application.c **** 			PRINT("Prev Track\n\r");
  70              		.loc 1 206 0
  71 001e 6148     		ldr	r0, .L24+12
  72              	.LVL1:
  73 0020 FFF7FEFF 		bl	UART_UartPutString
  74              	.LVL2:
 207:.\Application.c **** 		break; 
  75              		.loc 1 207 0
  76 0024 22E0     		b	.L2
  77              	.LVL3:
  78              	.L5:
ARM GAS  C:\Users\Terence\AppData\Local\Temp\ccK5mKQ3.s 			page 6


 208:.\Application.c **** 		
 209:.\Application.c **** 		case RIGHT_BTN_MASK:
 210:.\Application.c **** 			audioControlStatus |= MAC_PC_NEXT_TRACK_MASK; 
  79              		.loc 1 210 0
  80 0026 5E4A     		ldr	r2, .L24+8
  81 0028 1178     		ldrb	r1, [r2]
  82 002a 0223     		mov	r3, #2
  83 002c 0B43     		orr	r3, r1
  84 002e 1370     		strb	r3, [r2]
 211:.\Application.c **** 			PRINT("Next Track\n\r");
  85              		.loc 1 211 0
  86 0030 5D48     		ldr	r0, .L24+16
  87              	.LVL4:
  88 0032 FFF7FEFF 		bl	UART_UartPutString
  89              	.LVL5:
 212:.\Application.c **** 			break;
  90              		.loc 1 212 0
  91 0036 19E0     		b	.L2
  92              	.LVL6:
  93              	.L6:
 213:.\Application.c **** 			
 214:.\Application.c **** 		case UP_BTN_MASK:
 215:.\Application.c **** 			
 216:.\Application.c **** 			#if (UP_BUTTON_FUNCTION == VOLUME_MUTE)
 217:.\Application.c **** 				audioControlStatus |= MAC_PC_MUTE_MASK; 
  94              		.loc 1 217 0
  95 0038 594A     		ldr	r2, .L24+8
  96 003a 1178     		ldrb	r1, [r2]
  97 003c 1023     		mov	r3, #16
  98 003e 0B43     		orr	r3, r1
  99 0040 1370     		strb	r3, [r2]
 218:.\Application.c **** 				PRINT("Mute\n\r");
 100              		.loc 1 218 0
 101 0042 5A48     		ldr	r0, .L24+20
 102              	.LVL7:
 103 0044 FFF7FEFF 		bl	UART_UartPutString
 104              	.LVL8:
 219:.\Application.c **** 			#else
 220:.\Application.c **** 				if(micMute == true)
 221:.\Application.c **** 				{
 222:.\Application.c **** 					Codec_MuteMic(false);
 223:.\Application.c **** 					micMute = false;
 224:.\Application.c **** 					PRINT("MIC Unmute \n\r");
 225:.\Application.c **** 				}
 226:.\Application.c **** 				else
 227:.\Application.c **** 				{
 228:.\Application.c **** 					Codec_MuteMic(true);
 229:.\Application.c **** 					micMute = true;
 230:.\Application.c **** 					PRINT("MIC Mute \n\r");
 231:.\Application.c **** 				}
 232:.\Application.c **** 			#endif
 233:.\Application.c **** 			break; 
 105              		.loc 1 233 0
 106 0048 10E0     		b	.L2
 107              	.LVL9:
 108              	.L7:
 234:.\Application.c **** 			
ARM GAS  C:\Users\Terence\AppData\Local\Temp\ccK5mKQ3.s 			page 7


 235:.\Application.c **** 		case DOWN_BTN_MASK:
 236:.\Application.c **** 			audioControlStatus |= MAC_PC_STOP_MASK; 
 109              		.loc 1 236 0
 110 004a 554A     		ldr	r2, .L24+8
 111 004c 1178     		ldrb	r1, [r2]
 112 004e 0823     		mov	r3, #8
 113 0050 0B43     		orr	r3, r1
 114 0052 1370     		strb	r3, [r2]
 237:.\Application.c **** 			PRINT("Stop \n\r");
 115              		.loc 1 237 0
 116 0054 5648     		ldr	r0, .L24+24
 117              	.LVL10:
 118 0056 FFF7FEFF 		bl	UART_UartPutString
 119              	.LVL11:
 238:.\Application.c **** 			break;
 120              		.loc 1 238 0
 121 005a 07E0     		b	.L2
 122              	.LVL12:
 123              	.L8:
 239:.\Application.c **** 			
 240:.\Application.c **** 		case CENTRE_BTN_MASK:
 241:.\Application.c **** 			audioControlStatus |= MAC_PC_PLAY_PAUSE_MASK; 
 124              		.loc 1 241 0
 125 005c 504A     		ldr	r2, .L24+8
 126 005e 1178     		ldrb	r1, [r2]
 127 0060 0123     		mov	r3, #1
 128 0062 0B43     		orr	r3, r1
 129 0064 1370     		strb	r3, [r2]
 242:.\Application.c **** 			PRINT("Play/Pause\n\r");
 130              		.loc 1 242 0
 131 0066 5348     		ldr	r0, .L24+28
 132              	.LVL13:
 133 0068 FFF7FEFF 		bl	UART_UartPutString
 134              	.LVL14:
 135              	.L2:
 243:.\Application.c **** 			break;
 244:.\Application.c **** 			
 245:.\Application.c **** 		default:
 246:.\Application.c **** 			break;
 247:.\Application.c **** 	}
 248:.\Application.c **** 	
 249:.\Application.c **** 	switch(gesture)
 136              		.loc 1 249 0
 137 006c 601F     		sub	r0, r4, #5
 138 006e 0828     		cmp	r0, #8
 139 0070 4CD8     		bhi	.L9
 140 0072 8000     		lsl	r0, r0, #2
 141 0074 504B     		ldr	r3, .L24+32
 142 0076 1B58     		ldr	r3, [r3, r0]
 143 0078 9F46     		mov	pc, r3
 144              		.section	.rodata
 145              		.align	2
 146              	.L11:
 147 0044 7A000000 		.word	.L10
 148 0048 8C000000 		.word	.L12
 149 004c 9E000000 		.word	.L13
 150 0050 CA000000 		.word	.L14
ARM GAS  C:\Users\Terence\AppData\Local\Temp\ccK5mKQ3.s 			page 8


 151 0054 0C010000 		.word	.L9
 152 0058 0C010000 		.word	.L9
 153 005c 0C010000 		.word	.L9
 154 0060 F6000000 		.word	.L15
 155 0064 F6000000 		.word	.L15
 156              		.section	.text.HandleUserInputs
 157              	.L10:
 250:.\Application.c **** 	{	
 251:.\Application.c **** 		case GESTURE_LEFT_SWIPE:
 252:.\Application.c **** 			/* Left swipe sends out Previous Track command to computer */
 253:.\Application.c **** 			PRINT("Left Swipe - Prev Track\n\r");
 158              		.loc 1 253 0
 159 007a 5048     		ldr	r0, .L24+36
 160 007c FFF7FEFF 		bl	UART_UartPutString
 161              	.LVL15:
 254:.\Application.c **** 			audioControlStatus |= MAC_PC_PREVIOUS_TRACK_MASK; 
 162              		.loc 1 254 0
 163 0080 474A     		ldr	r2, .L24+8
 164 0082 1178     		ldrb	r1, [r2]
 165 0084 0423     		mov	r3, #4
 166 0086 0B43     		orr	r3, r1
 167 0088 1370     		strb	r3, [r2]
 255:.\Application.c **** 			break;
 168              		.loc 1 255 0
 169 008a 42E0     		b	.L16
 170              	.L12:
 256:.\Application.c **** 			
 257:.\Application.c **** 		case GESTURE_RIGHT_SWIPE:
 258:.\Application.c **** 			/* Right swipe sends out Next Track command to computer */
 259:.\Application.c **** 			PRINT("Right Swipe - Next Track\n\r");
 171              		.loc 1 259 0
 172 008c 4C48     		ldr	r0, .L24+40
 173 008e FFF7FEFF 		bl	UART_UartPutString
 174              	.LVL16:
 260:.\Application.c **** 			audioControlStatus |= MAC_PC_NEXT_TRACK_MASK; 
 175              		.loc 1 260 0
 176 0092 434A     		ldr	r2, .L24+8
 177 0094 1178     		ldrb	r1, [r2]
 178 0096 0223     		mov	r3, #2
 179 0098 0B43     		orr	r3, r1
 180 009a 1370     		strb	r3, [r2]
 261:.\Application.c **** 			break;
 181              		.loc 1 261 0
 182 009c 39E0     		b	.L16
 183              	.L13:
 262:.\Application.c **** 			
 263:.\Application.c **** 		case GESTURE_UP_SWIPE:
 264:.\Application.c **** 			/* Up swipe sends out Volume up command to computer */
 265:.\Application.c **** 			if(volUpdateThreshold == 0)
 184              		.loc 1 265 0
 185 009e 494B     		ldr	r3, .L24+44
 186 00a0 1B68     		ldr	r3, [r3]
 187 00a2 002B     		cmp	r3, #0
 188 00a4 07D1     		bne	.L17
 266:.\Application.c **** 			{
 267:.\Application.c **** 				/* Send a Volume up command every time the volUpdateThreshold crosses threshold 
 268:.\Application.c **** 				- This is done to reduce sudden increase in volume because of the gesture */
ARM GAS  C:\Users\Terence\AppData\Local\Temp\ccK5mKQ3.s 			page 9


 269:.\Application.c **** 				PRINT("Up Swipe - Vol Up\n\r");
 189              		.loc 1 269 0
 190 00a6 4848     		ldr	r0, .L24+48
 191 00a8 FFF7FEFF 		bl	UART_UartPutString
 192              	.LVL17:
 270:.\Application.c **** 				audioControlStatus |= MAC_PC_VOL_UP_MASK;
 193              		.loc 1 270 0
 194 00ac 3C4A     		ldr	r2, .L24+8
 195 00ae 1178     		ldrb	r1, [r2]
 196 00b0 2023     		mov	r3, #32
 197 00b2 0B43     		orr	r3, r1
 198 00b4 1370     		strb	r3, [r2]
 199              	.L17:
 271:.\Application.c **** 			}
 272:.\Application.c **** 			
 273:.\Application.c **** 			volUpdateThreshold++;
 200              		.loc 1 273 0
 201 00b6 434A     		ldr	r2, .L24+44
 202 00b8 1368     		ldr	r3, [r2]
 203 00ba 0133     		add	r3, r3, #1
 204 00bc 1360     		str	r3, [r2]
 274:.\Application.c **** 			
 275:.\Application.c **** 			if(volUpdateThreshold >= VOL_CHANGE_UPDATE_FREQ)
 205              		.loc 1 275 0
 206 00be 312B     		cmp	r3, #49
 207 00c0 27D9     		bls	.L16
 276:.\Application.c **** 			{				
 277:.\Application.c **** 				volUpdateThreshold = 0;				
 208              		.loc 1 277 0
 209 00c2 0022     		mov	r2, #0
 210 00c4 3F4B     		ldr	r3, .L24+44
 211 00c6 1A60     		str	r2, [r3]
 212 00c8 23E0     		b	.L16
 213              	.L14:
 278:.\Application.c **** 			}
 279:.\Application.c **** 			
 280:.\Application.c **** 			break;
 281:.\Application.c **** 			
 282:.\Application.c **** 		case GESTURE_DOWN_SWIPE:
 283:.\Application.c **** 			/* Down swipe sends out Volume down command to computer */
 284:.\Application.c **** 			if(volUpdateThreshold == 0)
 214              		.loc 1 284 0
 215 00ca 3E4B     		ldr	r3, .L24+44
 216 00cc 1B68     		ldr	r3, [r3]
 217 00ce 002B     		cmp	r3, #0
 218 00d0 07D1     		bne	.L18
 285:.\Application.c **** 			{
 286:.\Application.c **** 				/* Send a Volume down command every time the volUpdateThreshold crosses threshold 
 287:.\Application.c **** 				- This is done to reduce sudden decrease in volume because of the gesture */
 288:.\Application.c **** 				PRINT("Down Swipe - Vol Down\n\r");
 219              		.loc 1 288 0
 220 00d2 3E48     		ldr	r0, .L24+52
 221 00d4 FFF7FEFF 		bl	UART_UartPutString
 222              	.LVL18:
 289:.\Application.c **** 				audioControlStatus |= MAC_PC_VOL_DOWN_MASK;
 223              		.loc 1 289 0
 224 00d8 314A     		ldr	r2, .L24+8
ARM GAS  C:\Users\Terence\AppData\Local\Temp\ccK5mKQ3.s 			page 10


 225 00da 1178     		ldrb	r1, [r2]
 226 00dc 4023     		mov	r3, #64
 227 00de 0B43     		orr	r3, r1
 228 00e0 1370     		strb	r3, [r2]
 229              	.L18:
 290:.\Application.c **** 			}
 291:.\Application.c **** 			
 292:.\Application.c **** 			volUpdateThreshold++;
 230              		.loc 1 292 0
 231 00e2 384A     		ldr	r2, .L24+44
 232 00e4 1368     		ldr	r3, [r2]
 233 00e6 0133     		add	r3, r3, #1
 234 00e8 1360     		str	r3, [r2]
 293:.\Application.c **** 			
 294:.\Application.c **** 			if(volUpdateThreshold >= VOL_CHANGE_UPDATE_FREQ)
 235              		.loc 1 294 0
 236 00ea 312B     		cmp	r3, #49
 237 00ec 11D9     		bls	.L16
 295:.\Application.c **** 			{				
 296:.\Application.c **** 				volUpdateThreshold = 0;				
 238              		.loc 1 296 0
 239 00ee 0022     		mov	r2, #0
 240 00f0 344B     		ldr	r3, .L24+44
 241 00f2 1A60     		str	r2, [r3]
 242 00f4 0DE0     		b	.L16
 243              	.L15:
 297:.\Application.c **** 			}
 298:.\Application.c **** 		break;			
 299:.\Application.c **** 		
 300:.\Application.c **** 		case GESTURE_OUTER_CLKWISE:
 301:.\Application.c **** 		case GESTURE_OUTER_COUNTER_CLKWISE:
 302:.\Application.c **** 			if(volumeReport == false)
 244              		.loc 1 302 0
 245 00f6 334B     		ldr	r3, .L24+44
 246 00f8 1B79     		ldrb	r3, [r3, #4]
 247 00fa 002B     		cmp	r3, #0
 248 00fc 09D1     		bne	.L16
 303:.\Application.c **** 			{
 304:.\Application.c **** 				volumeReport = true;
 249              		.loc 1 304 0
 250 00fe 0122     		mov	r2, #1
 251 0100 304B     		ldr	r3, .L24+44
 252 0102 1A71     		strb	r2, [r3, #4]
 305:.\Application.c **** 				accTheta = 0;
 253              		.loc 1 305 0
 254 0104 0022     		mov	r2, #0
 255 0106 324B     		ldr	r3, .L24+56
 256 0108 1A60     		str	r2, [r3]
 257 010a 02E0     		b	.L16
 258              	.L9:
 306:.\Application.c **** 			}
 307:.\Application.c **** 			
 308:.\Application.c **** 		break;
 309:.\Application.c **** 			
 310:.\Application.c **** 			
 311:.\Application.c **** 		default:
 312:.\Application.c **** 			volUpdateThreshold = 0;
ARM GAS  C:\Users\Terence\AppData\Local\Temp\ccK5mKQ3.s 			page 11


 259              		.loc 1 312 0
 260 010c 0022     		mov	r2, #0
 261 010e 2D4B     		ldr	r3, .L24+44
 262 0110 1A60     		str	r2, [r3]
 263              	.L16:
 313:.\Application.c **** 			break;
 314:.\Application.c **** 	}	
 315:.\Application.c **** 	
 316:.\Application.c ****     /* Volume update for circular gestures - Outer clockwise and counter-clockwise */
 317:.\Application.c **** 	/* Check the volume report flag - this flag is set only when a circular gesture is detected on the
 318:.\Application.c **** 	if(volumeReport == true)
 264              		.loc 1 318 0
 265 0112 2C4B     		ldr	r3, .L24+44
 266 0114 1B79     		ldrb	r3, [r3, #4]
 267 0116 002B     		cmp	r3, #0
 268 0118 20D0     		beq	.L19
 319:.\Application.c **** 	{
 320:.\Application.c **** 		/* Process the gestures only if the slider is active ==> radius > 2 */
 321:.\Application.c **** 		if((radius != INVALID_RADIUS) && (radius > 2))
 269              		.loc 1 321 0
 270 011a 2E4B     		ldr	r3, .L24+60
 271 011c 1B68     		ldr	r3, [r3]
 272 011e FF2B     		cmp	r3, #255
 273 0120 19D0     		beq	.L20
 274              		.loc 1 321 0 is_stmt 0 discriminator 1
 275 0122 022B     		cmp	r3, #2
 276 0124 17D9     		bls	.L20
 322:.\Application.c **** 		{						
 323:.\Application.c **** 			/* Check accumulated theta value
 324:.\Application.c **** 				Accumulated theta is positive for counter-clockwise
 325:.\Application.c **** 				Once accumulated theta crosses a set threshold send a Volume down command */
 326:.\Application.c **** 			if(accTheta > VOL_CHANGE_THRESHOLD)
 277              		.loc 1 326 0 is_stmt 1
 278 0126 2A4B     		ldr	r3, .L24+56
 279 0128 1B68     		ldr	r3, [r3]
 280 012a 062B     		cmp	r3, #6
 281 012c 08DD     		ble	.L21
 327:.\Application.c **** 			{
 328:.\Application.c **** 				accTheta -= VOL_CHANGE_THRESHOLD;
 282              		.loc 1 328 0
 283 012e 063B     		sub	r3, r3, #6
 284 0130 274A     		ldr	r2, .L24+56
 285 0132 1360     		str	r3, [r2]
 329:.\Application.c **** 				audioControlStatus |= MAC_PC_VOL_DOWN_MASK;
 286              		.loc 1 329 0
 287 0134 1A4A     		ldr	r2, .L24+8
 288 0136 1178     		ldrb	r1, [r2]
 289 0138 4023     		mov	r3, #64
 290 013a 0B43     		orr	r3, r1
 291 013c 1370     		strb	r3, [r2]
 292 013e 0DE0     		b	.L19
 293              	.L21:
 330:.\Application.c **** 			}
 331:.\Application.c **** 			
 332:.\Application.c **** 			/* Accumulated theta is negative for clockwise
 333:.\Application.c **** 				Once accumulated theta crosses a set threshold send a Volume up command */
 334:.\Application.c **** 			else if(accTheta < -VOL_CHANGE_THRESHOLD)
ARM GAS  C:\Users\Terence\AppData\Local\Temp\ccK5mKQ3.s 			page 12


 294              		.loc 1 334 0
 295 0140 9A1D     		add	r2, r3, #6
 296 0142 0BDA     		bge	.L19
 335:.\Application.c **** 			{
 336:.\Application.c **** 				accTheta += VOL_CHANGE_THRESHOLD;
 297              		.loc 1 336 0
 298 0144 0633     		add	r3, r3, #6
 299 0146 224A     		ldr	r2, .L24+56
 300 0148 1360     		str	r3, [r2]
 337:.\Application.c **** 				audioControlStatus |= MAC_PC_VOL_UP_MASK;
 301              		.loc 1 337 0
 302 014a 154A     		ldr	r2, .L24+8
 303 014c 1178     		ldrb	r1, [r2]
 304 014e 2023     		mov	r3, #32
 305 0150 0B43     		orr	r3, r1
 306 0152 1370     		strb	r3, [r2]
 307 0154 02E0     		b	.L19
 308              	.L20:
 338:.\Application.c **** 			}			
 339:.\Application.c **** 		}
 340:.\Application.c **** 		/* If slider is not active, then clear the volumeReport flag */
 341:.\Application.c **** 		else
 342:.\Application.c **** 		{
 343:.\Application.c **** 			volumeReport = false;
 309              		.loc 1 343 0
 310 0156 0022     		mov	r2, #0
 311 0158 1A4B     		ldr	r3, .L24+44
 312 015a 1A71     		strb	r2, [r3, #4]
 313              	.L19:
 344:.\Application.c **** 		}
 345:.\Application.c **** 	}
 346:.\Application.c **** 	
 347:.\Application.c **** 	
 348:.\Application.c **** 
 349:.\Application.c **** 	/* If USB is configured and there is an event pending on the HID endpoint, send the HID report */
 350:.\Application.c ****     if((IsUSBConfigured()) && (USBFS_GetEPState(MAC_PC_HID_CONTROL_ENDPOINT) == USBFS_EVENT_PENDING
 314              		.loc 1 350 0
 315 015c FFF7FEFF 		bl	USBFS_GetConfiguration
 316              	.LVL19:
 317 0160 0028     		cmp	r0, #0
 318 0162 18D0     		beq	.L1
 319              		.loc 1 350 0 is_stmt 0 discriminator 1
 320 0164 0420     		mov	r0, #4
 321 0166 FFF7FEFF 		bl	USBFS_GetEPState
 322              	.LVL20:
 323 016a 0128     		cmp	r0, #1
 324 016c 13D1     		bne	.L1
 351:.\Application.c ****     {
 352:.\Application.c ****         /* Send report only if there is a change in data or if data is available */
 353:.\Application.c **** 		if((prevReport != audioControlStatus) || (audioControlStatus != 0))
 325              		.loc 1 353 0 is_stmt 1
 326 016e 154B     		ldr	r3, .L24+44
 327 0170 5A79     		ldrb	r2, [r3, #5]
 328 0172 0B4B     		ldr	r3, .L24+8
 329 0174 1B78     		ldrb	r3, [r3]
 330 0176 9A42     		cmp	r2, r3
 331 0178 01D1     		bne	.L23
ARM GAS  C:\Users\Terence\AppData\Local\Temp\ccK5mKQ3.s 			page 13


 332              		.loc 1 353 0 is_stmt 0 discriminator 1
 333 017a 002B     		cmp	r3, #0
 334 017c 0BD0     		beq	.L1
 335              	.L23:
 354:.\Application.c **** 		{			
 355:.\Application.c **** 			/* Update the report buffer with the data */
 356:.\Application.c **** 			playlistControlReport = audioControlStatus;
 336              		.loc 1 356 0 is_stmt 1
 337 017e 164A     		ldr	r2, .L24+64
 338 0180 1370     		strb	r3, [r2]
 357:.\Application.c **** 			
 358:.\Application.c **** 			/* Store the current data for next comparison */
 359:.\Application.c **** 			prevReport = audioControlStatus;				
 339              		.loc 1 359 0
 340 0182 104A     		ldr	r2, .L24+44
 341 0184 5371     		strb	r3, [r2, #5]
 360:.\Application.c **** 			
 361:.\Application.c **** 			/* Clear the report once sent */
 362:.\Application.c **** 			audioControlStatus = 0;
 342              		.loc 1 362 0
 343 0186 0022     		mov	r2, #0
 344 0188 054B     		ldr	r3, .L24+8
 345 018a 1A70     		strb	r2, [r3]
 363:.\Application.c **** 			
 364:.\Application.c **** 			/* Arm the endpoint */			
 365:.\Application.c **** 			USBFS_LoadInEP(MAC_PC_HID_CONTROL_ENDPOINT, USBFS_NULL, sizeof(playlistControlReport));
 346              		.loc 1 365 0
 347 018c 0420     		mov	r0, #4
 348 018e 0021     		mov	r1, #0
 349 0190 0132     		add	r2, r2, #1
 350 0192 FFF7FEFF 		bl	USBFS_LoadInEP
 351              	.LVL21:
 352              	.L1:
 366:.\Application.c **** 		}
 367:.\Application.c ****     }		
 368:.\Application.c **** 	
 369:.\Application.c **** }
 353              		.loc 1 369 0
 354              		@ sp needed
 355              	.LVL22:
 356 0196 10BD     		pop	{r4, pc}
 357              	.L25:
 358              		.align	2
 359              	.L24:
 360 0198 00000000 		.word	capsenseButtonStatus
 361 019c 00000000 		.word	.L4
 362 01a0 00000000 		.word	audioControlStatus
 363 01a4 00000000 		.word	.LC3
 364 01a8 10000000 		.word	.LC5
 365 01ac 20000000 		.word	.LC7
 366 01b0 28000000 		.word	.LC9
 367 01b4 30000000 		.word	.LC11
 368 01b8 44000000 		.word	.L11
 369 01bc 40000000 		.word	.LC14
 370 01c0 5C000000 		.word	.LC16
 371 01c4 00000000 		.word	.LANCHOR0
 372 01c8 78000000 		.word	.LC19
ARM GAS  C:\Users\Terence\AppData\Local\Temp\ccK5mKQ3.s 			page 14


 373 01cc 8C000000 		.word	.LC21
 374 01d0 00000000 		.word	accTheta
 375 01d4 00000000 		.word	radius
 376 01d8 00000000 		.word	playlistControlReport
 377              		.cfi_endproc
 378              	.LFE327:
 379              		.size	HandleUserInputs, .-HandleUserInputs
 380              		.global	__aeabi_idiv
 381              		.section	.text.Update_VolumeAudioOut,"ax",%progbits
 382              		.align	2
 383              		.global	Update_VolumeAudioOut
 384              		.code	16
 385              		.thumb_func
 386              		.type	Update_VolumeAudioOut, %function
 387              	Update_VolumeAudioOut:
 388              	.LFB328:
 370:.\Application.c **** 
 371:.\Application.c **** /*******************************************************************************
 372:.\Application.c **** * Function Name: Update_VolumeAudioOut
 373:.\Application.c **** ********************************************************************************
 374:.\Application.c **** * Summary:  Updates the volume from PC to codec
 375:.\Application.c **** *
 376:.\Application.c **** * Parameters:
 377:.\Application.c **** *  void
 378:.\Application.c **** *
 379:.\Application.c **** * Return:
 380:.\Application.c **** *  uint8 - status of I2C operation between PSoC 4200L and codec
 381:.\Application.c **** *
 382:.\Application.c **** *******************************************************************************/
 383:.\Application.c **** uint8 Update_VolumeAudioOut(void)
 384:.\Application.c **** {
 389              		.loc 1 384 0
 390              		.cfi_startproc
 391 0000 30B5     		push	{r4, r5, lr}
 392              		.cfi_def_cfa_offset 12
 393              		.cfi_offset 4, -12
 394              		.cfi_offset 5, -8
 395              		.cfi_offset 14, -4
 396 0002 87B0     		sub	sp, sp, #28
 397              		.cfi_def_cfa_offset 40
 398              	.LVL23:
 385:.\Application.c **** 	uint8 ret = 0;
 386:.\Application.c **** 	static int32 prevVol = 0;
 387:.\Application.c **** 	static uint8 prevMute;
 388:.\Application.c **** 	#ifdef TXDEBUG
 389:.\Application.c **** 		char str[20];
 390:.\Application.c **** 	#endif
 391:.\Application.c **** 	
 392:.\Application.c **** 	/* Get the MSB of the current volume data */
 393:.\Application.c **** 	int32 volume = (((int8)USBFS_currentVolume[1])) + PC_VOLUME_MSB_CODEC_OFFSET;
 399              		.loc 1 393 0
 400 0004 324B     		ldr	r3, .L38
 401 0006 5C78     		ldrb	r4, [r3, #1]
 402 0008 64B2     		sxtb	r4, r4
 403              	.LVL24:
 394:.\Application.c **** 	
 395:.\Application.c **** 	if(volume > PC_VOLUME_MSB_MAX)
ARM GAS  C:\Users\Terence\AppData\Local\Temp\ccK5mKQ3.s 			page 15


 396:.\Application.c **** 	{
 397:.\Application.c **** 		volume = PC_VOLUME_MSB_MAX;
 398:.\Application.c **** 	}
 399:.\Application.c **** 	else if(volume < PC_VOLUME_MSB_MIN)
 404              		.loc 1 399 0
 405 000a 312C     		cmp	r4, #49
 406 000c 00DC     		bgt	.L27
 400:.\Application.c **** 	{
 401:.\Application.c **** 		volume = PC_VOLUME_MSB_MIN;
 407              		.loc 1 401 0
 408 000e 3224     		mov	r4, #50
 409              	.LVL25:
 410              	.L27:
 402:.\Application.c **** 	}
 403:.\Application.c **** 	
 404:.\Application.c **** 	/* Process volume control only when USB bus is idle */
 405:.\Application.c **** 	if(USBFS_TRANS_STATE_IDLE == USBFS_transferState)
 411              		.loc 1 405 0
 412 0010 304B     		ldr	r3, .L38+4
 413 0012 1B78     		ldrb	r3, [r3]
 414 0014 002B     		cmp	r3, #0
 415 0016 56D1     		bne	.L34
 406:.\Application.c **** 	{
 407:.\Application.c **** 		/* If there is a change in volume, update codec */
 408:.\Application.c **** 		if(volume != prevVol)
 416              		.loc 1 408 0
 417 0018 2F4B     		ldr	r3, .L38+8
 418 001a 9B68     		ldr	r3, [r3, #8]
 419 001c 9C42     		cmp	r4, r3
 420 001e 1DD0     		beq	.L35
 409:.\Application.c **** 		{
 410:.\Application.c **** 			/* Store current volume for next comparison */
 411:.\Application.c **** 			prevVol = volume;
 421              		.loc 1 411 0
 422 0020 2D4B     		ldr	r3, .L38+8
 423 0022 9C60     		str	r4, [r3, #8]
 412:.\Application.c **** 			
 413:.\Application.c **** 			/* Filter volume to be in the expected range */
 414:.\Application.c **** 			if((volume > PC_VOLUME_MSB_MIN) && (volume <= PC_VOLUME_MSB_MAX))
 424              		.loc 1 414 0
 425 0024 231C     		mov	r3, r4
 426 0026 333B     		sub	r3, r3, #51
 427 0028 4C2B     		cmp	r3, #76
 428 002a 09D8     		bhi	.L36
 415:.\Application.c **** 			{
 416:.\Application.c **** 				volume = (uint8)(((volume - PC_VOLUME_MSB_MIN) * CODEC_HP_VOLUME_MAX) / (PC_VOLUME_MSB_MAX - PC
 429              		.loc 1 416 0
 430 002c 323C     		sub	r4, r4, #50
 431              	.LVL26:
 432 002e A000     		lsl	r0, r4, #2
 433 0030 0019     		add	r0, r0, r4
 434 0032 0001     		lsl	r0, r0, #4
 435 0034 4D21     		mov	r1, #77
 436 0036 FFF7FEFF 		bl	__aeabi_idiv
 437              	.LVL27:
 438 003a FF24     		mov	r4, #255
 439              	.LVL28:
ARM GAS  C:\Users\Terence\AppData\Local\Temp\ccK5mKQ3.s 			page 16


 440 003c 0440     		and	r4, r0
 441              	.LVL29:
 442 003e 00E0     		b	.L30
 443              	.L36:
 417:.\Application.c **** 			}
 418:.\Application.c **** 			else
 419:.\Application.c **** 			{
 420:.\Application.c **** 				/* Set volume to 0 if the volume from PC is not in expected range */
 421:.\Application.c **** 				volume = 0;
 444              		.loc 1 421 0
 445 0040 0024     		mov	r4, #0
 446              	.LVL30:
 447              	.L30:
 422:.\Application.c **** 			}
 423:.\Application.c **** 							
 424:.\Application.c **** 			
 425:.\Application.c **** 			/* Update the codec volume */
 426:.\Application.c **** 			ret = Codec_AdjustBothHeadphoneVolume((uint8)volume);
 448              		.loc 1 426 0
 449 0042 E0B2     		uxtb	r0, r4
 450 0044 FFF7FEFF 		bl	Codec_AdjustBothHeadphoneVolume
 451              	.LVL31:
 452 0048 051C     		mov	r5, r0
 453              	.LVL32:
 427:.\Application.c **** 			
 428:.\Application.c **** 			#ifdef TXDEBUG
 429:.\Application.c **** 				sprintf(str, "Codec vol set to %d \r\n", (int)volume);
 454              		.loc 1 429 0
 455 004a 01A8     		add	r0, sp, #4
 456              	.LVL33:
 457 004c 2349     		ldr	r1, .L38+12
 458 004e 221C     		mov	r2, r4
 459 0050 FFF7FEFF 		bl	sprintf
 460              	.LVL34:
 430:.\Application.c **** 				PRINT(str);
 461              		.loc 1 430 0
 462 0054 01A8     		add	r0, sp, #4
 463 0056 FFF7FEFF 		bl	UART_UartPutString
 464              	.LVL35:
 465 005a 00E0     		b	.L29
 466              	.LVL36:
 467              	.L35:
 385:.\Application.c **** 	static int32 prevVol = 0;
 468              		.loc 1 385 0
 469 005c 0025     		mov	r5, #0
 470              	.LVL37:
 471              	.L29:
 431:.\Application.c **** 			#endif
 432:.\Application.c **** 		}
 433:.\Application.c **** 		
 434:.\Application.c **** 		/* Process mute data, if changed */
 435:.\Application.c **** 		if(USBFS_currentMute != prevMute)
 472              		.loc 1 435 0
 473 005e 204B     		ldr	r3, .L38+16
 474 0060 1B78     		ldrb	r3, [r3]
 475 0062 DBB2     		uxtb	r3, r3
 476 0064 1C4A     		ldr	r2, .L38+8
ARM GAS  C:\Users\Terence\AppData\Local\Temp\ccK5mKQ3.s 			page 17


 477 0066 127B     		ldrb	r2, [r2, #12]
 478 0068 9342     		cmp	r3, r2
 479 006a 2DD0     		beq	.L28
 436:.\Application.c **** 		{
 437:.\Application.c **** 			/* Store current mute data for next comparison */
 438:.\Application.c **** 			prevMute = USBFS_currentMute;
 480              		.loc 1 438 0
 481 006c 1C4B     		ldr	r3, .L38+16
 482 006e 1B78     		ldrb	r3, [r3]
 483 0070 DBB2     		uxtb	r3, r3
 484 0072 194A     		ldr	r2, .L38+8
 485 0074 1373     		strb	r3, [r2, #12]
 439:.\Application.c **** 			
 440:.\Application.c **** 			/* If mute is non-zero, then mute is active and update codec volume to 0 */
 441:.\Application.c **** 			if(prevMute != 0)
 486              		.loc 1 441 0
 487 0076 002B     		cmp	r3, #0
 488 0078 07D0     		beq	.L31
 442:.\Application.c **** 			{
 443:.\Application.c **** 				ret = Codec_AdjustBothHeadphoneVolume(0);
 489              		.loc 1 443 0
 490 007a 0020     		mov	r0, #0
 491 007c FFF7FEFF 		bl	Codec_AdjustBothHeadphoneVolume
 492              	.LVL38:
 493 0080 051C     		mov	r5, r0
 494              	.LVL39:
 444:.\Application.c **** 				PRINT("Muted\r\n");
 495              		.loc 1 444 0
 496 0082 1848     		ldr	r0, .L38+20
 497              	.LVL40:
 498 0084 FFF7FEFF 		bl	UART_UartPutString
 499              	.LVL41:
 500 0088 1EE0     		b	.L28
 501              	.L31:
 445:.\Application.c **** 			}
 446:.\Application.c **** 			else
 447:.\Application.c **** 			{
 448:.\Application.c **** 				/* If mute is released, then process and update the current volume to codec */
 449:.\Application.c **** 				prevVol = volume;
 502              		.loc 1 449 0
 503 008a 134B     		ldr	r3, .L38+8
 504 008c 9C60     		str	r4, [r3, #8]
 450:.\Application.c **** 								
 451:.\Application.c **** 				/* Filter volume to be in the expected range */
 452:.\Application.c **** 				if((volume > PC_VOLUME_MSB_MIN) && (volume <= PC_VOLUME_MSB_MAX))
 505              		.loc 1 452 0
 506 008e 231C     		mov	r3, r4
 507 0090 333B     		sub	r3, r3, #51
 508 0092 4C2B     		cmp	r3, #76
 509 0094 09D8     		bhi	.L37
 453:.\Application.c **** 				{
 454:.\Application.c **** 					volume = (uint8)(((volume - PC_VOLUME_MSB_MIN) * CODEC_HP_VOLUME_MAX) / (PC_VOLUME_MSB_MAX - P
 510              		.loc 1 454 0
 511 0096 323C     		sub	r4, r4, #50
 512              	.LVL42:
 513 0098 A000     		lsl	r0, r4, #2
 514 009a 0019     		add	r0, r0, r4
ARM GAS  C:\Users\Terence\AppData\Local\Temp\ccK5mKQ3.s 			page 18


 515 009c 0001     		lsl	r0, r0, #4
 516 009e 4D21     		mov	r1, #77
 517 00a0 FFF7FEFF 		bl	__aeabi_idiv
 518              	.LVL43:
 519 00a4 FF24     		mov	r4, #255
 520              	.LVL44:
 521 00a6 0440     		and	r4, r0
 522              	.LVL45:
 523 00a8 00E0     		b	.L32
 524              	.L37:
 455:.\Application.c **** 				}
 456:.\Application.c **** 				else
 457:.\Application.c **** 				{
 458:.\Application.c **** 					/* Set volume to 0 if the volume from PC is not in expected range */
 459:.\Application.c **** 					volume = 0;
 525              		.loc 1 459 0
 526 00aa 0024     		mov	r4, #0
 527              	.LVL46:
 528              	.L32:
 460:.\Application.c **** 				}
 461:.\Application.c **** 								
 462:.\Application.c **** 				/* Update the codec volume */
 463:.\Application.c **** 				ret = Codec_AdjustBothHeadphoneVolume((uint8)volume);
 529              		.loc 1 463 0
 530 00ac E0B2     		uxtb	r0, r4
 531 00ae FFF7FEFF 		bl	Codec_AdjustBothHeadphoneVolume
 532              	.LVL47:
 533 00b2 051C     		mov	r5, r0
 534              	.LVL48:
 464:.\Application.c **** 				
 465:.\Application.c **** 				#ifdef TXDEBUG
 466:.\Application.c **** 					sprintf(str, "Unmute - Codec vol set to %d \r\n", (int)volume);
 535              		.loc 1 466 0
 536 00b4 01A8     		add	r0, sp, #4
 537              	.LVL49:
 538 00b6 0C49     		ldr	r1, .L38+24
 539 00b8 221C     		mov	r2, r4
 540 00ba FFF7FEFF 		bl	sprintf
 541              	.LVL50:
 467:.\Application.c **** 					PRINT(str);
 542              		.loc 1 467 0
 543 00be 01A8     		add	r0, sp, #4
 544 00c0 FFF7FEFF 		bl	UART_UartPutString
 545              	.LVL51:
 546 00c4 00E0     		b	.L28
 547              	.LVL52:
 548              	.L34:
 385:.\Application.c **** 	static int32 prevVol = 0;
 549              		.loc 1 385 0
 550 00c6 0025     		mov	r5, #0
 551              	.LVL53:
 552              	.L28:
 468:.\Application.c **** 				#endif
 469:.\Application.c **** 			}
 470:.\Application.c **** 		}
 471:.\Application.c **** 	}
 472:.\Application.c **** 	
ARM GAS  C:\Users\Terence\AppData\Local\Temp\ccK5mKQ3.s 			page 19


 473:.\Application.c **** 	
 474:.\Application.c **** 	return ret;
 475:.\Application.c **** }
 553              		.loc 1 475 0
 554 00c8 281C     		mov	r0, r5
 555 00ca 07B0     		add	sp, sp, #28
 556              		@ sp needed
 557              	.LVL54:
 558              	.LVL55:
 559 00cc 30BD     		pop	{r4, r5, pc}
 560              	.L39:
 561 00ce C046     		.align	2
 562              	.L38:
 563 00d0 00000000 		.word	USBFS_currentVolume
 564 00d4 00000000 		.word	USBFS_transferState
 565 00d8 00000000 		.word	.LANCHOR0
 566 00dc A4000000 		.word	.LC29
 567 00e0 00000000 		.word	USBFS_currentMute
 568 00e4 BC000000 		.word	.LC32
 569 00e8 C4000000 		.word	.LC34
 570              		.cfi_endproc
 571              	.LFE328:
 572              		.size	Update_VolumeAudioOut, .-Update_VolumeAudioOut
 573              		.section	.text.InitApp,"ax",%progbits
 574              		.align	2
 575              		.global	InitApp
 576              		.code	16
 577              		.thumb_func
 578              		.type	InitApp, %function
 579              	InitApp:
 580              	.LFB325:
  83:.\Application.c ****     /* Configure CPU/DMA to be in round robin mode while accessing memory */
 581              		.loc 1 83 0
 582              		.cfi_startproc
 583 0000 08B5     		push	{r3, lr}
 584              		.cfi_def_cfa_offset 8
 585              		.cfi_offset 3, -8
 586              		.cfi_offset 14, -4
  85:.\Application.c **** 	
 587              		.loc 1 85 0
 588 0002 254A     		ldr	r2, .L46
 589 0004 1368     		ldr	r3, [r2]
 590 0006 2549     		ldr	r1, .L46+4
 591 0008 0B43     		orr	r3, r1
 592 000a 1360     		str	r3, [r2]
  87:.\Application.c **** 	
 593              		.loc 1 87 0
 594              	@ 87 ".\Application.c" 1
 595 000c 62B6     		CPSIE   i
 596              	@ 0 "" 2
  90:.\Application.c **** 		if(CySysGetResetReason(CY_SYS_RESET_SW) != CY_SYS_RESET_SW)
 597              		.loc 1 90 0
 598              		.code	16
 599 000e FFF7FEFF 		bl	UART_Start
 600              	.LVL56:
  91:.\Application.c **** 		{
 601              		.loc 1 91 0
ARM GAS  C:\Users\Terence\AppData\Local\Temp\ccK5mKQ3.s 			page 20


 602 0012 1020     		mov	r0, #16
 603 0014 FFF7FEFF 		bl	CySysGetResetReason
 604              	.LVL57:
 605 0018 1028     		cmp	r0, #16
 606 001a 03D0     		beq	.L41
  93:.\Application.c **** 		}
 607              		.loc 1 93 0
 608 001c 2048     		ldr	r0, .L46+8
 609 001e FFF7FEFF 		bl	UART_UartPutString
 610              	.LVL58:
 611 0022 02E0     		b	.L42
 612              	.L41:
  97:.\Application.c **** 		}
 613              		.loc 1 97 0
 614 0024 1F48     		ldr	r0, .L46+12
 615 0026 FFF7FEFF 		bl	UART_UartPutString
 616              	.LVL59:
 617              	.L42:
 102:.\Application.c **** 	
 618              		.loc 1 102 0
 619 002a FFF7FEFF 		bl	CodecI2CM_Start
 620              	.LVL60:
 104:.\Application.c **** 	{
 621              		.loc 1 104 0
 622 002e FFF7FEFF 		bl	Codec_Init
 623              	.LVL61:
 624 0032 0028     		cmp	r0, #0
 625 0034 03D1     		bne	.L43
 106:.\Application.c **** 	}
 626              		.loc 1 106 0
 627 0036 1C48     		ldr	r0, .L46+16
 628 0038 FFF7FEFF 		bl	UART_UartPutString
 629              	.LVL62:
 630 003c 02E0     		b	.L44
 631              	.L43:
 110:.\Application.c **** 	}
 632              		.loc 1 110 0
 633 003e 1B48     		ldr	r0, .L46+20
 634 0040 FFF7FEFF 		bl	UART_UartPutString
 635              	.LVL63:
 636              	.L44:
 113:.\Application.c **** 	
 637              		.loc 1 113 0
 638 0044 FFF7FEFF 		bl	Update_VolumeAudioOut
 639              	.LVL64:
 115:.\Application.c **** 	
 640              		.loc 1 115 0
 641 0048 FFF7FEFF 		bl	I2S_Start
 642              	.LVL65:
 117:.\Application.c ****     USBDeviceState = USB_INIT_AFTER_ENUMERATION_REQUIRED;
 643              		.loc 1 117 0
 644 004c 0020     		mov	r0, #0
 645 004e 0121     		mov	r1, #1
 646 0050 FFF7FEFF 		bl	USBFS_Start
 647              	.LVL66:
 118:.\Application.c **** 	
 648              		.loc 1 118 0
ARM GAS  C:\Users\Terence\AppData\Local\Temp\ccK5mKQ3.s 			page 21


 649 0054 0123     		mov	r3, #1
 650 0056 164A     		ldr	r2, .L46+24
 651 0058 1370     		strb	r3, [r2]
 121:.\Application.c **** 
 652              		.loc 1 121 0
 653 005a 164A     		ldr	r2, .L46+28
 654 005c 1168     		ldr	r1, [r2]
 655 005e 0B43     		orr	r3, r1
 656 0060 1360     		str	r3, [r2]
 657              	.L45:
 123:.\Application.c **** 	
 658              		.loc 1 123 0 discriminator 1
 659 0062 FFF7FEFF 		bl	USBFS_GetConfiguration
 660              	.LVL67:
 661 0066 0028     		cmp	r0, #0
 662 0068 FBD1     		bne	.L45
 125:.\Application.c **** 	
 663              		.loc 1 125 0
 664 006a 0E30     		add	r0, r0, #14
 665 006c 0021     		mov	r1, #0
 666 006e FFF7FEFF 		bl	CyIntSetPriority
 667              	.LVL68:
 127:.\Application.c **** 	USBFS_LoadInEP(MAC_PC_HID_CONTROL_ENDPOINT, USBFS_NULL, sizeof(playlistControlReport) );	
 668              		.loc 1 127 0
 669 0072 0420     		mov	r0, #4
 670 0074 1049     		ldr	r1, .L46+32
 671 0076 0122     		mov	r2, #1
 672 0078 FFF7FEFF 		bl	USBFS_LoadInEP
 673              	.LVL69:
 128:.\Application.c **** 	
 674              		.loc 1 128 0
 675 007c 0420     		mov	r0, #4
 676 007e 0021     		mov	r1, #0
 677 0080 0122     		mov	r2, #1
 678 0082 FFF7FEFF 		bl	USBFS_LoadInEP
 679              	.LVL70:
 130:.\Application.c **** 	
 680              		.loc 1 130 0
 681 0086 FFF7FEFF 		bl	Async_Feedback_Counter_Start
 682              	.LVL71:
 132:.\Application.c **** 	CapSense_InitializeAllBaselines();
 683              		.loc 1 132 0
 684 008a FFF7FEFF 		bl	CapSense_Start
 685              	.LVL72:
 133:.\Application.c **** 	CapSense_ScanEnabledWidgets();
 686              		.loc 1 133 0
 687 008e FFF7FEFF 		bl	CapSense_InitializeAllBaselines
 688              	.LVL73:
 134:.\Application.c **** }
 689              		.loc 1 134 0
 690 0092 FFF7FEFF 		bl	CapSense_ScanEnabledWidgets
 691              	.LVL74:
 135:.\Application.c **** 
 692              		.loc 1 135 0
 693              		@ sp needed
 694 0096 08BD     		pop	{r3, pc}
 695              	.L47:
ARM GAS  C:\Users\Terence\AppData\Local\Temp\ccK5mKQ3.s 			page 22


 696              		.align	2
 697              	.L46:
 698 0098 38001040 		.word	1074790456
 699 009c 22222222 		.word	572662306
 700 00a0 E4000000 		.word	.LC36
 701 00a4 F8000000 		.word	.LC38
 702 00a8 1C010000 		.word	.LC40
 703 00ac 34010000 		.word	.LC42
 704 00b0 00000000 		.word	USBDeviceState
 705 00b4 28202C40 		.word	1076633640
 706 00b8 00000000 		.word	playlistControlReport
 707              		.cfi_endproc
 708              	.LFE325:
 709              		.size	InitApp, .-InitApp
 710              		.section	.text.RunApplication,"ax",%progbits
 711              		.align	2
 712              		.global	RunApplication
 713              		.code	16
 714              		.thumb_func
 715              		.type	RunApplication, %function
 716              	RunApplication:
 717              	.LFB326:
 153:.\Application.c ****     uint32 gesture = 0;
 718              		.loc 1 153 0
 719              		.cfi_startproc
 720 0000 10B5     		push	{r4, lr}
 721              		.cfi_def_cfa_offset 8
 722              		.cfi_offset 4, -8
 723              		.cfi_offset 14, -4
 724              	.LVL75:
 156:.\Application.c ****     {
 725              		.loc 1 156 0
 726 0002 FFF7FEFF 		bl	CapSense_IsBusy
 727              	.LVL76:
 728 0006 0028     		cmp	r0, #0
 729 0008 10D1     		bne	.L49
 158:.\Application.c **** 		gesture = DetectGesture(CapSense_CheckIsAnyWidgetActive());
 730              		.loc 1 158 0
 731 000a FFF7FEFF 		bl	CapSense_UpdateEnabledBaselines
 732              	.LVL77:
 159:.\Application.c ****         CapSense_ScanEnabledWidgets();
 733              		.loc 1 159 0
 734 000e FFF7FEFF 		bl	CapSense_CheckIsAnyWidgetActive
 735              	.LVL78:
 736 0012 C0B2     		uxtb	r0, r0
 737 0014 FFF7FEFF 		bl	DetectGesture
 738              	.LVL79:
 739 0018 041C     		mov	r4, r0
 740              	.LVL80:
 160:.\Application.c **** 		
 741              		.loc 1 160 0
 742 001a FFF7FEFF 		bl	CapSense_ScanEnabledWidgets
 743              	.LVL81:
 162:.\Application.c **** 		{
 744              		.loc 1 162 0
 745 001e FFF7FEFF 		bl	USBFS_GetConfiguration
 746              	.LVL82:
ARM GAS  C:\Users\Terence\AppData\Local\Temp\ccK5mKQ3.s 			page 23


 747 0022 0128     		cmp	r0, #1
 748 0024 02D1     		bne	.L49
 165:.\Application.c **** 		}
 749              		.loc 1 165 0
 750 0026 201C     		mov	r0, r4
 751 0028 FFF7FEFF 		bl	HandleUserInputs
 752              	.LVL83:
 753              	.L49:
 169:.\Application.c **** 	{
 754              		.loc 1 169 0
 755 002c FFF7FEFF 		bl	USBFS_GetConfiguration
 756              	.LVL84:
 757 0030 0128     		cmp	r0, #1
 758 0032 01D1     		bne	.L48
 172:.\Application.c **** 	}
 759              		.loc 1 172 0
 760 0034 FFF7FEFF 		bl	Update_VolumeAudioOut
 761              	.LVL85:
 762              	.L48:
 174:.\Application.c **** 
 763              		.loc 1 174 0
 764              		@ sp needed
 765 0038 10BD     		pop	{r4, pc}
 766              		.cfi_endproc
 767              	.LFE326:
 768              		.size	RunApplication, .-RunApplication
 769              		.comm	reportClearFlag,1,1
 770              		.comm	audioControlStatus,1,1
 771              		.global	prevReport
 772              		.comm	playlistControlReport,1,1
 773 003a C046     		.section	.rodata.str1.4,"aMS",%progbits,1
 774              		.align	2
 775              	.LC3:
 776 0000 50726576 		.ascii	"Prev Track\012\015\000"
 776      20547261 
 776      636B0A0D 
 776      00
 777 000d 000000   		.space	3
 778              	.LC5:
 779 0010 4E657874 		.ascii	"Next Track\012\015\000"
 779      20547261 
 779      636B0A0D 
 779      00
 780 001d 000000   		.space	3
 781              	.LC7:
 782 0020 4D757465 		.ascii	"Mute\012\015\000"
 782      0A0D00
 783 0027 00       		.space	1
 784              	.LC9:
 785 0028 53746F70 		.ascii	"Stop \012\015\000"
 785      200A0D00 
 786              	.LC11:
 787 0030 506C6179 		.ascii	"Play/Pause\012\015\000"
 787      2F506175 
 787      73650A0D 
 787      00
 788 003d 000000   		.space	3
ARM GAS  C:\Users\Terence\AppData\Local\Temp\ccK5mKQ3.s 			page 24


 789              	.LC14:
 790 0040 4C656674 		.ascii	"Left Swipe - Prev Track\012\015\000"
 790      20537769 
 790      7065202D 
 790      20507265 
 790      76205472 
 791 005a 0000     		.space	2
 792              	.LC16:
 793 005c 52696768 		.ascii	"Right Swipe - Next Track\012\015\000"
 793      74205377 
 793      69706520 
 793      2D204E65 
 793      78742054 
 794 0077 00       		.space	1
 795              	.LC19:
 796 0078 55702053 		.ascii	"Up Swipe - Vol Up\012\015\000"
 796      77697065 
 796      202D2056 
 796      6F6C2055 
 796      700A0D00 
 797              	.LC21:
 798 008c 446F776E 		.ascii	"Down Swipe - Vol Down\012\015\000"
 798      20537769 
 798      7065202D 
 798      20566F6C 
 798      20446F77 
 799              	.LC29:
 800 00a4 436F6465 		.ascii	"Codec vol set to %d \015\012\000"
 800      6320766F 
 800      6C207365 
 800      7420746F 
 800      20256420 
 801 00bb 00       		.space	1
 802              	.LC32:
 803 00bc 4D757465 		.ascii	"Muted\015\012\000"
 803      640D0A00 
 804              	.LC34:
 805 00c4 556E6D75 		.ascii	"Unmute - Codec vol set to %d \015\012\000"
 805      7465202D 
 805      20436F64 
 805      65632076 
 805      6F6C2073 
 806              	.LC36:
 807 00e4 0D0A4170 		.ascii	"\015\012App Started...\015\012\000"
 807      70205374 
 807      61727465 
 807      642E2E2E 
 807      0D0A00
 808 00f7 00       		.space	1
 809              	.LC38:
 810 00f8 0D0A4170 		.ascii	"\015\012App Restarted after SW reset...\015\012\000"
 810      70205265 
 810      73746172 
 810      74656420 
 810      61667465 
 811              	.LC40:
 812 011c 436F6465 		.ascii	"Codec comm works!... \015\012\000"
ARM GAS  C:\Users\Terence\AppData\Local\Temp\ccK5mKQ3.s 			page 25


 812      6320636F 
 812      6D6D2077 
 812      6F726B73 
 812      212E2E2E 
 813              	.LC42:
 814 0134 436F6465 		.ascii	"Codec comm DOESN'T work!... \015\012\000"
 814      6320636F 
 814      6D6D2044 
 814      4F45534E 
 814      27542077 
 815 0153 00       		.bss
 816              		.align	2
 817              		.set	.LANCHOR0,. + 0
 818              		.type	volUpdateThreshold.9315, %object
 819              		.size	volUpdateThreshold.9315, 4
 820              	volUpdateThreshold.9315:
 821 0000 00000000 		.space	4
 822              		.type	volumeReport.9317, %object
 823              		.size	volumeReport.9317, 1
 824              	volumeReport.9317:
 825 0004 00       		.space	1
 826              		.type	prevReport.9316, %object
 827              		.size	prevReport.9316, 1
 828              	prevReport.9316:
 829 0005 00       		.space	1
 830 0006 0000     		.space	2
 831              		.type	prevVol.9337, %object
 832              		.size	prevVol.9337, 4
 833              	prevVol.9337:
 834 0008 00000000 		.space	4
 835              		.type	prevMute.9338, %object
 836              		.size	prevMute.9338, 1
 837              	prevMute.9338:
 838 000c 00       		.space	1
 839              		.type	prevReport, %object
 840              		.size	prevReport, 1
 841              	prevReport:
 842 000d 00       		.space	1
 843 000e 0000     		.text
 844              	.Letext0:
 845              		.file 2 "Generated_Source\\PSoC4/cytypes.h"
 846              		.file 3 "./Gesture.h"
 847              		.file 4 "Generated_Source\\PSoC4/USBFS.h"
 848              		.file 5 "./USBInterface.h"
 849              		.file 6 "Generated_Source\\PSoC4/UART_SPI_UART.h"
 850              		.file 7 "./Codec.h"
 851              		.file 8 "c:\\program files (x86)\\cypress\\psoc creator\\3.3\\psoc creator\\import\\gnu\\arm\\4.9.
 852              		.file 9 "Generated_Source\\PSoC4/CyLib.h"
 853              		.file 10 "Generated_Source\\PSoC4/UART.h"
 854              		.file 11 "Generated_Source\\PSoC4/CodecI2CM.h"
 855              		.file 12 "Generated_Source\\PSoC4/I2S.h"
 856              		.file 13 "Generated_Source\\PSoC4/Async_Feedback_Counter.h"
 857              		.file 14 "Generated_Source\\PSoC4/CapSense.h"
 858              		.file 15 "Generated_Source\\PSoC4/CapSense_CSHL.h"