ARM GAS  C:\Users\Terence\AppData\Local\Temp\ccSn7UJt.s 			page 1


   1              		.cpu cortex-m0
   2              		.fpu softvfp
   3              		.eabi_attribute 20, 1
   4              		.eabi_attribute 21, 1
   5              		.eabi_attribute 23, 3
   6              		.eabi_attribute 24, 1
   7              		.eabi_attribute 25, 1
   8              		.eabi_attribute 26, 1
   9              		.eabi_attribute 30, 1
  10              		.eabi_attribute 34, 0
  11              		.eabi_attribute 18, 4
  12              		.code	16
  13              		.file	"Async_Feedback_Counter.c"
  14              		.text
  15              	.Ltext0:
  16              		.cfi_sections	.debug_frame
  17              		.section	.text.Async_Feedback_Counter_Enable,"ax",%progbits
  18              		.align	2
  19              		.global	Async_Feedback_Counter_Enable
  20              		.code	16
  21              		.thumb_func
  22              		.type	Async_Feedback_Counter_Enable, %function
  23              	Async_Feedback_Counter_Enable:
  24              	.LFB3:
  25              		.file 1 ".\\Generated_Source\\PSoC4\\Async_Feedback_Counter.c"
   1:.\Generated_Source\PSoC4/Async_Feedback_Counter.c **** /*******************************************************************************
   2:.\Generated_Source\PSoC4/Async_Feedback_Counter.c **** * File Name: Async_Feedback_Counter.c
   3:.\Generated_Source\PSoC4/Async_Feedback_Counter.c **** * Version 2.70
   4:.\Generated_Source\PSoC4/Async_Feedback_Counter.c **** *
   5:.\Generated_Source\PSoC4/Async_Feedback_Counter.c **** * Description:
   6:.\Generated_Source\PSoC4/Async_Feedback_Counter.c **** *  The Timer component consists of a 8, 16, 24 or 32-bit timer with
   7:.\Generated_Source\PSoC4/Async_Feedback_Counter.c **** *  a selectable period between 2 and 2^Width - 1.  The timer may free run
   8:.\Generated_Source\PSoC4/Async_Feedback_Counter.c **** *  or be used as a capture timer as well.  The capture can be initiated
   9:.\Generated_Source\PSoC4/Async_Feedback_Counter.c **** *  by a positive or negative edge signal as well as via software.
  10:.\Generated_Source\PSoC4/Async_Feedback_Counter.c **** *  A trigger input can be programmed to enable the timer on rising edge
  11:.\Generated_Source\PSoC4/Async_Feedback_Counter.c **** *  falling edge, either edge or continous run.
  12:.\Generated_Source\PSoC4/Async_Feedback_Counter.c **** *  Interrupts may be generated due to a terminal count condition
  13:.\Generated_Source\PSoC4/Async_Feedback_Counter.c **** *  or a capture event.
  14:.\Generated_Source\PSoC4/Async_Feedback_Counter.c **** *
  15:.\Generated_Source\PSoC4/Async_Feedback_Counter.c **** * Note:
  16:.\Generated_Source\PSoC4/Async_Feedback_Counter.c **** *
  17:.\Generated_Source\PSoC4/Async_Feedback_Counter.c **** ********************************************************************************
  18:.\Generated_Source\PSoC4/Async_Feedback_Counter.c **** * Copyright 2008-2014, Cypress Semiconductor Corporation.  All rights reserved.
  19:.\Generated_Source\PSoC4/Async_Feedback_Counter.c **** * You may use this file only in accordance with the license, terms, conditions,
  20:.\Generated_Source\PSoC4/Async_Feedback_Counter.c **** * disclaimers, and limitations in the end user license agreement accompanying
  21:.\Generated_Source\PSoC4/Async_Feedback_Counter.c **** * the software package with which this file was provided.
  22:.\Generated_Source\PSoC4/Async_Feedback_Counter.c **** ********************************************************************************/
  23:.\Generated_Source\PSoC4/Async_Feedback_Counter.c **** 
  24:.\Generated_Source\PSoC4/Async_Feedback_Counter.c **** #include "Async_Feedback_Counter.h"
  25:.\Generated_Source\PSoC4/Async_Feedback_Counter.c **** 
  26:.\Generated_Source\PSoC4/Async_Feedback_Counter.c **** uint8 Async_Feedback_Counter_initVar = 0u;
  27:.\Generated_Source\PSoC4/Async_Feedback_Counter.c **** 
  28:.\Generated_Source\PSoC4/Async_Feedback_Counter.c **** 
  29:.\Generated_Source\PSoC4/Async_Feedback_Counter.c **** /*******************************************************************************
  30:.\Generated_Source\PSoC4/Async_Feedback_Counter.c **** * Function Name: Async_Feedback_Counter_Init
  31:.\Generated_Source\PSoC4/Async_Feedback_Counter.c **** ********************************************************************************
  32:.\Generated_Source\PSoC4/Async_Feedback_Counter.c **** *
ARM GAS  C:\Users\Terence\AppData\Local\Temp\ccSn7UJt.s 			page 2


  33:.\Generated_Source\PSoC4/Async_Feedback_Counter.c **** * Summary:
  34:.\Generated_Source\PSoC4/Async_Feedback_Counter.c **** *  Initialize to the schematic state
  35:.\Generated_Source\PSoC4/Async_Feedback_Counter.c **** *
  36:.\Generated_Source\PSoC4/Async_Feedback_Counter.c **** * Parameters:
  37:.\Generated_Source\PSoC4/Async_Feedback_Counter.c **** *  void
  38:.\Generated_Source\PSoC4/Async_Feedback_Counter.c **** *
  39:.\Generated_Source\PSoC4/Async_Feedback_Counter.c **** * Return:
  40:.\Generated_Source\PSoC4/Async_Feedback_Counter.c **** *  void
  41:.\Generated_Source\PSoC4/Async_Feedback_Counter.c **** *
  42:.\Generated_Source\PSoC4/Async_Feedback_Counter.c **** *******************************************************************************/
  43:.\Generated_Source\PSoC4/Async_Feedback_Counter.c **** void Async_Feedback_Counter_Init(void) 
  44:.\Generated_Source\PSoC4/Async_Feedback_Counter.c **** {
  45:.\Generated_Source\PSoC4/Async_Feedback_Counter.c ****     #if(!Async_Feedback_Counter_UsingFixedFunction)
  46:.\Generated_Source\PSoC4/Async_Feedback_Counter.c ****             /* Interrupt State Backup for Critical Region*/
  47:.\Generated_Source\PSoC4/Async_Feedback_Counter.c ****             uint8 Async_Feedback_Counter_interruptState;
  48:.\Generated_Source\PSoC4/Async_Feedback_Counter.c ****     #endif /* Interrupt state back up for Fixed Function only */
  49:.\Generated_Source\PSoC4/Async_Feedback_Counter.c **** 
  50:.\Generated_Source\PSoC4/Async_Feedback_Counter.c ****     #if (Async_Feedback_Counter_UsingFixedFunction)
  51:.\Generated_Source\PSoC4/Async_Feedback_Counter.c ****         /* Clear all bits but the enable bit (if it's already set) for Timer operation */
  52:.\Generated_Source\PSoC4/Async_Feedback_Counter.c ****         Async_Feedback_Counter_CONTROL &= Async_Feedback_Counter_CTRL_ENABLE;
  53:.\Generated_Source\PSoC4/Async_Feedback_Counter.c **** 
  54:.\Generated_Source\PSoC4/Async_Feedback_Counter.c ****         /* Clear the mode bits for continuous run mode */
  55:.\Generated_Source\PSoC4/Async_Feedback_Counter.c ****         #if (CY_PSOC5A)
  56:.\Generated_Source\PSoC4/Async_Feedback_Counter.c ****             Async_Feedback_Counter_CONTROL2 &= ((uint8)(~Async_Feedback_Counter_CTRL_MODE_MASK));
  57:.\Generated_Source\PSoC4/Async_Feedback_Counter.c ****         #endif /* Clear bits in CONTROL2 only in PSOC5A */
  58:.\Generated_Source\PSoC4/Async_Feedback_Counter.c **** 
  59:.\Generated_Source\PSoC4/Async_Feedback_Counter.c ****         #if (CY_PSOC3 || CY_PSOC5LP)
  60:.\Generated_Source\PSoC4/Async_Feedback_Counter.c ****             Async_Feedback_Counter_CONTROL3 &= ((uint8)(~Async_Feedback_Counter_CTRL_MODE_MASK));
  61:.\Generated_Source\PSoC4/Async_Feedback_Counter.c ****         #endif /* CONTROL3 register exists only in PSoC3 OR PSoC5LP */
  62:.\Generated_Source\PSoC4/Async_Feedback_Counter.c **** 
  63:.\Generated_Source\PSoC4/Async_Feedback_Counter.c ****         /* Check if One Shot mode is enabled i.e. RunMode !=0*/
  64:.\Generated_Source\PSoC4/Async_Feedback_Counter.c ****         #if (Async_Feedback_Counter_RunModeUsed != 0x0u)
  65:.\Generated_Source\PSoC4/Async_Feedback_Counter.c ****             /* Set 3rd bit of Control register to enable one shot mode */
  66:.\Generated_Source\PSoC4/Async_Feedback_Counter.c ****             Async_Feedback_Counter_CONTROL |= 0x04u;
  67:.\Generated_Source\PSoC4/Async_Feedback_Counter.c ****         #endif /* One Shot enabled only when RunModeUsed is not Continuous*/
  68:.\Generated_Source\PSoC4/Async_Feedback_Counter.c **** 
  69:.\Generated_Source\PSoC4/Async_Feedback_Counter.c ****         #if (Async_Feedback_Counter_RunModeUsed == 2)
  70:.\Generated_Source\PSoC4/Async_Feedback_Counter.c ****             #if (CY_PSOC5A)
  71:.\Generated_Source\PSoC4/Async_Feedback_Counter.c ****                 /* Set last 2 bits of control2 register if one shot(halt on
  72:.\Generated_Source\PSoC4/Async_Feedback_Counter.c ****                 interrupt) is enabled*/
  73:.\Generated_Source\PSoC4/Async_Feedback_Counter.c ****                 Async_Feedback_Counter_CONTROL2 |= 0x03u;
  74:.\Generated_Source\PSoC4/Async_Feedback_Counter.c ****             #endif /* Set One-Shot Halt on Interrupt bit in CONTROL2 for PSoC5A */
  75:.\Generated_Source\PSoC4/Async_Feedback_Counter.c **** 
  76:.\Generated_Source\PSoC4/Async_Feedback_Counter.c ****             #if (CY_PSOC3 || CY_PSOC5LP)
  77:.\Generated_Source\PSoC4/Async_Feedback_Counter.c ****                 /* Set last 2 bits of control3 register if one shot(halt on
  78:.\Generated_Source\PSoC4/Async_Feedback_Counter.c ****                 interrupt) is enabled*/
  79:.\Generated_Source\PSoC4/Async_Feedback_Counter.c ****                 Async_Feedback_Counter_CONTROL3 |= 0x03u;
  80:.\Generated_Source\PSoC4/Async_Feedback_Counter.c ****             #endif /* Set One-Shot Halt on Interrupt bit in CONTROL3 for PSoC3 or PSoC5LP */
  81:.\Generated_Source\PSoC4/Async_Feedback_Counter.c **** 
  82:.\Generated_Source\PSoC4/Async_Feedback_Counter.c ****         #endif /* Remove section if One Shot Halt on Interrupt is not enabled */
  83:.\Generated_Source\PSoC4/Async_Feedback_Counter.c **** 
  84:.\Generated_Source\PSoC4/Async_Feedback_Counter.c ****         #if (Async_Feedback_Counter_UsingHWEnable != 0)
  85:.\Generated_Source\PSoC4/Async_Feedback_Counter.c ****             #if (CY_PSOC5A)
  86:.\Generated_Source\PSoC4/Async_Feedback_Counter.c ****                 /* Set the default Run Mode of the Timer to Continuous */
  87:.\Generated_Source\PSoC4/Async_Feedback_Counter.c ****                 Async_Feedback_Counter_CONTROL2 |= Async_Feedback_Counter_CTRL_MODE_PULSEWIDTH;
  88:.\Generated_Source\PSoC4/Async_Feedback_Counter.c ****             #endif /* Set Continuous Run Mode in CONTROL2 for PSoC5A */
  89:.\Generated_Source\PSoC4/Async_Feedback_Counter.c **** 
ARM GAS  C:\Users\Terence\AppData\Local\Temp\ccSn7UJt.s 			page 3


  90:.\Generated_Source\PSoC4/Async_Feedback_Counter.c ****             #if (CY_PSOC3 || CY_PSOC5LP)
  91:.\Generated_Source\PSoC4/Async_Feedback_Counter.c ****                 /* Clear and Set ROD and COD bits of CFG2 register */
  92:.\Generated_Source\PSoC4/Async_Feedback_Counter.c ****                 Async_Feedback_Counter_CONTROL3 &= ((uint8)(~Async_Feedback_Counter_CTRL_RCOD_MASK)
  93:.\Generated_Source\PSoC4/Async_Feedback_Counter.c ****                 Async_Feedback_Counter_CONTROL3 |= Async_Feedback_Counter_CTRL_RCOD;
  94:.\Generated_Source\PSoC4/Async_Feedback_Counter.c **** 
  95:.\Generated_Source\PSoC4/Async_Feedback_Counter.c ****                 /* Clear and Enable the HW enable bit in CFG2 register */
  96:.\Generated_Source\PSoC4/Async_Feedback_Counter.c ****                 Async_Feedback_Counter_CONTROL3 &= ((uint8)(~Async_Feedback_Counter_CTRL_ENBL_MASK)
  97:.\Generated_Source\PSoC4/Async_Feedback_Counter.c ****                 Async_Feedback_Counter_CONTROL3 |= Async_Feedback_Counter_CTRL_ENBL;
  98:.\Generated_Source\PSoC4/Async_Feedback_Counter.c **** 
  99:.\Generated_Source\PSoC4/Async_Feedback_Counter.c ****                 /* Set the default Run Mode of the Timer to Continuous */
 100:.\Generated_Source\PSoC4/Async_Feedback_Counter.c ****                 Async_Feedback_Counter_CONTROL3 |= Async_Feedback_Counter_CTRL_MODE_CONTINUOUS;
 101:.\Generated_Source\PSoC4/Async_Feedback_Counter.c ****             #endif /* Set Continuous Run Mode in CONTROL3 for PSoC3ES3 or PSoC5A */
 102:.\Generated_Source\PSoC4/Async_Feedback_Counter.c **** 
 103:.\Generated_Source\PSoC4/Async_Feedback_Counter.c ****         #endif /* Configure Run Mode with hardware enable */
 104:.\Generated_Source\PSoC4/Async_Feedback_Counter.c **** 
 105:.\Generated_Source\PSoC4/Async_Feedback_Counter.c ****         /* Clear and Set SYNCTC and SYNCCMP bits of RT1 register */
 106:.\Generated_Source\PSoC4/Async_Feedback_Counter.c ****         Async_Feedback_Counter_RT1 &= ((uint8)(~Async_Feedback_Counter_RT1_MASK));
 107:.\Generated_Source\PSoC4/Async_Feedback_Counter.c ****         Async_Feedback_Counter_RT1 |= Async_Feedback_Counter_SYNC;
 108:.\Generated_Source\PSoC4/Async_Feedback_Counter.c **** 
 109:.\Generated_Source\PSoC4/Async_Feedback_Counter.c ****         /*Enable DSI Sync all all inputs of the Timer*/
 110:.\Generated_Source\PSoC4/Async_Feedback_Counter.c ****         Async_Feedback_Counter_RT1 &= ((uint8)(~Async_Feedback_Counter_SYNCDSI_MASK));
 111:.\Generated_Source\PSoC4/Async_Feedback_Counter.c ****         Async_Feedback_Counter_RT1 |= Async_Feedback_Counter_SYNCDSI_EN;
 112:.\Generated_Source\PSoC4/Async_Feedback_Counter.c **** 
 113:.\Generated_Source\PSoC4/Async_Feedback_Counter.c ****         /* Set the IRQ to use the status register interrupts */
 114:.\Generated_Source\PSoC4/Async_Feedback_Counter.c ****         Async_Feedback_Counter_CONTROL2 |= Async_Feedback_Counter_CTRL2_IRQ_SEL;
 115:.\Generated_Source\PSoC4/Async_Feedback_Counter.c ****     #endif /* Configuring registers of fixed function implementation */
 116:.\Generated_Source\PSoC4/Async_Feedback_Counter.c **** 
 117:.\Generated_Source\PSoC4/Async_Feedback_Counter.c ****     /* Set Initial values from Configuration */
 118:.\Generated_Source\PSoC4/Async_Feedback_Counter.c ****     Async_Feedback_Counter_WritePeriod(Async_Feedback_Counter_INIT_PERIOD);
 119:.\Generated_Source\PSoC4/Async_Feedback_Counter.c ****     Async_Feedback_Counter_WriteCounter(Async_Feedback_Counter_INIT_PERIOD);
 120:.\Generated_Source\PSoC4/Async_Feedback_Counter.c **** 
 121:.\Generated_Source\PSoC4/Async_Feedback_Counter.c ****     #if (Async_Feedback_Counter_UsingHWCaptureCounter)/* Capture counter is enabled */
 122:.\Generated_Source\PSoC4/Async_Feedback_Counter.c ****         Async_Feedback_Counter_CAPTURE_COUNT_CTRL |= Async_Feedback_Counter_CNTR_ENABLE;
 123:.\Generated_Source\PSoC4/Async_Feedback_Counter.c ****         Async_Feedback_Counter_SetCaptureCount(Async_Feedback_Counter_INIT_CAPTURE_COUNT);
 124:.\Generated_Source\PSoC4/Async_Feedback_Counter.c ****     #endif /* Configure capture counter value */
 125:.\Generated_Source\PSoC4/Async_Feedback_Counter.c **** 
 126:.\Generated_Source\PSoC4/Async_Feedback_Counter.c ****     #if (!Async_Feedback_Counter_UsingFixedFunction)
 127:.\Generated_Source\PSoC4/Async_Feedback_Counter.c ****         #if (Async_Feedback_Counter_SoftwareCaptureMode)
 128:.\Generated_Source\PSoC4/Async_Feedback_Counter.c ****             Async_Feedback_Counter_SetCaptureMode(Async_Feedback_Counter_INIT_CAPTURE_MODE);
 129:.\Generated_Source\PSoC4/Async_Feedback_Counter.c ****         #endif /* Set Capture Mode for UDB implementation if capture mode is software controlled */
 130:.\Generated_Source\PSoC4/Async_Feedback_Counter.c **** 
 131:.\Generated_Source\PSoC4/Async_Feedback_Counter.c ****         #if (Async_Feedback_Counter_SoftwareTriggerMode)
 132:.\Generated_Source\PSoC4/Async_Feedback_Counter.c ****             #if (!Async_Feedback_Counter_UDB_CONTROL_REG_REMOVED)
 133:.\Generated_Source\PSoC4/Async_Feedback_Counter.c ****                 if (0u == (Async_Feedback_Counter_CONTROL & Async_Feedback_Counter__B_TIMER__TM_SOF
 134:.\Generated_Source\PSoC4/Async_Feedback_Counter.c ****                 {
 135:.\Generated_Source\PSoC4/Async_Feedback_Counter.c ****                     Async_Feedback_Counter_SetTriggerMode(Async_Feedback_Counter_INIT_TRIGGER_MODE)
 136:.\Generated_Source\PSoC4/Async_Feedback_Counter.c ****                 }
 137:.\Generated_Source\PSoC4/Async_Feedback_Counter.c ****             #endif /* (!Async_Feedback_Counter_UDB_CONTROL_REG_REMOVED) */
 138:.\Generated_Source\PSoC4/Async_Feedback_Counter.c ****         #endif /* Set trigger mode for UDB Implementation if trigger mode is software controlled */
 139:.\Generated_Source\PSoC4/Async_Feedback_Counter.c **** 
 140:.\Generated_Source\PSoC4/Async_Feedback_Counter.c ****         /* CyEnterCriticalRegion and CyExitCriticalRegion are used to mark following region critica
 141:.\Generated_Source\PSoC4/Async_Feedback_Counter.c ****         /* Enter Critical Region*/
 142:.\Generated_Source\PSoC4/Async_Feedback_Counter.c ****         Async_Feedback_Counter_interruptState = CyEnterCriticalSection();
 143:.\Generated_Source\PSoC4/Async_Feedback_Counter.c **** 
 144:.\Generated_Source\PSoC4/Async_Feedback_Counter.c ****         /* Use the interrupt output of the status register for IRQ output */
 145:.\Generated_Source\PSoC4/Async_Feedback_Counter.c ****         Async_Feedback_Counter_STATUS_AUX_CTRL |= Async_Feedback_Counter_STATUS_ACTL_INT_EN_MASK;
 146:.\Generated_Source\PSoC4/Async_Feedback_Counter.c **** 
ARM GAS  C:\Users\Terence\AppData\Local\Temp\ccSn7UJt.s 			page 4


 147:.\Generated_Source\PSoC4/Async_Feedback_Counter.c ****         /* Exit Critical Region*/
 148:.\Generated_Source\PSoC4/Async_Feedback_Counter.c ****         CyExitCriticalSection(Async_Feedback_Counter_interruptState);
 149:.\Generated_Source\PSoC4/Async_Feedback_Counter.c **** 
 150:.\Generated_Source\PSoC4/Async_Feedback_Counter.c ****         #if (Async_Feedback_Counter_EnableTriggerMode)
 151:.\Generated_Source\PSoC4/Async_Feedback_Counter.c ****             Async_Feedback_Counter_EnableTrigger();
 152:.\Generated_Source\PSoC4/Async_Feedback_Counter.c ****         #endif /* Set Trigger enable bit for UDB implementation in the control register*/
 153:.\Generated_Source\PSoC4/Async_Feedback_Counter.c **** 		
 154:.\Generated_Source\PSoC4/Async_Feedback_Counter.c **** 		
 155:.\Generated_Source\PSoC4/Async_Feedback_Counter.c ****         #if (Async_Feedback_Counter_InterruptOnCaptureCount && !Async_Feedback_Counter_UDB_CONTROL_
 156:.\Generated_Source\PSoC4/Async_Feedback_Counter.c ****             Async_Feedback_Counter_SetInterruptCount(Async_Feedback_Counter_INIT_INT_CAPTURE_COUNT)
 157:.\Generated_Source\PSoC4/Async_Feedback_Counter.c ****         #endif /* Set interrupt count in UDB implementation if interrupt count feature is checked.*
 158:.\Generated_Source\PSoC4/Async_Feedback_Counter.c **** 
 159:.\Generated_Source\PSoC4/Async_Feedback_Counter.c ****         Async_Feedback_Counter_ClearFIFO();
 160:.\Generated_Source\PSoC4/Async_Feedback_Counter.c ****     #endif /* Configure additional features of UDB implementation */
 161:.\Generated_Source\PSoC4/Async_Feedback_Counter.c **** 
 162:.\Generated_Source\PSoC4/Async_Feedback_Counter.c ****     Async_Feedback_Counter_SetInterruptMode(Async_Feedback_Counter_INIT_INTERRUPT_MODE);
 163:.\Generated_Source\PSoC4/Async_Feedback_Counter.c **** }
 164:.\Generated_Source\PSoC4/Async_Feedback_Counter.c **** 
 165:.\Generated_Source\PSoC4/Async_Feedback_Counter.c **** 
 166:.\Generated_Source\PSoC4/Async_Feedback_Counter.c **** /*******************************************************************************
 167:.\Generated_Source\PSoC4/Async_Feedback_Counter.c **** * Function Name: Async_Feedback_Counter_Enable
 168:.\Generated_Source\PSoC4/Async_Feedback_Counter.c **** ********************************************************************************
 169:.\Generated_Source\PSoC4/Async_Feedback_Counter.c **** *
 170:.\Generated_Source\PSoC4/Async_Feedback_Counter.c **** * Summary:
 171:.\Generated_Source\PSoC4/Async_Feedback_Counter.c **** *  Enable the Timer
 172:.\Generated_Source\PSoC4/Async_Feedback_Counter.c **** *
 173:.\Generated_Source\PSoC4/Async_Feedback_Counter.c **** * Parameters:
 174:.\Generated_Source\PSoC4/Async_Feedback_Counter.c **** *  void
 175:.\Generated_Source\PSoC4/Async_Feedback_Counter.c **** *
 176:.\Generated_Source\PSoC4/Async_Feedback_Counter.c **** * Return:
 177:.\Generated_Source\PSoC4/Async_Feedback_Counter.c **** *  void
 178:.\Generated_Source\PSoC4/Async_Feedback_Counter.c **** *
 179:.\Generated_Source\PSoC4/Async_Feedback_Counter.c **** *******************************************************************************/
 180:.\Generated_Source\PSoC4/Async_Feedback_Counter.c **** void Async_Feedback_Counter_Enable(void) 
 181:.\Generated_Source\PSoC4/Async_Feedback_Counter.c **** {
  26              		.loc 1 181 0
  27              		.cfi_startproc
 182:.\Generated_Source\PSoC4/Async_Feedback_Counter.c ****     /* Globally Enable the Fixed Function Block chosen */
 183:.\Generated_Source\PSoC4/Async_Feedback_Counter.c ****     #if (Async_Feedback_Counter_UsingFixedFunction)
 184:.\Generated_Source\PSoC4/Async_Feedback_Counter.c ****         Async_Feedback_Counter_GLOBAL_ENABLE |= Async_Feedback_Counter_BLOCK_EN_MASK;
 185:.\Generated_Source\PSoC4/Async_Feedback_Counter.c ****         Async_Feedback_Counter_GLOBAL_STBY_ENABLE |= Async_Feedback_Counter_BLOCK_STBY_EN_MASK;
 186:.\Generated_Source\PSoC4/Async_Feedback_Counter.c ****     #endif /* Set Enable bit for enabling Fixed function timer*/
 187:.\Generated_Source\PSoC4/Async_Feedback_Counter.c **** 
 188:.\Generated_Source\PSoC4/Async_Feedback_Counter.c ****     /* Remove assignment if control register is removed */
 189:.\Generated_Source\PSoC4/Async_Feedback_Counter.c ****     #if (!Async_Feedback_Counter_UDB_CONTROL_REG_REMOVED || Async_Feedback_Counter_UsingFixedFuncti
 190:.\Generated_Source\PSoC4/Async_Feedback_Counter.c ****         Async_Feedback_Counter_CONTROL |= Async_Feedback_Counter_CTRL_ENABLE;
  28              		.loc 1 190 0
  29 0000 024A     		ldr	r2, .L2
  30 0002 1178     		ldrb	r1, [r2]
  31 0004 8023     		mov	r3, #128
  32 0006 0B43     		orr	r3, r1
  33 0008 1370     		strb	r3, [r2]
 191:.\Generated_Source\PSoC4/Async_Feedback_Counter.c ****     #endif /* Remove assignment if control register is removed */
 192:.\Generated_Source\PSoC4/Async_Feedback_Counter.c **** }
  34              		.loc 1 192 0
  35              		@ sp needed
  36 000a 7047     		bx	lr
ARM GAS  C:\Users\Terence\AppData\Local\Temp\ccSn7UJt.s 			page 5


  37              	.L3:
  38              		.align	2
  39              	.L2:
  40 000c 71000F40 		.word	1074724977
  41              		.cfi_endproc
  42              	.LFE3:
  43              		.size	Async_Feedback_Counter_Enable, .-Async_Feedback_Counter_Enable
  44              		.section	.text.Async_Feedback_Counter_Stop,"ax",%progbits
  45              		.align	2
  46              		.global	Async_Feedback_Counter_Stop
  47              		.code	16
  48              		.thumb_func
  49              		.type	Async_Feedback_Counter_Stop, %function
  50              	Async_Feedback_Counter_Stop:
  51              	.LFB5:
 193:.\Generated_Source\PSoC4/Async_Feedback_Counter.c **** 
 194:.\Generated_Source\PSoC4/Async_Feedback_Counter.c **** 
 195:.\Generated_Source\PSoC4/Async_Feedback_Counter.c **** /*******************************************************************************
 196:.\Generated_Source\PSoC4/Async_Feedback_Counter.c **** * Function Name: Async_Feedback_Counter_Start
 197:.\Generated_Source\PSoC4/Async_Feedback_Counter.c **** ********************************************************************************
 198:.\Generated_Source\PSoC4/Async_Feedback_Counter.c **** *
 199:.\Generated_Source\PSoC4/Async_Feedback_Counter.c **** * Summary:
 200:.\Generated_Source\PSoC4/Async_Feedback_Counter.c **** *  The start function initializes the timer with the default values, the
 201:.\Generated_Source\PSoC4/Async_Feedback_Counter.c **** *  enables the timerto begin counting.  It does not enable interrupts,
 202:.\Generated_Source\PSoC4/Async_Feedback_Counter.c **** *  the EnableInt command should be called if interrupt generation is required.
 203:.\Generated_Source\PSoC4/Async_Feedback_Counter.c **** *
 204:.\Generated_Source\PSoC4/Async_Feedback_Counter.c **** * Parameters:
 205:.\Generated_Source\PSoC4/Async_Feedback_Counter.c **** *  void
 206:.\Generated_Source\PSoC4/Async_Feedback_Counter.c **** *
 207:.\Generated_Source\PSoC4/Async_Feedback_Counter.c **** * Return:
 208:.\Generated_Source\PSoC4/Async_Feedback_Counter.c **** *  void
 209:.\Generated_Source\PSoC4/Async_Feedback_Counter.c **** *
 210:.\Generated_Source\PSoC4/Async_Feedback_Counter.c **** * Global variables:
 211:.\Generated_Source\PSoC4/Async_Feedback_Counter.c **** *  Async_Feedback_Counter_initVar: Is modified when this function is called for the
 212:.\Generated_Source\PSoC4/Async_Feedback_Counter.c **** *   first time. Is used to ensure that initialization happens only once.
 213:.\Generated_Source\PSoC4/Async_Feedback_Counter.c **** *
 214:.\Generated_Source\PSoC4/Async_Feedback_Counter.c **** *******************************************************************************/
 215:.\Generated_Source\PSoC4/Async_Feedback_Counter.c **** void Async_Feedback_Counter_Start(void) 
 216:.\Generated_Source\PSoC4/Async_Feedback_Counter.c **** {
 217:.\Generated_Source\PSoC4/Async_Feedback_Counter.c ****     if(Async_Feedback_Counter_initVar == 0u)
 218:.\Generated_Source\PSoC4/Async_Feedback_Counter.c ****     {
 219:.\Generated_Source\PSoC4/Async_Feedback_Counter.c ****         Async_Feedback_Counter_Init();
 220:.\Generated_Source\PSoC4/Async_Feedback_Counter.c **** 
 221:.\Generated_Source\PSoC4/Async_Feedback_Counter.c ****         Async_Feedback_Counter_initVar = 1u;   /* Clear this bit for Initialization */
 222:.\Generated_Source\PSoC4/Async_Feedback_Counter.c ****     }
 223:.\Generated_Source\PSoC4/Async_Feedback_Counter.c **** 
 224:.\Generated_Source\PSoC4/Async_Feedback_Counter.c ****     /* Enable the Timer */
 225:.\Generated_Source\PSoC4/Async_Feedback_Counter.c ****     Async_Feedback_Counter_Enable();
 226:.\Generated_Source\PSoC4/Async_Feedback_Counter.c **** }
 227:.\Generated_Source\PSoC4/Async_Feedback_Counter.c **** 
 228:.\Generated_Source\PSoC4/Async_Feedback_Counter.c **** 
 229:.\Generated_Source\PSoC4/Async_Feedback_Counter.c **** /*******************************************************************************
 230:.\Generated_Source\PSoC4/Async_Feedback_Counter.c **** * Function Name: Async_Feedback_Counter_Stop
 231:.\Generated_Source\PSoC4/Async_Feedback_Counter.c **** ********************************************************************************
 232:.\Generated_Source\PSoC4/Async_Feedback_Counter.c **** *
 233:.\Generated_Source\PSoC4/Async_Feedback_Counter.c **** * Summary:
 234:.\Generated_Source\PSoC4/Async_Feedback_Counter.c **** *  The stop function halts the timer, but does not change any modes or disable
ARM GAS  C:\Users\Terence\AppData\Local\Temp\ccSn7UJt.s 			page 6


 235:.\Generated_Source\PSoC4/Async_Feedback_Counter.c **** *  interrupts.
 236:.\Generated_Source\PSoC4/Async_Feedback_Counter.c **** *
 237:.\Generated_Source\PSoC4/Async_Feedback_Counter.c **** * Parameters:
 238:.\Generated_Source\PSoC4/Async_Feedback_Counter.c **** *  void
 239:.\Generated_Source\PSoC4/Async_Feedback_Counter.c **** *
 240:.\Generated_Source\PSoC4/Async_Feedback_Counter.c **** * Return:
 241:.\Generated_Source\PSoC4/Async_Feedback_Counter.c **** *  void
 242:.\Generated_Source\PSoC4/Async_Feedback_Counter.c **** *
 243:.\Generated_Source\PSoC4/Async_Feedback_Counter.c **** * Side Effects: If the Enable mode is set to Hardware only then this function
 244:.\Generated_Source\PSoC4/Async_Feedback_Counter.c **** *               has no effect on the operation of the timer.
 245:.\Generated_Source\PSoC4/Async_Feedback_Counter.c **** *
 246:.\Generated_Source\PSoC4/Async_Feedback_Counter.c **** *******************************************************************************/
 247:.\Generated_Source\PSoC4/Async_Feedback_Counter.c **** void Async_Feedback_Counter_Stop(void) 
 248:.\Generated_Source\PSoC4/Async_Feedback_Counter.c **** {
  52              		.loc 1 248 0
  53              		.cfi_startproc
 249:.\Generated_Source\PSoC4/Async_Feedback_Counter.c ****     /* Disable Timer */
 250:.\Generated_Source\PSoC4/Async_Feedback_Counter.c ****     #if(!Async_Feedback_Counter_UDB_CONTROL_REG_REMOVED || Async_Feedback_Counter_UsingFixedFunctio
 251:.\Generated_Source\PSoC4/Async_Feedback_Counter.c ****         Async_Feedback_Counter_CONTROL &= ((uint8)(~Async_Feedback_Counter_CTRL_ENABLE));
  54              		.loc 1 251 0
  55 0000 024A     		ldr	r2, .L5
  56 0002 1178     		ldrb	r1, [r2]
  57 0004 7F23     		mov	r3, #127
  58 0006 0B40     		and	r3, r1
  59 0008 1370     		strb	r3, [r2]
 252:.\Generated_Source\PSoC4/Async_Feedback_Counter.c ****     #endif /* Remove assignment if control register is removed */
 253:.\Generated_Source\PSoC4/Async_Feedback_Counter.c **** 
 254:.\Generated_Source\PSoC4/Async_Feedback_Counter.c ****     /* Globally disable the Fixed Function Block chosen */
 255:.\Generated_Source\PSoC4/Async_Feedback_Counter.c ****     #if (Async_Feedback_Counter_UsingFixedFunction)
 256:.\Generated_Source\PSoC4/Async_Feedback_Counter.c ****         Async_Feedback_Counter_GLOBAL_ENABLE &= ((uint8)(~Async_Feedback_Counter_BLOCK_EN_MASK));
 257:.\Generated_Source\PSoC4/Async_Feedback_Counter.c ****         Async_Feedback_Counter_GLOBAL_STBY_ENABLE &= ((uint8)(~Async_Feedback_Counter_BLOCK_STBY_EN
 258:.\Generated_Source\PSoC4/Async_Feedback_Counter.c ****     #endif /* Disable global enable for the Timer Fixed function block to stop the Timer*/
 259:.\Generated_Source\PSoC4/Async_Feedback_Counter.c **** }
  60              		.loc 1 259 0
  61              		@ sp needed
  62 000a 7047     		bx	lr
  63              	.L6:
  64              		.align	2
  65              	.L5:
  66 000c 71000F40 		.word	1074724977
  67              		.cfi_endproc
  68              	.LFE5:
  69              		.size	Async_Feedback_Counter_Stop, .-Async_Feedback_Counter_Stop
  70              		.section	.text.Async_Feedback_Counter_SetInterruptMode,"ax",%progbits
  71              		.align	2
  72              		.global	Async_Feedback_Counter_SetInterruptMode
  73              		.code	16
  74              		.thumb_func
  75              		.type	Async_Feedback_Counter_SetInterruptMode, %function
  76              	Async_Feedback_Counter_SetInterruptMode:
  77              	.LFB6:
 260:.\Generated_Source\PSoC4/Async_Feedback_Counter.c **** 
 261:.\Generated_Source\PSoC4/Async_Feedback_Counter.c **** 
 262:.\Generated_Source\PSoC4/Async_Feedback_Counter.c **** /*******************************************************************************
 263:.\Generated_Source\PSoC4/Async_Feedback_Counter.c **** * Function Name: Async_Feedback_Counter_SetInterruptMode
 264:.\Generated_Source\PSoC4/Async_Feedback_Counter.c **** ********************************************************************************
 265:.\Generated_Source\PSoC4/Async_Feedback_Counter.c **** *
ARM GAS  C:\Users\Terence\AppData\Local\Temp\ccSn7UJt.s 			page 7


 266:.\Generated_Source\PSoC4/Async_Feedback_Counter.c **** * Summary:
 267:.\Generated_Source\PSoC4/Async_Feedback_Counter.c **** *  This function selects which of the interrupt inputs may cause an interrupt.
 268:.\Generated_Source\PSoC4/Async_Feedback_Counter.c **** *  The twosources are caputure and terminal.  One, both or neither may
 269:.\Generated_Source\PSoC4/Async_Feedback_Counter.c **** *  be selected.
 270:.\Generated_Source\PSoC4/Async_Feedback_Counter.c **** *
 271:.\Generated_Source\PSoC4/Async_Feedback_Counter.c **** * Parameters:
 272:.\Generated_Source\PSoC4/Async_Feedback_Counter.c **** *  interruptMode:   This parameter is used to enable interrups on either/or
 273:.\Generated_Source\PSoC4/Async_Feedback_Counter.c **** *                   terminal count or capture.
 274:.\Generated_Source\PSoC4/Async_Feedback_Counter.c **** *
 275:.\Generated_Source\PSoC4/Async_Feedback_Counter.c **** * Return:
 276:.\Generated_Source\PSoC4/Async_Feedback_Counter.c **** *  void
 277:.\Generated_Source\PSoC4/Async_Feedback_Counter.c **** *
 278:.\Generated_Source\PSoC4/Async_Feedback_Counter.c **** *******************************************************************************/
 279:.\Generated_Source\PSoC4/Async_Feedback_Counter.c **** void Async_Feedback_Counter_SetInterruptMode(uint8 interruptMode) 
 280:.\Generated_Source\PSoC4/Async_Feedback_Counter.c **** {
  78              		.loc 1 280 0
  79              		.cfi_startproc
  80              	.LVL0:
 281:.\Generated_Source\PSoC4/Async_Feedback_Counter.c ****     Async_Feedback_Counter_STATUS_MASK = interruptMode;
  81              		.loc 1 281 0
  82 0000 014B     		ldr	r3, .L8
  83 0002 1870     		strb	r0, [r3]
 282:.\Generated_Source\PSoC4/Async_Feedback_Counter.c **** }
  84              		.loc 1 282 0
  85              		@ sp needed
  86 0004 7047     		bx	lr
  87              	.L9:
  88 0006 C046     		.align	2
  89              	.L8:
  90 0008 82000F40 		.word	1074724994
  91              		.cfi_endproc
  92              	.LFE6:
  93              		.size	Async_Feedback_Counter_SetInterruptMode, .-Async_Feedback_Counter_SetInterruptMode
  94              		.section	.text.Async_Feedback_Counter_SoftwareCapture,"ax",%progbits
  95              		.align	2
  96              		.global	Async_Feedback_Counter_SoftwareCapture
  97              		.code	16
  98              		.thumb_func
  99              		.type	Async_Feedback_Counter_SoftwareCapture, %function
 100              	Async_Feedback_Counter_SoftwareCapture:
 101              	.LFB7:
 283:.\Generated_Source\PSoC4/Async_Feedback_Counter.c **** 
 284:.\Generated_Source\PSoC4/Async_Feedback_Counter.c **** 
 285:.\Generated_Source\PSoC4/Async_Feedback_Counter.c **** /*******************************************************************************
 286:.\Generated_Source\PSoC4/Async_Feedback_Counter.c **** * Function Name: Async_Feedback_Counter_SoftwareCapture
 287:.\Generated_Source\PSoC4/Async_Feedback_Counter.c **** ********************************************************************************
 288:.\Generated_Source\PSoC4/Async_Feedback_Counter.c **** *
 289:.\Generated_Source\PSoC4/Async_Feedback_Counter.c **** * Summary:
 290:.\Generated_Source\PSoC4/Async_Feedback_Counter.c **** *  This function forces a capture independent of the capture signal.
 291:.\Generated_Source\PSoC4/Async_Feedback_Counter.c **** *
 292:.\Generated_Source\PSoC4/Async_Feedback_Counter.c **** * Parameters:
 293:.\Generated_Source\PSoC4/Async_Feedback_Counter.c **** *  void
 294:.\Generated_Source\PSoC4/Async_Feedback_Counter.c **** *
 295:.\Generated_Source\PSoC4/Async_Feedback_Counter.c **** * Return:
 296:.\Generated_Source\PSoC4/Async_Feedback_Counter.c **** *  void
 297:.\Generated_Source\PSoC4/Async_Feedback_Counter.c **** *
 298:.\Generated_Source\PSoC4/Async_Feedback_Counter.c **** * Side Effects:
ARM GAS  C:\Users\Terence\AppData\Local\Temp\ccSn7UJt.s 			page 8


 299:.\Generated_Source\PSoC4/Async_Feedback_Counter.c **** *  An existing hardware capture could be overwritten.
 300:.\Generated_Source\PSoC4/Async_Feedback_Counter.c **** *
 301:.\Generated_Source\PSoC4/Async_Feedback_Counter.c **** *******************************************************************************/
 302:.\Generated_Source\PSoC4/Async_Feedback_Counter.c **** void Async_Feedback_Counter_SoftwareCapture(void) 
 303:.\Generated_Source\PSoC4/Async_Feedback_Counter.c **** {
 102              		.loc 1 303 0
 103              		.cfi_startproc
 304:.\Generated_Source\PSoC4/Async_Feedback_Counter.c ****     /* Generate a software capture by reading the counter register */
 305:.\Generated_Source\PSoC4/Async_Feedback_Counter.c ****     #if(Async_Feedback_Counter_UsingFixedFunction)
 306:.\Generated_Source\PSoC4/Async_Feedback_Counter.c ****         (void)CY_GET_REG16(Async_Feedback_Counter_COUNTER_LSB_PTR);
 307:.\Generated_Source\PSoC4/Async_Feedback_Counter.c ****     #else
 308:.\Generated_Source\PSoC4/Async_Feedback_Counter.c ****         (void)CY_GET_REG8(Async_Feedback_Counter_COUNTER_LSB_PTR_8BIT);
 104              		.loc 1 308 0
 105 0000 014B     		ldr	r3, .L11
 106 0002 1B78     		ldrb	r3, [r3]
 309:.\Generated_Source\PSoC4/Async_Feedback_Counter.c ****     #endif/* (Async_Feedback_Counter_UsingFixedFunction) */
 310:.\Generated_Source\PSoC4/Async_Feedback_Counter.c ****     /* Capture Data is now in the FIFO */
 311:.\Generated_Source\PSoC4/Async_Feedback_Counter.c **** }
 107              		.loc 1 311 0
 108              		@ sp needed
 109 0004 7047     		bx	lr
 110              	.L12:
 111 0006 C046     		.align	2
 112              	.L11:
 113 0008 01000F40 		.word	1074724865
 114              		.cfi_endproc
 115              	.LFE7:
 116              		.size	Async_Feedback_Counter_SoftwareCapture, .-Async_Feedback_Counter_SoftwareCapture
 117              		.section	.text.Async_Feedback_Counter_ReadStatusRegister,"ax",%progbits
 118              		.align	2
 119              		.global	Async_Feedback_Counter_ReadStatusRegister
 120              		.code	16
 121              		.thumb_func
 122              		.type	Async_Feedback_Counter_ReadStatusRegister, %function
 123              	Async_Feedback_Counter_ReadStatusRegister:
 124              	.LFB8:
 312:.\Generated_Source\PSoC4/Async_Feedback_Counter.c **** 
 313:.\Generated_Source\PSoC4/Async_Feedback_Counter.c **** 
 314:.\Generated_Source\PSoC4/Async_Feedback_Counter.c **** /*******************************************************************************
 315:.\Generated_Source\PSoC4/Async_Feedback_Counter.c **** * Function Name: Async_Feedback_Counter_ReadStatusRegister
 316:.\Generated_Source\PSoC4/Async_Feedback_Counter.c **** ********************************************************************************
 317:.\Generated_Source\PSoC4/Async_Feedback_Counter.c **** *
 318:.\Generated_Source\PSoC4/Async_Feedback_Counter.c **** * Summary:
 319:.\Generated_Source\PSoC4/Async_Feedback_Counter.c **** *  Reads the status register and returns it's state. This function should use
 320:.\Generated_Source\PSoC4/Async_Feedback_Counter.c **** *  defined types for the bit-field information as the bits in this register may
 321:.\Generated_Source\PSoC4/Async_Feedback_Counter.c **** *  be permuteable.
 322:.\Generated_Source\PSoC4/Async_Feedback_Counter.c **** *
 323:.\Generated_Source\PSoC4/Async_Feedback_Counter.c **** * Parameters:
 324:.\Generated_Source\PSoC4/Async_Feedback_Counter.c **** *  void
 325:.\Generated_Source\PSoC4/Async_Feedback_Counter.c **** *
 326:.\Generated_Source\PSoC4/Async_Feedback_Counter.c **** * Return:
 327:.\Generated_Source\PSoC4/Async_Feedback_Counter.c **** *  The contents of the status register
 328:.\Generated_Source\PSoC4/Async_Feedback_Counter.c **** *
 329:.\Generated_Source\PSoC4/Async_Feedback_Counter.c **** * Side Effects:
 330:.\Generated_Source\PSoC4/Async_Feedback_Counter.c **** *  Status register bits may be clear on read.
 331:.\Generated_Source\PSoC4/Async_Feedback_Counter.c **** *
 332:.\Generated_Source\PSoC4/Async_Feedback_Counter.c **** *******************************************************************************/
ARM GAS  C:\Users\Terence\AppData\Local\Temp\ccSn7UJt.s 			page 9


 333:.\Generated_Source\PSoC4/Async_Feedback_Counter.c **** uint8   Async_Feedback_Counter_ReadStatusRegister(void) 
 334:.\Generated_Source\PSoC4/Async_Feedback_Counter.c **** {
 125              		.loc 1 334 0
 126              		.cfi_startproc
 335:.\Generated_Source\PSoC4/Async_Feedback_Counter.c ****     return (Async_Feedback_Counter_STATUS);
 127              		.loc 1 335 0
 128 0000 014B     		ldr	r3, .L14
 129 0002 1878     		ldrb	r0, [r3]
 130 0004 C0B2     		uxtb	r0, r0
 336:.\Generated_Source\PSoC4/Async_Feedback_Counter.c **** }
 131              		.loc 1 336 0
 132              		@ sp needed
 133 0006 7047     		bx	lr
 134              	.L15:
 135              		.align	2
 136              	.L14:
 137 0008 62000F40 		.word	1074724962
 138              		.cfi_endproc
 139              	.LFE8:
 140              		.size	Async_Feedback_Counter_ReadStatusRegister, .-Async_Feedback_Counter_ReadStatusRegister
 141              		.section	.text.Async_Feedback_Counter_ReadControlRegister,"ax",%progbits
 142              		.align	2
 143              		.global	Async_Feedback_Counter_ReadControlRegister
 144              		.code	16
 145              		.thumb_func
 146              		.type	Async_Feedback_Counter_ReadControlRegister, %function
 147              	Async_Feedback_Counter_ReadControlRegister:
 148              	.LFB9:
 337:.\Generated_Source\PSoC4/Async_Feedback_Counter.c **** 
 338:.\Generated_Source\PSoC4/Async_Feedback_Counter.c **** 
 339:.\Generated_Source\PSoC4/Async_Feedback_Counter.c **** #if (!Async_Feedback_Counter_UDB_CONTROL_REG_REMOVED) /* Remove API if control register is unused *
 340:.\Generated_Source\PSoC4/Async_Feedback_Counter.c **** 
 341:.\Generated_Source\PSoC4/Async_Feedback_Counter.c **** 
 342:.\Generated_Source\PSoC4/Async_Feedback_Counter.c **** /*******************************************************************************
 343:.\Generated_Source\PSoC4/Async_Feedback_Counter.c **** * Function Name: Async_Feedback_Counter_ReadControlRegister
 344:.\Generated_Source\PSoC4/Async_Feedback_Counter.c **** ********************************************************************************
 345:.\Generated_Source\PSoC4/Async_Feedback_Counter.c **** *
 346:.\Generated_Source\PSoC4/Async_Feedback_Counter.c **** * Summary:
 347:.\Generated_Source\PSoC4/Async_Feedback_Counter.c **** *  Reads the control register and returns it's value.
 348:.\Generated_Source\PSoC4/Async_Feedback_Counter.c **** *
 349:.\Generated_Source\PSoC4/Async_Feedback_Counter.c **** * Parameters:
 350:.\Generated_Source\PSoC4/Async_Feedback_Counter.c **** *  void
 351:.\Generated_Source\PSoC4/Async_Feedback_Counter.c **** *
 352:.\Generated_Source\PSoC4/Async_Feedback_Counter.c **** * Return:
 353:.\Generated_Source\PSoC4/Async_Feedback_Counter.c **** *  The contents of the control register
 354:.\Generated_Source\PSoC4/Async_Feedback_Counter.c **** *
 355:.\Generated_Source\PSoC4/Async_Feedback_Counter.c **** *******************************************************************************/
 356:.\Generated_Source\PSoC4/Async_Feedback_Counter.c **** uint8 Async_Feedback_Counter_ReadControlRegister(void) 
 357:.\Generated_Source\PSoC4/Async_Feedback_Counter.c **** {
 149              		.loc 1 357 0
 150              		.cfi_startproc
 358:.\Generated_Source\PSoC4/Async_Feedback_Counter.c ****     #if (!Async_Feedback_Counter_UDB_CONTROL_REG_REMOVED) 
 359:.\Generated_Source\PSoC4/Async_Feedback_Counter.c ****         return ((uint8)Async_Feedback_Counter_CONTROL);
 151              		.loc 1 359 0
 152 0000 014B     		ldr	r3, .L17
 153 0002 1878     		ldrb	r0, [r3]
 154 0004 C0B2     		uxtb	r0, r0
ARM GAS  C:\Users\Terence\AppData\Local\Temp\ccSn7UJt.s 			page 10


 360:.\Generated_Source\PSoC4/Async_Feedback_Counter.c ****     #else
 361:.\Generated_Source\PSoC4/Async_Feedback_Counter.c ****         return (0);
 362:.\Generated_Source\PSoC4/Async_Feedback_Counter.c ****     #endif /* (!Async_Feedback_Counter_UDB_CONTROL_REG_REMOVED) */
 363:.\Generated_Source\PSoC4/Async_Feedback_Counter.c **** }
 155              		.loc 1 363 0
 156              		@ sp needed
 157 0006 7047     		bx	lr
 158              	.L18:
 159              		.align	2
 160              	.L17:
 161 0008 71000F40 		.word	1074724977
 162              		.cfi_endproc
 163              	.LFE9:
 164              		.size	Async_Feedback_Counter_ReadControlRegister, .-Async_Feedback_Counter_ReadControlRegister
 165              		.section	.text.Async_Feedback_Counter_WriteControlRegister,"ax",%progbits
 166              		.align	2
 167              		.global	Async_Feedback_Counter_WriteControlRegister
 168              		.code	16
 169              		.thumb_func
 170              		.type	Async_Feedback_Counter_WriteControlRegister, %function
 171              	Async_Feedback_Counter_WriteControlRegister:
 172              	.LFB10:
 364:.\Generated_Source\PSoC4/Async_Feedback_Counter.c **** 
 365:.\Generated_Source\PSoC4/Async_Feedback_Counter.c **** 
 366:.\Generated_Source\PSoC4/Async_Feedback_Counter.c **** /*******************************************************************************
 367:.\Generated_Source\PSoC4/Async_Feedback_Counter.c **** * Function Name: Async_Feedback_Counter_WriteControlRegister
 368:.\Generated_Source\PSoC4/Async_Feedback_Counter.c **** ********************************************************************************
 369:.\Generated_Source\PSoC4/Async_Feedback_Counter.c **** *
 370:.\Generated_Source\PSoC4/Async_Feedback_Counter.c **** * Summary:
 371:.\Generated_Source\PSoC4/Async_Feedback_Counter.c **** *  Sets the bit-field of the control register.
 372:.\Generated_Source\PSoC4/Async_Feedback_Counter.c **** *
 373:.\Generated_Source\PSoC4/Async_Feedback_Counter.c **** * Parameters:
 374:.\Generated_Source\PSoC4/Async_Feedback_Counter.c **** *  control: The contents of the control register
 375:.\Generated_Source\PSoC4/Async_Feedback_Counter.c **** *
 376:.\Generated_Source\PSoC4/Async_Feedback_Counter.c **** * Return:
 377:.\Generated_Source\PSoC4/Async_Feedback_Counter.c **** *
 378:.\Generated_Source\PSoC4/Async_Feedback_Counter.c **** *******************************************************************************/
 379:.\Generated_Source\PSoC4/Async_Feedback_Counter.c **** void Async_Feedback_Counter_WriteControlRegister(uint8 control) 
 380:.\Generated_Source\PSoC4/Async_Feedback_Counter.c **** {
 173              		.loc 1 380 0
 174              		.cfi_startproc
 175              	.LVL1:
 381:.\Generated_Source\PSoC4/Async_Feedback_Counter.c ****     #if (!Async_Feedback_Counter_UDB_CONTROL_REG_REMOVED) 
 382:.\Generated_Source\PSoC4/Async_Feedback_Counter.c ****         Async_Feedback_Counter_CONTROL = control;
 176              		.loc 1 382 0
 177 0000 014B     		ldr	r3, .L20
 178 0002 1870     		strb	r0, [r3]
 383:.\Generated_Source\PSoC4/Async_Feedback_Counter.c ****     #else
 384:.\Generated_Source\PSoC4/Async_Feedback_Counter.c ****         control = 0u;
 385:.\Generated_Source\PSoC4/Async_Feedback_Counter.c ****     #endif /* (!Async_Feedback_Counter_UDB_CONTROL_REG_REMOVED) */
 386:.\Generated_Source\PSoC4/Async_Feedback_Counter.c **** }
 179              		.loc 1 386 0
 180              		@ sp needed
 181 0004 7047     		bx	lr
 182              	.L21:
 183 0006 C046     		.align	2
 184              	.L20:
ARM GAS  C:\Users\Terence\AppData\Local\Temp\ccSn7UJt.s 			page 11


 185 0008 71000F40 		.word	1074724977
 186              		.cfi_endproc
 187              	.LFE10:
 188              		.size	Async_Feedback_Counter_WriteControlRegister, .-Async_Feedback_Counter_WriteControlRegister
 189              		.section	.text.Async_Feedback_Counter_ReadPeriod,"ax",%progbits
 190              		.align	2
 191              		.global	Async_Feedback_Counter_ReadPeriod
 192              		.code	16
 193              		.thumb_func
 194              		.type	Async_Feedback_Counter_ReadPeriod, %function
 195              	Async_Feedback_Counter_ReadPeriod:
 196              	.LFB11:
 387:.\Generated_Source\PSoC4/Async_Feedback_Counter.c **** 
 388:.\Generated_Source\PSoC4/Async_Feedback_Counter.c **** #endif /* Remove API if control register is unused */
 389:.\Generated_Source\PSoC4/Async_Feedback_Counter.c **** 
 390:.\Generated_Source\PSoC4/Async_Feedback_Counter.c **** 
 391:.\Generated_Source\PSoC4/Async_Feedback_Counter.c **** /*******************************************************************************
 392:.\Generated_Source\PSoC4/Async_Feedback_Counter.c **** * Function Name: Async_Feedback_Counter_ReadPeriod
 393:.\Generated_Source\PSoC4/Async_Feedback_Counter.c **** ********************************************************************************
 394:.\Generated_Source\PSoC4/Async_Feedback_Counter.c **** *
 395:.\Generated_Source\PSoC4/Async_Feedback_Counter.c **** * Summary:
 396:.\Generated_Source\PSoC4/Async_Feedback_Counter.c **** *  This function returns the current value of the Period.
 397:.\Generated_Source\PSoC4/Async_Feedback_Counter.c **** *
 398:.\Generated_Source\PSoC4/Async_Feedback_Counter.c **** * Parameters:
 399:.\Generated_Source\PSoC4/Async_Feedback_Counter.c **** *  void
 400:.\Generated_Source\PSoC4/Async_Feedback_Counter.c **** *
 401:.\Generated_Source\PSoC4/Async_Feedback_Counter.c **** * Return:
 402:.\Generated_Source\PSoC4/Async_Feedback_Counter.c **** *  The present value of the counter.
 403:.\Generated_Source\PSoC4/Async_Feedback_Counter.c **** *
 404:.\Generated_Source\PSoC4/Async_Feedback_Counter.c **** *******************************************************************************/
 405:.\Generated_Source\PSoC4/Async_Feedback_Counter.c **** uint8 Async_Feedback_Counter_ReadPeriod(void) 
 406:.\Generated_Source\PSoC4/Async_Feedback_Counter.c **** {
 197              		.loc 1 406 0
 198              		.cfi_startproc
 407:.\Generated_Source\PSoC4/Async_Feedback_Counter.c ****    #if(Async_Feedback_Counter_UsingFixedFunction)
 408:.\Generated_Source\PSoC4/Async_Feedback_Counter.c ****        return ((uint8)CY_GET_REG16(Async_Feedback_Counter_PERIOD_LSB_PTR));
 409:.\Generated_Source\PSoC4/Async_Feedback_Counter.c ****    #else
 410:.\Generated_Source\PSoC4/Async_Feedback_Counter.c ****        return (CY_GET_REG8(Async_Feedback_Counter_PERIOD_LSB_PTR));
 199              		.loc 1 410 0
 200 0000 014B     		ldr	r3, .L23
 201 0002 1878     		ldrb	r0, [r3]
 202 0004 C0B2     		uxtb	r0, r0
 411:.\Generated_Source\PSoC4/Async_Feedback_Counter.c ****    #endif /* (Async_Feedback_Counter_UsingFixedFunction) */
 412:.\Generated_Source\PSoC4/Async_Feedback_Counter.c **** }
 203              		.loc 1 412 0
 204              		@ sp needed
 205 0006 7047     		bx	lr
 206              	.L24:
 207              		.align	2
 208              	.L23:
 209 0008 21000F40 		.word	1074724897
 210              		.cfi_endproc
 211              	.LFE11:
 212              		.size	Async_Feedback_Counter_ReadPeriod, .-Async_Feedback_Counter_ReadPeriod
 213              		.section	.text.Async_Feedback_Counter_WritePeriod,"ax",%progbits
 214              		.align	2
 215              		.global	Async_Feedback_Counter_WritePeriod
ARM GAS  C:\Users\Terence\AppData\Local\Temp\ccSn7UJt.s 			page 12


 216              		.code	16
 217              		.thumb_func
 218              		.type	Async_Feedback_Counter_WritePeriod, %function
 219              	Async_Feedback_Counter_WritePeriod:
 220              	.LFB12:
 413:.\Generated_Source\PSoC4/Async_Feedback_Counter.c **** 
 414:.\Generated_Source\PSoC4/Async_Feedback_Counter.c **** 
 415:.\Generated_Source\PSoC4/Async_Feedback_Counter.c **** /*******************************************************************************
 416:.\Generated_Source\PSoC4/Async_Feedback_Counter.c **** * Function Name: Async_Feedback_Counter_WritePeriod
 417:.\Generated_Source\PSoC4/Async_Feedback_Counter.c **** ********************************************************************************
 418:.\Generated_Source\PSoC4/Async_Feedback_Counter.c **** *
 419:.\Generated_Source\PSoC4/Async_Feedback_Counter.c **** * Summary:
 420:.\Generated_Source\PSoC4/Async_Feedback_Counter.c **** *  This function is used to change the period of the counter.  The new period
 421:.\Generated_Source\PSoC4/Async_Feedback_Counter.c **** *  will be loaded the next time terminal count is detected.
 422:.\Generated_Source\PSoC4/Async_Feedback_Counter.c **** *
 423:.\Generated_Source\PSoC4/Async_Feedback_Counter.c **** * Parameters:
 424:.\Generated_Source\PSoC4/Async_Feedback_Counter.c **** *  period: This value may be between 1 and (2^Resolution)-1.  A value of 0 will
 425:.\Generated_Source\PSoC4/Async_Feedback_Counter.c **** *          result in the counter remaining at zero.
 426:.\Generated_Source\PSoC4/Async_Feedback_Counter.c **** *
 427:.\Generated_Source\PSoC4/Async_Feedback_Counter.c **** * Return:
 428:.\Generated_Source\PSoC4/Async_Feedback_Counter.c **** *  void
 429:.\Generated_Source\PSoC4/Async_Feedback_Counter.c **** *
 430:.\Generated_Source\PSoC4/Async_Feedback_Counter.c **** *******************************************************************************/
 431:.\Generated_Source\PSoC4/Async_Feedback_Counter.c **** void Async_Feedback_Counter_WritePeriod(uint8 period) 
 432:.\Generated_Source\PSoC4/Async_Feedback_Counter.c **** {
 221              		.loc 1 432 0
 222              		.cfi_startproc
 223              	.LVL2:
 433:.\Generated_Source\PSoC4/Async_Feedback_Counter.c ****     #if(Async_Feedback_Counter_UsingFixedFunction)
 434:.\Generated_Source\PSoC4/Async_Feedback_Counter.c ****         uint16 period_temp = (uint16)period;
 435:.\Generated_Source\PSoC4/Async_Feedback_Counter.c ****         CY_SET_REG16(Async_Feedback_Counter_PERIOD_LSB_PTR, period_temp);
 436:.\Generated_Source\PSoC4/Async_Feedback_Counter.c ****     #else
 437:.\Generated_Source\PSoC4/Async_Feedback_Counter.c ****         CY_SET_REG8(Async_Feedback_Counter_PERIOD_LSB_PTR, period);
 224              		.loc 1 437 0
 225 0000 014B     		ldr	r3, .L26
 226 0002 1870     		strb	r0, [r3]
 438:.\Generated_Source\PSoC4/Async_Feedback_Counter.c ****     #endif /*Write Period value with appropriate resolution suffix depending on UDB or fixed functi
 439:.\Generated_Source\PSoC4/Async_Feedback_Counter.c **** }
 227              		.loc 1 439 0
 228              		@ sp needed
 229 0004 7047     		bx	lr
 230              	.L27:
 231 0006 C046     		.align	2
 232              	.L26:
 233 0008 21000F40 		.word	1074724897
 234              		.cfi_endproc
 235              	.LFE12:
 236              		.size	Async_Feedback_Counter_WritePeriod, .-Async_Feedback_Counter_WritePeriod
 237              		.section	.text.Async_Feedback_Counter_ReadCapture,"ax",%progbits
 238              		.align	2
 239              		.global	Async_Feedback_Counter_ReadCapture
 240              		.code	16
 241              		.thumb_func
 242              		.type	Async_Feedback_Counter_ReadCapture, %function
 243              	Async_Feedback_Counter_ReadCapture:
 244              	.LFB13:
 440:.\Generated_Source\PSoC4/Async_Feedback_Counter.c **** 
ARM GAS  C:\Users\Terence\AppData\Local\Temp\ccSn7UJt.s 			page 13


 441:.\Generated_Source\PSoC4/Async_Feedback_Counter.c **** 
 442:.\Generated_Source\PSoC4/Async_Feedback_Counter.c **** /*******************************************************************************
 443:.\Generated_Source\PSoC4/Async_Feedback_Counter.c **** * Function Name: Async_Feedback_Counter_ReadCapture
 444:.\Generated_Source\PSoC4/Async_Feedback_Counter.c **** ********************************************************************************
 445:.\Generated_Source\PSoC4/Async_Feedback_Counter.c **** *
 446:.\Generated_Source\PSoC4/Async_Feedback_Counter.c **** * Summary:
 447:.\Generated_Source\PSoC4/Async_Feedback_Counter.c **** *  This function returns the last value captured.
 448:.\Generated_Source\PSoC4/Async_Feedback_Counter.c **** *
 449:.\Generated_Source\PSoC4/Async_Feedback_Counter.c **** * Parameters:
 450:.\Generated_Source\PSoC4/Async_Feedback_Counter.c **** *  void
 451:.\Generated_Source\PSoC4/Async_Feedback_Counter.c **** *
 452:.\Generated_Source\PSoC4/Async_Feedback_Counter.c **** * Return:
 453:.\Generated_Source\PSoC4/Async_Feedback_Counter.c **** *  Present Capture value.
 454:.\Generated_Source\PSoC4/Async_Feedback_Counter.c **** *
 455:.\Generated_Source\PSoC4/Async_Feedback_Counter.c **** *******************************************************************************/
 456:.\Generated_Source\PSoC4/Async_Feedback_Counter.c **** uint8 Async_Feedback_Counter_ReadCapture(void) 
 457:.\Generated_Source\PSoC4/Async_Feedback_Counter.c **** {
 245              		.loc 1 457 0
 246              		.cfi_startproc
 458:.\Generated_Source\PSoC4/Async_Feedback_Counter.c ****    #if(Async_Feedback_Counter_UsingFixedFunction)
 459:.\Generated_Source\PSoC4/Async_Feedback_Counter.c ****        return ((uint8)CY_GET_REG16(Async_Feedback_Counter_CAPTURE_LSB_PTR));
 460:.\Generated_Source\PSoC4/Async_Feedback_Counter.c ****    #else
 461:.\Generated_Source\PSoC4/Async_Feedback_Counter.c ****        return (CY_GET_REG8(Async_Feedback_Counter_CAPTURE_LSB_PTR));
 247              		.loc 1 461 0
 248 0000 014B     		ldr	r3, .L29
 249 0002 1878     		ldrb	r0, [r3]
 250 0004 C0B2     		uxtb	r0, r0
 462:.\Generated_Source\PSoC4/Async_Feedback_Counter.c ****    #endif /* (Async_Feedback_Counter_UsingFixedFunction) */
 463:.\Generated_Source\PSoC4/Async_Feedback_Counter.c **** }
 251              		.loc 1 463 0
 252              		@ sp needed
 253 0006 7047     		bx	lr
 254              	.L30:
 255              		.align	2
 256              	.L29:
 257 0008 41000F40 		.word	1074724929
 258              		.cfi_endproc
 259              	.LFE13:
 260              		.size	Async_Feedback_Counter_ReadCapture, .-Async_Feedback_Counter_ReadCapture
 261              		.section	.text.Async_Feedback_Counter_WriteCounter,"ax",%progbits
 262              		.align	2
 263              		.global	Async_Feedback_Counter_WriteCounter
 264              		.code	16
 265              		.thumb_func
 266              		.type	Async_Feedback_Counter_WriteCounter, %function
 267              	Async_Feedback_Counter_WriteCounter:
 268              	.LFB14:
 464:.\Generated_Source\PSoC4/Async_Feedback_Counter.c **** 
 465:.\Generated_Source\PSoC4/Async_Feedback_Counter.c **** 
 466:.\Generated_Source\PSoC4/Async_Feedback_Counter.c **** /*******************************************************************************
 467:.\Generated_Source\PSoC4/Async_Feedback_Counter.c **** * Function Name: Async_Feedback_Counter_WriteCounter
 468:.\Generated_Source\PSoC4/Async_Feedback_Counter.c **** ********************************************************************************
 469:.\Generated_Source\PSoC4/Async_Feedback_Counter.c **** *
 470:.\Generated_Source\PSoC4/Async_Feedback_Counter.c **** * Summary:
 471:.\Generated_Source\PSoC4/Async_Feedback_Counter.c **** *  This funtion is used to set the counter to a specific value
 472:.\Generated_Source\PSoC4/Async_Feedback_Counter.c **** *
 473:.\Generated_Source\PSoC4/Async_Feedback_Counter.c **** * Parameters:
ARM GAS  C:\Users\Terence\AppData\Local\Temp\ccSn7UJt.s 			page 14


 474:.\Generated_Source\PSoC4/Async_Feedback_Counter.c **** *  counter:  New counter value.
 475:.\Generated_Source\PSoC4/Async_Feedback_Counter.c **** *
 476:.\Generated_Source\PSoC4/Async_Feedback_Counter.c **** * Return:
 477:.\Generated_Source\PSoC4/Async_Feedback_Counter.c **** *  void
 478:.\Generated_Source\PSoC4/Async_Feedback_Counter.c **** *
 479:.\Generated_Source\PSoC4/Async_Feedback_Counter.c **** *******************************************************************************/
 480:.\Generated_Source\PSoC4/Async_Feedback_Counter.c **** void Async_Feedback_Counter_WriteCounter(uint8 counter) 
 481:.\Generated_Source\PSoC4/Async_Feedback_Counter.c **** {
 269              		.loc 1 481 0
 270              		.cfi_startproc
 271              	.LVL3:
 482:.\Generated_Source\PSoC4/Async_Feedback_Counter.c ****    #if(Async_Feedback_Counter_UsingFixedFunction)
 483:.\Generated_Source\PSoC4/Async_Feedback_Counter.c ****         /* This functionality is removed until a FixedFunction HW update to
 484:.\Generated_Source\PSoC4/Async_Feedback_Counter.c ****          * allow this register to be written
 485:.\Generated_Source\PSoC4/Async_Feedback_Counter.c ****          */
 486:.\Generated_Source\PSoC4/Async_Feedback_Counter.c ****         CY_SET_REG16(Async_Feedback_Counter_COUNTER_LSB_PTR, (uint16)counter);
 487:.\Generated_Source\PSoC4/Async_Feedback_Counter.c ****         
 488:.\Generated_Source\PSoC4/Async_Feedback_Counter.c ****     #else
 489:.\Generated_Source\PSoC4/Async_Feedback_Counter.c ****         CY_SET_REG8(Async_Feedback_Counter_COUNTER_LSB_PTR, counter);
 272              		.loc 1 489 0
 273 0000 014B     		ldr	r3, .L32
 274 0002 1870     		strb	r0, [r3]
 490:.\Generated_Source\PSoC4/Async_Feedback_Counter.c ****     #endif /* Set Write Counter only for the UDB implementation (Write Counter not available in fix
 491:.\Generated_Source\PSoC4/Async_Feedback_Counter.c **** }
 275              		.loc 1 491 0
 276              		@ sp needed
 277 0004 7047     		bx	lr
 278              	.L33:
 279 0006 C046     		.align	2
 280              	.L32:
 281 0008 01000F40 		.word	1074724865
 282              		.cfi_endproc
 283              	.LFE14:
 284              		.size	Async_Feedback_Counter_WriteCounter, .-Async_Feedback_Counter_WriteCounter
 285              		.section	.text.Async_Feedback_Counter_ReadCounter,"ax",%progbits
 286              		.align	2
 287              		.global	Async_Feedback_Counter_ReadCounter
 288              		.code	16
 289              		.thumb_func
 290              		.type	Async_Feedback_Counter_ReadCounter, %function
 291              	Async_Feedback_Counter_ReadCounter:
 292              	.LFB15:
 492:.\Generated_Source\PSoC4/Async_Feedback_Counter.c **** 
 493:.\Generated_Source\PSoC4/Async_Feedback_Counter.c **** 
 494:.\Generated_Source\PSoC4/Async_Feedback_Counter.c **** /*******************************************************************************
 495:.\Generated_Source\PSoC4/Async_Feedback_Counter.c **** * Function Name: Async_Feedback_Counter_ReadCounter
 496:.\Generated_Source\PSoC4/Async_Feedback_Counter.c **** ********************************************************************************
 497:.\Generated_Source\PSoC4/Async_Feedback_Counter.c **** *
 498:.\Generated_Source\PSoC4/Async_Feedback_Counter.c **** * Summary:
 499:.\Generated_Source\PSoC4/Async_Feedback_Counter.c **** *  This function returns the current counter value.
 500:.\Generated_Source\PSoC4/Async_Feedback_Counter.c **** *
 501:.\Generated_Source\PSoC4/Async_Feedback_Counter.c **** * Parameters:
 502:.\Generated_Source\PSoC4/Async_Feedback_Counter.c **** *  void
 503:.\Generated_Source\PSoC4/Async_Feedback_Counter.c **** *
 504:.\Generated_Source\PSoC4/Async_Feedback_Counter.c **** * Return:
 505:.\Generated_Source\PSoC4/Async_Feedback_Counter.c **** *  Present compare value.
 506:.\Generated_Source\PSoC4/Async_Feedback_Counter.c **** *
ARM GAS  C:\Users\Terence\AppData\Local\Temp\ccSn7UJt.s 			page 15


 507:.\Generated_Source\PSoC4/Async_Feedback_Counter.c **** *******************************************************************************/
 508:.\Generated_Source\PSoC4/Async_Feedback_Counter.c **** uint8 Async_Feedback_Counter_ReadCounter(void) 
 509:.\Generated_Source\PSoC4/Async_Feedback_Counter.c **** {
 293              		.loc 1 509 0
 294              		.cfi_startproc
 510:.\Generated_Source\PSoC4/Async_Feedback_Counter.c ****     /* Force capture by reading Accumulator */
 511:.\Generated_Source\PSoC4/Async_Feedback_Counter.c ****     /* Must first do a software capture to be able to read the counter */
 512:.\Generated_Source\PSoC4/Async_Feedback_Counter.c ****     /* It is up to the user code to make sure there isn't already captured data in the FIFO */
 513:.\Generated_Source\PSoC4/Async_Feedback_Counter.c ****     #if(Async_Feedback_Counter_UsingFixedFunction)
 514:.\Generated_Source\PSoC4/Async_Feedback_Counter.c ****         (void)CY_GET_REG16(Async_Feedback_Counter_COUNTER_LSB_PTR);
 515:.\Generated_Source\PSoC4/Async_Feedback_Counter.c ****     #else
 516:.\Generated_Source\PSoC4/Async_Feedback_Counter.c ****         (void)CY_GET_REG8(Async_Feedback_Counter_COUNTER_LSB_PTR_8BIT);
 295              		.loc 1 516 0
 296 0000 024B     		ldr	r3, .L35
 297 0002 1B78     		ldrb	r3, [r3]
 517:.\Generated_Source\PSoC4/Async_Feedback_Counter.c ****     #endif/* (Async_Feedback_Counter_UsingFixedFunction) */
 518:.\Generated_Source\PSoC4/Async_Feedback_Counter.c **** 
 519:.\Generated_Source\PSoC4/Async_Feedback_Counter.c ****     /* Read the data from the FIFO (or capture register for Fixed Function)*/
 520:.\Generated_Source\PSoC4/Async_Feedback_Counter.c ****     #if(Async_Feedback_Counter_UsingFixedFunction)
 521:.\Generated_Source\PSoC4/Async_Feedback_Counter.c ****         return ((uint8)CY_GET_REG16(Async_Feedback_Counter_CAPTURE_LSB_PTR));
 522:.\Generated_Source\PSoC4/Async_Feedback_Counter.c ****     #else
 523:.\Generated_Source\PSoC4/Async_Feedback_Counter.c ****         return (CY_GET_REG8(Async_Feedback_Counter_CAPTURE_LSB_PTR));
 298              		.loc 1 523 0
 299 0004 024B     		ldr	r3, .L35+4
 300 0006 1878     		ldrb	r0, [r3]
 301 0008 C0B2     		uxtb	r0, r0
 524:.\Generated_Source\PSoC4/Async_Feedback_Counter.c ****     #endif /* (Async_Feedback_Counter_UsingFixedFunction) */
 525:.\Generated_Source\PSoC4/Async_Feedback_Counter.c **** }
 302              		.loc 1 525 0
 303              		@ sp needed
 304 000a 7047     		bx	lr
 305              	.L36:
 306              		.align	2
 307              	.L35:
 308 000c 01000F40 		.word	1074724865
 309 0010 41000F40 		.word	1074724929
 310              		.cfi_endproc
 311              	.LFE15:
 312              		.size	Async_Feedback_Counter_ReadCounter, .-Async_Feedback_Counter_ReadCounter
 313              		.section	.text.Async_Feedback_Counter_ClearFIFO,"ax",%progbits
 314              		.align	2
 315              		.global	Async_Feedback_Counter_ClearFIFO
 316              		.code	16
 317              		.thumb_func
 318              		.type	Async_Feedback_Counter_ClearFIFO, %function
 319              	Async_Feedback_Counter_ClearFIFO:
 320              	.LFB16:
 526:.\Generated_Source\PSoC4/Async_Feedback_Counter.c **** 
 527:.\Generated_Source\PSoC4/Async_Feedback_Counter.c **** 
 528:.\Generated_Source\PSoC4/Async_Feedback_Counter.c **** #if(!Async_Feedback_Counter_UsingFixedFunction) /* UDB Specific Functions */
 529:.\Generated_Source\PSoC4/Async_Feedback_Counter.c **** 
 530:.\Generated_Source\PSoC4/Async_Feedback_Counter.c ****     
 531:.\Generated_Source\PSoC4/Async_Feedback_Counter.c **** /*******************************************************************************
 532:.\Generated_Source\PSoC4/Async_Feedback_Counter.c ****  * The functions below this point are only available using the UDB
 533:.\Generated_Source\PSoC4/Async_Feedback_Counter.c ****  * implementation.  If a feature is selected, then the API is enabled.
 534:.\Generated_Source\PSoC4/Async_Feedback_Counter.c ****  ******************************************************************************/
 535:.\Generated_Source\PSoC4/Async_Feedback_Counter.c **** 
ARM GAS  C:\Users\Terence\AppData\Local\Temp\ccSn7UJt.s 			page 16


 536:.\Generated_Source\PSoC4/Async_Feedback_Counter.c **** 
 537:.\Generated_Source\PSoC4/Async_Feedback_Counter.c **** #if (Async_Feedback_Counter_SoftwareCaptureMode)
 538:.\Generated_Source\PSoC4/Async_Feedback_Counter.c **** 
 539:.\Generated_Source\PSoC4/Async_Feedback_Counter.c **** 
 540:.\Generated_Source\PSoC4/Async_Feedback_Counter.c **** /*******************************************************************************
 541:.\Generated_Source\PSoC4/Async_Feedback_Counter.c **** * Function Name: Async_Feedback_Counter_SetCaptureMode
 542:.\Generated_Source\PSoC4/Async_Feedback_Counter.c **** ********************************************************************************
 543:.\Generated_Source\PSoC4/Async_Feedback_Counter.c **** *
 544:.\Generated_Source\PSoC4/Async_Feedback_Counter.c **** * Summary:
 545:.\Generated_Source\PSoC4/Async_Feedback_Counter.c **** *  This function sets the capture mode to either rising or falling edge.
 546:.\Generated_Source\PSoC4/Async_Feedback_Counter.c **** *
 547:.\Generated_Source\PSoC4/Async_Feedback_Counter.c **** * Parameters:
 548:.\Generated_Source\PSoC4/Async_Feedback_Counter.c **** *  captureMode: This parameter sets the capture mode of the UDB capture feature
 549:.\Generated_Source\PSoC4/Async_Feedback_Counter.c **** *  The parameter values are defined using the
 550:.\Generated_Source\PSoC4/Async_Feedback_Counter.c **** *  #define Async_Feedback_Counter__B_TIMER__CM_NONE 0
 551:.\Generated_Source\PSoC4/Async_Feedback_Counter.c **** #define Async_Feedback_Counter__B_TIMER__CM_RISINGEDGE 1
 552:.\Generated_Source\PSoC4/Async_Feedback_Counter.c **** #define Async_Feedback_Counter__B_TIMER__CM_FALLINGEDGE 2
 553:.\Generated_Source\PSoC4/Async_Feedback_Counter.c **** #define Async_Feedback_Counter__B_TIMER__CM_EITHEREDGE 3
 554:.\Generated_Source\PSoC4/Async_Feedback_Counter.c **** #define Async_Feedback_Counter__B_TIMER__CM_SOFTWARE 4
 555:.\Generated_Source\PSoC4/Async_Feedback_Counter.c ****  identifiers
 556:.\Generated_Source\PSoC4/Async_Feedback_Counter.c **** *  The following are the possible values of the parameter
 557:.\Generated_Source\PSoC4/Async_Feedback_Counter.c **** *  Async_Feedback_Counter__B_TIMER__CM_NONE        - Set Capture mode to None
 558:.\Generated_Source\PSoC4/Async_Feedback_Counter.c **** *  Async_Feedback_Counter__B_TIMER__CM_RISINGEDGE  - Rising edge of Capture input
 559:.\Generated_Source\PSoC4/Async_Feedback_Counter.c **** *  Async_Feedback_Counter__B_TIMER__CM_FALLINGEDGE - Falling edge of Capture input
 560:.\Generated_Source\PSoC4/Async_Feedback_Counter.c **** *  Async_Feedback_Counter__B_TIMER__CM_EITHEREDGE  - Either edge of Capture input
 561:.\Generated_Source\PSoC4/Async_Feedback_Counter.c **** *
 562:.\Generated_Source\PSoC4/Async_Feedback_Counter.c **** * Return:
 563:.\Generated_Source\PSoC4/Async_Feedback_Counter.c **** *  void
 564:.\Generated_Source\PSoC4/Async_Feedback_Counter.c **** *
 565:.\Generated_Source\PSoC4/Async_Feedback_Counter.c **** *******************************************************************************/
 566:.\Generated_Source\PSoC4/Async_Feedback_Counter.c **** void Async_Feedback_Counter_SetCaptureMode(uint8 captureMode) 
 567:.\Generated_Source\PSoC4/Async_Feedback_Counter.c **** {
 568:.\Generated_Source\PSoC4/Async_Feedback_Counter.c ****     /* This must only set to two bits of the control register associated */
 569:.\Generated_Source\PSoC4/Async_Feedback_Counter.c ****     captureMode = ((uint8)((uint8)captureMode << Async_Feedback_Counter_CTRL_CAP_MODE_SHIFT));
 570:.\Generated_Source\PSoC4/Async_Feedback_Counter.c ****     captureMode &= (Async_Feedback_Counter_CTRL_CAP_MODE_MASK);
 571:.\Generated_Source\PSoC4/Async_Feedback_Counter.c **** 
 572:.\Generated_Source\PSoC4/Async_Feedback_Counter.c ****     #if (!Async_Feedback_Counter_UDB_CONTROL_REG_REMOVED)
 573:.\Generated_Source\PSoC4/Async_Feedback_Counter.c ****         /* Clear the Current Setting */
 574:.\Generated_Source\PSoC4/Async_Feedback_Counter.c ****         Async_Feedback_Counter_CONTROL &= ((uint8)(~Async_Feedback_Counter_CTRL_CAP_MODE_MASK));
 575:.\Generated_Source\PSoC4/Async_Feedback_Counter.c **** 
 576:.\Generated_Source\PSoC4/Async_Feedback_Counter.c ****         /* Write The New Setting */
 577:.\Generated_Source\PSoC4/Async_Feedback_Counter.c ****         Async_Feedback_Counter_CONTROL |= captureMode;
 578:.\Generated_Source\PSoC4/Async_Feedback_Counter.c ****     #endif /* (!Async_Feedback_Counter_UDB_CONTROL_REG_REMOVED) */
 579:.\Generated_Source\PSoC4/Async_Feedback_Counter.c **** }
 580:.\Generated_Source\PSoC4/Async_Feedback_Counter.c **** #endif /* Remove API if Capture Mode is not Software Controlled */
 581:.\Generated_Source\PSoC4/Async_Feedback_Counter.c **** 
 582:.\Generated_Source\PSoC4/Async_Feedback_Counter.c **** 
 583:.\Generated_Source\PSoC4/Async_Feedback_Counter.c **** #if (Async_Feedback_Counter_SoftwareTriggerMode)
 584:.\Generated_Source\PSoC4/Async_Feedback_Counter.c **** 
 585:.\Generated_Source\PSoC4/Async_Feedback_Counter.c **** 
 586:.\Generated_Source\PSoC4/Async_Feedback_Counter.c **** /*******************************************************************************
 587:.\Generated_Source\PSoC4/Async_Feedback_Counter.c **** * Function Name: Async_Feedback_Counter_SetTriggerMode
 588:.\Generated_Source\PSoC4/Async_Feedback_Counter.c **** ********************************************************************************
 589:.\Generated_Source\PSoC4/Async_Feedback_Counter.c **** *
 590:.\Generated_Source\PSoC4/Async_Feedback_Counter.c **** * Summary:
 591:.\Generated_Source\PSoC4/Async_Feedback_Counter.c **** *  This function sets the trigger input mode
 592:.\Generated_Source\PSoC4/Async_Feedback_Counter.c **** *
ARM GAS  C:\Users\Terence\AppData\Local\Temp\ccSn7UJt.s 			page 17


 593:.\Generated_Source\PSoC4/Async_Feedback_Counter.c **** * Parameters:
 594:.\Generated_Source\PSoC4/Async_Feedback_Counter.c **** *  triggerMode: Pass one of the pre-defined Trigger Modes (except Software)
 595:.\Generated_Source\PSoC4/Async_Feedback_Counter.c ****     #define Async_Feedback_Counter__B_TIMER__TM_NONE 0x00u
 596:.\Generated_Source\PSoC4/Async_Feedback_Counter.c ****     #define Async_Feedback_Counter__B_TIMER__TM_RISINGEDGE 0x04u
 597:.\Generated_Source\PSoC4/Async_Feedback_Counter.c ****     #define Async_Feedback_Counter__B_TIMER__TM_FALLINGEDGE 0x08u
 598:.\Generated_Source\PSoC4/Async_Feedback_Counter.c ****     #define Async_Feedback_Counter__B_TIMER__TM_EITHEREDGE 0x0Cu
 599:.\Generated_Source\PSoC4/Async_Feedback_Counter.c ****     #define Async_Feedback_Counter__B_TIMER__TM_SOFTWARE 0x10u
 600:.\Generated_Source\PSoC4/Async_Feedback_Counter.c **** *
 601:.\Generated_Source\PSoC4/Async_Feedback_Counter.c **** * Return:
 602:.\Generated_Source\PSoC4/Async_Feedback_Counter.c **** *  void
 603:.\Generated_Source\PSoC4/Async_Feedback_Counter.c **** *
 604:.\Generated_Source\PSoC4/Async_Feedback_Counter.c **** *******************************************************************************/
 605:.\Generated_Source\PSoC4/Async_Feedback_Counter.c **** void Async_Feedback_Counter_SetTriggerMode(uint8 triggerMode) 
 606:.\Generated_Source\PSoC4/Async_Feedback_Counter.c **** {
 607:.\Generated_Source\PSoC4/Async_Feedback_Counter.c ****     /* This must only set to two bits of the control register associated */
 608:.\Generated_Source\PSoC4/Async_Feedback_Counter.c ****     triggerMode &= Async_Feedback_Counter_CTRL_TRIG_MODE_MASK;
 609:.\Generated_Source\PSoC4/Async_Feedback_Counter.c **** 
 610:.\Generated_Source\PSoC4/Async_Feedback_Counter.c ****     #if (!Async_Feedback_Counter_UDB_CONTROL_REG_REMOVED)   /* Remove assignment if control registe
 611:.\Generated_Source\PSoC4/Async_Feedback_Counter.c ****     
 612:.\Generated_Source\PSoC4/Async_Feedback_Counter.c ****         /* Clear the Current Setting */
 613:.\Generated_Source\PSoC4/Async_Feedback_Counter.c ****         Async_Feedback_Counter_CONTROL &= ((uint8)(~Async_Feedback_Counter_CTRL_TRIG_MODE_MASK));
 614:.\Generated_Source\PSoC4/Async_Feedback_Counter.c **** 
 615:.\Generated_Source\PSoC4/Async_Feedback_Counter.c ****         /* Write The New Setting */
 616:.\Generated_Source\PSoC4/Async_Feedback_Counter.c ****         Async_Feedback_Counter_CONTROL |= (triggerMode | Async_Feedback_Counter__B_TIMER__TM_SOFTWA
 617:.\Generated_Source\PSoC4/Async_Feedback_Counter.c ****     #endif /* Remove code section if control register is not used */
 618:.\Generated_Source\PSoC4/Async_Feedback_Counter.c **** }
 619:.\Generated_Source\PSoC4/Async_Feedback_Counter.c **** #endif /* Remove API if Trigger Mode is not Software Controlled */
 620:.\Generated_Source\PSoC4/Async_Feedback_Counter.c **** 
 621:.\Generated_Source\PSoC4/Async_Feedback_Counter.c **** #if (Async_Feedback_Counter_EnableTriggerMode)
 622:.\Generated_Source\PSoC4/Async_Feedback_Counter.c **** 
 623:.\Generated_Source\PSoC4/Async_Feedback_Counter.c **** 
 624:.\Generated_Source\PSoC4/Async_Feedback_Counter.c **** /*******************************************************************************
 625:.\Generated_Source\PSoC4/Async_Feedback_Counter.c **** * Function Name: Async_Feedback_Counter_EnableTrigger
 626:.\Generated_Source\PSoC4/Async_Feedback_Counter.c **** ********************************************************************************
 627:.\Generated_Source\PSoC4/Async_Feedback_Counter.c **** *
 628:.\Generated_Source\PSoC4/Async_Feedback_Counter.c **** * Summary:
 629:.\Generated_Source\PSoC4/Async_Feedback_Counter.c **** *  Sets the control bit enabling Hardware Trigger mode
 630:.\Generated_Source\PSoC4/Async_Feedback_Counter.c **** *
 631:.\Generated_Source\PSoC4/Async_Feedback_Counter.c **** * Parameters:
 632:.\Generated_Source\PSoC4/Async_Feedback_Counter.c **** *  void
 633:.\Generated_Source\PSoC4/Async_Feedback_Counter.c **** *
 634:.\Generated_Source\PSoC4/Async_Feedback_Counter.c **** * Return:
 635:.\Generated_Source\PSoC4/Async_Feedback_Counter.c **** *  void
 636:.\Generated_Source\PSoC4/Async_Feedback_Counter.c **** *
 637:.\Generated_Source\PSoC4/Async_Feedback_Counter.c **** *******************************************************************************/
 638:.\Generated_Source\PSoC4/Async_Feedback_Counter.c **** void Async_Feedback_Counter_EnableTrigger(void) 
 639:.\Generated_Source\PSoC4/Async_Feedback_Counter.c **** {
 640:.\Generated_Source\PSoC4/Async_Feedback_Counter.c ****     #if (!Async_Feedback_Counter_UDB_CONTROL_REG_REMOVED)   /* Remove assignment if control registe
 641:.\Generated_Source\PSoC4/Async_Feedback_Counter.c ****         Async_Feedback_Counter_CONTROL |= Async_Feedback_Counter_CTRL_TRIG_EN;
 642:.\Generated_Source\PSoC4/Async_Feedback_Counter.c ****     #endif /* Remove code section if control register is not used */
 643:.\Generated_Source\PSoC4/Async_Feedback_Counter.c **** }
 644:.\Generated_Source\PSoC4/Async_Feedback_Counter.c **** 
 645:.\Generated_Source\PSoC4/Async_Feedback_Counter.c **** 
 646:.\Generated_Source\PSoC4/Async_Feedback_Counter.c **** /*******************************************************************************
 647:.\Generated_Source\PSoC4/Async_Feedback_Counter.c **** * Function Name: Async_Feedback_Counter_DisableTrigger
 648:.\Generated_Source\PSoC4/Async_Feedback_Counter.c **** ********************************************************************************
 649:.\Generated_Source\PSoC4/Async_Feedback_Counter.c **** *
ARM GAS  C:\Users\Terence\AppData\Local\Temp\ccSn7UJt.s 			page 18


 650:.\Generated_Source\PSoC4/Async_Feedback_Counter.c **** * Summary:
 651:.\Generated_Source\PSoC4/Async_Feedback_Counter.c **** *  Clears the control bit enabling Hardware Trigger mode
 652:.\Generated_Source\PSoC4/Async_Feedback_Counter.c **** *
 653:.\Generated_Source\PSoC4/Async_Feedback_Counter.c **** * Parameters:
 654:.\Generated_Source\PSoC4/Async_Feedback_Counter.c **** *  void
 655:.\Generated_Source\PSoC4/Async_Feedback_Counter.c **** *
 656:.\Generated_Source\PSoC4/Async_Feedback_Counter.c **** * Return:
 657:.\Generated_Source\PSoC4/Async_Feedback_Counter.c **** *  void
 658:.\Generated_Source\PSoC4/Async_Feedback_Counter.c **** *
 659:.\Generated_Source\PSoC4/Async_Feedback_Counter.c **** *******************************************************************************/
 660:.\Generated_Source\PSoC4/Async_Feedback_Counter.c **** void Async_Feedback_Counter_DisableTrigger(void) 
 661:.\Generated_Source\PSoC4/Async_Feedback_Counter.c **** {
 662:.\Generated_Source\PSoC4/Async_Feedback_Counter.c ****     #if (!Async_Feedback_Counter_UDB_CONTROL_REG_REMOVED )   /* Remove assignment if control regist
 663:.\Generated_Source\PSoC4/Async_Feedback_Counter.c ****         Async_Feedback_Counter_CONTROL &= ((uint8)(~Async_Feedback_Counter_CTRL_TRIG_EN));
 664:.\Generated_Source\PSoC4/Async_Feedback_Counter.c ****     #endif /* Remove code section if control register is not used */
 665:.\Generated_Source\PSoC4/Async_Feedback_Counter.c **** }
 666:.\Generated_Source\PSoC4/Async_Feedback_Counter.c **** #endif /* Remove API is Trigger Mode is set to None */
 667:.\Generated_Source\PSoC4/Async_Feedback_Counter.c **** 
 668:.\Generated_Source\PSoC4/Async_Feedback_Counter.c **** #if(Async_Feedback_Counter_InterruptOnCaptureCount)
 669:.\Generated_Source\PSoC4/Async_Feedback_Counter.c **** 
 670:.\Generated_Source\PSoC4/Async_Feedback_Counter.c **** 
 671:.\Generated_Source\PSoC4/Async_Feedback_Counter.c **** /*******************************************************************************
 672:.\Generated_Source\PSoC4/Async_Feedback_Counter.c **** * Function Name: Async_Feedback_Counter_SetInterruptCount
 673:.\Generated_Source\PSoC4/Async_Feedback_Counter.c **** ********************************************************************************
 674:.\Generated_Source\PSoC4/Async_Feedback_Counter.c **** *
 675:.\Generated_Source\PSoC4/Async_Feedback_Counter.c **** * Summary:
 676:.\Generated_Source\PSoC4/Async_Feedback_Counter.c **** *  This function sets the capture count before an interrupt is triggered.
 677:.\Generated_Source\PSoC4/Async_Feedback_Counter.c **** *
 678:.\Generated_Source\PSoC4/Async_Feedback_Counter.c **** * Parameters:
 679:.\Generated_Source\PSoC4/Async_Feedback_Counter.c **** *  interruptCount:  A value between 0 and 3 is valid.  If the value is 0, then
 680:.\Generated_Source\PSoC4/Async_Feedback_Counter.c **** *                   an interrupt will occur each time a capture occurs.
 681:.\Generated_Source\PSoC4/Async_Feedback_Counter.c **** *                   A value of 1 to 3 will cause the interrupt
 682:.\Generated_Source\PSoC4/Async_Feedback_Counter.c **** *                   to delay by the same number of captures.
 683:.\Generated_Source\PSoC4/Async_Feedback_Counter.c **** *
 684:.\Generated_Source\PSoC4/Async_Feedback_Counter.c **** * Return:
 685:.\Generated_Source\PSoC4/Async_Feedback_Counter.c **** *  void
 686:.\Generated_Source\PSoC4/Async_Feedback_Counter.c **** *
 687:.\Generated_Source\PSoC4/Async_Feedback_Counter.c **** *******************************************************************************/
 688:.\Generated_Source\PSoC4/Async_Feedback_Counter.c **** void Async_Feedback_Counter_SetInterruptCount(uint8 interruptCount) 
 689:.\Generated_Source\PSoC4/Async_Feedback_Counter.c **** {
 690:.\Generated_Source\PSoC4/Async_Feedback_Counter.c ****     /* This must only set to two bits of the control register associated */
 691:.\Generated_Source\PSoC4/Async_Feedback_Counter.c ****     interruptCount &= Async_Feedback_Counter_CTRL_INTCNT_MASK;
 692:.\Generated_Source\PSoC4/Async_Feedback_Counter.c **** 
 693:.\Generated_Source\PSoC4/Async_Feedback_Counter.c ****     #if (!Async_Feedback_Counter_UDB_CONTROL_REG_REMOVED)
 694:.\Generated_Source\PSoC4/Async_Feedback_Counter.c ****         /* Clear the Current Setting */
 695:.\Generated_Source\PSoC4/Async_Feedback_Counter.c ****         Async_Feedback_Counter_CONTROL &= ((uint8)(~Async_Feedback_Counter_CTRL_INTCNT_MASK));
 696:.\Generated_Source\PSoC4/Async_Feedback_Counter.c ****         /* Write The New Setting */
 697:.\Generated_Source\PSoC4/Async_Feedback_Counter.c ****         Async_Feedback_Counter_CONTROL |= interruptCount;
 698:.\Generated_Source\PSoC4/Async_Feedback_Counter.c ****     #endif /* (!Async_Feedback_Counter_UDB_CONTROL_REG_REMOVED) */
 699:.\Generated_Source\PSoC4/Async_Feedback_Counter.c **** }
 700:.\Generated_Source\PSoC4/Async_Feedback_Counter.c **** #endif /* Async_Feedback_Counter_InterruptOnCaptureCount */
 701:.\Generated_Source\PSoC4/Async_Feedback_Counter.c **** 
 702:.\Generated_Source\PSoC4/Async_Feedback_Counter.c **** 
 703:.\Generated_Source\PSoC4/Async_Feedback_Counter.c **** #if (Async_Feedback_Counter_UsingHWCaptureCounter)
 704:.\Generated_Source\PSoC4/Async_Feedback_Counter.c **** 
 705:.\Generated_Source\PSoC4/Async_Feedback_Counter.c **** 
 706:.\Generated_Source\PSoC4/Async_Feedback_Counter.c **** /*******************************************************************************
ARM GAS  C:\Users\Terence\AppData\Local\Temp\ccSn7UJt.s 			page 19


 707:.\Generated_Source\PSoC4/Async_Feedback_Counter.c **** * Function Name: Async_Feedback_Counter_SetCaptureCount
 708:.\Generated_Source\PSoC4/Async_Feedback_Counter.c **** ********************************************************************************
 709:.\Generated_Source\PSoC4/Async_Feedback_Counter.c **** *
 710:.\Generated_Source\PSoC4/Async_Feedback_Counter.c **** * Summary:
 711:.\Generated_Source\PSoC4/Async_Feedback_Counter.c **** *  This function sets the capture count
 712:.\Generated_Source\PSoC4/Async_Feedback_Counter.c **** *
 713:.\Generated_Source\PSoC4/Async_Feedback_Counter.c **** * Parameters:
 714:.\Generated_Source\PSoC4/Async_Feedback_Counter.c **** *  captureCount: A value between 2 and 127 inclusive is valid.  A value of 1
 715:.\Generated_Source\PSoC4/Async_Feedback_Counter.c **** *                to 127 will cause the interrupt to delay by the same number of
 716:.\Generated_Source\PSoC4/Async_Feedback_Counter.c **** *                captures.
 717:.\Generated_Source\PSoC4/Async_Feedback_Counter.c **** *
 718:.\Generated_Source\PSoC4/Async_Feedback_Counter.c **** * Return:
 719:.\Generated_Source\PSoC4/Async_Feedback_Counter.c **** *  void
 720:.\Generated_Source\PSoC4/Async_Feedback_Counter.c **** *
 721:.\Generated_Source\PSoC4/Async_Feedback_Counter.c **** *******************************************************************************/
 722:.\Generated_Source\PSoC4/Async_Feedback_Counter.c **** void Async_Feedback_Counter_SetCaptureCount(uint8 captureCount) 
 723:.\Generated_Source\PSoC4/Async_Feedback_Counter.c **** {
 724:.\Generated_Source\PSoC4/Async_Feedback_Counter.c ****     Async_Feedback_Counter_CAP_COUNT = captureCount;
 725:.\Generated_Source\PSoC4/Async_Feedback_Counter.c **** }
 726:.\Generated_Source\PSoC4/Async_Feedback_Counter.c **** 
 727:.\Generated_Source\PSoC4/Async_Feedback_Counter.c **** 
 728:.\Generated_Source\PSoC4/Async_Feedback_Counter.c **** /*******************************************************************************
 729:.\Generated_Source\PSoC4/Async_Feedback_Counter.c **** * Function Name: Async_Feedback_Counter_ReadCaptureCount
 730:.\Generated_Source\PSoC4/Async_Feedback_Counter.c **** ********************************************************************************
 731:.\Generated_Source\PSoC4/Async_Feedback_Counter.c **** *
 732:.\Generated_Source\PSoC4/Async_Feedback_Counter.c **** * Summary:
 733:.\Generated_Source\PSoC4/Async_Feedback_Counter.c **** *  This function reads the capture count setting
 734:.\Generated_Source\PSoC4/Async_Feedback_Counter.c **** *
 735:.\Generated_Source\PSoC4/Async_Feedback_Counter.c **** * Parameters:
 736:.\Generated_Source\PSoC4/Async_Feedback_Counter.c **** *  void
 737:.\Generated_Source\PSoC4/Async_Feedback_Counter.c **** *
 738:.\Generated_Source\PSoC4/Async_Feedback_Counter.c **** * Return:
 739:.\Generated_Source\PSoC4/Async_Feedback_Counter.c **** *  Returns the Capture Count Setting
 740:.\Generated_Source\PSoC4/Async_Feedback_Counter.c **** *
 741:.\Generated_Source\PSoC4/Async_Feedback_Counter.c **** *******************************************************************************/
 742:.\Generated_Source\PSoC4/Async_Feedback_Counter.c **** uint8 Async_Feedback_Counter_ReadCaptureCount(void) 
 743:.\Generated_Source\PSoC4/Async_Feedback_Counter.c **** {
 744:.\Generated_Source\PSoC4/Async_Feedback_Counter.c ****     return ((uint8)Async_Feedback_Counter_CAP_COUNT);
 745:.\Generated_Source\PSoC4/Async_Feedback_Counter.c **** }
 746:.\Generated_Source\PSoC4/Async_Feedback_Counter.c **** #endif /* Async_Feedback_Counter_UsingHWCaptureCounter */
 747:.\Generated_Source\PSoC4/Async_Feedback_Counter.c **** 
 748:.\Generated_Source\PSoC4/Async_Feedback_Counter.c **** 
 749:.\Generated_Source\PSoC4/Async_Feedback_Counter.c **** /*******************************************************************************
 750:.\Generated_Source\PSoC4/Async_Feedback_Counter.c **** * Function Name: Async_Feedback_Counter_ClearFIFO
 751:.\Generated_Source\PSoC4/Async_Feedback_Counter.c **** ********************************************************************************
 752:.\Generated_Source\PSoC4/Async_Feedback_Counter.c **** *
 753:.\Generated_Source\PSoC4/Async_Feedback_Counter.c **** * Summary:
 754:.\Generated_Source\PSoC4/Async_Feedback_Counter.c **** *  This function clears all capture data from the capture FIFO
 755:.\Generated_Source\PSoC4/Async_Feedback_Counter.c **** *
 756:.\Generated_Source\PSoC4/Async_Feedback_Counter.c **** * Parameters:
 757:.\Generated_Source\PSoC4/Async_Feedback_Counter.c **** *  void
 758:.\Generated_Source\PSoC4/Async_Feedback_Counter.c **** *
 759:.\Generated_Source\PSoC4/Async_Feedback_Counter.c **** * Return:
 760:.\Generated_Source\PSoC4/Async_Feedback_Counter.c **** *  void
 761:.\Generated_Source\PSoC4/Async_Feedback_Counter.c **** *
 762:.\Generated_Source\PSoC4/Async_Feedback_Counter.c **** *******************************************************************************/
 763:.\Generated_Source\PSoC4/Async_Feedback_Counter.c **** void Async_Feedback_Counter_ClearFIFO(void) 
ARM GAS  C:\Users\Terence\AppData\Local\Temp\ccSn7UJt.s 			page 20


 764:.\Generated_Source\PSoC4/Async_Feedback_Counter.c **** {
 321              		.loc 1 764 0
 322              		.cfi_startproc
 323 0000 08B5     		push	{r3, lr}
 324              		.cfi_def_cfa_offset 8
 325              		.cfi_offset 3, -8
 326              		.cfi_offset 14, -4
 765:.\Generated_Source\PSoC4/Async_Feedback_Counter.c ****     while(0u != (Async_Feedback_Counter_ReadStatusRegister() & Async_Feedback_Counter_STATUS_FIFONE
 327              		.loc 1 765 0
 328 0002 01E0     		b	.L38
 329              	.L39:
 766:.\Generated_Source\PSoC4/Async_Feedback_Counter.c ****     {
 767:.\Generated_Source\PSoC4/Async_Feedback_Counter.c ****         (void)Async_Feedback_Counter_ReadCapture();
 330              		.loc 1 767 0
 331 0004 FFF7FEFF 		bl	Async_Feedback_Counter_ReadCapture
 332              	.LVL4:
 333              	.L38:
 765:.\Generated_Source\PSoC4/Async_Feedback_Counter.c ****     while(0u != (Async_Feedback_Counter_ReadStatusRegister() & Async_Feedback_Counter_STATUS_FIFONE
 334              		.loc 1 765 0
 335 0008 FFF7FEFF 		bl	Async_Feedback_Counter_ReadStatusRegister
 336              	.LVL5:
 337 000c 0307     		lsl	r3, r0, #28
 338 000e F9D4     		bmi	.L39
 768:.\Generated_Source\PSoC4/Async_Feedback_Counter.c ****     }
 769:.\Generated_Source\PSoC4/Async_Feedback_Counter.c **** }
 339              		.loc 1 769 0
 340              		@ sp needed
 341 0010 08BD     		pop	{r3, pc}
 342              		.cfi_endproc
 343              	.LFE16:
 344              		.size	Async_Feedback_Counter_ClearFIFO, .-Async_Feedback_Counter_ClearFIFO
 345 0012 C046     		.section	.text.Async_Feedback_Counter_Init,"ax",%progbits
 346              		.align	2
 347              		.global	Async_Feedback_Counter_Init
 348              		.code	16
 349              		.thumb_func
 350              		.type	Async_Feedback_Counter_Init, %function
 351              	Async_Feedback_Counter_Init:
 352              	.LFB2:
  44:.\Generated_Source\PSoC4/Async_Feedback_Counter.c ****     #if(!Async_Feedback_Counter_UsingFixedFunction)
 353              		.loc 1 44 0
 354              		.cfi_startproc
 355 0000 08B5     		push	{r3, lr}
 356              		.cfi_def_cfa_offset 8
 357              		.cfi_offset 3, -8
 358              		.cfi_offset 14, -4
 118:.\Generated_Source\PSoC4/Async_Feedback_Counter.c ****     Async_Feedback_Counter_WriteCounter(Async_Feedback_Counter_INIT_PERIOD);
 359              		.loc 1 118 0
 360 0002 FF20     		mov	r0, #255
 361 0004 FFF7FEFF 		bl	Async_Feedback_Counter_WritePeriod
 362              	.LVL6:
 119:.\Generated_Source\PSoC4/Async_Feedback_Counter.c **** 
 363              		.loc 1 119 0
 364 0008 FF20     		mov	r0, #255
 365 000a FFF7FEFF 		bl	Async_Feedback_Counter_WriteCounter
 366              	.LVL7:
 142:.\Generated_Source\PSoC4/Async_Feedback_Counter.c **** 
ARM GAS  C:\Users\Terence\AppData\Local\Temp\ccSn7UJt.s 			page 21


 367              		.loc 1 142 0
 368 000e FFF7FEFF 		bl	CyEnterCriticalSection
 369              	.LVL8:
 145:.\Generated_Source\PSoC4/Async_Feedback_Counter.c **** 
 370              		.loc 1 145 0
 371 0012 064A     		ldr	r2, .L41
 372 0014 1178     		ldrb	r1, [r2]
 373 0016 1023     		mov	r3, #16
 374 0018 0B43     		orr	r3, r1
 375 001a 1370     		strb	r3, [r2]
 148:.\Generated_Source\PSoC4/Async_Feedback_Counter.c **** 
 376              		.loc 1 148 0
 377 001c FFF7FEFF 		bl	CyExitCriticalSection
 378              	.LVL9:
 159:.\Generated_Source\PSoC4/Async_Feedback_Counter.c ****     #endif /* Configure additional features of UDB implementation */
 379              		.loc 1 159 0
 380 0020 FFF7FEFF 		bl	Async_Feedback_Counter_ClearFIFO
 381              	.LVL10:
 162:.\Generated_Source\PSoC4/Async_Feedback_Counter.c **** }
 382              		.loc 1 162 0
 383 0024 0020     		mov	r0, #0
 384 0026 FFF7FEFF 		bl	Async_Feedback_Counter_SetInterruptMode
 385              	.LVL11:
 163:.\Generated_Source\PSoC4/Async_Feedback_Counter.c **** 
 386              		.loc 1 163 0
 387              		@ sp needed
 388 002a 08BD     		pop	{r3, pc}
 389              	.L42:
 390              		.align	2
 391              	.L41:
 392 002c 92000F40 		.word	1074725010
 393              		.cfi_endproc
 394              	.LFE2:
 395              		.size	Async_Feedback_Counter_Init, .-Async_Feedback_Counter_Init
 396              		.section	.text.Async_Feedback_Counter_Start,"ax",%progbits
 397              		.align	2
 398              		.global	Async_Feedback_Counter_Start
 399              		.code	16
 400              		.thumb_func
 401              		.type	Async_Feedback_Counter_Start, %function
 402              	Async_Feedback_Counter_Start:
 403              	.LFB4:
 216:.\Generated_Source\PSoC4/Async_Feedback_Counter.c ****     if(Async_Feedback_Counter_initVar == 0u)
 404              		.loc 1 216 0
 405              		.cfi_startproc
 406 0000 08B5     		push	{r3, lr}
 407              		.cfi_def_cfa_offset 8
 408              		.cfi_offset 3, -8
 409              		.cfi_offset 14, -4
 217:.\Generated_Source\PSoC4/Async_Feedback_Counter.c ****     {
 410              		.loc 1 217 0
 411 0002 064B     		ldr	r3, .L45
 412 0004 1B78     		ldrb	r3, [r3]
 413 0006 002B     		cmp	r3, #0
 414 0008 04D1     		bne	.L44
 219:.\Generated_Source\PSoC4/Async_Feedback_Counter.c **** 
 415              		.loc 1 219 0
ARM GAS  C:\Users\Terence\AppData\Local\Temp\ccSn7UJt.s 			page 22


 416 000a FFF7FEFF 		bl	Async_Feedback_Counter_Init
 417              	.LVL12:
 221:.\Generated_Source\PSoC4/Async_Feedback_Counter.c ****     }
 418              		.loc 1 221 0
 419 000e 0122     		mov	r2, #1
 420 0010 024B     		ldr	r3, .L45
 421 0012 1A70     		strb	r2, [r3]
 422              	.L44:
 225:.\Generated_Source\PSoC4/Async_Feedback_Counter.c **** }
 423              		.loc 1 225 0
 424 0014 FFF7FEFF 		bl	Async_Feedback_Counter_Enable
 425              	.LVL13:
 226:.\Generated_Source\PSoC4/Async_Feedback_Counter.c **** 
 426              		.loc 1 226 0
 427              		@ sp needed
 428 0018 08BD     		pop	{r3, pc}
 429              	.L46:
 430 001a C046     		.align	2
 431              	.L45:
 432 001c 00000000 		.word	.LANCHOR0
 433              		.cfi_endproc
 434              	.LFE4:
 435              		.size	Async_Feedback_Counter_Start, .-Async_Feedback_Counter_Start
 436              		.global	Async_Feedback_Counter_initVar
 437              		.bss
 438              		.set	.LANCHOR0,. + 0
 439              		.type	Async_Feedback_Counter_initVar, %object
 440              		.size	Async_Feedback_Counter_initVar, 1
 441              	Async_Feedback_Counter_initVar:
 442 0000 00       		.space	1
 443              		.text
 444              	.Letext0:
 445              		.file 2 ".\\Generated_Source\\PSoC4\\cytypes.h"
 446              		.file 3 ".\\Generated_Source\\PSoC4\\CyLib.h"