ARM GAS  C:\Users\Terence\AppData\Local\Temp\ccVkgKCq.s 			page 1


   1              		.cpu cortex-m0
   2              		.fpu softvfp
   3              		.eabi_attribute 20, 1
   4              		.eabi_attribute 21, 1
   5              		.eabi_attribute 23, 3
   6              		.eabi_attribute 24, 1
   7              		.eabi_attribute 25, 1
   8              		.eabi_attribute 26, 1
   9              		.eabi_attribute 30, 1
  10              		.eabi_attribute 34, 0
  11              		.eabi_attribute 18, 4
  12              		.code	16
  13              		.file	"AudioOut.c"
  14              		.text
  15              	.Ltext0:
  16              		.cfi_sections	.debug_frame
  17              		.section	.text.InitializeAudioOutPath,"ax",%progbits
  18              		.align	2
  19              		.global	InitializeAudioOutPath
  20              		.code	16
  21              		.thumb_func
  22              		.type	InitializeAudioOutPath, %function
  23              	InitializeAudioOutPath:
  24              	.LFB325:
  25              		.file 1 ".\\AudioOut.c"
   1:.\AudioOut.c  **** /*******************************************************************************
   2:.\AudioOut.c  **** * File Name: AudioOut.c
   3:.\AudioOut.c  **** *
   4:.\AudioOut.c  **** * Version 1.0
   5:.\AudioOut.c  **** *
   6:.\AudioOut.c  **** *  Description: This file contains the Audio In path configuration and 
   7:.\AudioOut.c  **** *               processing code
   8:.\AudioOut.c  **** *
   9:.\AudioOut.c  **** *******************************************************************************
  10:.\AudioOut.c  **** * Copyright (2015), Cypress Semiconductor Corporation.
  11:.\AudioOut.c  **** *******************************************************************************
  12:.\AudioOut.c  **** * This software, including source code, documentation and related materials
  13:.\AudioOut.c  **** * ("Software") is owned by Cypress Semiconductor Corporation (Cypress) and is
  14:.\AudioOut.c  **** * protected by and subject to worldwide patent protection (United States and 
  15:.\AudioOut.c  **** * foreign), United States copyright laws and international treaty provisions. 
  16:.\AudioOut.c  **** * Cypress hereby grants to licensee a personal, non-exclusive, non-transferable
  17:.\AudioOut.c  **** * license to copy, use, modify, create derivative works of, and compile the 
  18:.\AudioOut.c  **** * Cypress source code and derivative works for the sole purpose of creating 
  19:.\AudioOut.c  **** * custom software in support of licensee product, such licensee product to be
  20:.\AudioOut.c  **** * used only in conjunction with Cypress's integrated circuit as specified in the
  21:.\AudioOut.c  **** * applicable agreement. Any reproduction, modification, translation, compilation,
  22:.\AudioOut.c  **** * or representation of this Software except as specified above is prohibited 
  23:.\AudioOut.c  **** * without the express written permission of Cypress.
  24:.\AudioOut.c  **** * 
  25:.\AudioOut.c  **** * Disclaimer: THIS SOFTWARE IS PROVIDED AS-IS, WITH NO WARRANTY OF ANY KIND, 
  26:.\AudioOut.c  **** * EXPRESS OR IMPLIED, INCLUDING, BUT NOT LIMITED TO, NONINFRINGEMENT, IMPLIED 
  27:.\AudioOut.c  **** * WARRANTIES OF MERCHANTABILITY AND FITNESS FOR A PARTICULAR PURPOSE.
  28:.\AudioOut.c  **** * Cypress reserves the right to make changes to the Software without notice. 
  29:.\AudioOut.c  **** * Cypress does not assume any liability arising out of the application or use
  30:.\AudioOut.c  **** * of Software or any product or circuit described in the Software. Cypress does
  31:.\AudioOut.c  **** * not authorize its products for use as critical components in any products 
  32:.\AudioOut.c  **** * where a malfunction or failure may reasonably be expected to result in 
ARM GAS  C:\Users\Terence\AppData\Local\Temp\ccVkgKCq.s 			page 2


  33:.\AudioOut.c  **** * significant injury or death ("ACTIVE Risk Product"). By including Cypress's 
  34:.\AudioOut.c  **** * product in a ACTIVE Risk Product, the manufacturer of such system or application
  35:.\AudioOut.c  **** * assumes all risk of such use and in doing so indemnifies Cypress against all
  36:.\AudioOut.c  **** * liability. Use of this Software may be limited by and subject to the applicable
  37:.\AudioOut.c  **** * Cypress software license agreement.
  38:.\AudioOut.c  **** *******************************************************************************/
  39:.\AudioOut.c  **** 
  40:.\AudioOut.c  **** #include <AudioControl.h>
  41:.\AudioOut.c  **** #include <Interrupts.h>
  42:.\AudioOut.c  **** #include <Application.h>
  43:.\AudioOut.c  **** #include <AudioControl.h>
  44:.\AudioOut.c  **** #include <Config.h>
  45:.\AudioOut.c  **** #include <AudioOut.h>
  46:.\AudioOut.c  **** #include <project.h>
  47:.\AudioOut.c  **** #include <Codec.h>
  48:.\AudioOut.c  **** 
  49:.\AudioOut.c  **** extern uint8 outBuffer[];
  50:.\AudioOut.c  **** 
  51:.\AudioOut.c  **** CYBIT resetTx = 0;
  52:.\AudioOut.c  **** CYBIT outPlaying = 0;
  53:.\AudioOut.c  **** uint16 outLevel = 0;
  54:.\AudioOut.c  **** uint16 outUsbCount = 0;
  55:.\AudioOut.c  **** uint16 outUsbShadow = 0;
  56:.\AudioOut.c  **** uint8 outBuffer[OUT_BUFSIZE];
  57:.\AudioOut.c  **** uint16 outBufIndex = 0;
  58:.\AudioOut.c  **** extern CYBIT audioClkConfigured;
  59:.\AudioOut.c  **** 
  60:.\AudioOut.c  **** 
  61:.\AudioOut.c  **** 
  62:.\AudioOut.c  **** #if(USBFS_EP_MM == USBFS__EP_DMAAUTO)   
  63:.\AudioOut.c  **** 	extern uint8 outRam[];  
  64:.\AudioOut.c  **** #endif
  65:.\AudioOut.c  **** 
  66:.\AudioOut.c  **** /*******************************************************************************
  67:.\AudioOut.c  **** * Function Name: InitializeAudioOutPath
  68:.\AudioOut.c  **** ********************************************************************************
  69:.\AudioOut.c  **** * Summary:
  70:.\AudioOut.c  **** *       This function initializes all the associated DMAs for the Audio OUT
  71:.\AudioOut.c  **** *       path
  72:.\AudioOut.c  **** *
  73:.\AudioOut.c  **** * Parameters:
  74:.\AudioOut.c  **** *  void
  75:.\AudioOut.c  **** *
  76:.\AudioOut.c  **** * Return:
  77:.\AudioOut.c  **** *  void
  78:.\AudioOut.c  **** *
  79:.\AudioOut.c  **** *******************************************************************************/
  80:.\AudioOut.c  **** void InitializeAudioOutPath(void)
  81:.\AudioOut.c  **** {
  26              		.loc 1 81 0
  27              		.cfi_startproc
  28 0000 08B5     		push	{r3, lr}
  29              		.cfi_def_cfa_offset 8
  30              		.cfi_offset 3, -8
  31              		.cfi_offset 14, -4
  82:.\AudioOut.c  ****     TxDMA_Init();
  32              		.loc 1 82 0
ARM GAS  C:\Users\Terence\AppData\Local\Temp\ccVkgKCq.s 			page 3


  33 0002 FFF7FEFF 		bl	TxDMA_Init
  34              	.LVL0:
  35              	.LBB62:
  36              	.LBB63:
  37              		.file 2 "Generated_Source\\PSoC4/TxDMA.h"
   1:Generated_Source\PSoC4/TxDMA.h **** /*******************************************************************************
   2:Generated_Source\PSoC4/TxDMA.h **** * File Name: TxDMA.h
   3:Generated_Source\PSoC4/TxDMA.h **** * Version 1.0
   4:Generated_Source\PSoC4/TxDMA.h **** *
   5:Generated_Source\PSoC4/TxDMA.h **** * Description:
   6:Generated_Source\PSoC4/TxDMA.h **** *  This file provides DMA channel defines and API function definitions.
   7:Generated_Source\PSoC4/TxDMA.h **** *
   8:Generated_Source\PSoC4/TxDMA.h **** ********************************************************************************
   9:Generated_Source\PSoC4/TxDMA.h **** * Copyright 2015, Cypress Semiconductor Corporation. All rights reserved.
  10:Generated_Source\PSoC4/TxDMA.h **** * You may use this file only in accordance with the license, terms, conditions,
  11:Generated_Source\PSoC4/TxDMA.h **** * disclaimers, and limitations in the end user license agreement accompanying
  12:Generated_Source\PSoC4/TxDMA.h **** * the software package with which this file was provided.
  13:Generated_Source\PSoC4/TxDMA.h **** *******************************************************************************/
  14:Generated_Source\PSoC4/TxDMA.h **** 
  15:Generated_Source\PSoC4/TxDMA.h **** #ifndef CY_DMA_CHANNEL_TxDMA_H
  16:Generated_Source\PSoC4/TxDMA.h **** #define CY_DMA_CHANNEL_TxDMA_H
  17:Generated_Source\PSoC4/TxDMA.h **** 
  18:Generated_Source\PSoC4/TxDMA.h **** #include "CyDMA.h"
  19:Generated_Source\PSoC4/TxDMA.h **** 
  20:Generated_Source\PSoC4/TxDMA.h ****     
  21:Generated_Source\PSoC4/TxDMA.h **** /***************************************
  22:Generated_Source\PSoC4/TxDMA.h **** *   Conditional Compilation Parameters
  23:Generated_Source\PSoC4/TxDMA.h **** ***************************************/
  24:Generated_Source\PSoC4/TxDMA.h **** 
  25:Generated_Source\PSoC4/TxDMA.h **** #define TxDMA_CHANNEL           (TxDMA__CHANNEL_NUMBER)
  26:Generated_Source\PSoC4/TxDMA.h **** #define TxDMA_CHANNEL_MASK      ((uint32)(1UL << TxDMA_CHANNEL))
  27:Generated_Source\PSoC4/TxDMA.h **** 
  28:Generated_Source\PSoC4/TxDMA.h **** 
  29:Generated_Source\PSoC4/TxDMA.h **** /***************************************
  30:Generated_Source\PSoC4/TxDMA.h **** *        Function Prototypes
  31:Generated_Source\PSoC4/TxDMA.h **** ***************************************/
  32:Generated_Source\PSoC4/TxDMA.h **** 
  33:Generated_Source\PSoC4/TxDMA.h **** /* Functions specific to this DMA channel */
  34:Generated_Source\PSoC4/TxDMA.h **** void TxDMA_Init(void);
  35:Generated_Source\PSoC4/TxDMA.h **** void TxDMA_Start(void * srcAddress, void * dstAddress);
  36:Generated_Source\PSoC4/TxDMA.h **** 
  37:Generated_Source\PSoC4/TxDMA.h **** /* Inline functions that call global API functions */
  38:Generated_Source\PSoC4/TxDMA.h **** static void   TxDMA_ChEnable(void);
  39:Generated_Source\PSoC4/TxDMA.h **** static void   TxDMA_ChDisable(void);
  40:Generated_Source\PSoC4/TxDMA.h **** static void   TxDMA_Trigger(void);
  41:Generated_Source\PSoC4/TxDMA.h **** static void   TxDMA_SetPriority(int32 priority);
  42:Generated_Source\PSoC4/TxDMA.h **** static int32  TxDMA_GetPriority(void);
  43:Generated_Source\PSoC4/TxDMA.h **** static void   TxDMA_SetNextDescriptor(int32 descriptor);
  44:Generated_Source\PSoC4/TxDMA.h **** static int32  TxDMA_GetNextDescriptor(void);
  45:Generated_Source\PSoC4/TxDMA.h **** static void   TxDMA_SetConfiguration(int32 descriptor, const cydma_init_struct * config);
  46:Generated_Source\PSoC4/TxDMA.h **** static void   TxDMA_ValidateDescriptor(int32 descriptor);
  47:Generated_Source\PSoC4/TxDMA.h **** static uint32 TxDMA_GetDescriptorStatus(int32 descriptor);
  48:Generated_Source\PSoC4/TxDMA.h **** static void   TxDMA_SetSrcAddress(int32 descriptor, void * srcAddress);
  49:Generated_Source\PSoC4/TxDMA.h **** static void * TxDMA_GetSrcAddress(int32 descriptor);
  50:Generated_Source\PSoC4/TxDMA.h **** static void   TxDMA_SetDstAddress(int32 descriptor, void * dstAddress);
  51:Generated_Source\PSoC4/TxDMA.h **** static void * TxDMA_GetDstAddress(int32 descriptor);
  52:Generated_Source\PSoC4/TxDMA.h **** static void   TxDMA_SetDataElementSize(int32 descriptor, uint32 dataElementSize);
ARM GAS  C:\Users\Terence\AppData\Local\Temp\ccVkgKCq.s 			page 4


  53:Generated_Source\PSoC4/TxDMA.h **** static uint32 TxDMA_GetDataElementSize(int32 descriptor);
  54:Generated_Source\PSoC4/TxDMA.h **** static void   TxDMA_SetNumDataElements(int32 descriptor, int32 numDataElements);
  55:Generated_Source\PSoC4/TxDMA.h **** static int32  TxDMA_GetNumDataElements(int32 descriptor);
  56:Generated_Source\PSoC4/TxDMA.h **** static void   TxDMA_SetSrcDstTransferWidth(int32 descriptor, uint32 transferWidth);
  57:Generated_Source\PSoC4/TxDMA.h **** static uint32 TxDMA_GetSrcDstTransferWidth(int32 descriptor);
  58:Generated_Source\PSoC4/TxDMA.h **** static void   TxDMA_SetAddressIncrement(int32 descriptor, uint32 addressIncrement);
  59:Generated_Source\PSoC4/TxDMA.h **** static uint32 TxDMA_GetAddressIncrement(int32 descriptor);
  60:Generated_Source\PSoC4/TxDMA.h **** static void   TxDMA_SetTriggerType(int32 descriptor, uint32 triggerType);
  61:Generated_Source\PSoC4/TxDMA.h **** static uint32 TxDMA_GetTriggerType(int32 descriptor);
  62:Generated_Source\PSoC4/TxDMA.h **** static void   TxDMA_SetTransferMode(int32 descriptor, uint32 transferMode);
  63:Generated_Source\PSoC4/TxDMA.h **** static uint32 TxDMA_GetTransferMode(int32 descriptor);
  64:Generated_Source\PSoC4/TxDMA.h **** static void   TxDMA_SetPreemptable(int32 descriptor, uint32 preemptable);
  65:Generated_Source\PSoC4/TxDMA.h **** static uint32 TxDMA_GetPreemptable(int32 descriptor);
  66:Generated_Source\PSoC4/TxDMA.h **** static void   TxDMA_SetPostCompletionActions(int32 descriptor, uint32 actions);
  67:Generated_Source\PSoC4/TxDMA.h **** static uint32 TxDMA_GetPostCompletionAction(int32 descriptor);
  68:Generated_Source\PSoC4/TxDMA.h **** static cydma_callback_t TxDMA_SetInterruptCallback(cydma_callback_t callback);
  69:Generated_Source\PSoC4/TxDMA.h **** static cydma_callback_t TxDMA_GetInterruptCallback(void);
  70:Generated_Source\PSoC4/TxDMA.h **** 
  71:Generated_Source\PSoC4/TxDMA.h **** 
  72:Generated_Source\PSoC4/TxDMA.h **** /*******************************************************************************
  73:Generated_Source\PSoC4/TxDMA.h **** * Function Name: TxDMA_ChEnable
  74:Generated_Source\PSoC4/TxDMA.h **** ********************************************************************************
  75:Generated_Source\PSoC4/TxDMA.h **** *
  76:Generated_Source\PSoC4/TxDMA.h **** * Summary:
  77:Generated_Source\PSoC4/TxDMA.h **** *  Enables the DMA channel. It is not necessary to call TxDMA_ChEnable()
  78:Generated_Source\PSoC4/TxDMA.h **** *  because the TxDMA_Start() API calls this function, which is the
  79:Generated_Source\PSoC4/TxDMA.h **** *  preferred method to begin the component operation.
  80:Generated_Source\PSoC4/TxDMA.h **** *
  81:Generated_Source\PSoC4/TxDMA.h **** * Parameters:
  82:Generated_Source\PSoC4/TxDMA.h **** *  None.
  83:Generated_Source\PSoC4/TxDMA.h **** *                   
  84:Generated_Source\PSoC4/TxDMA.h **** * Return:
  85:Generated_Source\PSoC4/TxDMA.h **** *  None.
  86:Generated_Source\PSoC4/TxDMA.h **** *
  87:Generated_Source\PSoC4/TxDMA.h **** * Side effect:
  88:Generated_Source\PSoC4/TxDMA.h **** *  If this function is called before TxDMA_Start(), or TxDMA_Init()
  89:Generated_Source\PSoC4/TxDMA.h **** *  or TxDMA_SetConfiguration(), and TxDMA_SetSrcAddress()
  90:Generated_Source\PSoC4/TxDMA.h **** *  and TxDMA_SetDstAddress the operation of the DMA is 
  91:Generated_Source\PSoC4/TxDMA.h **** *  undefined and could result in system data corruption. 
  92:Generated_Source\PSoC4/TxDMA.h **** *
  93:Generated_Source\PSoC4/TxDMA.h **** *******************************************************************************/
  94:Generated_Source\PSoC4/TxDMA.h **** static CY_INLINE void TxDMA_ChEnable(void)
  95:Generated_Source\PSoC4/TxDMA.h **** {
  96:Generated_Source\PSoC4/TxDMA.h ****     CyDmaChEnable(TxDMA_CHANNEL);
  97:Generated_Source\PSoC4/TxDMA.h **** }
  98:Generated_Source\PSoC4/TxDMA.h **** 
  99:Generated_Source\PSoC4/TxDMA.h **** 
 100:Generated_Source\PSoC4/TxDMA.h **** /*******************************************************************************
 101:Generated_Source\PSoC4/TxDMA.h **** * Function Name: TxDMA_ChDisable
 102:Generated_Source\PSoC4/TxDMA.h **** ********************************************************************************
 103:Generated_Source\PSoC4/TxDMA.h **** *
 104:Generated_Source\PSoC4/TxDMA.h **** * Summary:
 105:Generated_Source\PSoC4/TxDMA.h **** *  Disables the DMA channel.
 106:Generated_Source\PSoC4/TxDMA.h **** *
 107:Generated_Source\PSoC4/TxDMA.h **** * Parameters:
 108:Generated_Source\PSoC4/TxDMA.h **** *  None.
 109:Generated_Source\PSoC4/TxDMA.h **** *                   
ARM GAS  C:\Users\Terence\AppData\Local\Temp\ccVkgKCq.s 			page 5


 110:Generated_Source\PSoC4/TxDMA.h **** * Return:
 111:Generated_Source\PSoC4/TxDMA.h **** *  None.
 112:Generated_Source\PSoC4/TxDMA.h **** *
 113:Generated_Source\PSoC4/TxDMA.h **** * Side effect:
 114:Generated_Source\PSoC4/TxDMA.h **** *  If this function is called during a DMA transfer the transfer is aborted. 
 115:Generated_Source\PSoC4/TxDMA.h **** *
 116:Generated_Source\PSoC4/TxDMA.h **** *******************************************************************************/
 117:Generated_Source\PSoC4/TxDMA.h **** static CY_INLINE void TxDMA_ChDisable(void)
 118:Generated_Source\PSoC4/TxDMA.h **** {
 119:Generated_Source\PSoC4/TxDMA.h ****     CyDmaChDisable(TxDMA_CHANNEL);
 120:Generated_Source\PSoC4/TxDMA.h **** }
 121:Generated_Source\PSoC4/TxDMA.h **** 
 122:Generated_Source\PSoC4/TxDMA.h **** 
 123:Generated_Source\PSoC4/TxDMA.h **** /*******************************************************************************
 124:Generated_Source\PSoC4/TxDMA.h **** * Function Name: TxDMA_Trigger
 125:Generated_Source\PSoC4/TxDMA.h **** ********************************************************************************
 126:Generated_Source\PSoC4/TxDMA.h **** *
 127:Generated_Source\PSoC4/TxDMA.h **** * Summary:
 128:Generated_Source\PSoC4/TxDMA.h **** *  Triggers the DMA channel, this is useful only for software triggers. This is
 129:Generated_Source\PSoC4/TxDMA.h **** *  not needed when hardware triggers are used.
 130:Generated_Source\PSoC4/TxDMA.h **** *
 131:Generated_Source\PSoC4/TxDMA.h **** * Parameters:
 132:Generated_Source\PSoC4/TxDMA.h **** *  None.
 133:Generated_Source\PSoC4/TxDMA.h **** *                   
 134:Generated_Source\PSoC4/TxDMA.h **** * Return:
 135:Generated_Source\PSoC4/TxDMA.h **** *  None. 
 136:Generated_Source\PSoC4/TxDMA.h **** *
 137:Generated_Source\PSoC4/TxDMA.h **** *******************************************************************************/
 138:Generated_Source\PSoC4/TxDMA.h **** static CY_INLINE void TxDMA_Trigger(void)
 139:Generated_Source\PSoC4/TxDMA.h **** {
 140:Generated_Source\PSoC4/TxDMA.h ****     CyDmaTrigger(TxDMA_CHANNEL);
 141:Generated_Source\PSoC4/TxDMA.h **** }
 142:Generated_Source\PSoC4/TxDMA.h **** 
 143:Generated_Source\PSoC4/TxDMA.h **** 
 144:Generated_Source\PSoC4/TxDMA.h **** /*******************************************************************************
 145:Generated_Source\PSoC4/TxDMA.h **** * Function Name: TxDMA_SetPriority
 146:Generated_Source\PSoC4/TxDMA.h **** ********************************************************************************
 147:Generated_Source\PSoC4/TxDMA.h **** *
 148:Generated_Source\PSoC4/TxDMA.h **** * Summary:
 149:Generated_Source\PSoC4/TxDMA.h **** *  Sets the priority for the channel.
 150:Generated_Source\PSoC4/TxDMA.h **** *
 151:Generated_Source\PSoC4/TxDMA.h **** * Parameters:
 152:Generated_Source\PSoC4/TxDMA.h **** *  priority: Priority for channel. Priority can be 0,1,2, or 3.
 153:Generated_Source\PSoC4/TxDMA.h **** *            0 is the highest priority.
 154:Generated_Source\PSoC4/TxDMA.h **** *                   
 155:Generated_Source\PSoC4/TxDMA.h **** * Return:
 156:Generated_Source\PSoC4/TxDMA.h **** *  None.
 157:Generated_Source\PSoC4/TxDMA.h **** *
 158:Generated_Source\PSoC4/TxDMA.h **** * Side effect:
 159:Generated_Source\PSoC4/TxDMA.h **** *  This function should not be called while the channel is enabled.
 160:Generated_Source\PSoC4/TxDMA.h **** *
 161:Generated_Source\PSoC4/TxDMA.h **** *******************************************************************************/
 162:Generated_Source\PSoC4/TxDMA.h **** static CY_INLINE void TxDMA_SetPriority(int32 priority)
 163:Generated_Source\PSoC4/TxDMA.h **** {
 164:Generated_Source\PSoC4/TxDMA.h ****     CyDmaSetPriority(TxDMA_CHANNEL, priority);
 165:Generated_Source\PSoC4/TxDMA.h **** }
 166:Generated_Source\PSoC4/TxDMA.h **** 
ARM GAS  C:\Users\Terence\AppData\Local\Temp\ccVkgKCq.s 			page 6


 167:Generated_Source\PSoC4/TxDMA.h **** 
 168:Generated_Source\PSoC4/TxDMA.h **** /*******************************************************************************
 169:Generated_Source\PSoC4/TxDMA.h **** * Function Name: TxDMA_GetPriority
 170:Generated_Source\PSoC4/TxDMA.h **** ********************************************************************************
 171:Generated_Source\PSoC4/TxDMA.h **** *
 172:Generated_Source\PSoC4/TxDMA.h **** * Summary:
 173:Generated_Source\PSoC4/TxDMA.h **** *  Gets the priority for the channel.
 174:Generated_Source\PSoC4/TxDMA.h **** *
 175:Generated_Source\PSoC4/TxDMA.h **** * Parameters:
 176:Generated_Source\PSoC4/TxDMA.h **** *  None.
 177:Generated_Source\PSoC4/TxDMA.h **** *                   
 178:Generated_Source\PSoC4/TxDMA.h **** * Return:
 179:Generated_Source\PSoC4/TxDMA.h **** *  Priority for channel. Priority can be 0,1,2, or 3. 0 is the highest priority.
 180:Generated_Source\PSoC4/TxDMA.h **** *
 181:Generated_Source\PSoC4/TxDMA.h **** *******************************************************************************/
 182:Generated_Source\PSoC4/TxDMA.h **** static CY_INLINE int32 TxDMA_GetPriority(void)
 183:Generated_Source\PSoC4/TxDMA.h **** {
 184:Generated_Source\PSoC4/TxDMA.h ****     return (CyDmaGetPriority(TxDMA_CHANNEL));
 185:Generated_Source\PSoC4/TxDMA.h **** }
 186:Generated_Source\PSoC4/TxDMA.h **** 
 187:Generated_Source\PSoC4/TxDMA.h **** 
 188:Generated_Source\PSoC4/TxDMA.h **** /*******************************************************************************
 189:Generated_Source\PSoC4/TxDMA.h **** * Function Name: TxDMA_SetNextDescriptor
 190:Generated_Source\PSoC4/TxDMA.h **** ********************************************************************************
 191:Generated_Source\PSoC4/TxDMA.h **** *
 192:Generated_Source\PSoC4/TxDMA.h **** * Summary:
 193:Generated_Source\PSoC4/TxDMA.h **** *  Sets the descriptor that should be run the next time the channel is
 194:Generated_Source\PSoC4/TxDMA.h **** *  triggered.
 195:Generated_Source\PSoC4/TxDMA.h **** *
 196:Generated_Source\PSoC4/TxDMA.h **** * Parameters:
 197:Generated_Source\PSoC4/TxDMA.h **** *  descriptor: Next Descriptor to run (0 or 1).
 198:Generated_Source\PSoC4/TxDMA.h **** *                   
 199:Generated_Source\PSoC4/TxDMA.h **** * Side effect:
 200:Generated_Source\PSoC4/TxDMA.h **** *  This function should not be called while the channel is enabled.
 201:Generated_Source\PSoC4/TxDMA.h **** *
 202:Generated_Source\PSoC4/TxDMA.h **** *******************************************************************************/
 203:Generated_Source\PSoC4/TxDMA.h **** static CY_INLINE void TxDMA_SetNextDescriptor(int32 descriptor)
 204:Generated_Source\PSoC4/TxDMA.h **** {
 205:Generated_Source\PSoC4/TxDMA.h ****     CyDmaSetNextDescriptor(TxDMA_CHANNEL, descriptor);
 206:Generated_Source\PSoC4/TxDMA.h **** }
 207:Generated_Source\PSoC4/TxDMA.h **** 
 208:Generated_Source\PSoC4/TxDMA.h **** 
 209:Generated_Source\PSoC4/TxDMA.h **** /*******************************************************************************
 210:Generated_Source\PSoC4/TxDMA.h **** * Function Name: TxDMA_GetNextDescriptor
 211:Generated_Source\PSoC4/TxDMA.h **** ********************************************************************************
 212:Generated_Source\PSoC4/TxDMA.h **** *
 213:Generated_Source\PSoC4/TxDMA.h **** * Summary:
 214:Generated_Source\PSoC4/TxDMA.h **** *  Returns the next descriptor that should be run, as set by 
 215:Generated_Source\PSoC4/TxDMA.h **** *  TxDMA_SetNextDescriptor().
 216:Generated_Source\PSoC4/TxDMA.h **** *
 217:Generated_Source\PSoC4/TxDMA.h **** * Parameters:
 218:Generated_Source\PSoC4/TxDMA.h **** *  None.
 219:Generated_Source\PSoC4/TxDMA.h **** *                   
 220:Generated_Source\PSoC4/TxDMA.h **** * Return:
 221:Generated_Source\PSoC4/TxDMA.h **** *  Next Descriptor to run (0 or 1).
 222:Generated_Source\PSoC4/TxDMA.h **** *
 223:Generated_Source\PSoC4/TxDMA.h **** *******************************************************************************/
ARM GAS  C:\Users\Terence\AppData\Local\Temp\ccVkgKCq.s 			page 7


 224:Generated_Source\PSoC4/TxDMA.h **** static CY_INLINE int32 TxDMA_GetNextDescriptor(void)
 225:Generated_Source\PSoC4/TxDMA.h **** {
 226:Generated_Source\PSoC4/TxDMA.h ****     return (CyDmaGetNextDescriptor(TxDMA_CHANNEL));
 227:Generated_Source\PSoC4/TxDMA.h **** }
 228:Generated_Source\PSoC4/TxDMA.h **** 
 229:Generated_Source\PSoC4/TxDMA.h **** 
 230:Generated_Source\PSoC4/TxDMA.h **** /*******************************************************************************
 231:Generated_Source\PSoC4/TxDMA.h **** * Function Name: TxDMA_SetConfiguration
 232:Generated_Source\PSoC4/TxDMA.h **** ********************************************************************************
 233:Generated_Source\PSoC4/TxDMA.h **** *
 234:Generated_Source\PSoC4/TxDMA.h **** * Summary:
 235:Generated_Source\PSoC4/TxDMA.h **** *  Sets configuration information for the specified descriptor.
 236:Generated_Source\PSoC4/TxDMA.h **** *
 237:Generated_Source\PSoC4/TxDMA.h **** * Parameters:
 238:Generated_Source\PSoC4/TxDMA.h **** *  descriptor: Descriptor (0 or 1) modified by this function.
 239:Generated_Source\PSoC4/TxDMA.h **** *  config: Pointer to a configuration structure. Refer to cydma_init_struct
 240:Generated_Source\PSoC4/TxDMA.h **** *          structure definition in CyDMA_P4.h or the component datasheet.
 241:Generated_Source\PSoC4/TxDMA.h **** *                   
 242:Generated_Source\PSoC4/TxDMA.h **** * Return:
 243:Generated_Source\PSoC4/TxDMA.h **** *  None.
 244:Generated_Source\PSoC4/TxDMA.h **** *
 245:Generated_Source\PSoC4/TxDMA.h **** * Side effect:
 246:Generated_Source\PSoC4/TxDMA.h **** *  The status register associated with the specified descriptor is reset to
 247:Generated_Source\PSoC4/TxDMA.h **** *  zero after this function call. This function also validates the descriptor.
 248:Generated_Source\PSoC4/TxDMA.h **** *  This function should not be called while the descriptor is active.
 249:Generated_Source\PSoC4/TxDMA.h **** *  This can be checked by calling CyDmaGetStatus().
 250:Generated_Source\PSoC4/TxDMA.h **** *
 251:Generated_Source\PSoC4/TxDMA.h **** *******************************************************************************/
 252:Generated_Source\PSoC4/TxDMA.h **** static CY_INLINE void TxDMA_SetConfiguration(int32 descriptor, const cydma_init_struct * config)
 253:Generated_Source\PSoC4/TxDMA.h **** {
 254:Generated_Source\PSoC4/TxDMA.h ****     CyDmaSetConfiguration(TxDMA_CHANNEL, descriptor, config);
 255:Generated_Source\PSoC4/TxDMA.h **** }
 256:Generated_Source\PSoC4/TxDMA.h **** 
 257:Generated_Source\PSoC4/TxDMA.h **** 
 258:Generated_Source\PSoC4/TxDMA.h **** /*******************************************************************************
 259:Generated_Source\PSoC4/TxDMA.h **** * Function Name: TxDMA_ValidateDescriptor
 260:Generated_Source\PSoC4/TxDMA.h **** ********************************************************************************
 261:Generated_Source\PSoC4/TxDMA.h **** *
 262:Generated_Source\PSoC4/TxDMA.h **** * Summary:
 263:Generated_Source\PSoC4/TxDMA.h **** *  Validates the specified descriptor after it has been invalidated.
 264:Generated_Source\PSoC4/TxDMA.h **** *
 265:Generated_Source\PSoC4/TxDMA.h **** * Parameters:
 266:Generated_Source\PSoC4/TxDMA.h **** *  descriptor: Descriptor (0 or 1) modified by this function.
 267:Generated_Source\PSoC4/TxDMA.h **** *                   
 268:Generated_Source\PSoC4/TxDMA.h **** * Return:
 269:Generated_Source\PSoC4/TxDMA.h **** *  None. 
 270:Generated_Source\PSoC4/TxDMA.h **** *
 271:Generated_Source\PSoC4/TxDMA.h **** * Side effect:
 272:Generated_Source\PSoC4/TxDMA.h **** *  The status register associated with the specified descriptor is reset to
 273:Generated_Source\PSoC4/TxDMA.h **** *  zero after this function call. This function should not be called while the
 274:Generated_Source\PSoC4/TxDMA.h **** *  descriptor is active. This can be checked by calling CyDmaGetStatus().
 275:Generated_Source\PSoC4/TxDMA.h **** *
 276:Generated_Source\PSoC4/TxDMA.h **** *******************************************************************************/
 277:Generated_Source\PSoC4/TxDMA.h **** static CY_INLINE void TxDMA_ValidateDescriptor(int32 descriptor)
 278:Generated_Source\PSoC4/TxDMA.h **** {
 279:Generated_Source\PSoC4/TxDMA.h ****     CyDmaValidateDescriptor(TxDMA_CHANNEL, descriptor);
 280:Generated_Source\PSoC4/TxDMA.h **** }
ARM GAS  C:\Users\Terence\AppData\Local\Temp\ccVkgKCq.s 			page 8


 281:Generated_Source\PSoC4/TxDMA.h **** 
 282:Generated_Source\PSoC4/TxDMA.h **** 
 283:Generated_Source\PSoC4/TxDMA.h **** /*******************************************************************************
 284:Generated_Source\PSoC4/TxDMA.h **** * Function Name: TxDMA_GetDescriptorStatus
 285:Generated_Source\PSoC4/TxDMA.h **** ********************************************************************************
 286:Generated_Source\PSoC4/TxDMA.h **** *
 287:Generated_Source\PSoC4/TxDMA.h **** * Summary:
 288:Generated_Source\PSoC4/TxDMA.h **** *  Returns the status of the specified descriptor.
 289:Generated_Source\PSoC4/TxDMA.h **** *
 290:Generated_Source\PSoC4/TxDMA.h **** * Parameters:
 291:Generated_Source\PSoC4/TxDMA.h **** *  descriptor: Descriptor (0 or 1) modified by this function.
 292:Generated_Source\PSoC4/TxDMA.h **** *                   
 293:Generated_Source\PSoC4/TxDMA.h **** * Return:
 294:Generated_Source\PSoC4/TxDMA.h **** *  Returns the contents of the specified descriptors status register. Refer to 
 295:Generated_Source\PSoC4/TxDMA.h **** *  descriptor status register bit definitions in CyDMA_P4.h or the API
 296:Generated_Source\PSoC4/TxDMA.h **** *  description in the DMA channel datasheet for more information.
 297:Generated_Source\PSoC4/TxDMA.h **** *
 298:Generated_Source\PSoC4/TxDMA.h **** *******************************************************************************/
 299:Generated_Source\PSoC4/TxDMA.h **** static CY_INLINE uint32 TxDMA_GetDescriptorStatus(int32 descriptor)
 300:Generated_Source\PSoC4/TxDMA.h **** {
 301:Generated_Source\PSoC4/TxDMA.h ****     return (CyDmaGetDescriptorStatus(TxDMA_CHANNEL, descriptor));
 302:Generated_Source\PSoC4/TxDMA.h **** }
 303:Generated_Source\PSoC4/TxDMA.h **** 
 304:Generated_Source\PSoC4/TxDMA.h **** 
 305:Generated_Source\PSoC4/TxDMA.h **** /*******************************************************************************
 306:Generated_Source\PSoC4/TxDMA.h **** * Function Name: TxDMA_SetSrcAddress
 307:Generated_Source\PSoC4/TxDMA.h **** ********************************************************************************
 308:Generated_Source\PSoC4/TxDMA.h **** *
 309:Generated_Source\PSoC4/TxDMA.h **** * Summary:
 310:Generated_Source\PSoC4/TxDMA.h **** *  Configures the source address for the specified descriptor.
 311:Generated_Source\PSoC4/TxDMA.h **** *
 312:Generated_Source\PSoC4/TxDMA.h **** * Parameters:
 313:Generated_Source\PSoC4/TxDMA.h **** *  descriptor: Descriptor (0 or 1) modified by this function.
 314:Generated_Source\PSoC4/TxDMA.h **** *  srcAddress: Address of DMA transfer source.
 315:Generated_Source\PSoC4/TxDMA.h **** *                   
 316:Generated_Source\PSoC4/TxDMA.h **** * Return:
 317:Generated_Source\PSoC4/TxDMA.h **** *  None.
 318:Generated_Source\PSoC4/TxDMA.h **** *
 319:Generated_Source\PSoC4/TxDMA.h **** * Side effect:
 320:Generated_Source\PSoC4/TxDMA.h **** *  This function should not be called when the specified descriptor is active
 321:Generated_Source\PSoC4/TxDMA.h **** *  in the DMA transfer engine. This can be checked by calling CyDmaGetStatus(). 
 322:Generated_Source\PSoC4/TxDMA.h **** *
 323:Generated_Source\PSoC4/TxDMA.h **** *******************************************************************************/
 324:Generated_Source\PSoC4/TxDMA.h **** static CY_INLINE void TxDMA_SetSrcAddress(int32 descriptor, void * srcAddress)
 325:Generated_Source\PSoC4/TxDMA.h **** {
 326:Generated_Source\PSoC4/TxDMA.h ****     CyDmaSetSrcAddress(TxDMA_CHANNEL, descriptor, srcAddress);
 327:Generated_Source\PSoC4/TxDMA.h **** }
 328:Generated_Source\PSoC4/TxDMA.h **** 
 329:Generated_Source\PSoC4/TxDMA.h **** 
 330:Generated_Source\PSoC4/TxDMA.h **** /*******************************************************************************
 331:Generated_Source\PSoC4/TxDMA.h **** * Function Name: TxDMA_GetSrcAddress
 332:Generated_Source\PSoC4/TxDMA.h **** ********************************************************************************
 333:Generated_Source\PSoC4/TxDMA.h **** *
 334:Generated_Source\PSoC4/TxDMA.h **** * Summary:
 335:Generated_Source\PSoC4/TxDMA.h **** *  Returns the source address for the specified descriptor, set by either 
 336:Generated_Source\PSoC4/TxDMA.h **** *  TxDMA_Start() or TxDMA_SetSrcAddress().
 337:Generated_Source\PSoC4/TxDMA.h **** *
ARM GAS  C:\Users\Terence\AppData\Local\Temp\ccVkgKCq.s 			page 9


 338:Generated_Source\PSoC4/TxDMA.h **** * Parameters:
 339:Generated_Source\PSoC4/TxDMA.h **** *  descriptor: Specifies descriptor (0 or 1) used by this function.
 340:Generated_Source\PSoC4/TxDMA.h **** *                   
 341:Generated_Source\PSoC4/TxDMA.h **** * Return:
 342:Generated_Source\PSoC4/TxDMA.h **** *  Source address written to specified descriptor.
 343:Generated_Source\PSoC4/TxDMA.h **** *
 344:Generated_Source\PSoC4/TxDMA.h **** *******************************************************************************/
 345:Generated_Source\PSoC4/TxDMA.h **** static CY_INLINE void * TxDMA_GetSrcAddress(int32 descriptor)
 346:Generated_Source\PSoC4/TxDMA.h **** {
 347:Generated_Source\PSoC4/TxDMA.h ****     return (CyDmaGetSrcAddress(TxDMA_CHANNEL, descriptor));
 348:Generated_Source\PSoC4/TxDMA.h **** }
 349:Generated_Source\PSoC4/TxDMA.h **** 
 350:Generated_Source\PSoC4/TxDMA.h **** 
 351:Generated_Source\PSoC4/TxDMA.h **** /*******************************************************************************
 352:Generated_Source\PSoC4/TxDMA.h **** * Function Name: TxDMA_SetDstAddress
 353:Generated_Source\PSoC4/TxDMA.h **** ********************************************************************************
 354:Generated_Source\PSoC4/TxDMA.h **** *
 355:Generated_Source\PSoC4/TxDMA.h **** * Summary:
 356:Generated_Source\PSoC4/TxDMA.h **** *  Configures the destination address for the specified descriptor.
 357:Generated_Source\PSoC4/TxDMA.h **** *
 358:Generated_Source\PSoC4/TxDMA.h **** * Parameters:
 359:Generated_Source\PSoC4/TxDMA.h **** *  descriptor: Descriptor (0 or 1) modified by this function.
 360:Generated_Source\PSoC4/TxDMA.h **** *  dstAddress: Address of DMA transfer destination.
 361:Generated_Source\PSoC4/TxDMA.h **** *                   
 362:Generated_Source\PSoC4/TxDMA.h **** * Return:
 363:Generated_Source\PSoC4/TxDMA.h **** *  None.
 364:Generated_Source\PSoC4/TxDMA.h **** *
 365:Generated_Source\PSoC4/TxDMA.h **** * Side effect:
 366:Generated_Source\PSoC4/TxDMA.h **** *  This function should not be called when the specified descriptor is active
 367:Generated_Source\PSoC4/TxDMA.h **** *  in the DMA transfer engine. This can be checked by calling CyDmaGetStatus(). 
 368:Generated_Source\PSoC4/TxDMA.h **** *
 369:Generated_Source\PSoC4/TxDMA.h **** *******************************************************************************/
 370:Generated_Source\PSoC4/TxDMA.h **** static CY_INLINE void TxDMA_SetDstAddress(int32 descriptor, void * dstAddress)
 371:Generated_Source\PSoC4/TxDMA.h **** {
 372:Generated_Source\PSoC4/TxDMA.h ****     CyDmaSetDstAddress(TxDMA_CHANNEL, descriptor, dstAddress);
 373:Generated_Source\PSoC4/TxDMA.h **** }
 374:Generated_Source\PSoC4/TxDMA.h **** 
 375:Generated_Source\PSoC4/TxDMA.h **** 
 376:Generated_Source\PSoC4/TxDMA.h **** /*******************************************************************************
 377:Generated_Source\PSoC4/TxDMA.h **** * Function Name: TxDMA_GetDstAddress
 378:Generated_Source\PSoC4/TxDMA.h **** ********************************************************************************
 379:Generated_Source\PSoC4/TxDMA.h **** *
 380:Generated_Source\PSoC4/TxDMA.h **** * Summary:
 381:Generated_Source\PSoC4/TxDMA.h **** *  Returns the destination address for the specified descriptor, set by either 
 382:Generated_Source\PSoC4/TxDMA.h **** *  TxDMA_Start() or TxDMA_SetDstAddress().
 383:Generated_Source\PSoC4/TxDMA.h **** *
 384:Generated_Source\PSoC4/TxDMA.h **** * Parameters:
 385:Generated_Source\PSoC4/TxDMA.h **** *  descriptor: Specifies descriptor (0 or 1) used by this function.
 386:Generated_Source\PSoC4/TxDMA.h **** *                   
 387:Generated_Source\PSoC4/TxDMA.h **** * Return:
 388:Generated_Source\PSoC4/TxDMA.h **** *  Destination address written to specified descriptor.
 389:Generated_Source\PSoC4/TxDMA.h **** *
 390:Generated_Source\PSoC4/TxDMA.h **** *******************************************************************************/
 391:Generated_Source\PSoC4/TxDMA.h **** static CY_INLINE void * TxDMA_GetDstAddress(int32 descriptor)
 392:Generated_Source\PSoC4/TxDMA.h **** {
 393:Generated_Source\PSoC4/TxDMA.h ****     return (CyDmaGetDstAddress(TxDMA_CHANNEL, descriptor));
 394:Generated_Source\PSoC4/TxDMA.h **** }
ARM GAS  C:\Users\Terence\AppData\Local\Temp\ccVkgKCq.s 			page 10


 395:Generated_Source\PSoC4/TxDMA.h **** 
 396:Generated_Source\PSoC4/TxDMA.h **** 
 397:Generated_Source\PSoC4/TxDMA.h **** /*******************************************************************************
 398:Generated_Source\PSoC4/TxDMA.h **** * Function Name: TxDMA_SetDataElementSize
 399:Generated_Source\PSoC4/TxDMA.h **** ********************************************************************************
 400:Generated_Source\PSoC4/TxDMA.h **** *
 401:Generated_Source\PSoC4/TxDMA.h **** * Summary:
 402:Generated_Source\PSoC4/TxDMA.h **** *  Sets the data element size for the specified descriptor.
 403:Generated_Source\PSoC4/TxDMA.h **** *
 404:Generated_Source\PSoC4/TxDMA.h **** * Parameters:
 405:Generated_Source\PSoC4/TxDMA.h **** *  descriptor:      Descriptor (0 or 1) modified by this function.
 406:Generated_Source\PSoC4/TxDMA.h **** *  dataElementSize: Specifies the size of the data element. The DMA transfer
 407:Generated_Source\PSoC4/TxDMA.h **** *                   engine transfers one data element at a time. How these
 408:Generated_Source\PSoC4/TxDMA.h **** *                   transfers occur is controlled by the transfer mode.
 409:Generated_Source\PSoC4/TxDMA.h **** *                   Refer to the API bit field definitions in CyDMA_P4.h or API
 410:Generated_Source\PSoC4/TxDMA.h **** *                   description in the DMA channel datasheet for the parameter
 411:Generated_Source\PSoC4/TxDMA.h **** *                   options.
 412:Generated_Source\PSoC4/TxDMA.h **** *
 413:Generated_Source\PSoC4/TxDMA.h **** * Return:
 414:Generated_Source\PSoC4/TxDMA.h **** *  None.
 415:Generated_Source\PSoC4/TxDMA.h **** *
 416:Generated_Source\PSoC4/TxDMA.h **** * Side effect:
 417:Generated_Source\PSoC4/TxDMA.h **** *  This function should not be called when the specified descriptor is active
 418:Generated_Source\PSoC4/TxDMA.h **** *  in the DMA transfer engine. This can be checked by calling CyDmaGetStatus(). 
 419:Generated_Source\PSoC4/TxDMA.h **** *
 420:Generated_Source\PSoC4/TxDMA.h **** *******************************************************************************/
 421:Generated_Source\PSoC4/TxDMA.h **** static CY_INLINE void TxDMA_SetDataElementSize(int32 descriptor, uint32 dataElementSize)
 422:Generated_Source\PSoC4/TxDMA.h **** {
 423:Generated_Source\PSoC4/TxDMA.h ****     CyDmaSetDataElementSize(TxDMA_CHANNEL, descriptor, dataElementSize);
 424:Generated_Source\PSoC4/TxDMA.h **** }
 425:Generated_Source\PSoC4/TxDMA.h **** 
 426:Generated_Source\PSoC4/TxDMA.h **** 
 427:Generated_Source\PSoC4/TxDMA.h **** /*******************************************************************************
 428:Generated_Source\PSoC4/TxDMA.h **** * Function Name: TxDMA_GetDataElementSize
 429:Generated_Source\PSoC4/TxDMA.h **** ********************************************************************************
 430:Generated_Source\PSoC4/TxDMA.h **** *
 431:Generated_Source\PSoC4/TxDMA.h **** * Summary:
 432:Generated_Source\PSoC4/TxDMA.h **** *  Returns the data element size configured for the specified descriptor, set by
 433:Generated_Source\PSoC4/TxDMA.h **** *  TxDMA_SetDataElementSize() or TxDMA_SetConfiguration().
 434:Generated_Source\PSoC4/TxDMA.h **** *
 435:Generated_Source\PSoC4/TxDMA.h **** * Parameters:
 436:Generated_Source\PSoC4/TxDMA.h **** *  descriptor: Descriptor (0 or 1) modified by this function.
 437:Generated_Source\PSoC4/TxDMA.h **** *                   
 438:Generated_Source\PSoC4/TxDMA.h **** * Return:
 439:Generated_Source\PSoC4/TxDMA.h **** *  The size of the data element. The DMA transfer engine transfers one data
 440:Generated_Source\PSoC4/TxDMA.h **** *  element at a time. How these transfers occur is controlled by the transfer
 441:Generated_Source\PSoC4/TxDMA.h **** *  mode. Refer to the API bit field definitions in CyDMA_P4.h or the API 
 442:Generated_Source\PSoC4/TxDMA.h **** *  description in the DMA channel datasheet for more information.
 443:Generated_Source\PSoC4/TxDMA.h **** *
 444:Generated_Source\PSoC4/TxDMA.h **** * Note:
 445:Generated_Source\PSoC4/TxDMA.h **** *  The size of the source and destination can be configured to use the
 446:Generated_Source\PSoC4/TxDMA.h **** *  data element size, or a Word, this is set in TxDMA_SetSrcDstTransferWidth().
 447:Generated_Source\PSoC4/TxDMA.h **** *
 448:Generated_Source\PSoC4/TxDMA.h **** *******************************************************************************/
 449:Generated_Source\PSoC4/TxDMA.h **** static CY_INLINE uint32 TxDMA_GetDataElementSize(int32 descriptor)
 450:Generated_Source\PSoC4/TxDMA.h **** {
 451:Generated_Source\PSoC4/TxDMA.h ****     return (CyDmaGetDataElementSize(TxDMA_CHANNEL, descriptor));
ARM GAS  C:\Users\Terence\AppData\Local\Temp\ccVkgKCq.s 			page 11


 452:Generated_Source\PSoC4/TxDMA.h **** }
 453:Generated_Source\PSoC4/TxDMA.h **** 
 454:Generated_Source\PSoC4/TxDMA.h **** 
 455:Generated_Source\PSoC4/TxDMA.h **** /*******************************************************************************
 456:Generated_Source\PSoC4/TxDMA.h **** * Function Name: TxDMA_SetNumDataElements
 457:Generated_Source\PSoC4/TxDMA.h **** ********************************************************************************
 458:Generated_Source\PSoC4/TxDMA.h **** *
 459:Generated_Source\PSoC4/TxDMA.h **** * Summary:
 460:Generated_Source\PSoC4/TxDMA.h **** *  Sets the number of data elements to transfer for specified descriptor.
 461:Generated_Source\PSoC4/TxDMA.h **** *
 462:Generated_Source\PSoC4/TxDMA.h **** * Parameters:
 463:Generated_Source\PSoC4/TxDMA.h **** *  descriptor:      Descriptor (0 or 1) modified by this function.
 464:Generated_Source\PSoC4/TxDMA.h **** *  numDataElements: Total number of data elements this descriptor transfers.
 465:Generated_Source\PSoC4/TxDMA.h **** *                   Valid ranges are 1 to 65536.
 466:Generated_Source\PSoC4/TxDMA.h **** *                   
 467:Generated_Source\PSoC4/TxDMA.h **** * Return:
 468:Generated_Source\PSoC4/TxDMA.h **** *  None.
 469:Generated_Source\PSoC4/TxDMA.h **** *
 470:Generated_Source\PSoC4/TxDMA.h **** * Side effect:
 471:Generated_Source\PSoC4/TxDMA.h **** *  This function should not be called when the specified descriptor is active
 472:Generated_Source\PSoC4/TxDMA.h **** *  in the DMA transfer engine. This can be checked by calling CyDmaGetStatus(). 
 473:Generated_Source\PSoC4/TxDMA.h **** *
 474:Generated_Source\PSoC4/TxDMA.h **** *******************************************************************************/
 475:Generated_Source\PSoC4/TxDMA.h **** static CY_INLINE void TxDMA_SetNumDataElements(int32 descriptor, int32 numDataElements)
 476:Generated_Source\PSoC4/TxDMA.h **** {
 477:Generated_Source\PSoC4/TxDMA.h ****     CyDmaSetNumDataElements(TxDMA_CHANNEL, descriptor, numDataElements);
  38              		.loc 2 477 0
  39 0006 0020     		mov	r0, #0
  40 0008 0021     		mov	r1, #0
  41 000a 9022     		mov	r2, #144
  42 000c D200     		lsl	r2, r2, #3
  43 000e FFF7FEFF 		bl	CyDmaSetNumDataElements
  44              	.LVL1:
  45              	.LBE63:
  46              	.LBE62:
  47              	.LBB64:
  48              	.LBB65:
 326:Generated_Source\PSoC4/TxDMA.h **** }
  49              		.loc 2 326 0
  50 0012 0020     		mov	r0, #0
  51 0014 0021     		mov	r1, #0
  52 0016 0B4A     		ldr	r2, .L2
  53 0018 FFF7FEFF 		bl	CyDmaSetSrcAddress
  54              	.LVL2:
  55              	.LBE65:
  56              	.LBE64:
  57              	.LBB66:
  58              	.LBB67:
 372:Generated_Source\PSoC4/TxDMA.h **** }
  59              		.loc 2 372 0
  60 001c 0020     		mov	r0, #0
  61 001e 0021     		mov	r1, #0
  62 0020 094A     		ldr	r2, .L2+4
  63 0022 FFF7FEFF 		bl	CyDmaSetDstAddress
  64              	.LVL3:
  65              	.LBE67:
  66              	.LBE66:
ARM GAS  C:\Users\Terence\AppData\Local\Temp\ccVkgKCq.s 			page 12


  67              	.LBB68:
  68              	.LBB69:
 279:Generated_Source\PSoC4/TxDMA.h **** }
  69              		.loc 2 279 0
  70 0026 0020     		mov	r0, #0
  71 0028 0021     		mov	r1, #0
  72 002a FFF7FEFF 		bl	CyDmaValidateDescriptor
  73              	.LVL4:
  74              	.LBE69:
  75              	.LBE68:
  83:.\AudioOut.c  **** 	TxDMA_SetNumDataElements(0, OUT_BUFSIZE);
  84:.\AudioOut.c  ****     TxDMA_SetSrcAddress(0, (void *) outBuffer);
  85:.\AudioOut.c  **** 	TxDMA_SetDstAddress(0, (void *) I2S_TX_FIFO_0_PTR);
  86:.\AudioOut.c  **** 	
  87:.\AudioOut.c  **** 	/* Validate descriptor */
  88:.\AudioOut.c  ****     TxDMA_ValidateDescriptor(0);
  89:.\AudioOut.c  **** 		        
  90:.\AudioOut.c  ****     /* USB Out DMA Config: Entire chain is sent based on a single request from the CPU TDs are conf
  91:.\AudioOut.c  ****     /* runtime when executing USB Endpoint interrupts */	
  92:.\AudioOut.c  ****     USBOutDMA_Init(); 
  76              		.loc 1 92 0
  77 002e FFF7FEFF 		bl	USBOutDMA_Init
  78              	.LVL5:
  79              	.LBB70:
  80              	.LBB71:
  81              		.file 3 "Generated_Source\\PSoC4/USBOutDMA.h"
   1:Generated_Source\PSoC4/USBOutDMA.h **** /*******************************************************************************
   2:Generated_Source\PSoC4/USBOutDMA.h **** * File Name: USBOutDMA.h
   3:Generated_Source\PSoC4/USBOutDMA.h **** * Version 1.0
   4:Generated_Source\PSoC4/USBOutDMA.h **** *
   5:Generated_Source\PSoC4/USBOutDMA.h **** * Description:
   6:Generated_Source\PSoC4/USBOutDMA.h **** *  This file provides DMA channel defines and API function definitions.
   7:Generated_Source\PSoC4/USBOutDMA.h **** *
   8:Generated_Source\PSoC4/USBOutDMA.h **** ********************************************************************************
   9:Generated_Source\PSoC4/USBOutDMA.h **** * Copyright 2015, Cypress Semiconductor Corporation. All rights reserved.
  10:Generated_Source\PSoC4/USBOutDMA.h **** * You may use this file only in accordance with the license, terms, conditions,
  11:Generated_Source\PSoC4/USBOutDMA.h **** * disclaimers, and limitations in the end user license agreement accompanying
  12:Generated_Source\PSoC4/USBOutDMA.h **** * the software package with which this file was provided.
  13:Generated_Source\PSoC4/USBOutDMA.h **** *******************************************************************************/
  14:Generated_Source\PSoC4/USBOutDMA.h **** 
  15:Generated_Source\PSoC4/USBOutDMA.h **** #ifndef CY_DMA_CHANNEL_USBOutDMA_H
  16:Generated_Source\PSoC4/USBOutDMA.h **** #define CY_DMA_CHANNEL_USBOutDMA_H
  17:Generated_Source\PSoC4/USBOutDMA.h **** 
  18:Generated_Source\PSoC4/USBOutDMA.h **** #include "CyDMA.h"
  19:Generated_Source\PSoC4/USBOutDMA.h **** 
  20:Generated_Source\PSoC4/USBOutDMA.h ****     
  21:Generated_Source\PSoC4/USBOutDMA.h **** /***************************************
  22:Generated_Source\PSoC4/USBOutDMA.h **** *   Conditional Compilation Parameters
  23:Generated_Source\PSoC4/USBOutDMA.h **** ***************************************/
  24:Generated_Source\PSoC4/USBOutDMA.h **** 
  25:Generated_Source\PSoC4/USBOutDMA.h **** #define USBOutDMA_CHANNEL           (USBOutDMA__CHANNEL_NUMBER)
  26:Generated_Source\PSoC4/USBOutDMA.h **** #define USBOutDMA_CHANNEL_MASK      ((uint32)(1UL << USBOutDMA_CHANNEL))
  27:Generated_Source\PSoC4/USBOutDMA.h **** 
  28:Generated_Source\PSoC4/USBOutDMA.h **** 
  29:Generated_Source\PSoC4/USBOutDMA.h **** /***************************************
  30:Generated_Source\PSoC4/USBOutDMA.h **** *        Function Prototypes
  31:Generated_Source\PSoC4/USBOutDMA.h **** ***************************************/
ARM GAS  C:\Users\Terence\AppData\Local\Temp\ccVkgKCq.s 			page 13


  32:Generated_Source\PSoC4/USBOutDMA.h **** 
  33:Generated_Source\PSoC4/USBOutDMA.h **** /* Functions specific to this DMA channel */
  34:Generated_Source\PSoC4/USBOutDMA.h **** void USBOutDMA_Init(void);
  35:Generated_Source\PSoC4/USBOutDMA.h **** void USBOutDMA_Start(void * srcAddress, void * dstAddress);
  36:Generated_Source\PSoC4/USBOutDMA.h **** 
  37:Generated_Source\PSoC4/USBOutDMA.h **** /* Inline functions that call global API functions */
  38:Generated_Source\PSoC4/USBOutDMA.h **** static void   USBOutDMA_ChEnable(void);
  39:Generated_Source\PSoC4/USBOutDMA.h **** static void   USBOutDMA_ChDisable(void);
  40:Generated_Source\PSoC4/USBOutDMA.h **** static void   USBOutDMA_Trigger(void);
  41:Generated_Source\PSoC4/USBOutDMA.h **** static void   USBOutDMA_SetPriority(int32 priority);
  42:Generated_Source\PSoC4/USBOutDMA.h **** static int32  USBOutDMA_GetPriority(void);
  43:Generated_Source\PSoC4/USBOutDMA.h **** static void   USBOutDMA_SetNextDescriptor(int32 descriptor);
  44:Generated_Source\PSoC4/USBOutDMA.h **** static int32  USBOutDMA_GetNextDescriptor(void);
  45:Generated_Source\PSoC4/USBOutDMA.h **** static void   USBOutDMA_SetConfiguration(int32 descriptor, const cydma_init_struct * config);
  46:Generated_Source\PSoC4/USBOutDMA.h **** static void   USBOutDMA_ValidateDescriptor(int32 descriptor);
  47:Generated_Source\PSoC4/USBOutDMA.h **** static uint32 USBOutDMA_GetDescriptorStatus(int32 descriptor);
  48:Generated_Source\PSoC4/USBOutDMA.h **** static void   USBOutDMA_SetSrcAddress(int32 descriptor, void * srcAddress);
  49:Generated_Source\PSoC4/USBOutDMA.h **** static void * USBOutDMA_GetSrcAddress(int32 descriptor);
  50:Generated_Source\PSoC4/USBOutDMA.h **** static void   USBOutDMA_SetDstAddress(int32 descriptor, void * dstAddress);
  51:Generated_Source\PSoC4/USBOutDMA.h **** static void * USBOutDMA_GetDstAddress(int32 descriptor);
  52:Generated_Source\PSoC4/USBOutDMA.h **** static void   USBOutDMA_SetDataElementSize(int32 descriptor, uint32 dataElementSize);
  53:Generated_Source\PSoC4/USBOutDMA.h **** static uint32 USBOutDMA_GetDataElementSize(int32 descriptor);
  54:Generated_Source\PSoC4/USBOutDMA.h **** static void   USBOutDMA_SetNumDataElements(int32 descriptor, int32 numDataElements);
  55:Generated_Source\PSoC4/USBOutDMA.h **** static int32  USBOutDMA_GetNumDataElements(int32 descriptor);
  56:Generated_Source\PSoC4/USBOutDMA.h **** static void   USBOutDMA_SetSrcDstTransferWidth(int32 descriptor, uint32 transferWidth);
  57:Generated_Source\PSoC4/USBOutDMA.h **** static uint32 USBOutDMA_GetSrcDstTransferWidth(int32 descriptor);
  58:Generated_Source\PSoC4/USBOutDMA.h **** static void   USBOutDMA_SetAddressIncrement(int32 descriptor, uint32 addressIncrement);
  59:Generated_Source\PSoC4/USBOutDMA.h **** static uint32 USBOutDMA_GetAddressIncrement(int32 descriptor);
  60:Generated_Source\PSoC4/USBOutDMA.h **** static void   USBOutDMA_SetTriggerType(int32 descriptor, uint32 triggerType);
  61:Generated_Source\PSoC4/USBOutDMA.h **** static uint32 USBOutDMA_GetTriggerType(int32 descriptor);
  62:Generated_Source\PSoC4/USBOutDMA.h **** static void   USBOutDMA_SetTransferMode(int32 descriptor, uint32 transferMode);
  63:Generated_Source\PSoC4/USBOutDMA.h **** static uint32 USBOutDMA_GetTransferMode(int32 descriptor);
  64:Generated_Source\PSoC4/USBOutDMA.h **** static void   USBOutDMA_SetPreemptable(int32 descriptor, uint32 preemptable);
  65:Generated_Source\PSoC4/USBOutDMA.h **** static uint32 USBOutDMA_GetPreemptable(int32 descriptor);
  66:Generated_Source\PSoC4/USBOutDMA.h **** static void   USBOutDMA_SetPostCompletionActions(int32 descriptor, uint32 actions);
  67:Generated_Source\PSoC4/USBOutDMA.h **** static uint32 USBOutDMA_GetPostCompletionAction(int32 descriptor);
  68:Generated_Source\PSoC4/USBOutDMA.h **** static cydma_callback_t USBOutDMA_SetInterruptCallback(cydma_callback_t callback);
  69:Generated_Source\PSoC4/USBOutDMA.h **** static cydma_callback_t USBOutDMA_GetInterruptCallback(void);
  70:Generated_Source\PSoC4/USBOutDMA.h **** 
  71:Generated_Source\PSoC4/USBOutDMA.h **** 
  72:Generated_Source\PSoC4/USBOutDMA.h **** /*******************************************************************************
  73:Generated_Source\PSoC4/USBOutDMA.h **** * Function Name: USBOutDMA_ChEnable
  74:Generated_Source\PSoC4/USBOutDMA.h **** ********************************************************************************
  75:Generated_Source\PSoC4/USBOutDMA.h **** *
  76:Generated_Source\PSoC4/USBOutDMA.h **** * Summary:
  77:Generated_Source\PSoC4/USBOutDMA.h **** *  Enables the DMA channel. It is not necessary to call USBOutDMA_ChEnable()
  78:Generated_Source\PSoC4/USBOutDMA.h **** *  because the USBOutDMA_Start() API calls this function, which is the
  79:Generated_Source\PSoC4/USBOutDMA.h **** *  preferred method to begin the component operation.
  80:Generated_Source\PSoC4/USBOutDMA.h **** *
  81:Generated_Source\PSoC4/USBOutDMA.h **** * Parameters:
  82:Generated_Source\PSoC4/USBOutDMA.h **** *  None.
  83:Generated_Source\PSoC4/USBOutDMA.h **** *                   
  84:Generated_Source\PSoC4/USBOutDMA.h **** * Return:
  85:Generated_Source\PSoC4/USBOutDMA.h **** *  None.
  86:Generated_Source\PSoC4/USBOutDMA.h **** *
  87:Generated_Source\PSoC4/USBOutDMA.h **** * Side effect:
  88:Generated_Source\PSoC4/USBOutDMA.h **** *  If this function is called before USBOutDMA_Start(), or USBOutDMA_Init()
ARM GAS  C:\Users\Terence\AppData\Local\Temp\ccVkgKCq.s 			page 14


  89:Generated_Source\PSoC4/USBOutDMA.h **** *  or USBOutDMA_SetConfiguration(), and USBOutDMA_SetSrcAddress()
  90:Generated_Source\PSoC4/USBOutDMA.h **** *  and USBOutDMA_SetDstAddress the operation of the DMA is 
  91:Generated_Source\PSoC4/USBOutDMA.h **** *  undefined and could result in system data corruption. 
  92:Generated_Source\PSoC4/USBOutDMA.h **** *
  93:Generated_Source\PSoC4/USBOutDMA.h **** *******************************************************************************/
  94:Generated_Source\PSoC4/USBOutDMA.h **** static CY_INLINE void USBOutDMA_ChEnable(void)
  95:Generated_Source\PSoC4/USBOutDMA.h **** {
  96:Generated_Source\PSoC4/USBOutDMA.h ****     CyDmaChEnable(USBOutDMA_CHANNEL);
  82              		.loc 3 96 0
  83 0032 0220     		mov	r0, #2
  84 0034 FFF7FEFF 		bl	CyDmaChEnable
  85              	.LVL6:
  86              	.LBE71:
  87              	.LBE70:
  93:.\AudioOut.c  **** 	USBOutDMA_ChEnable();
  94:.\AudioOut.c  **** 	
  95:.\AudioOut.c  **** 	ByteCounter_Tx_Init();
  88              		.loc 1 95 0
  89 0038 FFF7FEFF 		bl	ByteCounter_Tx_Init
  90              	.LVL7:
  96:.\AudioOut.c  ****     
  97:.\AudioOut.c  ****     /* Start interrupts */
  98:.\AudioOut.c  ****     isr_TxDMADone_StartEx(TxDMADone_Interrupt);
  91              		.loc 1 98 0
  92 003c 0348     		ldr	r0, .L2+8
  93 003e FFF7FEFF 		bl	isr_TxDMADone_StartEx
  94              	.LVL8:
  99:.\AudioOut.c  **** 
 100:.\AudioOut.c  **** }
  95              		.loc 1 100 0
  96              		@ sp needed
  97 0042 08BD     		pop	{r3, pc}
  98              	.L3:
  99              		.align	2
 100              	.L2:
 101 0044 00000000 		.word	outBuffer
 102 0048 43000F40 		.word	1074724931
 103 004c 00000000 		.word	TxDMADone_Interrupt
 104              		.cfi_endproc
 105              	.LFE325:
 106              		.size	InitializeAudioOutPath, .-InitializeAudioOutPath
 107              		.section	.text.ProcessAudioOut,"ax",%progbits
 108              		.align	2
 109              		.global	ProcessAudioOut
 110              		.code	16
 111              		.thumb_func
 112              		.type	ProcessAudioOut, %function
 113              	ProcessAudioOut:
 114              	.LFB326:
 101:.\AudioOut.c  **** 
 102:.\AudioOut.c  **** /*******************************************************************************
 103:.\AudioOut.c  **** * Function Name: ProcessAudioOut
 104:.\AudioOut.c  **** ********************************************************************************
 105:.\AudioOut.c  **** * Summary:
 106:.\AudioOut.c  **** *        Handle audio out data, setup USB DMA and trigger the DMA to transfer 
 107:.\AudioOut.c  **** *        audio samples from SRAM USB endpoint memory to SRAM audio circular 
 108:.\AudioOut.c  **** *        buffer. The API also starts the I2S transmit when USB audio out streaming 
ARM GAS  C:\Users\Terence\AppData\Local\Temp\ccVkgKCq.s 			page 15


 109:.\AudioOut.c  **** *        is active
 110:.\AudioOut.c  **** *
 111:.\AudioOut.c  **** * Parameters:
 112:.\AudioOut.c  **** *  void
 113:.\AudioOut.c  **** *
 114:.\AudioOut.c  **** * Return:
 115:.\AudioOut.c  **** *  void
 116:.\AudioOut.c  **** *
 117:.\AudioOut.c  **** *******************************************************************************/
 118:.\AudioOut.c  **** 
 119:.\AudioOut.c  **** void ProcessAudioOut(void) 
 120:.\AudioOut.c  **** {
 115              		.loc 1 120 0
 116              		.cfi_startproc
 117 0000 F0B5     		push	{r4, r5, r6, r7, lr}
 118              		.cfi_def_cfa_offset 20
 119              		.cfi_offset 4, -20
 120              		.cfi_offset 5, -16
 121              		.cfi_offset 6, -12
 122              		.cfi_offset 7, -8
 123              		.cfi_offset 14, -4
 124 0002 4F46     		mov	r7, r9
 125 0004 80B4     		push	{r7}
 126              		.cfi_def_cfa_offset 24
 127              		.cfi_offset 9, -24
 121:.\AudioOut.c  **** 	uint16 count;
 122:.\AudioOut.c  ****     uint16 remain;
 123:.\AudioOut.c  ****     
 124:.\AudioOut.c  ****     if( TRUE == audioClkConfigured)
 128              		.loc 1 124 0
 129 0006 604B     		ldr	r3, .L9
 130 0008 1B78     		ldrb	r3, [r3]
 131 000a 012B     		cmp	r3, #1
 132 000c 00D0     		beq	.LCB98
 133 000e B8E0     		b	.L4	@long jump
 134              	.LCB98:
 125:.\AudioOut.c  ****     {
 126:.\AudioOut.c  ****         /* Check TX buffer reset condition and clear pointers if required */
 127:.\AudioOut.c  ****         if (resetTx) 
 135              		.loc 1 127 0
 136 0010 5E4B     		ldr	r3, .L9+4
 137 0012 1B78     		ldrb	r3, [r3]
 138 0014 002B     		cmp	r3, #0
 139 0016 04D0     		beq	.L6
 128:.\AudioOut.c  ****         {
 129:.\AudioOut.c  ****             outBufIndex = 0;
 140              		.loc 1 129 0
 141 0018 5C4B     		ldr	r3, .L9+4
 142 001a 0022     		mov	r2, #0
 143 001c 5A80     		strh	r2, [r3, #2]
 130:.\AudioOut.c  ****             outUsbCount = 0;
 144              		.loc 1 130 0
 145 001e 9A80     		strh	r2, [r3, #4]
 131:.\AudioOut.c  ****             resetTx = 0;
 146              		.loc 1 131 0
 147 0020 1A70     		strb	r2, [r3]
 148              	.L6:
ARM GAS  C:\Users\Terence\AppData\Local\Temp\ccVkgKCq.s 			page 16


 149              	.LBB72:
 150              	.LBB73:
  97:Generated_Source\PSoC4/USBOutDMA.h **** }
  98:Generated_Source\PSoC4/USBOutDMA.h **** 
  99:Generated_Source\PSoC4/USBOutDMA.h **** 
 100:Generated_Source\PSoC4/USBOutDMA.h **** /*******************************************************************************
 101:Generated_Source\PSoC4/USBOutDMA.h **** * Function Name: USBOutDMA_ChDisable
 102:Generated_Source\PSoC4/USBOutDMA.h **** ********************************************************************************
 103:Generated_Source\PSoC4/USBOutDMA.h **** *
 104:Generated_Source\PSoC4/USBOutDMA.h **** * Summary:
 105:Generated_Source\PSoC4/USBOutDMA.h **** *  Disables the DMA channel.
 106:Generated_Source\PSoC4/USBOutDMA.h **** *
 107:Generated_Source\PSoC4/USBOutDMA.h **** * Parameters:
 108:Generated_Source\PSoC4/USBOutDMA.h **** *  None.
 109:Generated_Source\PSoC4/USBOutDMA.h **** *                   
 110:Generated_Source\PSoC4/USBOutDMA.h **** * Return:
 111:Generated_Source\PSoC4/USBOutDMA.h **** *  None.
 112:Generated_Source\PSoC4/USBOutDMA.h **** *
 113:Generated_Source\PSoC4/USBOutDMA.h **** * Side effect:
 114:Generated_Source\PSoC4/USBOutDMA.h **** *  If this function is called during a DMA transfer the transfer is aborted. 
 115:Generated_Source\PSoC4/USBOutDMA.h **** *
 116:Generated_Source\PSoC4/USBOutDMA.h **** *******************************************************************************/
 117:Generated_Source\PSoC4/USBOutDMA.h **** static CY_INLINE void USBOutDMA_ChDisable(void)
 118:Generated_Source\PSoC4/USBOutDMA.h **** {
 119:Generated_Source\PSoC4/USBOutDMA.h ****     CyDmaChDisable(USBOutDMA_CHANNEL);
 151              		.loc 3 119 0
 152 0022 0220     		mov	r0, #2
 153 0024 FFF7FEFF 		bl	CyDmaChDisable
 154              	.LVL9:
 155              	.LBE73:
 156              	.LBE72:
 132:.\AudioOut.c  ****         }        
 133:.\AudioOut.c  **** 		
 134:.\AudioOut.c  ****         /* Disable the USBOut DMA channel */
 135:.\AudioOut.c  **** 		USBOutDMA_ChDisable();
 136:.\AudioOut.c  **** 		
 137:.\AudioOut.c  **** 		/* Obtain the number of bytes received from USB Audio OUT endpoint */
 138:.\AudioOut.c  ****         count = USBFS_GetEPCount(AUDIO_OUT_ENDPOINT);
 157              		.loc 1 138 0
 158 0028 0120     		mov	r0, #1
 159 002a FFF7FEFF 		bl	USBFS_GetEPCount
 160              	.LVL10:
 161 002e 061C     		mov	r6, r0
 162              	.LVL11:
 139:.\AudioOut.c  ****     
 140:.\AudioOut.c  ****         /* Update of usbCount needs to be atomic */
 141:.\AudioOut.c  ****         isr_TxDMADone_Disable();
 163              		.loc 1 141 0
 164 0030 FFF7FEFF 		bl	isr_TxDMADone_Disable
 165              	.LVL12:
 142:.\AudioOut.c  ****         outUsbCount += count;
 166              		.loc 1 142 0
 167 0034 554D     		ldr	r5, .L9+4
 168 0036 AB88     		ldrh	r3, [r5, #4]
 169 0038 F318     		add	r3, r6, r3
 170 003a AB80     		strh	r3, [r5, #4]
 143:.\AudioOut.c  ****         isr_TxDMADone_Enable();
ARM GAS  C:\Users\Terence\AppData\Local\Temp\ccVkgKCq.s 			page 17


 171              		.loc 1 143 0
 172 003c FFF7FEFF 		bl	isr_TxDMADone_Enable
 173              	.LVL13:
 144:.\AudioOut.c  ****         
 145:.\AudioOut.c  **** 		/* Implement the circular buffer (outBuffer) DMA transfer
 146:.\AudioOut.c  **** 			When the number of bytes to transfer from USB outRam to outBuffer makes the outBuffer to overflo
 147:.\AudioOut.c  **** 			wraparound the buffer and fill the remaining number of bytes from the buffer start. Two DMA TDs 
 148:.\AudioOut.c  **** 			used for this purpose - one (TD 0) transferring the outRam to outBuffer till outBuffer is full a
 149:.\AudioOut.c  **** 			second one (TD 1) transferring the remaining number of bytes to the outBuffer starting locations
 150:.\AudioOut.c  **** 			
 151:.\AudioOut.c  **** 			When the number of bytes to transfer from outRam to outBuffer does not make the outBuffer to ove
 152:.\AudioOut.c  **** 			Use only one TD (TD 0) to transfer the entire outRam contents to outBuffer */
 153:.\AudioOut.c  ****         if((outBufIndex + count) > sizeof(outBuffer))
 174              		.loc 1 153 0
 175 0040 6B88     		ldrh	r3, [r5, #2]
 176 0042 9919     		add	r1, r3, r6
 177 0044 9022     		mov	r2, #144
 178 0046 D200     		lsl	r2, r2, #3
 179 0048 9142     		cmp	r1, r2
 180 004a 4BD9     		bls	.L7
 154:.\AudioOut.c  ****         {
 155:.\AudioOut.c  ****             /* Set up TD to wrap around circular buffer */
 156:.\AudioOut.c  ****             remain = sizeof(outBuffer) - outBufIndex;
 181              		.loc 1 156 0
 182 004c D41A     		sub	r4, r2, r3
 183 004e A4B2     		uxth	r4, r4
 184              	.LVL14:
 185              	.LBB74:
 186              	.LBB75:
 120:Generated_Source\PSoC4/USBOutDMA.h **** }
 121:Generated_Source\PSoC4/USBOutDMA.h **** 
 122:Generated_Source\PSoC4/USBOutDMA.h **** 
 123:Generated_Source\PSoC4/USBOutDMA.h **** /*******************************************************************************
 124:Generated_Source\PSoC4/USBOutDMA.h **** * Function Name: USBOutDMA_Trigger
 125:Generated_Source\PSoC4/USBOutDMA.h **** ********************************************************************************
 126:Generated_Source\PSoC4/USBOutDMA.h **** *
 127:Generated_Source\PSoC4/USBOutDMA.h **** * Summary:
 128:Generated_Source\PSoC4/USBOutDMA.h **** *  Triggers the DMA channel, this is useful only for software triggers. This is
 129:Generated_Source\PSoC4/USBOutDMA.h **** *  not needed when hardware triggers are used.
 130:Generated_Source\PSoC4/USBOutDMA.h **** *
 131:Generated_Source\PSoC4/USBOutDMA.h **** * Parameters:
 132:Generated_Source\PSoC4/USBOutDMA.h **** *  None.
 133:Generated_Source\PSoC4/USBOutDMA.h **** *                   
 134:Generated_Source\PSoC4/USBOutDMA.h **** * Return:
 135:Generated_Source\PSoC4/USBOutDMA.h **** *  None. 
 136:Generated_Source\PSoC4/USBOutDMA.h **** *
 137:Generated_Source\PSoC4/USBOutDMA.h **** *******************************************************************************/
 138:Generated_Source\PSoC4/USBOutDMA.h **** static CY_INLINE void USBOutDMA_Trigger(void)
 139:Generated_Source\PSoC4/USBOutDMA.h **** {
 140:Generated_Source\PSoC4/USBOutDMA.h ****     CyDmaTrigger(USBOutDMA_CHANNEL);
 141:Generated_Source\PSoC4/USBOutDMA.h **** }
 142:Generated_Source\PSoC4/USBOutDMA.h **** 
 143:Generated_Source\PSoC4/USBOutDMA.h **** 
 144:Generated_Source\PSoC4/USBOutDMA.h **** /*******************************************************************************
 145:Generated_Source\PSoC4/USBOutDMA.h **** * Function Name: USBOutDMA_SetPriority
 146:Generated_Source\PSoC4/USBOutDMA.h **** ********************************************************************************
 147:Generated_Source\PSoC4/USBOutDMA.h **** *
ARM GAS  C:\Users\Terence\AppData\Local\Temp\ccVkgKCq.s 			page 18


 148:Generated_Source\PSoC4/USBOutDMA.h **** * Summary:
 149:Generated_Source\PSoC4/USBOutDMA.h **** *  Sets the priority for the channel.
 150:Generated_Source\PSoC4/USBOutDMA.h **** *
 151:Generated_Source\PSoC4/USBOutDMA.h **** * Parameters:
 152:Generated_Source\PSoC4/USBOutDMA.h **** *  priority: Priority for channel. Priority can be 0,1,2, or 3.
 153:Generated_Source\PSoC4/USBOutDMA.h **** *            0 is the highest priority.
 154:Generated_Source\PSoC4/USBOutDMA.h **** *                   
 155:Generated_Source\PSoC4/USBOutDMA.h **** * Return:
 156:Generated_Source\PSoC4/USBOutDMA.h **** *  None.
 157:Generated_Source\PSoC4/USBOutDMA.h **** *
 158:Generated_Source\PSoC4/USBOutDMA.h **** * Side effect:
 159:Generated_Source\PSoC4/USBOutDMA.h **** *  This function should not be called while the channel is enabled.
 160:Generated_Source\PSoC4/USBOutDMA.h **** *
 161:Generated_Source\PSoC4/USBOutDMA.h **** *******************************************************************************/
 162:Generated_Source\PSoC4/USBOutDMA.h **** static CY_INLINE void USBOutDMA_SetPriority(int32 priority)
 163:Generated_Source\PSoC4/USBOutDMA.h **** {
 164:Generated_Source\PSoC4/USBOutDMA.h ****     CyDmaSetPriority(USBOutDMA_CHANNEL, priority);
 165:Generated_Source\PSoC4/USBOutDMA.h **** }
 166:Generated_Source\PSoC4/USBOutDMA.h **** 
 167:Generated_Source\PSoC4/USBOutDMA.h **** 
 168:Generated_Source\PSoC4/USBOutDMA.h **** /*******************************************************************************
 169:Generated_Source\PSoC4/USBOutDMA.h **** * Function Name: USBOutDMA_GetPriority
 170:Generated_Source\PSoC4/USBOutDMA.h **** ********************************************************************************
 171:Generated_Source\PSoC4/USBOutDMA.h **** *
 172:Generated_Source\PSoC4/USBOutDMA.h **** * Summary:
 173:Generated_Source\PSoC4/USBOutDMA.h **** *  Gets the priority for the channel.
 174:Generated_Source\PSoC4/USBOutDMA.h **** *
 175:Generated_Source\PSoC4/USBOutDMA.h **** * Parameters:
 176:Generated_Source\PSoC4/USBOutDMA.h **** *  None.
 177:Generated_Source\PSoC4/USBOutDMA.h **** *                   
 178:Generated_Source\PSoC4/USBOutDMA.h **** * Return:
 179:Generated_Source\PSoC4/USBOutDMA.h **** *  Priority for channel. Priority can be 0,1,2, or 3. 0 is the highest priority.
 180:Generated_Source\PSoC4/USBOutDMA.h **** *
 181:Generated_Source\PSoC4/USBOutDMA.h **** *******************************************************************************/
 182:Generated_Source\PSoC4/USBOutDMA.h **** static CY_INLINE int32 USBOutDMA_GetPriority(void)
 183:Generated_Source\PSoC4/USBOutDMA.h **** {
 184:Generated_Source\PSoC4/USBOutDMA.h ****     return (CyDmaGetPriority(USBOutDMA_CHANNEL));
 185:Generated_Source\PSoC4/USBOutDMA.h **** }
 186:Generated_Source\PSoC4/USBOutDMA.h **** 
 187:Generated_Source\PSoC4/USBOutDMA.h **** 
 188:Generated_Source\PSoC4/USBOutDMA.h **** /*******************************************************************************
 189:Generated_Source\PSoC4/USBOutDMA.h **** * Function Name: USBOutDMA_SetNextDescriptor
 190:Generated_Source\PSoC4/USBOutDMA.h **** ********************************************************************************
 191:Generated_Source\PSoC4/USBOutDMA.h **** *
 192:Generated_Source\PSoC4/USBOutDMA.h **** * Summary:
 193:Generated_Source\PSoC4/USBOutDMA.h **** *  Sets the descriptor that should be run the next time the channel is
 194:Generated_Source\PSoC4/USBOutDMA.h **** *  triggered.
 195:Generated_Source\PSoC4/USBOutDMA.h **** *
 196:Generated_Source\PSoC4/USBOutDMA.h **** * Parameters:
 197:Generated_Source\PSoC4/USBOutDMA.h **** *  descriptor: Next Descriptor to run (0 or 1).
 198:Generated_Source\PSoC4/USBOutDMA.h **** *                   
 199:Generated_Source\PSoC4/USBOutDMA.h **** * Side effect:
 200:Generated_Source\PSoC4/USBOutDMA.h **** *  This function should not be called while the channel is enabled.
 201:Generated_Source\PSoC4/USBOutDMA.h **** *
 202:Generated_Source\PSoC4/USBOutDMA.h **** *******************************************************************************/
 203:Generated_Source\PSoC4/USBOutDMA.h **** static CY_INLINE void USBOutDMA_SetNextDescriptor(int32 descriptor)
 204:Generated_Source\PSoC4/USBOutDMA.h **** {
ARM GAS  C:\Users\Terence\AppData\Local\Temp\ccVkgKCq.s 			page 19


 205:Generated_Source\PSoC4/USBOutDMA.h ****     CyDmaSetNextDescriptor(USBOutDMA_CHANNEL, descriptor);
 206:Generated_Source\PSoC4/USBOutDMA.h **** }
 207:Generated_Source\PSoC4/USBOutDMA.h **** 
 208:Generated_Source\PSoC4/USBOutDMA.h **** 
 209:Generated_Source\PSoC4/USBOutDMA.h **** /*******************************************************************************
 210:Generated_Source\PSoC4/USBOutDMA.h **** * Function Name: USBOutDMA_GetNextDescriptor
 211:Generated_Source\PSoC4/USBOutDMA.h **** ********************************************************************************
 212:Generated_Source\PSoC4/USBOutDMA.h **** *
 213:Generated_Source\PSoC4/USBOutDMA.h **** * Summary:
 214:Generated_Source\PSoC4/USBOutDMA.h **** *  Returns the next descriptor that should be run, as set by 
 215:Generated_Source\PSoC4/USBOutDMA.h **** *  USBOutDMA_SetNextDescriptor().
 216:Generated_Source\PSoC4/USBOutDMA.h **** *
 217:Generated_Source\PSoC4/USBOutDMA.h **** * Parameters:
 218:Generated_Source\PSoC4/USBOutDMA.h **** *  None.
 219:Generated_Source\PSoC4/USBOutDMA.h **** *                   
 220:Generated_Source\PSoC4/USBOutDMA.h **** * Return:
 221:Generated_Source\PSoC4/USBOutDMA.h **** *  Next Descriptor to run (0 or 1).
 222:Generated_Source\PSoC4/USBOutDMA.h **** *
 223:Generated_Source\PSoC4/USBOutDMA.h **** *******************************************************************************/
 224:Generated_Source\PSoC4/USBOutDMA.h **** static CY_INLINE int32 USBOutDMA_GetNextDescriptor(void)
 225:Generated_Source\PSoC4/USBOutDMA.h **** {
 226:Generated_Source\PSoC4/USBOutDMA.h ****     return (CyDmaGetNextDescriptor(USBOutDMA_CHANNEL));
 227:Generated_Source\PSoC4/USBOutDMA.h **** }
 228:Generated_Source\PSoC4/USBOutDMA.h **** 
 229:Generated_Source\PSoC4/USBOutDMA.h **** 
 230:Generated_Source\PSoC4/USBOutDMA.h **** /*******************************************************************************
 231:Generated_Source\PSoC4/USBOutDMA.h **** * Function Name: USBOutDMA_SetConfiguration
 232:Generated_Source\PSoC4/USBOutDMA.h **** ********************************************************************************
 233:Generated_Source\PSoC4/USBOutDMA.h **** *
 234:Generated_Source\PSoC4/USBOutDMA.h **** * Summary:
 235:Generated_Source\PSoC4/USBOutDMA.h **** *  Sets configuration information for the specified descriptor.
 236:Generated_Source\PSoC4/USBOutDMA.h **** *
 237:Generated_Source\PSoC4/USBOutDMA.h **** * Parameters:
 238:Generated_Source\PSoC4/USBOutDMA.h **** *  descriptor: Descriptor (0 or 1) modified by this function.
 239:Generated_Source\PSoC4/USBOutDMA.h **** *  config: Pointer to a configuration structure. Refer to cydma_init_struct
 240:Generated_Source\PSoC4/USBOutDMA.h **** *          structure definition in CyDMA_P4.h or the component datasheet.
 241:Generated_Source\PSoC4/USBOutDMA.h **** *                   
 242:Generated_Source\PSoC4/USBOutDMA.h **** * Return:
 243:Generated_Source\PSoC4/USBOutDMA.h **** *  None.
 244:Generated_Source\PSoC4/USBOutDMA.h **** *
 245:Generated_Source\PSoC4/USBOutDMA.h **** * Side effect:
 246:Generated_Source\PSoC4/USBOutDMA.h **** *  The status register associated with the specified descriptor is reset to
 247:Generated_Source\PSoC4/USBOutDMA.h **** *  zero after this function call. This function also validates the descriptor.
 248:Generated_Source\PSoC4/USBOutDMA.h **** *  This function should not be called while the descriptor is active.
 249:Generated_Source\PSoC4/USBOutDMA.h **** *  This can be checked by calling CyDmaGetStatus().
 250:Generated_Source\PSoC4/USBOutDMA.h **** *
 251:Generated_Source\PSoC4/USBOutDMA.h **** *******************************************************************************/
 252:Generated_Source\PSoC4/USBOutDMA.h **** static CY_INLINE void USBOutDMA_SetConfiguration(int32 descriptor, const cydma_init_struct * config
 253:Generated_Source\PSoC4/USBOutDMA.h **** {
 254:Generated_Source\PSoC4/USBOutDMA.h ****     CyDmaSetConfiguration(USBOutDMA_CHANNEL, descriptor, config);
 255:Generated_Source\PSoC4/USBOutDMA.h **** }
 256:Generated_Source\PSoC4/USBOutDMA.h **** 
 257:Generated_Source\PSoC4/USBOutDMA.h **** 
 258:Generated_Source\PSoC4/USBOutDMA.h **** /*******************************************************************************
 259:Generated_Source\PSoC4/USBOutDMA.h **** * Function Name: USBOutDMA_ValidateDescriptor
 260:Generated_Source\PSoC4/USBOutDMA.h **** ********************************************************************************
 261:Generated_Source\PSoC4/USBOutDMA.h **** *
ARM GAS  C:\Users\Terence\AppData\Local\Temp\ccVkgKCq.s 			page 20


 262:Generated_Source\PSoC4/USBOutDMA.h **** * Summary:
 263:Generated_Source\PSoC4/USBOutDMA.h **** *  Validates the specified descriptor after it has been invalidated.
 264:Generated_Source\PSoC4/USBOutDMA.h **** *
 265:Generated_Source\PSoC4/USBOutDMA.h **** * Parameters:
 266:Generated_Source\PSoC4/USBOutDMA.h **** *  descriptor: Descriptor (0 or 1) modified by this function.
 267:Generated_Source\PSoC4/USBOutDMA.h **** *                   
 268:Generated_Source\PSoC4/USBOutDMA.h **** * Return:
 269:Generated_Source\PSoC4/USBOutDMA.h **** *  None. 
 270:Generated_Source\PSoC4/USBOutDMA.h **** *
 271:Generated_Source\PSoC4/USBOutDMA.h **** * Side effect:
 272:Generated_Source\PSoC4/USBOutDMA.h **** *  The status register associated with the specified descriptor is reset to
 273:Generated_Source\PSoC4/USBOutDMA.h **** *  zero after this function call. This function should not be called while the
 274:Generated_Source\PSoC4/USBOutDMA.h **** *  descriptor is active. This can be checked by calling CyDmaGetStatus().
 275:Generated_Source\PSoC4/USBOutDMA.h **** *
 276:Generated_Source\PSoC4/USBOutDMA.h **** *******************************************************************************/
 277:Generated_Source\PSoC4/USBOutDMA.h **** static CY_INLINE void USBOutDMA_ValidateDescriptor(int32 descriptor)
 278:Generated_Source\PSoC4/USBOutDMA.h **** {
 279:Generated_Source\PSoC4/USBOutDMA.h ****     CyDmaValidateDescriptor(USBOutDMA_CHANNEL, descriptor);
 280:Generated_Source\PSoC4/USBOutDMA.h **** }
 281:Generated_Source\PSoC4/USBOutDMA.h **** 
 282:Generated_Source\PSoC4/USBOutDMA.h **** 
 283:Generated_Source\PSoC4/USBOutDMA.h **** /*******************************************************************************
 284:Generated_Source\PSoC4/USBOutDMA.h **** * Function Name: USBOutDMA_GetDescriptorStatus
 285:Generated_Source\PSoC4/USBOutDMA.h **** ********************************************************************************
 286:Generated_Source\PSoC4/USBOutDMA.h **** *
 287:Generated_Source\PSoC4/USBOutDMA.h **** * Summary:
 288:Generated_Source\PSoC4/USBOutDMA.h **** *  Returns the status of the specified descriptor.
 289:Generated_Source\PSoC4/USBOutDMA.h **** *
 290:Generated_Source\PSoC4/USBOutDMA.h **** * Parameters:
 291:Generated_Source\PSoC4/USBOutDMA.h **** *  descriptor: Descriptor (0 or 1) modified by this function.
 292:Generated_Source\PSoC4/USBOutDMA.h **** *                   
 293:Generated_Source\PSoC4/USBOutDMA.h **** * Return:
 294:Generated_Source\PSoC4/USBOutDMA.h **** *  Returns the contents of the specified descriptors status register. Refer to 
 295:Generated_Source\PSoC4/USBOutDMA.h **** *  descriptor status register bit definitions in CyDMA_P4.h or the API
 296:Generated_Source\PSoC4/USBOutDMA.h **** *  description in the DMA channel datasheet for more information.
 297:Generated_Source\PSoC4/USBOutDMA.h **** *
 298:Generated_Source\PSoC4/USBOutDMA.h **** *******************************************************************************/
 299:Generated_Source\PSoC4/USBOutDMA.h **** static CY_INLINE uint32 USBOutDMA_GetDescriptorStatus(int32 descriptor)
 300:Generated_Source\PSoC4/USBOutDMA.h **** {
 301:Generated_Source\PSoC4/USBOutDMA.h ****     return (CyDmaGetDescriptorStatus(USBOutDMA_CHANNEL, descriptor));
 302:Generated_Source\PSoC4/USBOutDMA.h **** }
 303:Generated_Source\PSoC4/USBOutDMA.h **** 
 304:Generated_Source\PSoC4/USBOutDMA.h **** 
 305:Generated_Source\PSoC4/USBOutDMA.h **** /*******************************************************************************
 306:Generated_Source\PSoC4/USBOutDMA.h **** * Function Name: USBOutDMA_SetSrcAddress
 307:Generated_Source\PSoC4/USBOutDMA.h **** ********************************************************************************
 308:Generated_Source\PSoC4/USBOutDMA.h **** *
 309:Generated_Source\PSoC4/USBOutDMA.h **** * Summary:
 310:Generated_Source\PSoC4/USBOutDMA.h **** *  Configures the source address for the specified descriptor.
 311:Generated_Source\PSoC4/USBOutDMA.h **** *
 312:Generated_Source\PSoC4/USBOutDMA.h **** * Parameters:
 313:Generated_Source\PSoC4/USBOutDMA.h **** *  descriptor: Descriptor (0 or 1) modified by this function.
 314:Generated_Source\PSoC4/USBOutDMA.h **** *  srcAddress: Address of DMA transfer source.
 315:Generated_Source\PSoC4/USBOutDMA.h **** *                   
 316:Generated_Source\PSoC4/USBOutDMA.h **** * Return:
 317:Generated_Source\PSoC4/USBOutDMA.h **** *  None.
 318:Generated_Source\PSoC4/USBOutDMA.h **** *
ARM GAS  C:\Users\Terence\AppData\Local\Temp\ccVkgKCq.s 			page 21


 319:Generated_Source\PSoC4/USBOutDMA.h **** * Side effect:
 320:Generated_Source\PSoC4/USBOutDMA.h **** *  This function should not be called when the specified descriptor is active
 321:Generated_Source\PSoC4/USBOutDMA.h **** *  in the DMA transfer engine. This can be checked by calling CyDmaGetStatus(). 
 322:Generated_Source\PSoC4/USBOutDMA.h **** *
 323:Generated_Source\PSoC4/USBOutDMA.h **** *******************************************************************************/
 324:Generated_Source\PSoC4/USBOutDMA.h **** static CY_INLINE void USBOutDMA_SetSrcAddress(int32 descriptor, void * srcAddress)
 325:Generated_Source\PSoC4/USBOutDMA.h **** {
 326:Generated_Source\PSoC4/USBOutDMA.h ****     CyDmaSetSrcAddress(USBOutDMA_CHANNEL, descriptor, srcAddress);
 327:Generated_Source\PSoC4/USBOutDMA.h **** }
 328:Generated_Source\PSoC4/USBOutDMA.h **** 
 329:Generated_Source\PSoC4/USBOutDMA.h **** 
 330:Generated_Source\PSoC4/USBOutDMA.h **** /*******************************************************************************
 331:Generated_Source\PSoC4/USBOutDMA.h **** * Function Name: USBOutDMA_GetSrcAddress
 332:Generated_Source\PSoC4/USBOutDMA.h **** ********************************************************************************
 333:Generated_Source\PSoC4/USBOutDMA.h **** *
 334:Generated_Source\PSoC4/USBOutDMA.h **** * Summary:
 335:Generated_Source\PSoC4/USBOutDMA.h **** *  Returns the source address for the specified descriptor, set by either 
 336:Generated_Source\PSoC4/USBOutDMA.h **** *  USBOutDMA_Start() or USBOutDMA_SetSrcAddress().
 337:Generated_Source\PSoC4/USBOutDMA.h **** *
 338:Generated_Source\PSoC4/USBOutDMA.h **** * Parameters:
 339:Generated_Source\PSoC4/USBOutDMA.h **** *  descriptor: Specifies descriptor (0 or 1) used by this function.
 340:Generated_Source\PSoC4/USBOutDMA.h **** *                   
 341:Generated_Source\PSoC4/USBOutDMA.h **** * Return:
 342:Generated_Source\PSoC4/USBOutDMA.h **** *  Source address written to specified descriptor.
 343:Generated_Source\PSoC4/USBOutDMA.h **** *
 344:Generated_Source\PSoC4/USBOutDMA.h **** *******************************************************************************/
 345:Generated_Source\PSoC4/USBOutDMA.h **** static CY_INLINE void * USBOutDMA_GetSrcAddress(int32 descriptor)
 346:Generated_Source\PSoC4/USBOutDMA.h **** {
 347:Generated_Source\PSoC4/USBOutDMA.h ****     return (CyDmaGetSrcAddress(USBOutDMA_CHANNEL, descriptor));
 348:Generated_Source\PSoC4/USBOutDMA.h **** }
 349:Generated_Source\PSoC4/USBOutDMA.h **** 
 350:Generated_Source\PSoC4/USBOutDMA.h **** 
 351:Generated_Source\PSoC4/USBOutDMA.h **** /*******************************************************************************
 352:Generated_Source\PSoC4/USBOutDMA.h **** * Function Name: USBOutDMA_SetDstAddress
 353:Generated_Source\PSoC4/USBOutDMA.h **** ********************************************************************************
 354:Generated_Source\PSoC4/USBOutDMA.h **** *
 355:Generated_Source\PSoC4/USBOutDMA.h **** * Summary:
 356:Generated_Source\PSoC4/USBOutDMA.h **** *  Configures the destination address for the specified descriptor.
 357:Generated_Source\PSoC4/USBOutDMA.h **** *
 358:Generated_Source\PSoC4/USBOutDMA.h **** * Parameters:
 359:Generated_Source\PSoC4/USBOutDMA.h **** *  descriptor: Descriptor (0 or 1) modified by this function.
 360:Generated_Source\PSoC4/USBOutDMA.h **** *  dstAddress: Address of DMA transfer destination.
 361:Generated_Source\PSoC4/USBOutDMA.h **** *                   
 362:Generated_Source\PSoC4/USBOutDMA.h **** * Return:
 363:Generated_Source\PSoC4/USBOutDMA.h **** *  None.
 364:Generated_Source\PSoC4/USBOutDMA.h **** *
 365:Generated_Source\PSoC4/USBOutDMA.h **** * Side effect:
 366:Generated_Source\PSoC4/USBOutDMA.h **** *  This function should not be called when the specified descriptor is active
 367:Generated_Source\PSoC4/USBOutDMA.h **** *  in the DMA transfer engine. This can be checked by calling CyDmaGetStatus(). 
 368:Generated_Source\PSoC4/USBOutDMA.h **** *
 369:Generated_Source\PSoC4/USBOutDMA.h **** *******************************************************************************/
 370:Generated_Source\PSoC4/USBOutDMA.h **** static CY_INLINE void USBOutDMA_SetDstAddress(int32 descriptor, void * dstAddress)
 371:Generated_Source\PSoC4/USBOutDMA.h **** {
 372:Generated_Source\PSoC4/USBOutDMA.h ****     CyDmaSetDstAddress(USBOutDMA_CHANNEL, descriptor, dstAddress);
 373:Generated_Source\PSoC4/USBOutDMA.h **** }
 374:Generated_Source\PSoC4/USBOutDMA.h **** 
 375:Generated_Source\PSoC4/USBOutDMA.h **** 
ARM GAS  C:\Users\Terence\AppData\Local\Temp\ccVkgKCq.s 			page 22


 376:Generated_Source\PSoC4/USBOutDMA.h **** /*******************************************************************************
 377:Generated_Source\PSoC4/USBOutDMA.h **** * Function Name: USBOutDMA_GetDstAddress
 378:Generated_Source\PSoC4/USBOutDMA.h **** ********************************************************************************
 379:Generated_Source\PSoC4/USBOutDMA.h **** *
 380:Generated_Source\PSoC4/USBOutDMA.h **** * Summary:
 381:Generated_Source\PSoC4/USBOutDMA.h **** *  Returns the destination address for the specified descriptor, set by either 
 382:Generated_Source\PSoC4/USBOutDMA.h **** *  USBOutDMA_Start() or USBOutDMA_SetDstAddress().
 383:Generated_Source\PSoC4/USBOutDMA.h **** *
 384:Generated_Source\PSoC4/USBOutDMA.h **** * Parameters:
 385:Generated_Source\PSoC4/USBOutDMA.h **** *  descriptor: Specifies descriptor (0 or 1) used by this function.
 386:Generated_Source\PSoC4/USBOutDMA.h **** *                   
 387:Generated_Source\PSoC4/USBOutDMA.h **** * Return:
 388:Generated_Source\PSoC4/USBOutDMA.h **** *  Destination address written to specified descriptor.
 389:Generated_Source\PSoC4/USBOutDMA.h **** *
 390:Generated_Source\PSoC4/USBOutDMA.h **** *******************************************************************************/
 391:Generated_Source\PSoC4/USBOutDMA.h **** static CY_INLINE void * USBOutDMA_GetDstAddress(int32 descriptor)
 392:Generated_Source\PSoC4/USBOutDMA.h **** {
 393:Generated_Source\PSoC4/USBOutDMA.h ****     return (CyDmaGetDstAddress(USBOutDMA_CHANNEL, descriptor));
 394:Generated_Source\PSoC4/USBOutDMA.h **** }
 395:Generated_Source\PSoC4/USBOutDMA.h **** 
 396:Generated_Source\PSoC4/USBOutDMA.h **** 
 397:Generated_Source\PSoC4/USBOutDMA.h **** /*******************************************************************************
 398:Generated_Source\PSoC4/USBOutDMA.h **** * Function Name: USBOutDMA_SetDataElementSize
 399:Generated_Source\PSoC4/USBOutDMA.h **** ********************************************************************************
 400:Generated_Source\PSoC4/USBOutDMA.h **** *
 401:Generated_Source\PSoC4/USBOutDMA.h **** * Summary:
 402:Generated_Source\PSoC4/USBOutDMA.h **** *  Sets the data element size for the specified descriptor.
 403:Generated_Source\PSoC4/USBOutDMA.h **** *
 404:Generated_Source\PSoC4/USBOutDMA.h **** * Parameters:
 405:Generated_Source\PSoC4/USBOutDMA.h **** *  descriptor:      Descriptor (0 or 1) modified by this function.
 406:Generated_Source\PSoC4/USBOutDMA.h **** *  dataElementSize: Specifies the size of the data element. The DMA transfer
 407:Generated_Source\PSoC4/USBOutDMA.h **** *                   engine transfers one data element at a time. How these
 408:Generated_Source\PSoC4/USBOutDMA.h **** *                   transfers occur is controlled by the transfer mode.
 409:Generated_Source\PSoC4/USBOutDMA.h **** *                   Refer to the API bit field definitions in CyDMA_P4.h or API
 410:Generated_Source\PSoC4/USBOutDMA.h **** *                   description in the DMA channel datasheet for the parameter
 411:Generated_Source\PSoC4/USBOutDMA.h **** *                   options.
 412:Generated_Source\PSoC4/USBOutDMA.h **** *
 413:Generated_Source\PSoC4/USBOutDMA.h **** * Return:
 414:Generated_Source\PSoC4/USBOutDMA.h **** *  None.
 415:Generated_Source\PSoC4/USBOutDMA.h **** *
 416:Generated_Source\PSoC4/USBOutDMA.h **** * Side effect:
 417:Generated_Source\PSoC4/USBOutDMA.h **** *  This function should not be called when the specified descriptor is active
 418:Generated_Source\PSoC4/USBOutDMA.h **** *  in the DMA transfer engine. This can be checked by calling CyDmaGetStatus(). 
 419:Generated_Source\PSoC4/USBOutDMA.h **** *
 420:Generated_Source\PSoC4/USBOutDMA.h **** *******************************************************************************/
 421:Generated_Source\PSoC4/USBOutDMA.h **** static CY_INLINE void USBOutDMA_SetDataElementSize(int32 descriptor, uint32 dataElementSize)
 422:Generated_Source\PSoC4/USBOutDMA.h **** {
 423:Generated_Source\PSoC4/USBOutDMA.h ****     CyDmaSetDataElementSize(USBOutDMA_CHANNEL, descriptor, dataElementSize);
 424:Generated_Source\PSoC4/USBOutDMA.h **** }
 425:Generated_Source\PSoC4/USBOutDMA.h **** 
 426:Generated_Source\PSoC4/USBOutDMA.h **** 
 427:Generated_Source\PSoC4/USBOutDMA.h **** /*******************************************************************************
 428:Generated_Source\PSoC4/USBOutDMA.h **** * Function Name: USBOutDMA_GetDataElementSize
 429:Generated_Source\PSoC4/USBOutDMA.h **** ********************************************************************************
 430:Generated_Source\PSoC4/USBOutDMA.h **** *
 431:Generated_Source\PSoC4/USBOutDMA.h **** * Summary:
 432:Generated_Source\PSoC4/USBOutDMA.h **** *  Returns the data element size configured for the specified descriptor, set by
ARM GAS  C:\Users\Terence\AppData\Local\Temp\ccVkgKCq.s 			page 23


 433:Generated_Source\PSoC4/USBOutDMA.h **** *  USBOutDMA_SetDataElementSize() or USBOutDMA_SetConfiguration().
 434:Generated_Source\PSoC4/USBOutDMA.h **** *
 435:Generated_Source\PSoC4/USBOutDMA.h **** * Parameters:
 436:Generated_Source\PSoC4/USBOutDMA.h **** *  descriptor: Descriptor (0 or 1) modified by this function.
 437:Generated_Source\PSoC4/USBOutDMA.h **** *                   
 438:Generated_Source\PSoC4/USBOutDMA.h **** * Return:
 439:Generated_Source\PSoC4/USBOutDMA.h **** *  The size of the data element. The DMA transfer engine transfers one data
 440:Generated_Source\PSoC4/USBOutDMA.h **** *  element at a time. How these transfers occur is controlled by the transfer
 441:Generated_Source\PSoC4/USBOutDMA.h **** *  mode. Refer to the API bit field definitions in CyDMA_P4.h or the API 
 442:Generated_Source\PSoC4/USBOutDMA.h **** *  description in the DMA channel datasheet for more information.
 443:Generated_Source\PSoC4/USBOutDMA.h **** *
 444:Generated_Source\PSoC4/USBOutDMA.h **** * Note:
 445:Generated_Source\PSoC4/USBOutDMA.h **** *  The size of the source and destination can be configured to use the
 446:Generated_Source\PSoC4/USBOutDMA.h **** *  data element size, or a Word, this is set in USBOutDMA_SetSrcDstTransferWidth().
 447:Generated_Source\PSoC4/USBOutDMA.h **** *
 448:Generated_Source\PSoC4/USBOutDMA.h **** *******************************************************************************/
 449:Generated_Source\PSoC4/USBOutDMA.h **** static CY_INLINE uint32 USBOutDMA_GetDataElementSize(int32 descriptor)
 450:Generated_Source\PSoC4/USBOutDMA.h **** {
 451:Generated_Source\PSoC4/USBOutDMA.h ****     return (CyDmaGetDataElementSize(USBOutDMA_CHANNEL, descriptor));
 452:Generated_Source\PSoC4/USBOutDMA.h **** }
 453:Generated_Source\PSoC4/USBOutDMA.h **** 
 454:Generated_Source\PSoC4/USBOutDMA.h **** 
 455:Generated_Source\PSoC4/USBOutDMA.h **** /*******************************************************************************
 456:Generated_Source\PSoC4/USBOutDMA.h **** * Function Name: USBOutDMA_SetNumDataElements
 457:Generated_Source\PSoC4/USBOutDMA.h **** ********************************************************************************
 458:Generated_Source\PSoC4/USBOutDMA.h **** *
 459:Generated_Source\PSoC4/USBOutDMA.h **** * Summary:
 460:Generated_Source\PSoC4/USBOutDMA.h **** *  Sets the number of data elements to transfer for specified descriptor.
 461:Generated_Source\PSoC4/USBOutDMA.h **** *
 462:Generated_Source\PSoC4/USBOutDMA.h **** * Parameters:
 463:Generated_Source\PSoC4/USBOutDMA.h **** *  descriptor:      Descriptor (0 or 1) modified by this function.
 464:Generated_Source\PSoC4/USBOutDMA.h **** *  numDataElements: Total number of data elements this descriptor transfers.
 465:Generated_Source\PSoC4/USBOutDMA.h **** *                   Valid ranges are 1 to 65536.
 466:Generated_Source\PSoC4/USBOutDMA.h **** *                   
 467:Generated_Source\PSoC4/USBOutDMA.h **** * Return:
 468:Generated_Source\PSoC4/USBOutDMA.h **** *  None.
 469:Generated_Source\PSoC4/USBOutDMA.h **** *
 470:Generated_Source\PSoC4/USBOutDMA.h **** * Side effect:
 471:Generated_Source\PSoC4/USBOutDMA.h **** *  This function should not be called when the specified descriptor is active
 472:Generated_Source\PSoC4/USBOutDMA.h **** *  in the DMA transfer engine. This can be checked by calling CyDmaGetStatus(). 
 473:Generated_Source\PSoC4/USBOutDMA.h **** *
 474:Generated_Source\PSoC4/USBOutDMA.h **** *******************************************************************************/
 475:Generated_Source\PSoC4/USBOutDMA.h **** static CY_INLINE void USBOutDMA_SetNumDataElements(int32 descriptor, int32 numDataElements)
 476:Generated_Source\PSoC4/USBOutDMA.h **** {
 477:Generated_Source\PSoC4/USBOutDMA.h ****     CyDmaSetNumDataElements(USBOutDMA_CHANNEL, descriptor, numDataElements);
 187              		.loc 3 477 0
 188 0050 0220     		mov	r0, #2
 189 0052 0021     		mov	r1, #0
 190 0054 221C     		mov	r2, r4
 191 0056 FFF7FEFF 		bl	CyDmaSetNumDataElements
 192              	.LVL15:
 193              	.LBE75:
 194              	.LBE74:
 157:.\AudioOut.c  **** 			
 158:.\AudioOut.c  **** 			USBOutDMA_SetNumDataElements(0, remain);
 159:.\AudioOut.c  **** 			USBOutDMA_SetDstAddress(0, (void *) (outBuffer + outBufIndex));
 195              		.loc 1 159 0
ARM GAS  C:\Users\Terence\AppData\Local\Temp\ccVkgKCq.s 			page 24


 196 005a 4C4F     		ldr	r7, .L9+4
 197 005c 7A88     		ldrh	r2, [r7, #2]
 198 005e 4C4B     		ldr	r3, .L9+8
 199 0060 9946     		mov	r9, r3
 200 0062 4A44     		add	r2, r2, r9
 201              	.LVL16:
 202              	.LBB76:
 203              	.LBB77:
 372:Generated_Source\PSoC4/USBOutDMA.h **** }
 204              		.loc 3 372 0
 205 0064 0220     		mov	r0, #2
 206 0066 0021     		mov	r1, #0
 207 0068 FFF7FEFF 		bl	CyDmaSetDstAddress
 208              	.LVL17:
 209              	.LBE77:
 210              	.LBE76:
 211              	.LBB78:
 212              	.LBB79:
 326:Generated_Source\PSoC4/USBOutDMA.h **** }
 213              		.loc 3 326 0
 214 006c 494D     		ldr	r5, .L9+12
 215 006e 0220     		mov	r0, #2
 216 0070 0021     		mov	r1, #0
 217 0072 2A1C     		mov	r2, r5
 218 0074 FFF7FEFF 		bl	CyDmaSetSrcAddress
 219              	.LVL18:
 220              	.LBE79:
 221              	.LBE78:
 222              	.LBB80:
 223              	.LBB81:
 478:Generated_Source\PSoC4/USBOutDMA.h **** }
 479:Generated_Source\PSoC4/USBOutDMA.h **** 
 480:Generated_Source\PSoC4/USBOutDMA.h **** 
 481:Generated_Source\PSoC4/USBOutDMA.h **** /*******************************************************************************
 482:Generated_Source\PSoC4/USBOutDMA.h **** * Function Name: USBOutDMA_GetNumDataElements
 483:Generated_Source\PSoC4/USBOutDMA.h **** ********************************************************************************
 484:Generated_Source\PSoC4/USBOutDMA.h **** *
 485:Generated_Source\PSoC4/USBOutDMA.h **** * Summary:
 486:Generated_Source\PSoC4/USBOutDMA.h **** *  Returns the number of data elements to be transferred. Only reflects the
 487:Generated_Source\PSoC4/USBOutDMA.h **** *  value written by USBOutDMA_SetNumDataElements() or USBOutDMA_SetConfiguration().
 488:Generated_Source\PSoC4/USBOutDMA.h **** *  This does not reflect how many elements have been transferred. For that
 489:Generated_Source\PSoC4/USBOutDMA.h **** *  information use the USBOutDMA_GetDescriptorStatus() function.
 490:Generated_Source\PSoC4/USBOutDMA.h **** *
 491:Generated_Source\PSoC4/USBOutDMA.h **** * Parameters:
 492:Generated_Source\PSoC4/USBOutDMA.h **** *  descriptor: Descriptor (0 or 1) modified by this function.
 493:Generated_Source\PSoC4/USBOutDMA.h **** *                   
 494:Generated_Source\PSoC4/USBOutDMA.h **** * Return:
 495:Generated_Source\PSoC4/USBOutDMA.h **** *  Number of data elements to transfer.
 496:Generated_Source\PSoC4/USBOutDMA.h **** *
 497:Generated_Source\PSoC4/USBOutDMA.h **** *******************************************************************************/
 498:Generated_Source\PSoC4/USBOutDMA.h **** static CY_INLINE int32 USBOutDMA_GetNumDataElements(int32 descriptor)
 499:Generated_Source\PSoC4/USBOutDMA.h **** {
 500:Generated_Source\PSoC4/USBOutDMA.h ****     return (CyDmaGetNumDataElements(USBOutDMA_CHANNEL, descriptor));
 501:Generated_Source\PSoC4/USBOutDMA.h **** }
 502:Generated_Source\PSoC4/USBOutDMA.h **** 
 503:Generated_Source\PSoC4/USBOutDMA.h **** 
 504:Generated_Source\PSoC4/USBOutDMA.h **** /*******************************************************************************
ARM GAS  C:\Users\Terence\AppData\Local\Temp\ccVkgKCq.s 			page 25


 505:Generated_Source\PSoC4/USBOutDMA.h **** * Function Name: USBOutDMA_SetSrcDstTransferWidth
 506:Generated_Source\PSoC4/USBOutDMA.h **** ********************************************************************************
 507:Generated_Source\PSoC4/USBOutDMA.h **** *
 508:Generated_Source\PSoC4/USBOutDMA.h **** * Summary:
 509:Generated_Source\PSoC4/USBOutDMA.h **** *  Sets the width of the source and destination. The DMA can either read and
 510:Generated_Source\PSoC4/USBOutDMA.h **** *  write data from the source and destination at the size specified by
 511:Generated_Source\PSoC4/USBOutDMA.h **** *  USBOutDMA_SetDataElementSize() or by a word (4bytes). This also determines how
 512:Generated_Source\PSoC4/USBOutDMA.h **** *  many bytes the addresses are incremented if increment source and destination
 513:Generated_Source\PSoC4/USBOutDMA.h **** *  address are turned on.
 514:Generated_Source\PSoC4/USBOutDMA.h **** *
 515:Generated_Source\PSoC4/USBOutDMA.h **** * Parameters:
 516:Generated_Source\PSoC4/USBOutDMA.h **** *  descriptor:    Descriptor (0 or 1) modified by this function.
 517:Generated_Source\PSoC4/USBOutDMA.h **** *  transferWidth: Specifies the source and destination widths. Refer to the API
 518:Generated_Source\PSoC4/USBOutDMA.h **** *                 bit field definitions in CyDMA_P4.h or the API description in
 519:Generated_Source\PSoC4/USBOutDMA.h **** *                 the DMA channel datasheet for the parameter options.
 520:Generated_Source\PSoC4/USBOutDMA.h **** *                   
 521:Generated_Source\PSoC4/USBOutDMA.h **** * Return:
 522:Generated_Source\PSoC4/USBOutDMA.h **** *  None.
 523:Generated_Source\PSoC4/USBOutDMA.h **** *
 524:Generated_Source\PSoC4/USBOutDMA.h **** * Side effect:
 525:Generated_Source\PSoC4/USBOutDMA.h **** *  This function should not be called when the specified descriptor is active
 526:Generated_Source\PSoC4/USBOutDMA.h **** *  in the DMA transfer engine. This can be checked by calling CyDmaGetStatus(). 
 527:Generated_Source\PSoC4/USBOutDMA.h **** *
 528:Generated_Source\PSoC4/USBOutDMA.h **** *******************************************************************************/
 529:Generated_Source\PSoC4/USBOutDMA.h **** static CY_INLINE void USBOutDMA_SetSrcDstTransferWidth(int32 descriptor, uint32 transferWidth)
 530:Generated_Source\PSoC4/USBOutDMA.h **** {
 531:Generated_Source\PSoC4/USBOutDMA.h ****     CyDmaSetSrcDstTransferWidth(USBOutDMA_CHANNEL, descriptor, transferWidth);
 532:Generated_Source\PSoC4/USBOutDMA.h **** }
 533:Generated_Source\PSoC4/USBOutDMA.h **** 
 534:Generated_Source\PSoC4/USBOutDMA.h **** 
 535:Generated_Source\PSoC4/USBOutDMA.h **** /*******************************************************************************
 536:Generated_Source\PSoC4/USBOutDMA.h **** * Function Name: USBOutDMA_GetSrcDstTransferWidth
 537:Generated_Source\PSoC4/USBOutDMA.h **** ********************************************************************************
 538:Generated_Source\PSoC4/USBOutDMA.h **** *
 539:Generated_Source\PSoC4/USBOutDMA.h **** * Summary:
 540:Generated_Source\PSoC4/USBOutDMA.h **** *  Returns the width of the source and destination, as set by 
 541:Generated_Source\PSoC4/USBOutDMA.h **** *  USBOutDMA_SetSrcDstTransferWidth() or USBOutDMA_SetConfiguration().
 542:Generated_Source\PSoC4/USBOutDMA.h **** *
 543:Generated_Source\PSoC4/USBOutDMA.h **** * Parameters:
 544:Generated_Source\PSoC4/USBOutDMA.h **** *  descriptor: Descriptor (0 or 1) modified by this function.
 545:Generated_Source\PSoC4/USBOutDMA.h **** *                   
 546:Generated_Source\PSoC4/USBOutDMA.h **** * Return:
 547:Generated_Source\PSoC4/USBOutDMA.h **** *  Width of source and destination. Refer to the API bit field definitions in
 548:Generated_Source\PSoC4/USBOutDMA.h **** *  CyDMA_P4.h or the API description in the DMA channel datasheet for more
 549:Generated_Source\PSoC4/USBOutDMA.h **** *  information.
 550:Generated_Source\PSoC4/USBOutDMA.h **** *
 551:Generated_Source\PSoC4/USBOutDMA.h **** *******************************************************************************/
 552:Generated_Source\PSoC4/USBOutDMA.h **** static CY_INLINE uint32 USBOutDMA_GetSrcDstTransferWidth(int32 descriptor)
 553:Generated_Source\PSoC4/USBOutDMA.h **** {
 554:Generated_Source\PSoC4/USBOutDMA.h ****     return (CyDmaGetSrcDstTransferWidth(USBOutDMA_CHANNEL, descriptor));
 555:Generated_Source\PSoC4/USBOutDMA.h **** }
 556:Generated_Source\PSoC4/USBOutDMA.h **** 
 557:Generated_Source\PSoC4/USBOutDMA.h **** 
 558:Generated_Source\PSoC4/USBOutDMA.h **** /*******************************************************************************
 559:Generated_Source\PSoC4/USBOutDMA.h **** * Function Name: USBOutDMA_SetAddressIncrement
 560:Generated_Source\PSoC4/USBOutDMA.h **** ********************************************************************************
 561:Generated_Source\PSoC4/USBOutDMA.h **** *
ARM GAS  C:\Users\Terence\AppData\Local\Temp\ccVkgKCq.s 			page 26


 562:Generated_Source\PSoC4/USBOutDMA.h **** * Summary:
 563:Generated_Source\PSoC4/USBOutDMA.h **** *  Sets whether the source or destination addresses are incremented after the
 564:Generated_Source\PSoC4/USBOutDMA.h **** *  transfer of each data element. The amount that the source and destination
 565:Generated_Source\PSoC4/USBOutDMA.h **** *  address are incremented is determined by the USBOutDMA_SetSrcDstTransferWidth()
 566:Generated_Source\PSoC4/USBOutDMA.h **** *  function. The addresses will either be incremented by the data element size
 567:Generated_Source\PSoC4/USBOutDMA.h **** *  or by a word (4 bytes).
 568:Generated_Source\PSoC4/USBOutDMA.h **** *
 569:Generated_Source\PSoC4/USBOutDMA.h **** * Parameters:
 570:Generated_Source\PSoC4/USBOutDMA.h **** *  descriptor:       Descriptor (0 or 1) modified by this function.
 571:Generated_Source\PSoC4/USBOutDMA.h **** *  addressIncrement: Address increment settings. Refer to the API bit field
 572:Generated_Source\PSoC4/USBOutDMA.h **** *                    definitions in CyDMA_P4.h or the API description in the DMA
 573:Generated_Source\PSoC4/USBOutDMA.h **** *                    channel datasheet for the parameter options.
 574:Generated_Source\PSoC4/USBOutDMA.h **** *    
 575:Generated_Source\PSoC4/USBOutDMA.h **** * Return:
 576:Generated_Source\PSoC4/USBOutDMA.h **** *  None.
 577:Generated_Source\PSoC4/USBOutDMA.h **** *
 578:Generated_Source\PSoC4/USBOutDMA.h **** * Side effect:
 579:Generated_Source\PSoC4/USBOutDMA.h **** *  This function should not be called when the specified descriptor is active
 580:Generated_Source\PSoC4/USBOutDMA.h **** *  in the DMA transfer engine. This can be checked by calling CyDmaGetStatus(). 
 581:Generated_Source\PSoC4/USBOutDMA.h **** *
 582:Generated_Source\PSoC4/USBOutDMA.h **** *******************************************************************************/
 583:Generated_Source\PSoC4/USBOutDMA.h **** static CY_INLINE void USBOutDMA_SetAddressIncrement(int32 descriptor, uint32 addressIncrement)
 584:Generated_Source\PSoC4/USBOutDMA.h **** {
 585:Generated_Source\PSoC4/USBOutDMA.h ****     CyDmaSetAddressIncrement(USBOutDMA_CHANNEL, descriptor, addressIncrement);
 586:Generated_Source\PSoC4/USBOutDMA.h **** }
 587:Generated_Source\PSoC4/USBOutDMA.h **** 
 588:Generated_Source\PSoC4/USBOutDMA.h **** 
 589:Generated_Source\PSoC4/USBOutDMA.h **** /*******************************************************************************
 590:Generated_Source\PSoC4/USBOutDMA.h **** * Function Name: USBOutDMA_GetAddressIncrement
 591:Generated_Source\PSoC4/USBOutDMA.h **** ********************************************************************************
 592:Generated_Source\PSoC4/USBOutDMA.h **** *
 593:Generated_Source\PSoC4/USBOutDMA.h **** * Summary:
 594:Generated_Source\PSoC4/USBOutDMA.h **** *  Returns address increment settings as set by USBOutDMA_SetAddressIncrement()
 595:Generated_Source\PSoC4/USBOutDMA.h **** *  or USBOutDMA_SetConfiguration().
 596:Generated_Source\PSoC4/USBOutDMA.h **** *
 597:Generated_Source\PSoC4/USBOutDMA.h **** * Parameters:
 598:Generated_Source\PSoC4/USBOutDMA.h **** *  descriptor: Descriptor (0 or 1) modified by this function.
 599:Generated_Source\PSoC4/USBOutDMA.h **** *                   
 600:Generated_Source\PSoC4/USBOutDMA.h **** * Return:
 601:Generated_Source\PSoC4/USBOutDMA.h **** *  Address increment settings. Refer to the API bit field definitions in
 602:Generated_Source\PSoC4/USBOutDMA.h **** *  CyDMA_P4.h or the API description in the DMA channel datasheet for more
 603:Generated_Source\PSoC4/USBOutDMA.h **** *  information.
 604:Generated_Source\PSoC4/USBOutDMA.h **** *
 605:Generated_Source\PSoC4/USBOutDMA.h **** *******************************************************************************/
 606:Generated_Source\PSoC4/USBOutDMA.h **** static CY_INLINE uint32 USBOutDMA_GetAddressIncrement(int32 descriptor)
 607:Generated_Source\PSoC4/USBOutDMA.h **** {
 608:Generated_Source\PSoC4/USBOutDMA.h ****     return (CyDmaGetAddressIncrement(USBOutDMA_CHANNEL, descriptor));
 609:Generated_Source\PSoC4/USBOutDMA.h **** }
 610:Generated_Source\PSoC4/USBOutDMA.h **** 
 611:Generated_Source\PSoC4/USBOutDMA.h **** 
 612:Generated_Source\PSoC4/USBOutDMA.h **** /*******************************************************************************
 613:Generated_Source\PSoC4/USBOutDMA.h **** * Function Name: USBOutDMA_SetTriggerType
 614:Generated_Source\PSoC4/USBOutDMA.h **** ********************************************************************************
 615:Generated_Source\PSoC4/USBOutDMA.h **** *
 616:Generated_Source\PSoC4/USBOutDMA.h **** * Summary:
 617:Generated_Source\PSoC4/USBOutDMA.h **** *  Sets the type of input trigger for the DMA For level sensitive triggers sets
 618:Generated_Source\PSoC4/USBOutDMA.h **** *  how long the DMA waits for the trigger to go low (deactivate) before
ARM GAS  C:\Users\Terence\AppData\Local\Temp\ccVkgKCq.s 			page 27


 619:Generated_Source\PSoC4/USBOutDMA.h **** *  triggering the channel again.
 620:Generated_Source\PSoC4/USBOutDMA.h **** *
 621:Generated_Source\PSoC4/USBOutDMA.h **** * Parameters:
 622:Generated_Source\PSoC4/USBOutDMA.h **** *  descriptor:  Descriptor (0 or 1) modified by this function.
 623:Generated_Source\PSoC4/USBOutDMA.h **** *  triggerType: Type of DMA trigger. Refer to the API bit field definitions in
 624:Generated_Source\PSoC4/USBOutDMA.h **** *               CyDMA_P4.h or the API description in the DMA channel datasheet
 625:Generated_Source\PSoC4/USBOutDMA.h **** *               for the parameter options.
 626:Generated_Source\PSoC4/USBOutDMA.h **** *                   
 627:Generated_Source\PSoC4/USBOutDMA.h **** * Return:
 628:Generated_Source\PSoC4/USBOutDMA.h **** *  None.
 629:Generated_Source\PSoC4/USBOutDMA.h **** *
 630:Generated_Source\PSoC4/USBOutDMA.h **** * Side effect:
 631:Generated_Source\PSoC4/USBOutDMA.h **** *  This function should not be called when the specified descriptor is active
 632:Generated_Source\PSoC4/USBOutDMA.h **** *  in the DMA transfer engine. This can be checked by calling CyDmaGetStatus(). 
 633:Generated_Source\PSoC4/USBOutDMA.h **** *
 634:Generated_Source\PSoC4/USBOutDMA.h **** *******************************************************************************/
 635:Generated_Source\PSoC4/USBOutDMA.h **** static CY_INLINE void USBOutDMA_SetTriggerType(int32 descriptor, uint32 triggerType)
 636:Generated_Source\PSoC4/USBOutDMA.h **** {
 637:Generated_Source\PSoC4/USBOutDMA.h ****     CyDmaSetTriggerType(USBOutDMA_CHANNEL, descriptor, triggerType);
 638:Generated_Source\PSoC4/USBOutDMA.h **** }
 639:Generated_Source\PSoC4/USBOutDMA.h **** 
 640:Generated_Source\PSoC4/USBOutDMA.h **** 
 641:Generated_Source\PSoC4/USBOutDMA.h **** /*******************************************************************************
 642:Generated_Source\PSoC4/USBOutDMA.h **** * Function Name: USBOutDMA_GetTriggerType
 643:Generated_Source\PSoC4/USBOutDMA.h **** ********************************************************************************
 644:Generated_Source\PSoC4/USBOutDMA.h **** *
 645:Generated_Source\PSoC4/USBOutDMA.h **** * Summary:
 646:Generated_Source\PSoC4/USBOutDMA.h **** *  Returns the trigger deactivation settings as set by USBOutDMA_SetTriggerType()
 647:Generated_Source\PSoC4/USBOutDMA.h **** *  or USBOutDMA_SetConfiguration().
 648:Generated_Source\PSoC4/USBOutDMA.h **** *
 649:Generated_Source\PSoC4/USBOutDMA.h **** * Parameters:
 650:Generated_Source\PSoC4/USBOutDMA.h **** *  descriptor: Descriptor (0 or 1) modified by this function.
 651:Generated_Source\PSoC4/USBOutDMA.h **** *                   
 652:Generated_Source\PSoC4/USBOutDMA.h **** * Return:
 653:Generated_Source\PSoC4/USBOutDMA.h **** *  Trigger deactivation settings. Refer to the API bit field definitions in
 654:Generated_Source\PSoC4/USBOutDMA.h **** *  CyDMA_P4.h or the API description in the DMA channel datasheet for more
 655:Generated_Source\PSoC4/USBOutDMA.h **** *  information.
 656:Generated_Source\PSoC4/USBOutDMA.h **** *
 657:Generated_Source\PSoC4/USBOutDMA.h **** *******************************************************************************/
 658:Generated_Source\PSoC4/USBOutDMA.h **** static CY_INLINE uint32 USBOutDMA_GetTriggerType(int32 descriptor)
 659:Generated_Source\PSoC4/USBOutDMA.h **** {
 660:Generated_Source\PSoC4/USBOutDMA.h ****     return (CyDmaGetTriggerType(USBOutDMA_CHANNEL, descriptor));
 661:Generated_Source\PSoC4/USBOutDMA.h **** }
 662:Generated_Source\PSoC4/USBOutDMA.h **** 
 663:Generated_Source\PSoC4/USBOutDMA.h **** 
 664:Generated_Source\PSoC4/USBOutDMA.h **** /*******************************************************************************
 665:Generated_Source\PSoC4/USBOutDMA.h **** * Function Name: USBOutDMA_SetTransferMode
 666:Generated_Source\PSoC4/USBOutDMA.h **** ********************************************************************************
 667:Generated_Source\PSoC4/USBOutDMA.h **** *
 668:Generated_Source\PSoC4/USBOutDMA.h **** * Summary:
 669:Generated_Source\PSoC4/USBOutDMA.h **** *  Sets the DMA transfer mode. This determines how the DMA reacts to each trigger
 670:Generated_Source\PSoC4/USBOutDMA.h **** *  event.
 671:Generated_Source\PSoC4/USBOutDMA.h **** *
 672:Generated_Source\PSoC4/USBOutDMA.h **** * Parameters:
 673:Generated_Source\PSoC4/USBOutDMA.h **** *  descriptor:   Descriptor (0 or 1) modified by this function.
 674:Generated_Source\PSoC4/USBOutDMA.h **** *  transferMode: Specifies the DMA transfer mode settings. Refer to the API bit
 675:Generated_Source\PSoC4/USBOutDMA.h **** *                field definitions in CyDMA_P4.h or the API description in the
ARM GAS  C:\Users\Terence\AppData\Local\Temp\ccVkgKCq.s 			page 28


 676:Generated_Source\PSoC4/USBOutDMA.h **** *                DMA channel datasheet for the parameter options.
 677:Generated_Source\PSoC4/USBOutDMA.h **** *                   
 678:Generated_Source\PSoC4/USBOutDMA.h **** * Return:
 679:Generated_Source\PSoC4/USBOutDMA.h **** *  None.
 680:Generated_Source\PSoC4/USBOutDMA.h **** *
 681:Generated_Source\PSoC4/USBOutDMA.h **** * Side effect:
 682:Generated_Source\PSoC4/USBOutDMA.h **** *  This function should not be called when the specified descriptor is active
 683:Generated_Source\PSoC4/USBOutDMA.h **** *  in the DMA transfer engine. This can be checked by calling CyDmaGetStatus(). 
 684:Generated_Source\PSoC4/USBOutDMA.h **** *
 685:Generated_Source\PSoC4/USBOutDMA.h **** *******************************************************************************/
 686:Generated_Source\PSoC4/USBOutDMA.h **** static CY_INLINE void USBOutDMA_SetTransferMode(int32 descriptor, uint32 transferMode)
 687:Generated_Source\PSoC4/USBOutDMA.h **** {
 688:Generated_Source\PSoC4/USBOutDMA.h ****     CyDmaSetTransferMode(USBOutDMA_CHANNEL, descriptor, transferMode);
 689:Generated_Source\PSoC4/USBOutDMA.h **** }
 690:Generated_Source\PSoC4/USBOutDMA.h **** 
 691:Generated_Source\PSoC4/USBOutDMA.h **** 
 692:Generated_Source\PSoC4/USBOutDMA.h **** /*******************************************************************************
 693:Generated_Source\PSoC4/USBOutDMA.h **** * Function Name: USBOutDMA_GetTransferMode
 694:Generated_Source\PSoC4/USBOutDMA.h **** ********************************************************************************
 695:Generated_Source\PSoC4/USBOutDMA.h **** *
 696:Generated_Source\PSoC4/USBOutDMA.h **** * Summary:
 697:Generated_Source\PSoC4/USBOutDMA.h **** *  Returns the transfer mode for the specified descriptor as set by 
 698:Generated_Source\PSoC4/USBOutDMA.h **** *  USBOutDMA_SetTransferMode() or USBOutDMA_SetConfiguration().
 699:Generated_Source\PSoC4/USBOutDMA.h **** *
 700:Generated_Source\PSoC4/USBOutDMA.h **** * Parameters:
 701:Generated_Source\PSoC4/USBOutDMA.h **** *  descriptor: Descriptor (0 or 1) modified by this function.
 702:Generated_Source\PSoC4/USBOutDMA.h **** *                   
 703:Generated_Source\PSoC4/USBOutDMA.h **** * Return:
 704:Generated_Source\PSoC4/USBOutDMA.h **** *  DMA transfer mode settings. Refer to the API bit field definitions in
 705:Generated_Source\PSoC4/USBOutDMA.h **** *  CyDMA_P4.h or the API description in the DMA channel datasheet for more
 706:Generated_Source\PSoC4/USBOutDMA.h **** *  information.
 707:Generated_Source\PSoC4/USBOutDMA.h **** *
 708:Generated_Source\PSoC4/USBOutDMA.h **** *******************************************************************************/
 709:Generated_Source\PSoC4/USBOutDMA.h **** static CY_INLINE uint32 USBOutDMA_GetTransferMode(int32 descriptor)
 710:Generated_Source\PSoC4/USBOutDMA.h **** {
 711:Generated_Source\PSoC4/USBOutDMA.h ****     return (CyDmaGetTransferMode(USBOutDMA_CHANNEL, descriptor));
 712:Generated_Source\PSoC4/USBOutDMA.h **** }
 713:Generated_Source\PSoC4/USBOutDMA.h **** 
 714:Generated_Source\PSoC4/USBOutDMA.h **** 
 715:Generated_Source\PSoC4/USBOutDMA.h **** /*******************************************************************************
 716:Generated_Source\PSoC4/USBOutDMA.h **** * Function Name: USBOutDMA_SetPreemptable
 717:Generated_Source\PSoC4/USBOutDMA.h **** ********************************************************************************
 718:Generated_Source\PSoC4/USBOutDMA.h **** *
 719:Generated_Source\PSoC4/USBOutDMA.h **** * Summary:
 720:Generated_Source\PSoC4/USBOutDMA.h **** *  Determines if the descriptor is preemptable.
 721:Generated_Source\PSoC4/USBOutDMA.h **** *
 722:Generated_Source\PSoC4/USBOutDMA.h **** * Parameters:
 723:Generated_Source\PSoC4/USBOutDMA.h **** *  descriptor:  Descriptor (0 or 1) modified by this function.
 724:Generated_Source\PSoC4/USBOutDMA.h **** *  preemptable: Descriptor preemption settings. Refer to the API bit field
 725:Generated_Source\PSoC4/USBOutDMA.h **** *               definitions in CyDMA_P4.h or the API description in the DMA 
 726:Generated_Source\PSoC4/USBOutDMA.h **** *               channel datasheet for the parameter options.
 727:Generated_Source\PSoC4/USBOutDMA.h **** *                   
 728:Generated_Source\PSoC4/USBOutDMA.h **** * Return:
 729:Generated_Source\PSoC4/USBOutDMA.h **** *  None.
 730:Generated_Source\PSoC4/USBOutDMA.h **** *
 731:Generated_Source\PSoC4/USBOutDMA.h **** * Side effect:
 732:Generated_Source\PSoC4/USBOutDMA.h **** *  This function should not be called when the specified descriptor is active
ARM GAS  C:\Users\Terence\AppData\Local\Temp\ccVkgKCq.s 			page 29


 733:Generated_Source\PSoC4/USBOutDMA.h **** *  in the DMA transfer engine. This can be checked by calling CyDmaGetStatus(). 
 734:Generated_Source\PSoC4/USBOutDMA.h **** *
 735:Generated_Source\PSoC4/USBOutDMA.h **** *******************************************************************************/
 736:Generated_Source\PSoC4/USBOutDMA.h **** static CY_INLINE void USBOutDMA_SetPreemptable(int32 descriptor, uint32 preemptable)
 737:Generated_Source\PSoC4/USBOutDMA.h **** {
 738:Generated_Source\PSoC4/USBOutDMA.h ****     CyDmaSetPreemptable(USBOutDMA_CHANNEL, descriptor, preemptable);
 739:Generated_Source\PSoC4/USBOutDMA.h **** }
 740:Generated_Source\PSoC4/USBOutDMA.h **** 
 741:Generated_Source\PSoC4/USBOutDMA.h **** 
 742:Generated_Source\PSoC4/USBOutDMA.h **** /*******************************************************************************
 743:Generated_Source\PSoC4/USBOutDMA.h **** * Function Name: USBOutDMA_GetPreemptable
 744:Generated_Source\PSoC4/USBOutDMA.h **** ********************************************************************************
 745:Generated_Source\PSoC4/USBOutDMA.h **** *
 746:Generated_Source\PSoC4/USBOutDMA.h **** * Summary:
 747:Generated_Source\PSoC4/USBOutDMA.h **** *  Returns whether or not the descriptor is preemptable.
 748:Generated_Source\PSoC4/USBOutDMA.h **** *
 749:Generated_Source\PSoC4/USBOutDMA.h **** * Parameters:
 750:Generated_Source\PSoC4/USBOutDMA.h **** *  descriptor: Descriptor (0 or 1) modified by this function.
 751:Generated_Source\PSoC4/USBOutDMA.h **** *                   
 752:Generated_Source\PSoC4/USBOutDMA.h **** * Return:
 753:Generated_Source\PSoC4/USBOutDMA.h **** *  Descriptor preemption setting. Refer to the API bit field definitions in
 754:Generated_Source\PSoC4/USBOutDMA.h **** *  CyDMA_P4.h or the API description in the DMA channel datasheet for more
 755:Generated_Source\PSoC4/USBOutDMA.h **** *  information.
 756:Generated_Source\PSoC4/USBOutDMA.h **** *
 757:Generated_Source\PSoC4/USBOutDMA.h **** *******************************************************************************/
 758:Generated_Source\PSoC4/USBOutDMA.h **** static CY_INLINE uint32 USBOutDMA_GetPreemptable(int32 descriptor)
 759:Generated_Source\PSoC4/USBOutDMA.h **** {
 760:Generated_Source\PSoC4/USBOutDMA.h ****     return (CyDmaGetPreemptable(USBOutDMA_CHANNEL, descriptor));
 761:Generated_Source\PSoC4/USBOutDMA.h **** }
 762:Generated_Source\PSoC4/USBOutDMA.h **** 
 763:Generated_Source\PSoC4/USBOutDMA.h **** 
 764:Generated_Source\PSoC4/USBOutDMA.h **** /*******************************************************************************
 765:Generated_Source\PSoC4/USBOutDMA.h **** * Function Name: USBOutDMA_SetPostCompletionActions
 766:Generated_Source\PSoC4/USBOutDMA.h **** ********************************************************************************
 767:Generated_Source\PSoC4/USBOutDMA.h **** *
 768:Generated_Source\PSoC4/USBOutDMA.h **** * Summary:
 769:Generated_Source\PSoC4/USBOutDMA.h **** *  Determines what occurs after a descriptor completes.
 770:Generated_Source\PSoC4/USBOutDMA.h **** *
 771:Generated_Source\PSoC4/USBOutDMA.h **** * Parameters:
 772:Generated_Source\PSoC4/USBOutDMA.h **** *  descriptor: Descriptor (0 or 1) modified by this function.
 773:Generated_Source\PSoC4/USBOutDMA.h **** *  actions:    Specifies descriptor post completion actions. Refer to the API
 774:Generated_Source\PSoC4/USBOutDMA.h **** *              bit field definitions in CyDMA_P4.h or the API description in the
 775:Generated_Source\PSoC4/USBOutDMA.h **** *              DMA channel datasheet for the parameter options.
 776:Generated_Source\PSoC4/USBOutDMA.h **** *                   
 777:Generated_Source\PSoC4/USBOutDMA.h **** * Return:
 778:Generated_Source\PSoC4/USBOutDMA.h **** *  None.  
 779:Generated_Source\PSoC4/USBOutDMA.h **** *
 780:Generated_Source\PSoC4/USBOutDMA.h **** * Side effect:
 781:Generated_Source\PSoC4/USBOutDMA.h **** *  This function should not be called when the specified descriptor is active
 782:Generated_Source\PSoC4/USBOutDMA.h **** *  in the DMA transfer engine. This can be checked by calling CyDmaGetStatus(). 
 783:Generated_Source\PSoC4/USBOutDMA.h **** *
 784:Generated_Source\PSoC4/USBOutDMA.h **** *******************************************************************************/
 785:Generated_Source\PSoC4/USBOutDMA.h **** static CY_INLINE void USBOutDMA_SetPostCompletionActions(int32 descriptor, uint32 actions)
 786:Generated_Source\PSoC4/USBOutDMA.h **** {
 787:Generated_Source\PSoC4/USBOutDMA.h ****     CyDmaSetPostCompletionActions(USBOutDMA_CHANNEL, descriptor, actions);
 224              		.loc 3 787 0
 225 0078 0220     		mov	r0, #2
ARM GAS  C:\Users\Terence\AppData\Local\Temp\ccVkgKCq.s 			page 30


 226 007a 0021     		mov	r1, #0
 227 007c 9022     		mov	r2, #144
 228 007e 9205     		lsl	r2, r2, #22
 229 0080 FFF7FEFF 		bl	CyDmaSetPostCompletionActions
 230              	.LVL19:
 231              	.LBE81:
 232              	.LBE80:
 233              	.LBB82:
 234              	.LBB83:
 688:Generated_Source\PSoC4/USBOutDMA.h **** }
 235              		.loc 3 688 0
 236 0084 0220     		mov	r0, #2
 237 0086 0021     		mov	r1, #0
 238 0088 8022     		mov	r2, #128
 239 008a 1206     		lsl	r2, r2, #24
 240 008c FFF7FEFF 		bl	CyDmaSetTransferMode
 241              	.LVL20:
 242              	.LBE83:
 243              	.LBE82:
 160:.\AudioOut.c  **** 			USBOutDMA_SetSrcAddress(0, (void *) (outRam));						
 161:.\AudioOut.c  **** 			USBOutDMA_SetPostCompletionActions(0, CYDMA_CHAIN | CYDMA_INVALIDATE);
 162:.\AudioOut.c  **** 			USBOutDMA_SetTransferMode(0,CYDMA_ENTIRE_DESCRIPTOR_CHAIN);			
 163:.\AudioOut.c  **** 			
 164:.\AudioOut.c  **** 			USBOutDMA_SetNumDataElements(1, count - remain);
 244              		.loc 1 164 0
 245 0090 321B     		sub	r2, r6, r4
 246              	.LVL21:
 247              	.LBB84:
 248              	.LBB85:
 477:Generated_Source\PSoC4/USBOutDMA.h **** }
 249              		.loc 3 477 0
 250 0092 0220     		mov	r0, #2
 251 0094 0121     		mov	r1, #1
 252 0096 FFF7FEFF 		bl	CyDmaSetNumDataElements
 253              	.LVL22:
 254              	.LBE85:
 255              	.LBE84:
 256              	.LBB86:
 257              	.LBB87:
 372:Generated_Source\PSoC4/USBOutDMA.h **** }
 258              		.loc 3 372 0
 259 009a 0220     		mov	r0, #2
 260 009c 0121     		mov	r1, #1
 261 009e 4A46     		mov	r2, r9
 262 00a0 FFF7FEFF 		bl	CyDmaSetDstAddress
 263              	.LVL23:
 264              	.LBE87:
 265              	.LBE86:
 165:.\AudioOut.c  **** 			USBOutDMA_SetDstAddress(1, (void *) (outBuffer));
 166:.\AudioOut.c  **** 			USBOutDMA_SetSrcAddress(1, (void *) (outRam + remain));			
 266              		.loc 1 166 0
 267 00a4 6219     		add	r2, r4, r5
 268              	.LVL24:
 269              	.LBB88:
 270              	.LBB89:
 326:Generated_Source\PSoC4/USBOutDMA.h **** }
 271              		.loc 3 326 0
ARM GAS  C:\Users\Terence\AppData\Local\Temp\ccVkgKCq.s 			page 31


 272 00a6 0220     		mov	r0, #2
 273 00a8 0121     		mov	r1, #1
 274 00aa FFF7FEFF 		bl	CyDmaSetSrcAddress
 275              	.LVL25:
 276              	.LBE89:
 277              	.LBE88:
 278              	.LBB90:
 279              	.LBB91:
 280              		.loc 3 787 0
 281 00ae 0220     		mov	r0, #2
 282 00b0 0121     		mov	r1, #1
 283 00b2 9022     		mov	r2, #144
 284 00b4 9205     		lsl	r2, r2, #22
 285 00b6 FFF7FEFF 		bl	CyDmaSetPostCompletionActions
 286              	.LVL26:
 287              	.LBE91:
 288              	.LBE90:
 289              	.LBB92:
 290              	.LBB93:
 688:Generated_Source\PSoC4/USBOutDMA.h **** }
 291              		.loc 3 688 0
 292 00ba 0220     		mov	r0, #2
 293 00bc 0121     		mov	r1, #1
 294 00be 8022     		mov	r2, #128
 295 00c0 D205     		lsl	r2, r2, #23
 296 00c2 FFF7FEFF 		bl	CyDmaSetTransferMode
 297              	.LVL27:
 298              	.LBE93:
 299              	.LBE92:
 300              	.LBB94:
 301              	.LBB95:
 205:Generated_Source\PSoC4/USBOutDMA.h **** }
 302              		.loc 3 205 0
 303 00c6 0220     		mov	r0, #2
 304 00c8 0021     		mov	r1, #0
 305 00ca FFF7FEFF 		bl	CyDmaSetNextDescriptor
 306              	.LVL28:
 307              	.LBE95:
 308              	.LBE94:
 309              	.LBB96:
 310              	.LBB97:
 279:Generated_Source\PSoC4/USBOutDMA.h **** }
 311              		.loc 3 279 0
 312 00ce 0220     		mov	r0, #2
 313 00d0 0021     		mov	r1, #0
 314 00d2 FFF7FEFF 		bl	CyDmaValidateDescriptor
 315              	.LVL29:
 316              	.LBE97:
 317              	.LBE96:
 318              	.LBB98:
 319              	.LBB99:
 320 00d6 0220     		mov	r0, #2
 321 00d8 0121     		mov	r1, #1
 322 00da FFF7FEFF 		bl	CyDmaValidateDescriptor
 323              	.LVL30:
 324              	.LBE99:
 325              	.LBE98:
ARM GAS  C:\Users\Terence\AppData\Local\Temp\ccVkgKCq.s 			page 32


 167:.\AudioOut.c  **** 			USBOutDMA_SetPostCompletionActions(1, CYDMA_CHAIN | CYDMA_INVALIDATE);
 168:.\AudioOut.c  **** 			USBOutDMA_SetTransferMode(1, CYDMA_ENTIRE_DESCRIPTOR);
 169:.\AudioOut.c  **** 			
 170:.\AudioOut.c  **** 			USBOutDMA_SetNextDescriptor(0);	
 171:.\AudioOut.c  **** 			
 172:.\AudioOut.c  **** 			/* Validate descriptors */
 173:.\AudioOut.c  ****             USBOutDMA_ValidateDescriptor(0);
 174:.\AudioOut.c  ****             USBOutDMA_ValidateDescriptor(1); 
 175:.\AudioOut.c  ****                         
 176:.\AudioOut.c  ****             outBufIndex = count-remain;
 326              		.loc 1 176 0
 327 00de 341B     		sub	r4, r6, r4
 328              	.LVL31:
 329 00e0 7C80     		strh	r4, [r7, #2]
 330 00e2 30E0     		b	.L8
 331              	.LVL32:
 332              	.L7:
 333              	.LBB100:
 334              	.LBB101:
 477:Generated_Source\PSoC4/USBOutDMA.h **** }
 335              		.loc 3 477 0
 336 00e4 0220     		mov	r0, #2
 337 00e6 0021     		mov	r1, #0
 338 00e8 321C     		mov	r2, r6
 339 00ea FFF7FEFF 		bl	CyDmaSetNumDataElements
 340              	.LVL33:
 341              	.LBE101:
 342              	.LBE100:
 177:.\AudioOut.c  ****         }
 178:.\AudioOut.c  ****         else 
 179:.\AudioOut.c  ****         {
 180:.\AudioOut.c  ****             /* Single contiguous TD */
 181:.\AudioOut.c  **** 			USBOutDMA_SetNumDataElements(0, count);
 182:.\AudioOut.c  **** 			USBOutDMA_SetDstAddress(0, (void *) (outBuffer + outBufIndex));
 343              		.loc 1 182 0
 344 00ee 274D     		ldr	r5, .L9+4
 345 00f0 6A88     		ldrh	r2, [r5, #2]
 346 00f2 274B     		ldr	r3, .L9+8
 347 00f4 D218     		add	r2, r2, r3
 348              	.LVL34:
 349              	.LBB102:
 350              	.LBB103:
 372:Generated_Source\PSoC4/USBOutDMA.h **** }
 351              		.loc 3 372 0
 352 00f6 0220     		mov	r0, #2
 353 00f8 0021     		mov	r1, #0
 354 00fa FFF7FEFF 		bl	CyDmaSetDstAddress
 355              	.LVL35:
 356              	.LBE103:
 357              	.LBE102:
 358              	.LBB104:
 359              	.LBB105:
 326:Generated_Source\PSoC4/USBOutDMA.h **** }
 360              		.loc 3 326 0
 361 00fe 0220     		mov	r0, #2
 362 0100 0021     		mov	r1, #0
 363 0102 244A     		ldr	r2, .L9+12
ARM GAS  C:\Users\Terence\AppData\Local\Temp\ccVkgKCq.s 			page 33


 364 0104 FFF7FEFF 		bl	CyDmaSetSrcAddress
 365              	.LVL36:
 366              	.LBE105:
 367              	.LBE104:
 368              	.LBB106:
 369              	.LBB107:
 370              		.loc 3 787 0
 371 0108 0220     		mov	r0, #2
 372 010a 0021     		mov	r1, #0
 373 010c 8022     		mov	r2, #128
 374 010e D204     		lsl	r2, r2, #19
 375 0110 FFF7FEFF 		bl	CyDmaSetPostCompletionActions
 376              	.LVL37:
 377              	.LBE107:
 378              	.LBE106:
 379              	.LBB108:
 380              	.LBB109:
 688:Generated_Source\PSoC4/USBOutDMA.h **** }
 381              		.loc 3 688 0
 382 0114 0220     		mov	r0, #2
 383 0116 0021     		mov	r1, #0
 384 0118 8022     		mov	r2, #128
 385 011a D205     		lsl	r2, r2, #23
 386 011c FFF7FEFF 		bl	CyDmaSetTransferMode
 387              	.LVL38:
 388              	.LBE109:
 389              	.LBE108:
 390              	.LBB110:
 391              	.LBB111:
 205:Generated_Source\PSoC4/USBOutDMA.h **** }
 392              		.loc 3 205 0
 393 0120 0220     		mov	r0, #2
 394 0122 0021     		mov	r1, #0
 395 0124 FFF7FEFF 		bl	CyDmaSetNextDescriptor
 396              	.LVL39:
 397              	.LBE111:
 398              	.LBE110:
 399              	.LBB112:
 400              	.LBB113:
 279:Generated_Source\PSoC4/USBOutDMA.h **** }
 401              		.loc 3 279 0
 402 0128 0220     		mov	r0, #2
 403 012a 0021     		mov	r1, #0
 404 012c FFF7FEFF 		bl	CyDmaValidateDescriptor
 405              	.LVL40:
 406              	.LBE113:
 407              	.LBE112:
 183:.\AudioOut.c  **** 			USBOutDMA_SetSrcAddress(0, (void *) (outRam));						
 184:.\AudioOut.c  **** 			USBOutDMA_SetPostCompletionActions(0, CYDMA_INVALIDATE);
 185:.\AudioOut.c  **** 			USBOutDMA_SetTransferMode(0,CYDMA_ENTIRE_DESCRIPTOR);
 186:.\AudioOut.c  **** 			
 187:.\AudioOut.c  **** 			USBOutDMA_SetNextDescriptor(0);	
 188:.\AudioOut.c  **** 			
 189:.\AudioOut.c  **** 			USBOutDMA_ValidateDescriptor(0);
 190:.\AudioOut.c  **** 			           
 191:.\AudioOut.c  ****             outBufIndex += count;
 408              		.loc 1 191 0
ARM GAS  C:\Users\Terence\AppData\Local\Temp\ccVkgKCq.s 			page 34


 409 0130 6B88     		ldrh	r3, [r5, #2]
 410 0132 F418     		add	r4, r6, r3
 411 0134 A4B2     		uxth	r4, r4
 412 0136 6C80     		strh	r4, [r5, #2]
 192:.\AudioOut.c  ****             if (outBufIndex == sizeof(outBuffer)) 
 413              		.loc 1 192 0
 414 0138 9023     		mov	r3, #144
 415 013a DB00     		lsl	r3, r3, #3
 416 013c 9C42     		cmp	r4, r3
 417 013e 02D1     		bne	.L8
 193:.\AudioOut.c  **** 			{
 194:.\AudioOut.c  **** 				outBufIndex = 0;
 418              		.loc 1 194 0
 419 0140 0022     		mov	r2, #0
 420 0142 124B     		ldr	r3, .L9+4
 421 0144 5A80     		strh	r2, [r3, #2]
 422              	.LVL41:
 423              	.L8:
 424              	.LBB114:
 425              	.LBB115:
  96:Generated_Source\PSoC4/USBOutDMA.h **** }
 426              		.loc 3 96 0
 427 0146 0220     		mov	r0, #2
 428 0148 FFF7FEFF 		bl	CyDmaChEnable
 429              	.LVL42:
 430              	.LBE115:
 431              	.LBE114:
 432              	.LBB116:
 433              	.LBB117:
 140:Generated_Source\PSoC4/USBOutDMA.h **** }
 434              		.loc 3 140 0
 435 014c 0220     		mov	r0, #2
 436 014e FFF7FEFF 		bl	CyDmaTrigger
 437              	.LVL43:
 438              	.LBE117:
 439              	.LBE116:
 195:.\AudioOut.c  **** 			}
 196:.\AudioOut.c  ****         }
 197:.\AudioOut.c  ****         
 198:.\AudioOut.c  ****         /* Enable the USB Out DMA, don't update the TD as it progresses */
 199:.\AudioOut.c  **** 		USBOutDMA_ChEnable();
 200:.\AudioOut.c  ****         USBOutDMA_Trigger();                
 201:.\AudioOut.c  ****     
 202:.\AudioOut.c  ****         /* Start playing audio only when transmit buffer is more than half full */
 203:.\AudioOut.c  ****         if((!outPlaying) && (outUsbCount >= OUT_HALF))
 440              		.loc 1 203 0
 441 0152 0E4B     		ldr	r3, .L9+4
 442 0154 9B79     		ldrb	r3, [r3, #6]
 443 0156 002B     		cmp	r3, #0
 444 0158 13D1     		bne	.L4
 445              		.loc 1 203 0 is_stmt 0 discriminator 1
 446 015a 0C4B     		ldr	r3, .L9+4
 447 015c 9A88     		ldrh	r2, [r3, #4]
 448 015e 0E4B     		ldr	r3, .L9+16
 449 0160 9A42     		cmp	r2, r3
 450 0162 0ED9     		bls	.L4
 204:.\AudioOut.c  ****         {
ARM GAS  C:\Users\Terence\AppData\Local\Temp\ccVkgKCq.s 			page 35


 205:.\AudioOut.c  ****             outPlaying = TRUE;
 451              		.loc 1 205 0 is_stmt 1
 452 0164 0122     		mov	r2, #1
 453 0166 094B     		ldr	r3, .L9+4
 454 0168 9A71     		strb	r2, [r3, #6]
 206:.\AudioOut.c  ****             
 207:.\AudioOut.c  ****             I2S_ClearTxFIFO(); /* Clear the I2S internal FIFO */              
 455              		.loc 1 207 0
 456 016a FFF7FEFF 		bl	I2S_ClearTxFIFO
 457              	.LVL44:
 208:.\AudioOut.c  ****             
 209:.\AudioOut.c  ****             /* Enable power to speaker output */
 210:.\AudioOut.c  ****             Codec_PowerOnControl(CODEC_POWER_CTRL_OUTPD);
 458              		.loc 1 210 0
 459 016e 1020     		mov	r0, #16
 460 0170 FFF7FEFF 		bl	Codec_PowerOnControl
 461              	.LVL45:
 462              	.LBB118:
 463              	.LBB119:
  96:Generated_Source\PSoC4/TxDMA.h **** }
 464              		.loc 2 96 0
 465 0174 0020     		mov	r0, #0
 466 0176 FFF7FEFF 		bl	CyDmaChEnable
 467              	.LVL46:
 468              	.LBE119:
 469              	.LBE118:
 211:.\AudioOut.c  ****             
 212:.\AudioOut.c  **** 			TxDMA_ChEnable();            
 213:.\AudioOut.c  ****             
 214:.\AudioOut.c  ****             /* Restart Byte Counter */
 215:.\AudioOut.c  ****             ByteCounter_Tx_Enable();            
 470              		.loc 1 215 0
 471 017a FFF7FEFF 		bl	ByteCounter_Tx_Enable
 472              	.LVL47:
 216:.\AudioOut.c  ****             
 217:.\AudioOut.c  ****             I2S_EnableTx(); /* Unmute the TX output */           
 473              		.loc 1 217 0
 474 017e FFF7FEFF 		bl	I2S_EnableTx
 475              	.LVL48:
 476              	.L4:
 218:.\AudioOut.c  ****         }
 219:.\AudioOut.c  ****     }	
 220:.\AudioOut.c  **** }
 477              		.loc 1 220 0
 478              		@ sp needed
 479 0182 04BC     		pop	{r2}
 480 0184 9146     		mov	r9, r2
 481 0186 F0BD     		pop	{r4, r5, r6, r7, pc}
 482              	.L10:
 483              		.align	2
 484              	.L9:
 485 0188 00000000 		.word	audioClkConfigured
 486 018c 00000000 		.word	.LANCHOR0
 487 0190 00000000 		.word	outBuffer
 488 0194 00000000 		.word	outRam
 489 0198 3F020000 		.word	575
 490              		.cfi_endproc
ARM GAS  C:\Users\Terence\AppData\Local\Temp\ccVkgKCq.s 			page 36


 491              	.LFE326:
 492              		.size	ProcessAudioOut, .-ProcessAudioOut
 493              		.section	.text.Stop_I2S_Tx,"ax",%progbits
 494              		.align	2
 495              		.global	Stop_I2S_Tx
 496              		.code	16
 497              		.thumb_func
 498              		.type	Stop_I2S_Tx, %function
 499              	Stop_I2S_Tx:
 500              	.LFB327:
 221:.\AudioOut.c  **** 
 222:.\AudioOut.c  **** 
 223:.\AudioOut.c  **** /*******************************************************************************
 224:.\AudioOut.c  **** * Function Name: Stop_I2S_Tx
 225:.\AudioOut.c  **** ********************************************************************************
 226:.\AudioOut.c  **** * Summary:
 227:.\AudioOut.c  **** *        This function stops the I2S data transmission by disabling the I2S and 
 228:.\AudioOut.c  **** *        transmit DMA.
 229:.\AudioOut.c  **** *
 230:.\AudioOut.c  **** * Parameters:
 231:.\AudioOut.c  **** *  void
 232:.\AudioOut.c  **** *
 233:.\AudioOut.c  **** * Return:
 234:.\AudioOut.c  **** *  void
 235:.\AudioOut.c  **** *
 236:.\AudioOut.c  **** *******************************************************************************/
 237:.\AudioOut.c  **** void Stop_I2S_Tx(void) CYREENTRANT
 238:.\AudioOut.c  **** {
 501              		.loc 1 238 0
 502              		.cfi_startproc
 503 0000 08B5     		push	{r3, lr}
 504              		.cfi_def_cfa_offset 8
 505              		.cfi_offset 3, -8
 506              		.cfi_offset 14, -4
 239:.\AudioOut.c  ****     if(outPlaying)
 507              		.loc 1 239 0
 508 0002 0F4B     		ldr	r3, .L13
 509 0004 9B79     		ldrb	r3, [r3, #6]
 510 0006 002B     		cmp	r3, #0
 511 0008 18D0     		beq	.L11
 240:.\AudioOut.c  ****     {       
 241:.\AudioOut.c  ****         ByteCounter_Tx_Stop();
 512              		.loc 1 241 0
 513 000a FFF7FEFF 		bl	ByteCounter_Tx_Stop
 514              	.LVL49:
 242:.\AudioOut.c  **** 		        
 243:.\AudioOut.c  ****         I2S_DisableTx();     /* Stop I2S Transmit (Mute), I2S output clocks still active */
 515              		.loc 1 243 0
 516 000e FFF7FEFF 		bl	I2S_DisableTx
 517              	.LVL50:
 244:.\AudioOut.c  ****         
 245:.\AudioOut.c  ****         CyDelayUs(20); /* Provide enough time for DMA to transfer the last audio samples completely
 518              		.loc 1 245 0
 519 0012 1420     		mov	r0, #20
 520 0014 FFF7FEFF 		bl	CyDelayUs
 521              	.LVL51:
 522              	.LBB120:
ARM GAS  C:\Users\Terence\AppData\Local\Temp\ccVkgKCq.s 			page 37


 523              	.LBB121:
 119:Generated_Source\PSoC4/TxDMA.h **** }
 524              		.loc 2 119 0
 525 0018 0020     		mov	r0, #0
 526 001a FFF7FEFF 		bl	CyDmaChDisable
 527              	.LVL52:
 528              	.LBE121:
 529              	.LBE120:
 246:.\AudioOut.c  ****    
 247:.\AudioOut.c  ****         /* Stop / Disable DMA - Needed to reset to start of chain */
 248:.\AudioOut.c  ****         TxDMA_ChDisable();
 249:.\AudioOut.c  **** 		
 250:.\AudioOut.c  **** 		/* Make DMA transaction count zero */ 
 251:.\AudioOut.c  ****         CYDMA_DESCR_BASE.descriptor[TxDMA_CHANNEL][0].status &= 0xFFFF0000;
 530              		.loc 1 251 0
 531 001e 094A     		ldr	r2, .L13+4
 532 0020 D368     		ldr	r3, [r2, #12]
 533 0022 1B0C     		lsr	r3, r3, #16
 534 0024 1B04     		lsl	r3, r3, #16
 535 0026 D360     		str	r3, [r2, #12]
 252:.\AudioOut.c  **** 		
 253:.\AudioOut.c  ****         /* Disable power to speaker output */
 254:.\AudioOut.c  ****         Codec_PowerOffControl(CODEC_POWER_CTRL_OUTPD);
 536              		.loc 1 254 0
 537 0028 1020     		mov	r0, #16
 538 002a FFF7FEFF 		bl	Codec_PowerOffControl
 539              	.LVL53:
 255:.\AudioOut.c  ****         
 256:.\AudioOut.c  ****         resetTx = 1;
 540              		.loc 1 256 0
 541 002e 044B     		ldr	r3, .L13
 542 0030 0122     		mov	r2, #1
 543 0032 1A70     		strb	r2, [r3]
 257:.\AudioOut.c  ****         outLevel = 0;
 544              		.loc 1 257 0
 545 0034 0022     		mov	r2, #0
 546 0036 1A81     		strh	r2, [r3, #8]
 258:.\AudioOut.c  ****         outUsbShadow = 0;
 547              		.loc 1 258 0
 548 0038 5A81     		strh	r2, [r3, #10]
 259:.\AudioOut.c  ****         outPlaying = 0;
 549              		.loc 1 259 0
 550 003a 9A71     		strb	r2, [r3, #6]
 551              	.L11:
 260:.\AudioOut.c  ****     }    
 261:.\AudioOut.c  **** }
 552              		.loc 1 261 0
 553              		@ sp needed
 554 003c 08BD     		pop	{r3, pc}
 555              	.L14:
 556 003e C046     		.align	2
 557              	.L13:
 558 0040 00000000 		.word	.LANCHOR0
 559 0044 00181040 		.word	1074796544
 560              		.cfi_endproc
 561              	.LFE327:
 562              		.size	Stop_I2S_Tx, .-Stop_I2S_Tx
ARM GAS  C:\Users\Terence\AppData\Local\Temp\ccVkgKCq.s 			page 38


 563              		.global	outBufIndex
 564              		.comm	outBuffer,1152,4
 565              		.global	outUsbShadow
 566              		.global	outUsbCount
 567              		.global	outLevel
 568              		.global	outPlaying
 569              		.global	resetTx
 570              		.bss
 571              		.align	1
 572              		.set	.LANCHOR0,. + 0
 573              		.type	resetTx, %object
 574              		.size	resetTx, 1
 575              	resetTx:
 576 0000 00       		.space	1
 577 0001 00       		.space	1
 578              		.type	outBufIndex, %object
 579              		.size	outBufIndex, 2
 580              	outBufIndex:
 581 0002 0000     		.space	2
 582              		.type	outUsbCount, %object
 583              		.size	outUsbCount, 2
 584              	outUsbCount:
 585 0004 0000     		.space	2
 586              		.type	outPlaying, %object
 587              		.size	outPlaying, 1
 588              	outPlaying:
 589 0006 00       		.space	1
 590 0007 00       		.space	1
 591              		.type	outLevel, %object
 592              		.size	outLevel, 2
 593              	outLevel:
 594 0008 0000     		.space	2
 595              		.type	outUsbShadow, %object
 596              		.size	outUsbShadow, 2
 597              	outUsbShadow:
 598 000a 0000     		.space	2
 599              		.text
 600              	.Letext0:
 601              		.file 4 "Generated_Source\\PSoC4/cytypes.h"
 602              		.file 5 "Generated_Source\\PSoC4/CyDMA.h"
 603              		.file 6 "Generated_Source\\PSoC4/ByteCounter_Tx.h"
 604              		.file 7 "Generated_Source\\PSoC4/isr_TxDMADone.h"
 605              		.file 8 "Generated_Source\\PSoC4/I2S.h"
 606              		.file 9 "Generated_Source\\PSoC4/USBFS.h"
 607              		.file 10 "./Codec.h"
 608              		.file 11 "Generated_Source\\PSoC4/CyLib.h"