ARM GAS  C:\Users\Terence\AppData\Local\Temp\cc6R4aDx.s 			page 1


   1              		.cpu cortex-m0
   2              		.fpu softvfp
   3              		.eabi_attribute 20, 1
   4              		.eabi_attribute 21, 1
   5              		.eabi_attribute 23, 3
   6              		.eabi_attribute 24, 1
   7              		.eabi_attribute 25, 1
   8              		.eabi_attribute 26, 1
   9              		.eabi_attribute 30, 1
  10              		.eabi_attribute 34, 0
  11              		.eabi_attribute 18, 4
  12              		.code	16
  13              		.file	"CapSense_CSHL.c"
  14              		.text
  15              	.Ltext0:
  16              		.cfi_sections	.debug_frame
  17              		.section	.text.CapSense_BaseInit,"ax",%progbits
  18              		.align	2
  19              		.global	CapSense_BaseInit
  20              		.code	16
  21              		.thumb_func
  22              		.type	CapSense_BaseInit, %function
  23              	CapSense_BaseInit:
  24              	.LFB36:
  25              		.file 1 ".\\Generated_Source\\PSoC4\\CapSense_CSHL.c"
   1:.\Generated_Source\PSoC4/CapSense_CSHL.c **** /*******************************************************************************
   2:.\Generated_Source\PSoC4/CapSense_CSHL.c **** * File Name: CapSense_CSHL.c
   3:.\Generated_Source\PSoC4/CapSense_CSHL.c **** * Version 2.30
   4:.\Generated_Source\PSoC4/CapSense_CSHL.c **** *
   5:.\Generated_Source\PSoC4/CapSense_CSHL.c **** * Description:
   6:.\Generated_Source\PSoC4/CapSense_CSHL.c **** *  This file provides the source code to the High Level APIs for the CapSesne
   7:.\Generated_Source\PSoC4/CapSense_CSHL.c **** *  CSD component.
   8:.\Generated_Source\PSoC4/CapSense_CSHL.c **** *
   9:.\Generated_Source\PSoC4/CapSense_CSHL.c **** * Note:
  10:.\Generated_Source\PSoC4/CapSense_CSHL.c **** *
  11:.\Generated_Source\PSoC4/CapSense_CSHL.c **** ********************************************************************************
  12:.\Generated_Source\PSoC4/CapSense_CSHL.c **** * Copyright 2013-2015, Cypress Semiconductor Corporation.  All rights reserved.
  13:.\Generated_Source\PSoC4/CapSense_CSHL.c **** * You may use this file only in accordance with the license, terms, conditions,
  14:.\Generated_Source\PSoC4/CapSense_CSHL.c **** * disclaimers, and limitations in the end user license agreement accompanying
  15:.\Generated_Source\PSoC4/CapSense_CSHL.c **** * the software package with which this file was provided.
  16:.\Generated_Source\PSoC4/CapSense_CSHL.c **** *******************************************************************************/
  17:.\Generated_Source\PSoC4/CapSense_CSHL.c **** 
  18:.\Generated_Source\PSoC4/CapSense_CSHL.c **** #include "CapSense_CSHL.h"
  19:.\Generated_Source\PSoC4/CapSense_CSHL.c **** #include "CapSense_PVT.h"
  20:.\Generated_Source\PSoC4/CapSense_CSHL.c **** 
  21:.\Generated_Source\PSoC4/CapSense_CSHL.c **** /* SmartSense functions */
  22:.\Generated_Source\PSoC4/CapSense_CSHL.c **** #if (CapSense_TUNING_METHOD == CapSense__TUNING_AUTO)
  23:.\Generated_Source\PSoC4/CapSense_CSHL.c ****     extern void CapSense_UpdateThresholds(uint32 sensor);
  24:.\Generated_Source\PSoC4/CapSense_CSHL.c **** #endif /* (CapSense_TUNING_METHOD == CapSense__TUNING_AUTO) */
  25:.\Generated_Source\PSoC4/CapSense_CSHL.c **** 
  26:.\Generated_Source\PSoC4/CapSense_CSHL.c **** /* Storage of filters data */
  27:.\Generated_Source\PSoC4/CapSense_CSHL.c **** #if ( (0u != (CapSense_RAW_FILTER_MASK & CapSense_MEDIAN_FILTER)) || \
  28:.\Generated_Source\PSoC4/CapSense_CSHL.c ****       (0u != (CapSense_RAW_FILTER_MASK & CapSense_AVERAGING_FILTER)) )
  29:.\Generated_Source\PSoC4/CapSense_CSHL.c **** 
  30:.\Generated_Source\PSoC4/CapSense_CSHL.c ****     uint16 CapSense_rawFilterData1[CapSense_TOTAL_SENSOR_COUNT];
  31:.\Generated_Source\PSoC4/CapSense_CSHL.c ****     uint16 CapSense_rawFilterData2[CapSense_TOTAL_SENSOR_COUNT];
  32:.\Generated_Source\PSoC4/CapSense_CSHL.c **** 
ARM GAS  C:\Users\Terence\AppData\Local\Temp\cc6R4aDx.s 			page 2


  33:.\Generated_Source\PSoC4/CapSense_CSHL.c **** #elif ( (0u != (CapSense_RAW_FILTER_MASK & CapSense_IIR2_FILTER))   || \
  34:.\Generated_Source\PSoC4/CapSense_CSHL.c ****         (0u != (CapSense_RAW_FILTER_MASK & CapSense_IIR4_FILTER))   || \
  35:.\Generated_Source\PSoC4/CapSense_CSHL.c ****         (0u != (CapSense_RAW_FILTER_MASK & CapSense_JITTER_FILTER)) || \
  36:.\Generated_Source\PSoC4/CapSense_CSHL.c ****         (0u != (CapSense_RAW_FILTER_MASK & CapSense_IIR8_FILTER))   || \
  37:.\Generated_Source\PSoC4/CapSense_CSHL.c ****         (0u != (CapSense_RAW_FILTER_MASK & CapSense_IIR16_FILTER)) )
  38:.\Generated_Source\PSoC4/CapSense_CSHL.c **** 
  39:.\Generated_Source\PSoC4/CapSense_CSHL.c ****     uint16 CapSense_rawFilterData1[CapSense_TOTAL_SENSOR_COUNT];
  40:.\Generated_Source\PSoC4/CapSense_CSHL.c **** #endif  /* ( (CapSense_RAW_FILTER_MASK & CapSense_MEDIAN_FILTER) || \
  41:.\Generated_Source\PSoC4/CapSense_CSHL.c ****         *    (CapSense_RAW_FILTER_MASK & CapSense_AVERAGING_FILTER) )
  42:.\Generated_Source\PSoC4/CapSense_CSHL.c ****         */
  43:.\Generated_Source\PSoC4/CapSense_CSHL.c **** 
  44:.\Generated_Source\PSoC4/CapSense_CSHL.c **** extern uint16 CapSense_sensorRaw[CapSense_TOTAL_SENSOR_COUNT];
  45:.\Generated_Source\PSoC4/CapSense_CSHL.c **** extern uint8 CapSense_sensorEnableMask[CapSense_TOTAL_SENSOR_MASK];
  46:.\Generated_Source\PSoC4/CapSense_CSHL.c **** extern const uint8 CapSense_widgetNumber[CapSense_TOTAL_SENSOR_COUNT];
  47:.\Generated_Source\PSoC4/CapSense_CSHL.c **** 
  48:.\Generated_Source\PSoC4/CapSense_CSHL.c **** #if (CapSense_TUNING_METHOD != CapSense__TUNING_NONE)
  49:.\Generated_Source\PSoC4/CapSense_CSHL.c ****     extern uint32 CapSense_widgetResolution[CapSense_RESOLUTIONS_TBL_SIZE];
  50:.\Generated_Source\PSoC4/CapSense_CSHL.c **** #endif /* (CapSense_TUNING_METHOD != CapSense__TUNING_NONE) */
  51:.\Generated_Source\PSoC4/CapSense_CSHL.c **** 
  52:.\Generated_Source\PSoC4/CapSense_CSHL.c **** uint16 CapSense_sensorBaseline[CapSense_TOTAL_SENSOR_COUNT] = {0u};
  53:.\Generated_Source\PSoC4/CapSense_CSHL.c **** uint8 CapSense_sensorBaselineLow[CapSense_TOTAL_SENSOR_COUNT] = {0u};
  54:.\Generated_Source\PSoC4/CapSense_CSHL.c **** uint8 CapSense_sensorSignal[CapSense_TOTAL_SENSOR_COUNT] = {0u};
  55:.\Generated_Source\PSoC4/CapSense_CSHL.c **** uint8 CapSense_sensorOnMask[CapSense_TOTAL_SENSOR_MASK] = {0u};
  56:.\Generated_Source\PSoC4/CapSense_CSHL.c **** 
  57:.\Generated_Source\PSoC4/CapSense_CSHL.c **** uint8 CapSense_lowBaselineResetCnt[CapSense_TOTAL_SENSOR_COUNT];
  58:.\Generated_Source\PSoC4/CapSense_CSHL.c **** uint8 CapSense_lowBaselineReset[CapSense_TOTAL_SENSOR_COUNT] = {
  59:.\Generated_Source\PSoC4/CapSense_CSHL.c ****     30u, 30u, 30u, 30u, 30u, 30u, 30u, 30u, 30u, 30u, 30u, 30u, 30u, 
  60:.\Generated_Source\PSoC4/CapSense_CSHL.c **** };
  61:.\Generated_Source\PSoC4/CapSense_CSHL.c **** 
  62:.\Generated_Source\PSoC4/CapSense_CSHL.c **** 
  63:.\Generated_Source\PSoC4/CapSense_CSHL.c **** 
  64:.\Generated_Source\PSoC4/CapSense_CSHL.c **** #if (CapSense_TUNING_METHOD == CapSense__TUNING_AUTO)
  65:.\Generated_Source\PSoC4/CapSense_CSHL.c ****     extern CapSense_CONFIG_TYPE_P4_v2_40 CapSense_config;
  66:.\Generated_Source\PSoC4/CapSense_CSHL.c **** #endif  /* (CapSense_TUNING_METHOD == CapSense__TUNING_AUTO) */
  67:.\Generated_Source\PSoC4/CapSense_CSHL.c **** 
  68:.\Generated_Source\PSoC4/CapSense_CSHL.c **** #if (CapSense_RAW_FILTER_MASK != 0u)
  69:.\Generated_Source\PSoC4/CapSense_CSHL.c **** uint8 CapSense_enableRawFilters = CapSense_RAW_FILTERS_ENABLED;
  70:.\Generated_Source\PSoC4/CapSense_CSHL.c **** #endif  /* (CapSense_RAW_FILTER_MASK != 0u) */
  71:.\Generated_Source\PSoC4/CapSense_CSHL.c **** 
  72:.\Generated_Source\PSoC4/CapSense_CSHL.c **** /* Generated by Customizer */
  73:.\Generated_Source\PSoC4/CapSense_CSHL.c **** uint8 CapSense_fingerThreshold[] = {
  74:.\Generated_Source\PSoC4/CapSense_CSHL.c ****     100u, 200u, 200u, 200u, 200u, 100u, 
  75:.\Generated_Source\PSoC4/CapSense_CSHL.c **** };
  76:.\Generated_Source\PSoC4/CapSense_CSHL.c **** 
  77:.\Generated_Source\PSoC4/CapSense_CSHL.c **** uint8 CapSense_noiseThreshold[CapSense_THRESHOLD_TBL_SIZE];
  78:.\Generated_Source\PSoC4/CapSense_CSHL.c **** 
  79:.\Generated_Source\PSoC4/CapSense_CSHL.c **** uint8 CapSense_negativeNoiseThreshold[CapSense_THRESHOLD_TBL_SIZE];
  80:.\Generated_Source\PSoC4/CapSense_CSHL.c **** 
  81:.\Generated_Source\PSoC4/CapSense_CSHL.c **** uint8 CapSense_hysteresis[CapSense_WIDGET_PARAM_TBL_SIZE];
  82:.\Generated_Source\PSoC4/CapSense_CSHL.c **** 
  83:.\Generated_Source\PSoC4/CapSense_CSHL.c **** uint8 CapSense_debounce[] = {
  84:.\Generated_Source\PSoC4/CapSense_CSHL.c ****     1u, 2u, 2u, 2u, 2u, 1u, 
  85:.\Generated_Source\PSoC4/CapSense_CSHL.c **** };
  86:.\Generated_Source\PSoC4/CapSense_CSHL.c **** 
  87:.\Generated_Source\PSoC4/CapSense_CSHL.c **** static uint8 CapSense_debounceCounter[] = {
  88:.\Generated_Source\PSoC4/CapSense_CSHL.c ****     0u, 0u, 0u, 0u, 0u, 0u, 
  89:.\Generated_Source\PSoC4/CapSense_CSHL.c **** };
ARM GAS  C:\Users\Terence\AppData\Local\Temp\cc6R4aDx.s 			page 3


  90:.\Generated_Source\PSoC4/CapSense_CSHL.c **** 
  91:.\Generated_Source\PSoC4/CapSense_CSHL.c **** const uint8 CapSense_rawDataIndex[] = {
  92:.\Generated_Source\PSoC4/CapSense_CSHL.c ****     5u, /* RadialSlider0__RS */
  93:.\Generated_Source\PSoC4/CapSense_CSHL.c ****     0u, /* Left__BTN */
  94:.\Generated_Source\PSoC4/CapSense_CSHL.c ****     1u, /* Right__BTN */
  95:.\Generated_Source\PSoC4/CapSense_CSHL.c ****     2u, /* Up__BTN */
  96:.\Generated_Source\PSoC4/CapSense_CSHL.c ****     3u, /* Down__BTN */
  97:.\Generated_Source\PSoC4/CapSense_CSHL.c ****     4u, /* Centre__BTN */
  98:.\Generated_Source\PSoC4/CapSense_CSHL.c **** };
  99:.\Generated_Source\PSoC4/CapSense_CSHL.c **** 
 100:.\Generated_Source\PSoC4/CapSense_CSHL.c **** const uint8 CapSense_numberOfSensors[] = {
 101:.\Generated_Source\PSoC4/CapSense_CSHL.c ****     8u, /* RadialSlider0__RS */
 102:.\Generated_Source\PSoC4/CapSense_CSHL.c ****     1u, /* Left__BTN */
 103:.\Generated_Source\PSoC4/CapSense_CSHL.c ****     1u, /* Right__BTN */
 104:.\Generated_Source\PSoC4/CapSense_CSHL.c ****     1u, /* Up__BTN */
 105:.\Generated_Source\PSoC4/CapSense_CSHL.c ****     1u, /* Down__BTN */
 106:.\Generated_Source\PSoC4/CapSense_CSHL.c ****     1u, /* Centre__BTN */
 107:.\Generated_Source\PSoC4/CapSense_CSHL.c **** };
 108:.\Generated_Source\PSoC4/CapSense_CSHL.c **** 
 109:.\Generated_Source\PSoC4/CapSense_CSHL.c **** static const uint16 CapSense_centroidMult[] = {
 110:.\Generated_Source\PSoC4/CapSense_CSHL.c ****     6400u, 
 111:.\Generated_Source\PSoC4/CapSense_CSHL.c **** };
 112:.\Generated_Source\PSoC4/CapSense_CSHL.c **** 
 113:.\Generated_Source\PSoC4/CapSense_CSHL.c **** static uint8 CapSense_posFiltersMask[] = {
 114:.\Generated_Source\PSoC4/CapSense_CSHL.c ****     0x1u, 
 115:.\Generated_Source\PSoC4/CapSense_CSHL.c **** };
 116:.\Generated_Source\PSoC4/CapSense_CSHL.c **** 
 117:.\Generated_Source\PSoC4/CapSense_CSHL.c **** static uint8 CapSense_posFiltersData[] = {
 118:.\Generated_Source\PSoC4/CapSense_CSHL.c ****     1u, 0u, 0u, 0u, 
 119:.\Generated_Source\PSoC4/CapSense_CSHL.c **** };
 120:.\Generated_Source\PSoC4/CapSense_CSHL.c **** 
 121:.\Generated_Source\PSoC4/CapSense_CSHL.c **** 
 122:.\Generated_Source\PSoC4/CapSense_CSHL.c **** 
 123:.\Generated_Source\PSoC4/CapSense_CSHL.c **** 
 124:.\Generated_Source\PSoC4/CapSense_CSHL.c **** /*******************************************************************************
 125:.\Generated_Source\PSoC4/CapSense_CSHL.c **** * Function Name: CapSense_BaseInit
 126:.\Generated_Source\PSoC4/CapSense_CSHL.c **** ********************************************************************************
 127:.\Generated_Source\PSoC4/CapSense_CSHL.c **** *
 128:.\Generated_Source\PSoC4/CapSense_CSHL.c **** * Summary:
 129:.\Generated_Source\PSoC4/CapSense_CSHL.c **** *  Loads the CapSense_sensorBaseline[sensor] array element with an
 130:.\Generated_Source\PSoC4/CapSense_CSHL.c **** *  initial value which is equal to the raw count value.
 131:.\Generated_Source\PSoC4/CapSense_CSHL.c **** *  Resets to zero CapSense_sensorBaselineLow[sensor] and
 132:.\Generated_Source\PSoC4/CapSense_CSHL.c **** *  CapSense_sensorSignal[sensor] array element.
 133:.\Generated_Source\PSoC4/CapSense_CSHL.c **** *  Loads the CapSense_rawFilterData2[sensor] and
 134:.\Generated_Source\PSoC4/CapSense_CSHL.c **** *  CapSense_rawFilterData2[sensor] array element with an
 135:.\Generated_Source\PSoC4/CapSense_CSHL.c **** *  initial value which is equal to the raw count value if the raw data filter is enabled.
 136:.\Generated_Source\PSoC4/CapSense_CSHL.c **** *
 137:.\Generated_Source\PSoC4/CapSense_CSHL.c **** * Parameters:
 138:.\Generated_Source\PSoC4/CapSense_CSHL.c **** *  sensor:  Sensor number.
 139:.\Generated_Source\PSoC4/CapSense_CSHL.c **** *
 140:.\Generated_Source\PSoC4/CapSense_CSHL.c **** * Return:
 141:.\Generated_Source\PSoC4/CapSense_CSHL.c **** *  None
 142:.\Generated_Source\PSoC4/CapSense_CSHL.c **** *
 143:.\Generated_Source\PSoC4/CapSense_CSHL.c **** * Global Variables:
 144:.\Generated_Source\PSoC4/CapSense_CSHL.c **** *  CapSense_sensorBaseline[]    - used to store the baseline value.
 145:.\Generated_Source\PSoC4/CapSense_CSHL.c **** *  CapSense_sensorBaselineLow[] - used to store the fraction byte of
 146:.\Generated_Source\PSoC4/CapSense_CSHL.c **** *  the baseline value.
ARM GAS  C:\Users\Terence\AppData\Local\Temp\cc6R4aDx.s 			page 4


 147:.\Generated_Source\PSoC4/CapSense_CSHL.c **** *  CapSense_sensorSignal[]      - used to store a difference between
 148:.\Generated_Source\PSoC4/CapSense_CSHL.c **** *  the current value of raw data and the previous value of the baseline.
 149:.\Generated_Source\PSoC4/CapSense_CSHL.c **** *  CapSense_rawFilterData1[]    - used to store a previous sample of
 150:.\Generated_Source\PSoC4/CapSense_CSHL.c **** *  any enabled raw data filter.
 151:.\Generated_Source\PSoC4/CapSense_CSHL.c **** *  CapSense_rawFilterData2[]    - used to store before a previous sample
 152:.\Generated_Source\PSoC4/CapSense_CSHL.c **** *  of the enabled raw data filter. Required only for median or average filters.
 153:.\Generated_Source\PSoC4/CapSense_CSHL.c **** *
 154:.\Generated_Source\PSoC4/CapSense_CSHL.c **** * Side Effects:
 155:.\Generated_Source\PSoC4/CapSense_CSHL.c **** *  None
 156:.\Generated_Source\PSoC4/CapSense_CSHL.c **** *
 157:.\Generated_Source\PSoC4/CapSense_CSHL.c **** *******************************************************************************/
 158:.\Generated_Source\PSoC4/CapSense_CSHL.c **** void CapSense_BaseInit(uint32 sensor)
 159:.\Generated_Source\PSoC4/CapSense_CSHL.c **** {
  26              		.loc 1 159 0
  27              		.cfi_startproc
  28              	.LVL0:
  29 0000 30B5     		push	{r4, r5, lr}
  30              		.cfi_def_cfa_offset 12
  31              		.cfi_offset 4, -12
  32              		.cfi_offset 5, -8
  33              		.cfi_offset 14, -4
 160:.\Generated_Source\PSoC4/CapSense_CSHL.c ****     #if ((CapSense_TOTAL_BUTTONS_COUNT) || (CapSense_TOTAL_MATRIX_BUTTONS_COUNT) || \
 161:.\Generated_Source\PSoC4/CapSense_CSHL.c ****          (CapSense_TOTAL_GENERICS_COUNT))
 162:.\Generated_Source\PSoC4/CapSense_CSHL.c ****         uint8 widget = CapSense_widgetNumber[sensor];
  34              		.loc 1 162 0
  35 0002 0C4B     		ldr	r3, .L3
  36 0004 1A5C     		ldrb	r2, [r3, r0]
  37              	.LVL1:
 163:.\Generated_Source\PSoC4/CapSense_CSHL.c ****     #endif /* ((CapSense_TOTAL_MATRIX_BUTTONS_COUNT) || (CapSense_TOTAL_MATRIX_BUTTONS_COUNT)) */
 164:.\Generated_Source\PSoC4/CapSense_CSHL.c **** 
 165:.\Generated_Source\PSoC4/CapSense_CSHL.c ****     #if (CapSense_TOTAL_MATRIX_BUTTONS_COUNT)
 166:.\Generated_Source\PSoC4/CapSense_CSHL.c ****         uint8 debounceIndex;
 167:.\Generated_Source\PSoC4/CapSense_CSHL.c ****     #endif  /* (CapSense_TOTAL_MATRIX_BUTTONS_COUNT) */
 168:.\Generated_Source\PSoC4/CapSense_CSHL.c **** 
 169:.\Generated_Source\PSoC4/CapSense_CSHL.c ****     #if (CapSense_TOTAL_GENERICS_COUNT)
 170:.\Generated_Source\PSoC4/CapSense_CSHL.c ****         /* Exclude generic widget */
 171:.\Generated_Source\PSoC4/CapSense_CSHL.c ****         if(widget < CapSense_END_OF_WIDGETS_INDEX)
 172:.\Generated_Source\PSoC4/CapSense_CSHL.c ****         {
 173:.\Generated_Source\PSoC4/CapSense_CSHL.c ****     #endif  /* CapSense_TOTAL_GENERICS_COUNT */
 174:.\Generated_Source\PSoC4/CapSense_CSHL.c **** 
 175:.\Generated_Source\PSoC4/CapSense_CSHL.c ****     /* Initialize Baseline */
 176:.\Generated_Source\PSoC4/CapSense_CSHL.c ****     CapSense_sensorBaseline[sensor] = CapSense_sensorRaw[sensor];
  38              		.loc 1 176 0
  39 0006 4400     		lsl	r4, r0, #1
  40 0008 0B4B     		ldr	r3, .L3+4
  41 000a E15A     		ldrh	r1, [r4, r3]
  42 000c 0B4B     		ldr	r3, .L3+8
  43 000e E152     		strh	r1, [r4, r3]
 177:.\Generated_Source\PSoC4/CapSense_CSHL.c ****     CapSense_sensorBaselineLow[sensor] = 0u;
  44              		.loc 1 177 0
  45 0010 1D18     		add	r5, r3, r0
  46 0012 0024     		mov	r4, #0
  47 0014 2C77     		strb	r4, [r5, #28]
 178:.\Generated_Source\PSoC4/CapSense_CSHL.c ****     CapSense_sensorSignal[sensor] = 0u;
  48              		.loc 1 178 0
  49 0016 2C33     		add	r3, r3, #44
  50 0018 1C54     		strb	r4, [r3, r0]
ARM GAS  C:\Users\Terence\AppData\Local\Temp\cc6R4aDx.s 			page 5


 179:.\Generated_Source\PSoC4/CapSense_CSHL.c **** 
 180:.\Generated_Source\PSoC4/CapSense_CSHL.c ****     if(widget > CapSense_END_OF_TOUCH_PAD_INDEX)
  51              		.loc 1 180 0
  52 001a 002A     		cmp	r2, #0
  53 001c 05D0     		beq	.L2
 181:.\Generated_Source\PSoC4/CapSense_CSHL.c ****     {
 182:.\Generated_Source\PSoC4/CapSense_CSHL.c ****         CapSense_debounceCounter[widget - (CapSense_END_OF_TOUCH_PAD_INDEX + 1u)] =  CapSense_debou
  54              		.loc 1 182 0
  55 001e 541E     		sub	r4, r2, #1
  56 0020 074B     		ldr	r3, .L3+12
  57 0022 9A5C     		ldrb	r2, [r3, r2]
  58              	.LVL2:
  59 0024 054B     		ldr	r3, .L3+8
  60 0026 3C33     		add	r3, r3, #60
  61 0028 1A55     		strb	r2, [r3, r4]
  62              	.LVL3:
  63              	.L2:
 183:.\Generated_Source\PSoC4/CapSense_CSHL.c ****     }
 184:.\Generated_Source\PSoC4/CapSense_CSHL.c **** 
 185:.\Generated_Source\PSoC4/CapSense_CSHL.c **** 
 186:.\Generated_Source\PSoC4/CapSense_CSHL.c ****     #if ((0u != (CapSense_RAW_FILTER_MASK & CapSense_MEDIAN_FILTER)) ||\
 187:.\Generated_Source\PSoC4/CapSense_CSHL.c ****          (0u != (CapSense_RAW_FILTER_MASK & CapSense_AVERAGING_FILTER)))
 188:.\Generated_Source\PSoC4/CapSense_CSHL.c **** 
 189:.\Generated_Source\PSoC4/CapSense_CSHL.c ****         CapSense_rawFilterData1[sensor] = CapSense_sensorRaw[sensor];
 190:.\Generated_Source\PSoC4/CapSense_CSHL.c ****         CapSense_rawFilterData2[sensor] = CapSense_sensorRaw[sensor];
 191:.\Generated_Source\PSoC4/CapSense_CSHL.c **** 
 192:.\Generated_Source\PSoC4/CapSense_CSHL.c ****     #elif ((CapSense_RAW_FILTER_MASK & CapSense_IIR2_FILTER) ||\
 193:.\Generated_Source\PSoC4/CapSense_CSHL.c ****            (CapSense_RAW_FILTER_MASK & CapSense_IIR4_FILTER) ||\
 194:.\Generated_Source\PSoC4/CapSense_CSHL.c ****            (CapSense_RAW_FILTER_MASK & CapSense_JITTER_FILTER) ||\
 195:.\Generated_Source\PSoC4/CapSense_CSHL.c ****            (CapSense_RAW_FILTER_MASK & CapSense_IIR8_FILTER) ||\
 196:.\Generated_Source\PSoC4/CapSense_CSHL.c ****            (CapSense_RAW_FILTER_MASK & CapSense_IIR16_FILTER))
 197:.\Generated_Source\PSoC4/CapSense_CSHL.c **** 
 198:.\Generated_Source\PSoC4/CapSense_CSHL.c ****         CapSense_rawFilterData1[sensor] = CapSense_sensorRaw[sensor];
  64              		.loc 1 198 0
  65 002a 4000     		lsl	r0, r0, #1
  66              	.LVL4:
  67 002c 054B     		ldr	r3, .L3+16
  68 002e C152     		strh	r1, [r0, r3]
 199:.\Generated_Source\PSoC4/CapSense_CSHL.c **** 
 200:.\Generated_Source\PSoC4/CapSense_CSHL.c ****     #else
 201:.\Generated_Source\PSoC4/CapSense_CSHL.c ****         /* No Raw filters */
 202:.\Generated_Source\PSoC4/CapSense_CSHL.c ****     #endif  /* ((CapSense_RAW_FILTER_MASK & CapSense_MEDIAN_FILTER) || \
 203:.\Generated_Source\PSoC4/CapSense_CSHL.c ****             *   (CapSense_RAW_FILTER_MASK & CapSense_AVERAGING_FILTER))
 204:.\Generated_Source\PSoC4/CapSense_CSHL.c ****             */
 205:.\Generated_Source\PSoC4/CapSense_CSHL.c **** 
 206:.\Generated_Source\PSoC4/CapSense_CSHL.c ****     #if (CapSense_TOTAL_GENERICS_COUNT)
 207:.\Generated_Source\PSoC4/CapSense_CSHL.c ****         /* Exclude generic widget */
 208:.\Generated_Source\PSoC4/CapSense_CSHL.c ****         }
 209:.\Generated_Source\PSoC4/CapSense_CSHL.c ****     #endif  /* CapSense_TOTAL_GENERICS_COUNT */
 210:.\Generated_Source\PSoC4/CapSense_CSHL.c **** }
  69              		.loc 1 210 0
  70              		@ sp needed
  71 0030 30BD     		pop	{r4, r5, pc}
  72              	.L4:
  73 0032 C046     		.align	2
  74              	.L3:
  75 0034 00000000 		.word	CapSense_widgetNumber
ARM GAS  C:\Users\Terence\AppData\Local\Temp\cc6R4aDx.s 			page 6


  76 0038 00000000 		.word	CapSense_sensorRaw
  77 003c 00000000 		.word	.LANCHOR0
  78 0040 00000000 		.word	.LANCHOR1
  79 0044 00000000 		.word	CapSense_rawFilterData1
  80              		.cfi_endproc
  81              	.LFE36:
  82              		.size	CapSense_BaseInit, .-CapSense_BaseInit
  83              		.section	.text.CapSense_InitializeSensorBaseline,"ax",%progbits
  84              		.align	2
  85              		.global	CapSense_InitializeSensorBaseline
  86              		.code	16
  87              		.thumb_func
  88              		.type	CapSense_InitializeSensorBaseline, %function
  89              	CapSense_InitializeSensorBaseline:
  90              	.LFB37:
 211:.\Generated_Source\PSoC4/CapSense_CSHL.c **** 
 212:.\Generated_Source\PSoC4/CapSense_CSHL.c **** 
 213:.\Generated_Source\PSoC4/CapSense_CSHL.c **** /*******************************************************************************
 214:.\Generated_Source\PSoC4/CapSense_CSHL.c **** * Function Name: CapSense_InitializeSensorBaseline
 215:.\Generated_Source\PSoC4/CapSense_CSHL.c **** ********************************************************************************
 216:.\Generated_Source\PSoC4/CapSense_CSHL.c **** *
 217:.\Generated_Source\PSoC4/CapSense_CSHL.c **** * Summary:
 218:.\Generated_Source\PSoC4/CapSense_CSHL.c **** *  Loads the CapSense_sensorBaseline[sensor] array element with an
 219:.\Generated_Source\PSoC4/CapSense_CSHL.c **** *  initial value by scanning the selected sensor (one channel design) or a pair
 220:.\Generated_Source\PSoC4/CapSense_CSHL.c **** *  of sensors (two channels designs). The raw count value is copied into the
 221:.\Generated_Source\PSoC4/CapSense_CSHL.c **** *  baseline array for each sensor. The raw data filters are initialized if
 222:.\Generated_Source\PSoC4/CapSense_CSHL.c **** *  enabled.
 223:.\Generated_Source\PSoC4/CapSense_CSHL.c **** *
 224:.\Generated_Source\PSoC4/CapSense_CSHL.c **** * Parameters:
 225:.\Generated_Source\PSoC4/CapSense_CSHL.c **** *  sensor:  Sensor number.
 226:.\Generated_Source\PSoC4/CapSense_CSHL.c **** *
 227:.\Generated_Source\PSoC4/CapSense_CSHL.c **** * Return:
 228:.\Generated_Source\PSoC4/CapSense_CSHL.c **** *  None
 229:.\Generated_Source\PSoC4/CapSense_CSHL.c **** *
 230:.\Generated_Source\PSoC4/CapSense_CSHL.c **** * Global Variables:
 231:.\Generated_Source\PSoC4/CapSense_CSHL.c **** *  None
 232:.\Generated_Source\PSoC4/CapSense_CSHL.c **** *
 233:.\Generated_Source\PSoC4/CapSense_CSHL.c **** * Side Effects:
 234:.\Generated_Source\PSoC4/CapSense_CSHL.c **** *  None
 235:.\Generated_Source\PSoC4/CapSense_CSHL.c **** *
 236:.\Generated_Source\PSoC4/CapSense_CSHL.c **** *******************************************************************************/
 237:.\Generated_Source\PSoC4/CapSense_CSHL.c **** void CapSense_InitializeSensorBaseline(uint32 sensor)
 238:.\Generated_Source\PSoC4/CapSense_CSHL.c **** {
  91              		.loc 1 238 0
  92              		.cfi_startproc
  93              	.LVL5:
  94 0000 10B5     		push	{r4, lr}
  95              		.cfi_def_cfa_offset 8
  96              		.cfi_offset 4, -8
  97              		.cfi_offset 14, -4
  98 0002 041C     		mov	r4, r0
 239:.\Generated_Source\PSoC4/CapSense_CSHL.c ****     /* Scan sensor */
 240:.\Generated_Source\PSoC4/CapSense_CSHL.c ****     CapSense_ScanSensor(sensor);
  99              		.loc 1 240 0
 100 0004 FFF7FEFF 		bl	CapSense_ScanSensor
 101              	.LVL6:
 102              	.L6:
ARM GAS  C:\Users\Terence\AppData\Local\Temp\cc6R4aDx.s 			page 7


 241:.\Generated_Source\PSoC4/CapSense_CSHL.c ****     while(CapSense_IsBusy() != 0u)
 103              		.loc 1 241 0 discriminator 1
 104 0008 FFF7FEFF 		bl	CapSense_IsBusy
 105              	.LVL7:
 106 000c 0028     		cmp	r0, #0
 107 000e FBD1     		bne	.L6
 242:.\Generated_Source\PSoC4/CapSense_CSHL.c ****     {
 243:.\Generated_Source\PSoC4/CapSense_CSHL.c ****         /* Wait while sensor is busy */
 244:.\Generated_Source\PSoC4/CapSense_CSHL.c ****     }
 245:.\Generated_Source\PSoC4/CapSense_CSHL.c **** 
 246:.\Generated_Source\PSoC4/CapSense_CSHL.c ****     /* Initialize Baseline, Signal and debounce counters */
 247:.\Generated_Source\PSoC4/CapSense_CSHL.c ****     CapSense_BaseInit(sensor);
 108              		.loc 1 247 0
 109 0010 201C     		mov	r0, r4
 110 0012 FFF7FEFF 		bl	CapSense_BaseInit
 111              	.LVL8:
 248:.\Generated_Source\PSoC4/CapSense_CSHL.c **** }
 112              		.loc 1 248 0
 113              		@ sp needed
 114              	.LVL9:
 115 0016 10BD     		pop	{r4, pc}
 116              		.cfi_endproc
 117              	.LFE37:
 118              		.size	CapSense_InitializeSensorBaseline, .-CapSense_InitializeSensorBaseline
 119              		.section	.text.CapSense_InitializeAllBaselines,"ax",%progbits
 120              		.align	2
 121              		.global	CapSense_InitializeAllBaselines
 122              		.code	16
 123              		.thumb_func
 124              		.type	CapSense_InitializeAllBaselines, %function
 125              	CapSense_InitializeAllBaselines:
 126              	.LFB38:
 249:.\Generated_Source\PSoC4/CapSense_CSHL.c **** 
 250:.\Generated_Source\PSoC4/CapSense_CSHL.c **** 
 251:.\Generated_Source\PSoC4/CapSense_CSHL.c **** /*******************************************************************************
 252:.\Generated_Source\PSoC4/CapSense_CSHL.c **** * Function Name: CapSense_InitializeAllBaselines
 253:.\Generated_Source\PSoC4/CapSense_CSHL.c **** ********************************************************************************
 254:.\Generated_Source\PSoC4/CapSense_CSHL.c **** *
 255:.\Generated_Source\PSoC4/CapSense_CSHL.c **** * Summary:
 256:.\Generated_Source\PSoC4/CapSense_CSHL.c **** *  Uses the CapSense_InitializeSensorBaseline function to load the
 257:.\Generated_Source\PSoC4/CapSense_CSHL.c **** *  CapSense_sensorBaseline[] array with an initial values by scanning
 258:.\Generated_Source\PSoC4/CapSense_CSHL.c **** *  all the sensors. The raw count values are copied into the baseline array for
 259:.\Generated_Source\PSoC4/CapSense_CSHL.c **** *  all the sensors. The raw data filters are initialized if enabled.
 260:.\Generated_Source\PSoC4/CapSense_CSHL.c **** *
 261:.\Generated_Source\PSoC4/CapSense_CSHL.c **** * Parameters:
 262:.\Generated_Source\PSoC4/CapSense_CSHL.c **** *  None
 263:.\Generated_Source\PSoC4/CapSense_CSHL.c **** *
 264:.\Generated_Source\PSoC4/CapSense_CSHL.c **** * Return:
 265:.\Generated_Source\PSoC4/CapSense_CSHL.c **** *  None
 266:.\Generated_Source\PSoC4/CapSense_CSHL.c **** *
 267:.\Generated_Source\PSoC4/CapSense_CSHL.c **** * Global Variables:
 268:.\Generated_Source\PSoC4/CapSense_CSHL.c **** *  None
 269:.\Generated_Source\PSoC4/CapSense_CSHL.c **** *
 270:.\Generated_Source\PSoC4/CapSense_CSHL.c **** * Side Effects:
 271:.\Generated_Source\PSoC4/CapSense_CSHL.c **** *  None
 272:.\Generated_Source\PSoC4/CapSense_CSHL.c **** *
 273:.\Generated_Source\PSoC4/CapSense_CSHL.c **** *******************************************************************************/
ARM GAS  C:\Users\Terence\AppData\Local\Temp\cc6R4aDx.s 			page 8


 274:.\Generated_Source\PSoC4/CapSense_CSHL.c **** void CapSense_InitializeAllBaselines(void)
 275:.\Generated_Source\PSoC4/CapSense_CSHL.c **** {
 127              		.loc 1 275 0
 128              		.cfi_startproc
 129 0000 10B5     		push	{r4, lr}
 130              		.cfi_def_cfa_offset 8
 131              		.cfi_offset 4, -8
 132              		.cfi_offset 14, -4
 133              	.LVL10:
 276:.\Generated_Source\PSoC4/CapSense_CSHL.c ****     uint32 i;
 277:.\Generated_Source\PSoC4/CapSense_CSHL.c **** 
 278:.\Generated_Source\PSoC4/CapSense_CSHL.c ****     for(i = 0u; i < CapSense_TOTAL_SCANSLOT_COUNT; i++)
 134              		.loc 1 278 0
 135 0002 0024     		mov	r4, #0
 136 0004 03E0     		b	.L8
 137              	.LVL11:
 138              	.L9:
 279:.\Generated_Source\PSoC4/CapSense_CSHL.c ****     {
 280:.\Generated_Source\PSoC4/CapSense_CSHL.c ****         CapSense_InitializeSensorBaseline(i);
 139              		.loc 1 280 0 discriminator 3
 140 0006 201C     		mov	r0, r4
 141 0008 FFF7FEFF 		bl	CapSense_InitializeSensorBaseline
 142              	.LVL12:
 278:.\Generated_Source\PSoC4/CapSense_CSHL.c ****     {
 143              		.loc 1 278 0 discriminator 3
 144 000c 0134     		add	r4, r4, #1
 145              	.LVL13:
 146              	.L8:
 278:.\Generated_Source\PSoC4/CapSense_CSHL.c ****     {
 147              		.loc 1 278 0 is_stmt 0 discriminator 1
 148 000e 0C2C     		cmp	r4, #12
 149 0010 F9D9     		bls	.L9
 281:.\Generated_Source\PSoC4/CapSense_CSHL.c ****     }
 282:.\Generated_Source\PSoC4/CapSense_CSHL.c **** }
 150              		.loc 1 282 0 is_stmt 1
 151              		@ sp needed
 152              	.LVL14:
 153 0012 10BD     		pop	{r4, pc}
 154              		.cfi_endproc
 155              	.LFE38:
 156              		.size	CapSense_InitializeAllBaselines, .-CapSense_InitializeAllBaselines
 157              		.section	.text.CapSense_InitializeEnabledBaselines,"ax",%progbits
 158              		.align	2
 159              		.global	CapSense_InitializeEnabledBaselines
 160              		.code	16
 161              		.thumb_func
 162              		.type	CapSense_InitializeEnabledBaselines, %function
 163              	CapSense_InitializeEnabledBaselines:
 164              	.LFB39:
 283:.\Generated_Source\PSoC4/CapSense_CSHL.c **** 
 284:.\Generated_Source\PSoC4/CapSense_CSHL.c **** 
 285:.\Generated_Source\PSoC4/CapSense_CSHL.c **** /*******************************************************************************
 286:.\Generated_Source\PSoC4/CapSense_CSHL.c **** * Function Name: CapSense_InitializeEnabledBaselines
 287:.\Generated_Source\PSoC4/CapSense_CSHL.c **** ********************************************************************************
 288:.\Generated_Source\PSoC4/CapSense_CSHL.c **** *
 289:.\Generated_Source\PSoC4/CapSense_CSHL.c **** * Summary:
 290:.\Generated_Source\PSoC4/CapSense_CSHL.c **** *  Scans all the enabled widgets and the raw count values are copied into the
ARM GAS  C:\Users\Terence\AppData\Local\Temp\cc6R4aDx.s 			page 9


 291:.\Generated_Source\PSoC4/CapSense_CSHL.c **** *  baseline array for all the sensors enabled in the scanning process. The baselines
 292:.\Generated_Source\PSoC4/CapSense_CSHL.c **** *  are initialized with zero values for sensors disabled from the scanning process.
 293:.\Generated_Source\PSoC4/CapSense_CSHL.c **** *  The raw data filters are initialized if enabled.
 294:.\Generated_Source\PSoC4/CapSense_CSHL.c **** *
 295:.\Generated_Source\PSoC4/CapSense_CSHL.c **** * Parameters:
 296:.\Generated_Source\PSoC4/CapSense_CSHL.c **** *  None
 297:.\Generated_Source\PSoC4/CapSense_CSHL.c **** *
 298:.\Generated_Source\PSoC4/CapSense_CSHL.c **** * Return:
 299:.\Generated_Source\PSoC4/CapSense_CSHL.c **** *  None
 300:.\Generated_Source\PSoC4/CapSense_CSHL.c **** *
 301:.\Generated_Source\PSoC4/CapSense_CSHL.c **** * Global Variables:
 302:.\Generated_Source\PSoC4/CapSense_CSHL.c **** *  CapSense_sensorRaw[] - used to store the sensors raw data.
 303:.\Generated_Source\PSoC4/CapSense_CSHL.c **** *  CapSense_sensorEnableMask[ ] - used to store bit masks of the enabled sensors.
 304:.\Generated_Source\PSoC4/CapSense_CSHL.c **** *
 305:.\Generated_Source\PSoC4/CapSense_CSHL.c **** * Side Effects:
 306:.\Generated_Source\PSoC4/CapSense_CSHL.c **** *  None
 307:.\Generated_Source\PSoC4/CapSense_CSHL.c **** *
 308:.\Generated_Source\PSoC4/CapSense_CSHL.c **** *******************************************************************************/
 309:.\Generated_Source\PSoC4/CapSense_CSHL.c **** void CapSense_InitializeEnabledBaselines(void)
 310:.\Generated_Source\PSoC4/CapSense_CSHL.c **** {
 165              		.loc 1 310 0
 166              		.cfi_startproc
 167 0000 10B5     		push	{r4, lr}
 168              		.cfi_def_cfa_offset 8
 169              		.cfi_offset 4, -8
 170              		.cfi_offset 14, -4
 311:.\Generated_Source\PSoC4/CapSense_CSHL.c ****     uint32 i;
 312:.\Generated_Source\PSoC4/CapSense_CSHL.c ****     uint32 isSensorEnabled;
 313:.\Generated_Source\PSoC4/CapSense_CSHL.c **** 
 314:.\Generated_Source\PSoC4/CapSense_CSHL.c ****     CapSense_ScanEnabledWidgets();
 171              		.loc 1 314 0
 172 0002 FFF7FEFF 		bl	CapSense_ScanEnabledWidgets
 173              	.LVL15:
 174              	.L11:
 315:.\Generated_Source\PSoC4/CapSense_CSHL.c ****     while(CapSense_IsBusy() != 0u)
 175              		.loc 1 315 0 discriminator 1
 176 0006 FFF7FEFF 		bl	CapSense_IsBusy
 177              	.LVL16:
 178 000a 0028     		cmp	r0, #0
 179 000c FBD1     		bne	.L11
 180 000e 0024     		mov	r4, #0
 181 0010 09E0     		b	.L12
 182              	.LVL17:
 183              	.L14:
 316:.\Generated_Source\PSoC4/CapSense_CSHL.c ****     {
 317:.\Generated_Source\PSoC4/CapSense_CSHL.c ****         /* Wait while sensor is busy */
 318:.\Generated_Source\PSoC4/CapSense_CSHL.c ****     }
 319:.\Generated_Source\PSoC4/CapSense_CSHL.c **** 
 320:.\Generated_Source\PSoC4/CapSense_CSHL.c ****     for(i = 0u; i < CapSense_TOTAL_SENSOR_COUNT; i++)
 321:.\Generated_Source\PSoC4/CapSense_CSHL.c ****     {
 322:.\Generated_Source\PSoC4/CapSense_CSHL.c ****         isSensorEnabled = CapSense_GetBitValue(CapSense_sensorEnableMask, i);
 184              		.loc 1 322 0
 185 0012 0648     		ldr	r0, .L15
 186 0014 211C     		mov	r1, r4
 187 0016 FFF7FEFF 		bl	CapSense_GetBitValue
 188              	.LVL18:
 323:.\Generated_Source\PSoC4/CapSense_CSHL.c **** 
ARM GAS  C:\Users\Terence\AppData\Local\Temp\cc6R4aDx.s 			page 10


 324:.\Generated_Source\PSoC4/CapSense_CSHL.c ****         /* Clear raw data if sensor is disabled from scanning process */
 325:.\Generated_Source\PSoC4/CapSense_CSHL.c ****         if(isSensorEnabled != 0u)
 189              		.loc 1 325 0
 190 001a 0028     		cmp	r0, #0
 191 001c 02D0     		beq	.L13
 326:.\Generated_Source\PSoC4/CapSense_CSHL.c ****         {
 327:.\Generated_Source\PSoC4/CapSense_CSHL.c ****             /* Initialize baselines */
 328:.\Generated_Source\PSoC4/CapSense_CSHL.c ****             CapSense_BaseInit(i);
 192              		.loc 1 328 0
 193 001e 201C     		mov	r0, r4
 194              	.LVL19:
 195 0020 FFF7FEFF 		bl	CapSense_BaseInit
 196              	.LVL20:
 197              	.L13:
 320:.\Generated_Source\PSoC4/CapSense_CSHL.c ****     {
 198              		.loc 1 320 0 discriminator 2
 199 0024 0134     		add	r4, r4, #1
 200              	.LVL21:
 201              	.L12:
 320:.\Generated_Source\PSoC4/CapSense_CSHL.c ****     {
 202              		.loc 1 320 0 is_stmt 0 discriminator 1
 203 0026 0C2C     		cmp	r4, #12
 204 0028 F3D9     		bls	.L14
 329:.\Generated_Source\PSoC4/CapSense_CSHL.c ****         }
 330:.\Generated_Source\PSoC4/CapSense_CSHL.c ****     }
 331:.\Generated_Source\PSoC4/CapSense_CSHL.c **** }
 205              		.loc 1 331 0 is_stmt 1
 206              		@ sp needed
 207              	.LVL22:
 208 002a 10BD     		pop	{r4, pc}
 209              	.L16:
 210              		.align	2
 211              	.L15:
 212 002c 00000000 		.word	CapSense_sensorEnableMask
 213              		.cfi_endproc
 214              	.LFE39:
 215              		.size	CapSense_InitializeEnabledBaselines, .-CapSense_InitializeEnabledBaselines
 216              		.section	.text.CapSense_GetBaselineData,"ax",%progbits
 217              		.align	2
 218              		.global	CapSense_GetBaselineData
 219              		.code	16
 220              		.thumb_func
 221              		.type	CapSense_GetBaselineData, %function
 222              	CapSense_GetBaselineData:
 223              	.LFB44:
 332:.\Generated_Source\PSoC4/CapSense_CSHL.c **** 
 333:.\Generated_Source\PSoC4/CapSense_CSHL.c **** 
 334:.\Generated_Source\PSoC4/CapSense_CSHL.c **** /*******************************************************************************
 335:.\Generated_Source\PSoC4/CapSense_CSHL.c **** * Function Name: CapSense_UpdateBaselineNoThreshold
 336:.\Generated_Source\PSoC4/CapSense_CSHL.c **** ********************************************************************************
 337:.\Generated_Source\PSoC4/CapSense_CSHL.c **** *
 338:.\Generated_Source\PSoC4/CapSense_CSHL.c **** * Summary:
 339:.\Generated_Source\PSoC4/CapSense_CSHL.c **** *  Updates the CapSense_sensorBaseline[sensor] array element using the
 340:.\Generated_Source\PSoC4/CapSense_CSHL.c **** *  LP filter with k = 256. The signal calculates the difference of count by
 341:.\Generated_Source\PSoC4/CapSense_CSHL.c **** *  subtracting the previous baseline from the current raw count value and stores
 342:.\Generated_Source\PSoC4/CapSense_CSHL.c **** *  it in CapSense_sensorSignal[sensor].
 343:.\Generated_Source\PSoC4/CapSense_CSHL.c **** *  If the auto reset option is enabled, the baseline updated regards the noise threshold.
ARM GAS  C:\Users\Terence\AppData\Local\Temp\cc6R4aDx.s 			page 11


 344:.\Generated_Source\PSoC4/CapSense_CSHL.c **** *  If the auto reset option is disabled, the baseline stops updating; baseline is loaded
 345:.\Generated_Source\PSoC4/CapSense_CSHL.c **** *  with a raw count value if a signal is greater than zero and if signal is less
 346:.\Generated_Source\PSoC4/CapSense_CSHL.c **** *  than noise threshold.
 347:.\Generated_Source\PSoC4/CapSense_CSHL.c **** *  Raw data filters are applied to the values if enabled before baseline
 348:.\Generated_Source\PSoC4/CapSense_CSHL.c **** *  calculation.
 349:.\Generated_Source\PSoC4/CapSense_CSHL.c **** *
 350:.\Generated_Source\PSoC4/CapSense_CSHL.c **** *  This API does not update the thresholds in the Smartsense Mode.
 351:.\Generated_Source\PSoC4/CapSense_CSHL.c **** *
 352:.\Generated_Source\PSoC4/CapSense_CSHL.c **** * Parameters:
 353:.\Generated_Source\PSoC4/CapSense_CSHL.c **** *  sensor:  Sensor number.
 354:.\Generated_Source\PSoC4/CapSense_CSHL.c **** *
 355:.\Generated_Source\PSoC4/CapSense_CSHL.c **** * Return:
 356:.\Generated_Source\PSoC4/CapSense_CSHL.c **** *  None
 357:.\Generated_Source\PSoC4/CapSense_CSHL.c **** *
 358:.\Generated_Source\PSoC4/CapSense_CSHL.c **** * Global Variables:
 359:.\Generated_Source\PSoC4/CapSense_CSHL.c **** *  CapSense_widgetNumber[]  - stores widget numbers.
 360:.\Generated_Source\PSoC4/CapSense_CSHL.c **** *  CapSense_sensorBaseline[]    - used to store baseline value.
 361:.\Generated_Source\PSoC4/CapSense_CSHL.c **** *  CapSense_sensorBaselineLow[] - used to store fraction byte of
 362:.\Generated_Source\PSoC4/CapSense_CSHL.c **** *  baseline value.
 363:.\Generated_Source\PSoC4/CapSense_CSHL.c **** *  CapSense_sensorSignal[]      - used to store difference between
 364:.\Generated_Source\PSoC4/CapSense_CSHL.c **** *  current value of raw data and previous value of baseline.
 365:.\Generated_Source\PSoC4/CapSense_CSHL.c **** *  CapSense_rawFilterData1[]    - used to store previous sample of
 366:.\Generated_Source\PSoC4/CapSense_CSHL.c **** *  any enabled raw data filter.
 367:.\Generated_Source\PSoC4/CapSense_CSHL.c **** *  CapSense_rawFilterData2[]    - used to store before previous sample
 368:.\Generated_Source\PSoC4/CapSense_CSHL.c **** *  of enabled raw data filter. Only required for median or average filters.
 369:.\Generated_Source\PSoC4/CapSense_CSHL.c **** *
 370:.\Generated_Source\PSoC4/CapSense_CSHL.c **** * Side Effects:
 371:.\Generated_Source\PSoC4/CapSense_CSHL.c **** *  None
 372:.\Generated_Source\PSoC4/CapSense_CSHL.c **** *
 373:.\Generated_Source\PSoC4/CapSense_CSHL.c **** *******************************************************************************/
 374:.\Generated_Source\PSoC4/CapSense_CSHL.c **** void CapSense_UpdateBaselineNoThreshold(uint32 sensor)
 375:.\Generated_Source\PSoC4/CapSense_CSHL.c **** {
 376:.\Generated_Source\PSoC4/CapSense_CSHL.c ****     uint32 calc;
 377:.\Generated_Source\PSoC4/CapSense_CSHL.c ****     uint32 sign;
 378:.\Generated_Source\PSoC4/CapSense_CSHL.c ****     uint16 tempRaw;
 379:.\Generated_Source\PSoC4/CapSense_CSHL.c ****     uint16 filteredRawData;
 380:.\Generated_Source\PSoC4/CapSense_CSHL.c ****     uint8 widget = CapSense_widgetNumber[sensor];
 381:.\Generated_Source\PSoC4/CapSense_CSHL.c ****     uint8 noiseThreshold;
 382:.\Generated_Source\PSoC4/CapSense_CSHL.c **** 
 383:.\Generated_Source\PSoC4/CapSense_CSHL.c ****     #if (CapSense_TOTAL_GENERICS_COUNT)
 384:.\Generated_Source\PSoC4/CapSense_CSHL.c ****         /* Exclude generic widget */
 385:.\Generated_Source\PSoC4/CapSense_CSHL.c ****         if(widget < CapSense_END_OF_WIDGETS_INDEX)
 386:.\Generated_Source\PSoC4/CapSense_CSHL.c ****         {
 387:.\Generated_Source\PSoC4/CapSense_CSHL.c ****     #endif  /* CapSense_TOTAL_GENERICS_COUNT */
 388:.\Generated_Source\PSoC4/CapSense_CSHL.c **** 
 389:.\Generated_Source\PSoC4/CapSense_CSHL.c ****     noiseThreshold = CapSense_noiseThreshold[widget];
 390:.\Generated_Source\PSoC4/CapSense_CSHL.c ****     filteredRawData = CapSense_sensorRaw[sensor];
 391:.\Generated_Source\PSoC4/CapSense_CSHL.c **** 
 392:.\Generated_Source\PSoC4/CapSense_CSHL.c ****     #if (CapSense_RAW_FILTER_MASK != 0u)
 393:.\Generated_Source\PSoC4/CapSense_CSHL.c ****     if(CapSense_enableRawFilters != 0u)
 394:.\Generated_Source\PSoC4/CapSense_CSHL.c ****     {
 395:.\Generated_Source\PSoC4/CapSense_CSHL.c ****         #if (CapSense_RAW_FILTER_MASK & CapSense_MEDIAN_FILTER)
 396:.\Generated_Source\PSoC4/CapSense_CSHL.c ****             tempRaw = filteredRawData;
 397:.\Generated_Source\PSoC4/CapSense_CSHL.c ****             filteredRawData = CapSense_MedianFilter(filteredRawData, CapSense_rawFilterData1[sensor
 398:.\Generated_Source\PSoC4/CapSense_CSHL.c ****                                                             CapSense_rawFilterData2[sensor]);
 399:.\Generated_Source\PSoC4/CapSense_CSHL.c ****             CapSense_rawFilterData2[sensor] = CapSense_rawFilterData1[sensor];
 400:.\Generated_Source\PSoC4/CapSense_CSHL.c ****             CapSense_rawFilterData1[sensor] = tempRaw;
ARM GAS  C:\Users\Terence\AppData\Local\Temp\cc6R4aDx.s 			page 12


 401:.\Generated_Source\PSoC4/CapSense_CSHL.c **** 
 402:.\Generated_Source\PSoC4/CapSense_CSHL.c ****         #elif (CapSense_RAW_FILTER_MASK & CapSense_AVERAGING_FILTER)
 403:.\Generated_Source\PSoC4/CapSense_CSHL.c ****             tempRaw = filteredRawData;
 404:.\Generated_Source\PSoC4/CapSense_CSHL.c ****             filteredRawData = CapSense_AveragingFilter(filteredRawData, CapSense_rawFilterData1[sen
 405:.\Generated_Source\PSoC4/CapSense_CSHL.c ****                                                                CapSense_rawFilterData2[sensor]);
 406:.\Generated_Source\PSoC4/CapSense_CSHL.c ****             CapSense_rawFilterData2[sensor] = CapSense_rawFilterData1[sensor];
 407:.\Generated_Source\PSoC4/CapSense_CSHL.c ****             CapSense_rawFilterData1[sensor] = tempRaw;
 408:.\Generated_Source\PSoC4/CapSense_CSHL.c **** 
 409:.\Generated_Source\PSoC4/CapSense_CSHL.c ****         #elif (CapSense_RAW_FILTER_MASK & CapSense_IIR2_FILTER)
 410:.\Generated_Source\PSoC4/CapSense_CSHL.c ****             filteredRawData = CapSense_IIR2Filter(filteredRawData, CapSense_rawFilterData1[sensor])
 411:.\Generated_Source\PSoC4/CapSense_CSHL.c ****             CapSense_rawFilterData1[sensor] = filteredRawData;
 412:.\Generated_Source\PSoC4/CapSense_CSHL.c **** 
 413:.\Generated_Source\PSoC4/CapSense_CSHL.c ****         #elif (CapSense_RAW_FILTER_MASK & CapSense_IIR4_FILTER)
 414:.\Generated_Source\PSoC4/CapSense_CSHL.c ****             filteredRawData = CapSense_IIR4Filter(filteredRawData, CapSense_rawFilterData1[sensor])
 415:.\Generated_Source\PSoC4/CapSense_CSHL.c ****             CapSense_rawFilterData1[sensor] = filteredRawData;
 416:.\Generated_Source\PSoC4/CapSense_CSHL.c **** 
 417:.\Generated_Source\PSoC4/CapSense_CSHL.c ****         #elif (CapSense_RAW_FILTER_MASK & CapSense_JITTER_FILTER)
 418:.\Generated_Source\PSoC4/CapSense_CSHL.c ****             filteredRawData = CapSense_JitterFilter(filteredRawData, CapSense_rawFilterData1[sensor
 419:.\Generated_Source\PSoC4/CapSense_CSHL.c ****             CapSense_rawFilterData1[sensor] = filteredRawData;
 420:.\Generated_Source\PSoC4/CapSense_CSHL.c **** 
 421:.\Generated_Source\PSoC4/CapSense_CSHL.c ****         #elif (CapSense_RAW_FILTER_MASK & CapSense_IIR8_FILTER)
 422:.\Generated_Source\PSoC4/CapSense_CSHL.c ****             filteredRawData = CapSense_IIR8Filter(filteredRawData, CapSense_rawFilterData1[sensor])
 423:.\Generated_Source\PSoC4/CapSense_CSHL.c ****             CapSense_rawFilterData1[sensor] = filteredRawData;
 424:.\Generated_Source\PSoC4/CapSense_CSHL.c **** 
 425:.\Generated_Source\PSoC4/CapSense_CSHL.c ****         #elif (CapSense_RAW_FILTER_MASK & CapSense_IIR16_FILTER)
 426:.\Generated_Source\PSoC4/CapSense_CSHL.c ****             filteredRawData = CapSense_IIR16Filter(filteredRawData, CapSense_rawFilterData1[sensor]
 427:.\Generated_Source\PSoC4/CapSense_CSHL.c ****             CapSense_rawFilterData1[sensor] = filteredRawData;
 428:.\Generated_Source\PSoC4/CapSense_CSHL.c **** 
 429:.\Generated_Source\PSoC4/CapSense_CSHL.c ****         #else
 430:.\Generated_Source\PSoC4/CapSense_CSHL.c ****             /* No Raw filters */
 431:.\Generated_Source\PSoC4/CapSense_CSHL.c ****         #endif  /* (CapSense_RAW_FILTER_MASK & CapSense_MEDIAN_FILTER) */
 432:.\Generated_Source\PSoC4/CapSense_CSHL.c ****     }
 433:.\Generated_Source\PSoC4/CapSense_CSHL.c ****     #endif  /* (CapSense_RAW_FILTER_MASK != 0u) */
 434:.\Generated_Source\PSoC4/CapSense_CSHL.c **** 
 435:.\Generated_Source\PSoC4/CapSense_CSHL.c ****     #if (CapSense_TUNING_METHOD == CapSense__TUNING_AUTO)
 436:.\Generated_Source\PSoC4/CapSense_CSHL.c ****         MeasureNoiseEnvelope_P4_v2_40(&CapSense_config, (uint8)sensor, CapSense_sensorRaw);
 437:.\Generated_Source\PSoC4/CapSense_CSHL.c ****     #endif /* (CapSense_TUNING_METHOD == CapSense__TUNING_AUTO) */
 438:.\Generated_Source\PSoC4/CapSense_CSHL.c **** 
 439:.\Generated_Source\PSoC4/CapSense_CSHL.c ****     /* Baseline calculation */
 440:.\Generated_Source\PSoC4/CapSense_CSHL.c ****     /* Calculate difference RawData[cur] - Baseline[prev] */
 441:.\Generated_Source\PSoC4/CapSense_CSHL.c ****     if(filteredRawData >= CapSense_sensorBaseline[sensor])
 442:.\Generated_Source\PSoC4/CapSense_CSHL.c ****     {
 443:.\Generated_Source\PSoC4/CapSense_CSHL.c ****         CapSense_lowBaselineResetCnt[sensor] = 0u;
 444:.\Generated_Source\PSoC4/CapSense_CSHL.c ****         tempRaw = filteredRawData - CapSense_sensorBaseline[sensor];
 445:.\Generated_Source\PSoC4/CapSense_CSHL.c ****         sign = 1u;    /* Positive difference - Calculate the Signal */
 446:.\Generated_Source\PSoC4/CapSense_CSHL.c ****     }
 447:.\Generated_Source\PSoC4/CapSense_CSHL.c ****     else
 448:.\Generated_Source\PSoC4/CapSense_CSHL.c ****     {
 449:.\Generated_Source\PSoC4/CapSense_CSHL.c ****         tempRaw = CapSense_sensorBaseline[sensor] - filteredRawData;
 450:.\Generated_Source\PSoC4/CapSense_CSHL.c ****         sign = 0u;    /* Negative difference - Do NOT calculate the Signal */
 451:.\Generated_Source\PSoC4/CapSense_CSHL.c ****     }
 452:.\Generated_Source\PSoC4/CapSense_CSHL.c **** 
 453:.\Generated_Source\PSoC4/CapSense_CSHL.c ****     #if (CapSense_TUNING_METHOD != CapSense__TUNING_NONE)
 454:.\Generated_Source\PSoC4/CapSense_CSHL.c ****     if((sign == 0u) && (tempRaw > (uint16) CapSense_negativeNoiseThreshold[widget]))
 455:.\Generated_Source\PSoC4/CapSense_CSHL.c ****     #else
 456:.\Generated_Source\PSoC4/CapSense_CSHL.c ****     if((sign == 0u) && (tempRaw > (uint16) CapSense_NEGATIVE_NOISE_THRESHOLD))
 457:.\Generated_Source\PSoC4/CapSense_CSHL.c ****     #endif /* (CapSense_TUNING_METHOD != CapSense__TUNING_NONE) */
ARM GAS  C:\Users\Terence\AppData\Local\Temp\cc6R4aDx.s 			page 13


 458:.\Generated_Source\PSoC4/CapSense_CSHL.c ****     {
 459:.\Generated_Source\PSoC4/CapSense_CSHL.c ****         if(CapSense_lowBaselineResetCnt[sensor] >= CapSense_lowBaselineReset[sensor])
 460:.\Generated_Source\PSoC4/CapSense_CSHL.c ****         {
 461:.\Generated_Source\PSoC4/CapSense_CSHL.c ****             CapSense_BaseInit(sensor);
 462:.\Generated_Source\PSoC4/CapSense_CSHL.c ****             CapSense_lowBaselineResetCnt[sensor] = 0u;
 463:.\Generated_Source\PSoC4/CapSense_CSHL.c ****         }
 464:.\Generated_Source\PSoC4/CapSense_CSHL.c ****         else
 465:.\Generated_Source\PSoC4/CapSense_CSHL.c ****         {
 466:.\Generated_Source\PSoC4/CapSense_CSHL.c ****             CapSense_lowBaselineResetCnt[sensor]++;
 467:.\Generated_Source\PSoC4/CapSense_CSHL.c ****         }
 468:.\Generated_Source\PSoC4/CapSense_CSHL.c ****     }
 469:.\Generated_Source\PSoC4/CapSense_CSHL.c ****     else
 470:.\Generated_Source\PSoC4/CapSense_CSHL.c ****     {
 471:.\Generated_Source\PSoC4/CapSense_CSHL.c ****         #if (CapSense_AUTO_RESET == CapSense_AUTO_RESET_DISABLE)
 472:.\Generated_Source\PSoC4/CapSense_CSHL.c ****         #if (CapSense_TUNING_METHOD != CapSense__TUNING_NONE)
 473:.\Generated_Source\PSoC4/CapSense_CSHL.c ****             /* Update Baseline if lower than noiseThreshold */
 474:.\Generated_Source\PSoC4/CapSense_CSHL.c ****             if ( (tempRaw <= noiseThreshold) ||
 475:.\Generated_Source\PSoC4/CapSense_CSHL.c ****              ((tempRaw < (uint16) CapSense_negativeNoiseThreshold[widget])
 476:.\Generated_Source\PSoC4/CapSense_CSHL.c ****                && (sign == 0u)))
 477:.\Generated_Source\PSoC4/CapSense_CSHL.c ****             {
 478:.\Generated_Source\PSoC4/CapSense_CSHL.c ****         #else
 479:.\Generated_Source\PSoC4/CapSense_CSHL.c ****             /* Update Baseline if lower than noiseThreshold */
 480:.\Generated_Source\PSoC4/CapSense_CSHL.c ****             if ( (tempRaw <= noiseThreshold) ||
 481:.\Generated_Source\PSoC4/CapSense_CSHL.c ****                  ((tempRaw < (uint16) CapSense_NEGATIVE_NOISE_THRESHOLD)
 482:.\Generated_Source\PSoC4/CapSense_CSHL.c ****                    && (sign == 0u)))
 483:.\Generated_Source\PSoC4/CapSense_CSHL.c ****             {
 484:.\Generated_Source\PSoC4/CapSense_CSHL.c ****         #endif /* (CapSense_TUNING_METHOD != CapSense__TUNING_NONE) */
 485:.\Generated_Source\PSoC4/CapSense_CSHL.c ****         #endif /* (CapSense_AUTO_RESET == CapSense_AUTO_RESET_DISABLE) */
 486:.\Generated_Source\PSoC4/CapSense_CSHL.c ****                 /* Make full Baseline 23 bits */
 487:.\Generated_Source\PSoC4/CapSense_CSHL.c ****                 calc = (uint32) CapSense_sensorBaseline[sensor] << 8u;
 488:.\Generated_Source\PSoC4/CapSense_CSHL.c ****                 calc |= (uint32) CapSense_sensorBaselineLow[sensor];
 489:.\Generated_Source\PSoC4/CapSense_CSHL.c **** 
 490:.\Generated_Source\PSoC4/CapSense_CSHL.c ****                 /* Add Raw Data to Baseline */
 491:.\Generated_Source\PSoC4/CapSense_CSHL.c ****                 calc += filteredRawData;
 492:.\Generated_Source\PSoC4/CapSense_CSHL.c **** 
 493:.\Generated_Source\PSoC4/CapSense_CSHL.c ****                 /* Sub the high Baseline */
 494:.\Generated_Source\PSoC4/CapSense_CSHL.c ****                 calc -= CapSense_sensorBaseline[sensor];
 495:.\Generated_Source\PSoC4/CapSense_CSHL.c **** 
 496:.\Generated_Source\PSoC4/CapSense_CSHL.c ****                 /* Put Baseline and BaselineLow */
 497:.\Generated_Source\PSoC4/CapSense_CSHL.c ****                 CapSense_sensorBaseline[sensor] = ((uint16) (calc >> 8u));
 498:.\Generated_Source\PSoC4/CapSense_CSHL.c ****                 CapSense_sensorBaselineLow[sensor] = ((uint8) calc);
 499:.\Generated_Source\PSoC4/CapSense_CSHL.c **** 
 500:.\Generated_Source\PSoC4/CapSense_CSHL.c ****                 CapSense_lowBaselineResetCnt[sensor] = 0u;
 501:.\Generated_Source\PSoC4/CapSense_CSHL.c ****         #if (CapSense_AUTO_RESET == CapSense_AUTO_RESET_DISABLE)
 502:.\Generated_Source\PSoC4/CapSense_CSHL.c ****             }
 503:.\Generated_Source\PSoC4/CapSense_CSHL.c ****         #endif /* (CapSense_AUTO_RESET == CapSense_AUTO_RESET_DISABLE) */
 504:.\Generated_Source\PSoC4/CapSense_CSHL.c ****     }
 505:.\Generated_Source\PSoC4/CapSense_CSHL.c **** 
 506:.\Generated_Source\PSoC4/CapSense_CSHL.c ****     /* Calculate Signal if positive difference > noiseThreshold */
 507:.\Generated_Source\PSoC4/CapSense_CSHL.c ****     if((tempRaw > (uint16) noiseThreshold) && (sign != 0u))
 508:.\Generated_Source\PSoC4/CapSense_CSHL.c ****     {
 509:.\Generated_Source\PSoC4/CapSense_CSHL.c ****         #if (CapSense_SIGNAL_SIZE == CapSense_SIGNAL_SIZE_UINT8)
 510:.\Generated_Source\PSoC4/CapSense_CSHL.c ****             /* Over flow defence for uint8 */
 511:.\Generated_Source\PSoC4/CapSense_CSHL.c ****             if (tempRaw > 0xFFu)
 512:.\Generated_Source\PSoC4/CapSense_CSHL.c ****             {
 513:.\Generated_Source\PSoC4/CapSense_CSHL.c ****                 CapSense_sensorSignal[sensor] = 0xFFu;
 514:.\Generated_Source\PSoC4/CapSense_CSHL.c ****             }
ARM GAS  C:\Users\Terence\AppData\Local\Temp\cc6R4aDx.s 			page 14


 515:.\Generated_Source\PSoC4/CapSense_CSHL.c ****             else
 516:.\Generated_Source\PSoC4/CapSense_CSHL.c ****             {
 517:.\Generated_Source\PSoC4/CapSense_CSHL.c ****                 CapSense_sensorSignal[sensor] = ((uint8) tempRaw);
 518:.\Generated_Source\PSoC4/CapSense_CSHL.c ****             }
 519:.\Generated_Source\PSoC4/CapSense_CSHL.c ****         #else
 520:.\Generated_Source\PSoC4/CapSense_CSHL.c ****             CapSense_sensorSignal[sensor] = ((uint16) tempRaw);
 521:.\Generated_Source\PSoC4/CapSense_CSHL.c ****         #endif  /* (CapSense_SIGNAL_SIZE == CapSense_SIGNAL_SIZE_UINT8) */
 522:.\Generated_Source\PSoC4/CapSense_CSHL.c ****     }
 523:.\Generated_Source\PSoC4/CapSense_CSHL.c ****     else
 524:.\Generated_Source\PSoC4/CapSense_CSHL.c ****     {
 525:.\Generated_Source\PSoC4/CapSense_CSHL.c ****         /* Signal is zero */
 526:.\Generated_Source\PSoC4/CapSense_CSHL.c ****         CapSense_sensorSignal[sensor] = 0u;
 527:.\Generated_Source\PSoC4/CapSense_CSHL.c ****     }
 528:.\Generated_Source\PSoC4/CapSense_CSHL.c **** 
 529:.\Generated_Source\PSoC4/CapSense_CSHL.c ****     #if (CapSense_TOTAL_GENERICS_COUNT)
 530:.\Generated_Source\PSoC4/CapSense_CSHL.c ****         /* Exclude generic widget */
 531:.\Generated_Source\PSoC4/CapSense_CSHL.c ****         }
 532:.\Generated_Source\PSoC4/CapSense_CSHL.c ****     #endif  /* CapSense_TOTAL_GENERICS_COUNT */
 533:.\Generated_Source\PSoC4/CapSense_CSHL.c **** }
 534:.\Generated_Source\PSoC4/CapSense_CSHL.c **** 
 535:.\Generated_Source\PSoC4/CapSense_CSHL.c **** 
 536:.\Generated_Source\PSoC4/CapSense_CSHL.c **** /*******************************************************************************
 537:.\Generated_Source\PSoC4/CapSense_CSHL.c **** * Function Name: CapSense_UpdateSensorBaseline
 538:.\Generated_Source\PSoC4/CapSense_CSHL.c **** ********************************************************************************
 539:.\Generated_Source\PSoC4/CapSense_CSHL.c **** *
 540:.\Generated_Source\PSoC4/CapSense_CSHL.c **** * Summary:
 541:.\Generated_Source\PSoC4/CapSense_CSHL.c **** *  Updates the CapSense_sensorBaseline[sensor] array element using the
 542:.\Generated_Source\PSoC4/CapSense_CSHL.c **** *  LP filter with k = 256. The signal calculates the difference of count by
 543:.\Generated_Source\PSoC4/CapSense_CSHL.c **** *  subtracting the previous baseline from the current raw count value and stores
 544:.\Generated_Source\PSoC4/CapSense_CSHL.c **** *  it in CapSense_sensorSignal[sensor].
 545:.\Generated_Source\PSoC4/CapSense_CSHL.c **** *  If the auto reset option is enabled, the baseline updated regards the noise threshold.
 546:.\Generated_Source\PSoC4/CapSense_CSHL.c **** *  If the auto reset option is disabled, the baseline stops updating.
 547:.\Generated_Source\PSoC4/CapSense_CSHL.c **** *  Baseline is loaded with raw count value if a signal is greater than zero and
 548:.\Generated_Source\PSoC4/CapSense_CSHL.c **** *  if signal is less than noise threshold.
 549:.\Generated_Source\PSoC4/CapSense_CSHL.c **** *  Raw data filters are applied to the values if enabled before baseline
 550:.\Generated_Source\PSoC4/CapSense_CSHL.c **** *  calculation.
 551:.\Generated_Source\PSoC4/CapSense_CSHL.c **** *  This API updates the thresholds in the Smartsense Mode.
 552:.\Generated_Source\PSoC4/CapSense_CSHL.c **** *
 553:.\Generated_Source\PSoC4/CapSense_CSHL.c **** * Parameters:
 554:.\Generated_Source\PSoC4/CapSense_CSHL.c **** *  sensor:  Sensor number.
 555:.\Generated_Source\PSoC4/CapSense_CSHL.c **** *
 556:.\Generated_Source\PSoC4/CapSense_CSHL.c **** * Return:
 557:.\Generated_Source\PSoC4/CapSense_CSHL.c **** *  None
 558:.\Generated_Source\PSoC4/CapSense_CSHL.c **** *
 559:.\Generated_Source\PSoC4/CapSense_CSHL.c **** * Global Variables:
 560:.\Generated_Source\PSoC4/CapSense_CSHL.c **** *  CapSense_widgetNumber[]  - stores widget numbers.
 561:.\Generated_Source\PSoC4/CapSense_CSHL.c **** *
 562:.\Generated_Source\PSoC4/CapSense_CSHL.c **** * Side Effects:
 563:.\Generated_Source\PSoC4/CapSense_CSHL.c **** *  None
 564:.\Generated_Source\PSoC4/CapSense_CSHL.c **** *
 565:.\Generated_Source\PSoC4/CapSense_CSHL.c **** *******************************************************************************/
 566:.\Generated_Source\PSoC4/CapSense_CSHL.c ****  void CapSense_UpdateSensorBaseline(uint32 sensor)
 567:.\Generated_Source\PSoC4/CapSense_CSHL.c **** {
 568:.\Generated_Source\PSoC4/CapSense_CSHL.c ****     #if (CapSense_TOTAL_GENERICS_COUNT)
 569:.\Generated_Source\PSoC4/CapSense_CSHL.c ****         uint32 widget;
 570:.\Generated_Source\PSoC4/CapSense_CSHL.c **** 
 571:.\Generated_Source\PSoC4/CapSense_CSHL.c ****         widget = CapSense_widgetNumber[sensor];
ARM GAS  C:\Users\Terence\AppData\Local\Temp\cc6R4aDx.s 			page 15


 572:.\Generated_Source\PSoC4/CapSense_CSHL.c **** 
 573:.\Generated_Source\PSoC4/CapSense_CSHL.c ****         /* Exclude generic widget */
 574:.\Generated_Source\PSoC4/CapSense_CSHL.c ****         if(widget < CapSense_END_OF_WIDGETS_INDEX)
 575:.\Generated_Source\PSoC4/CapSense_CSHL.c ****         {
 576:.\Generated_Source\PSoC4/CapSense_CSHL.c ****     #endif  /* CapSense_TOTAL_GENERICS_COUNT */
 577:.\Generated_Source\PSoC4/CapSense_CSHL.c **** 
 578:.\Generated_Source\PSoC4/CapSense_CSHL.c ****     #if (CapSense_TUNING_METHOD == CapSense__TUNING_AUTO)
 579:.\Generated_Source\PSoC4/CapSense_CSHL.c ****         CapSense_UpdateThresholds(sensor);
 580:.\Generated_Source\PSoC4/CapSense_CSHL.c ****     #endif /* (CapSense_TUNING_METHOD == CapSense__TUNING_AUTO) */
 581:.\Generated_Source\PSoC4/CapSense_CSHL.c **** 
 582:.\Generated_Source\PSoC4/CapSense_CSHL.c ****     CapSense_UpdateBaselineNoThreshold(sensor);
 583:.\Generated_Source\PSoC4/CapSense_CSHL.c **** 
 584:.\Generated_Source\PSoC4/CapSense_CSHL.c ****     #if (CapSense_TOTAL_GENERICS_COUNT)
 585:.\Generated_Source\PSoC4/CapSense_CSHL.c ****         /* Exclude generic widget */
 586:.\Generated_Source\PSoC4/CapSense_CSHL.c ****         }
 587:.\Generated_Source\PSoC4/CapSense_CSHL.c ****     #endif  /* CapSense_TOTAL_GENERICS_COUNT */
 588:.\Generated_Source\PSoC4/CapSense_CSHL.c **** }
 589:.\Generated_Source\PSoC4/CapSense_CSHL.c **** 
 590:.\Generated_Source\PSoC4/CapSense_CSHL.c **** 
 591:.\Generated_Source\PSoC4/CapSense_CSHL.c **** /*******************************************************************************
 592:.\Generated_Source\PSoC4/CapSense_CSHL.c **** * Function Name: CapSense_UpdateEnabledBaselines
 593:.\Generated_Source\PSoC4/CapSense_CSHL.c **** ********************************************************************************
 594:.\Generated_Source\PSoC4/CapSense_CSHL.c **** *
 595:.\Generated_Source\PSoC4/CapSense_CSHL.c **** * Summary:
 596:.\Generated_Source\PSoC4/CapSense_CSHL.c **** *  Checks CapSense_sensorEnableMask[] array and calls the
 597:.\Generated_Source\PSoC4/CapSense_CSHL.c **** *  CapSense_UpdateSensorBaseline function to update the baselines
 598:.\Generated_Source\PSoC4/CapSense_CSHL.c **** *  for the enabled sensors.
 599:.\Generated_Source\PSoC4/CapSense_CSHL.c **** *
 600:.\Generated_Source\PSoC4/CapSense_CSHL.c **** * Parameters:
 601:.\Generated_Source\PSoC4/CapSense_CSHL.c **** *  None
 602:.\Generated_Source\PSoC4/CapSense_CSHL.c **** *
 603:.\Generated_Source\PSoC4/CapSense_CSHL.c **** * Return:
 604:.\Generated_Source\PSoC4/CapSense_CSHL.c **** *  None
 605:.\Generated_Source\PSoC4/CapSense_CSHL.c **** *
 606:.\Generated_Source\PSoC4/CapSense_CSHL.c **** * Global Variables:
 607:.\Generated_Source\PSoC4/CapSense_CSHL.c **** *  CapSense_sensorEnableMask[] - used to store the sensor scanning
 608:.\Generated_Source\PSoC4/CapSense_CSHL.c **** *  state.
 609:.\Generated_Source\PSoC4/CapSense_CSHL.c **** *  CapSense_sensorEnableMask[0] contains the masked bits for sensors
 610:.\Generated_Source\PSoC4/CapSense_CSHL.c **** *   0 through 7 (sensor 0 is bit 0, sensor 1 is bit 1).
 611:.\Generated_Source\PSoC4/CapSense_CSHL.c **** *  CapSense_sensorEnableMask[1] contains the masked bits for
 612:.\Generated_Source\PSoC4/CapSense_CSHL.c **** *  sensors 8 through 15 (if needed), and so on.
 613:.\Generated_Source\PSoC4/CapSense_CSHL.c **** *  0 - sensor doesn't scan by CapSense_ScanEnabledWidgets().
 614:.\Generated_Source\PSoC4/CapSense_CSHL.c **** *  1 - sensor scans by CapSense_ScanEnabledWidgets().
 615:.\Generated_Source\PSoC4/CapSense_CSHL.c **** *
 616:.\Generated_Source\PSoC4/CapSense_CSHL.c **** * Side Effects:
 617:.\Generated_Source\PSoC4/CapSense_CSHL.c **** *  None
 618:.\Generated_Source\PSoC4/CapSense_CSHL.c **** *
 619:.\Generated_Source\PSoC4/CapSense_CSHL.c **** *******************************************************************************/
 620:.\Generated_Source\PSoC4/CapSense_CSHL.c ****  void CapSense_UpdateEnabledBaselines(void)
 621:.\Generated_Source\PSoC4/CapSense_CSHL.c **** {
 622:.\Generated_Source\PSoC4/CapSense_CSHL.c ****     uint32 i;
 623:.\Generated_Source\PSoC4/CapSense_CSHL.c ****     uint32 isSensorEnabled;
 624:.\Generated_Source\PSoC4/CapSense_CSHL.c **** 
 625:.\Generated_Source\PSoC4/CapSense_CSHL.c ****     for(i = 0u; i < CapSense_TOTAL_SENSOR_COUNT; i++)
 626:.\Generated_Source\PSoC4/CapSense_CSHL.c ****     {
 627:.\Generated_Source\PSoC4/CapSense_CSHL.c ****         isSensorEnabled = CapSense_GetBitValue(CapSense_sensorEnableMask, i);
 628:.\Generated_Source\PSoC4/CapSense_CSHL.c **** 
ARM GAS  C:\Users\Terence\AppData\Local\Temp\cc6R4aDx.s 			page 16


 629:.\Generated_Source\PSoC4/CapSense_CSHL.c ****         if(0u != isSensorEnabled)
 630:.\Generated_Source\PSoC4/CapSense_CSHL.c ****         {
 631:.\Generated_Source\PSoC4/CapSense_CSHL.c ****             CapSense_UpdateSensorBaseline(i);
 632:.\Generated_Source\PSoC4/CapSense_CSHL.c ****         }
 633:.\Generated_Source\PSoC4/CapSense_CSHL.c ****     }
 634:.\Generated_Source\PSoC4/CapSense_CSHL.c **** }
 635:.\Generated_Source\PSoC4/CapSense_CSHL.c **** 
 636:.\Generated_Source\PSoC4/CapSense_CSHL.c **** /*******************************************************************************
 637:.\Generated_Source\PSoC4/CapSense_CSHL.c **** * Function Name: CapSense_UpdateWidgetBaseline
 638:.\Generated_Source\PSoC4/CapSense_CSHL.c **** ********************************************************************************
 639:.\Generated_Source\PSoC4/CapSense_CSHL.c **** *
 640:.\Generated_Source\PSoC4/CapSense_CSHL.c **** * Summary:
 641:.\Generated_Source\PSoC4/CapSense_CSHL.c **** *  Checks CapSense_sensorEnableMask[] array and calls the
 642:.\Generated_Source\PSoC4/CapSense_CSHL.c **** *  CapSense_UpdateSensorBaseline function to update the baselines
 643:.\Generated_Source\PSoC4/CapSense_CSHL.c **** *  for the enabled sensors that belong to widget.
 644:.\Generated_Source\PSoC4/CapSense_CSHL.c **** *
 645:.\Generated_Source\PSoC4/CapSense_CSHL.c **** * Parameters:
 646:.\Generated_Source\PSoC4/CapSense_CSHL.c **** *  widget:  Widget number.
 647:.\Generated_Source\PSoC4/CapSense_CSHL.c **** *
 648:.\Generated_Source\PSoC4/CapSense_CSHL.c **** * Return:
 649:.\Generated_Source\PSoC4/CapSense_CSHL.c **** *  None
 650:.\Generated_Source\PSoC4/CapSense_CSHL.c **** *
 651:.\Generated_Source\PSoC4/CapSense_CSHL.c **** * Global Variables:
 652:.\Generated_Source\PSoC4/CapSense_CSHL.c **** *  CapSense_sensorEnableMask[] - used to store the sensor scanning
 653:.\Generated_Source\PSoC4/CapSense_CSHL.c **** *  state.
 654:.\Generated_Source\PSoC4/CapSense_CSHL.c **** *  CapSense_sensorEnableMask[0] contains the masked bits for sensors
 655:.\Generated_Source\PSoC4/CapSense_CSHL.c **** *   0 through 7 (sensor 0 is bit 0, sensor 1 is bit 1).
 656:.\Generated_Source\PSoC4/CapSense_CSHL.c **** *  CapSense_sensorEnableMask[1] contains the masked bits for
 657:.\Generated_Source\PSoC4/CapSense_CSHL.c **** *  sensors 8 through 15 (if needed), and so on.
 658:.\Generated_Source\PSoC4/CapSense_CSHL.c **** *  0 - sensor doesn't scan by CapSense_ScanEnabledWidgets().
 659:.\Generated_Source\PSoC4/CapSense_CSHL.c **** *  1 - sensor scans by CapSense_ScanEnabledWidgets().
 660:.\Generated_Source\PSoC4/CapSense_CSHL.c **** *
 661:.\Generated_Source\PSoC4/CapSense_CSHL.c **** * Side Effects:
 662:.\Generated_Source\PSoC4/CapSense_CSHL.c **** *  None
 663:.\Generated_Source\PSoC4/CapSense_CSHL.c **** *
 664:.\Generated_Source\PSoC4/CapSense_CSHL.c **** *******************************************************************************/
 665:.\Generated_Source\PSoC4/CapSense_CSHL.c **** void CapSense_UpdateWidgetBaseline(uint32 widget)
 666:.\Generated_Source\PSoC4/CapSense_CSHL.c **** {
 667:.\Generated_Source\PSoC4/CapSense_CSHL.c ****     uint32 sensorsPerWidget;
 668:.\Generated_Source\PSoC4/CapSense_CSHL.c ****     uint32 firstSensor;
 669:.\Generated_Source\PSoC4/CapSense_CSHL.c ****     uint32 lastSensor;
 670:.\Generated_Source\PSoC4/CapSense_CSHL.c ****     uint32 i;
 671:.\Generated_Source\PSoC4/CapSense_CSHL.c ****     uint32 isSensorEnabled;
 672:.\Generated_Source\PSoC4/CapSense_CSHL.c **** 
 673:.\Generated_Source\PSoC4/CapSense_CSHL.c ****     /* Get number of sensors in widget */
 674:.\Generated_Source\PSoC4/CapSense_CSHL.c ****     sensorsPerWidget = CapSense_numberOfSensors[widget];
 675:.\Generated_Source\PSoC4/CapSense_CSHL.c **** 
 676:.\Generated_Source\PSoC4/CapSense_CSHL.c ****     /* Get first sensor in widget */
 677:.\Generated_Source\PSoC4/CapSense_CSHL.c ****     firstSensor = CapSense_rawDataIndex[widget];
 678:.\Generated_Source\PSoC4/CapSense_CSHL.c **** 
 679:.\Generated_Source\PSoC4/CapSense_CSHL.c ****     /* Get last sensor in widget */
 680:.\Generated_Source\PSoC4/CapSense_CSHL.c ****     lastSensor = (CapSense_rawDataIndex[widget] + sensorsPerWidget);
 681:.\Generated_Source\PSoC4/CapSense_CSHL.c **** 
 682:.\Generated_Source\PSoC4/CapSense_CSHL.c ****     for(i = firstSensor; i < lastSensor; i++)
 683:.\Generated_Source\PSoC4/CapSense_CSHL.c ****     {
 684:.\Generated_Source\PSoC4/CapSense_CSHL.c ****         isSensorEnabled = CapSense_GetBitValue(CapSense_sensorEnableMask, i);
 685:.\Generated_Source\PSoC4/CapSense_CSHL.c **** 
ARM GAS  C:\Users\Terence\AppData\Local\Temp\cc6R4aDx.s 			page 17


 686:.\Generated_Source\PSoC4/CapSense_CSHL.c ****         if(0u != isSensorEnabled)
 687:.\Generated_Source\PSoC4/CapSense_CSHL.c ****         {
 688:.\Generated_Source\PSoC4/CapSense_CSHL.c ****             CapSense_UpdateSensorBaseline(i);
 689:.\Generated_Source\PSoC4/CapSense_CSHL.c ****         }
 690:.\Generated_Source\PSoC4/CapSense_CSHL.c ****     }
 691:.\Generated_Source\PSoC4/CapSense_CSHL.c **** }
 692:.\Generated_Source\PSoC4/CapSense_CSHL.c **** 
 693:.\Generated_Source\PSoC4/CapSense_CSHL.c **** 
 694:.\Generated_Source\PSoC4/CapSense_CSHL.c **** /*******************************************************************************
 695:.\Generated_Source\PSoC4/CapSense_CSHL.c **** * Function Name: CapSense_GetBaselineData
 696:.\Generated_Source\PSoC4/CapSense_CSHL.c **** ********************************************************************************
 697:.\Generated_Source\PSoC4/CapSense_CSHL.c **** *
 698:.\Generated_Source\PSoC4/CapSense_CSHL.c **** * Summary:
 699:.\Generated_Source\PSoC4/CapSense_CSHL.c **** *  This function reads the sensor baseline from the component.
 700:.\Generated_Source\PSoC4/CapSense_CSHL.c **** *
 701:.\Generated_Source\PSoC4/CapSense_CSHL.c **** * Parameters:
 702:.\Generated_Source\PSoC4/CapSense_CSHL.c **** *  sensor:  Sensor number.
 703:.\Generated_Source\PSoC4/CapSense_CSHL.c **** *
 704:.\Generated_Source\PSoC4/CapSense_CSHL.c **** * Return:
 705:.\Generated_Source\PSoC4/CapSense_CSHL.c **** *  This API returns the baseline value of the sensor indicated by an argument.
 706:.\Generated_Source\PSoC4/CapSense_CSHL.c **** *
 707:.\Generated_Source\PSoC4/CapSense_CSHL.c **** * Global Variables:
 708:.\Generated_Source\PSoC4/CapSense_CSHL.c **** *  CapSense_sensorBaseline[] - the array with an initial values by scanning
 709:.\Generated_Source\PSoC4/CapSense_CSHL.c **** *
 710:.\Generated_Source\PSoC4/CapSense_CSHL.c **** * Side Effects:
 711:.\Generated_Source\PSoC4/CapSense_CSHL.c **** *  None
 712:.\Generated_Source\PSoC4/CapSense_CSHL.c **** *
 713:.\Generated_Source\PSoC4/CapSense_CSHL.c **** *******************************************************************************/
 714:.\Generated_Source\PSoC4/CapSense_CSHL.c **** uint16 CapSense_GetBaselineData(uint32 sensor)
 715:.\Generated_Source\PSoC4/CapSense_CSHL.c **** {
 224              		.loc 1 715 0
 225              		.cfi_startproc
 226              	.LVL23:
 716:.\Generated_Source\PSoC4/CapSense_CSHL.c ****     return (CapSense_sensorBaseline[sensor]);
 227              		.loc 1 716 0
 228 0000 4000     		lsl	r0, r0, #1
 229              	.LVL24:
 230 0002 014B     		ldr	r3, .L18
 231 0004 185A     		ldrh	r0, [r3, r0]
 717:.\Generated_Source\PSoC4/CapSense_CSHL.c **** }
 232              		.loc 1 717 0
 233              		@ sp needed
 234 0006 7047     		bx	lr
 235              	.L19:
 236              		.align	2
 237              	.L18:
 238 0008 00000000 		.word	.LANCHOR0
 239              		.cfi_endproc
 240              	.LFE44:
 241              		.size	CapSense_GetBaselineData, .-CapSense_GetBaselineData
 242              		.section	.text.CapSense_SetBaselineData,"ax",%progbits
 243              		.align	2
 244              		.global	CapSense_SetBaselineData
 245              		.code	16
 246              		.thumb_func
 247              		.type	CapSense_SetBaselineData, %function
 248              	CapSense_SetBaselineData:
ARM GAS  C:\Users\Terence\AppData\Local\Temp\cc6R4aDx.s 			page 18


 249              	.LFB45:
 718:.\Generated_Source\PSoC4/CapSense_CSHL.c **** 
 719:.\Generated_Source\PSoC4/CapSense_CSHL.c **** 
 720:.\Generated_Source\PSoC4/CapSense_CSHL.c **** /*******************************************************************************
 721:.\Generated_Source\PSoC4/CapSense_CSHL.c **** * Function Name: CapSense_SetBaselineData
 722:.\Generated_Source\PSoC4/CapSense_CSHL.c **** ********************************************************************************
 723:.\Generated_Source\PSoC4/CapSense_CSHL.c **** *
 724:.\Generated_Source\PSoC4/CapSense_CSHL.c **** * Summary:
 725:.\Generated_Source\PSoC4/CapSense_CSHL.c **** *  This API writes the data value passed as an argument to the sensor baseline array.
 726:.\Generated_Source\PSoC4/CapSense_CSHL.c **** *
 727:.\Generated_Source\PSoC4/CapSense_CSHL.c **** * Parameters:
 728:.\Generated_Source\PSoC4/CapSense_CSHL.c **** *  sensor:  Sensor number.
 729:.\Generated_Source\PSoC4/CapSense_CSHL.c **** *  data:    Sensor baseline.
 730:.\Generated_Source\PSoC4/CapSense_CSHL.c **** *
 731:.\Generated_Source\PSoC4/CapSense_CSHL.c **** * Return:
 732:.\Generated_Source\PSoC4/CapSense_CSHL.c **** *  None.
 733:.\Generated_Source\PSoC4/CapSense_CSHL.c **** *
 734:.\Generated_Source\PSoC4/CapSense_CSHL.c **** * Global Variables:
 735:.\Generated_Source\PSoC4/CapSense_CSHL.c **** *  CapSense_sensorBaseline[] - the array with initial values by scanning
 736:.\Generated_Source\PSoC4/CapSense_CSHL.c **** *
 737:.\Generated_Source\PSoC4/CapSense_CSHL.c **** * Side Effects:
 738:.\Generated_Source\PSoC4/CapSense_CSHL.c **** *  None
 739:.\Generated_Source\PSoC4/CapSense_CSHL.c **** *
 740:.\Generated_Source\PSoC4/CapSense_CSHL.c **** *******************************************************************************/
 741:.\Generated_Source\PSoC4/CapSense_CSHL.c **** void CapSense_SetBaselineData(uint32 sensor, uint16 data)
 742:.\Generated_Source\PSoC4/CapSense_CSHL.c **** {
 250              		.loc 1 742 0
 251              		.cfi_startproc
 252              	.LVL25:
 743:.\Generated_Source\PSoC4/CapSense_CSHL.c ****     CapSense_sensorBaseline[sensor] = data;
 253              		.loc 1 743 0
 254 0000 4000     		lsl	r0, r0, #1
 255              	.LVL26:
 256 0002 014B     		ldr	r3, .L21
 257 0004 C152     		strh	r1, [r0, r3]
 744:.\Generated_Source\PSoC4/CapSense_CSHL.c **** }
 258              		.loc 1 744 0
 259              		@ sp needed
 260 0006 7047     		bx	lr
 261              	.L22:
 262              		.align	2
 263              	.L21:
 264 0008 00000000 		.word	.LANCHOR0
 265              		.cfi_endproc
 266              	.LFE45:
 267              		.size	CapSense_SetBaselineData, .-CapSense_SetBaselineData
 268              		.section	.text.CapSense_GetDiffCountData,"ax",%progbits
 269              		.align	2
 270              		.global	CapSense_GetDiffCountData
 271              		.code	16
 272              		.thumb_func
 273              		.type	CapSense_GetDiffCountData, %function
 274              	CapSense_GetDiffCountData:
 275              	.LFB46:
 745:.\Generated_Source\PSoC4/CapSense_CSHL.c **** 
 746:.\Generated_Source\PSoC4/CapSense_CSHL.c **** 
 747:.\Generated_Source\PSoC4/CapSense_CSHL.c **** /*******************************************************************************
ARM GAS  C:\Users\Terence\AppData\Local\Temp\cc6R4aDx.s 			page 19


 748:.\Generated_Source\PSoC4/CapSense_CSHL.c **** * Function Name: CapSense_GetDiffCountData
 749:.\Generated_Source\PSoC4/CapSense_CSHL.c **** ********************************************************************************
 750:.\Generated_Source\PSoC4/CapSense_CSHL.c **** *
 751:.\Generated_Source\PSoC4/CapSense_CSHL.c **** * Summary:
 752:.\Generated_Source\PSoC4/CapSense_CSHL.c **** *  This function returns the Sensor Signal from the component.
 753:.\Generated_Source\PSoC4/CapSense_CSHL.c **** *
 754:.\Generated_Source\PSoC4/CapSense_CSHL.c **** * Parameters:
 755:.\Generated_Source\PSoC4/CapSense_CSHL.c **** *  sensor:  Sensor number.
 756:.\Generated_Source\PSoC4/CapSense_CSHL.c **** *
 757:.\Generated_Source\PSoC4/CapSense_CSHL.c **** * Return:
 758:.\Generated_Source\PSoC4/CapSense_CSHL.c **** *  This API returns the difference count value of the sensor indicated by the
 759:.\Generated_Source\PSoC4/CapSense_CSHL.c **** *  argument.
 760:.\Generated_Source\PSoC4/CapSense_CSHL.c **** *
 761:.\Generated_Source\PSoC4/CapSense_CSHL.c **** * Global Variables:
 762:.\Generated_Source\PSoC4/CapSense_CSHL.c **** *  CapSense_sensorSignal[] - the array with difference counts for sensors
 763:.\Generated_Source\PSoC4/CapSense_CSHL.c **** *
 764:.\Generated_Source\PSoC4/CapSense_CSHL.c **** * Side Effects:
 765:.\Generated_Source\PSoC4/CapSense_CSHL.c **** *  None
 766:.\Generated_Source\PSoC4/CapSense_CSHL.c **** *
 767:.\Generated_Source\PSoC4/CapSense_CSHL.c **** *******************************************************************************/
 768:.\Generated_Source\PSoC4/CapSense_CSHL.c **** uint8 CapSense_GetDiffCountData(uint32 sensor)
 769:.\Generated_Source\PSoC4/CapSense_CSHL.c **** {
 276              		.loc 1 769 0
 277              		.cfi_startproc
 278              	.LVL27:
 770:.\Generated_Source\PSoC4/CapSense_CSHL.c ****     return (CapSense_sensorSignal[sensor]);
 279              		.loc 1 770 0
 280 0000 014B     		ldr	r3, .L24
 281 0002 2C33     		add	r3, r3, #44
 282 0004 185C     		ldrb	r0, [r3, r0]
 283              	.LVL28:
 771:.\Generated_Source\PSoC4/CapSense_CSHL.c **** }
 284              		.loc 1 771 0
 285              		@ sp needed
 286 0006 7047     		bx	lr
 287              	.L25:
 288              		.align	2
 289              	.L24:
 290 0008 00000000 		.word	.LANCHOR0
 291              		.cfi_endproc
 292              	.LFE46:
 293              		.size	CapSense_GetDiffCountData, .-CapSense_GetDiffCountData
 294              		.section	.text.CapSense_SetDiffCountData,"ax",%progbits
 295              		.align	2
 296              		.global	CapSense_SetDiffCountData
 297              		.code	16
 298              		.thumb_func
 299              		.type	CapSense_SetDiffCountData, %function
 300              	CapSense_SetDiffCountData:
 301              	.LFB47:
 772:.\Generated_Source\PSoC4/CapSense_CSHL.c **** 
 773:.\Generated_Source\PSoC4/CapSense_CSHL.c **** 
 774:.\Generated_Source\PSoC4/CapSense_CSHL.c **** /*******************************************************************************
 775:.\Generated_Source\PSoC4/CapSense_CSHL.c **** * Function Name: CapSense_SetDiffCountData
 776:.\Generated_Source\PSoC4/CapSense_CSHL.c **** ********************************************************************************
 777:.\Generated_Source\PSoC4/CapSense_CSHL.c **** *
 778:.\Generated_Source\PSoC4/CapSense_CSHL.c **** * Summary:
ARM GAS  C:\Users\Terence\AppData\Local\Temp\cc6R4aDx.s 			page 20


 779:.\Generated_Source\PSoC4/CapSense_CSHL.c **** *  This API writes the data value passed as an argument to the sensor signal array.
 780:.\Generated_Source\PSoC4/CapSense_CSHL.c **** *
 781:.\Generated_Source\PSoC4/CapSense_CSHL.c **** * Parameters:
 782:.\Generated_Source\PSoC4/CapSense_CSHL.c **** *  sensor:  Sensor number.
 783:.\Generated_Source\PSoC4/CapSense_CSHL.c **** *  value:   Sensor signal.
 784:.\Generated_Source\PSoC4/CapSense_CSHL.c **** *
 785:.\Generated_Source\PSoC4/CapSense_CSHL.c **** * Return:
 786:.\Generated_Source\PSoC4/CapSense_CSHL.c **** *  None.
 787:.\Generated_Source\PSoC4/CapSense_CSHL.c **** *
 788:.\Generated_Source\PSoC4/CapSense_CSHL.c **** * Global Variables:
 789:.\Generated_Source\PSoC4/CapSense_CSHL.c **** *  CapSense_sensorSignal[] - the array with difference counts for sensors
 790:.\Generated_Source\PSoC4/CapSense_CSHL.c **** *
 791:.\Generated_Source\PSoC4/CapSense_CSHL.c **** * Side Effects:
 792:.\Generated_Source\PSoC4/CapSense_CSHL.c **** *  None
 793:.\Generated_Source\PSoC4/CapSense_CSHL.c **** *
 794:.\Generated_Source\PSoC4/CapSense_CSHL.c **** *******************************************************************************/
 795:.\Generated_Source\PSoC4/CapSense_CSHL.c **** void CapSense_SetDiffCountData(uint32 sensor, uint8 value)
 796:.\Generated_Source\PSoC4/CapSense_CSHL.c **** {
 302              		.loc 1 796 0
 303              		.cfi_startproc
 304              	.LVL29:
 797:.\Generated_Source\PSoC4/CapSense_CSHL.c ****     CapSense_sensorSignal[sensor] = value;
 305              		.loc 1 797 0
 306 0000 014B     		ldr	r3, .L27
 307 0002 2C33     		add	r3, r3, #44
 308 0004 1954     		strb	r1, [r3, r0]
 798:.\Generated_Source\PSoC4/CapSense_CSHL.c **** }
 309              		.loc 1 798 0
 310              		@ sp needed
 311 0006 7047     		bx	lr
 312              	.L28:
 313              		.align	2
 314              	.L27:
 315 0008 00000000 		.word	.LANCHOR0
 316              		.cfi_endproc
 317              	.LFE47:
 318              		.size	CapSense_SetDiffCountData, .-CapSense_SetDiffCountData
 319              		.section	.text.CapSense_GetFingerThreshold,"ax",%progbits
 320              		.align	2
 321              		.global	CapSense_GetFingerThreshold
 322              		.code	16
 323              		.thumb_func
 324              		.type	CapSense_GetFingerThreshold, %function
 325              	CapSense_GetFingerThreshold:
 326              	.LFB48:
 799:.\Generated_Source\PSoC4/CapSense_CSHL.c **** 
 800:.\Generated_Source\PSoC4/CapSense_CSHL.c **** 
 801:.\Generated_Source\PSoC4/CapSense_CSHL.c **** /*******************************************************************************
 802:.\Generated_Source\PSoC4/CapSense_CSHL.c **** * Function Name: CapSense_GetFingerThreshold
 803:.\Generated_Source\PSoC4/CapSense_CSHL.c **** ********************************************************************************
 804:.\Generated_Source\PSoC4/CapSense_CSHL.c **** *
 805:.\Generated_Source\PSoC4/CapSense_CSHL.c **** * Summary:
 806:.\Generated_Source\PSoC4/CapSense_CSHL.c **** *  This function reads the finger threshold from the component.
 807:.\Generated_Source\PSoC4/CapSense_CSHL.c **** *
 808:.\Generated_Source\PSoC4/CapSense_CSHL.c **** * Parameters:
 809:.\Generated_Source\PSoC4/CapSense_CSHL.c **** *  widget:  widget number.
 810:.\Generated_Source\PSoC4/CapSense_CSHL.c **** *
ARM GAS  C:\Users\Terence\AppData\Local\Temp\cc6R4aDx.s 			page 21


 811:.\Generated_Source\PSoC4/CapSense_CSHL.c **** * Return:
 812:.\Generated_Source\PSoC4/CapSense_CSHL.c **** *  This API returns the finger threshold of the widget indicated by the argument.
 813:.\Generated_Source\PSoC4/CapSense_CSHL.c **** *
 814:.\Generated_Source\PSoC4/CapSense_CSHL.c **** * Global Variables:
 815:.\Generated_Source\PSoC4/CapSense_CSHL.c **** *  CapSense_fingerThreshold[] - This array contains the level of signal
 816:.\Generated_Source\PSoC4/CapSense_CSHL.c **** *  for each widget that is determined if a finger is present on the widget.
 817:.\Generated_Source\PSoC4/CapSense_CSHL.c **** *
 818:.\Generated_Source\PSoC4/CapSense_CSHL.c **** * Side Effects:
 819:.\Generated_Source\PSoC4/CapSense_CSHL.c **** *  None
 820:.\Generated_Source\PSoC4/CapSense_CSHL.c **** *
 821:.\Generated_Source\PSoC4/CapSense_CSHL.c **** *******************************************************************************/
 822:.\Generated_Source\PSoC4/CapSense_CSHL.c **** uint8 CapSense_GetFingerThreshold(uint32 widget)
 823:.\Generated_Source\PSoC4/CapSense_CSHL.c **** {
 327              		.loc 1 823 0
 328              		.cfi_startproc
 329              	.LVL30:
 824:.\Generated_Source\PSoC4/CapSense_CSHL.c ****     return(CapSense_fingerThreshold[widget]);
 330              		.loc 1 824 0
 331 0000 014B     		ldr	r3, .L30
 332 0002 1818     		add	r0, r3, r0
 333              	.LVL31:
 334 0004 007A     		ldrb	r0, [r0, #8]
 825:.\Generated_Source\PSoC4/CapSense_CSHL.c **** }
 335              		.loc 1 825 0
 336              		@ sp needed
 337 0006 7047     		bx	lr
 338              	.L31:
 339              		.align	2
 340              	.L30:
 341 0008 00000000 		.word	.LANCHOR1
 342              		.cfi_endproc
 343              	.LFE48:
 344              		.size	CapSense_GetFingerThreshold, .-CapSense_GetFingerThreshold
 345              		.section	.text.CapSense_GetNoiseThreshold,"ax",%progbits
 346              		.align	2
 347              		.global	CapSense_GetNoiseThreshold
 348              		.code	16
 349              		.thumb_func
 350              		.type	CapSense_GetNoiseThreshold, %function
 351              	CapSense_GetNoiseThreshold:
 352              	.LFB49:
 826:.\Generated_Source\PSoC4/CapSense_CSHL.c **** 
 827:.\Generated_Source\PSoC4/CapSense_CSHL.c **** 
 828:.\Generated_Source\PSoC4/CapSense_CSHL.c **** /*******************************************************************************
 829:.\Generated_Source\PSoC4/CapSense_CSHL.c **** * Function Name: CapSense_GetNoiseThreshold
 830:.\Generated_Source\PSoC4/CapSense_CSHL.c **** ********************************************************************************
 831:.\Generated_Source\PSoC4/CapSense_CSHL.c **** *
 832:.\Generated_Source\PSoC4/CapSense_CSHL.c **** * Summary:
 833:.\Generated_Source\PSoC4/CapSense_CSHL.c **** *  This function reads the noise threshold from the component.
 834:.\Generated_Source\PSoC4/CapSense_CSHL.c **** *
 835:.\Generated_Source\PSoC4/CapSense_CSHL.c **** * Parameters:
 836:.\Generated_Source\PSoC4/CapSense_CSHL.c **** *  widget:  widget number.
 837:.\Generated_Source\PSoC4/CapSense_CSHL.c **** *
 838:.\Generated_Source\PSoC4/CapSense_CSHL.c **** * Return:
 839:.\Generated_Source\PSoC4/CapSense_CSHL.c **** *  This API returns the noise threshold of the widget indicated by the argument.
 840:.\Generated_Source\PSoC4/CapSense_CSHL.c **** *
 841:.\Generated_Source\PSoC4/CapSense_CSHL.c **** * Global Variables:
ARM GAS  C:\Users\Terence\AppData\Local\Temp\cc6R4aDx.s 			page 22


 842:.\Generated_Source\PSoC4/CapSense_CSHL.c **** *  CapSense_noiseThreshold[] - This array contains the level of signal
 843:.\Generated_Source\PSoC4/CapSense_CSHL.c **** *  for each widget that determines the level of noise in the capacitive scan.
 844:.\Generated_Source\PSoC4/CapSense_CSHL.c **** *
 845:.\Generated_Source\PSoC4/CapSense_CSHL.c **** * Side Effects:
 846:.\Generated_Source\PSoC4/CapSense_CSHL.c **** *  None
 847:.\Generated_Source\PSoC4/CapSense_CSHL.c **** *
 848:.\Generated_Source\PSoC4/CapSense_CSHL.c **** *******************************************************************************/
 849:.\Generated_Source\PSoC4/CapSense_CSHL.c **** uint8 CapSense_GetNoiseThreshold(uint32 widget)
 850:.\Generated_Source\PSoC4/CapSense_CSHL.c **** {
 353              		.loc 1 850 0
 354              		.cfi_startproc
 355              	.LVL32:
 851:.\Generated_Source\PSoC4/CapSense_CSHL.c ****     return (CapSense_noiseThreshold[widget]);
 356              		.loc 1 851 0
 357 0000 014B     		ldr	r3, .L33
 358 0002 185C     		ldrb	r0, [r3, r0]
 359              	.LVL33:
 852:.\Generated_Source\PSoC4/CapSense_CSHL.c **** }
 360              		.loc 1 852 0
 361              		@ sp needed
 362 0004 7047     		bx	lr
 363              	.L34:
 364 0006 C046     		.align	2
 365              	.L33:
 366 0008 00000000 		.word	CapSense_noiseThreshold
 367              		.cfi_endproc
 368              	.LFE49:
 369              		.size	CapSense_GetNoiseThreshold, .-CapSense_GetNoiseThreshold
 370              		.section	.text.CapSense_GetFingerHysteresis,"ax",%progbits
 371              		.align	2
 372              		.global	CapSense_GetFingerHysteresis
 373              		.code	16
 374              		.thumb_func
 375              		.type	CapSense_GetFingerHysteresis, %function
 376              	CapSense_GetFingerHysteresis:
 377              	.LFB50:
 853:.\Generated_Source\PSoC4/CapSense_CSHL.c **** 
 854:.\Generated_Source\PSoC4/CapSense_CSHL.c **** 
 855:.\Generated_Source\PSoC4/CapSense_CSHL.c **** /*******************************************************************************
 856:.\Generated_Source\PSoC4/CapSense_CSHL.c **** * Function Name: CapSense_GetFingerHysteresis
 857:.\Generated_Source\PSoC4/CapSense_CSHL.c **** ********************************************************************************
 858:.\Generated_Source\PSoC4/CapSense_CSHL.c **** *
 859:.\Generated_Source\PSoC4/CapSense_CSHL.c **** * Summary:
 860:.\Generated_Source\PSoC4/CapSense_CSHL.c **** *  This function reads the Hysteresis value from the component.
 861:.\Generated_Source\PSoC4/CapSense_CSHL.c **** *
 862:.\Generated_Source\PSoC4/CapSense_CSHL.c **** * Parameters:
 863:.\Generated_Source\PSoC4/CapSense_CSHL.c **** *  widget:  widget number.
 864:.\Generated_Source\PSoC4/CapSense_CSHL.c **** *
 865:.\Generated_Source\PSoC4/CapSense_CSHL.c **** * Return:
 866:.\Generated_Source\PSoC4/CapSense_CSHL.c **** *  This API returns the Hysteresis of the widget indicated by the argument.
 867:.\Generated_Source\PSoC4/CapSense_CSHL.c **** *
 868:.\Generated_Source\PSoC4/CapSense_CSHL.c **** * Global Variables:
 869:.\Generated_Source\PSoC4/CapSense_CSHL.c **** *  CapSense_hysteresis[] - This array contains the hysteresis value
 870:.\Generated_Source\PSoC4/CapSense_CSHL.c **** *   for each widget.
 871:.\Generated_Source\PSoC4/CapSense_CSHL.c **** *  CapSense_widgetNumberSld - structure with dynamic sliders' parameters.
 872:.\Generated_Source\PSoC4/CapSense_CSHL.c **** *
 873:.\Generated_Source\PSoC4/CapSense_CSHL.c **** * Side Effects:
ARM GAS  C:\Users\Terence\AppData\Local\Temp\cc6R4aDx.s 			page 23


 874:.\Generated_Source\PSoC4/CapSense_CSHL.c **** *  None
 875:.\Generated_Source\PSoC4/CapSense_CSHL.c **** *
 876:.\Generated_Source\PSoC4/CapSense_CSHL.c **** *******************************************************************************/
 877:.\Generated_Source\PSoC4/CapSense_CSHL.c **** uint8 CapSense_GetFingerHysteresis(uint32 widget)
 878:.\Generated_Source\PSoC4/CapSense_CSHL.c **** {
 378              		.loc 1 878 0
 379              		.cfi_startproc
 380              	.LVL34:
 879:.\Generated_Source\PSoC4/CapSense_CSHL.c ****     return(CapSense_hysteresis[widget]);
 381              		.loc 1 879 0
 382 0000 014B     		ldr	r3, .L36
 383 0002 185C     		ldrb	r0, [r3, r0]
 384              	.LVL35:
 880:.\Generated_Source\PSoC4/CapSense_CSHL.c **** }
 385              		.loc 1 880 0
 386              		@ sp needed
 387 0004 7047     		bx	lr
 388              	.L37:
 389 0006 C046     		.align	2
 390              	.L36:
 391 0008 00000000 		.word	CapSense_hysteresis
 392              		.cfi_endproc
 393              	.LFE50:
 394              		.size	CapSense_GetFingerHysteresis, .-CapSense_GetFingerHysteresis
 395              		.section	.text.CapSense_GetNegativeNoiseThreshold,"ax",%progbits
 396              		.align	2
 397              		.global	CapSense_GetNegativeNoiseThreshold
 398              		.code	16
 399              		.thumb_func
 400              		.type	CapSense_GetNegativeNoiseThreshold, %function
 401              	CapSense_GetNegativeNoiseThreshold:
 402              	.LFB51:
 881:.\Generated_Source\PSoC4/CapSense_CSHL.c **** 
 882:.\Generated_Source\PSoC4/CapSense_CSHL.c **** 
 883:.\Generated_Source\PSoC4/CapSense_CSHL.c **** /*******************************************************************************
 884:.\Generated_Source\PSoC4/CapSense_CSHL.c **** * Function Name: CapSense_GetNegativeNoiseThreshold
 885:.\Generated_Source\PSoC4/CapSense_CSHL.c **** ********************************************************************************
 886:.\Generated_Source\PSoC4/CapSense_CSHL.c **** *
 887:.\Generated_Source\PSoC4/CapSense_CSHL.c **** * Summary:
 888:.\Generated_Source\PSoC4/CapSense_CSHL.c **** *  This function reads the negative noise threshold from the component.
 889:.\Generated_Source\PSoC4/CapSense_CSHL.c **** *
 890:.\Generated_Source\PSoC4/CapSense_CSHL.c **** * Parameters:
 891:.\Generated_Source\PSoC4/CapSense_CSHL.c **** *  None.
 892:.\Generated_Source\PSoC4/CapSense_CSHL.c **** *
 893:.\Generated_Source\PSoC4/CapSense_CSHL.c **** * Return Value:
 894:.\Generated_Source\PSoC4/CapSense_CSHL.c **** *  This API returns the negative noise threshold
 895:.\Generated_Source\PSoC4/CapSense_CSHL.c **** *
 896:.\Generated_Source\PSoC4/CapSense_CSHL.c **** * Global Variables:
 897:.\Generated_Source\PSoC4/CapSense_CSHL.c **** *  CapSense_negativeNoiseThreshold - This variable specifies the negative
 898:.\Generated_Source\PSoC4/CapSense_CSHL.c **** *   difference between the raw count and baseline levels for Baseline resetting
 899:.\Generated_Source\PSoC4/CapSense_CSHL.c **** *   to the raw count level.
 900:.\Generated_Source\PSoC4/CapSense_CSHL.c **** *
 901:.\Generated_Source\PSoC4/CapSense_CSHL.c **** * Side Effects:
 902:.\Generated_Source\PSoC4/CapSense_CSHL.c **** *  None
 903:.\Generated_Source\PSoC4/CapSense_CSHL.c **** *
 904:.\Generated_Source\PSoC4/CapSense_CSHL.c **** *******************************************************************************/
 905:.\Generated_Source\PSoC4/CapSense_CSHL.c **** uint8 CapSense_GetNegativeNoiseThreshold(uint32 widget)
ARM GAS  C:\Users\Terence\AppData\Local\Temp\cc6R4aDx.s 			page 24


 906:.\Generated_Source\PSoC4/CapSense_CSHL.c **** {
 403              		.loc 1 906 0
 404              		.cfi_startproc
 405              	.LVL36:
 907:.\Generated_Source\PSoC4/CapSense_CSHL.c **** #if (CapSense_TUNING_METHOD != CapSense__TUNING_NONE)
 908:.\Generated_Source\PSoC4/CapSense_CSHL.c ****     return(CapSense_negativeNoiseThreshold[widget]);
 406              		.loc 1 908 0
 407 0000 014B     		ldr	r3, .L39
 408 0002 185C     		ldrb	r0, [r3, r0]
 409              	.LVL37:
 909:.\Generated_Source\PSoC4/CapSense_CSHL.c **** #else
 910:.\Generated_Source\PSoC4/CapSense_CSHL.c ****     return(CapSense_NEGATIVE_NOISE_THRESHOLD);
 911:.\Generated_Source\PSoC4/CapSense_CSHL.c **** #endif /* (CapSense_TUNING_METHOD != CapSense__TUNING_NONE) */
 912:.\Generated_Source\PSoC4/CapSense_CSHL.c **** }
 410              		.loc 1 912 0
 411              		@ sp needed
 412 0004 7047     		bx	lr
 413              	.L40:
 414 0006 C046     		.align	2
 415              	.L39:
 416 0008 00000000 		.word	CapSense_negativeNoiseThreshold
 417              		.cfi_endproc
 418              	.LFE51:
 419              		.size	CapSense_GetNegativeNoiseThreshold, .-CapSense_GetNegativeNoiseThreshold
 420              		.section	.text.CapSense_SetFingerThreshold,"ax",%progbits
 421              		.align	2
 422              		.global	CapSense_SetFingerThreshold
 423              		.code	16
 424              		.thumb_func
 425              		.type	CapSense_SetFingerThreshold, %function
 426              	CapSense_SetFingerThreshold:
 427              	.LFB52:
 913:.\Generated_Source\PSoC4/CapSense_CSHL.c **** 
 914:.\Generated_Source\PSoC4/CapSense_CSHL.c **** 
 915:.\Generated_Source\PSoC4/CapSense_CSHL.c **** #if(CapSense_TUNING_METHOD != CapSense__TUNING_NONE)
 916:.\Generated_Source\PSoC4/CapSense_CSHL.c ****     /*******************************************************************************
 917:.\Generated_Source\PSoC4/CapSense_CSHL.c ****     * Function Name: CapSense_SetFingerThreshold
 918:.\Generated_Source\PSoC4/CapSense_CSHL.c ****     ********************************************************************************
 919:.\Generated_Source\PSoC4/CapSense_CSHL.c ****     *
 920:.\Generated_Source\PSoC4/CapSense_CSHL.c ****     * Summary:
 921:.\Generated_Source\PSoC4/CapSense_CSHL.c ****     *  This API sets the finger threshold value for a widget.
 922:.\Generated_Source\PSoC4/CapSense_CSHL.c ****     *
 923:.\Generated_Source\PSoC4/CapSense_CSHL.c ****     * Parameters:
 924:.\Generated_Source\PSoC4/CapSense_CSHL.c ****     *  sensorNumber:  widget index.
 925:.\Generated_Source\PSoC4/CapSense_CSHL.c ****     *  value:  Finger threshold value for the widget.
 926:.\Generated_Source\PSoC4/CapSense_CSHL.c ****     *
 927:.\Generated_Source\PSoC4/CapSense_CSHL.c ****     * Return Value:
 928:.\Generated_Source\PSoC4/CapSense_CSHL.c ****     *  None
 929:.\Generated_Source\PSoC4/CapSense_CSHL.c ****     *
 930:.\Generated_Source\PSoC4/CapSense_CSHL.c ****     * Global Variables:
 931:.\Generated_Source\PSoC4/CapSense_CSHL.c ****     *  CapSense_fingerThreshold[] - This array contains the level of signal
 932:.\Generated_Source\PSoC4/CapSense_CSHL.c ****     *   for each widget that determines if a finger is present on the widget.
 933:.\Generated_Source\PSoC4/CapSense_CSHL.c ****     *
 934:.\Generated_Source\PSoC4/CapSense_CSHL.c ****     * Side Effects:
 935:.\Generated_Source\PSoC4/CapSense_CSHL.c ****     *  None
 936:.\Generated_Source\PSoC4/CapSense_CSHL.c ****     *
 937:.\Generated_Source\PSoC4/CapSense_CSHL.c ****     *******************************************************************************/
ARM GAS  C:\Users\Terence\AppData\Local\Temp\cc6R4aDx.s 			page 25


 938:.\Generated_Source\PSoC4/CapSense_CSHL.c ****     void CapSense_SetFingerThreshold(uint32 widget, uint8 value)
 939:.\Generated_Source\PSoC4/CapSense_CSHL.c ****     {
 428              		.loc 1 939 0
 429              		.cfi_startproc
 430              	.LVL38:
 940:.\Generated_Source\PSoC4/CapSense_CSHL.c ****         CapSense_fingerThreshold[widget] = value;
 431              		.loc 1 940 0
 432 0000 014B     		ldr	r3, .L42
 433 0002 1818     		add	r0, r3, r0
 434              	.LVL39:
 435 0004 0172     		strb	r1, [r0, #8]
 941:.\Generated_Source\PSoC4/CapSense_CSHL.c ****     }
 436              		.loc 1 941 0
 437              		@ sp needed
 438 0006 7047     		bx	lr
 439              	.L43:
 440              		.align	2
 441              	.L42:
 442 0008 00000000 		.word	.LANCHOR1
 443              		.cfi_endproc
 444              	.LFE52:
 445              		.size	CapSense_SetFingerThreshold, .-CapSense_SetFingerThreshold
 446              		.section	.text.CapSense_SetNoiseThreshold,"ax",%progbits
 447              		.align	2
 448              		.global	CapSense_SetNoiseThreshold
 449              		.code	16
 450              		.thumb_func
 451              		.type	CapSense_SetNoiseThreshold, %function
 452              	CapSense_SetNoiseThreshold:
 453              	.LFB53:
 942:.\Generated_Source\PSoC4/CapSense_CSHL.c **** 
 943:.\Generated_Source\PSoC4/CapSense_CSHL.c **** 
 944:.\Generated_Source\PSoC4/CapSense_CSHL.c ****     /*******************************************************************************
 945:.\Generated_Source\PSoC4/CapSense_CSHL.c ****     * Function Name: CapSense_SetNoiseThreshold
 946:.\Generated_Source\PSoC4/CapSense_CSHL.c ****     ********************************************************************************
 947:.\Generated_Source\PSoC4/CapSense_CSHL.c ****     *
 948:.\Generated_Source\PSoC4/CapSense_CSHL.c ****     * Summary:
 949:.\Generated_Source\PSoC4/CapSense_CSHL.c ****     *  This API sets the Noise Threshold value for each widget.
 950:.\Generated_Source\PSoC4/CapSense_CSHL.c ****     *
 951:.\Generated_Source\PSoC4/CapSense_CSHL.c ****     * Parameters:
 952:.\Generated_Source\PSoC4/CapSense_CSHL.c ****     *  widget:  Sensor index number.
 953:.\Generated_Source\PSoC4/CapSense_CSHL.c ****     *  value:   Noise Threshold value for widget.
 954:.\Generated_Source\PSoC4/CapSense_CSHL.c ****     *
 955:.\Generated_Source\PSoC4/CapSense_CSHL.c ****     * Return Value:
 956:.\Generated_Source\PSoC4/CapSense_CSHL.c ****     *  None
 957:.\Generated_Source\PSoC4/CapSense_CSHL.c ****     *
 958:.\Generated_Source\PSoC4/CapSense_CSHL.c ****     * Global Variables:
 959:.\Generated_Source\PSoC4/CapSense_CSHL.c ****     *  CapSense_noiseThreshold[] - This array contains the level of signal
 960:.\Generated_Source\PSoC4/CapSense_CSHL.c ****     *   for each widget that determines the level of noise in the capacitive scan.
 961:.\Generated_Source\PSoC4/CapSense_CSHL.c ****     *
 962:.\Generated_Source\PSoC4/CapSense_CSHL.c ****     * Side Effects:
 963:.\Generated_Source\PSoC4/CapSense_CSHL.c ****     *  None
 964:.\Generated_Source\PSoC4/CapSense_CSHL.c ****     *
 965:.\Generated_Source\PSoC4/CapSense_CSHL.c ****     *******************************************************************************/
 966:.\Generated_Source\PSoC4/CapSense_CSHL.c ****     void CapSense_SetNoiseThreshold(uint32 widget, uint8 value)
 967:.\Generated_Source\PSoC4/CapSense_CSHL.c ****     {
 454              		.loc 1 967 0
ARM GAS  C:\Users\Terence\AppData\Local\Temp\cc6R4aDx.s 			page 26


 455              		.cfi_startproc
 456              	.LVL40:
 968:.\Generated_Source\PSoC4/CapSense_CSHL.c ****         CapSense_noiseThreshold[widget] = value;
 457              		.loc 1 968 0
 458 0000 014B     		ldr	r3, .L45
 459 0002 1954     		strb	r1, [r3, r0]
 969:.\Generated_Source\PSoC4/CapSense_CSHL.c ****     }
 460              		.loc 1 969 0
 461              		@ sp needed
 462 0004 7047     		bx	lr
 463              	.L46:
 464 0006 C046     		.align	2
 465              	.L45:
 466 0008 00000000 		.word	CapSense_noiseThreshold
 467              		.cfi_endproc
 468              	.LFE53:
 469              		.size	CapSense_SetNoiseThreshold, .-CapSense_SetNoiseThreshold
 470              		.section	.text.CapSense_SetFingerHysteresis,"ax",%progbits
 471              		.align	2
 472              		.global	CapSense_SetFingerHysteresis
 473              		.code	16
 474              		.thumb_func
 475              		.type	CapSense_SetFingerHysteresis, %function
 476              	CapSense_SetFingerHysteresis:
 477              	.LFB54:
 970:.\Generated_Source\PSoC4/CapSense_CSHL.c **** 
 971:.\Generated_Source\PSoC4/CapSense_CSHL.c **** 
 972:.\Generated_Source\PSoC4/CapSense_CSHL.c ****     /*******************************************************************************
 973:.\Generated_Source\PSoC4/CapSense_CSHL.c ****     * Function Name: CapSense_SetFingerHysteresis
 974:.\Generated_Source\PSoC4/CapSense_CSHL.c ****     ********************************************************************************
 975:.\Generated_Source\PSoC4/CapSense_CSHL.c ****     *
 976:.\Generated_Source\PSoC4/CapSense_CSHL.c ****     * Summary:
 977:.\Generated_Source\PSoC4/CapSense_CSHL.c ****     *  This API sets the Hysteresis value of a widget
 978:.\Generated_Source\PSoC4/CapSense_CSHL.c ****     *
 979:.\Generated_Source\PSoC4/CapSense_CSHL.c ****     * Parameters:
 980:.\Generated_Source\PSoC4/CapSense_CSHL.c ****     *  value:  Hysteresis value for widgets.
 981:.\Generated_Source\PSoC4/CapSense_CSHL.c ****     *  widget:  widget number
 982:.\Generated_Source\PSoC4/CapSense_CSHL.c ****     *
 983:.\Generated_Source\PSoC4/CapSense_CSHL.c ****     * Return Value:
 984:.\Generated_Source\PSoC4/CapSense_CSHL.c ****     *  None
 985:.\Generated_Source\PSoC4/CapSense_CSHL.c ****     *
 986:.\Generated_Source\PSoC4/CapSense_CSHL.c ****     * Global Variables:
 987:.\Generated_Source\PSoC4/CapSense_CSHL.c ****     *  CapSense_hysteresis[] - This array contains the hysteresis value for each widget.
 988:.\Generated_Source\PSoC4/CapSense_CSHL.c ****     *  CapSense_widgetNumberSld - structure with dynamic sliders' parameters.
 989:.\Generated_Source\PSoC4/CapSense_CSHL.c ****     *
 990:.\Generated_Source\PSoC4/CapSense_CSHL.c ****     * Side Effects:
 991:.\Generated_Source\PSoC4/CapSense_CSHL.c ****     *  None
 992:.\Generated_Source\PSoC4/CapSense_CSHL.c ****     *
 993:.\Generated_Source\PSoC4/CapSense_CSHL.c ****     *******************************************************************************/
 994:.\Generated_Source\PSoC4/CapSense_CSHL.c ****     void CapSense_SetFingerHysteresis(uint32 widget, uint8 value)
 995:.\Generated_Source\PSoC4/CapSense_CSHL.c ****     {
 478              		.loc 1 995 0
 479              		.cfi_startproc
 480              	.LVL41:
 996:.\Generated_Source\PSoC4/CapSense_CSHL.c ****         CapSense_hysteresis[widget] = value;
 481              		.loc 1 996 0
 482 0000 014B     		ldr	r3, .L48
ARM GAS  C:\Users\Terence\AppData\Local\Temp\cc6R4aDx.s 			page 27


 483 0002 1954     		strb	r1, [r3, r0]
 997:.\Generated_Source\PSoC4/CapSense_CSHL.c ****     }
 484              		.loc 1 997 0
 485              		@ sp needed
 486 0004 7047     		bx	lr
 487              	.L49:
 488 0006 C046     		.align	2
 489              	.L48:
 490 0008 00000000 		.word	CapSense_hysteresis
 491              		.cfi_endproc
 492              	.LFE54:
 493              		.size	CapSense_SetFingerHysteresis, .-CapSense_SetFingerHysteresis
 494              		.section	.text.CapSense_SetNegativeNoiseThreshold,"ax",%progbits
 495              		.align	2
 496              		.global	CapSense_SetNegativeNoiseThreshold
 497              		.code	16
 498              		.thumb_func
 499              		.type	CapSense_SetNegativeNoiseThreshold, %function
 500              	CapSense_SetNegativeNoiseThreshold:
 501              	.LFB55:
 998:.\Generated_Source\PSoC4/CapSense_CSHL.c **** 
 999:.\Generated_Source\PSoC4/CapSense_CSHL.c **** 
1000:.\Generated_Source\PSoC4/CapSense_CSHL.c ****     /*******************************************************************************
1001:.\Generated_Source\PSoC4/CapSense_CSHL.c ****     * Function Name: CapSense_SetNegativeNoiseThreshold
1002:.\Generated_Source\PSoC4/CapSense_CSHL.c ****     ********************************************************************************
1003:.\Generated_Source\PSoC4/CapSense_CSHL.c ****     *
1004:.\Generated_Source\PSoC4/CapSense_CSHL.c ****     * Summary:
1005:.\Generated_Source\PSoC4/CapSense_CSHL.c ****     *  This API sets the Negative Noise Threshold value of a widget
1006:.\Generated_Source\PSoC4/CapSense_CSHL.c ****     *
1007:.\Generated_Source\PSoC4/CapSense_CSHL.c ****     * Parameters:
1008:.\Generated_Source\PSoC4/CapSense_CSHL.c ****     *  value:  Negative Noise Threshold value for widgets.
1009:.\Generated_Source\PSoC4/CapSense_CSHL.c ****     *  widget: widget number
1010:.\Generated_Source\PSoC4/CapSense_CSHL.c ****     *
1011:.\Generated_Source\PSoC4/CapSense_CSHL.c ****     * Return Value:
1012:.\Generated_Source\PSoC4/CapSense_CSHL.c ****     *  None
1013:.\Generated_Source\PSoC4/CapSense_CSHL.c ****     *
1014:.\Generated_Source\PSoC4/CapSense_CSHL.c ****     * Global Variables:
1015:.\Generated_Source\PSoC4/CapSense_CSHL.c ****     *  CapSense_negativeNoiseThreshold  - This parameter specifies the negative
1016:.\Generated_Source\PSoC4/CapSense_CSHL.c ****     *   difference between the raw count and baseline levels for Baseline resetting to
1017:.\Generated_Source\PSoC4/CapSense_CSHL.c ****     *   the raw count level.
1018:.\Generated_Source\PSoC4/CapSense_CSHL.c ****     *
1019:.\Generated_Source\PSoC4/CapSense_CSHL.c ****     * Side Effects:
1020:.\Generated_Source\PSoC4/CapSense_CSHL.c ****     *  None
1021:.\Generated_Source\PSoC4/CapSense_CSHL.c ****     *
1022:.\Generated_Source\PSoC4/CapSense_CSHL.c ****     *******************************************************************************/
1023:.\Generated_Source\PSoC4/CapSense_CSHL.c ****     void CapSense_SetNegativeNoiseThreshold(uint32 widget, uint8 value)
1024:.\Generated_Source\PSoC4/CapSense_CSHL.c ****     {
 502              		.loc 1 1024 0
 503              		.cfi_startproc
 504              	.LVL42:
1025:.\Generated_Source\PSoC4/CapSense_CSHL.c ****         CapSense_negativeNoiseThreshold[widget] = value;
 505              		.loc 1 1025 0
 506 0000 014B     		ldr	r3, .L51
 507 0002 1954     		strb	r1, [r3, r0]
1026:.\Generated_Source\PSoC4/CapSense_CSHL.c ****     }
 508              		.loc 1 1026 0
 509              		@ sp needed
ARM GAS  C:\Users\Terence\AppData\Local\Temp\cc6R4aDx.s 			page 28


 510 0004 7047     		bx	lr
 511              	.L52:
 512 0006 C046     		.align	2
 513              	.L51:
 514 0008 00000000 		.word	CapSense_negativeNoiseThreshold
 515              		.cfi_endproc
 516              	.LFE55:
 517              		.size	CapSense_SetNegativeNoiseThreshold, .-CapSense_SetNegativeNoiseThreshold
 518              		.section	.text.CapSense_SetDebounce,"ax",%progbits
 519              		.align	2
 520              		.global	CapSense_SetDebounce
 521              		.code	16
 522              		.thumb_func
 523              		.type	CapSense_SetDebounce, %function
 524              	CapSense_SetDebounce:
 525              	.LFB56:
1027:.\Generated_Source\PSoC4/CapSense_CSHL.c **** 
1028:.\Generated_Source\PSoC4/CapSense_CSHL.c **** 
1029:.\Generated_Source\PSoC4/CapSense_CSHL.c ****     /*******************************************************************************
1030:.\Generated_Source\PSoC4/CapSense_CSHL.c ****     * Function Name: CapSense_SetDebounce
1031:.\Generated_Source\PSoC4/CapSense_CSHL.c ****     ********************************************************************************
1032:.\Generated_Source\PSoC4/CapSense_CSHL.c ****     *
1033:.\Generated_Source\PSoC4/CapSense_CSHL.c ****     * Summary:
1034:.\Generated_Source\PSoC4/CapSense_CSHL.c ****     *  This API sets the debounce value for a widget.
1035:.\Generated_Source\PSoC4/CapSense_CSHL.c ****     *
1036:.\Generated_Source\PSoC4/CapSense_CSHL.c ****     * Parameters:
1037:.\Generated_Source\PSoC4/CapSense_CSHL.c ****     *  value:  Debounce value for widget.
1038:.\Generated_Source\PSoC4/CapSense_CSHL.c ****     *  widget: widget index.
1039:.\Generated_Source\PSoC4/CapSense_CSHL.c ****     *
1040:.\Generated_Source\PSoC4/CapSense_CSHL.c ****     * Return Value:
1041:.\Generated_Source\PSoC4/CapSense_CSHL.c ****     *  None
1042:.\Generated_Source\PSoC4/CapSense_CSHL.c ****     *
1043:.\Generated_Source\PSoC4/CapSense_CSHL.c ****     * Global Variables:
1044:.\Generated_Source\PSoC4/CapSense_CSHL.c ****     *  CapSense_debounce[] - This array contains the debounce value for each widget.
1045:.\Generated_Source\PSoC4/CapSense_CSHL.c ****     *  CapSense_widgetNumberSld - structure with dynamic sliders' parameters.
1046:.\Generated_Source\PSoC4/CapSense_CSHL.c ****     *
1047:.\Generated_Source\PSoC4/CapSense_CSHL.c ****     * Side Effects:
1048:.\Generated_Source\PSoC4/CapSense_CSHL.c ****     *  None
1049:.\Generated_Source\PSoC4/CapSense_CSHL.c ****     *
1050:.\Generated_Source\PSoC4/CapSense_CSHL.c ****     *******************************************************************************/
1051:.\Generated_Source\PSoC4/CapSense_CSHL.c ****     void CapSense_SetDebounce(uint32 widget, uint8 value)
1052:.\Generated_Source\PSoC4/CapSense_CSHL.c ****     {
 526              		.loc 1 1052 0
 527              		.cfi_startproc
 528              	.LVL43:
1053:.\Generated_Source\PSoC4/CapSense_CSHL.c ****         CapSense_debounce[widget] = value;
 529              		.loc 1 1053 0
 530 0000 014B     		ldr	r3, .L54
 531 0002 1954     		strb	r1, [r3, r0]
1054:.\Generated_Source\PSoC4/CapSense_CSHL.c ****     }
 532              		.loc 1 1054 0
 533              		@ sp needed
 534 0004 7047     		bx	lr
 535              	.L55:
 536 0006 C046     		.align	2
 537              	.L54:
 538 0008 00000000 		.word	.LANCHOR1
ARM GAS  C:\Users\Terence\AppData\Local\Temp\cc6R4aDx.s 			page 29


 539              		.cfi_endproc
 540              	.LFE56:
 541              		.size	CapSense_SetDebounce, .-CapSense_SetDebounce
 542              		.section	.text.CapSense_SetLowBaselineReset,"ax",%progbits
 543              		.align	2
 544              		.global	CapSense_SetLowBaselineReset
 545              		.code	16
 546              		.thumb_func
 547              		.type	CapSense_SetLowBaselineReset, %function
 548              	CapSense_SetLowBaselineReset:
 549              	.LFB57:
1055:.\Generated_Source\PSoC4/CapSense_CSHL.c **** 
1056:.\Generated_Source\PSoC4/CapSense_CSHL.c **** 
1057:.\Generated_Source\PSoC4/CapSense_CSHL.c ****     /*******************************************************************************
1058:.\Generated_Source\PSoC4/CapSense_CSHL.c ****     * Function Name: CapSense_SetLowBaselineReset
1059:.\Generated_Source\PSoC4/CapSense_CSHL.c ****     ********************************************************************************
1060:.\Generated_Source\PSoC4/CapSense_CSHL.c ****     *
1061:.\Generated_Source\PSoC4/CapSense_CSHL.c ****     * Summary:
1062:.\Generated_Source\PSoC4/CapSense_CSHL.c ****     *  This API sets the low baseline reset threshold value for the sensor.
1063:.\Generated_Source\PSoC4/CapSense_CSHL.c ****     *
1064:.\Generated_Source\PSoC4/CapSense_CSHL.c ****     * Parameters:
1065:.\Generated_Source\PSoC4/CapSense_CSHL.c ****     *  value: low baseline reset threshold value.
1066:.\Generated_Source\PSoC4/CapSense_CSHL.c ****     *  sensor: Sensor index.
1067:.\Generated_Source\PSoC4/CapSense_CSHL.c ****     *
1068:.\Generated_Source\PSoC4/CapSense_CSHL.c ****     * Return Value:
1069:.\Generated_Source\PSoC4/CapSense_CSHL.c ****     *  None
1070:.\Generated_Source\PSoC4/CapSense_CSHL.c ****     *
1071:.\Generated_Source\PSoC4/CapSense_CSHL.c ****     * Global Variables:
1072:.\Generated_Source\PSoC4/CapSense_CSHL.c ****     *  CapSense_lowBaselineReset[] - This array contains the Baseline update
1073:.\Generated_Source\PSoC4/CapSense_CSHL.c ****     *  threshold value for each sensor.
1074:.\Generated_Source\PSoC4/CapSense_CSHL.c ****     *
1075:.\Generated_Source\PSoC4/CapSense_CSHL.c ****     * Side Effects:
1076:.\Generated_Source\PSoC4/CapSense_CSHL.c ****     *  None
1077:.\Generated_Source\PSoC4/CapSense_CSHL.c ****     *
1078:.\Generated_Source\PSoC4/CapSense_CSHL.c ****     *******************************************************************************/
1079:.\Generated_Source\PSoC4/CapSense_CSHL.c ****     void CapSense_SetLowBaselineReset(uint32 sensor, uint8 value)
1080:.\Generated_Source\PSoC4/CapSense_CSHL.c ****     {
 550              		.loc 1 1080 0
 551              		.cfi_startproc
 552              	.LVL44:
1081:.\Generated_Source\PSoC4/CapSense_CSHL.c ****         CapSense_lowBaselineReset[sensor] = value;
 553              		.loc 1 1081 0
 554 0000 014B     		ldr	r3, .L57
 555 0002 1818     		add	r0, r3, r0
 556              	.LVL45:
 557 0004 0174     		strb	r1, [r0, #16]
1082:.\Generated_Source\PSoC4/CapSense_CSHL.c ****     }
 558              		.loc 1 1082 0
 559              		@ sp needed
 560 0006 7047     		bx	lr
 561              	.L58:
 562              		.align	2
 563              	.L57:
 564 0008 00000000 		.word	.LANCHOR1
 565              		.cfi_endproc
 566              	.LFE57:
 567              		.size	CapSense_SetLowBaselineReset, .-CapSense_SetLowBaselineReset
ARM GAS  C:\Users\Terence\AppData\Local\Temp\cc6R4aDx.s 			page 30


 568              		.section	.text.CapSense_CheckIsSensorActive,"ax",%progbits
 569              		.align	2
 570              		.global	CapSense_CheckIsSensorActive
 571              		.code	16
 572              		.thumb_func
 573              		.type	CapSense_CheckIsSensorActive, %function
 574              	CapSense_CheckIsSensorActive:
 575              	.LFB58:
1083:.\Generated_Source\PSoC4/CapSense_CSHL.c **** #endif /* (CapSense_TUNING_METHOD != CapSense__TUNING_NONE) */
1084:.\Generated_Source\PSoC4/CapSense_CSHL.c **** 
1085:.\Generated_Source\PSoC4/CapSense_CSHL.c **** 
1086:.\Generated_Source\PSoC4/CapSense_CSHL.c **** /*******************************************************************************
1087:.\Generated_Source\PSoC4/CapSense_CSHL.c **** * Function Name: CapSense_CheckIsSensorActive
1088:.\Generated_Source\PSoC4/CapSense_CSHL.c **** ********************************************************************************
1089:.\Generated_Source\PSoC4/CapSense_CSHL.c **** *
1090:.\Generated_Source\PSoC4/CapSense_CSHL.c **** * Summary:
1091:.\Generated_Source\PSoC4/CapSense_CSHL.c **** *  Compares the CapSense_sensorSignal[sensor] array element to the finger
1092:.\Generated_Source\PSoC4/CapSense_CSHL.c **** *  threshold of the widget it belongs to. The hysteresis and debounce are taken into
1093:.\Generated_Source\PSoC4/CapSense_CSHL.c **** *  account. The hysteresis is added or subtracted from the finger threshold
1094:.\Generated_Source\PSoC4/CapSense_CSHL.c **** *  based on whether the sensor is currently active.
1095:.\Generated_Source\PSoC4/CapSense_CSHL.c **** *  If the sensor is active, the threshold is lowered by the hysteresis amount.
1096:.\Generated_Source\PSoC4/CapSense_CSHL.c **** *  If the sensor is inactive, the threshold is raised by the hysteresis amount.
1097:.\Generated_Source\PSoC4/CapSense_CSHL.c **** *  The debounce counter is added to the sensor active transition.
1098:.\Generated_Source\PSoC4/CapSense_CSHL.c **** *  This function updates the CapSense_sensorOnMask[] array element.
1099:.\Generated_Source\PSoC4/CapSense_CSHL.c **** *
1100:.\Generated_Source\PSoC4/CapSense_CSHL.c **** * Parameters:
1101:.\Generated_Source\PSoC4/CapSense_CSHL.c **** *  sensor:  Sensor number.
1102:.\Generated_Source\PSoC4/CapSense_CSHL.c **** *
1103:.\Generated_Source\PSoC4/CapSense_CSHL.c **** * Return:
1104:.\Generated_Source\PSoC4/CapSense_CSHL.c **** *  Returns sensor state 1 if active, 0 if not active.
1105:.\Generated_Source\PSoC4/CapSense_CSHL.c **** *
1106:.\Generated_Source\PSoC4/CapSense_CSHL.c **** * Global Variables:
1107:.\Generated_Source\PSoC4/CapSense_CSHL.c **** *  CapSense_sensorSignal[] - used to store the difference between
1108:.\Generated_Source\PSoC4/CapSense_CSHL.c **** *  the current value of raw data and a previous value of the baseline.
1109:.\Generated_Source\PSoC4/CapSense_CSHL.c **** *  CapSense_debounceCounter[]   - used to store the current debounce
1110:.\Generated_Source\PSoC4/CapSense_CSHL.c **** *  counter of the sensor. the widget which have this parameter are buttons, matrix
1111:.\Generated_Source\PSoC4/CapSense_CSHL.c **** *  buttons, proximity, and guard. All other widgets don't have the  debounce parameter
1112:.\Generated_Source\PSoC4/CapSense_CSHL.c **** *  and use the last element of this array with value 0 (it means no debounce).
1113:.\Generated_Source\PSoC4/CapSense_CSHL.c **** *  CapSense_sensorOnMask[] - used to store the sensors on/off state.
1114:.\Generated_Source\PSoC4/CapSense_CSHL.c **** *  CapSense_sensorOnMask[0] contains the masked bits for sensors
1115:.\Generated_Source\PSoC4/CapSense_CSHL.c **** *   0 through 7 (sensor 0 is bit 0, sensor 1 is bit 1).
1116:.\Generated_Source\PSoC4/CapSense_CSHL.c **** *  CapSense_sensorEnableMask[1] contains the masked bits for
1117:.\Generated_Source\PSoC4/CapSense_CSHL.c **** *  sensors 8 through 15 (if needed), and so on.
1118:.\Generated_Source\PSoC4/CapSense_CSHL.c **** *  0 - sensor is inactive.
1119:.\Generated_Source\PSoC4/CapSense_CSHL.c **** *  1 - sensor is active.
1120:.\Generated_Source\PSoC4/CapSense_CSHL.c **** *
1121:.\Generated_Source\PSoC4/CapSense_CSHL.c **** * Side Effects:
1122:.\Generated_Source\PSoC4/CapSense_CSHL.c **** *  None
1123:.\Generated_Source\PSoC4/CapSense_CSHL.c **** *
1124:.\Generated_Source\PSoC4/CapSense_CSHL.c **** *******************************************************************************/
1125:.\Generated_Source\PSoC4/CapSense_CSHL.c **** uint32 CapSense_CheckIsSensorActive(uint32 sensor)
1126:.\Generated_Source\PSoC4/CapSense_CSHL.c **** {
 576              		.loc 1 1126 0
 577              		.cfi_startproc
 578              	.LVL46:
 579 0000 F0B5     		push	{r4, r5, r6, r7, lr}
 580              		.cfi_def_cfa_offset 20
ARM GAS  C:\Users\Terence\AppData\Local\Temp\cc6R4aDx.s 			page 31


 581              		.cfi_offset 4, -20
 582              		.cfi_offset 5, -16
 583              		.cfi_offset 6, -12
 584              		.cfi_offset 7, -8
 585              		.cfi_offset 14, -4
 586 0002 4746     		mov	r7, r8
 587 0004 80B4     		push	{r7}
 588              		.cfi_def_cfa_offset 24
 589              		.cfi_offset 8, -24
 590 0006 051C     		mov	r5, r0
1127:.\Generated_Source\PSoC4/CapSense_CSHL.c ****     uint8 widget;
1128:.\Generated_Source\PSoC4/CapSense_CSHL.c ****     uint8 debounce;
1129:.\Generated_Source\PSoC4/CapSense_CSHL.c ****     uint8 debounceIndex;
1130:.\Generated_Source\PSoC4/CapSense_CSHL.c **** 
1131:.\Generated_Source\PSoC4/CapSense_CSHL.c ****     uint8 fingerThreshold;
1132:.\Generated_Source\PSoC4/CapSense_CSHL.c ****     uint8 hysteresis;
1133:.\Generated_Source\PSoC4/CapSense_CSHL.c ****     
1134:.\Generated_Source\PSoC4/CapSense_CSHL.c **** 
1135:.\Generated_Source\PSoC4/CapSense_CSHL.c ****     /* Prepare to find debounce counter index */
1136:.\Generated_Source\PSoC4/CapSense_CSHL.c ****     widget = CapSense_widgetNumber[sensor];
 591              		.loc 1 1136 0
 592 0008 274B     		ldr	r3, .L66
 593 000a 1B5C     		ldrb	r3, [r3, r0]
 594              	.LVL47:
1137:.\Generated_Source\PSoC4/CapSense_CSHL.c **** 
1138:.\Generated_Source\PSoC4/CapSense_CSHL.c ****     fingerThreshold = CapSense_fingerThreshold[widget];
 595              		.loc 1 1138 0
 596 000c 274A     		ldr	r2, .L66+4
 597 000e D118     		add	r1, r2, r3
 598 0010 0F7A     		ldrb	r7, [r1, #8]
 599              	.LVL48:
1139:.\Generated_Source\PSoC4/CapSense_CSHL.c ****     hysteresis = CapSense_hysteresis[widget];
 600              		.loc 1 1139 0
 601 0012 2749     		ldr	r1, .L66+8
 602 0014 CE5C     		ldrb	r6, [r1, r3]
 603              	.LVL49:
1140:.\Generated_Source\PSoC4/CapSense_CSHL.c ****     debounce = CapSense_debounce[widget];
 604              		.loc 1 1140 0
 605 0016 D25C     		ldrb	r2, [r2, r3]
 606 0018 9046     		mov	r8, r2
 607              	.LVL50:
1141:.\Generated_Source\PSoC4/CapSense_CSHL.c **** 
1142:.\Generated_Source\PSoC4/CapSense_CSHL.c ****         if (widget < CapSense_TOTAL_CENTROIDS_COUNT)
 608              		.loc 1 1142 0
 609 001a 002B     		cmp	r3, #0
 610 001c 05D1     		bne	.L60
 611              	.LVL51:
1143:.\Generated_Source\PSoC4/CapSense_CSHL.c ****     {
1144:.\Generated_Source\PSoC4/CapSense_CSHL.c ****         debounceIndex = CapSense_UNUSED_DEBOUNCE_COUNTER_INDEX;
1145:.\Generated_Source\PSoC4/CapSense_CSHL.c ****         CapSense_debounceCounter[debounceIndex] = 1u;
 612              		.loc 1 1145 0
 613 001e 0122     		mov	r2, #1
 614 0020 244B     		ldr	r3, .L66+12
 615              	.LVL52:
 616 0022 3C33     		add	r3, r3, #60
 617 0024 5A71     		strb	r2, [r3, #5]
1144:.\Generated_Source\PSoC4/CapSense_CSHL.c ****         CapSense_debounceCounter[debounceIndex] = 1u;
ARM GAS  C:\Users\Terence\AppData\Local\Temp\cc6R4aDx.s 			page 32


 618              		.loc 1 1144 0
 619 0026 0524     		mov	r4, #5
 620 0028 01E0     		b	.L61
 621              	.LVL53:
 622              	.L60:
1146:.\Generated_Source\PSoC4/CapSense_CSHL.c ****     }
1147:.\Generated_Source\PSoC4/CapSense_CSHL.c ****     else
1148:.\Generated_Source\PSoC4/CapSense_CSHL.c ****     {
1149:.\Generated_Source\PSoC4/CapSense_CSHL.c ****         debounceIndex = widget - (CapSense_END_OF_TOUCH_PAD_INDEX + 1u);
 623              		.loc 1 1149 0
 624 002a 013B     		sub	r3, r3, #1
 625              	.LVL54:
 626 002c DCB2     		uxtb	r4, r3
 627              	.LVL55:
 628              	.L61:
1150:.\Generated_Source\PSoC4/CapSense_CSHL.c ****     }
1151:.\Generated_Source\PSoC4/CapSense_CSHL.c **** 
1152:.\Generated_Source\PSoC4/CapSense_CSHL.c **** 
1153:.\Generated_Source\PSoC4/CapSense_CSHL.c ****     /* Was on */
1154:.\Generated_Source\PSoC4/CapSense_CSHL.c ****     if (0u != CapSense_GetBitValue(CapSense_sensorOnMask, sensor))
 629              		.loc 1 1154 0
 630 002e 2148     		ldr	r0, .L66+12
 631              	.LVL56:
 632 0030 4430     		add	r0, r0, #68
 633 0032 291C     		mov	r1, r5
 634 0034 FFF7FEFF 		bl	CapSense_GetBitValue
 635              	.LVL57:
 636 0038 0028     		cmp	r0, #0
 637 003a 10D0     		beq	.L62
1155:.\Generated_Source\PSoC4/CapSense_CSHL.c ****     {
1156:.\Generated_Source\PSoC4/CapSense_CSHL.c ****         /* Hysteresis minus */
1157:.\Generated_Source\PSoC4/CapSense_CSHL.c ****         if (CapSense_sensorSignal[sensor] < (fingerThreshold - hysteresis))
 638              		.loc 1 1157 0
 639 003c 1D4B     		ldr	r3, .L66+12
 640 003e 2C33     		add	r3, r3, #44
 641 0040 5B5D     		ldrb	r3, [r3, r5]
 642 0042 BE1B     		sub	r6, r7, r6
 643              	.LVL58:
 644 0044 B342     		cmp	r3, r6
 645 0046 23DA     		bge	.L63
1158:.\Generated_Source\PSoC4/CapSense_CSHL.c ****         {
1159:.\Generated_Source\PSoC4/CapSense_CSHL.c ****             CapSense_SetBitValue(CapSense_sensorOnMask, sensor, 0u);
 646              		.loc 1 1159 0
 647 0048 1A4E     		ldr	r6, .L66+12
 648 004a 301C     		mov	r0, r6
 649 004c 4430     		add	r0, r0, #68
 650 004e 291C     		mov	r1, r5
 651 0050 0022     		mov	r2, #0
 652 0052 FFF7FEFF 		bl	CapSense_SetBitValue
 653              	.LVL59:
1160:.\Generated_Source\PSoC4/CapSense_CSHL.c ****             /* Sensor inactive - reset Debounce counter */
1161:.\Generated_Source\PSoC4/CapSense_CSHL.c ****             CapSense_debounceCounter[debounceIndex] = debounce;
 654              		.loc 1 1161 0
 655 0056 3C36     		add	r6, r6, #60
 656 0058 4346     		mov	r3, r8
 657 005a 3355     		strb	r3, [r6, r4]
 658 005c 18E0     		b	.L63
ARM GAS  C:\Users\Terence\AppData\Local\Temp\cc6R4aDx.s 			page 33


 659              	.LVL60:
 660              	.L62:
1162:.\Generated_Source\PSoC4/CapSense_CSHL.c ****         }
1163:.\Generated_Source\PSoC4/CapSense_CSHL.c ****     }
1164:.\Generated_Source\PSoC4/CapSense_CSHL.c ****     else    /* Was off */
1165:.\Generated_Source\PSoC4/CapSense_CSHL.c ****     {
1166:.\Generated_Source\PSoC4/CapSense_CSHL.c ****         /* Hysteresis plus */
1167:.\Generated_Source\PSoC4/CapSense_CSHL.c ****         if (CapSense_sensorSignal[sensor] >= (fingerThreshold + hysteresis))
 661              		.loc 1 1167 0
 662 005e 154B     		ldr	r3, .L66+12
 663 0060 2C33     		add	r3, r3, #44
 664 0062 5B5D     		ldrb	r3, [r3, r5]
 665 0064 BE19     		add	r6, r7, r6
 666              	.LVL61:
 667 0066 B342     		cmp	r3, r6
 668 0068 0EDB     		blt	.L64
1168:.\Generated_Source\PSoC4/CapSense_CSHL.c ****         {
1169:.\Generated_Source\PSoC4/CapSense_CSHL.c ****             CapSense_debounceCounter[debounceIndex]--;
 669              		.loc 1 1169 0
 670 006a 124A     		ldr	r2, .L66+12
 671 006c 3C32     		add	r2, r2, #60
 672 006e 135D     		ldrb	r3, [r2, r4]
 673 0070 013B     		sub	r3, r3, #1
 674 0072 DBB2     		uxtb	r3, r3
 675 0074 1355     		strb	r3, [r2, r4]
1170:.\Generated_Source\PSoC4/CapSense_CSHL.c ****             /* Sensor active, decrement debounce counter */
1171:.\Generated_Source\PSoC4/CapSense_CSHL.c ****             if(CapSense_debounceCounter[debounceIndex] == 0u)
 676              		.loc 1 1171 0
 677 0076 002B     		cmp	r3, #0
 678 0078 0AD1     		bne	.L63
1172:.\Generated_Source\PSoC4/CapSense_CSHL.c ****             {
1173:.\Generated_Source\PSoC4/CapSense_CSHL.c ****                 CapSense_SetBitValue(CapSense_sensorOnMask, sensor, 1u);
 679              		.loc 1 1173 0
 680 007a 0E48     		ldr	r0, .L66+12
 681 007c 4430     		add	r0, r0, #68
 682 007e 291C     		mov	r1, r5
 683 0080 0122     		mov	r2, #1
 684 0082 FFF7FEFF 		bl	CapSense_SetBitValue
 685              	.LVL62:
 686 0086 03E0     		b	.L63
 687              	.L64:
1174:.\Generated_Source\PSoC4/CapSense_CSHL.c ****             }
1175:.\Generated_Source\PSoC4/CapSense_CSHL.c ****         }
1176:.\Generated_Source\PSoC4/CapSense_CSHL.c ****         else
1177:.\Generated_Source\PSoC4/CapSense_CSHL.c ****         {
1178:.\Generated_Source\PSoC4/CapSense_CSHL.c ****             /* Sensor inactive - reset Debounce counter */
1179:.\Generated_Source\PSoC4/CapSense_CSHL.c ****             CapSense_debounceCounter[debounceIndex] = debounce;
 688              		.loc 1 1179 0
 689 0088 0A4B     		ldr	r3, .L66+12
 690 008a 3C33     		add	r3, r3, #60
 691 008c 4246     		mov	r2, r8
 692 008e 1A55     		strb	r2, [r3, r4]
 693              	.L63:
1180:.\Generated_Source\PSoC4/CapSense_CSHL.c ****         }
1181:.\Generated_Source\PSoC4/CapSense_CSHL.c ****     }
1182:.\Generated_Source\PSoC4/CapSense_CSHL.c **** 
1183:.\Generated_Source\PSoC4/CapSense_CSHL.c ****     return ((uint32)((0u != CapSense_GetBitValue(CapSense_sensorOnMask, sensor)) ? 1u : 0u));
ARM GAS  C:\Users\Terence\AppData\Local\Temp\cc6R4aDx.s 			page 34


 694              		.loc 1 1183 0
 695 0090 0848     		ldr	r0, .L66+12
 696 0092 4430     		add	r0, r0, #68
 697 0094 291C     		mov	r1, r5
 698 0096 FFF7FEFF 		bl	CapSense_GetBitValue
 699              	.LVL63:
 700 009a 0028     		cmp	r0, #0
 701 009c 00D0     		beq	.L65
 702 009e 0120     		mov	r0, #1
 703              	.L65:
1184:.\Generated_Source\PSoC4/CapSense_CSHL.c **** }
 704              		.loc 1 1184 0 discriminator 4
 705              		@ sp needed
 706              	.LVL64:
 707              	.LVL65:
 708              	.LVL66:
 709              	.LVL67:
 710 00a0 04BC     		pop	{r2}
 711 00a2 9046     		mov	r8, r2
 712 00a4 F0BD     		pop	{r4, r5, r6, r7, pc}
 713              	.L67:
 714 00a6 C046     		.align	2
 715              	.L66:
 716 00a8 00000000 		.word	CapSense_widgetNumber
 717 00ac 00000000 		.word	.LANCHOR1
 718 00b0 00000000 		.word	CapSense_hysteresis
 719 00b4 00000000 		.word	.LANCHOR0
 720              		.cfi_endproc
 721              	.LFE58:
 722              		.size	CapSense_CheckIsSensorActive, .-CapSense_CheckIsSensorActive
 723              		.section	.text.CapSense_CheckIsWidgetActive,"ax",%progbits
 724              		.align	2
 725              		.global	CapSense_CheckIsWidgetActive
 726              		.code	16
 727              		.thumb_func
 728              		.type	CapSense_CheckIsWidgetActive, %function
 729              	CapSense_CheckIsWidgetActive:
 730              	.LFB59:
1185:.\Generated_Source\PSoC4/CapSense_CSHL.c **** 
1186:.\Generated_Source\PSoC4/CapSense_CSHL.c **** 
1187:.\Generated_Source\PSoC4/CapSense_CSHL.c **** /*******************************************************************************
1188:.\Generated_Source\PSoC4/CapSense_CSHL.c **** * Function Name: CapSense_CheckIsWidgetActive
1189:.\Generated_Source\PSoC4/CapSense_CSHL.c **** ********************************************************************************
1190:.\Generated_Source\PSoC4/CapSense_CSHL.c **** *
1191:.\Generated_Source\PSoC4/CapSense_CSHL.c **** * Summary:
1192:.\Generated_Source\PSoC4/CapSense_CSHL.c **** *  Compares the CapSense_sensorSignal[] array element to the finger threshold of
1193:.\Generated_Source\PSoC4/CapSense_CSHL.c **** * the widget it belongs to. The hysteresis and debounce are taken into account.
1194:.\Generated_Source\PSoC4/CapSense_CSHL.c **** * The hysteresis is added or subtracted from the finger threshold based on whether
1195:.\Generated_Source\PSoC4/CapSense_CSHL.c **** *  the sensor is currently active. If the sensor is active, the threshold is
1196:.\Generated_Source\PSoC4/CapSense_CSHL.c **** *  lowered by the hysteresis amount. If the sensor is inactive, the threshold
1197:.\Generated_Source\PSoC4/CapSense_CSHL.c **** *  is raised by the hysteresis amount.
1198:.\Generated_Source\PSoC4/CapSense_CSHL.c **** * The debounce counter added to the sensor active transition.
1199:.\Generated_Source\PSoC4/CapSense_CSHL.c **** * This function updates CapSense_sensorOnMask[] array element
1200:.\Generated_Source\PSoC4/CapSense_CSHL.c **** *
1201:.\Generated_Source\PSoC4/CapSense_CSHL.c **** * Parameters:
1202:.\Generated_Source\PSoC4/CapSense_CSHL.c **** *  widget:  widget number.
1203:.\Generated_Source\PSoC4/CapSense_CSHL.c **** *
ARM GAS  C:\Users\Terence\AppData\Local\Temp\cc6R4aDx.s 			page 35


1204:.\Generated_Source\PSoC4/CapSense_CSHL.c **** * Return:
1205:.\Generated_Source\PSoC4/CapSense_CSHL.c **** *  Returns widget sensor state 1 if one or more sensors within widget is/are
1206:.\Generated_Source\PSoC4/CapSense_CSHL.c **** *  active, 0 if all sensors within widget are inactive.
1207:.\Generated_Source\PSoC4/CapSense_CSHL.c **** *
1208:.\Generated_Source\PSoC4/CapSense_CSHL.c **** * Global Variables:
1209:.\Generated_Source\PSoC4/CapSense_CSHL.c **** *  rawDataIndex[]: Contains the  1st sensor position in the widget
1210:.\Generated_Source\PSoC4/CapSense_CSHL.c **** *
1211:.\Generated_Source\PSoC4/CapSense_CSHL.c **** * Side Effects:
1212:.\Generated_Source\PSoC4/CapSense_CSHL.c **** *  None
1213:.\Generated_Source\PSoC4/CapSense_CSHL.c **** *
1214:.\Generated_Source\PSoC4/CapSense_CSHL.c **** *******************************************************************************/
1215:.\Generated_Source\PSoC4/CapSense_CSHL.c **** uint32 CapSense_CheckIsWidgetActive(uint32 widget)
1216:.\Generated_Source\PSoC4/CapSense_CSHL.c **** {
 731              		.loc 1 1216 0
 732              		.cfi_startproc
 733              	.LVL68:
 734 0000 70B5     		push	{r4, r5, r6, lr}
 735              		.cfi_def_cfa_offset 16
 736              		.cfi_offset 4, -16
 737              		.cfi_offset 5, -12
 738              		.cfi_offset 6, -8
 739              		.cfi_offset 14, -4
1217:.\Generated_Source\PSoC4/CapSense_CSHL.c ****     uint32 rawIndex = (uint32)CapSense_rawDataIndex[widget];
 740              		.loc 1 1217 0
 741 0002 084B     		ldr	r3, .L72
 742 0004 1C5C     		ldrb	r4, [r3, r0]
 743              	.LVL69:
1218:.\Generated_Source\PSoC4/CapSense_CSHL.c ****     uint32 numOfSensors = (uint32)CapSense_numberOfSensors[widget] + rawIndex;
 744              		.loc 1 1218 0
 745 0006 1818     		add	r0, r3, r0
 746              	.LVL70:
 747 0008 057A     		ldrb	r5, [r0, #8]
 748 000a 2D19     		add	r5, r5, r4
 749              	.LVL71:
1219:.\Generated_Source\PSoC4/CapSense_CSHL.c ****     uint32 state = 0u;
 750              		.loc 1 1219 0
 751 000c 0026     		mov	r6, #0
 752              	.LVL72:
 753              	.L70:
1220:.\Generated_Source\PSoC4/CapSense_CSHL.c **** 
1221:.\Generated_Source\PSoC4/CapSense_CSHL.c ****     /* Check all sensors of widget */
1222:.\Generated_Source\PSoC4/CapSense_CSHL.c ****     do
1223:.\Generated_Source\PSoC4/CapSense_CSHL.c ****     {
1224:.\Generated_Source\PSoC4/CapSense_CSHL.c ****         if(CapSense_CheckIsSensorActive((uint32)rawIndex) != 0u)
 754              		.loc 1 1224 0
 755 000e 201C     		mov	r0, r4
 756 0010 FFF7FEFF 		bl	CapSense_CheckIsSensorActive
 757              	.LVL73:
 758 0014 0028     		cmp	r0, #0
 759 0016 00D0     		beq	.L69
1225:.\Generated_Source\PSoC4/CapSense_CSHL.c ****         {
1226:.\Generated_Source\PSoC4/CapSense_CSHL.c ****             state = CapSense_SENSOR_IS_ACTIVE;
 760              		.loc 1 1226 0
 761 0018 0126     		mov	r6, #1
 762              	.LVL74:
 763              	.L69:
1227:.\Generated_Source\PSoC4/CapSense_CSHL.c ****         }
ARM GAS  C:\Users\Terence\AppData\Local\Temp\cc6R4aDx.s 			page 36


1228:.\Generated_Source\PSoC4/CapSense_CSHL.c ****         rawIndex++;
 764              		.loc 1 1228 0
 765 001a 0134     		add	r4, r4, #1
 766              	.LVL75:
1229:.\Generated_Source\PSoC4/CapSense_CSHL.c ****     }
1230:.\Generated_Source\PSoC4/CapSense_CSHL.c ****     while(rawIndex < numOfSensors);
 767              		.loc 1 1230 0
 768 001c AC42     		cmp	r4, r5
 769 001e F6D3     		bcc	.L70
1231:.\Generated_Source\PSoC4/CapSense_CSHL.c **** 
1232:.\Generated_Source\PSoC4/CapSense_CSHL.c **** 
1233:.\Generated_Source\PSoC4/CapSense_CSHL.c **** 
1234:.\Generated_Source\PSoC4/CapSense_CSHL.c ****     return state;
1235:.\Generated_Source\PSoC4/CapSense_CSHL.c **** }
 770              		.loc 1 1235 0
 771 0020 301C     		mov	r0, r6
 772              		@ sp needed
 773              	.LVL76:
 774              	.LVL77:
 775              	.LVL78:
 776 0022 70BD     		pop	{r4, r5, r6, pc}
 777              	.L73:
 778              		.align	2
 779              	.L72:
 780 0024 00000000 		.word	.LANCHOR2
 781              		.cfi_endproc
 782              	.LFE59:
 783              		.size	CapSense_CheckIsWidgetActive, .-CapSense_CheckIsWidgetActive
 784              		.section	.text.CapSense_CheckIsAnyWidgetActive,"ax",%progbits
 785              		.align	2
 786              		.global	CapSense_CheckIsAnyWidgetActive
 787              		.code	16
 788              		.thumb_func
 789              		.type	CapSense_CheckIsAnyWidgetActive, %function
 790              	CapSense_CheckIsAnyWidgetActive:
 791              	.LFB60:
1236:.\Generated_Source\PSoC4/CapSense_CSHL.c **** 
1237:.\Generated_Source\PSoC4/CapSense_CSHL.c **** 
1238:.\Generated_Source\PSoC4/CapSense_CSHL.c **** /*******************************************************************************
1239:.\Generated_Source\PSoC4/CapSense_CSHL.c **** * Function Name: CapSense_CheckIsAnyWidgetActive
1240:.\Generated_Source\PSoC4/CapSense_CSHL.c **** ********************************************************************************
1241:.\Generated_Source\PSoC4/CapSense_CSHL.c **** *
1242:.\Generated_Source\PSoC4/CapSense_CSHL.c **** * Summary:
1243:.\Generated_Source\PSoC4/CapSense_CSHL.c **** *  Compares all the sensors of the CapSense_Signal[] array to their finger
1244:.\Generated_Source\PSoC4/CapSense_CSHL.c **** *  threshold. Calls CapSense_CheckIsWidgetActive() for each widget so
1245:.\Generated_Source\PSoC4/CapSense_CSHL.c **** *  the CapSense_sensorOnMask[] array is up to date after calling this
1246:.\Generated_Source\PSoC4/CapSense_CSHL.c **** *  function.
1247:.\Generated_Source\PSoC4/CapSense_CSHL.c **** *
1248:.\Generated_Source\PSoC4/CapSense_CSHL.c **** * Parameters:
1249:.\Generated_Source\PSoC4/CapSense_CSHL.c **** *  widget:  widget number.
1250:.\Generated_Source\PSoC4/CapSense_CSHL.c **** *
1251:.\Generated_Source\PSoC4/CapSense_CSHL.c **** * Return:
1252:.\Generated_Source\PSoC4/CapSense_CSHL.c **** *  Returns 1 if any widget is active, 0 none of widgets are active.
1253:.\Generated_Source\PSoC4/CapSense_CSHL.c **** *
1254:.\Generated_Source\PSoC4/CapSense_CSHL.c **** * Global Variables:
1255:.\Generated_Source\PSoC4/CapSense_CSHL.c **** *  None
1256:.\Generated_Source\PSoC4/CapSense_CSHL.c **** *
ARM GAS  C:\Users\Terence\AppData\Local\Temp\cc6R4aDx.s 			page 37


1257:.\Generated_Source\PSoC4/CapSense_CSHL.c **** * Side Effects:
1258:.\Generated_Source\PSoC4/CapSense_CSHL.c **** *  None
1259:.\Generated_Source\PSoC4/CapSense_CSHL.c **** *
1260:.\Generated_Source\PSoC4/CapSense_CSHL.c **** *******************************************************************************/
1261:.\Generated_Source\PSoC4/CapSense_CSHL.c **** uint32 CapSense_CheckIsAnyWidgetActive(void)
1262:.\Generated_Source\PSoC4/CapSense_CSHL.c **** {
 792              		.loc 1 1262 0
 793              		.cfi_startproc
 794 0000 38B5     		push	{r3, r4, r5, lr}
 795              		.cfi_def_cfa_offset 16
 796              		.cfi_offset 3, -16
 797              		.cfi_offset 4, -12
 798              		.cfi_offset 5, -8
 799              		.cfi_offset 14, -4
 800              	.LVL79:
1263:.\Generated_Source\PSoC4/CapSense_CSHL.c **** 
1264:.\Generated_Source\PSoC4/CapSense_CSHL.c ****         uint32 i;
1265:.\Generated_Source\PSoC4/CapSense_CSHL.c ****     uint32 state = 0u;
 801              		.loc 1 1265 0
 802 0002 0025     		mov	r5, #0
1266:.\Generated_Source\PSoC4/CapSense_CSHL.c ****     
1267:.\Generated_Source\PSoC4/CapSense_CSHL.c ****     for(i = 0u; i < CapSense_TOTAL_WIDGET_COUNT; i++)
 803              		.loc 1 1267 0
 804 0004 0024     		mov	r4, #0
 805 0006 06E0     		b	.L75
 806              	.LVL80:
 807              	.L77:
1268:.\Generated_Source\PSoC4/CapSense_CSHL.c ****     {
1269:.\Generated_Source\PSoC4/CapSense_CSHL.c ****         if (CapSense_CheckIsWidgetActive(i) != 0u)
 808              		.loc 1 1269 0
 809 0008 201C     		mov	r0, r4
 810 000a FFF7FEFF 		bl	CapSense_CheckIsWidgetActive
 811              	.LVL81:
 812 000e 0028     		cmp	r0, #0
 813 0010 00D0     		beq	.L76
1270:.\Generated_Source\PSoC4/CapSense_CSHL.c ****         {
1271:.\Generated_Source\PSoC4/CapSense_CSHL.c ****             state = CapSense_WIDGET_IS_ACTIVE;
 814              		.loc 1 1271 0
 815 0012 0125     		mov	r5, #1
 816              	.LVL82:
 817              	.L76:
1267:.\Generated_Source\PSoC4/CapSense_CSHL.c ****     {
 818              		.loc 1 1267 0 discriminator 2
 819 0014 0134     		add	r4, r4, #1
 820              	.LVL83:
 821              	.L75:
1267:.\Generated_Source\PSoC4/CapSense_CSHL.c ****     {
 822              		.loc 1 1267 0 is_stmt 0 discriminator 1
 823 0016 052C     		cmp	r4, #5
 824 0018 F6D9     		bls	.L77
1272:.\Generated_Source\PSoC4/CapSense_CSHL.c ****         }
1273:.\Generated_Source\PSoC4/CapSense_CSHL.c ****     }
1274:.\Generated_Source\PSoC4/CapSense_CSHL.c ****     
1275:.\Generated_Source\PSoC4/CapSense_CSHL.c **** 
1276:.\Generated_Source\PSoC4/CapSense_CSHL.c **** 
1277:.\Generated_Source\PSoC4/CapSense_CSHL.c ****     return state;
1278:.\Generated_Source\PSoC4/CapSense_CSHL.c **** }
ARM GAS  C:\Users\Terence\AppData\Local\Temp\cc6R4aDx.s 			page 38


 825              		.loc 1 1278 0 is_stmt 1
 826 001a 281C     		mov	r0, r5
 827              		@ sp needed
 828              	.LVL84:
 829              	.LVL85:
 830 001c 38BD     		pop	{r3, r4, r5, pc}
 831              		.cfi_endproc
 832              	.LFE60:
 833              		.size	CapSense_CheckIsAnyWidgetActive, .-CapSense_CheckIsAnyWidgetActive
 834 001e C046     		.section	.text.CapSense_EnableWidget,"ax",%progbits
 835              		.align	2
 836              		.global	CapSense_EnableWidget
 837              		.code	16
 838              		.thumb_func
 839              		.type	CapSense_EnableWidget, %function
 840              	CapSense_EnableWidget:
 841              	.LFB61:
1279:.\Generated_Source\PSoC4/CapSense_CSHL.c **** 
1280:.\Generated_Source\PSoC4/CapSense_CSHL.c **** 
1281:.\Generated_Source\PSoC4/CapSense_CSHL.c **** /*******************************************************************************
1282:.\Generated_Source\PSoC4/CapSense_CSHL.c **** * Function Name: CapSense_EnableWidget
1283:.\Generated_Source\PSoC4/CapSense_CSHL.c **** ********************************************************************************
1284:.\Generated_Source\PSoC4/CapSense_CSHL.c **** *
1285:.\Generated_Source\PSoC4/CapSense_CSHL.c **** * Summary:
1286:.\Generated_Source\PSoC4/CapSense_CSHL.c **** *  Enables all the widget elements (sensors) to the scanning process.
1287:.\Generated_Source\PSoC4/CapSense_CSHL.c **** *
1288:.\Generated_Source\PSoC4/CapSense_CSHL.c **** * Parameters:
1289:.\Generated_Source\PSoC4/CapSense_CSHL.c **** *  widget:  widget number.
1290:.\Generated_Source\PSoC4/CapSense_CSHL.c **** *
1291:.\Generated_Source\PSoC4/CapSense_CSHL.c **** * Return:
1292:.\Generated_Source\PSoC4/CapSense_CSHL.c **** *  None
1293:.\Generated_Source\PSoC4/CapSense_CSHL.c **** *
1294:.\Generated_Source\PSoC4/CapSense_CSHL.c **** * Global Variables:
1295:.\Generated_Source\PSoC4/CapSense_CSHL.c **** *  CapSense_sensorEnableMask[] - used to store the sensor scanning
1296:.\Generated_Source\PSoC4/CapSense_CSHL.c **** *  state.
1297:.\Generated_Source\PSoC4/CapSense_CSHL.c **** *  CapSense_sensorEnableMask[0] contains the masked bits for sensors
1298:.\Generated_Source\PSoC4/CapSense_CSHL.c **** *  0 through 7 (sensor 0 is bit 0, sensor 1 is bit 1).
1299:.\Generated_Source\PSoC4/CapSense_CSHL.c **** *  CapSense_sensorEnableMask[1] contains the masked bits for
1300:.\Generated_Source\PSoC4/CapSense_CSHL.c **** *  sensors 8 through 15 (if needed), and so on.
1301:.\Generated_Source\PSoC4/CapSense_CSHL.c **** *  0 - sensor doesn't scan by CapSense_ScanEnabledWidgets().
1302:.\Generated_Source\PSoC4/CapSense_CSHL.c **** *  1 - sensor scans by CapSense_ScanEnabledWidgets().
1303:.\Generated_Source\PSoC4/CapSense_CSHL.c **** *
1304:.\Generated_Source\PSoC4/CapSense_CSHL.c **** * Side Effects:
1305:.\Generated_Source\PSoC4/CapSense_CSHL.c **** *  None
1306:.\Generated_Source\PSoC4/CapSense_CSHL.c **** *
1307:.\Generated_Source\PSoC4/CapSense_CSHL.c **** *******************************************************************************/
1308:.\Generated_Source\PSoC4/CapSense_CSHL.c **** void CapSense_EnableWidget(uint32 widget)
1309:.\Generated_Source\PSoC4/CapSense_CSHL.c **** {
 842              		.loc 1 1309 0
 843              		.cfi_startproc
 844              	.LVL86:
 845 0000 38B5     		push	{r3, r4, r5, lr}
 846              		.cfi_def_cfa_offset 16
 847              		.cfi_offset 3, -16
 848              		.cfi_offset 4, -12
 849              		.cfi_offset 5, -8
 850              		.cfi_offset 14, -4
ARM GAS  C:\Users\Terence\AppData\Local\Temp\cc6R4aDx.s 			page 39


1310:.\Generated_Source\PSoC4/CapSense_CSHL.c **** 
1311:.\Generated_Source\PSoC4/CapSense_CSHL.c ****     uint8 rawIndex = CapSense_rawDataIndex[widget];
 851              		.loc 1 1311 0
 852 0002 084B     		ldr	r3, .L81
 853 0004 1C5C     		ldrb	r4, [r3, r0]
 854              	.LVL87:
1312:.\Generated_Source\PSoC4/CapSense_CSHL.c ****     uint8 numOfSensors = CapSense_numberOfSensors[widget] + rawIndex;
 855              		.loc 1 1312 0
 856 0006 1818     		add	r0, r3, r0
 857              	.LVL88:
 858 0008 057A     		ldrb	r5, [r0, #8]
 859 000a 2D19     		add	r5, r5, r4
 860 000c EDB2     		uxtb	r5, r5
 861              	.LVL89:
 862              	.L80:
1313:.\Generated_Source\PSoC4/CapSense_CSHL.c **** 
1314:.\Generated_Source\PSoC4/CapSense_CSHL.c ****     /* Enable all sensors of widget */
1315:.\Generated_Source\PSoC4/CapSense_CSHL.c ****     do
1316:.\Generated_Source\PSoC4/CapSense_CSHL.c ****     {
1317:.\Generated_Source\PSoC4/CapSense_CSHL.c ****         CapSense_SetBitValue(CapSense_sensorEnableMask, (uint32)rawIndex, 1u);
 863              		.loc 1 1317 0 discriminator 1
 864 000e 0648     		ldr	r0, .L81+4
 865 0010 211C     		mov	r1, r4
 866 0012 0122     		mov	r2, #1
 867 0014 FFF7FEFF 		bl	CapSense_SetBitValue
 868              	.LVL90:
1318:.\Generated_Source\PSoC4/CapSense_CSHL.c ****         rawIndex++;
 869              		.loc 1 1318 0 discriminator 1
 870 0018 0134     		add	r4, r4, #1
 871              	.LVL91:
 872 001a E4B2     		uxtb	r4, r4
 873              	.LVL92:
1319:.\Generated_Source\PSoC4/CapSense_CSHL.c ****     }
1320:.\Generated_Source\PSoC4/CapSense_CSHL.c ****     while(rawIndex < numOfSensors);
 874              		.loc 1 1320 0 discriminator 1
 875 001c AC42     		cmp	r4, r5
 876 001e F6D3     		bcc	.L80
1321:.\Generated_Source\PSoC4/CapSense_CSHL.c **** }
 877              		.loc 1 1321 0
 878              		@ sp needed
 879              	.LVL93:
 880              	.LVL94:
 881 0020 38BD     		pop	{r3, r4, r5, pc}
 882              	.L82:
 883 0022 C046     		.align	2
 884              	.L81:
 885 0024 00000000 		.word	.LANCHOR2
 886 0028 00000000 		.word	CapSense_sensorEnableMask
 887              		.cfi_endproc
 888              	.LFE61:
 889              		.size	CapSense_EnableWidget, .-CapSense_EnableWidget
 890              		.section	.text.CapSense_DisableWidget,"ax",%progbits
 891              		.align	2
 892              		.global	CapSense_DisableWidget
 893              		.code	16
 894              		.thumb_func
 895              		.type	CapSense_DisableWidget, %function
ARM GAS  C:\Users\Terence\AppData\Local\Temp\cc6R4aDx.s 			page 40


 896              	CapSense_DisableWidget:
 897              	.LFB62:
1322:.\Generated_Source\PSoC4/CapSense_CSHL.c **** 
1323:.\Generated_Source\PSoC4/CapSense_CSHL.c **** 
1324:.\Generated_Source\PSoC4/CapSense_CSHL.c **** /*******************************************************************************
1325:.\Generated_Source\PSoC4/CapSense_CSHL.c **** * Function Name: CapSense_DisableWidget
1326:.\Generated_Source\PSoC4/CapSense_CSHL.c **** ********************************************************************************
1327:.\Generated_Source\PSoC4/CapSense_CSHL.c **** *
1328:.\Generated_Source\PSoC4/CapSense_CSHL.c **** * Summary:
1329:.\Generated_Source\PSoC4/CapSense_CSHL.c **** *  Disables all the widget elements (sensors) from the scanning process.
1330:.\Generated_Source\PSoC4/CapSense_CSHL.c **** *
1331:.\Generated_Source\PSoC4/CapSense_CSHL.c **** * Parameters:
1332:.\Generated_Source\PSoC4/CapSense_CSHL.c **** *  widget:  widget number.
1333:.\Generated_Source\PSoC4/CapSense_CSHL.c **** *
1334:.\Generated_Source\PSoC4/CapSense_CSHL.c **** * Return:
1335:.\Generated_Source\PSoC4/CapSense_CSHL.c **** *  None
1336:.\Generated_Source\PSoC4/CapSense_CSHL.c **** *
1337:.\Generated_Source\PSoC4/CapSense_CSHL.c **** * Global Variables:
1338:.\Generated_Source\PSoC4/CapSense_CSHL.c **** *  CapSense_sensorEnableMask[] - used to store the sensor scanning
1339:.\Generated_Source\PSoC4/CapSense_CSHL.c **** *  state.
1340:.\Generated_Source\PSoC4/CapSense_CSHL.c **** *  CapSense_sensorEnableMask[0] contains the masked bits for sensors
1341:.\Generated_Source\PSoC4/CapSense_CSHL.c **** *  0 through 7 (sensor 0 is bit 0, sensor 1 is bit 1).
1342:.\Generated_Source\PSoC4/CapSense_CSHL.c **** *  CapSense_sensorEnableMask[1] contains the masked bits for
1343:.\Generated_Source\PSoC4/CapSense_CSHL.c **** *  sensors 8 through 15 (if needed), and so on.
1344:.\Generated_Source\PSoC4/CapSense_CSHL.c **** *  0 - sensor isn't scanned by CapSense_ScanEnabledWidgets().
1345:.\Generated_Source\PSoC4/CapSense_CSHL.c **** *  1 - sensor is scanned by CapSense_ScanEnabledWidgets().
1346:.\Generated_Source\PSoC4/CapSense_CSHL.c **** *
1347:.\Generated_Source\PSoC4/CapSense_CSHL.c **** * Side Effects:
1348:.\Generated_Source\PSoC4/CapSense_CSHL.c **** *  None
1349:.\Generated_Source\PSoC4/CapSense_CSHL.c **** *
1350:.\Generated_Source\PSoC4/CapSense_CSHL.c **** *******************************************************************************/
1351:.\Generated_Source\PSoC4/CapSense_CSHL.c **** void CapSense_DisableWidget(uint32 widget)
1352:.\Generated_Source\PSoC4/CapSense_CSHL.c **** {
 898              		.loc 1 1352 0
 899              		.cfi_startproc
 900              	.LVL95:
 901 0000 38B5     		push	{r3, r4, r5, lr}
 902              		.cfi_def_cfa_offset 16
 903              		.cfi_offset 3, -16
 904              		.cfi_offset 4, -12
 905              		.cfi_offset 5, -8
 906              		.cfi_offset 14, -4
1353:.\Generated_Source\PSoC4/CapSense_CSHL.c ****     uint8 rawIndex = CapSense_rawDataIndex[widget];
 907              		.loc 1 1353 0
 908 0002 084B     		ldr	r3, .L85
 909 0004 1C5C     		ldrb	r4, [r3, r0]
 910              	.LVL96:
1354:.\Generated_Source\PSoC4/CapSense_CSHL.c ****     uint8 numOfSensors = CapSense_numberOfSensors[widget] + rawIndex;
 911              		.loc 1 1354 0
 912 0006 1818     		add	r0, r3, r0
 913              	.LVL97:
 914 0008 057A     		ldrb	r5, [r0, #8]
 915 000a 2D19     		add	r5, r5, r4
 916 000c EDB2     		uxtb	r5, r5
 917              	.LVL98:
 918              	.L84:
1355:.\Generated_Source\PSoC4/CapSense_CSHL.c **** 
ARM GAS  C:\Users\Terence\AppData\Local\Temp\cc6R4aDx.s 			page 41


1356:.\Generated_Source\PSoC4/CapSense_CSHL.c ****     /* Disable all sensors of widget */
1357:.\Generated_Source\PSoC4/CapSense_CSHL.c ****     do
1358:.\Generated_Source\PSoC4/CapSense_CSHL.c ****     {
1359:.\Generated_Source\PSoC4/CapSense_CSHL.c **** 
1360:.\Generated_Source\PSoC4/CapSense_CSHL.c ****         CapSense_SetBitValue(CapSense_sensorEnableMask, (uint32)rawIndex, 0u);
 919              		.loc 1 1360 0 discriminator 1
 920 000e 0648     		ldr	r0, .L85+4
 921 0010 211C     		mov	r1, r4
 922 0012 0022     		mov	r2, #0
 923 0014 FFF7FEFF 		bl	CapSense_SetBitValue
 924              	.LVL99:
1361:.\Generated_Source\PSoC4/CapSense_CSHL.c ****         rawIndex++;
 925              		.loc 1 1361 0 discriminator 1
 926 0018 0134     		add	r4, r4, #1
 927              	.LVL100:
 928 001a E4B2     		uxtb	r4, r4
 929              	.LVL101:
1362:.\Generated_Source\PSoC4/CapSense_CSHL.c ****     }
1363:.\Generated_Source\PSoC4/CapSense_CSHL.c ****     while(rawIndex < numOfSensors);
 930              		.loc 1 1363 0 discriminator 1
 931 001c AC42     		cmp	r4, r5
 932 001e F6D3     		bcc	.L84
1364:.\Generated_Source\PSoC4/CapSense_CSHL.c **** }
 933              		.loc 1 1364 0
 934              		@ sp needed
 935              	.LVL102:
 936              	.LVL103:
 937 0020 38BD     		pop	{r3, r4, r5, pc}
 938              	.L86:
 939 0022 C046     		.align	2
 940              	.L85:
 941 0024 00000000 		.word	.LANCHOR2
 942 0028 00000000 		.word	CapSense_sensorEnableMask
 943              		.cfi_endproc
 944              	.LFE62:
 945              		.size	CapSense_DisableWidget, .-CapSense_DisableWidget
 946              		.section	.text.CapSense_FindMaximum,"ax",%progbits
 947              		.align	2
 948              		.global	CapSense_FindMaximum
 949              		.code	16
 950              		.thumb_func
 951              		.type	CapSense_FindMaximum, %function
 952              	CapSense_FindMaximum:
 953              	.LFB63:
1365:.\Generated_Source\PSoC4/CapSense_CSHL.c **** 
1366:.\Generated_Source\PSoC4/CapSense_CSHL.c **** 
1367:.\Generated_Source\PSoC4/CapSense_CSHL.c **** #if(CapSense_TOTAL_CENTROIDS_BASIC_COUNT)
1368:.\Generated_Source\PSoC4/CapSense_CSHL.c ****     /*******************************************************************************
1369:.\Generated_Source\PSoC4/CapSense_CSHL.c ****     * Function Name: CapSense_FindMaximum
1370:.\Generated_Source\PSoC4/CapSense_CSHL.c ****     ********************************************************************************
1371:.\Generated_Source\PSoC4/CapSense_CSHL.c ****     *
1372:.\Generated_Source\PSoC4/CapSense_CSHL.c ****     * Summary:
1373:.\Generated_Source\PSoC4/CapSense_CSHL.c ****     *  Finds the index of the maximum element within a defined centroid. Checks
1374:.\Generated_Source\PSoC4/CapSense_CSHL.c ****     *  CapSense_sensorSignal[] within a defined centroid and
1375:.\Generated_Source\PSoC4/CapSense_CSHL.c ****     *  returns the index of the maximum element. The values below the finger threshold are
1376:.\Generated_Source\PSoC4/CapSense_CSHL.c ****     *  ignored.
1377:.\Generated_Source\PSoC4/CapSense_CSHL.c ****     *  The centroid is defined by offset of the first element and a number of elements - count.
ARM GAS  C:\Users\Terence\AppData\Local\Temp\cc6R4aDx.s 			page 42


1378:.\Generated_Source\PSoC4/CapSense_CSHL.c ****     *  The diplexed centroid requires at least two consecutive elements above
1379:.\Generated_Source\PSoC4/CapSense_CSHL.c ****     *  FingerThreshold to find the index of the maximum element.
1380:.\Generated_Source\PSoC4/CapSense_CSHL.c ****     *
1381:.\Generated_Source\PSoC4/CapSense_CSHL.c ****     * Parameters:
1382:.\Generated_Source\PSoC4/CapSense_CSHL.c ****     *  offset:  Start index of centroid in CapSense_sensorSignal[] array.
1383:.\Generated_Source\PSoC4/CapSense_CSHL.c ****     *  count:   number of elements within centroid.
1384:.\Generated_Source\PSoC4/CapSense_CSHL.c ****     *  fingerThreshold:  Finger threshold.
1385:.\Generated_Source\PSoC4/CapSense_CSHL.c ****     *  diplex:   pointer to diplex table.
1386:.\Generated_Source\PSoC4/CapSense_CSHL.c ****     *
1387:.\Generated_Source\PSoC4/CapSense_CSHL.c ****     * Return:
1388:.\Generated_Source\PSoC4/CapSense_CSHL.c ****     *  Returns the index of the maximum element within a defined centroid.
1389:.\Generated_Source\PSoC4/CapSense_CSHL.c ****     *  If the index of the maximum element isn't found it returns 0xFF.
1390:.\Generated_Source\PSoC4/CapSense_CSHL.c ****     *
1391:.\Generated_Source\PSoC4/CapSense_CSHL.c ****     * Global Variables:
1392:.\Generated_Source\PSoC4/CapSense_CSHL.c ****     *  CapSense_startOfSlider[] - contains the index of the first slider element
1393:.\Generated_Source\PSoC4/CapSense_CSHL.c ****     *
1394:.\Generated_Source\PSoC4/CapSense_CSHL.c ****     * Side Effects:
1395:.\Generated_Source\PSoC4/CapSense_CSHL.c ****     *  None
1396:.\Generated_Source\PSoC4/CapSense_CSHL.c ****     *
1397:.\Generated_Source\PSoC4/CapSense_CSHL.c ****     *******************************************************************************/
1398:.\Generated_Source\PSoC4/CapSense_CSHL.c ****     #if (CapSense_IS_DIPLEX_SLIDER)
1399:.\Generated_Source\PSoC4/CapSense_CSHL.c ****         uint8 CapSense_FindMaximum(uint8 offset, uint8 count, uint8 fingerThreshold, const uint8 *d
1400:.\Generated_Source\PSoC4/CapSense_CSHL.c ****     #else
1401:.\Generated_Source\PSoC4/CapSense_CSHL.c ****         uint8 CapSense_FindMaximum(uint8 offset, uint8 count, uint8 fingerThreshold)
1402:.\Generated_Source\PSoC4/CapSense_CSHL.c ****     #endif /* (CapSense_IS_DIPLEX_SLIDER) */
1403:.\Generated_Source\PSoC4/CapSense_CSHL.c ****     {
 954              		.loc 1 1403 0
 955              		.cfi_startproc
 956              	.LVL104:
 957 0000 70B5     		push	{r4, r5, r6, lr}
 958              		.cfi_def_cfa_offset 16
 959              		.cfi_offset 4, -16
 960              		.cfi_offset 5, -12
 961              		.cfi_offset 6, -8
 962              		.cfi_offset 14, -4
 963              	.LVL105:
1404:.\Generated_Source\PSoC4/CapSense_CSHL.c ****         uint8 i;
1405:.\Generated_Source\PSoC4/CapSense_CSHL.c ****         #if (CapSense_IS_DIPLEX_SLIDER)
1406:.\Generated_Source\PSoC4/CapSense_CSHL.c ****             uint8 curPos = 0u;
1407:.\Generated_Source\PSoC4/CapSense_CSHL.c ****             /* No centroid at Start */
1408:.\Generated_Source\PSoC4/CapSense_CSHL.c ****             uint8 curCntrdSize = 0u;
1409:.\Generated_Source\PSoC4/CapSense_CSHL.c ****             uint8 curCtrdStartPos = CapSense_MAXIMUM_CENTROID;
1410:.\Generated_Source\PSoC4/CapSense_CSHL.c ****             /* Biggest centroid is zero */
1411:.\Generated_Source\PSoC4/CapSense_CSHL.c ****             uint8 biggestCtrdSize = 0u;
1412:.\Generated_Source\PSoC4/CapSense_CSHL.c ****             uint8 biggestCtrdStartPos = 0u;
1413:.\Generated_Source\PSoC4/CapSense_CSHL.c ****         #endif /* (CapSense_IS_DIPLEX_SLIDER) */
1414:.\Generated_Source\PSoC4/CapSense_CSHL.c ****         uint8 maximum = CapSense_MAXIMUM_CENTROID;
1415:.\Generated_Source\PSoC4/CapSense_CSHL.c **** 
1416:.\Generated_Source\PSoC4/CapSense_CSHL.c ****         uint8 temp = 0u;
1417:.\Generated_Source\PSoC4/CapSense_CSHL.c ****         uint8 *startOfSlider = &CapSense_sensorSignal[offset];
 964              		.loc 1 1417 0
 965 0002 094D     		ldr	r5, .L92
 966 0004 2C35     		add	r5, r5, #44
 967 0006 2D18     		add	r5, r5, r0
 968              	.LVL106:
1416:.\Generated_Source\PSoC4/CapSense_CSHL.c ****         uint8 *startOfSlider = &CapSense_sensorSignal[offset];
 969              		.loc 1 1416 0
ARM GAS  C:\Users\Terence\AppData\Local\Temp\cc6R4aDx.s 			page 43


 970 0008 0026     		mov	r6, #0
1414:.\Generated_Source\PSoC4/CapSense_CSHL.c **** 
 971              		.loc 1 1414 0
 972 000a FF20     		mov	r0, #255
 973              	.LVL107:
1418:.\Generated_Source\PSoC4/CapSense_CSHL.c **** 
1419:.\Generated_Source\PSoC4/CapSense_CSHL.c ****         #if (CapSense_IS_DIPLEX_SLIDER)
1420:.\Generated_Source\PSoC4/CapSense_CSHL.c ****             if(diplex != 0u)
1421:.\Generated_Source\PSoC4/CapSense_CSHL.c ****             {
1422:.\Generated_Source\PSoC4/CapSense_CSHL.c ****                 /* Initialize */
1423:.\Generated_Source\PSoC4/CapSense_CSHL.c ****                 i = 0u;
1424:.\Generated_Source\PSoC4/CapSense_CSHL.c **** 
1425:.\Generated_Source\PSoC4/CapSense_CSHL.c ****                 /* Make slider x2 as Diplexed */
1426:.\Generated_Source\PSoC4/CapSense_CSHL.c ****                 count <<= 1u;
1427:.\Generated_Source\PSoC4/CapSense_CSHL.c ****                 while(1u)
1428:.\Generated_Source\PSoC4/CapSense_CSHL.c ****                 {
1429:.\Generated_Source\PSoC4/CapSense_CSHL.c ****                     if (startOfSlider[curPos] > 0u)    /* Looking for centroids */
1430:.\Generated_Source\PSoC4/CapSense_CSHL.c ****                     {
1431:.\Generated_Source\PSoC4/CapSense_CSHL.c ****                         if (curCtrdStartPos == CapSense_MAXIMUM_CENTROID)
1432:.\Generated_Source\PSoC4/CapSense_CSHL.c ****                         {
1433:.\Generated_Source\PSoC4/CapSense_CSHL.c ****                             /* Start of centroid */
1434:.\Generated_Source\PSoC4/CapSense_CSHL.c ****                             curCtrdStartPos = i;
1435:.\Generated_Source\PSoC4/CapSense_CSHL.c ****                             curCntrdSize++;
1436:.\Generated_Source\PSoC4/CapSense_CSHL.c ****                         }
1437:.\Generated_Source\PSoC4/CapSense_CSHL.c ****                         else
1438:.\Generated_Source\PSoC4/CapSense_CSHL.c ****                         {
1439:.\Generated_Source\PSoC4/CapSense_CSHL.c ****                             curCntrdSize++;
1440:.\Generated_Source\PSoC4/CapSense_CSHL.c ****                         }
1441:.\Generated_Source\PSoC4/CapSense_CSHL.c ****                     }
1442:.\Generated_Source\PSoC4/CapSense_CSHL.c ****                     else   /* Select biggest and indicate zero start */
1443:.\Generated_Source\PSoC4/CapSense_CSHL.c ****                     {
1444:.\Generated_Source\PSoC4/CapSense_CSHL.c ****                         if(curCntrdSize > 0u)
1445:.\Generated_Source\PSoC4/CapSense_CSHL.c ****                         {
1446:.\Generated_Source\PSoC4/CapSense_CSHL.c ****                             /* We are at the end of current */
1447:.\Generated_Source\PSoC4/CapSense_CSHL.c ****                             if(curCntrdSize > biggestCtrdSize)
1448:.\Generated_Source\PSoC4/CapSense_CSHL.c ****                             {
1449:.\Generated_Source\PSoC4/CapSense_CSHL.c ****                                 biggestCtrdSize = curCntrdSize;
1450:.\Generated_Source\PSoC4/CapSense_CSHL.c ****                                 biggestCtrdStartPos = curCtrdStartPos;
1451:.\Generated_Source\PSoC4/CapSense_CSHL.c ****                             }
1452:.\Generated_Source\PSoC4/CapSense_CSHL.c **** 
1453:.\Generated_Source\PSoC4/CapSense_CSHL.c ****                             curCntrdSize = 0u;
1454:.\Generated_Source\PSoC4/CapSense_CSHL.c ****                             curCtrdStartPos = CapSense_MAXIMUM_CENTROID;
1455:.\Generated_Source\PSoC4/CapSense_CSHL.c ****                         }
1456:.\Generated_Source\PSoC4/CapSense_CSHL.c ****                     }
1457:.\Generated_Source\PSoC4/CapSense_CSHL.c **** 
1458:.\Generated_Source\PSoC4/CapSense_CSHL.c ****                     i++;
1459:.\Generated_Source\PSoC4/CapSense_CSHL.c ****                     curPos = diplex[i];
1460:.\Generated_Source\PSoC4/CapSense_CSHL.c ****                     if(i == count)
1461:.\Generated_Source\PSoC4/CapSense_CSHL.c ****                     {
1462:.\Generated_Source\PSoC4/CapSense_CSHL.c ****                         break;
1463:.\Generated_Source\PSoC4/CapSense_CSHL.c ****                     }
1464:.\Generated_Source\PSoC4/CapSense_CSHL.c ****                 }
1465:.\Generated_Source\PSoC4/CapSense_CSHL.c **** 
1466:.\Generated_Source\PSoC4/CapSense_CSHL.c ****                     /* Find biggest centroid if two are same size, last one wins
1467:.\Generated_Source\PSoC4/CapSense_CSHL.c ****                        We are at the end of current */
1468:.\Generated_Source\PSoC4/CapSense_CSHL.c ****                 if (curCntrdSize >= biggestCtrdSize)
1469:.\Generated_Source\PSoC4/CapSense_CSHL.c ****                 {
ARM GAS  C:\Users\Terence\AppData\Local\Temp\cc6R4aDx.s 			page 44


1470:.\Generated_Source\PSoC4/CapSense_CSHL.c ****                     biggestCtrdSize = curCntrdSize;
1471:.\Generated_Source\PSoC4/CapSense_CSHL.c ****                     biggestCtrdStartPos = curCtrdStartPos;
1472:.\Generated_Source\PSoC4/CapSense_CSHL.c ****                 }
1473:.\Generated_Source\PSoC4/CapSense_CSHL.c ****             }
1474:.\Generated_Source\PSoC4/CapSense_CSHL.c ****             else
1475:.\Generated_Source\PSoC4/CapSense_CSHL.c ****             {
1476:.\Generated_Source\PSoC4/CapSense_CSHL.c ****                 /* Without diplexing */
1477:.\Generated_Source\PSoC4/CapSense_CSHL.c ****                 biggestCtrdSize = count;
1478:.\Generated_Source\PSoC4/CapSense_CSHL.c ****             }
1479:.\Generated_Source\PSoC4/CapSense_CSHL.c **** 
1480:.\Generated_Source\PSoC4/CapSense_CSHL.c **** 
1481:.\Generated_Source\PSoC4/CapSense_CSHL.c ****             /* Check centroid size */
1482:.\Generated_Source\PSoC4/CapSense_CSHL.c ****             #if (CapSense_IS_NON_DIPLEX_SLIDER)
1483:.\Generated_Source\PSoC4/CapSense_CSHL.c ****                 if((biggestCtrdSize >= 2u) || ((biggestCtrdSize == 1u) && (diplex == 0u)))
1484:.\Generated_Source\PSoC4/CapSense_CSHL.c ****             #else
1485:.\Generated_Source\PSoC4/CapSense_CSHL.c ****                 if(biggestCtrdSize >= 2u)
1486:.\Generated_Source\PSoC4/CapSense_CSHL.c ****             #endif /* (CapSense_IS_NON_DIPLEX_SLIDER) */
1487:.\Generated_Source\PSoC4/CapSense_CSHL.c ****                 {
1488:.\Generated_Source\PSoC4/CapSense_CSHL.c ****                     for (i = biggestCtrdStartPos; i < (biggestCtrdStartPos + biggestCtrdSize); i++)
1489:.\Generated_Source\PSoC4/CapSense_CSHL.c ****                     {
1490:.\Generated_Source\PSoC4/CapSense_CSHL.c ****                         #if (CapSense_IS_DIPLEX_SLIDER && CapSense_IS_NON_DIPLEX_SLIDER)
1491:.\Generated_Source\PSoC4/CapSense_CSHL.c ****                             if (diplex == 0u)
1492:.\Generated_Source\PSoC4/CapSense_CSHL.c ****                             {
1493:.\Generated_Source\PSoC4/CapSense_CSHL.c ****                                 curPos = i;
1494:.\Generated_Source\PSoC4/CapSense_CSHL.c ****                             }
1495:.\Generated_Source\PSoC4/CapSense_CSHL.c ****                             else
1496:.\Generated_Source\PSoC4/CapSense_CSHL.c ****                             {
1497:.\Generated_Source\PSoC4/CapSense_CSHL.c ****                                 curPos = diplex[i];
1498:.\Generated_Source\PSoC4/CapSense_CSHL.c ****                             }
1499:.\Generated_Source\PSoC4/CapSense_CSHL.c ****                         #elif (CapSense_IS_DIPLEX_SLIDER)
1500:.\Generated_Source\PSoC4/CapSense_CSHL.c ****                             curPos = diplex[i];
1501:.\Generated_Source\PSoC4/CapSense_CSHL.c ****                         #endif /* (CapSense_IS_DIPLEX_SLIDER && CapSense_IS_NON_DIPLEX_SLIDER) */
1502:.\Generated_Source\PSoC4/CapSense_CSHL.c ****                         /* Looking for greater element within centroid */
1503:.\Generated_Source\PSoC4/CapSense_CSHL.c ****                         if(startOfSlider[curPos] > fingerThreshold)
1504:.\Generated_Source\PSoC4/CapSense_CSHL.c ****                         {
1505:.\Generated_Source\PSoC4/CapSense_CSHL.c ****                             if(startOfSlider[curPos] > temp)
1506:.\Generated_Source\PSoC4/CapSense_CSHL.c ****                             {
1507:.\Generated_Source\PSoC4/CapSense_CSHL.c ****                                 maximum = i;
1508:.\Generated_Source\PSoC4/CapSense_CSHL.c ****                                 temp = startOfSlider[curPos];
1509:.\Generated_Source\PSoC4/CapSense_CSHL.c ****                             }
1510:.\Generated_Source\PSoC4/CapSense_CSHL.c ****                         }
1511:.\Generated_Source\PSoC4/CapSense_CSHL.c ****                     }
1512:.\Generated_Source\PSoC4/CapSense_CSHL.c ****                 }
1513:.\Generated_Source\PSoC4/CapSense_CSHL.c ****         #else
1514:.\Generated_Source\PSoC4/CapSense_CSHL.c ****             for (i = 0u; i < count; i++)
 974              		.loc 1 1514 0
 975 000c 0023     		mov	r3, #0
 976 000e 08E0     		b	.L88
 977              	.LVL108:
 978              	.L90:
1515:.\Generated_Source\PSoC4/CapSense_CSHL.c ****             {
1516:.\Generated_Source\PSoC4/CapSense_CSHL.c ****                 /* Looking for greater element within centroid */
1517:.\Generated_Source\PSoC4/CapSense_CSHL.c ****                 if(startOfSlider[i] > fingerThreshold)
 979              		.loc 1 1517 0
 980 0010 EC5C     		ldrb	r4, [r5, r3]
 981 0012 9442     		cmp	r4, r2
 982 0014 03D9     		bls	.L89
ARM GAS  C:\Users\Terence\AppData\Local\Temp\cc6R4aDx.s 			page 45


1518:.\Generated_Source\PSoC4/CapSense_CSHL.c ****                 {
1519:.\Generated_Source\PSoC4/CapSense_CSHL.c ****                     if(startOfSlider[i] > temp)
 983              		.loc 1 1519 0
 984 0016 A642     		cmp	r6, r4
 985 0018 01D2     		bcs	.L89
1520:.\Generated_Source\PSoC4/CapSense_CSHL.c ****                     {
1521:.\Generated_Source\PSoC4/CapSense_CSHL.c ****                         maximum = i;
1522:.\Generated_Source\PSoC4/CapSense_CSHL.c ****                         temp = startOfSlider[i];
 986              		.loc 1 1522 0
 987 001a 261C     		mov	r6, r4
 988              	.LVL109:
1521:.\Generated_Source\PSoC4/CapSense_CSHL.c ****                         temp = startOfSlider[i];
 989              		.loc 1 1521 0
 990 001c 181C     		mov	r0, r3
 991              	.LVL110:
 992              	.L89:
1514:.\Generated_Source\PSoC4/CapSense_CSHL.c ****             {
 993              		.loc 1 1514 0 discriminator 2
 994 001e 0133     		add	r3, r3, #1
 995              	.LVL111:
 996 0020 DBB2     		uxtb	r3, r3
 997              	.LVL112:
 998              	.L88:
1514:.\Generated_Source\PSoC4/CapSense_CSHL.c ****             {
 999              		.loc 1 1514 0 is_stmt 0 discriminator 1
 1000 0022 8B42     		cmp	r3, r1
 1001 0024 F4D3     		bcc	.L90
1523:.\Generated_Source\PSoC4/CapSense_CSHL.c ****                     }
1524:.\Generated_Source\PSoC4/CapSense_CSHL.c ****                 }
1525:.\Generated_Source\PSoC4/CapSense_CSHL.c ****             }
1526:.\Generated_Source\PSoC4/CapSense_CSHL.c ****         #endif /* (CapSense_IS_DIPLEX_SLIDER) */
1527:.\Generated_Source\PSoC4/CapSense_CSHL.c ****         return (maximum);
1528:.\Generated_Source\PSoC4/CapSense_CSHL.c ****     }
 1002              		.loc 1 1528 0 is_stmt 1
 1003              		@ sp needed
 1004              	.LVL113:
 1005              	.LVL114:
 1006 0026 70BD     		pop	{r4, r5, r6, pc}
 1007              	.L93:
 1008              		.align	2
 1009              	.L92:
 1010 0028 00000000 		.word	.LANCHOR0
 1011              		.cfi_endproc
 1012              	.LFE63:
 1013              		.size	CapSense_FindMaximum, .-CapSense_FindMaximum
 1014              		.global	__aeabi_idiv
 1015              		.section	.text.CapSense_CalcCentroid,"ax",%progbits
 1016              		.align	2
 1017              		.global	CapSense_CalcCentroid
 1018              		.code	16
 1019              		.thumb_func
 1020              		.type	CapSense_CalcCentroid, %function
 1021              	CapSense_CalcCentroid:
 1022              	.LFB64:
1529:.\Generated_Source\PSoC4/CapSense_CSHL.c **** 
1530:.\Generated_Source\PSoC4/CapSense_CSHL.c **** 
1531:.\Generated_Source\PSoC4/CapSense_CSHL.c ****     /*******************************************************************************
ARM GAS  C:\Users\Terence\AppData\Local\Temp\cc6R4aDx.s 			page 46


1532:.\Generated_Source\PSoC4/CapSense_CSHL.c ****     * Function Name: CapSense_CalcCentroid
1533:.\Generated_Source\PSoC4/CapSense_CSHL.c ****     ********************************************************************************
1534:.\Generated_Source\PSoC4/CapSense_CSHL.c ****     *
1535:.\Generated_Source\PSoC4/CapSense_CSHL.c ****     * Summary:
1536:.\Generated_Source\PSoC4/CapSense_CSHL.c ****     *  Returns a position value calculated according to the index of the maximum element and API
1537:.\Generated_Source\PSoC4/CapSense_CSHL.c ****     *  resolution.
1538:.\Generated_Source\PSoC4/CapSense_CSHL.c ****     *
1539:.\Generated_Source\PSoC4/CapSense_CSHL.c ****     * Parameters:
1540:.\Generated_Source\PSoC4/CapSense_CSHL.c ****     *  type:  widget type.
1541:.\Generated_Source\PSoC4/CapSense_CSHL.c ****     *  diplex:  pointer to diplex table.
1542:.\Generated_Source\PSoC4/CapSense_CSHL.c ****     *  maximum:  Index of maximum element within centroid.
1543:.\Generated_Source\PSoC4/CapSense_CSHL.c ****     *  offset:   Start index of centroid in CapSense_sensorSignal[] array.
1544:.\Generated_Source\PSoC4/CapSense_CSHL.c ****     *  count:    Number of elements within centroid.
1545:.\Generated_Source\PSoC4/CapSense_CSHL.c ****     *  resolution:  multiplicator calculated according to centroid type and
1546:.\Generated_Source\PSoC4/CapSense_CSHL.c ****     *  API resolution.
1547:.\Generated_Source\PSoC4/CapSense_CSHL.c ****     *  noiseThreshold:  Noise threshold.
1548:.\Generated_Source\PSoC4/CapSense_CSHL.c ****     *
1549:.\Generated_Source\PSoC4/CapSense_CSHL.c ****     * Return:
1550:.\Generated_Source\PSoC4/CapSense_CSHL.c ****     *  Returns a position value of the slider.
1551:.\Generated_Source\PSoC4/CapSense_CSHL.c ****     *
1552:.\Generated_Source\PSoC4/CapSense_CSHL.c ****     * Side Effects:
1553:.\Generated_Source\PSoC4/CapSense_CSHL.c ****     *  None
1554:.\Generated_Source\PSoC4/CapSense_CSHL.c ****     *
1555:.\Generated_Source\PSoC4/CapSense_CSHL.c ****     *******************************************************************************/
1556:.\Generated_Source\PSoC4/CapSense_CSHL.c **** #if (CapSense_TOTAL_TRACKPAD_GESTURES_COUNT > 0u)
1557:.\Generated_Source\PSoC4/CapSense_CSHL.c ****     uint8 CapSense_CalcCentroid(uint8 maximum, uint8 offset,
1558:.\Generated_Source\PSoC4/CapSense_CSHL.c ****                                         uint8 count, uint32 resolution, uint8 noiseThreshold)
1559:.\Generated_Source\PSoC4/CapSense_CSHL.c **** #else
1560:.\Generated_Source\PSoC4/CapSense_CSHL.c ****     uint8 CapSense_CalcCentroid(uint8 maximum, uint8 offset,
1561:.\Generated_Source\PSoC4/CapSense_CSHL.c ****                                         uint8 count, uint16 resolution, uint8 noiseThreshold)
1562:.\Generated_Source\PSoC4/CapSense_CSHL.c **** #endif /* (CapSense_TOTAL_TRACKPAD_GESTURES_COUNT > 0u) */
1563:.\Generated_Source\PSoC4/CapSense_CSHL.c ****     {
 1023              		.loc 1 1563 0
 1024              		.cfi_startproc
 1025              	.LVL115:
 1026 0000 F0B5     		push	{r4, r5, r6, r7, lr}
 1027              		.cfi_def_cfa_offset 20
 1028              		.cfi_offset 4, -20
 1029              		.cfi_offset 5, -16
 1030              		.cfi_offset 6, -12
 1031              		.cfi_offset 7, -8
 1032              		.cfi_offset 14, -4
 1033 0002 83B0     		sub	sp, sp, #12
 1034              		.cfi_def_cfa_offset 32
 1035 0004 041C     		mov	r4, r0
 1036 0006 161C     		mov	r6, r2
 1037 0008 0193     		str	r3, [sp, #4]
 1038 000a 08AB     		add	r3, sp, #32
 1039              	.LVL116:
 1040 000c 1878     		ldrb	r0, [r3]
 1041              	.LVL117:
1564:.\Generated_Source\PSoC4/CapSense_CSHL.c ****         #if ((CapSense_TOTAL_LINEAR_SLIDERS_COUNT > 0u) || (CapSense_TOTAL_TOUCH_PADS_BASIC_COUNT >
1565:.\Generated_Source\PSoC4/CapSense_CSHL.c ****             uint8 posPrev;
1566:.\Generated_Source\PSoC4/CapSense_CSHL.c ****             uint8 posNext;
1567:.\Generated_Source\PSoC4/CapSense_CSHL.c ****         #endif /* ((CapSense_TOTAL_LINEAR_SLIDERS_COUNT>0u) || (CapSense_TOTAL_TOUCH_PADS_BASIC_COU
1568:.\Generated_Source\PSoC4/CapSense_CSHL.c **** 
1569:.\Generated_Source\PSoC4/CapSense_CSHL.c ****         /* Helps during centroid calculation */
ARM GAS  C:\Users\Terence\AppData\Local\Temp\cc6R4aDx.s 			page 47


1570:.\Generated_Source\PSoC4/CapSense_CSHL.c ****         #if (CapSense_TOTAL_CENTROIDS_BASIC_COUNT)
1571:.\Generated_Source\PSoC4/CapSense_CSHL.c ****             static uint8 CapSense_centroid[3u];
1572:.\Generated_Source\PSoC4/CapSense_CSHL.c ****         #endif  /* (CapSense_TOTAL_CENTROIDS_BASIC_COUNT) */
1573:.\Generated_Source\PSoC4/CapSense_CSHL.c **** 
1574:.\Generated_Source\PSoC4/CapSense_CSHL.c ****         #if (CapSense_IS_DIPLEX_SLIDER)
1575:.\Generated_Source\PSoC4/CapSense_CSHL.c ****             uint8 pos;
1576:.\Generated_Source\PSoC4/CapSense_CSHL.c ****         #endif /* (CapSense_IS_DIPLEX_SLIDER) */
1577:.\Generated_Source\PSoC4/CapSense_CSHL.c **** 
1578:.\Generated_Source\PSoC4/CapSense_CSHL.c ****         uint8 position;
1579:.\Generated_Source\PSoC4/CapSense_CSHL.c ****         uint32 numerator;
1580:.\Generated_Source\PSoC4/CapSense_CSHL.c ****         int32 denominator;
1581:.\Generated_Source\PSoC4/CapSense_CSHL.c **** 
1582:.\Generated_Source\PSoC4/CapSense_CSHL.c ****         uint8  *startOfSlider = &CapSense_sensorSignal[offset];
 1042              		.loc 1 1582 0
 1043 000e 334A     		ldr	r2, .L103
 1044              	.LVL118:
 1045 0010 131C     		mov	r3, r2
 1046              	.LVL119:
 1047 0012 2C33     		add	r3, r3, #44
 1048 0014 5B18     		add	r3, r3, r1
 1049              	.LVL120:
1583:.\Generated_Source\PSoC4/CapSense_CSHL.c **** 
1584:.\Generated_Source\PSoC4/CapSense_CSHL.c ****         #if ((CapSense_TOTAL_LINEAR_SLIDERS_COUNT > 0u) || (CapSense_TOTAL_TOUCH_PADS_BASIC_COUNT >
1585:.\Generated_Source\PSoC4/CapSense_CSHL.c ****             posPrev = 0u;
1586:.\Generated_Source\PSoC4/CapSense_CSHL.c ****         #endif /* ((CapSense_TOTAL_LINEAR_SLIDERS_COUNT>0u) || (CapSense_TOTAL_TOUCH_PADS_BASIC_COU
1587:.\Generated_Source\PSoC4/CapSense_CSHL.c **** 
1588:.\Generated_Source\PSoC4/CapSense_CSHL.c ****         #if (CapSense_ADD_SLIDER_TYPE)
1589:.\Generated_Source\PSoC4/CapSense_CSHL.c ****             if(type == CapSense_TYPE_RADIAL_SLIDER)
1590:.\Generated_Source\PSoC4/CapSense_CSHL.c ****             {
1591:.\Generated_Source\PSoC4/CapSense_CSHL.c ****         #endif /* (CapSense_ADD_SLIDER_TYPE) */
1592:.\Generated_Source\PSoC4/CapSense_CSHL.c **** 
1593:.\Generated_Source\PSoC4/CapSense_CSHL.c ****             #if (CapSense_TOTAL_RADIAL_SLIDERS_COUNT > 0u)
1594:.\Generated_Source\PSoC4/CapSense_CSHL.c ****                 /* Copy Signal to the centroid array */
1595:.\Generated_Source\PSoC4/CapSense_CSHL.c ****                 CapSense_centroid[CapSense_POS] = startOfSlider[maximum];
 1050              		.loc 1 1595 0
 1051 0016 1D5D     		ldrb	r5, [r3, r4]
 1052 0018 4832     		add	r2, r2, #72
 1053 001a 5570     		strb	r5, [r2, #1]
1596:.\Generated_Source\PSoC4/CapSense_CSHL.c **** 
1597:.\Generated_Source\PSoC4/CapSense_CSHL.c ****                 /* Check borders for ROTARY Slider */
1598:.\Generated_Source\PSoC4/CapSense_CSHL.c ****                 if (maximum == 0u)                   /* Start of centroid */
 1054              		.loc 1 1598 0
 1055 001c 002C     		cmp	r4, #0
 1056 001e 09D1     		bne	.L95
1599:.\Generated_Source\PSoC4/CapSense_CSHL.c ****                 {
1600:.\Generated_Source\PSoC4/CapSense_CSHL.c ****                     CapSense_centroid[CapSense_POS_PREV] = startOfSlider[count - 1u];
 1057              		.loc 1 1600 0
 1058 0020 9A19     		add	r2, r3, r6
 1059 0022 013A     		sub	r2, r2, #1
 1060 0024 1778     		ldrb	r7, [r2]
 1061 0026 2D4A     		ldr	r2, .L103
 1062 0028 4821     		mov	r1, #72
 1063              	.LVL121:
 1064 002a 5754     		strb	r7, [r2, r1]
1601:.\Generated_Source\PSoC4/CapSense_CSHL.c ****                     CapSense_centroid[CapSense_POS_NEXT] = startOfSlider[1u];
 1065              		.loc 1 1601 0
 1066 002c 4832     		add	r2, r2, #72
ARM GAS  C:\Users\Terence\AppData\Local\Temp\cc6R4aDx.s 			page 48


 1067 002e 5B78     		ldrb	r3, [r3, #1]
 1068              	.LVL122:
 1069 0030 9370     		strb	r3, [r2, #2]
 1070 0032 17E0     		b	.L96
 1071              	.LVL123:
 1072              	.L95:
1602:.\Generated_Source\PSoC4/CapSense_CSHL.c ****                 }
1603:.\Generated_Source\PSoC4/CapSense_CSHL.c ****                 else if (maximum == (count - 1u))    /* End of centroid */
 1073              		.loc 1 1603 0
 1074 0034 721E     		sub	r2, r6, #1
 1075 0036 9442     		cmp	r4, r2
 1076 0038 0BD1     		bne	.L97
1604:.\Generated_Source\PSoC4/CapSense_CSHL.c ****                 {
1605:.\Generated_Source\PSoC4/CapSense_CSHL.c ****                     CapSense_centroid[CapSense_POS_PREV] = startOfSlider[maximum - 1u];
 1077              		.loc 1 1605 0
 1078 003a 1B19     		add	r3, r3, r4
 1079              	.LVL124:
 1080 003c 013B     		sub	r3, r3, #1
 1081 003e 1F78     		ldrb	r7, [r3]
 1082 0040 264B     		ldr	r3, .L103
 1083              	.LVL125:
 1084 0042 4822     		mov	r2, #72
 1085 0044 9F54     		strb	r7, [r3, r2]
1606:.\Generated_Source\PSoC4/CapSense_CSHL.c ****                     CapSense_centroid[CapSense_POS_NEXT] = startOfSlider[0u];
 1086              		.loc 1 1606 0
 1087 0046 1A1C     		mov	r2, r3
 1088 0048 2C32     		add	r2, r2, #44
 1089              	.LVL126:
 1090 004a 525C     		ldrb	r2, [r2, r1]
 1091              	.LVL127:
 1092 004c 4833     		add	r3, r3, #72
 1093              	.LVL128:
 1094 004e 9A70     		strb	r2, [r3, #2]
 1095 0050 08E0     		b	.L96
 1096              	.LVL129:
 1097              	.L97:
1607:.\Generated_Source\PSoC4/CapSense_CSHL.c ****                 }
1608:.\Generated_Source\PSoC4/CapSense_CSHL.c ****                 else                                /* Not first Not last */
1609:.\Generated_Source\PSoC4/CapSense_CSHL.c ****                 {
1610:.\Generated_Source\PSoC4/CapSense_CSHL.c ****                     CapSense_centroid[CapSense_POS_PREV] = startOfSlider[maximum - 1u];
 1098              		.loc 1 1610 0
 1099 0052 1B19     		add	r3, r3, r4
 1100              	.LVL130:
 1101 0054 5A1E     		sub	r2, r3, #1
 1102 0056 1778     		ldrb	r7, [r2]
 1103 0058 204A     		ldr	r2, .L103
 1104              	.LVL131:
 1105 005a 4821     		mov	r1, #72
 1106              	.LVL132:
 1107 005c 5754     		strb	r7, [r2, r1]
1611:.\Generated_Source\PSoC4/CapSense_CSHL.c ****                     CapSense_centroid[CapSense_POS_NEXT] = startOfSlider[maximum + 1u];
 1108              		.loc 1 1611 0
 1109 005e 5B78     		ldrb	r3, [r3, #1]
 1110 0060 4832     		add	r2, r2, #72
 1111 0062 9370     		strb	r3, [r2, #2]
 1112              	.L96:
1612:.\Generated_Source\PSoC4/CapSense_CSHL.c ****                 }
ARM GAS  C:\Users\Terence\AppData\Local\Temp\cc6R4aDx.s 			page 49


1613:.\Generated_Source\PSoC4/CapSense_CSHL.c ****             #endif /* (CapSense_TOTAL_RADIAL_SLIDERS_COUNT > 0u) */
1614:.\Generated_Source\PSoC4/CapSense_CSHL.c **** 
1615:.\Generated_Source\PSoC4/CapSense_CSHL.c ****         #if (CapSense_ADD_SLIDER_TYPE)
1616:.\Generated_Source\PSoC4/CapSense_CSHL.c ****             }
1617:.\Generated_Source\PSoC4/CapSense_CSHL.c ****             else
1618:.\Generated_Source\PSoC4/CapSense_CSHL.c ****             {
1619:.\Generated_Source\PSoC4/CapSense_CSHL.c ****         #endif /* (CapSense_ADD_SLIDER_TYPE) */
1620:.\Generated_Source\PSoC4/CapSense_CSHL.c **** 
1621:.\Generated_Source\PSoC4/CapSense_CSHL.c ****             #if ((CapSense_TOTAL_LINEAR_SLIDERS_COUNT > 0u) || (CapSense_TOTAL_TOUCH_PADS_BASIC_COU
1622:.\Generated_Source\PSoC4/CapSense_CSHL.c ****                 #if (CapSense_IS_DIPLEX_SLIDER && CapSense_IS_NON_DIPLEX_SLIDER)
1623:.\Generated_Source\PSoC4/CapSense_CSHL.c ****                     /* Calculate next and previous near to maximum */
1624:.\Generated_Source\PSoC4/CapSense_CSHL.c ****                     if(diplex == 0u)
1625:.\Generated_Source\PSoC4/CapSense_CSHL.c ****                     {
1626:.\Generated_Source\PSoC4/CapSense_CSHL.c ****                         pos     = maximum;
1627:.\Generated_Source\PSoC4/CapSense_CSHL.c ****                         posPrev = maximum - 1u;
1628:.\Generated_Source\PSoC4/CapSense_CSHL.c ****                         posNext = maximum + 1u;
1629:.\Generated_Source\PSoC4/CapSense_CSHL.c ****                     }
1630:.\Generated_Source\PSoC4/CapSense_CSHL.c ****                     else
1631:.\Generated_Source\PSoC4/CapSense_CSHL.c ****                     {
1632:.\Generated_Source\PSoC4/CapSense_CSHL.c ****                         pos     = diplex[maximum];
1633:.\Generated_Source\PSoC4/CapSense_CSHL.c ****                         posPrev = diplex[maximum - 1u];
1634:.\Generated_Source\PSoC4/CapSense_CSHL.c ****                         posNext = diplex[maximum + 1u];
1635:.\Generated_Source\PSoC4/CapSense_CSHL.c ****                         count <<= 1u;
1636:.\Generated_Source\PSoC4/CapSense_CSHL.c ****                     }
1637:.\Generated_Source\PSoC4/CapSense_CSHL.c ****                 #elif (CapSense_IS_DIPLEX_SLIDER)
1638:.\Generated_Source\PSoC4/CapSense_CSHL.c ****                     /* Calculate next and previous near to maximum */
1639:.\Generated_Source\PSoC4/CapSense_CSHL.c ****                     pos     = diplex[maximum];
1640:.\Generated_Source\PSoC4/CapSense_CSHL.c ****                     posPrev = diplex[maximum - 1u];
1641:.\Generated_Source\PSoC4/CapSense_CSHL.c ****                     posNext = diplex[maximum + 1u];
1642:.\Generated_Source\PSoC4/CapSense_CSHL.c ****                     count <<= 1u;
1643:.\Generated_Source\PSoC4/CapSense_CSHL.c ****                 #else
1644:.\Generated_Source\PSoC4/CapSense_CSHL.c ****                     /* Calculate next and previous near to maximum */
1645:.\Generated_Source\PSoC4/CapSense_CSHL.c ****                     if (maximum >= 1u)
1646:.\Generated_Source\PSoC4/CapSense_CSHL.c ****                     {
1647:.\Generated_Source\PSoC4/CapSense_CSHL.c ****                         posPrev = maximum - 1u;
1648:.\Generated_Source\PSoC4/CapSense_CSHL.c ****                     }
1649:.\Generated_Source\PSoC4/CapSense_CSHL.c ****                     posNext = maximum + 1u;
1650:.\Generated_Source\PSoC4/CapSense_CSHL.c ****                 #endif /* (CapSense_IS_DIPLEX_SLIDER && CapSense_IS_NON_DIPLEX_SLIDER) */
1651:.\Generated_Source\PSoC4/CapSense_CSHL.c **** 
1652:.\Generated_Source\PSoC4/CapSense_CSHL.c ****                 /* Copy Signal to the centroid array */
1653:.\Generated_Source\PSoC4/CapSense_CSHL.c ****                 #if (CapSense_IS_DIPLEX_SLIDER)
1654:.\Generated_Source\PSoC4/CapSense_CSHL.c ****                     CapSense_centroid[CapSense_POS] = startOfSlider[pos];
1655:.\Generated_Source\PSoC4/CapSense_CSHL.c ****                 #else
1656:.\Generated_Source\PSoC4/CapSense_CSHL.c ****                     CapSense_centroid[CapSense_POS] = startOfSlider[maximum];
1657:.\Generated_Source\PSoC4/CapSense_CSHL.c ****                 #endif /* (CapSense_IS_DIPLEX_SLIDER) */
1658:.\Generated_Source\PSoC4/CapSense_CSHL.c **** 
1659:.\Generated_Source\PSoC4/CapSense_CSHL.c ****                 /* Check borders for LINEAR Slider */
1660:.\Generated_Source\PSoC4/CapSense_CSHL.c ****                 if (maximum == 0u)                   /* Start of centroid */
1661:.\Generated_Source\PSoC4/CapSense_CSHL.c ****                 {
1662:.\Generated_Source\PSoC4/CapSense_CSHL.c ****                     CapSense_centroid[CapSense_POS_PREV] = 0u;
1663:.\Generated_Source\PSoC4/CapSense_CSHL.c ****                     CapSense_centroid[CapSense_POS_NEXT] = startOfSlider[posNext];
1664:.\Generated_Source\PSoC4/CapSense_CSHL.c ****                 }
1665:.\Generated_Source\PSoC4/CapSense_CSHL.c ****                 else if (maximum == ((count) - 1u)) /* End of centroid */
1666:.\Generated_Source\PSoC4/CapSense_CSHL.c ****                 {
1667:.\Generated_Source\PSoC4/CapSense_CSHL.c ****                     CapSense_centroid[CapSense_POS_PREV] = startOfSlider[posPrev];
1668:.\Generated_Source\PSoC4/CapSense_CSHL.c ****                     CapSense_centroid[CapSense_POS_NEXT] = 0u;
1669:.\Generated_Source\PSoC4/CapSense_CSHL.c ****                 }
ARM GAS  C:\Users\Terence\AppData\Local\Temp\cc6R4aDx.s 			page 50


1670:.\Generated_Source\PSoC4/CapSense_CSHL.c ****                 else                                /* Not first Not last */
1671:.\Generated_Source\PSoC4/CapSense_CSHL.c ****                 {
1672:.\Generated_Source\PSoC4/CapSense_CSHL.c ****                     CapSense_centroid[CapSense_POS_PREV] = startOfSlider[posPrev];
1673:.\Generated_Source\PSoC4/CapSense_CSHL.c ****                     CapSense_centroid[CapSense_POS_NEXT] = startOfSlider[posNext];
1674:.\Generated_Source\PSoC4/CapSense_CSHL.c ****                 }
1675:.\Generated_Source\PSoC4/CapSense_CSHL.c ****             #endif /* ((CapSense_TOTAL_LINEAR_SLIDERS_COUNT>0u)||(CapSense_TOTAL_TOUCH_PADS_BASIC_C
1676:.\Generated_Source\PSoC4/CapSense_CSHL.c **** 
1677:.\Generated_Source\PSoC4/CapSense_CSHL.c ****         #if (CapSense_ADD_SLIDER_TYPE)
1678:.\Generated_Source\PSoC4/CapSense_CSHL.c ****             }
1679:.\Generated_Source\PSoC4/CapSense_CSHL.c ****         #endif /* (CapSense_ADD_SLIDER_TYPE) */
1680:.\Generated_Source\PSoC4/CapSense_CSHL.c **** 
1681:.\Generated_Source\PSoC4/CapSense_CSHL.c ****         /* Subtract noiseThreshold */
1682:.\Generated_Source\PSoC4/CapSense_CSHL.c ****         if(CapSense_centroid[CapSense_POS_PREV] > noiseThreshold)
 1113              		.loc 1 1682 0
 1114 0064 4823     		mov	r3, #72
 1115 0066 1D4A     		ldr	r2, .L103
 1116 0068 D35C     		ldrb	r3, [r2, r3]
 1117 006a 8342     		cmp	r3, r0
 1118 006c 04D9     		bls	.L98
1683:.\Generated_Source\PSoC4/CapSense_CSHL.c ****         {
1684:.\Generated_Source\PSoC4/CapSense_CSHL.c ****             CapSense_centroid[CapSense_POS_PREV] -= noiseThreshold;
 1119              		.loc 1 1684 0
 1120 006e 1B1A     		sub	r3, r3, r0
 1121 0070 4822     		mov	r2, #72
 1122 0072 1A49     		ldr	r1, .L103
 1123 0074 8B54     		strb	r3, [r1, r2]
 1124 0076 03E0     		b	.L99
 1125              	.L98:
1685:.\Generated_Source\PSoC4/CapSense_CSHL.c ****         }
1686:.\Generated_Source\PSoC4/CapSense_CSHL.c ****         else
1687:.\Generated_Source\PSoC4/CapSense_CSHL.c ****         {
1688:.\Generated_Source\PSoC4/CapSense_CSHL.c ****             CapSense_centroid[CapSense_POS_PREV] = 0u;
 1126              		.loc 1 1688 0
 1127 0078 0021     		mov	r1, #0
 1128 007a 4823     		mov	r3, #72
 1129 007c 174A     		ldr	r2, .L103
 1130 007e D154     		strb	r1, [r2, r3]
 1131              	.L99:
1689:.\Generated_Source\PSoC4/CapSense_CSHL.c ****         }
1690:.\Generated_Source\PSoC4/CapSense_CSHL.c **** 
1691:.\Generated_Source\PSoC4/CapSense_CSHL.c ****         /* Maximum always greater than fingerThreshold, so greater than noiseThreshold */
1692:.\Generated_Source\PSoC4/CapSense_CSHL.c ****         CapSense_centroid[CapSense_POS] -= noiseThreshold;
 1132              		.loc 1 1692 0
 1133 0080 164A     		ldr	r2, .L103
 1134 0082 4832     		add	r2, r2, #72
 1135 0084 5378     		ldrb	r3, [r2, #1]
 1136 0086 1B1A     		sub	r3, r3, r0
 1137 0088 DBB2     		uxtb	r3, r3
 1138 008a 5370     		strb	r3, [r2, #1]
1693:.\Generated_Source\PSoC4/CapSense_CSHL.c **** 
1694:.\Generated_Source\PSoC4/CapSense_CSHL.c ****         /* Subtract noiseThreshold */
1695:.\Generated_Source\PSoC4/CapSense_CSHL.c ****         if(CapSense_centroid[CapSense_POS_NEXT] > noiseThreshold)
 1139              		.loc 1 1695 0
 1140 008c 9278     		ldrb	r2, [r2, #2]
 1141 008e 8242     		cmp	r2, r0
 1142 0090 04D9     		bls	.L100
1696:.\Generated_Source\PSoC4/CapSense_CSHL.c ****         {
ARM GAS  C:\Users\Terence\AppData\Local\Temp\cc6R4aDx.s 			page 51


1697:.\Generated_Source\PSoC4/CapSense_CSHL.c ****             CapSense_centroid[CapSense_POS_NEXT] -= noiseThreshold;
 1143              		.loc 1 1697 0
 1144 0092 101A     		sub	r0, r2, r0
 1145 0094 114A     		ldr	r2, .L103
 1146 0096 4832     		add	r2, r2, #72
 1147 0098 9070     		strb	r0, [r2, #2]
 1148 009a 03E0     		b	.L101
 1149              	.L100:
1698:.\Generated_Source\PSoC4/CapSense_CSHL.c ****         }
1699:.\Generated_Source\PSoC4/CapSense_CSHL.c ****         else
1700:.\Generated_Source\PSoC4/CapSense_CSHL.c ****         {
1701:.\Generated_Source\PSoC4/CapSense_CSHL.c ****             CapSense_centroid[CapSense_POS_NEXT] = 0u;
 1150              		.loc 1 1701 0
 1151 009c 0021     		mov	r1, #0
 1152 009e 0F4A     		ldr	r2, .L103
 1153 00a0 4832     		add	r2, r2, #72
 1154 00a2 9170     		strb	r1, [r2, #2]
 1155              	.L101:
1702:.\Generated_Source\PSoC4/CapSense_CSHL.c ****         }
1703:.\Generated_Source\PSoC4/CapSense_CSHL.c **** 
1704:.\Generated_Source\PSoC4/CapSense_CSHL.c **** 
1705:.\Generated_Source\PSoC4/CapSense_CSHL.c ****         /* Si+1 - Si-1 */
1706:.\Generated_Source\PSoC4/CapSense_CSHL.c ****         numerator = (uint32) CapSense_centroid[CapSense_POS_NEXT] -
 1156              		.loc 1 1706 0
 1157 00a4 0D49     		ldr	r1, .L103
 1158 00a6 0A1C     		mov	r2, r1
 1159 00a8 4832     		add	r2, r2, #72
 1160 00aa 9278     		ldrb	r2, [r2, #2]
1707:.\Generated_Source\PSoC4/CapSense_CSHL.c ****                     (uint32) CapSense_centroid[CapSense_POS_PREV];
 1161              		.loc 1 1707 0
 1162 00ac 4820     		mov	r0, #72
 1163 00ae 095C     		ldrb	r1, [r1, r0]
1706:.\Generated_Source\PSoC4/CapSense_CSHL.c ****                     (uint32) CapSense_centroid[CapSense_POS_PREV];
 1164              		.loc 1 1706 0
 1165 00b0 501A     		sub	r0, r2, r1
 1166              	.LVL133:
1708:.\Generated_Source\PSoC4/CapSense_CSHL.c **** 
1709:.\Generated_Source\PSoC4/CapSense_CSHL.c ****         /* Si+1 + Si + Si-1 */
1710:.\Generated_Source\PSoC4/CapSense_CSHL.c ****         denominator = (int32) CapSense_centroid[CapSense_POS_PREV] +
 1167              		.loc 1 1710 0
 1168 00b2 C918     		add	r1, r1, r3
 1169 00b4 8918     		add	r1, r1, r2
 1170              	.LVL134:
1711:.\Generated_Source\PSoC4/CapSense_CSHL.c ****                       (int32) CapSense_centroid[CapSense_POS] +
1712:.\Generated_Source\PSoC4/CapSense_CSHL.c ****                       (int32) CapSense_centroid[CapSense_POS_NEXT];
1713:.\Generated_Source\PSoC4/CapSense_CSHL.c **** 
1714:.\Generated_Source\PSoC4/CapSense_CSHL.c ****         /* (numerator/denominator) + maximum */
1715:.\Generated_Source\PSoC4/CapSense_CSHL.c ****         denominator = (((int32)(uint32)((uint32)numerator << 8u)/denominator) + (int32)(uint32)((ui
 1171              		.loc 1 1715 0
 1172 00b6 0002     		lsl	r0, r0, #8
 1173              	.LVL135:
 1174 00b8 FFF7FEFF 		bl	__aeabi_idiv
 1175              	.LVL136:
 1176 00bc 2402     		lsl	r4, r4, #8
 1177              	.LVL137:
1716:.\Generated_Source\PSoC4/CapSense_CSHL.c **** 
1717:.\Generated_Source\PSoC4/CapSense_CSHL.c ****         #if(CapSense_TOTAL_RADIAL_SLIDERS_COUNT > 0u)
ARM GAS  C:\Users\Terence\AppData\Local\Temp\cc6R4aDx.s 			page 52


1718:.\Generated_Source\PSoC4/CapSense_CSHL.c ****             /* Only required for RADIAL Slider */
1719:.\Generated_Source\PSoC4/CapSense_CSHL.c ****             if(denominator < 0)
 1178              		.loc 1 1719 0
 1179 00be 0419     		add	r4, r0, r4
 1180 00c0 01D5     		bpl	.L102
 1181              	.LVL138:
1720:.\Generated_Source\PSoC4/CapSense_CSHL.c ****             {
1721:.\Generated_Source\PSoC4/CapSense_CSHL.c ****                 denominator += (int32)((uint16)((uint16) count << 8u));
 1182              		.loc 1 1721 0
 1183 00c2 3602     		lsl	r6, r6, #8
 1184 00c4 A419     		add	r4, r4, r6
 1185              	.LVL139:
 1186              	.L102:
1722:.\Generated_Source\PSoC4/CapSense_CSHL.c ****             }
1723:.\Generated_Source\PSoC4/CapSense_CSHL.c ****         #endif /* (CapSense_TOTAL_RADIAL_SLIDERS_COUNT > 0u) */
1724:.\Generated_Source\PSoC4/CapSense_CSHL.c **** 
1725:.\Generated_Source\PSoC4/CapSense_CSHL.c ****         denominator *= (int16)resolution;
 1187              		.loc 1 1725 0
 1188 00c6 6B46     		mov	r3, sp
 1189 00c8 0420     		mov	r0, #4
 1190 00ca 185E     		ldrsh	r0, [r3, r0]
 1191 00cc 4443     		mul	r4, r0
 1192              	.LVL140:
1726:.\Generated_Source\PSoC4/CapSense_CSHL.c **** 
1727:.\Generated_Source\PSoC4/CapSense_CSHL.c ****         /* Round result and put it to uint8 */
1728:.\Generated_Source\PSoC4/CapSense_CSHL.c ****         position = ((uint8) HI16((uint32)denominator + CapSense_CENTROID_ROUND_VALUE));
 1193              		.loc 1 1728 0
 1194 00ce FE23     		mov	r3, #254
 1195 00d0 DB01     		lsl	r3, r3, #7
 1196 00d2 E018     		add	r0, r4, r3
 1197 00d4 000C     		lsr	r0, r0, #16
 1198 00d6 C0B2     		uxtb	r0, r0
 1199              	.LVL141:
1729:.\Generated_Source\PSoC4/CapSense_CSHL.c **** 
1730:.\Generated_Source\PSoC4/CapSense_CSHL.c ****         return (position);
1731:.\Generated_Source\PSoC4/CapSense_CSHL.c ****     }
 1200              		.loc 1 1731 0
 1201 00d8 03B0     		add	sp, sp, #12
 1202              		@ sp needed
 1203              	.LVL142:
 1204 00da F0BD     		pop	{r4, r5, r6, r7, pc}
 1205              	.L104:
 1206              		.align	2
 1207              	.L103:
 1208 00dc 00000000 		.word	.LANCHOR0
 1209              		.cfi_endproc
 1210              	.LFE64:
 1211              		.size	CapSense_CalcCentroid, .-CapSense_CalcCentroid
 1212              		.section	.text.CapSense_GetCentroidPos,"ax",%progbits
 1213              		.align	2
 1214              		.global	CapSense_GetCentroidPos
 1215              		.code	16
 1216              		.thumb_func
 1217              		.type	CapSense_GetCentroidPos, %function
 1218              	CapSense_GetCentroidPos:
 1219              	.LFB65:
1732:.\Generated_Source\PSoC4/CapSense_CSHL.c **** #endif /* (CapSense_TOTAL_CENTROIDS_BASIC_COUNT) */
ARM GAS  C:\Users\Terence\AppData\Local\Temp\cc6R4aDx.s 			page 53


1733:.\Generated_Source\PSoC4/CapSense_CSHL.c **** 
1734:.\Generated_Source\PSoC4/CapSense_CSHL.c **** 
1735:.\Generated_Source\PSoC4/CapSense_CSHL.c **** #if((CapSense_TOTAL_RADIAL_SLIDERS_COUNT > 0u) || (CapSense_TOTAL_LINEAR_SLIDERS_COUNT > 0u))
1736:.\Generated_Source\PSoC4/CapSense_CSHL.c ****     /*******************************************************************************
1737:.\Generated_Source\PSoC4/CapSense_CSHL.c ****     * Function Name: CapSense_GetCentroidPos
1738:.\Generated_Source\PSoC4/CapSense_CSHL.c ****     ********************************************************************************
1739:.\Generated_Source\PSoC4/CapSense_CSHL.c ****     *
1740:.\Generated_Source\PSoC4/CapSense_CSHL.c ****     * Summary:
1741:.\Generated_Source\PSoC4/CapSense_CSHL.c ****     *  Checks the CapSense_Signal[ ] array for a centroid within
1742:.\Generated_Source\PSoC4/CapSense_CSHL.c ****     *  a slider specified range. The centroid position is calculated according to the resolution
1743:.\Generated_Source\PSoC4/CapSense_CSHL.c ****     *  specified in the CapSense customizer. The position filters are applied to the
1744:.\Generated_Source\PSoC4/CapSense_CSHL.c ****     *  result if enabled.
1745:.\Generated_Source\PSoC4/CapSense_CSHL.c ****     *
1746:.\Generated_Source\PSoC4/CapSense_CSHL.c ****     * Parameters:
1747:.\Generated_Source\PSoC4/CapSense_CSHL.c ****     *  widget:  Widget number.
1748:.\Generated_Source\PSoC4/CapSense_CSHL.c ****     *  For every linear slider widget there are defines in this format:
1749:.\Generated_Source\PSoC4/CapSense_CSHL.c ****     *  #define CapSense_"widget_name"__LS           5
1750:.\Generated_Source\PSoC4/CapSense_CSHL.c ****     *
1751:.\Generated_Source\PSoC4/CapSense_CSHL.c ****     * Return:
1752:.\Generated_Source\PSoC4/CapSense_CSHL.c ****     *  Returns a position value of the linear slider.
1753:.\Generated_Source\PSoC4/CapSense_CSHL.c ****     *
1754:.\Generated_Source\PSoC4/CapSense_CSHL.c ****     * Global Variables:
1755:.\Generated_Source\PSoC4/CapSense_CSHL.c ****     *  None
1756:.\Generated_Source\PSoC4/CapSense_CSHL.c ****     *
1757:.\Generated_Source\PSoC4/CapSense_CSHL.c ****     * Side Effects:
1758:.\Generated_Source\PSoC4/CapSense_CSHL.c ****     *  If any sensor within the slider widget is active, the function returns values
1759:.\Generated_Source\PSoC4/CapSense_CSHL.c ****     *  from zero to the API resolution value set in the CapSense customizer. If no
1760:.\Generated_Source\PSoC4/CapSense_CSHL.c ****     *  sensors are active, the function returns 0xFFFF. If an error occurs during
1761:.\Generated_Source\PSoC4/CapSense_CSHL.c ****     *  execution of the centroid/diplexing algorithm, the function returns 0xFFFF.
1762:.\Generated_Source\PSoC4/CapSense_CSHL.c ****     *  There are no checks of the widget type argument provided to this function.
1763:.\Generated_Source\PSoC4/CapSense_CSHL.c ****     *  The unproper widget type provided will cause unexpected position calculations.
1764:.\Generated_Source\PSoC4/CapSense_CSHL.c ****     *
1765:.\Generated_Source\PSoC4/CapSense_CSHL.c ****     * Note:
1766:.\Generated_Source\PSoC4/CapSense_CSHL.c ****     *  If noise counts on the slider segments are greater than the noise
1767:.\Generated_Source\PSoC4/CapSense_CSHL.c ****     *  threshold, this subroutine may generate a false centroid result. The noise
1768:.\Generated_Source\PSoC4/CapSense_CSHL.c ****     *  threshold should be set carefully (high enough above the noise level) so
1769:.\Generated_Source\PSoC4/CapSense_CSHL.c ****     *  that noise will not generate a false centroid.
1770:.\Generated_Source\PSoC4/CapSense_CSHL.c ****     *******************************************************************************/
1771:.\Generated_Source\PSoC4/CapSense_CSHL.c ****     uint16 CapSense_GetCentroidPos(uint32 widget)
1772:.\Generated_Source\PSoC4/CapSense_CSHL.c ****     {
 1220              		.loc 1 1772 0
 1221              		.cfi_startproc
 1222              	.LVL143:
 1223 0000 70B5     		push	{r4, r5, r6, lr}
 1224              		.cfi_def_cfa_offset 16
 1225              		.cfi_offset 4, -16
 1226              		.cfi_offset 5, -12
 1227              		.cfi_offset 6, -8
 1228              		.cfi_offset 14, -4
 1229 0002 82B0     		sub	sp, sp, #8
 1230              		.cfi_def_cfa_offset 24
 1231 0004 041C     		mov	r4, r0
1773:.\Generated_Source\PSoC4/CapSense_CSHL.c ****         #if (CapSense_IS_DIPLEX_SLIDER)
1774:.\Generated_Source\PSoC4/CapSense_CSHL.c ****             const uint8 *diplex;
1775:.\Generated_Source\PSoC4/CapSense_CSHL.c ****         #endif /* (CapSense_IS_DIPLEX_SLIDER) */
1776:.\Generated_Source\PSoC4/CapSense_CSHL.c **** 
1777:.\Generated_Source\PSoC4/CapSense_CSHL.c ****         #if (0u != CapSense_LINEAR_SLIDERS_POS_FILTERS_MASK)
ARM GAS  C:\Users\Terence\AppData\Local\Temp\cc6R4aDx.s 			page 54


1778:.\Generated_Source\PSoC4/CapSense_CSHL.c ****             uint8 posIndex;
1779:.\Generated_Source\PSoC4/CapSense_CSHL.c ****             uint8 firstTimeIndex = CapSense_posFiltersData[widget];
1780:.\Generated_Source\PSoC4/CapSense_CSHL.c ****             uint8 posFiltersMask = CapSense_posFiltersMask[widget];
1781:.\Generated_Source\PSoC4/CapSense_CSHL.c ****         #endif /* (0u != CapSense_LINEAR_SLIDERS_POS_FILTERS_MASK) */
1782:.\Generated_Source\PSoC4/CapSense_CSHL.c **** 
1783:.\Generated_Source\PSoC4/CapSense_CSHL.c ****         #if ((0u != (CapSense_MEDIAN_FILTER & CapSense_LINEAR_SLIDERS_POS_FILTERS_MASK)) || \
1784:.\Generated_Source\PSoC4/CapSense_CSHL.c ****              (0u != (CapSense_AVERAGING_FILTER & CapSense_LINEAR_SLIDERS_POS_FILTERS_MASK)))
1785:.\Generated_Source\PSoC4/CapSense_CSHL.c ****             uint8 tempPos;
1786:.\Generated_Source\PSoC4/CapSense_CSHL.c ****         #endif /* ((0u != (CapSense_MEDIAN_FILTER & CapSense_LINEAR_SLIDERS_POS_FILTERS_MASK)) || \
1787:.\Generated_Source\PSoC4/CapSense_CSHL.c ****                *   (0u != (CapSense_AVERAGING_FILTER & CapSense_LINEAR_SLIDERS_POS_FILTERS_MASK)))
1788:.\Generated_Source\PSoC4/CapSense_CSHL.c ****                */
1789:.\Generated_Source\PSoC4/CapSense_CSHL.c **** 
1790:.\Generated_Source\PSoC4/CapSense_CSHL.c ****         uint8 maximum;
1791:.\Generated_Source\PSoC4/CapSense_CSHL.c ****         uint16 position;
1792:.\Generated_Source\PSoC4/CapSense_CSHL.c ****         uint8 offset = CapSense_rawDataIndex[widget];
 1232              		.loc 1 1792 0
 1233 0006 0D4B     		ldr	r3, .L108
 1234 0008 1D5C     		ldrb	r5, [r3, r0]
 1235              	.LVL144:
1793:.\Generated_Source\PSoC4/CapSense_CSHL.c ****         uint8 count = CapSense_numberOfSensors[widget];
 1236              		.loc 1 1793 0
 1237 000a 1B18     		add	r3, r3, r0
 1238 000c 1E7A     		ldrb	r6, [r3, #8]
 1239              	.LVL145:
1794:.\Generated_Source\PSoC4/CapSense_CSHL.c **** 
1795:.\Generated_Source\PSoC4/CapSense_CSHL.c ****         #if (CapSense_IS_DIPLEX_SLIDER)
1796:.\Generated_Source\PSoC4/CapSense_CSHL.c ****             if(widget < CapSense_TOTAL_DIPLEXED_SLIDERS_COUNT)
1797:.\Generated_Source\PSoC4/CapSense_CSHL.c ****             {
1798:.\Generated_Source\PSoC4/CapSense_CSHL.c ****                 maximum = CapSense_diplexTable[widget];
1799:.\Generated_Source\PSoC4/CapSense_CSHL.c ****                 diplex = &CapSense_diplexTable[maximum];
1800:.\Generated_Source\PSoC4/CapSense_CSHL.c ****             }
1801:.\Generated_Source\PSoC4/CapSense_CSHL.c ****             else
1802:.\Generated_Source\PSoC4/CapSense_CSHL.c ****             {
1803:.\Generated_Source\PSoC4/CapSense_CSHL.c ****                 diplex = 0u;
1804:.\Generated_Source\PSoC4/CapSense_CSHL.c ****             }
1805:.\Generated_Source\PSoC4/CapSense_CSHL.c ****         #endif /* (CapSense_IS_DIPLEX_SLIDER) */
1806:.\Generated_Source\PSoC4/CapSense_CSHL.c **** 
1807:.\Generated_Source\PSoC4/CapSense_CSHL.c ****         /* Find Maximum within centroid */
1808:.\Generated_Source\PSoC4/CapSense_CSHL.c ****         #if (CapSense_IS_DIPLEX_SLIDER)
1809:.\Generated_Source\PSoC4/CapSense_CSHL.c ****             maximum = CapSense_FindMaximum(offset, count, (uint8)CapSense_fingerThreshold[widget], 
1810:.\Generated_Source\PSoC4/CapSense_CSHL.c ****         #else
1811:.\Generated_Source\PSoC4/CapSense_CSHL.c ****             maximum = CapSense_FindMaximum(offset, count, (uint8)CapSense_fingerThreshold[widget]);
 1240              		.loc 1 1811 0
 1241 000e 0C4B     		ldr	r3, .L108+4
 1242 0010 1B18     		add	r3, r3, r0
 1243 0012 1A7A     		ldrb	r2, [r3, #8]
 1244 0014 281C     		mov	r0, r5
 1245              	.LVL146:
 1246 0016 311C     		mov	r1, r6
 1247 0018 FFF7FEFF 		bl	CapSense_FindMaximum
 1248              	.LVL147:
1812:.\Generated_Source\PSoC4/CapSense_CSHL.c ****         #endif /* (CapSense_IS_DIPLEX_SLIDER) */
1813:.\Generated_Source\PSoC4/CapSense_CSHL.c **** 
1814:.\Generated_Source\PSoC4/CapSense_CSHL.c ****         if (maximum != 0xFFu)
 1249              		.loc 1 1814 0
 1250 001c FF28     		cmp	r0, #255
 1251 001e 0AD0     		beq	.L107
ARM GAS  C:\Users\Terence\AppData\Local\Temp\cc6R4aDx.s 			page 55


1815:.\Generated_Source\PSoC4/CapSense_CSHL.c ****         {
1816:.\Generated_Source\PSoC4/CapSense_CSHL.c ****             /* Calculate centroid */
1817:.\Generated_Source\PSoC4/CapSense_CSHL.c ****             position = (uint16) CapSense_CalcCentroid(maximum,
 1252              		.loc 1 1817 0
 1253 0020 084B     		ldr	r3, .L108+8
 1254 0022 1B5D     		ldrb	r3, [r3, r4]
 1255 0024 0093     		str	r3, [sp]
 1256 0026 291C     		mov	r1, r5
 1257 0028 321C     		mov	r2, r6
 1258 002a C823     		mov	r3, #200
 1259 002c 5B01     		lsl	r3, r3, #5
 1260 002e FFF7FEFF 		bl	CapSense_CalcCentroid
 1261              	.LVL148:
 1262 0032 80B2     		uxth	r0, r0
 1263              	.LVL149:
 1264 0034 00E0     		b	.L106
 1265              	.LVL150:
 1266              	.L107:
1818:.\Generated_Source\PSoC4/CapSense_CSHL.c ****                          offset, count, CapSense_centroidMult[widget], CapSense_noiseThreshold[widg
1819:.\Generated_Source\PSoC4/CapSense_CSHL.c **** 
1820:.\Generated_Source\PSoC4/CapSense_CSHL.c ****             #if (0u != CapSense_LINEAR_SLIDERS_POS_FILTERS_MASK)
1821:.\Generated_Source\PSoC4/CapSense_CSHL.c ****                 /* Check if this linear slider has enabled filters */
1822:.\Generated_Source\PSoC4/CapSense_CSHL.c ****                 if (0u != (posFiltersMask & CapSense_ANY_POS_FILTER))
1823:.\Generated_Source\PSoC4/CapSense_CSHL.c ****                 {
1824:.\Generated_Source\PSoC4/CapSense_CSHL.c ****                     /* Calculate position to store filters data */
1825:.\Generated_Source\PSoC4/CapSense_CSHL.c ****                     posIndex  = firstTimeIndex + 1u;
1826:.\Generated_Source\PSoC4/CapSense_CSHL.c **** 
1827:.\Generated_Source\PSoC4/CapSense_CSHL.c ****                     if (0u == CapSense_posFiltersData[firstTimeIndex])
1828:.\Generated_Source\PSoC4/CapSense_CSHL.c ****                     {
1829:.\Generated_Source\PSoC4/CapSense_CSHL.c ****                         /* Init filters */
1830:.\Generated_Source\PSoC4/CapSense_CSHL.c ****                         CapSense_posFiltersData[posIndex] = (uint8) position;
1831:.\Generated_Source\PSoC4/CapSense_CSHL.c ****                         #if ((0u != (CapSense_MEDIAN_FILTER & \
1832:.\Generated_Source\PSoC4/CapSense_CSHL.c ****                                      CapSense_LINEAR_SLIDERS_POS_FILTERS_MASK)) || \
1833:.\Generated_Source\PSoC4/CapSense_CSHL.c ****                              (0u != (CapSense_AVERAGING_FILTER & \
1834:.\Generated_Source\PSoC4/CapSense_CSHL.c ****                                      CapSense_LINEAR_SLIDERS_POS_FILTERS_MASK)))
1835:.\Generated_Source\PSoC4/CapSense_CSHL.c **** 
1836:.\Generated_Source\PSoC4/CapSense_CSHL.c ****                             if ( (0u != (posFiltersMask & CapSense_MEDIAN_FILTER)) ||
1837:.\Generated_Source\PSoC4/CapSense_CSHL.c ****                                  (0u != (posFiltersMask & CapSense_AVERAGING_FILTER)) )
1838:.\Generated_Source\PSoC4/CapSense_CSHL.c ****                             {
1839:.\Generated_Source\PSoC4/CapSense_CSHL.c ****                                 CapSense_posFiltersData[posIndex + 1u] = (uint8) position;
1840:.\Generated_Source\PSoC4/CapSense_CSHL.c ****                             }
1841:.\Generated_Source\PSoC4/CapSense_CSHL.c ****                         #endif /* ((0u != (CapSense_MEDIAN_FILTER & \
1842:.\Generated_Source\PSoC4/CapSense_CSHL.c ****                                *           CapSense_LINEAR_SLIDERS_POS_FILTERS_MASK)) || \
1843:.\Generated_Source\PSoC4/CapSense_CSHL.c ****                                *   (0u != (CapSense_AVERAGING_FILTER & \
1844:.\Generated_Source\PSoC4/CapSense_CSHL.c ****                                *           CapSense_LINEAR_SLIDERS_POS_FILTERS_MASK)))
1845:.\Generated_Source\PSoC4/CapSense_CSHL.c ****                                */
1846:.\Generated_Source\PSoC4/CapSense_CSHL.c **** 
1847:.\Generated_Source\PSoC4/CapSense_CSHL.c ****                         CapSense_posFiltersData[firstTimeIndex] = 1u;
1848:.\Generated_Source\PSoC4/CapSense_CSHL.c ****                     }
1849:.\Generated_Source\PSoC4/CapSense_CSHL.c ****                     else
1850:.\Generated_Source\PSoC4/CapSense_CSHL.c ****                     {
1851:.\Generated_Source\PSoC4/CapSense_CSHL.c ****                         /* Do filtering */
1852:.\Generated_Source\PSoC4/CapSense_CSHL.c ****                         #if (0u != (CapSense_MEDIAN_FILTER & CapSense_LINEAR_SLIDERS_POS_FILTERS_MA
1853:.\Generated_Source\PSoC4/CapSense_CSHL.c ****                             if (0u != (posFiltersMask & CapSense_MEDIAN_FILTER))
1854:.\Generated_Source\PSoC4/CapSense_CSHL.c ****                             {
1855:.\Generated_Source\PSoC4/CapSense_CSHL.c ****                                 tempPos = (uint8) position;
1856:.\Generated_Source\PSoC4/CapSense_CSHL.c ****                                 position = CapSense_MedianFilter(position,
ARM GAS  C:\Users\Terence\AppData\Local\Temp\cc6R4aDx.s 			page 56


1857:.\Generated_Source\PSoC4/CapSense_CSHL.c ****                                                                 (uint16)CapSense_posFiltersData[pos
1858:.\Generated_Source\PSoC4/CapSense_CSHL.c ****                                                                 (uint16)CapSense_posFiltersData[pos
1859:.\Generated_Source\PSoC4/CapSense_CSHL.c ****                                 CapSense_posFiltersData[posIndex + 1u] =
1860:.\Generated_Source\PSoC4/CapSense_CSHL.c ****                                                                              CapSense_posFiltersDat
1861:.\Generated_Source\PSoC4/CapSense_CSHL.c ****                                 CapSense_posFiltersData[posIndex] = tempPos;
1862:.\Generated_Source\PSoC4/CapSense_CSHL.c ****                             }
1863:.\Generated_Source\PSoC4/CapSense_CSHL.c ****                         #endif /*(0u != (CapSense_MEDIAN_FILTER &
1864:.\Generated_Source\PSoC4/CapSense_CSHL.c ****                                *         CapSense_LINEAR_SLIDERS_POS_FILTERS_MASK))
1865:.\Generated_Source\PSoC4/CapSense_CSHL.c ****                                */
1866:.\Generated_Source\PSoC4/CapSense_CSHL.c **** 
1867:.\Generated_Source\PSoC4/CapSense_CSHL.c ****                         #if(0u!=(CapSense_AVERAGING_FILTER & CapSense_LINEAR_SLIDERS_POS_FILTERS_MA
1868:.\Generated_Source\PSoC4/CapSense_CSHL.c ****                             if (0u != (posFiltersMask & CapSense_AVERAGING_FILTER))
1869:.\Generated_Source\PSoC4/CapSense_CSHL.c ****                             {
1870:.\Generated_Source\PSoC4/CapSense_CSHL.c ****                                 tempPos = (uint8) position;
1871:.\Generated_Source\PSoC4/CapSense_CSHL.c ****                                 position = CapSense_AveragingFilter(position,
1872:.\Generated_Source\PSoC4/CapSense_CSHL.c ****                                                                 (uint16)CapSense_posFiltersData[pos
1873:.\Generated_Source\PSoC4/CapSense_CSHL.c ****                                                                 (uint16)CapSense_posFiltersData[pos
1874:.\Generated_Source\PSoC4/CapSense_CSHL.c ****                                 CapSense_posFiltersData[posIndex+1u]=CapSense_posFiltersData[posInd
1875:.\Generated_Source\PSoC4/CapSense_CSHL.c ****                                 CapSense_posFiltersData[posIndex] = tempPos;
1876:.\Generated_Source\PSoC4/CapSense_CSHL.c ****                             }
1877:.\Generated_Source\PSoC4/CapSense_CSHL.c ****                         #endif /* (0u != (CapSense_AVERAGING_FILTER & \
1878:.\Generated_Source\PSoC4/CapSense_CSHL.c ****                                *           CapSense_LINEAR_SLIDERS_POS_FILTERS_MASK))
1879:.\Generated_Source\PSoC4/CapSense_CSHL.c ****                                */
1880:.\Generated_Source\PSoC4/CapSense_CSHL.c **** 
1881:.\Generated_Source\PSoC4/CapSense_CSHL.c ****                         #if (0u != (CapSense_IIR2_FILTER & CapSense_LINEAR_SLIDERS_POS_FILTERS_MASK
1882:.\Generated_Source\PSoC4/CapSense_CSHL.c ****                             if (0u != (posFiltersMask & CapSense_IIR2_FILTER))
1883:.\Generated_Source\PSoC4/CapSense_CSHL.c ****                             {
1884:.\Generated_Source\PSoC4/CapSense_CSHL.c ****                                 position = CapSense_IIR2Filter(position,
1885:.\Generated_Source\PSoC4/CapSense_CSHL.c ****                                                                     (uint16)CapSense_posFiltersData
1886:.\Generated_Source\PSoC4/CapSense_CSHL.c ****                                 CapSense_posFiltersData[posIndex] = (uint8) position;
1887:.\Generated_Source\PSoC4/CapSense_CSHL.c ****                             }
1888:.\Generated_Source\PSoC4/CapSense_CSHL.c ****                         #endif /* (0u != (CapSense_IIR2_FILTER & \
1889:.\Generated_Source\PSoC4/CapSense_CSHL.c ****                                *          CapSense_LINEAR_SLIDERS_POS_FILTERS_MASK))
1890:.\Generated_Source\PSoC4/CapSense_CSHL.c ****                                */
1891:.\Generated_Source\PSoC4/CapSense_CSHL.c **** 
1892:.\Generated_Source\PSoC4/CapSense_CSHL.c ****                         #if (0u != (CapSense_IIR4_FILTER & CapSense_LINEAR_SLIDERS_POS_FILTERS_MASK
1893:.\Generated_Source\PSoC4/CapSense_CSHL.c ****                             if (0u != (posFiltersMask & CapSense_IIR4_FILTER))
1894:.\Generated_Source\PSoC4/CapSense_CSHL.c ****                             {
1895:.\Generated_Source\PSoC4/CapSense_CSHL.c ****                                 position = CapSense_IIR4Filter(position,
1896:.\Generated_Source\PSoC4/CapSense_CSHL.c ****                                                                     (uint16)CapSense_posFiltersData
1897:.\Generated_Source\PSoC4/CapSense_CSHL.c ****                                 CapSense_posFiltersData[posIndex] = (uint8) position;
1898:.\Generated_Source\PSoC4/CapSense_CSHL.c ****                             }
1899:.\Generated_Source\PSoC4/CapSense_CSHL.c ****                         #endif /* (0u != (CapSense_IIR4_FILTER & \
1900:.\Generated_Source\PSoC4/CapSense_CSHL.c ****                                *          CapSense_LINEAR_SLIDERS_POS_FILTERS_MASK))
1901:.\Generated_Source\PSoC4/CapSense_CSHL.c ****                                */
1902:.\Generated_Source\PSoC4/CapSense_CSHL.c **** 
1903:.\Generated_Source\PSoC4/CapSense_CSHL.c ****                         #if (0u != (CapSense_JITTER_FILTER & CapSense_LINEAR_SLIDERS_POS_FILTERS_MA
1904:.\Generated_Source\PSoC4/CapSense_CSHL.c ****                             if (0u != (posFiltersMask & CapSense_JITTER_FILTER))
1905:.\Generated_Source\PSoC4/CapSense_CSHL.c ****                             {
1906:.\Generated_Source\PSoC4/CapSense_CSHL.c ****                                 position = CapSense_JitterFilter(position,
1907:.\Generated_Source\PSoC4/CapSense_CSHL.c ****                                                                     (uint16)CapSense_posFiltersData
1908:.\Generated_Source\PSoC4/CapSense_CSHL.c ****                                 CapSense_posFiltersData[posIndex] = (uint8) position;
1909:.\Generated_Source\PSoC4/CapSense_CSHL.c ****                             }
1910:.\Generated_Source\PSoC4/CapSense_CSHL.c ****                         #endif /* (0u != (CapSense_JITTER_FILTER & \
1911:.\Generated_Source\PSoC4/CapSense_CSHL.c ****                                *           CapSense_LINEAR_SLIDERS_POS_FILTERS_MASK))
1912:.\Generated_Source\PSoC4/CapSense_CSHL.c ****                                */
1913:.\Generated_Source\PSoC4/CapSense_CSHL.c ****                     }
ARM GAS  C:\Users\Terence\AppData\Local\Temp\cc6R4aDx.s 			page 57


1914:.\Generated_Source\PSoC4/CapSense_CSHL.c ****                 }
1915:.\Generated_Source\PSoC4/CapSense_CSHL.c ****             #endif /* (0u != CapSense_LINEAR_SLIDERS_POS_FILTERS_MASK) */
1916:.\Generated_Source\PSoC4/CapSense_CSHL.c **** 
1917:.\Generated_Source\PSoC4/CapSense_CSHL.c ****         }
1918:.\Generated_Source\PSoC4/CapSense_CSHL.c ****         else
1919:.\Generated_Source\PSoC4/CapSense_CSHL.c ****         {
1920:.\Generated_Source\PSoC4/CapSense_CSHL.c ****             /* Maximum wasn't found */
1921:.\Generated_Source\PSoC4/CapSense_CSHL.c ****             position = 0xFFFFu;
 1267              		.loc 1 1921 0
 1268 0036 0448     		ldr	r0, .L108+12
 1269              	.LVL151:
 1270              	.L106:
1922:.\Generated_Source\PSoC4/CapSense_CSHL.c **** 
1923:.\Generated_Source\PSoC4/CapSense_CSHL.c ****             #if(0u != CapSense_LINEAR_SLIDERS_POS_FILTERS_MASK)
1924:.\Generated_Source\PSoC4/CapSense_CSHL.c ****                 /* Reset filters */
1925:.\Generated_Source\PSoC4/CapSense_CSHL.c ****                 if(0u != (posFiltersMask & CapSense_ANY_POS_FILTER))
1926:.\Generated_Source\PSoC4/CapSense_CSHL.c ****                 {
1927:.\Generated_Source\PSoC4/CapSense_CSHL.c ****                     CapSense_posFiltersData[firstTimeIndex] = 0u;
1928:.\Generated_Source\PSoC4/CapSense_CSHL.c ****                 }
1929:.\Generated_Source\PSoC4/CapSense_CSHL.c ****             #endif /* (0u != CapSense_LINEAR_SLIDERS_POS_FILTERS_MASK) */
1930:.\Generated_Source\PSoC4/CapSense_CSHL.c ****         }
1931:.\Generated_Source\PSoC4/CapSense_CSHL.c **** 
1932:.\Generated_Source\PSoC4/CapSense_CSHL.c **** 
1933:.\Generated_Source\PSoC4/CapSense_CSHL.c ****         return (position);
1934:.\Generated_Source\PSoC4/CapSense_CSHL.c ****     }
 1271              		.loc 1 1934 0
 1272 0038 02B0     		add	sp, sp, #8
 1273              		@ sp needed
 1274              	.LVL152:
 1275              	.LVL153:
 1276              	.LVL154:
 1277 003a 70BD     		pop	{r4, r5, r6, pc}
 1278              	.L109:
 1279              		.align	2
 1280              	.L108:
 1281 003c 00000000 		.word	.LANCHOR2
 1282 0040 00000000 		.word	.LANCHOR1
 1283 0044 00000000 		.word	CapSense_noiseThreshold
 1284 0048 FFFF0000 		.word	65535
 1285              		.cfi_endproc
 1286              	.LFE65:
 1287              		.size	CapSense_GetCentroidPos, .-CapSense_GetCentroidPos
 1288              		.section	.text.CapSense_MedianFilter,"ax",%progbits
 1289              		.align	2
 1290              		.global	CapSense_MedianFilter
 1291              		.code	16
 1292              		.thumb_func
 1293              		.type	CapSense_MedianFilter, %function
 1294              	CapSense_MedianFilter:
 1295              	.LFB67:
1935:.\Generated_Source\PSoC4/CapSense_CSHL.c **** #endif /* ((CapSense_TOTAL_RADIAL_SLIDERS_COUNT > 0u) || (CapSense_TOTAL_LINEAR_SLIDERS_COUNT > 0u)
1936:.\Generated_Source\PSoC4/CapSense_CSHL.c **** 
1937:.\Generated_Source\PSoC4/CapSense_CSHL.c **** 
1938:.\Generated_Source\PSoC4/CapSense_CSHL.c **** #if((CapSense_TOTAL_RADIAL_SLIDERS_COUNT > 0u) || (CapSense_TOTAL_LINEAR_SLIDERS_COUNT > 0u))
1939:.\Generated_Source\PSoC4/CapSense_CSHL.c ****     /*******************************************************************************
1940:.\Generated_Source\PSoC4/CapSense_CSHL.c ****     * Function Name: CapSense_GetRadialCentroidPos
1941:.\Generated_Source\PSoC4/CapSense_CSHL.c ****     ********************************************************************************
ARM GAS  C:\Users\Terence\AppData\Local\Temp\cc6R4aDx.s 			page 58


1942:.\Generated_Source\PSoC4/CapSense_CSHL.c ****     *
1943:.\Generated_Source\PSoC4/CapSense_CSHL.c ****     * Summary:
1944:.\Generated_Source\PSoC4/CapSense_CSHL.c ****     *  Checks the CapSense_Signal[ ] array for a centroid within
1945:.\Generated_Source\PSoC4/CapSense_CSHL.c ****     *  a slider specified range. The centroid position is calculated according to the resolution
1946:.\Generated_Source\PSoC4/CapSense_CSHL.c ****     *  specified in the CapSense customizer. The position filters are applied to the
1947:.\Generated_Source\PSoC4/CapSense_CSHL.c ****     *  result if enabled.
1948:.\Generated_Source\PSoC4/CapSense_CSHL.c ****     *
1949:.\Generated_Source\PSoC4/CapSense_CSHL.c ****     * Parameters:
1950:.\Generated_Source\PSoC4/CapSense_CSHL.c ****     *  widget:  Widget number.
1951:.\Generated_Source\PSoC4/CapSense_CSHL.c ****     *  For every radial slider widget there are defines in this format:
1952:.\Generated_Source\PSoC4/CapSense_CSHL.c ****     *  #define CapSense_"widget_name"__RS           5
1953:.\Generated_Source\PSoC4/CapSense_CSHL.c ****     *
1954:.\Generated_Source\PSoC4/CapSense_CSHL.c ****     * Return:
1955:.\Generated_Source\PSoC4/CapSense_CSHL.c ****     *  Returns a position value of the radial slider.
1956:.\Generated_Source\PSoC4/CapSense_CSHL.c ****     *
1957:.\Generated_Source\PSoC4/CapSense_CSHL.c ****     * Global Variables:
1958:.\Generated_Source\PSoC4/CapSense_CSHL.c ****     *  None.
1959:.\Generated_Source\PSoC4/CapSense_CSHL.c ****     *
1960:.\Generated_Source\PSoC4/CapSense_CSHL.c ****     * Side Effects:
1961:.\Generated_Source\PSoC4/CapSense_CSHL.c ****     *  If any sensor within the slider widget is active, the function returns values
1962:.\Generated_Source\PSoC4/CapSense_CSHL.c ****     *  from zero to the API resolution value set in the CapSense customizer. If no
1963:.\Generated_Source\PSoC4/CapSense_CSHL.c ****     *  sensors are active, the function returns 0xFFFF.
1964:.\Generated_Source\PSoC4/CapSense_CSHL.c ****     *  There are no checks of the widget type argument provided to this function.
1965:.\Generated_Source\PSoC4/CapSense_CSHL.c ****     *  The unproper widget type provided will cause unexpected position calculations.
1966:.\Generated_Source\PSoC4/CapSense_CSHL.c ****     *
1967:.\Generated_Source\PSoC4/CapSense_CSHL.c ****     * Note:
1968:.\Generated_Source\PSoC4/CapSense_CSHL.c ****     *  If noise counts on the slider segments are greater than the noise
1969:.\Generated_Source\PSoC4/CapSense_CSHL.c ****     *  threshold, this subroutine may generate a false centroid result. The noise
1970:.\Generated_Source\PSoC4/CapSense_CSHL.c ****     *  threshold should be set carefully (high enough above the noise level) so
1971:.\Generated_Source\PSoC4/CapSense_CSHL.c ****     *  that noise will not generate a false centroid.
1972:.\Generated_Source\PSoC4/CapSense_CSHL.c ****     *
1973:.\Generated_Source\PSoC4/CapSense_CSHL.c ****     *******************************************************************************/
1974:.\Generated_Source\PSoC4/CapSense_CSHL.c ****      uint16 CapSense_GetRadialCentroidPos(uint32 widget)
1975:.\Generated_Source\PSoC4/CapSense_CSHL.c ****     {
1976:.\Generated_Source\PSoC4/CapSense_CSHL.c ****         #if (0u != CapSense_RADIAL_SLIDERS_POS_FILTERS_MASK)
1977:.\Generated_Source\PSoC4/CapSense_CSHL.c ****             uint8 posIndex;
1978:.\Generated_Source\PSoC4/CapSense_CSHL.c ****             uint8 firstTimeIndex = CapSense_posFiltersData[widget];
1979:.\Generated_Source\PSoC4/CapSense_CSHL.c ****             uint8 posFiltersMask = CapSense_posFiltersMask[widget];
1980:.\Generated_Source\PSoC4/CapSense_CSHL.c ****         #endif /* (0u != CapSense_RADIAL_SLIDERS_POS_FILTERS_MASK) */
1981:.\Generated_Source\PSoC4/CapSense_CSHL.c **** 
1982:.\Generated_Source\PSoC4/CapSense_CSHL.c ****         #if ((0u != (CapSense_MEDIAN_FILTER & CapSense_RADIAL_SLIDERS_POS_FILTERS_MASK)) || \
1983:.\Generated_Source\PSoC4/CapSense_CSHL.c ****              (0u != (CapSense_AVERAGING_FILTER & CapSense_RADIAL_SLIDERS_POS_FILTERS_MASK)))
1984:.\Generated_Source\PSoC4/CapSense_CSHL.c ****             uint8 tempPos;
1985:.\Generated_Source\PSoC4/CapSense_CSHL.c ****         #endif /* ((0u != (CapSense_MEDIAN_FILTER & CapSense_RADIAL_SLIDERS_POS_FILTERS_MASK)) || \
1986:.\Generated_Source\PSoC4/CapSense_CSHL.c ****                *   (0u != (CapSense_AVERAGING_FILTER & CapSense_RADIAL_SLIDERS_POS_FILTERS_MASK)))
1987:.\Generated_Source\PSoC4/CapSense_CSHL.c ****                */
1988:.\Generated_Source\PSoC4/CapSense_CSHL.c **** 
1989:.\Generated_Source\PSoC4/CapSense_CSHL.c ****         uint8 maximum;
1990:.\Generated_Source\PSoC4/CapSense_CSHL.c ****         uint16 position;
1991:.\Generated_Source\PSoC4/CapSense_CSHL.c ****         uint8 offset = CapSense_rawDataIndex[widget];
1992:.\Generated_Source\PSoC4/CapSense_CSHL.c ****         uint8 count = CapSense_numberOfSensors[widget];
1993:.\Generated_Source\PSoC4/CapSense_CSHL.c **** 
1994:.\Generated_Source\PSoC4/CapSense_CSHL.c ****         /* Find Maximum within centroid */
1995:.\Generated_Source\PSoC4/CapSense_CSHL.c ****         #if (CapSense_IS_DIPLEX_SLIDER)
1996:.\Generated_Source\PSoC4/CapSense_CSHL.c ****             maximum = CapSense_FindMaximum(offset, count, (uint8)CapSense_fingerThreshold[widget], 
1997:.\Generated_Source\PSoC4/CapSense_CSHL.c ****         #else
1998:.\Generated_Source\PSoC4/CapSense_CSHL.c ****             maximum = CapSense_FindMaximum(offset, count, (uint8)CapSense_fingerThreshold[widget]);
ARM GAS  C:\Users\Terence\AppData\Local\Temp\cc6R4aDx.s 			page 59


1999:.\Generated_Source\PSoC4/CapSense_CSHL.c ****         #endif /* (CapSense_IS_DIPLEX_SLIDER) */
2000:.\Generated_Source\PSoC4/CapSense_CSHL.c **** 
2001:.\Generated_Source\PSoC4/CapSense_CSHL.c ****         if (maximum != CapSense_MAXIMUM_CENTROID)
2002:.\Generated_Source\PSoC4/CapSense_CSHL.c ****         {
2003:.\Generated_Source\PSoC4/CapSense_CSHL.c ****             /* Calculate centroid */
2004:.\Generated_Source\PSoC4/CapSense_CSHL.c ****             position = (uint16) CapSense_CalcCentroid(maximum,
2005:.\Generated_Source\PSoC4/CapSense_CSHL.c ****                          offset, count, CapSense_centroidMult[widget], CapSense_noiseThreshold[widg
2006:.\Generated_Source\PSoC4/CapSense_CSHL.c **** 
2007:.\Generated_Source\PSoC4/CapSense_CSHL.c ****             #if (0u != CapSense_RADIAL_SLIDERS_POS_FILTERS_MASK)
2008:.\Generated_Source\PSoC4/CapSense_CSHL.c ****                 /* Check if this Radial slider has enabled filters */
2009:.\Generated_Source\PSoC4/CapSense_CSHL.c ****                 if (0u != (posFiltersMask & CapSense_ANY_POS_FILTER))
2010:.\Generated_Source\PSoC4/CapSense_CSHL.c ****                 {
2011:.\Generated_Source\PSoC4/CapSense_CSHL.c ****                     /* Calculate position to store filters data */
2012:.\Generated_Source\PSoC4/CapSense_CSHL.c ****                     posIndex  = firstTimeIndex + 1u;
2013:.\Generated_Source\PSoC4/CapSense_CSHL.c **** 
2014:.\Generated_Source\PSoC4/CapSense_CSHL.c ****                     if (0u == CapSense_posFiltersData[firstTimeIndex])
2015:.\Generated_Source\PSoC4/CapSense_CSHL.c ****                     {
2016:.\Generated_Source\PSoC4/CapSense_CSHL.c ****                         /* Init filters */
2017:.\Generated_Source\PSoC4/CapSense_CSHL.c ****                         CapSense_posFiltersData[posIndex] = (uint8) position;
2018:.\Generated_Source\PSoC4/CapSense_CSHL.c ****                         #if ((0u != (CapSense_MEDIAN_FILTER & \
2019:.\Generated_Source\PSoC4/CapSense_CSHL.c ****                                      CapSense_RADIAL_SLIDERS_POS_FILTERS_MASK)) || \
2020:.\Generated_Source\PSoC4/CapSense_CSHL.c ****                              (0u != (CapSense_AVERAGING_FILTER & \
2021:.\Generated_Source\PSoC4/CapSense_CSHL.c ****                                      CapSense_RADIAL_SLIDERS_POS_FILTERS_MASK)))
2022:.\Generated_Source\PSoC4/CapSense_CSHL.c **** 
2023:.\Generated_Source\PSoC4/CapSense_CSHL.c ****                             if ( (0u != (posFiltersMask & CapSense_MEDIAN_FILTER))  ||
2024:.\Generated_Source\PSoC4/CapSense_CSHL.c ****                                  (0u != (posFiltersMask & CapSense_AVERAGING_FILTER)) )
2025:.\Generated_Source\PSoC4/CapSense_CSHL.c ****                             {
2026:.\Generated_Source\PSoC4/CapSense_CSHL.c ****                                 CapSense_posFiltersData[posIndex + 1u] = (uint8) position;
2027:.\Generated_Source\PSoC4/CapSense_CSHL.c ****                             }
2028:.\Generated_Source\PSoC4/CapSense_CSHL.c ****                         #endif /* ((0u != (CapSense_MEDIAN_FILTER & \
2029:.\Generated_Source\PSoC4/CapSense_CSHL.c ****                                *           CapSense_RADIAL_SLIDERS_POS_FILTERS_MASK)) || \
2030:.\Generated_Source\PSoC4/CapSense_CSHL.c ****                                *   (0u != (CapSense_AVERAGING_FILTER & \
2031:.\Generated_Source\PSoC4/CapSense_CSHL.c ****                                *           CapSense_RADIAL_SLIDERS_POS_FILTERS_MASK)))
2032:.\Generated_Source\PSoC4/CapSense_CSHL.c ****                                */
2033:.\Generated_Source\PSoC4/CapSense_CSHL.c **** 
2034:.\Generated_Source\PSoC4/CapSense_CSHL.c ****                         CapSense_posFiltersData[firstTimeIndex] = 1u;
2035:.\Generated_Source\PSoC4/CapSense_CSHL.c ****                     }
2036:.\Generated_Source\PSoC4/CapSense_CSHL.c ****                     else
2037:.\Generated_Source\PSoC4/CapSense_CSHL.c ****                     {
2038:.\Generated_Source\PSoC4/CapSense_CSHL.c ****                         /* Do filtering */
2039:.\Generated_Source\PSoC4/CapSense_CSHL.c ****                         #if (0u != (CapSense_MEDIAN_FILTER & CapSense_RADIAL_SLIDERS_POS_FILTERS_MA
2040:.\Generated_Source\PSoC4/CapSense_CSHL.c ****                             if (0u != (posFiltersMask & CapSense_MEDIAN_FILTER))
2041:.\Generated_Source\PSoC4/CapSense_CSHL.c ****                             {
2042:.\Generated_Source\PSoC4/CapSense_CSHL.c ****                                 tempPos = (uint8) position;
2043:.\Generated_Source\PSoC4/CapSense_CSHL.c ****                                 position = CapSense_MedianFilter(position,
2044:.\Generated_Source\PSoC4/CapSense_CSHL.c ****                                                                         CapSense_posFiltersData[pos
2045:.\Generated_Source\PSoC4/CapSense_CSHL.c ****                                                                         CapSense_posFiltersData[pos
2046:.\Generated_Source\PSoC4/CapSense_CSHL.c ****                                 CapSense_posFiltersData[posIndex + 1u] =
2047:.\Generated_Source\PSoC4/CapSense_CSHL.c ****                                                                               CapSense_posFiltersDa
2048:.\Generated_Source\PSoC4/CapSense_CSHL.c ****                                 CapSense_posFiltersData[posIndex] = tempPos;
2049:.\Generated_Source\PSoC4/CapSense_CSHL.c ****                             }
2050:.\Generated_Source\PSoC4/CapSense_CSHL.c ****                         #endif /* (0u != (CapSense_MEDIAN_FILTER &
2051:.\Generated_Source\PSoC4/CapSense_CSHL.c ****                                *          CapSense_RADIAL_SLIDERS_POS_FILTERS_MASK))
2052:.\Generated_Source\PSoC4/CapSense_CSHL.c ****                                */
2053:.\Generated_Source\PSoC4/CapSense_CSHL.c **** 
2054:.\Generated_Source\PSoC4/CapSense_CSHL.c ****                         #if (0u != (CapSense_AVERAGING_FILTER & \
2055:.\Generated_Source\PSoC4/CapSense_CSHL.c ****                                     CapSense_RADIAL_SLIDERS_POS_FILTERS_MASK))
ARM GAS  C:\Users\Terence\AppData\Local\Temp\cc6R4aDx.s 			page 60


2056:.\Generated_Source\PSoC4/CapSense_CSHL.c ****                             if (0u != (posFiltersMask & CapSense_AVERAGING_FILTER))
2057:.\Generated_Source\PSoC4/CapSense_CSHL.c ****                             {
2058:.\Generated_Source\PSoC4/CapSense_CSHL.c ****                                 tempPos = (uint8) position;
2059:.\Generated_Source\PSoC4/CapSense_CSHL.c ****                                 position = CapSense_AveragingFilter(position,
2060:.\Generated_Source\PSoC4/CapSense_CSHL.c ****                                                                        CapSense_posFiltersData[posI
2061:.\Generated_Source\PSoC4/CapSense_CSHL.c ****                                                                        CapSense_posFiltersData[posI
2062:.\Generated_Source\PSoC4/CapSense_CSHL.c ****                                 CapSense_posFiltersData[posIndex+1u]= CapSense_posFiltersData[posIn
2063:.\Generated_Source\PSoC4/CapSense_CSHL.c ****                                 CapSense_posFiltersData[posIndex] = tempPos;
2064:.\Generated_Source\PSoC4/CapSense_CSHL.c ****                             }
2065:.\Generated_Source\PSoC4/CapSense_CSHL.c ****                         #endif /* (0u != (CapSense_AVERAGING_FILTER & \
2066:.\Generated_Source\PSoC4/CapSense_CSHL.c ****                                *          CapSense_RADIAL_SLIDERS_POS_FILTERS_MASK))
2067:.\Generated_Source\PSoC4/CapSense_CSHL.c ****                                */
2068:.\Generated_Source\PSoC4/CapSense_CSHL.c **** 
2069:.\Generated_Source\PSoC4/CapSense_CSHL.c ****                         #if (0u != (CapSense_IIR2_FILTER & CapSense_RADIAL_SLIDERS_POS_FILTERS_MASK
2070:.\Generated_Source\PSoC4/CapSense_CSHL.c ****                             if (0u != (posFiltersMask & CapSense_IIR2_FILTER))
2071:.\Generated_Source\PSoC4/CapSense_CSHL.c ****                             {
2072:.\Generated_Source\PSoC4/CapSense_CSHL.c ****                                 position = CapSense_IIR2Filter(position,
2073:.\Generated_Source\PSoC4/CapSense_CSHL.c ****                                                                     (uint16)CapSense_posFiltersData
2074:.\Generated_Source\PSoC4/CapSense_CSHL.c ****                                 CapSense_posFiltersData[posIndex] = (uint8) position;
2075:.\Generated_Source\PSoC4/CapSense_CSHL.c ****                             }
2076:.\Generated_Source\PSoC4/CapSense_CSHL.c ****                         #endif /* (0u != (CapSense_IIR2_FILTER &
2077:.\Generated_Source\PSoC4/CapSense_CSHL.c ****                                *          CapSense_RADIAL_SLIDERS_POS_FILTERS_MASK))
2078:.\Generated_Source\PSoC4/CapSense_CSHL.c ****                                */
2079:.\Generated_Source\PSoC4/CapSense_CSHL.c **** 
2080:.\Generated_Source\PSoC4/CapSense_CSHL.c ****                         #if (0u != (CapSense_IIR4_FILTER & CapSense_RADIAL_SLIDERS_POS_FILTERS_MASK
2081:.\Generated_Source\PSoC4/CapSense_CSHL.c ****                             if (0u != (posFiltersMask & CapSense_IIR4_FILTER))
2082:.\Generated_Source\PSoC4/CapSense_CSHL.c ****                             {
2083:.\Generated_Source\PSoC4/CapSense_CSHL.c ****                                 position = CapSense_IIR4Filter(position,
2084:.\Generated_Source\PSoC4/CapSense_CSHL.c ****                                                                     (uint16)CapSense_posFiltersData
2085:.\Generated_Source\PSoC4/CapSense_CSHL.c ****                                 CapSense_posFiltersData[posIndex] = (uint8) position;
2086:.\Generated_Source\PSoC4/CapSense_CSHL.c ****                             }
2087:.\Generated_Source\PSoC4/CapSense_CSHL.c ****                         #endif /* (0u != (CapSense_IIR4_FILTER &
2088:.\Generated_Source\PSoC4/CapSense_CSHL.c ****                                *          CapSense_RADIAL_SLIDERS_POS_FILTERS_MASK))
2089:.\Generated_Source\PSoC4/CapSense_CSHL.c ****                                */
2090:.\Generated_Source\PSoC4/CapSense_CSHL.c **** 
2091:.\Generated_Source\PSoC4/CapSense_CSHL.c ****                         #if (0u != (CapSense_JITTER_FILTER & CapSense_RADIAL_SLIDERS_POS_FILTERS_MA
2092:.\Generated_Source\PSoC4/CapSense_CSHL.c ****                             if (0u != (posFiltersMask & CapSense_JITTER_FILTER))
2093:.\Generated_Source\PSoC4/CapSense_CSHL.c ****                             {
2094:.\Generated_Source\PSoC4/CapSense_CSHL.c ****                                 position = CapSense_JitterFilter(position,
2095:.\Generated_Source\PSoC4/CapSense_CSHL.c ****                                                                          CapSense_posFiltersData[po
2096:.\Generated_Source\PSoC4/CapSense_CSHL.c ****                                 CapSense_posFiltersData[posIndex] = (uint8) position;
2097:.\Generated_Source\PSoC4/CapSense_CSHL.c ****                             }
2098:.\Generated_Source\PSoC4/CapSense_CSHL.c ****                         #endif /* (0u != (CapSense_JITTER_FILTER &
2099:.\Generated_Source\PSoC4/CapSense_CSHL.c ****                                *           CapSense_RADIAL_SLIDERS_POS_FILTERS_MASK))
2100:.\Generated_Source\PSoC4/CapSense_CSHL.c ****                                */
2101:.\Generated_Source\PSoC4/CapSense_CSHL.c ****                     }
2102:.\Generated_Source\PSoC4/CapSense_CSHL.c ****                 }
2103:.\Generated_Source\PSoC4/CapSense_CSHL.c ****             #endif /* (0u != CapSense_RADIAL_SLIDERS_POS_FILTERS_MASK) */
2104:.\Generated_Source\PSoC4/CapSense_CSHL.c **** 
2105:.\Generated_Source\PSoC4/CapSense_CSHL.c ****         }
2106:.\Generated_Source\PSoC4/CapSense_CSHL.c ****         else
2107:.\Generated_Source\PSoC4/CapSense_CSHL.c ****         {
2108:.\Generated_Source\PSoC4/CapSense_CSHL.c ****             /* Maximum was not found */
2109:.\Generated_Source\PSoC4/CapSense_CSHL.c ****             position = 0xFFFFu;
2110:.\Generated_Source\PSoC4/CapSense_CSHL.c **** 
2111:.\Generated_Source\PSoC4/CapSense_CSHL.c ****             #if (0u != CapSense_RADIAL_SLIDERS_POS_FILTERS_MASK)
2112:.\Generated_Source\PSoC4/CapSense_CSHL.c ****                 /* Reset filters */
ARM GAS  C:\Users\Terence\AppData\Local\Temp\cc6R4aDx.s 			page 61


2113:.\Generated_Source\PSoC4/CapSense_CSHL.c ****                 if((posFiltersMask & CapSense_ANY_POS_FILTER) != 0u)
2114:.\Generated_Source\PSoC4/CapSense_CSHL.c ****                 {
2115:.\Generated_Source\PSoC4/CapSense_CSHL.c ****                     CapSense_posFiltersData[firstTimeIndex] = 0u;
2116:.\Generated_Source\PSoC4/CapSense_CSHL.c ****                 }
2117:.\Generated_Source\PSoC4/CapSense_CSHL.c ****             #endif /* (0u != CapSense_RADIAL_SLIDERS_POS_FILTERS_MASK) */
2118:.\Generated_Source\PSoC4/CapSense_CSHL.c ****         }
2119:.\Generated_Source\PSoC4/CapSense_CSHL.c **** 
2120:.\Generated_Source\PSoC4/CapSense_CSHL.c ****         return (position);
2121:.\Generated_Source\PSoC4/CapSense_CSHL.c ****     }
2122:.\Generated_Source\PSoC4/CapSense_CSHL.c **** #endif /* ((CapSense_TOTAL_RADIAL_SLIDERS_COUNT > 0u) || (CapSense_TOTAL_LINEAR_SLIDERS_COUNT > 0u)
2123:.\Generated_Source\PSoC4/CapSense_CSHL.c **** 
2124:.\Generated_Source\PSoC4/CapSense_CSHL.c **** 
2125:.\Generated_Source\PSoC4/CapSense_CSHL.c **** #if(CapSense_TOTAL_TOUCH_PADS_BASIC_COUNT > 0u)
2126:.\Generated_Source\PSoC4/CapSense_CSHL.c ****     /*******************************************************************************
2127:.\Generated_Source\PSoC4/CapSense_CSHL.c ****     * Function Name: CapSense_GetTouchCentroidPos
2128:.\Generated_Source\PSoC4/CapSense_CSHL.c ****     ********************************************************************************
2129:.\Generated_Source\PSoC4/CapSense_CSHL.c ****     *
2130:.\Generated_Source\PSoC4/CapSense_CSHL.c ****     * Summary:
2131:.\Generated_Source\PSoC4/CapSense_CSHL.c ****     *  If a finger is present on a touchpad, this function calculates the X and Y
2132:.\Generated_Source\PSoC4/CapSense_CSHL.c ****     *  position of the finger by calculating the centroids within touchpad specified
2133:.\Generated_Source\PSoC4/CapSense_CSHL.c ****     *  range. The X and Y positions are calculated according to the API resolutions set in the
2134:.\Generated_Source\PSoC4/CapSense_CSHL.c ****     *  CapSense customizer. Returns 1 if a finger is on the touchpad.
2135:.\Generated_Source\PSoC4/CapSense_CSHL.c ****     *  The position filter is applied to the result if enabled.
2136:.\Generated_Source\PSoC4/CapSense_CSHL.c ****     *  This function is available only if a touch pad is defined by the CapSense
2137:.\Generated_Source\PSoC4/CapSense_CSHL.c ****     *  customizer.
2138:.\Generated_Source\PSoC4/CapSense_CSHL.c ****     *
2139:.\Generated_Source\PSoC4/CapSense_CSHL.c ****     * Parameters:
2140:.\Generated_Source\PSoC4/CapSense_CSHL.c ****     *  widget:  Widget number.
2141:.\Generated_Source\PSoC4/CapSense_CSHL.c ****     *  For every touchpad widget there are defines in this format:
2142:.\Generated_Source\PSoC4/CapSense_CSHL.c ****     *  #define CapSense_"widget_name"__TP            5
2143:.\Generated_Source\PSoC4/CapSense_CSHL.c ****     *
2144:.\Generated_Source\PSoC4/CapSense_CSHL.c ****     *  pos:     Pointer to the array of two uint16 elements, where result
2145:.\Generated_Source\PSoC4/CapSense_CSHL.c ****     *  result of calculation of X and Y position are stored.
2146:.\Generated_Source\PSoC4/CapSense_CSHL.c ****     *  pos[0u]  - position of X
2147:.\Generated_Source\PSoC4/CapSense_CSHL.c ****     *  pos[1u]  - position of Y
2148:.\Generated_Source\PSoC4/CapSense_CSHL.c ****     *
2149:.\Generated_Source\PSoC4/CapSense_CSHL.c ****     * Return:
2150:.\Generated_Source\PSoC4/CapSense_CSHL.c ****     *  Returns a 1 if a finger is on the touch pad, 0 - if not.
2151:.\Generated_Source\PSoC4/CapSense_CSHL.c ****     *
2152:.\Generated_Source\PSoC4/CapSense_CSHL.c ****     * Global Variables:
2153:.\Generated_Source\PSoC4/CapSense_CSHL.c ****     *  None.
2154:.\Generated_Source\PSoC4/CapSense_CSHL.c ****     *
2155:.\Generated_Source\PSoC4/CapSense_CSHL.c ****     * Side Effects:
2156:.\Generated_Source\PSoC4/CapSense_CSHL.c ****     *   There are no checks of the widget type argument provided to this function.
2157:.\Generated_Source\PSoC4/CapSense_CSHL.c ****     *   The unproper widget type provided will cause unexpected position
2158:.\Generated_Source\PSoC4/CapSense_CSHL.c ****     *   calculations.
2159:.\Generated_Source\PSoC4/CapSense_CSHL.c ****     *
2160:.\Generated_Source\PSoC4/CapSense_CSHL.c ****     *******************************************************************************/
2161:.\Generated_Source\PSoC4/CapSense_CSHL.c ****     uint32 CapSense_GetTouchCentroidPos(uint32 widget, uint16* pos)
2162:.\Generated_Source\PSoC4/CapSense_CSHL.c ****     {
2163:.\Generated_Source\PSoC4/CapSense_CSHL.c ****         #if (0u != CapSense_TOUCH_PADS_POS_FILTERS_MASK)
2164:.\Generated_Source\PSoC4/CapSense_CSHL.c ****             uint8 posXIndex;
2165:.\Generated_Source\PSoC4/CapSense_CSHL.c ****             uint8 posYIndex;
2166:.\Generated_Source\PSoC4/CapSense_CSHL.c ****             uint8 firstTimeIndex = CapSense_posFiltersData[widget];
2167:.\Generated_Source\PSoC4/CapSense_CSHL.c ****             uint8 posFiltersMask = CapSense_posFiltersMask[widget];
2168:.\Generated_Source\PSoC4/CapSense_CSHL.c ****         #endif /* (0u != CapSense_TOUCH_PADS_POS_FILTERS_MASK) */
2169:.\Generated_Source\PSoC4/CapSense_CSHL.c **** 
ARM GAS  C:\Users\Terence\AppData\Local\Temp\cc6R4aDx.s 			page 62


2170:.\Generated_Source\PSoC4/CapSense_CSHL.c ****         #if ((0u != (CapSense_MEDIAN_FILTER & CapSense_TOUCH_PADS_POS_FILTERS_MASK)) || \
2171:.\Generated_Source\PSoC4/CapSense_CSHL.c ****              (0u != (CapSense_AVERAGING_FILTER & CapSense_TOUCH_PADS_POS_FILTERS_MASK)))
2172:.\Generated_Source\PSoC4/CapSense_CSHL.c ****             uint16 tempPos;
2173:.\Generated_Source\PSoC4/CapSense_CSHL.c ****         #endif /* ((0u != (CapSense_MEDIAN_FILTER & CapSense_TOUCH_PADS_POS_FILTERS_MASK)) || \
2174:.\Generated_Source\PSoC4/CapSense_CSHL.c ****                *   (0u != (CapSense_AVERAGING_FILTER & CapSense_TOUCH_PADS_POS_FILTERS_MASK)))
2175:.\Generated_Source\PSoC4/CapSense_CSHL.c ****                */
2176:.\Generated_Source\PSoC4/CapSense_CSHL.c **** 
2177:.\Generated_Source\PSoC4/CapSense_CSHL.c ****         uint8 MaxX;
2178:.\Generated_Source\PSoC4/CapSense_CSHL.c ****         uint8 MaxY;
2179:.\Generated_Source\PSoC4/CapSense_CSHL.c ****         uint8 posX;
2180:.\Generated_Source\PSoC4/CapSense_CSHL.c ****         uint8 posY;
2181:.\Generated_Source\PSoC4/CapSense_CSHL.c ****         uint32 touch = 0u;
2182:.\Generated_Source\PSoC4/CapSense_CSHL.c ****         uint8 offset = CapSense_rawDataIndex[widget];
2183:.\Generated_Source\PSoC4/CapSense_CSHL.c ****         uint8 count = CapSense_numberOfSensors[widget];
2184:.\Generated_Source\PSoC4/CapSense_CSHL.c **** 
2185:.\Generated_Source\PSoC4/CapSense_CSHL.c ****         /* Find Maximum within X centroid */
2186:.\Generated_Source\PSoC4/CapSense_CSHL.c ****         #if (CapSense_IS_DIPLEX_SLIDER)
2187:.\Generated_Source\PSoC4/CapSense_CSHL.c ****             MaxX = CapSense_FindMaximum(offset, count, CapSense_fingerThreshold[widget], 0u);
2188:.\Generated_Source\PSoC4/CapSense_CSHL.c ****         #else
2189:.\Generated_Source\PSoC4/CapSense_CSHL.c ****             MaxX = CapSense_FindMaximum(offset, count, CapSense_fingerThreshold[widget]);
2190:.\Generated_Source\PSoC4/CapSense_CSHL.c ****         #endif /* (CapSense_IS_DIPLEX_SLIDER) */
2191:.\Generated_Source\PSoC4/CapSense_CSHL.c **** 
2192:.\Generated_Source\PSoC4/CapSense_CSHL.c ****         if (MaxX != CapSense_MAXIMUM_CENTROID)
2193:.\Generated_Source\PSoC4/CapSense_CSHL.c ****         {
2194:.\Generated_Source\PSoC4/CapSense_CSHL.c ****             offset = CapSense_rawDataIndex[widget + 1u];
2195:.\Generated_Source\PSoC4/CapSense_CSHL.c ****             count = CapSense_numberOfSensors[widget + 1u];
2196:.\Generated_Source\PSoC4/CapSense_CSHL.c **** 
2197:.\Generated_Source\PSoC4/CapSense_CSHL.c ****             /* Find Maximum within Y centroid */
2198:.\Generated_Source\PSoC4/CapSense_CSHL.c ****             #if (CapSense_IS_DIPLEX_SLIDER)
2199:.\Generated_Source\PSoC4/CapSense_CSHL.c ****                 MaxY = CapSense_FindMaximum(offset, count, CapSense_fingerThreshold[widget + 1u], 0
2200:.\Generated_Source\PSoC4/CapSense_CSHL.c ****             #else
2201:.\Generated_Source\PSoC4/CapSense_CSHL.c ****                 MaxY = CapSense_FindMaximum(offset, count, CapSense_fingerThreshold[widget + 1u]);
2202:.\Generated_Source\PSoC4/CapSense_CSHL.c ****             #endif /* (CapSense_IS_DIPLEX_SLIDER) */
2203:.\Generated_Source\PSoC4/CapSense_CSHL.c **** 
2204:.\Generated_Source\PSoC4/CapSense_CSHL.c ****             if (MaxY != CapSense_MAXIMUM_CENTROID)
2205:.\Generated_Source\PSoC4/CapSense_CSHL.c ****             {
2206:.\Generated_Source\PSoC4/CapSense_CSHL.c ****                 /* X and Y maximums are found = true touch */
2207:.\Generated_Source\PSoC4/CapSense_CSHL.c ****                 touch = 1u;
2208:.\Generated_Source\PSoC4/CapSense_CSHL.c **** 
2209:.\Generated_Source\PSoC4/CapSense_CSHL.c ****                 /* Calculate Y centroid */
2210:.\Generated_Source\PSoC4/CapSense_CSHL.c ****                 posY = CapSense_CalcCentroid(MaxY, offset, count,
2211:.\Generated_Source\PSoC4/CapSense_CSHL.c ****                             CapSense_centroidMult[widget + 1u], CapSense_noiseThreshold[widget + 1u
2212:.\Generated_Source\PSoC4/CapSense_CSHL.c **** 
2213:.\Generated_Source\PSoC4/CapSense_CSHL.c ****                 /* Calculate X centroid */
2214:.\Generated_Source\PSoC4/CapSense_CSHL.c ****                 offset = CapSense_rawDataIndex[widget];
2215:.\Generated_Source\PSoC4/CapSense_CSHL.c ****                 count = CapSense_numberOfSensors[widget];
2216:.\Generated_Source\PSoC4/CapSense_CSHL.c **** 
2217:.\Generated_Source\PSoC4/CapSense_CSHL.c ****                 posX = CapSense_CalcCentroid(MaxX, offset, count,
2218:.\Generated_Source\PSoC4/CapSense_CSHL.c ****                             CapSense_centroidMult[widget],CapSense_noiseThreshold[widget]);
2219:.\Generated_Source\PSoC4/CapSense_CSHL.c **** 
2220:.\Generated_Source\PSoC4/CapSense_CSHL.c ****                 #if (0u != CapSense_TOUCH_PADS_POS_FILTERS_MASK)
2221:.\Generated_Source\PSoC4/CapSense_CSHL.c ****                     /* Check if this TP has enabled filters */
2222:.\Generated_Source\PSoC4/CapSense_CSHL.c ****                     if (0u != (posFiltersMask & CapSense_ANY_POS_FILTER))
2223:.\Generated_Source\PSoC4/CapSense_CSHL.c ****                     {
