ARM GAS  C:\Users\Terence\AppData\Local\Temp\cc6R4aDx.s 			page 1


   1              		.cpu cortex-m0
   2              		.fpu softvfp
   3              		.eabi_attribute 20, 1
   4              		.eabi_attribute 21, 1
   5              		.eabi_attribute 23, 3
   6              		.eabi_attribute 24, 1
   7              		.eabi_attribute 25, 1
   8              		.eabi_attribute 26, 1
   9              		.eabi_attribute 30, 1
  10              		.eabi_attribute 34, 0
  11              		.eabi_attribute 18, 4
  12              		.code	16
  13              		.file	"CapSense_CSHL.c"
  14              		.text
  15              	.Ltext0:
  16              		.cfi_sections	.debug_frame
  17              		.section	.text.CapSense_BaseInit,"ax",%progbits
  18              		.align	2
  19              		.global	CapSense_BaseInit
  20              		.code	16
  21              		.thumb_func
  22              		.type	CapSense_BaseInit, %function
  23              	CapSense_BaseInit:
  24              	.LFB36:
  25              		.file 1 ".\\Generated_Source\\PSoC4\\CapSense_CSHL.c"
   1:.\Generated_Source\PSoC4/CapSense_CSHL.c **** /*******************************************************************************
   2:.\Generated_Source\PSoC4/CapSense_CSHL.c **** * File Name: CapSense_CSHL.c
   3:.\Generated_Source\PSoC4/CapSense_CSHL.c **** * Version 2.30
   4:.\Generated_Source\PSoC4/CapSense_CSHL.c **** *
   5:.\Generated_Source\PSoC4/CapSense_CSHL.c **** * Description:
   6:.\Generated_Source\PSoC4/CapSense_CSHL.c **** *  This file provides the source code to the High Level APIs for the CapSesne
   7:.\Generated_Source\PSoC4/CapSense_CSHL.c **** *  CSD component.
   8:.\Generated_Source\PSoC4/CapSense_CSHL.c **** *
   9:.\Generated_Source\PSoC4/CapSense_CSHL.c **** * Note:
  10:.\Generated_Source\PSoC4/CapSense_CSHL.c **** *
  11:.\Generated_Source\PSoC4/CapSense_CSHL.c **** ********************************************************************************
  12:.\Generated_Source\PSoC4/CapSense_CSHL.c **** * Copyright 2013-2015, Cypress Semiconductor Corporation.  All rights reserved.
  13:.\Generated_Source\PSoC4/CapSense_CSHL.c **** * You may use this file only in accordance with the license, terms, conditions,
  14:.\Generated_Source\PSoC4/CapSense_CSHL.c **** * disclaimers, and limitations in the end user license agreement accompanying
  15:.\Generated_Source\PSoC4/CapSense_CSHL.c **** * the software package with which this file was provided.
  16:.\Generated_Source\PSoC4/CapSense_CSHL.c **** *******************************************************************************/
  17:.\Generated_Source\PSoC4/CapSense_CSHL.c **** 
  18:.\Generated_Source\PSoC4/CapSense_CSHL.c **** #include "CapSense_CSHL.h"
  19:.\Generated_Source\PSoC4/CapSense_CSHL.c **** #include "CapSense_PVT.h"
  20:.\Generated_Source\PSoC4/CapSense_CSHL.c **** 
  21:.\Generated_Source\PSoC4/CapSense_CSHL.c **** /* SmartSense functions */
  22:.\Generated_Source\PSoC4/CapSense_CSHL.c **** #if (CapSense_TUNING_METHOD == CapSense__TUNING_AUTO)
  23:.\Generated_Source\PSoC4/CapSense_CSHL.c ****     extern void CapSense_UpdateThresholds(uint32 sensor);
  24:.\Generated_Source\PSoC4/CapSense_CSHL.c **** #endif /* (CapSense_TUNING_METHOD == CapSense__TUNING_AUTO) */
  25:.\Generated_Source\PSoC4/CapSense_CSHL.c **** 
  26:.\Generated_Source\PSoC4/CapSense_CSHL.c **** /* Storage of filters data */
  27:.\Generated_Source\PSoC4/CapSense_CSHL.c **** #if ( (0u != (CapSense_RAW_FILTER_MASK & CapSense_MEDIAN_FILTER)) || \
  28:.\Generated_Source\PSoC4/CapSense_CSHL.c ****       (0u != (CapSense_RAW_FILTER_MASK & CapSense_AVERAGING_FILTER)) )
  29:.\Generated_Source\PSoC4/CapSense_CSHL.c **** 
  30:.\Generated_Source\PSoC4/CapSense_CSHL.c ****     uint16 CapSense_rawFilterData1[CapSense_TOTAL_SENSOR_COUNT];
  31:.\Generated_Source\PSoC4/CapSense_CSHL.c ****     uint16 CapSense_rawFilterData2[CapSense_TOTAL_SENSOR_COUNT];
  32:.\Generated_Source\PSoC4/CapSense_CSHL.c **** 
ARM GAS  C:\Users\Terence\AppData\Local\Temp\cc6R4aDx.s 			page 2


  33:.\Generated_Source\PSoC4/CapSense_CSHL.c **** #elif ( (0u != (CapSense_RAW_FILTER_MASK & CapSense_IIR2_FILTER))   || \
  34:.\Generated_Source\PSoC4/CapSense_CSHL.c ****         (0u != (CapSense_RAW_FILTER_MASK & CapSense_IIR4_FILTER))   || \
  35:.\Generated_Source\PSoC4/CapSense_CSHL.c ****         (0u != (CapSense_RAW_FILTER_MASK & CapSense_JITTER_FILTER)) || \
  36:.\Generated_Source\PSoC4/CapSense_CSHL.c ****         (0u != (CapSense_RAW_FILTER_MASK & CapSense_IIR8_FILTER))   || \
  37:.\Generated_Source\PSoC4/CapSense_CSHL.c ****         (0u != (CapSense_RAW_FILTER_MASK & CapSense_IIR16_FILTER)) )
  38:.\Generated_Source\PSoC4/CapSense_CSHL.c **** 
  39:.\Generated_Source\PSoC4/CapSense_CSHL.c ****     uint16 CapSense_rawFilterData1[CapSense_TOTAL_SENSOR_COUNT];
  40:.\Generated_Source\PSoC4/CapSense_CSHL.c **** #endif  /* ( (CapSense_RAW_FILTER_MASK & CapSense_MEDIAN_FILTER) || \
  41:.\Generated_Source\PSoC4/CapSense_CSHL.c ****         *    (CapSense_RAW_FILTER_MASK & CapSense_AVERAGING_FILTER) )
  42:.\Generated_Source\PSoC4/CapSense_CSHL.c ****         */
  43:.\Generated_Source\PSoC4/CapSense_CSHL.c **** 
  44:.\Generated_Source\PSoC4/CapSense_CSHL.c **** extern uint16 CapSense_sensorRaw[CapSense_TOTAL_SENSOR_COUNT];
  45:.\Generated_Source\PSoC4/CapSense_CSHL.c **** extern uint8 CapSense_sensorEnableMask[CapSense_TOTAL_SENSOR_MASK];
  46:.\Generated_Source\PSoC4/CapSense_CSHL.c **** extern const uint8 CapSense_widgetNumber[CapSense_TOTAL_SENSOR_COUNT];
  47:.\Generated_Source\PSoC4/CapSense_CSHL.c **** 
  48:.\Generated_Source\PSoC4/CapSense_CSHL.c **** #if (CapSense_TUNING_METHOD != CapSense__TUNING_NONE)
  49:.\Generated_Source\PSoC4/CapSense_CSHL.c ****     extern uint32 CapSense_widgetResolution[CapSense_RESOLUTIONS_TBL_SIZE];
  50:.\Generated_Source\PSoC4/CapSense_CSHL.c **** #endif /* (CapSense_TUNING_METHOD != CapSense__TUNING_NONE) */
  51:.\Generated_Source\PSoC4/CapSense_CSHL.c **** 
  52:.\Generated_Source\PSoC4/CapSense_CSHL.c **** uint16 CapSense_sensorBaseline[CapSense_TOTAL_SENSOR_COUNT] = {0u};
  53:.\Generated_Source\PSoC4/CapSense_CSHL.c **** uint8 CapSense_sensorBaselineLow[CapSense_TOTAL_SENSOR_COUNT] = {0u};
  54:.\Generated_Source\PSoC4/CapSense_CSHL.c **** uint8 CapSense_sensorSignal[CapSense_TOTAL_SENSOR_COUNT] = {0u};
  55:.\Generated_Source\PSoC4/CapSense_CSHL.c **** uint8 CapSense_sensorOnMask[CapSense_TOTAL_SENSOR_MASK] = {0u};
  56:.\Generated_Source\PSoC4/CapSense_CSHL.c **** 
  57:.\Generated_Source\PSoC4/CapSense_CSHL.c **** uint8 CapSense_lowBaselineResetCnt[CapSense_TOTAL_SENSOR_COUNT];
  58:.\Generated_Source\PSoC4/CapSense_CSHL.c **** uint8 CapSense_lowBaselineReset[CapSense_TOTAL_SENSOR_COUNT] = {
  59:.\Generated_Source\PSoC4/CapSense_CSHL.c ****     30u, 30u, 30u, 30u, 30u, 30u, 30u, 30u, 30u, 30u, 30u, 30u, 30u, 
  60:.\Generated_Source\PSoC4/CapSense_CSHL.c **** };
  61:.\Generated_Source\PSoC4/CapSense_CSHL.c **** 
  62:.\Generated_Source\PSoC4/CapSense_CSHL.c **** 
  63:.\Generated_Source\PSoC4/CapSense_CSHL.c **** 
  64:.\Generated_Source\PSoC4/CapSense_CSHL.c **** #if (CapSense_TUNING_METHOD == CapSense__TUNING_AUTO)
  65:.\Generated_Source\PSoC4/CapSense_CSHL.c ****     extern CapSense_CONFIG_TYPE_P4_v2_40 CapSense_config;
  66:.\Generated_Source\PSoC4/CapSense_CSHL.c **** #endif  /* (CapSense_TUNING_METHOD == CapSense__TUNING_AUTO) */
  67:.\Generated_Source\PSoC4/CapSense_CSHL.c **** 
  68:.\Generated_Source\PSoC4/CapSense_CSHL.c **** #if (CapSense_RAW_FILTER_MASK != 0u)
  69:.\Generated_Source\PSoC4/CapSense_CSHL.c **** uint8 CapSense_enableRawFilters = CapSense_RAW_FILTERS_ENABLED;
  70:.\Generated_Source\PSoC4/CapSense_CSHL.c **** #endif  /* (CapSense_RAW_FILTER_MASK != 0u) */
  71:.\Generated_Source\PSoC4/CapSense_CSHL.c **** 
  72:.\Generated_Source\PSoC4/CapSense_CSHL.c **** /* Generated by Customizer */
  73:.\Generated_Source\PSoC4/CapSense_CSHL.c **** uint8 CapSense_fingerThreshold[] = {
  74:.\Generated_Source\PSoC4/CapSense_CSHL.c ****     100u, 200u, 200u, 200u, 200u, 100u, 
  75:.\Generated_Source\PSoC4/CapSense_CSHL.c **** };
  76:.\Generated_Source\PSoC4/CapSense_CSHL.c **** 
  77:.\Generated_Source\PSoC4/CapSense_CSHL.c **** uint8 CapSense_noiseThreshold[CapSense_THRESHOLD_TBL_SIZE];
  78:.\Generated_Source\PSoC4/CapSense_CSHL.c **** 
  79:.\Generated_Source\PSoC4/CapSense_CSHL.c **** uint8 CapSense_negativeNoiseThreshold[CapSense_THRESHOLD_TBL_SIZE];
  80:.\Generated_Source\PSoC4/CapSense_CSHL.c **** 
  81:.\Generated_Source\PSoC4/CapSense_CSHL.c **** uint8 CapSense_hysteresis[CapSense_WIDGET_PARAM_TBL_SIZE];
  82:.\Generated_Source\PSoC4/CapSense_CSHL.c **** 
  83:.\Generated_Source\PSoC4/CapSense_CSHL.c **** uint8 CapSense_debounce[] = {
  84:.\Generated_Source\PSoC4/CapSense_CSHL.c ****     1u, 2u, 2u, 2u, 2u, 1u, 
  85:.\Generated_Source\PSoC4/CapSense_CSHL.c **** };
  86:.\Generated_Source\PSoC4/CapSense_CSHL.c **** 
  87:.\Generated_Source\PSoC4/CapSense_CSHL.c **** static uint8 CapSense_debounceCounter[] = {
  88:.\Generated_Source\PSoC4/CapSense_CSHL.c ****     0u, 0u, 0u, 0u, 0u, 0u, 
  89:.\Generated_Source\PSoC4/CapSense_CSHL.c **** };
ARM GAS  C:\Users\Terence\AppData\Local\Temp\cc6R4aDx.s 			page 3


  90:.\Generated_Source\PSoC4/CapSense_CSHL.c **** 
  91:.\Generated_Source\PSoC4/CapSense_CSHL.c **** const uint8 CapSense_rawDataIndex[] = {
  92:.\Generated_Source\PSoC4/CapSense_CSHL.c ****     5u, /* RadialSlider0__RS */
  93:.\Generated_Source\PSoC4/CapSense_CSHL.c ****     0u, /* Left__BTN */
  94:.\Generated_Source\PSoC4/CapSense_CSHL.c ****     1u, /* Right__BTN */
  95:.\Generated_Source\PSoC4/CapSense_CSHL.c ****     2u, /* Up__BTN */
  96:.\Generated_Source\PSoC4/CapSense_CSHL.c ****     3u, /* Down__BTN */
  97:.\Generated_Source\PSoC4/CapSense_CSHL.c ****     4u, /* Centre__BTN */
  98:.\Generated_Source\PSoC4/CapSense_CSHL.c **** };
  99:.\Generated_Source\PSoC4/CapSense_CSHL.c **** 
 100:.\Generated_Source\PSoC4/CapSense_CSHL.c **** const uint8 CapSense_numberOfSensors[] = {
 101:.\Generated_Source\PSoC4/CapSense_CSHL.c ****     8u, /* RadialSlider0__RS */
 102:.\Generated_Source\PSoC4/CapSense_CSHL.c ****     1u, /* Left__BTN */
 103:.\Generated_Source\PSoC4/CapSense_CSHL.c ****     1u, /* Right__BTN */
 104:.\Generated_Source\PSoC4/CapSense_CSHL.c ****     1u, /* Up__BTN */
 105:.\Generated_Source\PSoC4/CapSense_CSHL.c ****     1u, /* Down__BTN */
 106:.\Generated_Source\PSoC4/CapSense_CSHL.c ****     1u, /* Centre__BTN */
 107:.\Generated_Source\PSoC4/CapSense_CSHL.c **** };
 108:.\Generated_Source\PSoC4/CapSense_CSHL.c **** 
 109:.\Generated_Source\PSoC4/CapSense_CSHL.c **** static const uint16 CapSense_centroidMult[] = {
 110:.\Generated_Source\PSoC4/CapSense_CSHL.c ****     6400u, 
 111:.\Generated_Source\PSoC4/CapSense_CSHL.c **** };
 112:.\Generated_Source\PSoC4/CapSense_CSHL.c **** 
 113:.\Generated_Source\PSoC4/CapSense_CSHL.c **** static uint8 CapSense_posFiltersMask[] = {
 114:.\Generated_Source\PSoC4/CapSense_CSHL.c ****     0x1u, 
 115:.\Generated_Source\PSoC4/CapSense_CSHL.c **** };
 116:.\Generated_Source\PSoC4/CapSense_CSHL.c **** 
 117:.\Generated_Source\PSoC4/CapSense_CSHL.c **** static uint8 CapSense_posFiltersData[] = {
 118:.\Generated_Source\PSoC4/CapSense_CSHL.c ****     1u, 0u, 0u, 0u, 
 119:.\Generated_Source\PSoC4/CapSense_CSHL.c **** };
 120:.\Generated_Source\PSoC4/CapSense_CSHL.c **** 
 121:.\Generated_Source\PSoC4/CapSense_CSHL.c **** 
 122:.\Generated_Source\PSoC4/CapSense_CSHL.c **** 
 123:.\Generated_Source\PSoC4/CapSense_CSHL.c **** 
 124:.\Generated_Source\PSoC4/CapSense_CSHL.c **** /*******************************************************************************
 125:.\Generated_Source\PSoC4/CapSense_CSHL.c **** * Function Name: CapSense_BaseInit
 126:.\Generated_Source\PSoC4/CapSense_CSHL.c **** ********************************************************************************
 127:.\Generated_Source\PSoC4/CapSense_CSHL.c **** *
 128:.\Generated_Source\PSoC4/CapSense_CSHL.c **** * Summary:
 129:.\Generated_Source\PSoC4/CapSense_CSHL.c **** *  Loads the CapSense_sensorBaseline[sensor] array element with an
 130:.\Generated_Source\PSoC4/CapSense_CSHL.c **** *  initial value which is equal to the raw count value.
 131:.\Generated_Source\PSoC4/CapSense_CSHL.c **** *  Resets to zero CapSense_sensorBaselineLow[sensor] and
 132:.\Generated_Source\PSoC4/CapSense_CSHL.c **** *  CapSense_sensorSignal[sensor] array element.
 133:.\Generated_Source\PSoC4/CapSense_CSHL.c **** *  Loads the CapSense_rawFilterData2[sensor] and
 134:.\Generated_Source\PSoC4/CapSense_CSHL.c **** *  CapSense_rawFilterData2[sensor] array element with an
 135:.\Generated_Source\PSoC4/CapSense_CSHL.c **** *  initial value which is equal to the raw count value if the raw data filter is enabled.
 136:.\Generated_Source\PSoC4/CapSense_CSHL.c **** *
 137:.\Generated_Source\PSoC4/CapSense_CSHL.c **** * Parameters:
 138:.\Generated_Source\PSoC4/CapSense_CSHL.c **** *  sensor:  Sensor number.
 139:.\Generated_Source\PSoC4/CapSense_CSHL.c **** *
 140:.\Generated_Source\PSoC4/CapSense_CSHL.c **** * Return:
 141:.\Generated_Source\PSoC4/CapSense_CSHL.c **** *  None
 142:.\Generated_Source\PSoC4/CapSense_CSHL.c **** *
 143:.\Generated_Source\PSoC4/CapSense_CSHL.c **** * Global Variables:
 144:.\Generated_Source\PSoC4/CapSense_CSHL.c **** *  CapSense_sensorBaseline[]    - used to store the baseline value.
 145:.\Generated_Source\PSoC4/CapSense_CSHL.c **** *  CapSense_sensorBaselineLow[] - used to store the fraction byte of
 146:.\Generated_Source\PSoC4/CapSense_CSHL.c **** *  the baseline value.
ARM GAS  C:\Users\Terence\AppData\Local\Temp\cc6R4aDx.s 			page 4


 147:.\Generated_Source\PSoC4/CapSense_CSHL.c **** *  CapSense_sensorSignal[]      - used to store a difference between
 148:.\Generated_Source\PSoC4/CapSense_CSHL.c **** *  the current value of raw data and the previous value of the baseline.
 149:.\Generated_Source\PSoC4/CapSense_CSHL.c **** *  CapSense_rawFilterData1[]    - used to store a previous sample of
 150:.\Generated_Source\PSoC4/CapSense_CSHL.c **** *  any enabled raw data filter.
 151:.\Generated_Source\PSoC4/CapSense_CSHL.c **** *  CapSense_rawFilterData2[]    - used to store before a previous sample
 152:.\Generated_Source\PSoC4/CapSense_CSHL.c **** *  of the enabled raw data filter. Required only for median or average filters.
 153:.\Generated_Source\PSoC4/CapSense_CSHL.c **** *
 154:.\Generated_Source\PSoC4/CapSense_CSHL.c **** * Side Effects:
 155:.\Generated_Source\PSoC4/CapSense_CSHL.c **** *  None
 156:.\Generated_Source\PSoC4/CapSense_CSHL.c **** *
 157:.\Generated_Source\PSoC4/CapSense_CSHL.c **** *******************************************************************************/
 158:.\Generated_Source\PSoC4/CapSense_CSHL.c **** void CapSense_BaseInit(uint32 sensor)
 159:.\Generated_Source\PSoC4/CapSense_CSHL.c **** {
  26              		.loc 1 159 0
  27              		.cfi_startproc
  28              	.LVL0:
  29 0000 30B5     		push	{r4, r5, lr}
  30              		.cfi_def_cfa_offset 12
  31              		.cfi_offset 4, -12
  32              		.cfi_offset 5, -8
  33              		.cfi_offset 14, -4
 160:.\Generated_Source\PSoC4/CapSense_CSHL.c ****     #if ((CapSense_TOTAL_BUTTONS_COUNT) || (CapSense_TOTAL_MATRIX_BUTTONS_COUNT) || \
 161:.\Generated_Source\PSoC4/CapSense_CSHL.c ****          (CapSense_TOTAL_GENERICS_COUNT))
 162:.\Generated_Source\PSoC4/CapSense_CSHL.c ****         uint8 widget = CapSense_widgetNumber[sensor];
  34              		.loc 1 162 0
  35 0002 0C4B     		ldr	r3, .L3
  36 0004 1A5C     		ldrb	r2, [r3, r0]
  37              	.LVL1:
 163:.\Generated_Source\PSoC4/CapSense_CSHL.c ****     #endif /* ((CapSense_TOTAL_MATRIX_BUTTONS_COUNT) || (CapSense_TOTAL_MATRIX_BUTTONS_COUNT)) */
 164:.\Generated_Source\PSoC4/CapSense_CSHL.c **** 
 165:.\Generated_Source\PSoC4/CapSense_CSHL.c ****     #if (CapSense_TOTAL_MATRIX_BUTTONS_COUNT)
 166:.\Generated_Source\PSoC4/CapSense_CSHL.c ****         uint8 debounceIndex;
 167:.\Generated_Source\PSoC4/CapSense_CSHL.c ****     #endif  /* (CapSense_TOTAL_MATRIX_BUTTONS_COUNT) */
 168:.\Generated_Source\PSoC4/CapSense_CSHL.c **** 
 169:.\Generated_Source\PSoC4/CapSense_CSHL.c ****     #if (CapSense_TOTAL_GENERICS_COUNT)
 170:.\Generated_Source\PSoC4/CapSense_CSHL.c ****         /* Exclude generic widget */
 171:.\Generated_Source\PSoC4/CapSense_CSHL.c ****         if(widget < CapSense_END_OF_WIDGETS_INDEX)
 172:.\Generated_Source\PSoC4/CapSense_CSHL.c ****         {
 173:.\Generated_Source\PSoC4/CapSense_CSHL.c ****     #endif  /* CapSense_TOTAL_GENERICS_COUNT */
 174:.\Generated_Source\PSoC4/CapSense_CSHL.c **** 
 175:.\Generated_Source\PSoC4/CapSense_CSHL.c ****     /* Initialize Baseline */
 176:.\Generated_Source\PSoC4/CapSense_CSHL.c ****     CapSense_sensorBaseline[sensor] = CapSense_sensorRaw[sensor];
  38              		.loc 1 176 0
  39 0006 4400     		lsl	r4, r0, #1
  40 0008 0B4B     		ldr	r3, .L3+4
  41 000a E15A     		ldrh	r1, [r4, r3]
  42 000c 0B4B     		ldr	r3, .L3+8
  43 000e E152     		strh	r1, [r4, r3]
 177:.\Generated_Source\PSoC4/CapSense_CSHL.c ****     CapSense_sensorBaselineLow[sensor] = 0u;
  44              		.loc 1 177 0
  45 0010 1D18     		add	r5, r3, r0
  46 0012 0024     		mov	r4, #0
  47 0014 2C77     		strb	r4, [r5, #28]
 178:.\Generated_Source\PSoC4/CapSense_CSHL.c ****     CapSense_sensorSignal[sensor] = 0u;
  48              		.loc 1 178 0
  49 0016 2C33     		add	r3, r3, #44
  50 0018 1C54     		strb	r4, [r3, r0]
ARM GAS  C:\Users\Terence\AppData\Local\Temp\cc6R4aDx.s 			page 5


 179:.\Generated_Source\PSoC4/CapSense_CSHL.c **** 
 180:.\Generated_Source\PSoC4/CapSense_CSHL.c ****     if(widget > CapSense_END_OF_TOUCH_PAD_INDEX)
  51              		.loc 1 180 0
  52 001a 002A     		cmp	r2, #0
  53 001c 05D0     		beq	.L2
 181:.\Generated_Source\PSoC4/CapSense_CSHL.c ****     {
 182:.\Generated_Source\PSoC4/CapSense_CSHL.c ****         CapSense_debounceCounter[widget - (CapSense_END_OF_TOUCH_PAD_INDEX + 1u)] =  CapSense_debou
  54              		.loc 1 182 0
  55 001e 541E     		sub	r4, r2, #1
  56 0020 074B     		ldr	r3, .L3+12
  57 0022 9A5C     		ldrb	r2, [r3, r2]
  58              	.LVL2:
  59 0024 054B     		ldr	r3, .L3+8
  60 0026 3C33     		add	r3, r3, #60
  61 0028 1A55     		strb	r2, [r3, r4]
  62              	.LVL3:
  63              	.L2:
 183:.\Generated_Source\PSoC4/CapSense_CSHL.c ****     }
 184:.\Generated_Source\PSoC4/CapSense_CSHL.c **** 
 185:.\Generated_Source\PSoC4/CapSense_CSHL.c **** 
 186:.\Generated_Source\PSoC4/CapSense_CSHL.c ****     #if ((0u != (CapSense_RAW_FILTER_MASK & CapSense_MEDIAN_FILTER)) ||\
 187:.\Generated_Source\PSoC4/CapSense_CSHL.c ****          (0u != (CapSense_RAW_FILTER_MASK & CapSense_AVERAGING_FILTER)))
 188:.\Generated_Source\PSoC4/CapSense_CSHL.c **** 
 189:.\Generated_Source\PSoC4/CapSense_CSHL.c ****         CapSense_rawFilterData1[sensor] = CapSense_sensorRaw[sensor];
 190:.\Generated_Source\PSoC4/CapSense_CSHL.c ****         CapSense_rawFilterData2[sensor] = CapSense_sensorRaw[sensor];
 191:.\Generated_Source\PSoC4/CapSense_CSHL.c **** 
 192:.\Generated_Source\PSoC4/CapSense_CSHL.c ****     #elif ((CapSense_RAW_FILTER_MASK & CapSense_IIR2_FILTER) ||\
 193:.\Generated_Source\PSoC4/CapSense_CSHL.c ****            (CapSense_RAW_FILTER_MASK & CapSense_IIR4_FILTER) ||\
 194:.\Generated_Source\PSoC4/CapSense_CSHL.c ****            (CapSense_RAW_FILTER_MASK & CapSense_JITTER_FILTER) ||\
 195:.\Generated_Source\PSoC4/CapSense_CSHL.c ****            (CapSense_RAW_FILTER_MASK & CapSense_IIR8_FILTER) ||\
 196:.\Generated_Source\PSoC4/CapSense_CSHL.c ****            (CapSense_RAW_FILTER_MASK & CapSense_IIR16_FILTER))
 197:.\Generated_Source\PSoC4/CapSense_CSHL.c **** 
 198:.\Generated_Source\PSoC4/CapSense_CSHL.c ****         CapSense_rawFilterData1[sensor] = CapSense_sensorRaw[sensor];
  64              		.loc 1 198 0
  65 002a 4000     		lsl	r0, r0, #1
  66              	.LVL4:
  67 002c 054B     		ldr	r3, .L3+16
  68 002e C152     		strh	r1, [r0, r3]
 199:.\Generated_Source\PSoC4/CapSense_CSHL.c **** 
 200:.\Generated_Source\PSoC4/CapSense_CSHL.c ****     #else
 201:.\Generated_Source\PSoC4/CapSense_CSHL.c ****         /* No Raw filters */
 202:.\Generated_Source\PSoC4/CapSense_CSHL.c ****     #endif  /* ((CapSense_RAW_FILTER_MASK & CapSense_MEDIAN_FILTER) || \
 203:.\Generated_Source\PSoC4/CapSense_CSHL.c ****             *   (CapSense_RAW_FILTER_MASK & CapSense_AVERAGING_FILTER))
 204:.\Generated_Source\PSoC4/CapSense_CSHL.c ****             */
 205:.\Generated_Source\PSoC4/CapSense_CSHL.c **** 
 206:.\Generated_Source\PSoC4/CapSense_CSHL.c ****     #if (CapSense_TOTAL_GENERICS_COUNT)
 207:.\Generated_Source\PSoC4/CapSense_CSHL.c ****         /* Exclude generic widget */
 208:.\Generated_Source\PSoC4/CapSense_CSHL.c ****         }
 209:.\Generated_Source\PSoC4/CapSense_CSHL.c ****     #endif  /* CapSense_TOTAL_GENERICS_COUNT */
 210:.\Generated_Source\PSoC4/CapSense_CSHL.c **** }
  69              		.loc 1 210 0
  70              		@ sp needed
  71 0030 30BD     		pop	{r4, r5, pc}
  72              	.L4:
  73 0032 C046     		.align	2
  74              	.L3:
  75 0034 00000000 		.word	CapSense_widgetNumber
ARM GAS  C:\Users\Terence\AppData\Local\Temp\cc6R4aDx.s 			page 6


  76 0038 00000000 		.word	CapSense_sensorRaw
  77 003c 00000000 		.word	.LANCHOR0
  78 0040 00000000 		.word	.LANCHOR1
  79 0044 00000000 		.word	CapSense_rawFilterData1
  80              		.cfi_endproc
  81              	.LFE36:
  82              		.size	CapSense_BaseInit, .-CapSense_BaseInit
  83              		.section	.text.CapSense_InitializeSensorBaseline,"ax",%progbits
  84              		.align	2
  85              		.global	CapSense_InitializeSensorBaseline
  86              		.code	16
  87              		.thumb_func
  88              		.type	CapSense_InitializeSensorBaseline, %function
  89              	CapSense_InitializeSensorBaseline:
  90              	.LFB37:
 211:.\Generated_Source\PSoC4/CapSense_CSHL.c **** 
 212:.\Generated_Source\PSoC4/CapSense_CSHL.c **** 
 213:.\Generated_Source\PSoC4/CapSense_CSHL.c **** /*******************************************************************************
 214:.\Generated_Source\PSoC4/CapSense_CSHL.c **** * Function Name: CapSense_InitializeSensorBaseline
 215:.\Generated_Source\PSoC4/CapSense_CSHL.c **** ********************************************************************************
 216:.\Generated_Source\PSoC4/CapSense_CSHL.c **** *
 217:.\Generated_Source\PSoC4/CapSense_CSHL.c **** * Summary:
 218:.\Generated_Source\PSoC4/CapSense_CSHL.c **** *  Loads the CapSense_sensorBaseline[sensor] array element with an
 219:.\Generated_Source\PSoC4/CapSense_CSHL.c **** *  initial value by scanning the selected sensor (one channel design) or a pair
 220:.\Generated_Source\PSoC4/CapSense_CSHL.c **** *  of sensors (two channels designs). The raw count value is copied into the
 221:.\Generated_Source\PSoC4/CapSense_CSHL.c **** *  baseline array for each sensor. The raw data filters are initialized if
 222:.\Generated_Source\PSoC4/CapSense_CSHL.c **** *  enabled.
 223:.\Generated_Source\PSoC4/CapSense_CSHL.c **** *
 224:.\Generated_Source\PSoC4/CapSense_CSHL.c **** * Parameters:
 225:.\Generated_Source\PSoC4/CapSense_CSHL.c **** *  sensor:  Sensor number.
 226:.\Generated_Source\PSoC4/CapSense_CSHL.c **** *
 227:.\Generated_Source\PSoC4/CapSense_CSHL.c **** * Return:
 228:.\Generated_Source\PSoC4/CapSense_CSHL.c **** *  None
 229:.\Generated_Source\PSoC4/CapSense_CSHL.c **** *
 230:.\Generated_Source\PSoC4/CapSense_CSHL.c **** * Global Variables:
 231:.\Generated_Source\PSoC4/CapSense_CSHL.c **** *  None
 232:.\Generated_Source\PSoC4/CapSense_CSHL.c **** *
 233:.\Generated_Source\PSoC4/CapSense_CSHL.c **** * Side Effects:
 234:.\Generated_Source\PSoC4/CapSense_CSHL.c **** *  None
 235:.\Generated_Source\PSoC4/CapSense_CSHL.c **** *
 236:.\Generated_Source\PSoC4/CapSense_CSHL.c **** *******************************************************************************/
 237:.\Generated_Source\PSoC4/CapSense_CSHL.c **** void CapSense_InitializeSensorBaseline(uint32 sensor)
 238:.\Generated_Source\PSoC4/CapSense_CSHL.c **** {
  91              		.loc 1 238 0
  92              		.cfi_startproc
  93              	.LVL5:
  94 0000 10B5     		push	{r4, lr}
  95              		.cfi_def_cfa_offset 8
  96              		.cfi_offset 4, -8
  97              		.cfi_offset 14, -4
  98 0002 041C     		mov	r4, r0
 239:.\Generated_Source\PSoC4/CapSense_CSHL.c ****     /* Scan sensor */
 240:.\Generated_Source\PSoC4/CapSense_CSHL.c ****     CapSense_ScanSensor(sensor);
  99              		.loc 1 240 0
 100 0004 FFF7FEFF 		bl	CapSense_ScanSensor
 101              	.LVL6:
 102              	.L6:
ARM GAS  C:\Users\Terence\AppData\Local\Temp\cc6R4aDx.s 			page 7


 241:.\Generated_Source\PSoC4/CapSense_CSHL.c ****     while(CapSense_IsBusy() != 0u)
 103              		.loc 1 241 0 discriminator 1
 104 0008 FFF7FEFF 		bl	CapSense_IsBusy
 105              	.LVL7:
 106 000c 0028     		cmp	r0, #0
 107 000e FBD1     		bne	.L6
 242:.\Generated_Source\PSoC4/CapSense_CSHL.c ****     {
 243:.\Generated_Source\PSoC4/CapSense_CSHL.c ****         /* Wait while sensor is busy */
 244:.\Generated_Source\PSoC4/CapSense_CSHL.c ****     }
 245:.\Generated_Source\PSoC4/CapSense_CSHL.c **** 
 246:.\Generated_Source\PSoC4/CapSense_CSHL.c ****     /* Initialize Baseline, Signal and debounce counters */
 247:.\Generated_Source\PSoC4/CapSense_CSHL.c ****     CapSense_BaseInit(sensor);
 108              		.loc 1 247 0
 109 0010 201C     		mov	r0, r4
 110 0012 FFF7FEFF 		bl	CapSense_BaseInit
 111              	.LVL8:
 248:.\Generated_Source\PSoC4/CapSense_CSHL.c **** }
 112              		.loc 1 248 0
 113              		@ sp needed
 114              	.LVL9:
 115 0016 10BD     		pop	{r4, pc}
 116              		.cfi_endproc
 117              	.LFE37:
 118              		.size	CapSense_InitializeSensorBaseline, .-CapSense_InitializeSensorBaseline
 119              		.section	.text.CapSense_InitializeAllBaselines,"ax",%progbits
 120              		.align	2
 121              		.global	CapSense_InitializeAllBaselines
 122              		.code	16
 123              		.thumb_func
 124              		.type	CapSense_InitializeAllBaselines, %function
 125              	CapSense_InitializeAllBaselines:
 126              	.LFB38:
 249:.\Generated_Source\PSoC4/CapSense_CSHL.c **** 
 250:.\Generated_Source\PSoC4/CapSense_CSHL.c **** 
 251:.\Generated_Source\PSoC4/CapSense_CSHL.c **** /*******************************************************************************
 252:.\Generated_Source\PSoC4/CapSense_CSHL.c **** * Function Name: CapSense_InitializeAllBaselines
 253:.\Generated_Source\PSoC4/CapSense_CSHL.c **** ********************************************************************************
 254:.\Generated_Source\PSoC4/CapSense_CSHL.c **** *
 255:.\Generated_Source\PSoC4/CapSense_CSHL.c **** * Summary:
 256:.\Generated_Source\PSoC4/CapSense_CSHL.c **** *  Uses the CapSense_InitializeSensorBaseline function to load the
 257:.\Generated_Source\PSoC4/CapSense_CSHL.c **** *  CapSense_sensorBaseline[] array with an initial values by scanning
 258:.\Generated_Source\PSoC4/CapSense_CSHL.c **** *  all the sensors. The raw count values are copied into the baseline array for
 259:.\Generated_Source\PSoC4/CapSense_CSHL.c **** *  all the sensors. The raw data filters are initialized if enabled.
 260:.\Generated_Source\PSoC4/CapSense_CSHL.c **** *
 261:.\Generated_Source\PSoC4/CapSense_CSHL.c **** * Parameters:
 262:.\Generated_Source\PSoC4/CapSense_CSHL.c **** *  None
 263:.\Generated_Source\PSoC4/CapSense_CSHL.c **** *
 264:.\Generated_Source\PSoC4/CapSense_CSHL.c **** * Return:
 265:.\Generated_Source\PSoC4/CapSense_CSHL.c **** *  None
 266:.\Generated_Source\PSoC4/CapSense_CSHL.c **** *
 267:.\Generated_Source\PSoC4/CapSense_CSHL.c **** * Global Variables:
 268:.\Generated_Source\PSoC4/CapSense_CSHL.c **** *  None
 269:.\Generated_Source\PSoC4/CapSense_CSHL.c **** *
 270:.\Generated_Source\PSoC4/CapSense_CSHL.c **** * Side Effects:
 271:.\Generated_Source\PSoC4/CapSense_CSHL.c **** *  None
 272:.\Generated_Source\PSoC4/CapSense_CSHL.c **** *
 273:.\Generated_Source\PSoC4/CapSense_CSHL.c **** *******************************************************************************/
ARM GAS  C:\Users\Terence\AppData\Local\Temp\cc6R4aDx.s 			page 8


 274:.\Generated_Source\PSoC4/CapSense_CSHL.c **** void CapSense_InitializeAllBaselines(void)
 275:.\Generated_Source\PSoC4/CapSense_CSHL.c **** {
 127              		.loc 1 275 0
 128              		.cfi_startproc
 129 0000 10B5     		push	{r4, lr}
 130              		.cfi_def_cfa_offset 8
 131              		.cfi_offset 4, -8
 132              		.cfi_offset 14, -4
 133              	.LVL10:
 276:.\Generated_Source\PSoC4/CapSense_CSHL.c ****     uint32 i;
 277:.\Generated_Source\PSoC4/CapSense_CSHL.c **** 
 278:.\Generated_Source\PSoC4/CapSense_CSHL.c ****     for(i = 0u; i < CapSense_TOTAL_SCANSLOT_COUNT; i++)
 134              		.loc 1 278 0
 135 0002 0024     		mov	r4, #0
 136 0004 03E0     		b	.L8
 137              	.LVL11:
 138              	.L9:
 279:.\Generated_Source\PSoC4/CapSense_CSHL.c ****     {
 280:.\Generated_Source\PSoC4/CapSense_CSHL.c ****         CapSense_InitializeSensorBaseline(i);
 139              		.loc 1 280 0 discriminator 3
 140 0006 201C     		mov	r0, r4
 141 0008 FFF7FEFF 		bl	CapSense_InitializeSensorBaseline
 142              	.LVL12:
 278:.\Generated_Source\PSoC4/CapSense_CSHL.c ****     {
 143              		.loc 1 278 0 discriminator 3
 144 000c 0134     		add	r4, r4, #1
 145              	.LVL13:
 146              	.L8:
 278:.\Generated_Source\PSoC4/CapSense_CSHL.c ****     {
 147              		.loc 1 278 0 is_stmt 0 discriminator 1
 148 000e 0C2C     		cmp	r4, #12
 149 0010 F9D9     		bls	.L9
 281:.\Generated_Source\PSoC4/CapSense_CSHL.c ****     }
 282:.\Generated_Source\PSoC4/CapSense_CSHL.c **** }
 150              		.loc 1 282 0 is_stmt 1
 151              		@ sp needed
 152              	.LVL14:
 153 0012 10BD     		pop	{r4, pc}
 154              		.cfi_endproc
 155              	.LFE38:
 156              		.size	CapSense_InitializeAllBaselines, .-CapSense_InitializeAllBaselines
 157              		.section	.text.CapSense_InitializeEnabledBaselines,"ax",%progbits
 158              		.align	2
 159              		.global	CapSense_InitializeEnabledBaselines
 160              		.code	16
 161              		.thumb_func
 162              		.type	CapSense_InitializeEnabledBaselines, %function
 163              	CapSense_InitializeEnabledBaselines:
 164              	.LFB39:
 283:.\Generated_Source\PSoC4/CapSense_CSHL.c **** 
 284:.\Generated_Source\PSoC4/CapSense_CSHL.c **** 
 285:.\Generated_Source\PSoC4/CapSense_CSHL.c **** /*******************************************************************************
 286:.\Generated_Source\PSoC4/CapSense_CSHL.c **** * Function Name: CapSense_InitializeEnabledBaselines
 287:.\Generated_Source\PSoC4/CapSense_CSHL.c **** ********************************************************************************
 288:.\Generated_Source\PSoC4/CapSense_CSHL.c **** *
 289:.\Generated_Source\PSoC4/CapSense_CSHL.c **** * Summary:
 290:.\Generated_Source\PSoC4/CapSense_CSHL.c **** *  Scans all the enabled widgets and the raw count values are copied into the
ARM GAS  C:\Users\Terence\AppData\Local\Temp\cc6R4aDx.s 			page 9


 291:.\Generated_Source\PSoC4/CapSense_CSHL.c **** *  baseline array for all the sensors enabled in the scanning process. The baselines
 292:.\Generated_Source\PSoC4/CapSense_CSHL.c **** *  are initialized with zero values for sensors disabled from the scanning process.
 293:.\Generated_Source\PSoC4/CapSense_CSHL.c **** *  The raw data filters are initialized if enabled.
 294:.\Generated_Source\PSoC4/CapSense_CSHL.c **** *
 295:.\Generated_Source\PSoC4/CapSense_CSHL.c **** * Parameters:
 296:.\Generated_Source\PSoC4/CapSense_CSHL.c **** *  None
 297:.\Generated_Source\PSoC4/CapSense_CSHL.c **** *
 298:.\Generated_Source\PSoC4/CapSense_CSHL.c **** * Return:
 299:.\Generated_Source\PSoC4/CapSense_CSHL.c **** *  None
 300:.\Generated_Source\PSoC4/CapSense_CSHL.c **** *
 301:.\Generated_Source\PSoC4/CapSense_CSHL.c **** * Global Variables:
 302:.\Generated_Source\PSoC4/CapSense_CSHL.c **** *  CapSense_sensorRaw[] - used to store the sensors raw data.
 303:.\Generated_Source\PSoC4/CapSense_CSHL.c **** *  CapSense_sensorEnableMask[ ] - used to store bit masks of the enabled sensors.
 304:.\Generated_Source\PSoC4/CapSense_CSHL.c **** *
 305:.\Generated_Source\PSoC4/CapSense_CSHL.c **** * Side Effects:
 306:.\Generated_Source\PSoC4/CapSense_CSHL.c **** *  None
 307:.\Generated_Source\PSoC4/CapSense_CSHL.c **** *
 308:.\Generated_Source\PSoC4/CapSense_CSHL.c **** *******************************************************************************/
 309:.\Generated_Source\PSoC4/CapSense_CSHL.c **** void CapSense_InitializeEnabledBaselines(void)
 310:.\Generated_Source\PSoC4/CapSense_CSHL.c **** {
 165              		.loc 1 310 0
 166              		.cfi_startproc
 167 0000 10B5     		push	{r4, lr}
 168              		.cfi_def_cfa_offset 8
 169              		.cfi_offset 4, -8
 170              		.cfi_offset 14, -4
 311:.\Generated_Source\PSoC4/CapSense_CSHL.c ****     uint32 i;
 312:.\Generated_Source\PSoC4/CapSense_CSHL.c ****     uint32 isSensorEnabled;
 313:.\Generated_Source\PSoC4/CapSense_CSHL.c **** 
 314:.\Generated_Source\PSoC4/CapSense_CSHL.c ****     CapSense_ScanEnabledWidgets();
 171              		.loc 1 314 0
 172 0002 FFF7FEFF 		bl	CapSense_ScanEnabledWidgets
 173              	.LVL15:
 174              	.L11:
 315:.\Generated_Source\PSoC4/CapSense_CSHL.c ****     while(CapSense_IsBusy() != 0u)
 175              		.loc 1 315 0 discriminator 1
 176 0006 FFF7FEFF 		bl	CapSense_IsBusy
 177              	.LVL16:
 178 000a 0028     		cmp	r0, #0
 179 000c FBD1     		bne	.L11
 180 000e 0024     		mov	r4, #0
 181 0010 09E0     		b	.L12
 182              	.LVL17:
 183              	.L14:
 316:.\Generated_Source\PSoC4/CapSense_CSHL.c ****     {
 317:.\Generated_Source\PSoC4/CapSense_CSHL.c ****         /* Wait while sensor is busy */
 318:.\Generated_Source\PSoC4/CapSense_CSHL.c ****     }
 319:.\Generated_Source\PSoC4/CapSense_CSHL.c **** 
 320:.\Generated_Source\PSoC4/CapSense_CSHL.c ****     for(i = 0u; i < CapSense_TOTAL_SENSOR_COUNT; i++)
 321:.\Generated_Source\PSoC4/CapSense_CSHL.c ****     {
 322:.\Generated_Source\PSoC4/CapSense_CSHL.c ****         isSensorEnabled = CapSense_GetBitValue(CapSense_sensorEnableMask, i);
 184              		.loc 1 322 0
 185 0012 0648     		ldr	r0, .L15
 186 0014 211C     		mov	r1, r4
 187 0016 FFF7FEFF 		bl	CapSense_GetBitValue
 188              	.LVL18:
 323:.\Generated_Source\PSoC4/CapSense_CSHL.c **** 
ARM GAS  C:\Users\Terence\AppData\Local\Temp\cc6R4aDx.s 			page 10


 324:.\Generated_Source\PSoC4/CapSense_CSHL.c ****         /* Clear raw data if sensor is disabled from scanning process */
 325:.\Generated_Source\PSoC4/CapSense_CSHL.c ****         if(isSensorEnabled != 0u)
 189              		.loc 1 325 0
 190 001a 0028     		cmp	r0, #0
 191 001c 02D0     		beq	.L13
 326:.\Generated_Source\PSoC4/CapSense_CSHL.c ****         {
 327:.\Generated_Source\PSoC4/CapSense_CSHL.c ****             /* Initialize baselines */
 328:.\Generated_Source\PSoC4/CapSense_CSHL.c ****             CapSense_BaseInit(i);
 192              		.loc 1 328 0
 193 001e 201C     		mov	r0, r4
 194              	.LVL19:
 195 0020 FFF7FEFF 		bl	CapSense_BaseInit
 196              	.LVL20:
 197              	.L13:
 320:.\Generated_Source\PSoC4/CapSense_CSHL.c ****     {
 198              		.loc 1 320 0 discriminator 2
 199 0024 0134     		add	r4, r4, #1
 200              	.LVL21:
 201              	.L12:
 320:.\Generated_Source\PSoC4/CapSense_CSHL.c ****     {
 202              		.loc 1 320 0 is_stmt 0 discriminator 1
 203 0026 0C2C     		cmp	r4, #12
 204 0028 F3D9     		bls	.L14
 329:.\Generated_Source\PSoC4/CapSense_CSHL.c ****         }
 330:.\Generated_Source\PSoC4/CapSense_CSHL.c ****     }
 331:.\Generated_Source\PSoC4/CapSense_CSHL.c **** }
 205              		.loc 1 331 0 is_stmt 1
 206              		@ sp needed
 207              	.LVL22:
 208 002a 10BD     		pop	{r4, pc}
 209              	.L16:
 210              		.align	2
 211              	.L15:
 212 002c 00000000 		.word	CapSense_sensorEnableMask
 213              		.cfi_endproc
 214              	.LFE39:
 215              		.size	CapSense_InitializeEnabledBaselines, .-CapSense_InitializeEnabledBaselines
 216              		.section	.text.CapSense_GetBaselineData,"ax",%progbits
 217              		.align	2
 218              		.global	CapSense_GetBaselineData
 219              		.code	16
 220              		.thumb_func
 221              		.type	CapSense_GetBaselineData, %function
 222              	CapSense_GetBaselineData:
 223              	.LFB44:
 332:.\Generated_Source\PSoC4/CapSense_CSHL.c **** 
 333:.\Generated_Source\PSoC4/CapSense_CSHL.c **** 
 334:.\Generated_Source\PSoC4/CapSense_CSHL.c **** /*******************************************************************************
 335:.\Generated_Source\PSoC4/CapSense_CSHL.c **** * Function Name: CapSense_UpdateBaselineNoThreshold
 336:.\Generated_Source\PSoC4/CapSense_CSHL.c **** ********************************************************************************
 337:.\Generated_Source\PSoC4/CapSense_CSHL.c **** *
 338:.\Generated_Source\PSoC4/CapSense_CSHL.c **** * Summary:
 339:.\Generated_Source\PSoC4/CapSense_CSHL.c **** *  Updates the CapSense_sensorBaseline[sensor] array element using the
 340:.\Generated_Source\PSoC4/CapSense_CSHL.c **** *  LP filter with k = 256. The signal calculates the difference of count by
 341:.\Generated_Source\PSoC4/CapSense_CSHL.c **** *  subtracting the previous baseline from the current raw count value and stores
 342:.\Generated_Source\PSoC4/CapSense_CSHL.c **** *  it in CapSense_sensorSignal[sensor].
 343:.\Generated_Source\PSoC4/CapSense_CSHL.c **** *  If the auto reset option is enabled, the baseline updated regards the noise threshold.
ARM GAS  C:\Users\Terence\AppData\Local\Temp\cc6R4aDx.s 			page 11


 344:.\Generated_Source\PSoC4/CapSense_CSHL.c **** *  If the auto reset option is disabled, the baseline stops updating; baseline is loaded
 345:.\Generated_Source\PSoC4/CapSense_CSHL.c **** *  with a raw count value if a signal is greater than zero and if signal is less
 346:.\Generated_Source\PSoC4/CapSense_CSHL.c **** *  than noise threshold.
 347:.\Generated_Source\PSoC4/CapSense_CSHL.c **** *  Raw data filters are applied to the values if enabled before baseline
 348:.\Generated_Source\PSoC4/CapSense_CSHL.c **** *  calculation.
 349:.\Generated_Source\PSoC4/CapSense_CSHL.c **** *
 350:.\Generated_Source\PSoC4/CapSense_CSHL.c **** *  This API does not update the thresholds in the Smartsense Mode.
 351:.\Generated_Source\PSoC4/CapSense_CSHL.c **** *
 352:.\Generated_Source\PSoC4/CapSense_CSHL.c **** * Parameters:
 353:.\Generated_Source\PSoC4/CapSense_CSHL.c **** *  sensor:  Sensor number.
 354:.\Generated_Source\PSoC4/CapSense_CSHL.c **** *
 355:.\Generated_Source\PSoC4/CapSense_CSHL.c **** * Return:
 356:.\Generated_Source\PSoC4/CapSense_CSHL.c **** *  None
 357:.\Generated_Source\PSoC4/CapSense_CSHL.c **** *
 358:.\Generated_Source\PSoC4/CapSense_CSHL.c **** * Global Variables:
 359:.\Generated_Source\PSoC4/CapSense_CSHL.c **** *  CapSense_widgetNumber[]  - stores widget numbers.
 360:.\Generated_Source\PSoC4/CapSense_CSHL.c **** *  CapSense_sensorBaseline[]    - used to store baseline value.
 361:.\Generated_Source\PSoC4/CapSense_CSHL.c **** *  CapSense_sensorBaselineLow[] - used to store fraction byte of
 362:.\Generated_Source\PSoC4/CapSense_CSHL.c **** *  baseline value.
 363:.\Generated_Source\PSoC4/CapSense_CSHL.c **** *  CapSense_sensorSignal[]      - used to store difference between
 364:.\Generated_Source\PSoC4/CapSense_CSHL.c **** *  current value of raw data and previous value of baseline.
 365:.\Generated_Source\PSoC4/CapSense_CSHL.c **** *  CapSense_rawFilterData1[]    - used to store previous sample of
 366:.\Generated_Source\PSoC4/CapSense_CSHL.c **** *  any enabled raw data filter.
 367:.\Generated_Source\PSoC4/CapSense_CSHL.c **** *  CapSense_rawFilterData2[]    - used to store before previous sample
 368:.\Generated_Source\PSoC4/CapSense_CSHL.c **** *  of enabled raw data filter. Only required for median or average filters.
 369:.\Generated_Source\PSoC4/CapSense_CSHL.c **** *
 370:.\Generated_Source\PSoC4/CapSense_CSHL.c **** * Side Effects:
 371:.\Generated_Source\PSoC4/CapSense_CSHL.c **** *  None
 372:.\Generated_Source\PSoC4/CapSense_CSHL.c **** *
 373:.\Generated_Source\PSoC4/CapSense_CSHL.c **** *******************************************************************************/
 374:.\Generated_Source\PSoC4/CapSense_CSHL.c **** void CapSense_UpdateBaselineNoThreshold(uint32 sensor)
 375:.\Generated_Source\PSoC4/CapSense_CSHL.c **** {
 376:.\Generated_Source\PSoC4/CapSense_CSHL.c ****     uint32 calc;
 377:.\Generated_Source\PSoC4/CapSense_CSHL.c ****     uint32 sign;
 378:.\Generated_Source\PSoC4/CapSense_CSHL.c ****     uint16 tempRaw;
 379:.\Generated_Source\PSoC4/CapSense_CSHL.c ****     uint16 filteredRawData;
 380:.\Generated_Source\PSoC4/CapSense_CSHL.c ****     uint8 widget = CapSense_widgetNumber[sensor];
 381:.\Generated_Source\PSoC4/CapSense_CSHL.c ****     uint8 noiseThreshold;
 382:.\Generated_Source\PSoC4/CapSense_CSHL.c **** 
 383:.\Generated_Source\PSoC4/CapSense_CSHL.c ****     #if (CapSense_TOTAL_GENERICS_COUNT)
 384:.\Generated_Source\PSoC4/CapSense_CSHL.c ****         /* Exclude generic widget */
 385:.\Generated_Source\PSoC4/CapSense_CSHL.c ****         if(widget < CapSense_END_OF_WIDGETS_INDEX)
 386:.\Generated_Source\PSoC4/CapSense_CSHL.c ****         {
 387:.\Generated_Source\PSoC4/CapSense_CSHL.c ****     #endif  /* CapSense_TOTAL_GENERICS_COUNT */
 388:.\Generated_Source\PSoC4/CapSense_CSHL.c **** 
 389:.\Generated_Source\PSoC4/CapSense_CSHL.c ****     noiseThreshold = CapSense_noiseThreshold[widget];
 390:.\Generated_Source\PSoC4/CapSense_CSHL.c ****     filteredRawData = CapSense_sensorRaw[sensor];
 391:.\Generated_Source\PSoC4/CapSense_CSHL.c **** 
 392:.\Generated_Source\PSoC4/CapSense_CSHL.c ****     #if (CapSense_RAW_FILTER_MASK != 0u)
 393:.\Generated_Source\PSoC4/CapSense_CSHL.c ****     if(CapSense_enableRawFilters != 0u)
 394:.\Generated_Source\PSoC4/CapSense_CSHL.c ****     {
 395:.\Generated_Source\PSoC4/CapSense_CSHL.c ****         #if (CapSense_RAW_FILTER_MASK & CapSense_MEDIAN_FILTER)
 396:.\Generated_Source\PSoC4/CapSense_CSHL.c ****             tempRaw = filteredRawData;
 397:.\Generated_Source\PSoC4/CapSense_CSHL.c ****             filteredRawData = CapSense_MedianFilter(filteredRawData, CapSense_rawFilterData1[sensor
 398:.\Generated_Source\PSoC4/CapSense_CSHL.c ****                                                             CapSense_rawFilterData2[sensor]);
 399:.\Generated_Source\PSoC4/CapSense_CSHL.c ****             CapSense_rawFilterData2[sensor] = CapSense_rawFilterData1[sensor];
 400:.\Generated_Source\PSoC4/CapSense_CSHL.c ****             CapSense_rawFilterData1[sensor] = tempRaw;
ARM GAS  C:\Users\Terence\AppData\Local\Temp\cc6R4aDx.s 			page 12


 401:.\Generated_Source\PSoC4/CapSense_CSHL.c **** 
 402:.\Generated_Source\PSoC4/CapSense_CSHL.c ****         #elif (CapSense_RAW_FILTER_MASK & CapSense_AVERAGING_FILTER)
 403:.\Generated_Source\PSoC4/CapSense_CSHL.c ****             tempRaw = filteredRawData;
 404:.\Generated_Source\PSoC4/CapSense_CSHL.c ****             filteredRawData = CapSense_AveragingFilter(filteredRawData, CapSense_rawFilterData1[sen
 405:.\Generated_Source\PSoC4/CapSense_CSHL.c ****                                                                CapSense_rawFilterData2[sensor]);
 406:.\Generated_Source\PSoC4/CapSense_CSHL.c ****             CapSense_rawFilterData2[sensor] = CapSense_rawFilterData1[sensor];
 407:.\Generated_Source\PSoC4/CapSense_CSHL.c ****             CapSense_rawFilterData1[sensor] = tempRaw;
 408:.\Generated_Source\PSoC4/CapSense_CSHL.c **** 
 409:.\Generated_Source\PSoC4/CapSense_CSHL.c ****         #elif (CapSense_RAW_FILTER_MASK & CapSense_IIR2_FILTER)
 410:.\Generated_Source\PSoC4/CapSense_CSHL.c ****             filteredRawData = CapSense_IIR2Filter(filteredRawData, CapSense_rawFilterData1[sensor])
 411:.\Generated_Source\PSoC4/CapSense_CSHL.c ****             CapSense_rawFilterData1[sensor] = filteredRawData;
 412:.\Generated_Source\PSoC4/CapSense_CSHL.c **** 
 413:.\Generated_Source\PSoC4/CapSense_CSHL.c ****         #elif (CapSense_RAW_FILTER_MASK & CapSense_IIR4_FILTER)
 414:.\Generated_Source\PSoC4/CapSense_CSHL.c ****             filteredRawData = CapSense_IIR4Filter(filteredRawData, CapSense_rawFilterData1[sensor])
 415:.\Generated_Source\PSoC4/CapSense_CSHL.c ****             CapSense_rawFilterData1[sensor] = filteredRawData;
 416:.\Generated_Source\PSoC4/CapSense_CSHL.c **** 
 417:.\Generated_Source\PSoC4/CapSense_CSHL.c ****         #elif (CapSense_RAW_FILTER_MASK & CapSense_JITTER_FILTER)
 418:.\Generated_Source\PSoC4/CapSense_CSHL.c ****             filteredRawData = CapSense_JitterFilter(filteredRawData, CapSense_rawFilterData1[sensor
 419:.\Generated_Source\PSoC4/CapSense_CSHL.c ****             CapSense_rawFilterData1[sensor] = filteredRawData;
 420:.\Generated_Source\PSoC4/CapSense_CSHL.c **** 
 421:.\Generated_Source\PSoC4/CapSense_CSHL.c ****         #elif (CapSense_RAW_FILTER_MASK & CapSense_IIR8_FILTER)
 422:.\Generated_Source\PSoC4/CapSense_CSHL.c ****             filteredRawData = CapSense_IIR8Filter(filteredRawData, CapSense_rawFilterData1[sensor])
 423:.\Generated_Source\PSoC4/CapSense_CSHL.c ****             CapSense_rawFilterData1[sensor] = filteredRawData;
 424:.\Generated_Source\PSoC4/CapSense_CSHL.c **** 
 425:.\Generated_Source\PSoC4/CapSense_CSHL.c ****         #elif (CapSense_RAW_FILTER_MASK & CapSense_IIR16_FILTER)
 426:.\Generated_Source\PSoC4/CapSense_CSHL.c ****             filteredRawData = CapSense_IIR16Filter(filteredRawData, CapSense_rawFilterData1[sensor]
 427:.\Generated_Source\PSoC4/CapSense_CSHL.c ****             CapSense_rawFilterData1[sensor] = filteredRawData;
 428:.\Generated_Source\PSoC4/CapSense_CSHL.c **** 
 429:.\Generated_Source\PSoC4/CapSense_CSHL.c ****         #else
 430:.\Generated_Source\PSoC4/CapSense_CSHL.c ****             /* No Raw filters */
 431:.\Generated_Source\PSoC4/CapSense_CSHL.c ****         #endif  /* (CapSense_RAW_FILTER_MASK & CapSense_MEDIAN_FILTER) */
 432:.\Generated_Source\PSoC4/CapSense_CSHL.c ****     }
 433:.\Generated_Source\PSoC4/CapSense_CSHL.c ****     #endif  /* (CapSense_RAW_FILTER_MASK != 0u) */
 434:.\Generated_Source\PSoC4/CapSense_CSHL.c **** 
 435:.\Generated_Source\PSoC4/CapSense_CSHL.c ****     #if (CapSense_TUNING_METHOD == CapSense__TUNING_AUTO)
 436:.\Generated_Source\PSoC4/CapSense_CSHL.c ****         MeasureNoiseEnvelope_P4_v2_40(&CapSense_config, (uint8)sensor, CapSense_sensorRaw);
 437:.\Generated_Source\PSoC4/CapSense_CSHL.c ****     #endif /* (CapSense_TUNING_METHOD == CapSense__TUNING_AUTO) */
 438:.\Generated_Source\PSoC4/CapSense_CSHL.c **** 
 439:.\Generated_Source\PSoC4/CapSense_CSHL.c ****     /* Baseline calculation */
 440:.\Generated_Source\PSoC4/CapSense_CSHL.c ****     /* Calculate difference RawData[cur] - Baseline[prev] */
 441:.\Generated_Source\PSoC4/CapSense_CSHL.c ****     if(filteredRawData >= CapSense_sensorBaseline[sensor])
 442:.\Generated_Source\PSoC4/CapSense_CSHL.c ****     {
 443:.\Generated_Source\PSoC4/CapSense_CSHL.c ****         CapSense_lowBaselineResetCnt[sensor] = 0u;
 444:.\Generated_Source\PSoC4/CapSense_CSHL.c ****         tempRaw = filteredRawData - CapSense_sensorBaseline[sensor];
 445:.\Generated_Source\PSoC4/CapSense_CSHL.c ****         sign = 1u;    /* Positive difference - Calculate the Signal */
 446:.\Generated_Source\PSoC4/CapSense_CSHL.c ****     }
 447:.\Generated_Source\PSoC4/CapSense_CSHL.c ****     else
 448:.\Generated_Source\PSoC4/CapSense_CSHL.c ****     {
 449:.\Generated_Source\PSoC4/CapSense_CSHL.c ****         tempRaw = CapSense_sensorBaseline[sensor] - filteredRawData;
 450:.\Generated_Source\PSoC4/CapSense_CSHL.c ****         sign = 0u;    /* Negative difference - Do NOT calculate the Signal */
 451:.\Generated_Source\PSoC4/CapSense_CSHL.c ****     }
 452:.\Generated_Source\PSoC4/CapSense_CSHL.c **** 
 453:.\Generated_Source\PSoC4/CapSense_CSHL.c ****     #if (CapSense_TUNING_METHOD != CapSense__TUNING_NONE)
 454:.\Generated_Source\PSoC4/CapSense_CSHL.c ****     if((sign == 0u) && (tempRaw > (uint16) CapSense_negativeNoiseThreshold[widget]))
 455:.\Generated_Source\PSoC4/CapSense_CSHL.c ****     #else
 456:.\Generated_Source\PSoC4/CapSense_CSHL.c ****     if((sign == 0u) && (tempRaw > (uint16) CapSense_NEGATIVE_NOISE_THRESHOLD))
 457:.\Generated_Source\PSoC4/CapSense_CSHL.c ****     #endif /* (CapSense_TUNING_METHOD != CapSense__TUNING_NONE) */
ARM GAS  C:\Users\Terence\AppData\Local\Temp\cc6R4aDx.s 			page 13


 458:.\Generated_Source\PSoC4/CapSense_CSHL.c ****     {
 459:.\Generated_Source\PSoC4/CapSense_CSHL.c ****         if(CapSense_lowBaselineResetCnt[sensor] >= CapSense_lowBaselineReset[sensor])
 460:.\Generated_Source\PSoC4/CapSense_CSHL.c ****         {
 461:.\Generated_Source\PSoC4/CapSense_CSHL.c ****             CapSense_BaseInit(sensor);
 462:.\Generated_Source\PSoC4/CapSense_CSHL.c ****             CapSense_lowBaselineResetCnt[sensor] = 0u;
 463:.\Generated_Source\PSoC4/CapSense_CSHL.c ****         }
 464:.\Generated_Source\PSoC4/CapSense_CSHL.c ****         else
 465:.\Generated_Source\PSoC4/CapSense_CSHL.c ****         {
 466:.\Generated_Source\PSoC4/CapSense_CSHL.c ****             CapSense_lowBaselineResetCnt[sensor]++;
 467:.\Generated_Source\PSoC4/CapSense_CSHL.c ****         }
 468:.\Generated_Source\PSoC4/CapSense_CSHL.c ****     }
 469:.\Generated_Source\PSoC4/CapSense_CSHL.c ****     else
 470:.\Generated_Source\PSoC4/CapSense_CSHL.c ****     {
 471:.\Generated_Source\PSoC4/CapSense_CSHL.c ****         #if (CapSense_AUTO_RESET == CapSense_AUTO_RESET_DISABLE)
 472:.\Generated_Source\PSoC4/CapSense_CSHL.c ****         #if (CapSense_TUNING_METHOD != CapSense__TUNING_NONE)
 473:.\Generated_Source\PSoC4/CapSense_CSHL.c ****             /* Update Baseline if lower than noiseThreshold */
 474:.\Generated_Source\PSoC4/CapSense_CSHL.c ****             if ( (tempRaw <= noiseThreshold) ||
 475:.\Generated_Source\PSoC4/CapSense_CSHL.c ****              ((tempRaw < (uint16) CapSense_negativeNoiseThreshold[widget])
 476:.\Generated_Source\PSoC4/CapSense_CSHL.c ****                && (sign == 0u)))
 477:.\Generated_Source\PSoC4/CapSense_CSHL.c ****             {
 478:.\Generated_Source\PSoC4/CapSense_CSHL.c ****         #else
 479:.\Generated_Source\PSoC4/CapSense_CSHL.c ****             /* Update Baseline if lower than noiseThreshold */
 480:.\Generated_Source\PSoC4/CapSense_CSHL.c ****             if ( (tempRaw <= noiseThreshold) ||
 481:.\Generated_Source\PSoC4/CapSense_CSHL.c ****                  ((tempRaw < (uint16) CapSense_NEGATIVE_NOISE_THRESHOLD)
 482:.\Generated_Source\PSoC4/CapSense_CSHL.c ****                    && (sign == 0u)))
 483:.\Generated_Source\PSoC4/CapSense_CSHL.c ****             {
 484:.\Generated_Source\PSoC4/CapSense_CSHL.c ****         #endif /* (CapSense_TUNING_METHOD != CapSense__TUNING_NONE) */
 485:.\Generated_Source\PSoC4/CapSense_CSHL.c ****         #endif /* (CapSense_AUTO_RESET == CapSense_AUTO_RESET_DISABLE) */
 486:.\Generated_Source\PSoC4/CapSense_CSHL.c ****                 /* Make full Baseline 23 bits */
 487:.\Generated_Source\PSoC4/CapSense_CSHL.c ****                 calc = (uint32) CapSense_sensorBaseline[sensor] << 8u;
 488:.\Generated_Source\PSoC4/CapSense_CSHL.c ****                 calc |= (uint32) CapSense_sensorBaselineLow[sensor];
 489:.\Generated_Source\PSoC4/CapSense_CSHL.c **** 
 490:.\Generated_Source\PSoC4/CapSense_CSHL.c ****                 /* Add Raw Data to Baseline */
 491:.\Generated_Source\PSoC4/CapSense_CSHL.c ****                 calc += filteredRawData;
 492:.\Generated_Source\PSoC4/CapSense_CSHL.c **** 
 493:.\Generated_Source\PSoC4/CapSense_CSHL.c ****                 /* Sub the high Baseline */
 494:.\Generated_Source\PSoC4/CapSense_CSHL.c ****                 calc -= CapSense_sensorBaseline[sensor];
 495:.\Generated_Source\PSoC4/CapSense_CSHL.c **** 
 496:.\Generated_Source\PSoC4/CapSense_CSHL.c ****                 /* Put Baseline and BaselineLow */
 497:.\Generated_Source\PSoC4/CapSense_CSHL.c ****                 CapSense_sensorBaseline[sensor] = ((uint16) (calc >> 8u));
 498:.\Generated_Source\PSoC4/CapSense_CSHL.c ****                 CapSense_sensorBaselineLow[sensor] = ((uint8) calc);
 499:.\Generated_Source\PSoC4/CapSense_CSHL.c **** 
 500:.\Generated_Source\PSoC4/CapSense_CSHL.c ****                 CapSense_lowBaselineResetCnt[sensor] = 0u;
 501:.\Generated_Source\PSoC4/CapSense_CSHL.c ****         #if (CapSense_AUTO_RESET == CapSense_AUTO_RESET_DISABLE)
 502:.\Generated_Source\PSoC4/CapSense_CSHL.c ****             }
 503:.\Generated_Source\PSoC4/CapSense_CSHL.c ****         #endif /* (CapSense_AUTO_RESET == CapSense_AUTO_RESET_DISABLE) */
 504:.\Generated_Source\PSoC4/CapSense_CSHL.c ****     }
 505:.\Generated_Source\PSoC4/CapSense_CSHL.c **** 
 506:.\Generated_Source\PSoC4/CapSense_CSHL.c ****     /* Calculate Signal if positive difference > noiseThreshold */
 507:.\Generated_Source\PSoC4/CapSense_CSHL.c ****     if((tempRaw > (uint16) noiseThreshold) && (sign != 0u))
 508:.\Generated_Source\PSoC4/CapSense_CSHL.c ****     {
 509:.\Generated_Source\PSoC4/CapSense_CSHL.c ****         #if (CapSense_SIGNAL_SIZE == CapSense_SIGNAL_SIZE_UINT8)
 510:.\Generated_Source\PSoC4/CapSense_CSHL.c ****             /* Over flow defence for uint8 */
 511:.\Generated_Source\PSoC4/CapSense_CSHL.c ****             if (tempRaw > 0xFFu)
 512:.\Generated_Source\PSoC4/CapSense_CSHL.c ****             {
 513:.\Generated_Source\PSoC4/CapSense_CSHL.c ****                 CapSense_sensorSignal[sensor] = 0xFFu;
 514:.\Generated_Source\PSoC4/CapSense_CSHL.c ****             }
ARM GAS  C:\Users\Terence\AppData\Local\Temp\cc6R4aDx.s 			page 14


 515:.\Generated_Source\PSoC4/CapSense_CSHL.c ****             else
 516:.\Generated_Source\PSoC4/CapSense_CSHL.c ****             {
 517:.\Generated_Source\PSoC4/CapSense_CSHL.c ****                 CapSense_sensorSignal[sensor] = ((uint8) tempRaw);
 518:.\Generated_Source\PSoC4/CapSense_CSHL.c ****             }
 519:.\Generated_Source\PSoC4/CapSense_CSHL.c ****         #else
 520:.\Generated_Source\PSoC4/CapSense_CSHL.c ****             CapSense_sensorSignal[sensor] = ((uint16) tempRaw);
 521:.\Generated_Source\PSoC4/CapSense_CSHL.c ****         #endif  /* (CapSense_SIGNAL_SIZE == CapSense_SIGNAL_SIZE_UINT8) */
 522:.\Generated_Source\PSoC4/CapSense_CSHL.c ****     }
 523:.\Generated_Source\PSoC4/CapSense_CSHL.c ****     else
 524:.\Generated_Source\PSoC4/CapSense_CSHL.c ****     {
 525:.\Generated_Source\PSoC4/CapSense_CSHL.c ****         /* Signal is zero */
 526:.\Generated_Source\PSoC4/CapSense_CSHL.c ****         CapSense_sensorSignal[sensor] = 0u;
 527:.\Generated_Source\PSoC4/CapSense_CSHL.c ****     }
 528:.\Generated_Source\PSoC4/CapSense_CSHL.c **** 
 529:.\Generated_Source\PSoC4/CapSense_CSHL.c ****     #if (CapSense_TOTAL_GENERICS_COUNT)
 530:.\Generated_Source\PSoC4/CapSense_CSHL.c ****         /* Exclude generic widget */
 531:.\Generated_Source\PSoC4/CapSense_CSHL.c ****         }
 532:.\Generated_Source\PSoC4/CapSense_CSHL.c ****     #endif  /* CapSense_TOTAL_GENERICS_COUNT */
 533:.\Generated_Source\PSoC4/CapSense_CSHL.c **** }
 534:.\Generated_Source\PSoC4/CapSense_CSHL.c **** 
 535:.\Generated_Source\PSoC4/CapSense_CSHL.c **** 
 536:.\Generated_Source\PSoC4/CapSense_CSHL.c **** /*******************************************************************************
 537:.\Generated_Source\PSoC4/CapSense_CSHL.c **** * Function Name: CapSense_UpdateSensorBaseline
 538:.\Generated_Source\PSoC4/CapSense_CSHL.c **** ********************************************************************************
 539:.\Generated_Source\PSoC4/CapSense_CSHL.c **** *
 540:.\Generated_Source\PSoC4/CapSense_CSHL.c **** * Summary:
 541:.\Generated_Source\PSoC4/CapSense_CSHL.c **** *  Updates the CapSense_sensorBaseline[sensor] array element using the
 542:.\Generated_Source\PSoC4/CapSense_CSHL.c **** *  LP filter with k = 256. The signal calculates the difference of count by
 543:.\Generated_Source\PSoC4/CapSense_CSHL.c **** *  subtracting the previous baseline from the current raw count value and stores
 544:.\Generated_Source\PSoC4/CapSense_CSHL.c **** *  it in CapSense_sensorSignal[sensor].
 545:.\Generated_Source\PSoC4/CapSense_CSHL.c **** *  If the auto reset option is enabled, the baseline updated regards the noise threshold.
 546:.\Generated_Source\PSoC4/CapSense_CSHL.c **** *  If the auto reset option is disabled, the baseline stops updating.
 547:.\Generated_Source\PSoC4/CapSense_CSHL.c **** *  Baseline is loaded with raw count value if a signal is greater than zero and
 548:.\Generated_Source\PSoC4/CapSense_CSHL.c **** *  if signal is less than noise threshold.
 549:.\Generated_Source\PSoC4/CapSense_CSHL.c **** *  Raw data filters are applied to the values if enabled before baseline
 550:.\Generated_Source\PSoC4/CapSense_CSHL.c **** *  calculation.
 551:.\Generated_Source\PSoC4/CapSense_CSHL.c **** *  This API updates the thresholds in the Smartsense Mode.
 552:.\Generated_Source\PSoC4/CapSense_CSHL.c **** *
 553:.\Generated_Source\PSoC4/CapSense_CSHL.c **** * Parameters:
 554:.\Generated_Source\PSoC4/CapSense_CSHL.c **** *  sensor:  Sensor number.
 555:.\Generated_Source\PSoC4/CapSense_CSHL.c **** *
 556:.\Generated_Source\PSoC4/CapSense_CSHL.c **** * Return:
 557:.\Generated_Source\PSoC4/CapSense_CSHL.c **** *  None
 558:.\Generated_Source\PSoC4/CapSense_CSHL.c **** *
 559:.\Generated_Source\PSoC4/CapSense_CSHL.c **** * Global Variables:
 560:.\Generated_Source\PSoC4/CapSense_CSHL.c **** *  CapSense_widgetNumber[]  - stores widget numbers.
 561:.\Generated_Source\PSoC4/CapSense_CSHL.c **** *
 562:.\Generated_Source\PSoC4/CapSense_CSHL.c **** * Side Effects:
 563:.\Generated_Source\PSoC4/CapSense_CSHL.c **** *  None
 564:.\Generated_Source\PSoC4/CapSense_CSHL.c **** *
 565:.\Generated_Source\PSoC4/CapSense_CSHL.c **** *******************************************************************************/
 566:.\Generated_Source\PSoC4/CapSense_CSHL.c ****  void CapSense_UpdateSensorBaseline(uint32 sensor)
 567:.\Generated_Source\PSoC4/CapSense_CSHL.c **** {
 568:.\Generated_Source\PSoC4/CapSense_CSHL.c ****     #if (CapSense_TOTAL_GENERICS_COUNT)
 569:.\Generated_Source\PSoC4/CapSense_CSHL.c ****         uint32 widget;
 570:.\Generated_Source\PSoC4/CapSense_CSHL.c **** 
 571:.\Generated_Source\PSoC4/CapSense_CSHL.c ****         widget = CapSense_widgetNumber[sensor];
ARM GAS  C:\Users\Terence\AppData\Local\Temp\cc6R4aDx.s 			page 15


 572:.\Generated_Source\PSoC4/CapSense_CSHL.c **** 
 573:.\Generated_Source\PSoC4/CapSense_CSHL.c ****         /* Exclude generic widget */
 574:.\Generated_Source\PSoC4/CapSense_CSHL.c ****         if(widget < CapSense_END_OF_WIDGETS_INDEX)
 575:.\Generated_Source\PSoC4/CapSense_CSHL.c ****         {
 576:.\Generated_Source\PSoC4/CapSense_CSHL.c ****     #endif  /* CapSense_TOTAL_GENERICS_COUNT */
 577:.\Generated_Source\PSoC4/CapSense_CSHL.c **** 
 578:.\Generated_Source\PSoC4/CapSense_CSHL.c ****     #if (CapSense_TUNING_METHOD == CapSense__TUNING_AUTO)
 579:.\Generated_Source\PSoC4/CapSense_CSHL.c ****         CapSense_UpdateThresholds(sensor);
 580:.\Generated_Source\PSoC4/CapSense_CSHL.c ****     #endif /* (CapSense_TUNING_METHOD == CapSense__TUNING_AUTO) */
 581:.\Generated_Source\PSoC4/CapSense_CSHL.c **** 
 582:.\Generated_Source\PSoC4/CapSense_CSHL.c ****     CapSense_UpdateBaselineNoThreshold(sensor);
 583:.\Generated_Source\PSoC4/CapSense_CSHL.c **** 
 584:.\Generated_Source\PSoC4/CapSense_CSHL.c ****     #if (CapSense_TOTAL_GENERICS_COUNT)
 585:.\Generated_Source\PSoC4/CapSense_CSHL.c ****         /* Exclude generic widget */
 586:.\Generated_Source\PSoC4/CapSense_CSHL.c ****         }
 587:.\Generated_Source\PSoC4/CapSense_CSHL.c ****     #endif  /* CapSense_TOTAL_GENERICS_COUNT */
 588:.\Generated_Source\PSoC4/CapSense_CSHL.c **** }
 589:.\Generated_Source\PSoC4/CapSense_CSHL.c **** 
 590:.\Generated_Source\PSoC4/CapSense_CSHL.c **** 
 591:.\Generated_Source\PSoC4/CapSense_CSHL.c **** /*******************************************************************************
 592:.\Generated_Source\PSoC4/CapSense_CSHL.c **** * Function Name: CapSense_UpdateEnabledBaselines
 593:.\Generated_Source\PSoC4/CapSense_CSHL.c **** ********************************************************************************
 594:.\Generated_Source\PSoC4/CapSense_CSHL.c **** *
 595:.\Generated_Source\PSoC4/CapSense_CSHL.c **** * Summary:
 596:.\Generated_Source\PSoC4/CapSense_CSHL.c **** *  Checks CapSense_sensorEnableMask[] array and calls the
 597:.\Generated_Source\PSoC4/CapSense_CSHL.c **** *  CapSense_UpdateSensorBaseline function to update the baselines
 598:.\Generated_Source\PSoC4/CapSense_CSHL.c **** *  for the enabled sensors.
 599:.\Generated_Source\PSoC4/CapSense_CSHL.c **** *
 600:.\Generated_Source\PSoC4/CapSense_CSHL.c **** * Parameters:
 601:.\Generated_Source\PSoC4/CapSense_CSHL.c **** *  None
 602:.\Generated_Source\PSoC4/CapSense_CSHL.c **** *
 603:.\Generated_Source\PSoC4/CapSense_CSHL.c **** * Return:
 604:.\Generated_Source\PSoC4/CapSense_CSHL.c **** *  None
 605:.\Generated_Source\PSoC4/CapSense_CSHL.c **** *
 606:.\Generated_Source\PSoC4/CapSense_CSHL.c **** * Global Variables:
 607:.\Generated_Source\PSoC4/CapSense_CSHL.c **** *  CapSense_sensorEnableMask[] - used to store the sensor scanning
 608:.\Generated_Source\PSoC4/CapSense_CSHL.c **** *  state.
 609:.\Generated_Source\PSoC4/CapSense_CSHL.c **** *  CapSense_sensorEnableMask[0] contains the masked bits for sensors
 610:.\Generated_Source\PSoC4/CapSense_CSHL.c **** *   0 through 7 (sensor 0 is bit 0, sensor 1 is bit 1).
 611:.\Generated_Source\PSoC4/CapSense_CSHL.c **** *  CapSense_sensorEnableMask[1] contains the masked bits for
 612:.\Generated_Source\PSoC4/CapSense_CSHL.c **** *  sensors 8 through 15 (if needed), and so on.
 613:.\Generated_Source\PSoC4/CapSense_CSHL.c **** *  0 - sensor doesn't scan by CapSense_ScanEnabledWidgets().
 614:.\Generated_Source\PSoC4/CapSense_CSHL.c **** *  1 - sensor scans by CapSense_ScanEnabledWidgets().
 615:.\Generated_Source\PSoC4/CapSense_CSHL.c **** *
 616:.\Generated_Source\PSoC4/CapSense_CSHL.c **** * Side Effects:
 617:.\Generated_Source\PSoC4/CapSense_CSHL.c **** *  None
 618:.\Generated_Source\PSoC4/CapSense_CSHL.c **** *
 619:.\Generated_Source\PSoC4/CapSense_CSHL.c **** *******************************************************************************/
 620:.\Generated_Source\PSoC4/CapSense_CSHL.c ****  void CapSense_UpdateEnabledBaselines(void)
 621:.\Generated_Source\PSoC4/CapSense_CSHL.c **** {
 622:.\Generated_Source\PSoC4/CapSense_CSHL.c ****     uint32 i;
 623:.\Generated_Source\PSoC4/CapSense_CSHL.c ****     uint32 isSensorEnabled;
 624:.\Generated_Source\PSoC4/CapSense_CSHL.c **** 
 625:.\Generated_Source\PSoC4/CapSense_CSHL.c ****     for(i = 0u; i < CapSense_TOTAL_SENSOR_COUNT; i++)
 626:.\Generated_Source\PSoC4/CapSense_CSHL.c ****     {
 627:.\Generated_Source\PSoC4/CapSense_CSHL.c ****         isSensorEnabled = CapSense_GetBitValue(CapSense_sensorEnableMask, i);
 628:.\Generated_Source\PSoC4/CapSense_CSHL.c **** 
ARM GAS  C:\Users\Terence\AppData\Local\Temp\cc6R4aDx.s 			page 16


 629:.\Generated_Source\PSoC4/CapSense_CSHL.c ****         if(0u != isSensorEnabled)
 630:.\Generated_Source\PSoC4/CapSense_CSHL.c ****         {
 631:.\Generated_Source\PSoC4/CapSense_CSHL.c ****             CapSense_UpdateSensorBaseline(i);
 632:.\Generated_Source\PSoC4/CapSense_CSHL.c ****         }
 633:.\Generated_Source\PSoC4/CapSense_CSHL.c ****     }
 634:.\Generated_Source\PSoC4/CapSense_CSHL.c **** }
 635:.\Generated_Source\PSoC4/CapSense_CSHL.c **** 
 636:.\Generated_Source\PSoC4/CapSense_CSHL.c **** /*******************************************************************************
 637:.\Generated_Source\PSoC4/CapSense_CSHL.c **** * Function Name: CapSense_UpdateWidgetBaseline
 638:.\Generated_Source\PSoC4/CapSense_CSHL.c **** ********************************************************************************
 639:.\Generated_Source\PSoC4/CapSense_CSHL.c **** *
 640:.\Generated_Source\PSoC4/CapSense_CSHL.c **** * Summary:
 641:.\Generated_Source\PSoC4/CapSense_CSHL.c **** *  Checks CapSense_sensorEnableMask[] array and calls the
 642:.\Generated_Source\PSoC4/CapSense_CSHL.c **** *  CapSense_UpdateSensorBaseline function to update the baselines
 643:.\Generated_Source\PSoC4/CapSense_CSHL.c **** *  for the enabled sensors that belong to widget.
 644:.\Generated_Source\PSoC4/CapSense_CSHL.c **** *
 645:.\Generated_Source\PSoC4/CapSense_CSHL.c **** * Parameters:
 646:.\Generated_Source\PSoC4/CapSense_CSHL.c **** *  widget:  Widget number.
 647:.\Generated_Source\PSoC4/CapSense_CSHL.c **** *
 648:.\Generated_Source\PSoC4/CapSense_CSHL.c **** * Return:
 649:.\Generated_Source\PSoC4/CapSense_CSHL.c **** *  None
 650:.\Generated_Source\PSoC4/CapSense_CSHL.c **** *
 651:.\Generated_Source\PSoC4/CapSense_CSHL.c **** * Global Variables:
 652:.\Generated_Source\PSoC4/CapSense_CSHL.c **** *  CapSense_sensorEnableMask[] - used to store the sensor scanning
 653:.\Generated_Source\PSoC4/CapSense_CSHL.c **** *  state.
 654:.\Generated_Source\PSoC4/CapSense_CSHL.c **** *  CapSense_sensorEnableMask[0] contains the masked bits for sensors
 655:.\Generated_Source\PSoC4/CapSense_CSHL.c **** *   0 through 7 (sensor 0 is bit 0, sensor 1 is bit 1).
 656:.\Generated_Source\PSoC4/CapSense_CSHL.c **** *  CapSense_sensorEnableMask[1] contains the masked bits for
 657:.\Generated_Source\PSoC4/CapSense_CSHL.c **** *  sensors 8 through 15 (if needed), and so on.
 658:.\Generated_Source\PSoC4/CapSense_CSHL.c **** *  0 - sensor doesn't scan by CapSense_ScanEnabledWidgets().
 659:.\Generated_Source\PSoC4/CapSense_CSHL.c **** *  1 - sensor scans by CapSense_ScanEnabledWidgets().
 660:.\Generated_Source\PSoC4/CapSense_CSHL.c **** *
 661:.\Generated_Source\PSoC4/CapSense_CSHL.c **** * Side Effects:
 662:.\Generated_Source\PSoC4/CapSense_CSHL.c **** *  None
 663:.\Generated_Source\PSoC4/CapSense_CSHL.c **** *
 664:.\Generated_Source\PSoC4/CapSense_CSHL.c **** *******************************************************************************/
 665:.\Generated_Source\PSoC4/CapSense_CSHL.c **** void CapSense_UpdateWidgetBaseline(uint32 widget)
 666:.\Generated_Source\PSoC4/CapSense_CSHL.c **** {
 667:.\Generated_Source\PSoC4/CapSense_CSHL.c ****     uint32 sensorsPerWidget;
 668:.\Generated_Source\PSoC4/CapSense_CSHL.c ****     uint32 firstSensor;
 669:.\Generated_Source\PSoC4/CapSense_CSHL.c ****     uint32 lastSensor;
 670:.\Generated_Source\PSoC4/CapSense_CSHL.c ****     uint32 i;
 671:.\Generated_Source\PSoC4/CapSense_CSHL.c ****     uint32 isSensorEnabled;
 672:.\Generated_Source\PSoC4/CapSense_CSHL.c **** 
 673:.\Generated_Source\PSoC4/CapSense_CSHL.c ****     /* Get number of sensors in widget */
 674:.\Generated_Source\PSoC4/CapSense_CSHL.c ****     sensorsPerWidget = CapSense_numberOfSensors[widget];
 675:.\Generated_Source\PSoC4/CapSense_CSHL.c **** 
 676:.\Generated_Source\PSoC4/CapSense_CSHL.c ****     /* Get first sensor in widget */
 677:.\Generated_Source\PSoC4/CapSense_CSHL.c ****     firstSensor = CapSense_rawDataIndex[widget];
 678:.\Generated_Source\PSoC4/CapSense_CSHL.c **** 
 679:.\Generated_Source\PSoC4/CapSense_CSHL.c ****     /* Get last sensor in widget */
 680:.\Generated_Source\PSoC4/CapSense_CSHL.c ****     lastSensor = (CapSense_rawDataIndex[widget] + sensorsPerWidget);
 681:.\Generated_Source\PSoC4/CapSense_CSHL.c **** 
 682:.\Generated_Source\PSoC4/CapSense_CSHL.c ****     for(i = firstSensor; i < lastSensor; i++)
 683:.\Generated_Source\PSoC4/CapSense_CSHL.c ****     {
 684:.\Generated_Source\PSoC4/CapSense_CSHL.c ****         isSensorEnabled = CapSense_GetBitValue(CapSense_sensorEnableMask, i);
 685:.\Generated_Source\PSoC4/CapSense_CSHL.c **** 
ARM GAS  C:\Users\Terence\AppData\Local\Temp\cc6R4aDx.s 			page 17


 686:.\Generated_Source\PSoC4/CapSense_CSHL.c ****         if(0u != isSensorEnabled)
 687:.\Generated_Source\PSoC4/CapSense_CSHL.c ****         {
 688:.\Generated_Source\PSoC4/CapSense_CSHL.c ****             CapSense_UpdateSensorBaseline(i);
 689:.\Generated_Source\PSoC4/CapSense_CSHL.c ****         }
 690:.\Generated_Source\PSoC4/CapSense_CSHL.c ****     }
 691:.\Generated_Source\PSoC4/CapSense_CSHL.c **** }
 692:.\Generated_Source\PSoC4/CapSense_CSHL.c **** 
 693:.\Generated_Source\PSoC4/CapSense_CSHL.c **** 
 694:.\Generated_Source\PSoC4/CapSense_CSHL.c **** /*******************************************************************************
 695:.\Generated_Source\PSoC4/CapSense_CSHL.c **** * Function Name: CapSense_GetBaselineData
 696:.\Generated_Source\PSoC4/CapSense_CSHL.c **** ********************************************************************************
 697:.\Generated_Source\PSoC4/CapSense_CSHL.c **** *
 698:.\Generated_Source\PSoC4/CapSense_CSHL.c **** * Summary:
 699:.\Generated_Source\PSoC4/CapSense_CSHL.c **** *  This function reads the sensor baseline from the component.
 700:.\Generated_Source\PSoC4/CapSense_CSHL.c **** *
 701:.\Generated_Source\PSoC4/CapSense_CSHL.c **** * Parameters:
 702:.\Generated_Source\PSoC4/CapSense_CSHL.c **** *  sensor:  Sensor number.
 703:.\Generated_Source\PSoC4/CapSense_CSHL.c **** *
 704:.\Generated_Source\PSoC4/CapSense_CSHL.c **** * Return:
 705:.\Generated_Source\PSoC4/CapSense_CSHL.c **** *  This API returns the baseline value of the sensor indicated by an argument.
 706:.\Generated_Source\PSoC4/CapSense_CSHL.c **** *
 707:.\Generated_Source\PSoC4/CapSense_CSHL.c **** * Global Variables:
 708:.\Generated_Source\PSoC4/CapSense_CSHL.c **** *  CapSense_sensorBaseline[] - the array with an initial values by scanning
 709:.\Generated_Source\PSoC4/CapSense_CSHL.c **** *
 710:.\Generated_Source\PSoC4/CapSense_CSHL.c **** * Side Effects:
 711:.\Generated_Source\PSoC4/CapSense_CSHL.c **** *  None
 712:.\Generated_Source\PSoC4/CapSense_CSHL.c **** *
 713:.\Generated_Source\PSoC4/CapSense_CSHL.c **** *******************************************************************************/
 714:.\Generated_Source\PSoC4/CapSense_CSHL.c **** uint16 CapSense_GetBaselineData(uint32 sensor)
 715:.\Generated_Source\PSoC4/CapSense_CSHL.c **** {
 224              		.loc 1 715 0
 225              		.cfi_startproc
 226              	.LVL23:
 716:.\Generated_Source\PSoC4/CapSense_CSHL.c ****     return (CapSense_sensorBaseline[sensor]);
 227              		.loc 1 716 0
 228 0000 4000     		lsl	r0, r0, #1
 229              	.LVL24:
 230 0002 014B     		ldr	r3, .L18
 231 0004 185A     		ldrh	r0, [r3, r0]
 717:.\Generated_Source\PSoC4/CapSense_CSHL.c **** }
 232              		.loc 1 717 0
 233              		@ sp needed
 234 0006 7047     		bx	lr
 235              	.L19:
 236              		.align	2
 237              	.L18:
 238 0008 00000000 		.word	.LANCHOR0
 239              		.cfi_endproc
 240              	.LFE44:
 241              		.size	CapSense_GetBaselineData, .-CapSense_GetBaselineData
 242              		.section	.text.CapSense_SetBaselineData,"ax",%progbits
 243              		.align	2
 244              		.global	CapSense_SetBaselineData
 245              		.code	16
 246              		.thumb_func
 247              		.type	CapSense_SetBaselineData, %function
 248              	CapSense_SetBaselineData:
ARM GAS  C:\Users\Terence\AppData\Local\Temp\cc6R4aDx.s 			page 18


 249              	.LFB45:
 718:.\Generated_Source\PSoC4/CapSense_CSHL.c **** 
 719:.\Generated_Source\PSoC4/CapSense_CSHL.c **** 
 720:.\Generated_Source\PSoC4/CapSense_CSHL.c **** /*******************************************************************************
 721:.\Generated_Source\PSoC4/CapSense_CSHL.c **** * Function Name: CapSense_SetBaselineData
 722:.\Generated_Source\PSoC4/CapSense_CSHL.c **** ********************************************************************************
 723:.\Generated_Source\PSoC4/CapSense_CSHL.c **** *
 724:.\Generated_Source\PSoC4/CapSense_CSHL.c **** * Summary:
 725:.\Generated_Source\PSoC4/CapSense_CSHL.c **** *  This API writes the data value passed as an argument to the sensor baseline array.
 726:.\Generated_Source\PSoC4/CapSense_CSHL.c **** *
 727:.\Generated_Source\PSoC4/CapSense_CSHL.c **** * Parameters:
 728:.\Generated_Source\PSoC4/CapSense_CSHL.c **** *  sensor:  Sensor number.
 729:.\Generated_Source\PSoC4/CapSense_CSHL.c **** *  data:    Sensor baseline.
 730:.\Generated_Source\PSoC4/CapSense_CSHL.c **** *
 731:.\Generated_Source\PSoC4/CapSense_CSHL.c **** * Return:
 732:.\Generated_Source\PSoC4/CapSense_CSHL.c **** *  None.
 733:.\Generated_Source\PSoC4/CapSense_CSHL.c **** *
 734:.\Generated_Source\PSoC4/CapSense_CSHL.c **** * Global Variables:
 735:.\Generated_Source\PSoC4/CapSense_CSHL.c **** *  CapSense_sensorBaseline[] - the array with initial values by scanning
 736:.\Generated_Source\PSoC4/CapSense_CSHL.c **** *
 737:.\Generated_Source\PSoC4/CapSense_CSHL.c **** * Side Effects:
 738:.\Generated_Source\PSoC4/CapSense_CSHL.c **** *  None
 739:.\Generated_Source\PSoC4/CapSense_CSHL.c **** *
 740:.\Generated_Source\PSoC4/CapSense_CSHL.c **** *******************************************************************************/
 741:.\Generated_Source\PSoC4/CapSense_CSHL.c **** void CapSense_SetBaselineData(uint32 sensor, uint16 data)
 742:.\Generated_Source\PSoC4/CapSense_CSHL.c **** {
 250              		.loc 1 742 0
 251              		.cfi_startproc
 252              	.LVL25:
 743:.\Generated_Source\PSoC4/CapSense_CSHL.c ****     CapSense_sensorBaseline[sensor] = data;
 253              		.loc 1 743 0
 254 0000 4000     		lsl	r0, r0, #1
 255              	.LVL26:
 256 0002 014B     		ldr	r3, .L21
 257 0004 C152     		strh	r1, [r0, r3]
 744:.\Generated_Source\PSoC4/CapSense_CSHL.c **** }
 258              		.loc 1 744 0
 259              		@ sp needed
 260 0006 7047     		bx	lr
 261              	.L22:
 262              		.align	2
 263              	.L21:
 264 0008 00000000 		.word	.LANCHOR0
 265              		.cfi_endproc
 266              	.LFE45:
 267              		.size	CapSense_SetBaselineData, .-CapSense_SetBaselineData
 268              		.section	.text.CapSense_GetDiffCountData,"ax",%progbits
 269              		.align	2
 270              		.global	CapSense_GetDiffCountData
 271              		.code	16
 272              		.thumb_func
 273              		.type	CapSense_GetDiffCountData, %function
 274              	CapSense_GetDiffCountData:
 275              	.LFB46:
 745:.\Generated_Source\PSoC4/CapSense_CSHL.c **** 
 746:.\Generated_Source\PSoC4/CapSense_CSHL.c **** 
 747:.\Generated_Source\PSoC4/CapSense_CSHL.c **** /*******************************************************************************
ARM GAS  C:\Users\Terence\AppData\Local\Temp\cc6R4aDx.s 			page 19


 748:.\Generated_Source\PSoC4/CapSense_CSHL.c **** * Function Name: CapSense_GetDiffCountData
 749:.\Generated_Source\PSoC4/CapSense_CSHL.c **** ********************************************************************************
 750:.\Generated_Source\PSoC4/CapSense_CSHL.c **** *
 751:.\Generated_Source\PSoC4/CapSense_CSHL.c **** * Summary:
 752:.\Generated_Source\PSoC4/CapSense_CSHL.c **** *  This function returns the Sensor Signal from the component.
 753:.\Generated_Source\PSoC4/CapSense_CSHL.c **** *
 754:.\Generated_Source\PSoC4/CapSense_CSHL.c **** * Parameters:
 755:.\Generated_Source\PSoC4/CapSense_CSHL.c **** *  sensor:  Sensor number.
 756:.\Generated_Source\PSoC4/CapSense_CSHL.c **** *
 757:.\Generated_Source\PSoC4/CapSense_CSHL.c **** * Return:
 758:.\Generated_Source\PSoC4/CapSense_CSHL.c **** *  This API returns the difference count value of the sensor indicated by the
 759:.\Generated_Source\PSoC4/CapSense_CSHL.c **** *  argument.
 760:.\Generated_Source\PSoC4/CapSense_CSHL.c **** *
 761:.\Generated_Source\PSoC4/CapSense_CSHL.c **** * Global Variables:
 762:.\Generated_Source\PSoC4/CapSense_CSHL.c **** *  CapSense_sensorSignal[] - the array with difference counts for sensors
 763:.\Generated_Source\PSoC4/CapSense_CSHL.c **** *
 764:.\Generated_Source\PSoC4/CapSense_CSHL.c **** * Side Effects:
 765:.\Generated_Source\PSoC4/CapSense_CSHL.c **** *  None
 766:.\Generated_Source\PSoC4/CapSense_CSHL.c **** *
 767:.\Generated_Source\PSoC4/CapSense_CSHL.c **** *******************************************************************************/
 768:.\Generated_Source\PSoC4/CapSense_CSHL.c **** uint8 CapSense_GetDiffCountData(uint32 sensor)
 769:.\Generated_Source\PSoC4/CapSense_CSHL.c **** {
 276              		.loc 1 769 0
 277              		.cfi_startproc
 278              	.LVL27:
 770:.\Generated_Source\PSoC4/CapSense_CSHL.c ****     return (CapSense_sensorSignal[sensor]);
 279              		.loc 1 770 0
 280 0000 014B     		ldr	r3, .L24
 281 0002 2C33     		add	r3, r3, #44
 282 0004 185C     		ldrb	r0, [r3, r0]
 283              	.LVL28:
 771:.\Generated_Source\PSoC4/CapSense_CSHL.c **** }
 284              		.loc 1 771 0
 285              		@ sp needed
 286 0006 7047     		bx	lr
 287              	.L25:
 288              		.align	2
 289              	.L24:
 290 0008 00000000 		.word	.LANCHOR0
 291              		.cfi_endproc
 292              	.LFE46:
 293              		.size	CapSense_GetDiffCountData, .-CapSense_GetDiffCountData
 294              		.section	.text.CapSense_SetDiffCountData,"ax",%progbits
 295              		.align	2
 296              		.global	CapSense_SetDiffCountData
 297              		.code	16
 298              		.thumb_func
 299              		.type	CapSense_SetDiffCountData, %function
 300              	CapSense_SetDiffCountData:
 301              	.LFB47:
 772:.\Generated_Source\PSoC4/CapSense_CSHL.c **** 
 773:.\Generated_Source\PSoC4/CapSense_CSHL.c **** 
 774:.\Generated_Source\PSoC4/CapSense_CSHL.c **** /*******************************************************************************
 775:.\Generated_Source\PSoC4/CapSense_CSHL.c **** * Function Name: CapSense_SetDiffCountData
 776:.\Generated_Source\PSoC4/CapSense_CSHL.c **** ********************************************************************************
 777:.\Generated_Source\PSoC4/CapSense_CSHL.c **** *
 778:.\Generated_Source\PSoC4/CapSense_CSHL.c **** * Summary:
ARM GAS  C:\Users\Terence\AppData\Local\Temp\cc6R4aDx.s 			page 20


 779:.\Generated_Source\PSoC4/CapSense_CSHL.c **** *  This API writes the data value passed as an argument to the sensor signal array.
 780:.\Generated_Source\PSoC4/CapSense_CSHL.c **** *
 781:.\Generated_Source\PSoC4/CapSense_CSHL.c **** * Parameters:
 782:.\Generated_Source\PSoC4/CapSense_CSHL.c **** *  sensor:  Sensor number.
 783:.\Generated_Source\PSoC4/CapSense_CSHL.c **** *  value:   Sensor signal.
 784:.\Generated_Source\PSoC4/CapSense_CSHL.c **** *
 785:.\Generated_Source\PSoC4/CapSense_CSHL.c **** * Return:
 786:.\Generated_Source\PSoC4/CapSense_CSHL.c **** *  None.
 787:.\Generated_Source\PSoC4/CapSense_CSHL.c **** *
 788:.\Generated_Source\PSoC4/CapSense_CSHL.c **** * Global Variables:
 789:.\Generated_Source\PSoC4/CapSense_CSHL.c **** *  CapSense_sensorSignal[] - the array with difference counts for sensors
 790:.\Generated_Source\PSoC4/CapSense_CSHL.c **** *
 791:.\Generated_Source\PSoC4/CapSense_CSHL.c **** * Side Effects:
 792:.\Generated_Source\PSoC4/CapSense_CSHL.c **** *  None
 793:.\Generated_Source\PSoC4/CapSense_CSHL.c **** *
 794:.\Generated_Source\PSoC4/CapSense_CSHL.c **** *******************************************************************************/
 795:.\Generated_Source\PSoC4/CapSense_CSHL.c **** void CapSense_SetDiffCountData(uint32 sensor, uint8 value)
 796:.\Generated_Source\PSoC4/CapSense_CSHL.c **** {
 302              		.loc 1 796 0
 303              		.cfi_startproc
 304              	.LVL29:
 797:.\Generated_Source\PSoC4/CapSense_CSHL.c ****     CapSense_sensorSignal[sensor] = value;
 305              		.loc 1 797 0
 306 0000 014B     		ldr	r3, .L27
 307 0002 2C33     		add	r3, r3, #44
 308 0004 1954     		strb	r1, [r3, r0]
 798:.\Generated_Source\PSoC4/CapSense_CSHL.c **** }
 309              		.loc 1 798 0
 310              		@ sp needed
 311 0006 7047     		bx	lr
 312              	.L28:
 313              		.align	2
 314              	.L27:
 315 0008 00000000 		.word	.LANCHOR0
 316              		.cfi_endproc
 317              	.LFE47:
 318              		.size	CapSense_SetDiffCountData, .-CapSense_SetDiffCountData
 319              		.section	.text.CapSense_GetFingerThreshold,"ax",%progbits
 320              		.align	2
 321              		.global	CapSense_GetFingerThreshold
 322              		.code	16
 323              		.thumb_func
 324              		.type	CapSense_GetFingerThreshold, %function
 325              	CapSense_GetFingerThreshold:
 326              	.LFB48:
 799:.\Generated_Source\PSoC4/CapSense_CSHL.c **** 
 800:.\Generated_Source\PSoC4/CapSense_CSHL.c **** 
 801:.\Generated_Source\PSoC4/CapSense_CSHL.c **** /*******************************************************************************
 802:.\Generated_Source\PSoC4/CapSense_CSHL.c **** * Function Name: CapSense_GetFingerThreshold
 803:.\Generated_Source\PSoC4/CapSense_CSHL.c **** ********************************************************************************
 804:.\Generated_Source\PSoC4/CapSense_CSHL.c **** *
 805:.\Generated_Source\PSoC4/CapSense_CSHL.c **** * Summary:
 806:.\Generated_Source\PSoC4/CapSense_CSHL.c **** *  This function reads the finger threshold from the component.
 807:.\Generated_Source\PSoC4/CapSense_CSHL.c **** *
 808:.\Generated_Source\PSoC4/CapSense_CSHL.c **** * Parameters:
 809:.\Generated_Source\PSoC4/CapSense_CSHL.c **** *  widget:  widget number.
 810:.\Generated_Source\PSoC4/CapSense_CSHL.c **** *
ARM GAS  C:\Users\Terence\AppData\Local\Temp\cc6R4aDx.s 			page 21


 811:.\Generated_Source\PSoC4/CapSense_CSHL.c **** * Return:
 812:.\Generated_Source\PSoC4/CapSense_CSHL.c **** *  This API returns the finger threshold of the widget indicated by the argument.
 813:.\Generated_Source\PSoC4/CapSense_CSHL.c **** *
 814:.\Generated_Source\PSoC4/CapSense_CSHL.c **** * Global Variables:
 815:.\Generated_Source\PSoC4/CapSense_CSHL.c **** *  CapSense_fingerThreshold[] - This array contains the level of signal
 816:.\Generated_Source\PSoC4/CapSense_CSHL.c **** *  for each widget that is determined if a finger is present on the widget.
 817:.\Generated_Source\PSoC4/CapSense_CSHL.c **** *
 818:.\Generated_Source\PSoC4/CapSense_CSHL.c **** * Side Effects:
 819:.\Generated_Source\PSoC4/CapSense_CSHL.c **** *  None
 820:.\Generated_Source\PSoC4/CapSense_CSHL.c **** *
 821:.\Generated_Source\PSoC4/CapSense_CSHL.c **** *******************************************************************************/
 822:.\Generated_Source\PSoC4/CapSense_CSHL.c **** uint8 CapSense_GetFingerThreshold(uint32 widget)
 823:.\Generated_Source\PSoC4/CapSense_CSHL.c **** {
 327              		.loc 1 823 0
 328              		.cfi_startproc
 329              	.LVL30:
 824:.\Generated_Source\PSoC4/CapSense_CSHL.c ****     return(CapSense_fingerThreshold[widget]);
 330              		.loc 1 824 0
 331 0000 014B     		ldr	r3, .L30
 332 0002 1818     		add	r0, r3, r0
 333              	.LVL31:
 334 0004 007A     		ldrb	r0, [r0, #8]
 825:.\Generated_Source\PSoC4/CapSense_CSHL.c **** }
 335              		.loc 1 825 0
 336              		@ sp needed
 337 0006 7047     		bx	lr
 338              	.L31:
 339              		.align	2
 340              	.L30:
 341 0008 00000000 		.word	.LANCHOR1
 342              		.cfi_endproc
 343              	.LFE48:
 344              		.size	CapSense_GetFingerThreshold, .-CapSense_GetFingerThreshold
 345              		.section	.text.CapSense_GetNoiseThreshold,"ax",%progbits
 346              		.align	2
 347              		.global	CapSense_GetNoiseThreshold
 348              		.code	16
 349              		.thumb_func
 350              		.type	CapSense_GetNoiseThreshold, %function
 351              	CapSense_GetNoiseThreshold:
 352              	.LFB49:
 826:.\Generated_Source\PSoC4/CapSense_CSHL.c **** 
 827:.\Generated_Source\PSoC4/CapSense_CSHL.c **** 
 828:.\Generated_Source\PSoC4/CapSense_CSHL.c **** /*******************************************************************************
 829:.\Generated_Source\PSoC4/CapSense_CSHL.c **** * Function Name: CapSense_GetNoiseThreshold
 830:.\Generated_Source\PSoC4/CapSense_CSHL.c **** ********************************************************************************
 831:.\Generated_Source\PSoC4/CapSense_CSHL.c **** *
 832:.\Generated_Source\PSoC4/CapSense_CSHL.c **** * Summary:
 833:.\Generated_Source\PSoC4/CapSense_CSHL.c **** *  This function reads the noise threshold from the component.
 834:.\Generated_Source\PSoC4/CapSense_CSHL.c **** *
 835:.\Generated_Source\PSoC4/CapSense_CSHL.c **** * Parameters:
 836:.\Generated_Source\PSoC4/CapSense_CSHL.c **** *  widget:  widget number.
 837:.\Generated_Source\PSoC4/CapSense_CSHL.c **** *
 838:.\Generated_Source\PSoC4/CapSense_CSHL.c **** * Return:
 839:.\Generated_Source\PSoC4/CapSense_CSHL.c **** *  This API returns the noise threshold of the widget indicated by the argument.
 840:.\Generated_Source\PSoC4/CapSense_CSHL.c **** *
 841:.\Generated_Source\PSoC4/CapSense_CSHL.c **** * Global Variables:
ARM GAS  C:\Users\Terence\AppData\Local\Temp\cc6R4aDx.s 			page 22


 842:.\Generated_Source\PSoC4/CapSense_CSHL.c **** *  CapSense_noiseThreshold[] - This array contains the level of signal
 843:.\Generated_Source\PSoC4/CapSense_CSHL.c **** *  for each widget that determines the level of noise in the capacitive scan.
 844:.\Generated_Source\PSoC4/CapSense_CSHL.c **** *
 845:.\Generated_Source\PSoC4/CapSense_CSHL.c **** * Side Effects:
 846:.\Generated_Source\PSoC4/CapSense_CSHL.c **** *  None
 847:.\Generated_Source\PSoC4/CapSense_CSHL.c **** *
 848:.\Generated_Source\PSoC4/CapSense_CSHL.c **** *******************************************************************************/
 849:.\Generated_Source\PSoC4/CapSense_CSHL.c **** uint8 CapSense_GetNoiseThreshold(uint32 widget)
 850:.\Generated_Source\PSoC4/CapSense_CSHL.c **** {
 353              		.loc 1 850 0
 354              		.cfi_startproc
 355              	.LVL32:
 851:.\Generated_Source\PSoC4/CapSense_CSHL.c ****     return (CapSense_noiseThreshold[widget]);
 356              		.loc 1 851 0
 357 0000 014B     		ldr	r3, .L33
 358 0002 185C     		ldrb	r0, [r3, r0]
 359              	.LVL33:
 852:.\Generated_Source\PSoC4/CapSense_CSHL.c **** }
 360              		.loc 1 852 0
 361              		@ sp needed
 362 0004 7047     		bx	lr
 363              	.L34:
 364 0006 C046     		.align	2
 365              	.L33:
 366 0008 00000000 		.word	CapSense_noiseThreshold
 367              		.cfi_endproc
 368              	.LFE49:
 369              		.size	CapSense_GetNoiseThreshold, .-CapSense_GetNoiseThreshold
 370              		.section	.text.CapSense_GetFingerHysteresis,"ax",%progbits
 371              		.align	2
 372              		.global	CapSense_GetFingerHysteresis
 373              		.code	16
 374              		.thumb_func
 375              		.type	CapSense_GetFingerHysteresis, %function
 376              	CapSense_GetFingerHysteresis:
 377              	.LFB50:
 853:.\Generated_Source\PSoC4/CapSense_CSHL.c **** 
 854:.\Generated_Source\PSoC4/CapSense_CSHL.c **** 
 855:.\Generated_Source\PSoC4/CapSense_CSHL.c **** /*******************************************************************************
 856:.\Generated_Source\PSoC4/CapSense_CSHL.c **** * Function Name: CapSense_GetFingerHysteresis
 857:.\Generated_Source\PSoC4/CapSense_CSHL.c **** ********************************************************************************
 858:.\Generated_Source\PSoC4/CapSense_CSHL.c **** *
 859:.\Generated_Source\PSoC4/CapSense_CSHL.c **** * Summary:
 860:.\Generated_Source\PSoC4/CapSense_CSHL.c **** *  This function reads the Hysteresis value from the component.
 861:.\Generated_Source\PSoC4/CapSense_CSHL.c **** *
 862:.\Generated_Source\PSoC4/CapSense_CSHL.c **** * Parameters:
 863:.\Generated_Source\PSoC4/CapSense_CSHL.c **** *  widget:  widget number.
 864:.\Generated_Source\PSoC4/CapSense_CSHL.c **** *
 865:.\Generated_Source\PSoC4/CapSense_CSHL.c **** * Return:
 866:.\Generated_Source\PSoC4/CapSense_CSHL.c **** *  This API returns the Hysteresis of the widget indicated by the argument.
 867:.\Generated_Source\PSoC4/CapSense_CSHL.c **** *
 868:.\Generated_Source\PSoC4/CapSense_CSHL.c **** * Global Variables:
 869:.\Generated_Source\PSoC4/CapSense_CSHL.c **** *  CapSense_hysteresis[] - This array contains the hysteresis value
 870:.\Generated_Source\PSoC4/CapSense_CSHL.c **** *   for each widget.
 871:.\Generated_Source\PSoC4/CapSense_CSHL.c **** *  CapSense_widgetNumberSld - structure with dynamic sliders' parameters.
 872:.\Generated_Source\PSoC4/CapSense_CSHL.c **** *
 873:.\Generated_Source\PSoC4/CapSense_CSHL.c **** * Side Effects:
ARM GAS  C:\Users\Terence\AppData\Local\Temp\cc6R4aDx.s 			page 23


 874:.\Generated_Source\PSoC4/CapSense_CSHL.c **** *  None
 875:.\Generated_Source\PSoC4/CapSense_CSHL.c **** *
 876:.\Generated_Source\PSoC4/CapSense_CSHL.c **** *******************************************************************************/
 877:.\Generated_Source\PSoC4/CapSense_CSHL.c **** uint8 CapSense_GetFingerHysteresis(uint32 widget)
 878:.\Generated_Source\PSoC4/CapSense_CSHL.c **** {
 378              		.loc 1 878 0
 379              		.cfi_startproc
 380              	.LVL34:
 879:.\Generated_Source\PSoC4/CapSense_CSHL.c ****     return(CapSense_hysteresis[widget]);
 381              		.loc 1 879 0
 382 0000 014B     		ldr	r3, .L36
 383 0002 185C     		ldrb	r0, [r3, r0]
 384              	.LVL35:
 880:.\Generated_Source\PSoC4/CapSense_CSHL.c **** }
 385              		.loc 1 880 0
 386              		@ sp needed
 387 0004 7047     		bx	lr
 388              	.L37:
 389 0006 C046     		.align	2
 390              	.L36:
 391 0008 00000000 		.word	CapSense_hysteresis
 392              		.cfi_endproc
 393              	.LFE50:
 394              		.size	CapSense_GetFingerHysteresis, .-CapSense_GetFingerHysteresis
 395              		.section	.text.CapSense_GetNegativeNoiseThreshold,"ax",%progbits
 396              		.align	2
 397              		.global	CapSense_GetNegativeNoiseThreshold
 398              		.code	16
 399              		.thumb_func
 400              		.type	CapSense_GetNegativeNoiseThreshold, %function
 401              	CapSense_GetNegativeNoiseThreshold:
 402              	.LFB51:
 881:.\Generated_Source\PSoC4/CapSense_CSHL.c **** 
 882:.\Generated_Source\PSoC4/CapSense_CSHL.c **** 
 883:.\Generated_Source\PSoC4/CapSense_CSHL.c **** /*******************************************************************************
 884:.\Generated_Source\PSoC4/CapSense_CSHL.c **** * Function Name: CapSense_GetNegativeNoiseThreshold
 885:.\Generated_Source\PSoC4/CapSense_CSHL.c **** ********************************************************************************
 886:.\Generated_Source\PSoC4/CapSense_CSHL.c **** *
 887:.\Generated_Source\PSoC4/CapSense_CSHL.c **** * Summary:
 888:.\Generated_Source\PSoC4/CapSense_CSHL.c **** *  This function reads the negative noise threshold from the component.
 889:.\Generated_Source\PSoC4/CapSense_CSHL.c **** *
 890:.\Generated_Source\PSoC4/CapSense_CSHL.c **** * Parameters:
 891:.\Generated_Source\PSoC4/CapSense_CSHL.c **** *  None.
 892:.\Generated_Source\PSoC4/CapSense_CSHL.c **** *
 893:.\Generated_Source\PSoC4/CapSense_CSHL.c **** * Return Value:
 894:.\Generated_Source\PSoC4/CapSense_CSHL.c **** *  This API returns the negative noise threshold
 895:.\Generated_Source\PSoC4/CapSense_CSHL.c **** *
 896:.\Generated_Source\PSoC4/CapSense_CSHL.c **** * Global Variables:
 897:.\Generated_Source\PSoC4/CapSense_CSHL.c **** *  CapSense_negativeNoiseThreshold - This variable specifies the negative
 898:.\Generated_Source\PSoC4/CapSense_CSHL.c **** *   difference between the raw count and baseline levels for Baseline resetting
 899:.\Generated_Source\PSoC4/CapSense_CSHL.c **** *   to the raw count level.
 900:.\Generated_Source\PSoC4/CapSense_CSHL.c **** *
 901:.\Generated_Source\PSoC4/CapSense_CSHL.c **** * Side Effects:
 902:.\Generated_Source\PSoC4/CapSense_CSHL.c **** *  None
 903:.\Generated_Source\PSoC4/CapSense_CSHL.c **** *
 904:.\Generated_Source\PSoC4/CapSense_CSHL.c **** *******************************************************************************/
 905:.\Generated_Source\PSoC4/CapSense_CSHL.c **** uint8 CapSense_GetNegativeNoiseThreshold(uint32 widget)
ARM GAS  C:\Users\Terence\AppData\Local\Temp\cc6R4aDx.s 			page 24


 906:.\Generated_Source\PSoC4/CapSense_CSHL.c **** {
 403              		.loc 1 906 0
 404              		.cfi_startproc
 405              	.LVL36:
 907:.\Generated_Source\PSoC4/CapSense_CSHL.c **** #if (CapSense_TUNING_METHOD != CapSense__TUNING_NONE)
 908:.\Generated_Source\PSoC4/CapSense_CSHL.c ****     return(CapSense_negativeNoiseThreshold[widget]);
 406              		.loc 1 908 0
 407 0000 014B     		ldr	r3, .L39
 408 0002 185C     		ldrb	r0, [r3, r0]
 409              	.LVL37:
 909:.\Generated_Source\PSoC4/CapSense_CSHL.c **** #else
 910:.\Generated_Source\PSoC4/CapSense_CSHL.c ****     return(CapSense_NEGATIVE_NOISE_THRESHOLD);
 911:.\Generated_Source\PSoC4/CapSense_CSHL.c **** #endif /* (CapSense_TUNING_METHOD != CapSense__TUNING_NONE) */
 912:.\Generated_Source\PSoC4/CapSense_CSHL.c **** }
 410              		.loc 1 912 0
 411              		@ sp needed
 412 0004 7047     		bx	lr
 413              	.L40:
 414 0006 C046     		.align	2
 415              	.L39:
 416 0008 00000000 		.word	CapSense_negativeNoiseThreshold
 417              		.cfi_endproc
 418              	.LFE51:
 419              		.size	CapSense_GetNegativeNoiseThreshold, .-CapSense_GetNegativeNoiseThreshold
 420              		.section	.text.CapSense_SetFingerThreshold,"ax",%progbits
 421              		.align	2
 422              		.global	CapSense_SetFingerThreshold
 423              		.code	16
 424              		.thumb_func
 425              		.type	CapSense_SetFingerThreshold, %function
 426              	CapSense_SetFingerThreshold:
 427              	.LFB52:
 913:.\Generated_Source\PSoC4/CapSense_CSHL.c **** 
 914:.\Generated_Source\PSoC4/CapSense_CSHL.c **** 
 915:.\Generated_Source\PSoC4/CapSense_CSHL.c **** #if(CapSense_TUNING_METHOD != CapSense__TUNING_NONE)
 916:.\Generated_Source\PSoC4/CapSense_CSHL.c ****     /*******************************************************************************
 917:.\Generated_Source\PSoC4/CapSense_CSHL.c ****     * Function Name: CapSense_SetFingerThreshold
 918:.\Generated_Source\PSoC4/CapSense_CSHL.c ****     ********************************************************************************
 919:.\Generated_Source\PSoC4/CapSense_CSHL.c ****     *
 920:.\Generated_Source\PSoC4/CapSense_CSHL.c ****     * Summary:
 921:.\Generated_Source\PSoC4/CapSense_CSHL.c ****     *  This API sets the finger threshold value for a widget.
 922:.\Generated_Source\PSoC4/CapSense_CSHL.c ****     *
 923:.\Generated_Source\PSoC4/CapSense_CSHL.c ****     * Parameters:
 924:.\Generated_Source\PSoC4/CapSense_CSHL.c ****     *  sensorNumber:  widget index.
 925:.\Generated_Source\PSoC4/CapSense_CSHL.c ****     *  value:  Finger threshold value for the widget.
 926:.\Generated_Source\PSoC4/CapSense_CSHL.c ****     *
 927:.\Generated_Source\PSoC4/CapSense_CSHL.c ****     * Return Value:
 928:.\Generated_Source\PSoC4/CapSense_CSHL.c ****     *  None
 929:.\Generated_Source\PSoC4/CapSense_CSHL.c ****     *
 930:.\Generated_Source\PSoC4/CapSense_CSHL.c ****     * Global Variables:
 931:.\Generated_Source\PSoC4/CapSense_CSHL.c ****     *  CapSense_fingerThreshold[] - This array contains the level of signal
 932:.\Generated_Source\PSoC4/CapSense_CSHL.c ****     *   for each widget that determines if a finger is present on the widget.
 933:.\Generated_Source\PSoC4/CapSense_CSHL.c ****     *
 934:.\Generated_Source\PSoC4/CapSense_CSHL.c ****     * Side Effects:
 935:.\Generated_Source\PSoC4/CapSense_CSHL.c ****     *  None
 936:.\Generated_Source\PSoC4/CapSense_CSHL.c ****     *
 937:.\Generated_Source\PSoC4/CapSense_CSHL.c ****     *******************************************************************************/
ARM GAS  C:\Users\Terence\AppData\Local\Temp\cc6R4aDx.s 			page 25


 938:.\Generated_Source\PSoC4/CapSense_CSHL.c ****     void CapSense_SetFingerThreshold(uint32 widget, uint8 value)
 939:.\Generated_Source\PSoC4/CapSense_CSHL.c ****     {
 428              		.loc 1 939 0
 429              		.cfi_startproc
 430              	.LVL38:
 940:.\Generated_Source\PSoC4/CapSense_CSHL.c ****         CapSense_fingerThreshold[widget] = value;
 431              		.loc 1 940 0
 432 0000 014B     		ldr	r3, .L42
 433 0002 1818     		add	r0, r3, r0
 434              	.LVL39:
 435 0004 0172     		strb	r1, [r0, #8]
 941:.\Generated_Source\PSoC4/CapSense_CSHL.c ****     }
 436              		.loc 1 941 0
 437              		@ sp needed
 438 0006 7047     		bx	lr
 439              	.L43:
 440              		.align	2
 441              	.L42:
 442 0008 00000000 		.word	.LANCHOR1
 443              		.cfi_endproc
 444              	.LFE52:
 445              		.size	CapSense_SetFingerThreshold, .-CapSense_SetFingerThreshold
 446              		.section	.text.CapSense_SetNoiseThreshold,"ax",%progbits
 447              		.align	2
 448              		.global	CapSense_SetNoiseThreshold
 449              		.code	16
 450              		.thumb_func
 451              		.type	CapSense_SetNoiseThreshold, %function
 452              	CapSense_SetNoiseThreshold:
 453              	.LFB53:
 942:.\Generated_Source\PSoC4/CapSense_CSHL.c **** 
 943:.\Generated_Source\PSoC4/CapSense_CSHL.c **** 
 944:.\Generated_Source\PSoC4/CapSense_CSHL.c ****     /*******************************************************************************
 945:.\Generated_Source\PSoC4/CapSense_CSHL.c ****     * Function Name: CapSense_SetNoiseThreshold
 946:.\Generated_Source\PSoC4/CapSense_CSHL.c ****     ********************************************************************************
 947:.\Generated_Source\PSoC4/CapSense_CSHL.c ****     *
 948:.\Generated_Source\PSoC4/CapSense_CSHL.c ****     * Summary:
 949:.\Generated_Source\PSoC4/CapSense_CSHL.c ****     *  This API sets the Noise Threshold value for each widget.
 950:.\Generated_Source\PSoC4/CapSense_CSHL.c ****     *
 951:.\Generated_Source\PSoC4/CapSense_CSHL.c ****     * Parameters:
 952:.\Generated_Source\PSoC4/CapSense_CSHL.c ****     *  widget:  Sensor index number.
 953:.\Generated_Source\PSoC4/CapSense_CSHL.c ****     *  value:   Noise Threshold value for widget.
 954:.\Generated_Source\PSoC4/CapSense_CSHL.c ****     *
 955:.\Generated_Source\PSoC4/CapSense_CSHL.c ****     * Return Value:
 956:.\Generated_Source\PSoC4/CapSense_CSHL.c ****     *  None
 957:.\Generated_Source\PSoC4/CapSense_CSHL.c ****     *
 958:.\Generated_Source\PSoC4/CapSense_CSHL.c ****     * Global Variables:
 959:.\Generated_Source\PSoC4/CapSense_CSHL.c ****     *  CapSense_noiseThreshold[] - This array contains the level of signal
 960:.\Generated_Source\PSoC4/CapSense_CSHL.c ****     *   for each widget that determines the level of noise in the capacitive scan.
 961:.\Generated_Source\PSoC4/CapSense_CSHL.c ****     *
 962:.\Generated_Source\PSoC4/CapSense_CSHL.c ****     * Side Effects:
 963:.\Generated_Source\PSoC4/CapSense_CSHL.c ****     *  None
 964:.\Generated_Source\PSoC4/CapSense_CSHL.c ****     *
 965:.\Generated_Source\PSoC4/CapSense_CSHL.c ****     *******************************************************************************/
 966:.\Generated_Source\PSoC4/CapSense_CSHL.c ****     void CapSense_SetNoiseThreshold(uint32 widget, uint8 value)
 967:.\Generated_Source\PSoC4/CapSense_CSHL.c ****     {
 454              		.loc 1 967 0
ARM GAS  C:\Users\Terence\AppData\Local\Temp\cc6R4aDx.s 			page 26


 455              		.cfi_startproc
 456              	.LVL40:
 968:.\Generated_Source\PSoC4/CapSense_CSHL.c ****         CapSense_noiseThreshold[widget] = value;
 457              		.loc 1 968 0
 458 0000 014B     		ldr	r3, .L45
 459 0002 1954     		strb	r1, [r3, r0]
 969:.\Generated_Source\PSoC4/CapSense_CSHL.c ****     }
 460              		.loc 1 969 0
 461              		@ sp needed
 462 0004 7047     		bx	lr
 463              	.L46:
 464 0006 C046     		.align	2
 465              	.L45:
 466 0008 00000000 		.word	CapSense_noiseThreshold
 467              		.cfi_endproc
 468              	.LFE53:
 469              		.size	CapSense_SetNoiseThreshold, .-CapSense_SetNoiseThreshold
 470              		.section	.text.CapSense_SetFingerHysteresis,"ax",%progbits
 471              		.align	2
 472              		.global	CapSense_SetFingerHysteresis
 473              		.code	16
 474              		.thumb_func
 475              		.type	CapSense_SetFingerHysteresis, %function
 476              	CapSense_SetFingerHysteresis:
 477              	.LFB54:
 970:.\Generated_Source\PSoC4/CapSense_CSHL.c **** 
 971:.\Generated_Source\PSoC4/CapSense_CSHL.c **** 
 972:.\Generated_Source\PSoC4/CapSense_CSHL.c ****     /*******************************************************************************
 973:.\Generated_Source\PSoC4/CapSense_CSHL.c ****     * Function Name: CapSense_SetFingerHysteresis
 974:.\Generated_Source\PSoC4/CapSense_CSHL.c ****     ********************************************************************************
 975:.\Generated_Source\PSoC4/CapSense_CSHL.c ****     *
 976:.\Generated_Source\PSoC4/CapSense_CSHL.c ****     * Summary:
 977:.\Generated_Source\PSoC4/CapSense_CSHL.c ****     *  This API sets the Hysteresis value of a widget
 978:.\Generated_Source\PSoC4/CapSense_CSHL.c ****     *
 979:.\Generated_Source\PSoC4/CapSense_CSHL.c ****     * Parameters:
 980:.\Generated_Source\PSoC4/CapSense_CSHL.c ****     *  value:  Hysteresis value for widgets.
 981:.\Generated_Source\PSoC4/CapSense_CSHL.c ****     *  widget:  widget number
 982:.\Generated_Source\PSoC4/CapSense_CSHL.c ****     *
 983:.\Generated_Source\PSoC4/CapSense_CSHL.c ****     * Return Value:
 984:.\Generated_Source\PSoC4/CapSense_CSHL.c ****     *  None
 985:.\Generated_Source\PSoC4/CapSense_CSHL.c ****     *
 986:.\Generated_Source\PSoC4/CapSense_CSHL.c ****     * Global Variables:
 987:.\Generated_Source\PSoC4/CapSense_CSHL.c ****     *  CapSense_hysteresis[] - This array contains the hysteresis value for each widget.
 988:.\Generated_Source\PSoC4/CapSense_CSHL.c ****     *  CapSense_widgetNumberSld - structure with dynamic sliders' parameters.
 989:.\Generated_Source\PSoC4/CapSense_CSHL.c ****     *
 990:.\Generated_Source\PSoC4/CapSense_CSHL.c ****     * Side Effects:
 991:.\Generated_Source\PSoC4/CapSense_CSHL.c ****     *  None
 992:.\Generated_Source\PSoC4/CapSense_CSHL.c ****     *
 993:.\Generated_Source\PSoC4/CapSense_CSHL.c ****     *******************************************************************************/
 994:.\Generated_Source\PSoC4/CapSense_CSHL.c ****     void CapSense_SetFingerHysteresis(uint32 widget, uint8 value)
 995:.\Generated_Source\PSoC4/CapSense_CSHL.c ****     {
 478              		.loc 1 995 0
 479              		.cfi_startproc
 480              	.LVL41:
 996:.\Generated_Source\PSoC4/CapSense_CSHL.c ****         CapSense_hysteresis[widget] = value;
 481              		.loc 1 996 0
 482 0000 014B     		ldr	r3, .L48
ARM GAS  C:\Users\Terence\AppData\Local\Temp\cc6R4aDx.s 			page 27


 483 0002 1954     		strb	r1, [r3, r0]
 997:.\Generated_Source\PSoC4/CapSense_CSHL.c ****     }
 484              		.loc 1 997 0
 485              		@ sp needed
 486 0004 7047     		bx	lr
 487              	.L49:
 488 0006 C046     		.align	2
 489              	.L48:
 490 0008 00000000 		.word	CapSense_hysteresis
 491              		.cfi_endproc
 492              	.LFE54:
 493              		.size	CapSense_SetFingerHysteresis, .-CapSense_SetFingerHysteresis
 494              		.section	.text.CapSense_SetNegativeNoiseThreshold,"ax",%progbits
 495              		.align	2
 496              		.global	CapSense_SetNegativeNoiseThreshold
 497              		.code	16
 498              		.thumb_func
 499              		.type	CapSense_SetNegativeNoiseThreshold, %function
 500              	CapSense_SetNegativeNoiseThreshold:
 501              	.LFB55:
 998:.\Generated_Source\PSoC4/CapSense_CSHL.c **** 
 999:.\Generated_Source\PSoC4/CapSense_CSHL.c **** 
1000:.\Generated_Source\PSoC4/CapSense_CSHL.c ****     /*******************************************************************************
1001:.\Generated_Source\PSoC4/CapSense_CSHL.c ****     * Function Name: CapSense_SetNegativeNoiseThreshold
1002:.\Generated_Source\PSoC4/CapSense_CSHL.c ****     ********************************************************************************
1003:.\Generated_Source\PSoC4/CapSense_CSHL.c ****     *
1004:.\Generated_Source\PSoC4/CapSense_CSHL.c ****     * Summary:
1005:.\Generated_Source\PSoC4/CapSense_CSHL.c ****     *  This API sets the Negative Noise Threshold value of a widget
1006:.\Generated_Source\PSoC4/CapSense_CSHL.c ****     *
1007:.\Generated_Source\PSoC4/CapSense_CSHL.c ****     * Parameters:
1008:.\Generated_Source\PSoC4/CapSense_CSHL.c ****     *  value:  Negative Noise Threshold value for widgets.
1009:.\Generated_Source\PSoC4/CapSense_CSHL.c ****     *  widget: widget number
1010:.\Generated_Source\PSoC4/CapSense_CSHL.c ****     *
1011:.\Generated_Source\PSoC4/CapSense_CSHL.c ****     * Return Value:
1012:.\Generated_Source\PSoC4/CapSense_CSHL.c ****     *  None
1013:.\Generated_Source\PSoC4/CapSense_CSHL.c ****     *
1014:.\Generated_Source\PSoC4/CapSense_CSHL.c ****     * Global Variables:
1015:.\Generated_Source\PSoC4/CapSense_CSHL.c ****     *  CapSense_negativeNoiseThreshold  - This parameter specifies the negative
1016:.\Generated_Source\PSoC4/CapSense_CSHL.c ****     *   difference between the raw count and baseline levels for Baseline resetting to
1017:.\Generated_Source\PSoC4/CapSense_CSHL.c ****     *   the raw count level.
1018:.\Generated_Source\PSoC4/CapSense_CSHL.c ****     *
1019:.\Generated_Source\PSoC4/CapSense_CSHL.c ****     * Side Effects:
1020:.\Generated_Source\PSoC4/CapSense_CSHL.c ****     *  None
1021:.\Generated_Source\PSoC4/CapSense_CSHL.c ****     *
1022:.\Generated_Source\PSoC4/CapSense_CSHL.c ****     *******************************************************************************/
1023:.\Generated_Source\PSoC4/CapSense_CSHL.c ****     void CapSense_SetNegativeNoiseThreshold(uint32 widget, uint8 value)
1024:.\Generated_Source\PSoC4/CapSense_CSHL.c ****     {
 502              		.loc 1 1024 0
 503              		.cfi_startproc
 504              	.LVL42:
1025:.\Generated_Source\PSoC4/CapSense_CSHL.c ****         CapSense_negativeNoiseThreshold[widget] = value;
 505              		.loc 1 1025 0
 506 0000 014B     		ldr	r3, .L51
 507 0002 1954     		strb	r1, [r3, r0]
1026:.\Generated_Source\PSoC4/CapSense_CSHL.c ****     }
 508              		.loc 1 1026 0
 509              		@ sp needed
ARM GAS  C:\Users\Terence\AppData\Local\Temp\cc6R4aDx.s 			page 28


 510 0004 7047     		bx	lr
 511              	.L52:
 512 0006 C046     		.align	2
 513              	.L51:
 514 0008 00000000 		.word	CapSense_negativeNoiseThreshold
 515              		.cfi_endproc
 516              	.LFE55:
 517              		.size	CapSense_SetNegativeNoiseThreshold, .-CapSense_SetNegativeNoiseThreshold
 518              		.section	.text.CapSense_SetDebounce,"ax",%progbits
 519              		.align	2
 520              		.global	CapSense_SetDebounce
 521              		.code	16
 522              		.thumb_func
 523              		.type	CapSense_SetDebounce, %function
 524              	CapSense_SetDebounce:
 525              	.LFB56:
1027:.\Generated_Source\PSoC4/CapSense_CSHL.c **** 
1028:.\Generated_Source\PSoC4/CapSense_CSHL.c **** 
1029:.\Generated_Source\PSoC4/CapSense_CSHL.c ****     /*******************************************************************************
1030:.\Generated_Source\PSoC4/CapSense_CSHL.c ****     * Function Name: CapSense_SetDebounce
1031:.\Generated_Source\PSoC4/CapSense_CSHL.c ****     ********************************************************************************
1032:.\Generated_Source\PSoC4/CapSense_CSHL.c ****     *
1033:.\Generated_Source\PSoC4/CapSense_CSHL.c ****     * Summary:
1034:.\Generated_Source\PSoC4/CapSense_CSHL.c ****     *  This API sets the debounce value for a widget.
1035:.\Generated_Source\PSoC4/CapSense_CSHL.c ****     *
1036:.\Generated_Source\PSoC4/CapSense_CSHL.c ****     * Parameters:
1037:.\Generated_Source\PSoC4/CapSense_CSHL.c ****     *  value:  Debounce value for widget.
1038:.\Generated_Source\PSoC4/CapSense_CSHL.c ****     *  widget: widget index.
1039:.\Generated_Source\PSoC4/CapSense_CSHL.c ****     *
1040:.\Generated_Source\PSoC4/CapSense_CSHL.c ****     * Return Value:
1041:.\Generated_Source\PSoC4/CapSense_CSHL.c ****     *  None
1042:.\Generated_Source\PSoC4/CapSense_CSHL.c ****     *
1043:.\Generated_Source\PSoC4/CapSense_CSHL.c ****     * Global Variables:
1044:.\Generated_Source\PSoC4/CapSense_CSHL.c ****     *  CapSense_debounce[] - This array contains the debounce value for each widget.
1045:.\Generated_Source\PSoC4/CapSense_CSHL.c ****     *  CapSense_widgetNumberSld - structure with dynamic sliders' parameters.
1046:.\Generated_Source\PSoC4/CapSense_CSHL.c ****     *
1047:.\Generated_Source\PSoC4/CapSense_CSHL.c ****     * Side Effects:
1048:.\Generated_Source\PSoC4/CapSense_CSHL.c ****     *  None
1049:.\Generated_Source\PSoC4/CapSense_CSHL.c ****     *
1050:.\Generated_Source\PSoC4/CapSense_CSHL.c ****     *******************************************************************************/
1051:.\Generated_Source\PSoC4/CapSense_CSHL.c ****     void CapSense_SetDebounce(uint32 widget, uint8 value)
1052:.\Generated_Source\PSoC4/CapSense_CSHL.c ****     {
 526              		.loc 1 1052 0
 527              		.cfi_startproc
 528              	.LVL43:
1053:.\Generated_Source\PSoC4/CapSense_CSHL.c ****         CapSense_debounce[widget] = value;
 529              		.loc 1 1053 0
 530 0000 014B     		ldr	r3, .L54
 531 0002 1954     		strb	r1, [r3, r0]
1054:.\Generated_Source\PSoC4/CapSense_CSHL.c ****     }
 532              		.loc 1 1054 0
 533              		@ sp needed
 534 0004 7047     		bx	lr
 535              	.L55:
 536 0006 C046     		.align	2
 537              	.L54:
 538 0008 00000000 		.word	.LANCHOR1
ARM GAS  C:\Users\Terence\AppData\Local\Temp\cc6R4aDx.s 			page 29


 539              		.cfi_endproc
 540              	.LFE56:
 541              		.size	CapSense_SetDebounce, .-CapSense_SetDebounce
 542              		.section	.text.CapSense_SetLowBaselineReset,"ax",%progbits
 543              		.align	2
 544              		.global	CapSense_SetLowBaselineReset
 545              		.code	16
 546              		.thumb_func
 547              		.type	CapSense_SetLowBaselineReset, %function
 548              	CapSense_SetLowBaselineReset:
 549              	.LFB57:
1055:.\Generated_Source\PSoC4/CapSense_CSHL.c **** 
1056:.\Generated_Source\PSoC4/CapSense_CSHL.c **** 
1057:.\Generated_Source\PSoC4/CapSense_CSHL.c ****     /*******************************************************************************
1058:.\Generated_Source\PSoC4/CapSense_CSHL.c ****     * Function Name: CapSense_SetLowBaselineReset
1059:.\Generated_Source\PSoC4/CapSense_CSHL.c ****     ********************************************************************************
1060:.\Generated_Source\PSoC4/CapSense_CSHL.c ****     *
1061:.\Generated_Source\PSoC4/CapSense_CSHL.c ****     * Summary:
1062:.\Generated_Source\PSoC4/CapSense_CSHL.c ****     *  This API sets the low baseline reset threshold value for the sensor.
1063:.\Generated_Source\PSoC4/CapSense_CSHL.c ****     *
1064:.\Generated_Source\PSoC4/CapSense_CSHL.c ****     * Parameters:
1065:.\Generated_Source\PSoC4/CapSense_CSHL.c ****     *  value: low baseline reset threshold value.
1066:.\Generated_Source\PSoC4/CapSense_CSHL.c ****     *  sensor: Sensor index.
1067:.\Generated_Source\PSoC4/CapSense_CSHL.c ****     *
1068:.\Generated_Source\PSoC4/CapSense_CSHL.c ****     * Return Value:
1069:.\Generated_Source\PSoC4/CapSense_CSHL.c ****     *  None
1070:.\Generated_Source\PSoC4/CapSense_CSHL.c ****     *
1071:.\Generated_Source\PSoC4/CapSense_CSHL.c ****     * Global Variables:
1072:.\Generated_Source\PSoC4/CapSense_CSHL.c ****     *  CapSense_lowBaselineReset[] - This array contains the Baseline update
1073:.\Generated_Source\PSoC4/CapSense_CSHL.c ****     *  threshold value for each sensor.
1074:.\Generated_Source\PSoC4/CapSense_CSHL.c ****     *
1075:.\Generated_Source\PSoC4/CapSense_CSHL.c ****     * Side Effects:
1076:.\Generated_Source\PSoC4/CapSense_CSHL.c ****     *  None
1077:.\Generated_Source\PSoC4/CapSense_CSHL.c ****     *
1078:.\Generated_Source\PSoC4/CapSense_CSHL.c ****     *******************************************************************************/
1079:.\Generated_Source\PSoC4/CapSense_CSHL.c ****     void CapSense_SetLowBaselineReset(uint32 sensor, uint8 value)
1080:.\Generated_Source\PSoC4/CapSense_CSHL.c ****     {
 550              		.loc 1 1080 0
 551              		.cfi_startproc
 552              	.LVL44:
1081:.\Generated_Source\PSoC4/CapSense_CSHL.c ****         CapSense_lowBaselineReset[sensor] = value;
 553              		.loc 1 1081 0
 554 0000 014B     		ldr	r3, .L57
 555 0002 1818     		add	r0, r3, r0
 556              	.LVL45:
 557 0004 0174     		strb	r1, [r0, #16]
1082:.\Generated_Source\PSoC4/CapSense_CSHL.c ****     }
 558              		.loc 1 1082 0
 559              		@ sp needed
 560 0006 7047     		bx	lr
 561              	.L58:
 562              		.align	2
 563              	.L57:
 564 0008 00000000 		.word	.LANCHOR1
 565              		.cfi_endproc
 566              	.LFE57:
 567              		.size	CapSense_SetLowBaselineReset, .-CapSense_SetLowBaselineReset
ARM GAS  C:\Users\Terence\AppData\Local\Temp\cc6R4aDx.s 			page 30


 568              		.section	.text.CapSense_CheckIsSensorActive,"ax",%progbits
 569              		.align	2
 570              		.global	CapSense_CheckIsSensorActive
 571              		.code	16
 572              		.thumb_func
 573              		.type	CapSense_CheckIsSensorActive, %function
 574              	CapSense_CheckIsSensorActive:
 575              	.LFB58:
1083:.\Generated_Source\PSoC4/CapSense_CSHL.c **** #endif /* (CapSense_TUNING_METHOD != CapSense__TUNING_NONE) */
1084:.\Generated_Source\PSoC4/CapSense_CSHL.c **** 
1085:.\Generated_Source\PSoC4/CapSense_CSHL.c **** 
1086:.\Generated_Source\PSoC4/CapSense_CSHL.c **** /*******************************************************************************
1087:.\Generated_Source\PSoC4/CapSense_CSHL.c **** * Function Name: CapSense_CheckIsSensorActive
1088:.\Generated_Source\PSoC4/CapSense_CSHL.c **** ********************************************************************************
1089:.\Generated_Source\PSoC4/CapSense_CSHL.c **** *
1090:.\Generated_Source\PSoC4/CapSense_CSHL.c **** * Summary:
1091:.\Generated_Source\PSoC4/CapSense_CSHL.c **** *  Compares the CapSense_sensorSignal[sensor] array element to the finger
1092:.\Generated_Source\PSoC4/CapSense_CSHL.c **** *  threshold of the widget it belongs to. The hysteresis and debounce are taken into
1093:.\Generated_Source\PSoC4/CapSense_CSHL.c **** *  account. The hysteresis is added or subtracted from the finger threshold
1094:.\Generated_Source\PSoC4/CapSense_CSHL.c **** *  based on whether the sensor is currently active.
1095:.\Generated_Source\PSoC4/CapSense_CSHL.c **** *  If the sensor is active, the threshold is lowered by the hysteresis amount.
1096:.\Generated_Source\PSoC4/CapSense_CSHL.c **** *  If the sensor is inactive, the threshold is raised by the hysteresis amount.
1097:.\Generated_Source\PSoC4/CapSense_CSHL.c **** *  The debounce counter is added to the sensor active transition.
1098:.\Generated_Source\PSoC4/CapSense_CSHL.c **** *  This function updates the CapSense_sensorOnMask[] array element.
1099:.\Generated_Source\PSoC4/CapSense_CSHL.c **** *
1100:.\Generated_Source\PSoC4/CapSense_CSHL.c **** * Parameters:
1101:.\Generated_Source\PSoC4/CapSense_CSHL.c **** *  sensor:  Sensor number.
1102:.\Generated_Source\PSoC4/CapSense_CSHL.c **** *
1103:.\Generated_Source\PSoC4/CapSense_CSHL.c **** * Return:
1104:.\Generated_Source\PSoC4/CapSense_CSHL.c **** *  Returns sensor state 1 if active, 0 if not active.
1105:.\Generated_Source\PSoC4/CapSense_CSHL.c **** *
1106:.\Generated_Source\PSoC4/CapSense_CSHL.c **** * Global Variables:
1107:.\Generated_Source\PSoC4/CapSense_CSHL.c **** *  CapSense_sensorSignal[] - used to store the difference between
1108:.\Generated_Source\PSoC4/CapSense_CSHL.c **** *  the current value of raw data and a previous value of the baseline.
1109:.\Generated_Source\PSoC4/CapSense_CSHL.c **** *  CapSense_debounceCounter[]   - used to store the current debounce
1110:.\Generated_Source\PSoC4/CapSense_CSHL.c **** *  counter of the sensor. the widget which have this parameter are buttons, matrix
1111:.\Generated_Source\PSoC4/CapSense_CSHL.c **** *  buttons, proximity, and guard. All other widgets don't have the  debounce parameter
1112:.\Generated_Source\PSoC4/CapSense_CSHL.c **** *  and use the last element of this array with value 0 (it means no debounce).
1113:.\Generated_Source\PSoC4/CapSense_CSHL.c **** *  CapSense_sensorOnMask[] - used to store the sensors on/off state.
1114:.\Generated_Source\PSoC4/CapSense_CSHL.c **** *  CapSense_sensorOnMask[0] contains the masked bits for sensors
1115:.\Generated_Source\PSoC4/CapSense_CSHL.c **** *   0 through 7 (sensor 0 is bit 0, sensor 1 is bit 1).
1116:.\Generated_Source\PSoC4/CapSense_CSHL.c **** *  CapSense_sensorEnableMask[1] contains the masked bits for
1117:.\Generated_Source\PSoC4/CapSense_CSHL.c **** *  sensors 8 through 15 (if needed), and so on.
1118:.\Generated_Source\PSoC4/CapSense_CSHL.c **** *  0 - sensor is inactive.
1119:.\Generated_Source\PSoC4/CapSense_CSHL.c **** *  1 - sensor is active.
1120:.\Generated_Source\PSoC4/CapSense_CSHL.c **** *
1121:.\Generated_Source\PSoC4/CapSense_CSHL.c **** * Side Effects:
1122:.\Generated_Source\PSoC4/CapSense_CSHL.c **** *  None
1123:.\Generated_Source\PSoC4/CapSense_CSHL.c **** *
1124:.\Generated_Source\PSoC4/CapSense_CSHL.c **** *******************************************************************************/
1125:.\Generated_Source\PSoC4/CapSense_CSHL.c **** uint32 CapSense_CheckIsSensorActive(uint32 sensor)
1126:.\Generated_Source\PSoC4/CapSense_CSHL.c **** {
 576              		.loc 1 1126 0
 577              		.cfi_startproc
 578              	.LVL46:
 579 0000 F0B5     		push	{r4, r5, r6, r7, lr}
 580              		.cfi_def_cfa_offset 20
ARM GAS  C:\Users\Terence\AppData\Local\Temp\cc6R4aDx.s 			page 31


 581              		.cfi_offset 4, -20
 582              		.cfi_offset 5, -16
 583              		.cfi_offset 6, -12
 584              		.cfi_offset 7, -8
 585              		.cfi_offset 14, -4
 586 0002 4746     		mov	r7, r8
 587 0004 80B4     		push	{r7}
 588              		.cfi_def_cfa_offset 24
 589              		.cfi_offset 8, -24
 590 0006 051C     		mov	r5, r0
1127:.\Generated_Source\PSoC4/CapSense_CSHL.c ****     uint8 widget;
1128:.\Generated_Source\PSoC4/CapSense_CSHL.c ****     uint8 debounce;
1129:.\Generated_Source\PSoC4/CapSense_CSHL.c ****     uint8 debounceIndex;
1130:.\Generated_Source\PSoC4/CapSense_CSHL.c **** 
1131:.\Generated_Source\PSoC4/CapSense_CSHL.c ****     uint8 fingerThreshold;
1132:.\Generated_Source\PSoC4/CapSense_CSHL.c ****     uint8 hysteresis;
1133:.\Generated_Source\PSoC4/CapSense_CSHL.c ****     
1134:.\Generated_Source\PSoC4/CapSense_CSHL.c **** 
1135:.\Generated_Source\PSoC4/CapSense_CSHL.c ****     /* Prepare to find debounce counter index */
1136:.\Generated_Source\PSoC4/CapSense_CSHL.c ****     widget = CapSense_widgetNumber[sensor];
 591              		.loc 1 1136 0
 592 0008 274B     		ldr	r3, .L66
 593 000a 1B5C     		ldrb	r3, [r3, r0]
 594              	.LVL47:
1137:.\Generated_Source\PSoC4/CapSense_CSHL.c **** 
1138:.\Generated_Source\PSoC4/CapSense_CSHL.c ****     fingerThreshold = CapSense_fingerThreshold[widget];
 595              		.loc 1 1138 0
 596 000c 274A     		ldr	r2, .L66+4
 597 000e D118     		add	r1, r2, r3
 598 0010 0F7A     		ldrb	r7, [r1, #8]
 599              	.LVL48:
1139:.\Generated_Source\PSoC4/CapSense_CSHL.c ****     hysteresis = CapSense_hysteresis[widget];
 600              		.loc 1 1139 0
 601 0012 2749     		ldr	r1, .L66+8
 602 0014 CE5C     		ldrb	r6, [r1, r3]
 603              	.LVL49:
1140:.\Generated_Source\PSoC4/CapSense_CSHL.c ****     debounce = CapSense_debounce[widget];
 604              		.loc 1 1140 0
 605 0016 D25C     		ldrb	r2, [r2, r3]
 606 0018 9046     		mov	r8, r2
 607              	.LVL50:
1141:.\Generated_Source\PSoC4/CapSense_CSHL.c **** 
1142:.\Generated_Source\PSoC4/CapSense_CSHL.c ****         if (widget < CapSense_TOTAL_CENTROIDS_COUNT)
 608              		.loc 1 1142 0
 609 001a 002B     		cmp	r3, #0
 610 001c 05D1     		bne	.L60
 611              	.LVL51:
1143:.\Generated_Source\PSoC4/CapSense_CSHL.c ****     {
1144:.\Generated_Source\PSoC4/CapSense_CSHL.c ****         debounceIndex = CapSense_UNUSED_DEBOUNCE_COUNTER_INDEX;
1145:.\Generated_Source\PSoC4/CapSense_CSHL.c ****         CapSense_debounceCounter[debounceIndex] = 1u;
 612              		.loc 1 1145 0
 613 001e 0122     		mov	r2, #1
 614 0020 244B     		ldr	r3, .L66+12
 615              	.LVL52:
 616 0022 3C33     		add	r3, r3, #60
 617 0024 5A71     		strb	r2, [r3, #5]
1144:.\Generated_Source\PSoC4/CapSense_CSHL.c ****         CapSense_debounceCounter[debounceIndex] = 1u;
ARM GAS  C:\Users\Terence\AppData\Local\Temp\cc6R4aDx.s 			page 32


 618              		.loc 1 1144 0
 619 0026 0524     		mov	r4, #5
 620 0028 01E0     		b	.L61
 621              	.LVL53:
 622              	.L60:
1146:.\Generated_Source\PSoC4/CapSense_CSHL.c ****     }
1147:.\Generated_Source\PSoC4/CapSense_CSHL.c ****     else
1148:.\Generated_Source\PSoC4/CapSense_CSHL.c ****     {
1149:.\Generated_Source\PSoC4/CapSense_CSHL.c ****         debounceIndex = widget - (CapSense_END_OF_TOUCH_PAD_INDEX + 1u);
 623              		.loc 1 1149 0
 624 002a 013B     		sub	r3, r3, #1
 625              	.LVL54:
 626 002c DCB2     		uxtb	r4, r3
 627              	.LVL55:
 628              	.L61:
1150:.\Generated_Source\PSoC4/CapSense_CSHL.c ****     }
1151:.\Generated_Source\PSoC4/CapSense_CSHL.c **** 
1152:.\Generated_Source\PSoC4/CapSense_CSHL.c **** 
1153:.\Generated_Source\PSoC4/CapSense_CSHL.c ****     /* Was on */
1154:.\Generated_Source\PSoC4/CapSense_CSHL.c ****     if (0u != CapSense_GetBitValue(CapSense_sensorOnMask, sensor))
 629              		.loc 1 1154 0
 630 002e 2148     		ldr	r0, .L66+12
 631              	.LVL56:
 632 0030 4430     		add	r0, r0, #68
 633 0032 291C     		mov	r1, r5
 634 0034 FFF7FEFF 		bl	CapSense_GetBitValue
 635              	.LVL57:
 636 0038 0028     		cmp	r0, #0
 637 003a 10D0     		beq	.L62
1155:.\Generated_Source\PSoC4/CapSense_CSHL.c ****     {
1156:.\Generated_Source\PSoC4/CapSense_CSHL.c ****         /* Hysteresis minus */
1157:.\Generated_Source\PSoC4/CapSense_CSHL.c ****         if (CapSense_sensorSignal[sensor] < (fingerThreshold - hysteresis))
 638              		.loc 1 1157 0
 639 003c 1D4B     		ldr	r3, .L66+12
 640 003e 2C33     		add	r3, r3, #44
 641 0040 5B5D     		ldrb	r3, [r3, r5]
 642 0042 BE1B     		sub	r6, r7, r6
 643              	.LVL58:
 644 0044 B342     		cmp	r3, r6
 645 0046 23DA     		bge	.L63
1158:.\Generated_Source\PSoC4/CapSense_CSHL.c ****         {
1159:.\Generated_Source\PSoC4/CapSense_CSHL.c ****             CapSense_SetBitValue(CapSense_sensorOnMask, sensor, 0u);
 646              		.loc 1 1159 0
 647 0048 1A4E     		ldr	r6, .L66+12
 648 004a 301C     		mov	r0, r6
 649 004c 4430     		add	r0, r0, #68
 650 004e 291C     		mov	r1, r5
 651 0050 0022     		mov	r2, #0
 652 0052 FFF7FEFF 		bl	CapSense_SetBitValue
 653              	.LVL59:
1160:.\Generated_Source\PSoC4/CapSense_CSHL.c ****             /* Sensor inactive - reset Debounce counter */
1161:.\Generated_Source\PSoC4/CapSense_CSHL.c ****             CapSense_debounceCounter[debounceIndex] = debounce;
 654              		.loc 1 1161 0
 655 0056 3C36     		add	r6, r6, #60
 656 0058 4346     		mov	r3, r8
 657 005a 3355     		strb	r3, [r6, r4]
 658 005c 18E0     		b	.L63
ARM GAS  C:\Users\Terence\AppData\Local\Temp\cc6R4aDx.s 			page 33


 659              	.LVL60:
 660              	.L62:
1162:.\Generated_Source\PSoC4/CapSense_CSHL.c ****         }
1163:.\Generated_Source\PSoC4/CapSense_CSHL.c ****     }
1164:.\Generated_Source\PSoC4/CapSense_CSHL.c ****     else    /* Was off */
1165:.\Generated_Source\PSoC4/CapSense_CSHL.c ****     {
1166:.\Generated_Source\PSoC4/CapSense_CSHL.c ****         /* Hysteresis plus */
1167:.\Generated_Source\PSoC4/CapSense_CSHL.c ****         if (CapSense_sensorSignal[sensor] >= (fingerThreshold + hysteresis))
 661              		.loc 1 1167 0
 662 005e 154B     		ldr	r3, .L66+12
 663 0060 2C33     		add	r3, r3, #44
 664 0062 5B5D     		ldrb	r3, [r3, r5]
 665 0064 BE19     		add	r6, r7, r6
 666              	.LVL61:
 667 0066 B342     		cmp	r3, r6
 668 0068 0EDB     		blt	.L64
1168:.\Generated_Source\PSoC4/CapSense_CSHL.c ****         {
1169:.\Generated_Source\PSoC4/CapSense_CSHL.c ****             CapSense_debounceCounter[debounceIndex]--;
 669              		.loc 1 1169 0
 670 006a 124A     		ldr	r2, .L66+12
 671 006c 3C32     		add	r2, r2, #60
 672 006e 135D     		ldrb	r3, [r2, r4]
 673 0070 013B     		sub	r3, r3, #1
 674 0072 DBB2     		uxtb	r3, r3
 675 0074 1355     		strb	r3, [r2, r4]
1170:.\Generated_Source\PSoC4/CapSense_CSHL.c ****             /* Sensor active, decrement debounce counter */
1171:.\Generated_Source\PSoC4/CapSense_CSHL.c ****             if(CapSense_debounceCounter[debounceIndex] == 0u)
 676              		.loc 1 1171 0
 677 0076 002B     		cmp	r3, #0
 678 0078 0AD1     		bne	.L63
1172:.\Generated_Source\PSoC4/CapSense_CSHL.c ****             {
1173:.\Generated_Source\PSoC4/CapSense_CSHL.c ****                 CapSense_SetBitValue(CapSense_sensorOnMask, sensor, 1u);
 679              		.loc 1 1173 0
 680 007a 0E48     		ldr	r0, .L66+12
 681 007c 4430     		add	r0, r0, #68
 682 007e 291C     		mov	r1, r5
 683 0080 0122     		mov	r2, #1
 684 0082 FFF7FEFF 		bl	CapSense_SetBitValue
 685              	.LVL62:
 686 0086 03E0     		b	.L63
 687              	.L64:
1174:.\Generated_Source\PSoC4/CapSense_CSHL.c ****             }
1175:.\Generated_Source\PSoC4/CapSense_CSHL.c ****         }
1176:.\Generated_Source\PSoC4/CapSense_CSHL.c ****         else
1177:.\Generated_Source\PSoC4/CapSense_CSHL.c ****         {
1178:.\Generated_Source\PSoC4/CapSense_CSHL.c ****             /* Sensor inactive - reset Debounce counter */
1179:.\Generated_Source\PSoC4/CapSense_CSHL.c ****             CapSense_debounceCounter[debounceIndex] = debounce;
 688              		.loc 1 1179 0
 689 0088 0A4B     		ldr	r3, .L66+12
 690 008a 3C33     		add	r3, r3, #60
 691 008c 4246     		mov	r2, r8
 692 008e 1A55     		strb	r2, [r3, r4]
 693              	.L63:
1180:.\Generated_Source\PSoC4/CapSense_CSHL.c ****         }
1181:.\Generated_Source\PSoC4/CapSense_CSHL.c ****     }
1182:.\Generated_Source\PSoC4/CapSense_CSHL.c **** 
1183:.\Generated_Source\PSoC4/CapSense_CSHL.c ****     return ((uint32)((0u != CapSense_GetBitValue(CapSense_sensorOnMask, sensor)) ? 1u : 0u));
ARM GAS  C:\Users\Terence\AppData\Local\Temp\cc6R4aDx.s 			page 34


 694              		.loc 1 1183 0
 695 0090 0848     		ldr	r0, .L66+12
 696 0092 4430     		add	r0, r0, #68
 697 0094 291C     		mov	r1, r5
 698 0096 FFF7FEFF 		bl	CapSense_GetBitValue
 699              	.LVL63:
 700 009a 0028     		cmp	r0, #0
 701 009c 00D0     		beq	.L65
 702 009e 0120     		mov	r0, #1
 703              	.L65:
1184:.\Generated_Source\PSoC4/CapSense_CSHL.c **** }
 704              		.loc 1 1184 0 discriminator 4
 705              		@ sp needed
 706              	.LVL64:
 707              	.LVL65:
 708              	.LVL66:
 709              	.LVL67:
 710 00a0 04BC     		pop	{r2}
 711 00a2 9046     		mov	r8, r2
 712 00a4 F0BD     		pop	{r4, r5, r6, r7, pc}
 713              	.L67:
 714 00a6 C046     		.align	2
 715              	.L66:
 716 00a8 00000000 		.word	CapSense_widgetNumber
 717 00ac 00000000 		.word	.LANCHOR1
 718 00b0 00000000 		.word	CapSense_hysteresis
 719 00b4 00000000 		.word	.LANCHOR0
 720              		.cfi_endproc
 721              	.LFE58:
 722              		.size	CapSense_CheckIsSensorActive, .-CapSense_CheckIsSensorActive
 723              		.section	.text.CapSense_CheckIsWidgetActive,"ax",%progbits
 724              		.align	2
 725              		.global	CapSense_CheckIsWidgetActive
 726              		.code	16
 727              		.thumb_func
 728              		.type	CapSense_CheckIsWidgetActive, %function
 729              	CapSense_CheckIsWidgetActive:
 730              	.LFB59:
1185:.\Generated_Source\PSoC4/CapSense_CSHL.c **** 
1186:.\Generated_Source\PSoC4/CapSense_CSHL.c **** 
1187:.\Generated_Source\PSoC4/CapSense_CSHL.c **** /*******************************************************************************
1188:.\Generated_Source\PSoC4/CapSense_CSHL.c **** * Function Name: CapSense_CheckIsWidgetActive
1189:.\Generated_Source\PSoC4/CapSense_CSHL.c **** ********************************************************************************
1190:.\Generated_Source\PSoC4/CapSense_CSHL.c **** *
1191:.\Generated_Source\PSoC4/CapSense_CSHL.c **** * Summary:
1192:.\Generated_Source\PSoC4/CapSense_CSHL.c **** *  Compares the CapSense_sensorSignal[] array element to the finger threshold of
1193:.\Generated_Source\PSoC4/CapSense_CSHL.c **** * the widget it belongs to. The hysteresis and debounce are taken into account.
1194:.\Generated_Source\PSoC4/CapSense_CSHL.c **** * The hysteresis is added or subtracted from the finger threshold based on whether
1195:.\Generated_Source\PSoC4/CapSense_CSHL.c **** *  the sensor is currently active. If the sensor is active, the threshold is
1196:.\Generated_Source\PSoC4/CapSense_CSHL.c **** *  lowered by the hysteresis amount. If the sensor is inactive, the threshold
1197:.\Generated_Source\PSoC4/CapSense_CSHL.c **** *  is raised by the hysteresis amount.
1198:.\Generated_Source\PSoC4/CapSense_CSHL.c **** * The debounce counter added to the sensor active transition.
1199:.\Generated_Source\PSoC4/CapSense_CSHL.c **** * This function updates CapSense_sensorOnMask[] array element
1200:.\Generated_Source\PSoC4/CapSense_CSHL.c **** *
1201:.\Generated_Source\PSoC4/CapSense_CSHL.c **** * Parameters:
1202:.\Generated_Source\PSoC4/CapSense_CSHL.c **** *  widget:  widget number.
1203:.\Generated_Source\PSoC4/CapSense_CSHL.c **** *
ARM GAS  C:\Users\Terence\AppData\Local\Temp\cc6R4aDx.s 			page 35


1204:.\Generated_Source\PSoC4/CapSense_CSHL.c **** * Return:
1205:.\Generated_Source\PSoC4/CapSense_CSHL.c **** *  Returns widget sensor state 1 if one or more sensors within widget is/are
1206:.\Generated_Source\PSoC4/CapSense_CSHL.c **** *  active, 0 if all sensors within widget are inactive.
1207:.\Generated_Source\PSoC4/CapSense_CSHL.c **** *
1208:.\Generated_Source\PSoC4/CapSense_CSHL.c **** * Global Variables:
1209:.\Generated_Source\PSoC4/CapSense_CSHL.c **** *  rawDataIndex[]: Contains the  1st sensor position in the widget
1210:.\Generated_Source\PSoC4/CapSense_CSHL.c **** *
1211:.\Generated_Source\PSoC4/CapSense_CSHL.c **** * Side Effects:
1212:.\Generated_Source\PSoC4/CapSense_CSHL.c **** *  None
1213:.\Generated_Source\PSoC4/CapSense_CSHL.c **** *
1214:.\Generated_Source\PSoC4/CapSense_CSHL.c **** *******************************************************************************/
1215:.\Generated_Source\PSoC4/CapSense_CSHL.c **** uint32 CapSense_CheckIsWidgetActive(uint32 widget)
1216:.\Generated_Source\PSoC4/CapSense_CSHL.c **** {
 731              		.loc 1 1216 0
 732              		.cfi_startproc
 733              	.LVL68:
 734 0000 70B5     		push	{r4, r5, r6, lr}
 735              		.cfi_def_cfa_offset 16
 736              		.cfi_offset 4, -16
 737              		.cfi_offset 5, -12
 738              		.cfi_offset 6, -8
 739              		.cfi_offset 14, -4
1217:.\Generated_Source\PSoC4/CapSense_CSHL.c ****     uint32 rawIndex = (uint32)CapSense_rawDataIndex[widget];
 740              		.loc 1 1217 0
 741 0002 084B     		ldr	r3, .L72
 742 0004 1C5C     		ldrb	r4, [r3, r0]
 743              	.LVL69:
1218:.\Generated_Source\PSoC4/CapSense_CSHL.c ****     uint32 numOfSensors = (uint32)CapSense_numberOfSensors[widget] + rawIndex;
 744              		.loc 1 1218 0
 745 0006 1818     		add	r0, r3, r0
 746              	.LVL70:
 747 0008 057A     		ldrb	r5, [r0, #8]
 748 000a 2D19     		add	r5, r5, r4
 749              	.LVL71:
1219:.\Generated_Source\PSoC4/CapSense_CSHL.c ****     uint32 state = 0u;
 750              		.loc 1 1219 0
 751 000c 0026     		mov	r6, #0
 752              	.LVL72:
 753              	.L70:
1220:.\Generated_Source\PSoC4/CapSense_CSHL.c **** 
1221:.\Generated_Source\PSoC4/CapSense_CSHL.c ****     /* Check all sensors of widget */
1222:.\Generated_Source\PSoC4/CapSense_CSHL.c ****     do
1223:.\Generated_Source\PSoC4/CapSense_CSHL.c ****     {
1224:.\Generated_Source\PSoC4/CapSense_CSHL.c ****         if(CapSense_CheckIsSensorActive((uint32)rawIndex) != 0u)
 754              		.loc 1 1224 0
 755 000e 201C     		mov	r0, r4
 756 0010 FFF7FEFF 		bl	CapSense_CheckIsSensorActive
 757              	.LVL73:
 758 0014 0028     		cmp	r0, #0
 759 0016 00D0     		beq	.L69
1225:.\Generated_Source\PSoC4/CapSense_CSHL.c ****         {
1226:.\Generated_Source\PSoC4/CapSense_CSHL.c ****             state = CapSense_SENSOR_IS_ACTIVE;
 760              		.loc 1 1226 0
 761 0018 0126     		mov	r6, #1
 762              	.LVL74:
 763              	.L69:
1227:.\Generated_Source\PSoC4/CapSense_CSHL.c ****         }
ARM GAS  C:\Users\Terence\AppData\Local\Temp\cc6R4aDx.s 			page 36


1228:.\Generated_Source\PSoC4/CapSense_CSHL.c ****         rawIndex++;
 764              		.loc 1 1228 0
 765 001a 0134     		add	r4, r4, #1
 766              	.LVL75:
1229:.\Generated_Source\PSoC4/CapSense_CSHL.c ****     }
1230:.\Generated_Source\PSoC4/CapSense_CSHL.c ****     while(rawIndex < numOfSensors);
 767              		.loc 1 1230 0
 768 001c AC42     		cmp	r4, r5
 769 001e F6D3     		bcc	.L70
1231:.\Generated_Source\PSoC4/CapSense_CSHL.c **** 
1232:.\Generated_Source\PSoC4/CapSense_CSHL.c **** 
1233:.\Generated_Source\PSoC4/CapSense_CSHL.c **** 
1234:.\Generated_Source\PSoC4/CapSense_CSHL.c ****     return state;
1235:.\Generated_Source\PSoC4/CapSense_CSHL.c **** }
 770              		.loc 1 1235 0
 771 0020 301C     		mov	r0, r6
 772              		@ sp needed
 773              	.LVL76:
 774              	.LVL77:
 775              	.LVL78:
 776 0022 70BD     		pop	{r4, r5, r6, pc}
 777              	.L73:
 778              		.align	2
 779              	.L72:
 780 0024 00000000 		.word	.LANCHOR2
 781              		.cfi_endproc
 782              	.LFE59:
 783              		.size	CapSense_CheckIsWidgetActive, .-CapSense_CheckIsWidgetActive
 784              		.section	.text.CapSense_CheckIsAnyWidgetActive,"ax",%progbits
 785              		.align	2
 786              		.global	CapSense_CheckIsAnyWidgetActive
 787              		.code	16
 788              		.thumb_func
 789              		.type	CapSense_CheckIsAnyWidgetActive, %function
 790              	CapSense_CheckIsAnyWidgetActive:
 791              	.LFB60:
1236:.\Generated_Source\PSoC4/CapSense_CSHL.c **** 
1237:.\Generated_Source\PSoC4/CapSense_CSHL.c **** 
1238:.\Generated_Source\PSoC4/CapSense_CSHL.c **** /*******************************************************************************
1239:.\Generated_Source\PSoC4/CapSense_CSHL.c **** * Function Name: CapSense_CheckIsAnyWidgetActive
1240:.\Generated_Source\PSoC4/CapSense_CSHL.c **** ********************************************************************************
1241:.\Generated_Source\PSoC4/CapSense_CSHL.c **** *
1242:.\Generated_Source\PSoC4/CapSense_CSHL.c **** * Summary:
1243:.\Generated_Source\PSoC4/CapSense_CSHL.c **** *  Compares all the sensors of the CapSense_Signal[] array to their finger
1244:.\Generated_Source\PSoC4/CapSense_CSHL.c **** *  threshold. Calls CapSense_CheckIsWidgetActive() for each widget so
1245:.\Generated_Source\PSoC4/CapSense_CSHL.c **** *  the CapSense_sensorOnMask[] array is up to date after calling this
1246:.\Generated_Source\PSoC4/CapSense_CSHL.c **** *  function.
1247:.\Generated_Source\PSoC4/CapSense_CSHL.c **** *
1248:.\Generated_Source\PSoC4/CapSense_CSHL.c **** * Parameters:
1249:.\Generated_Source\PSoC4/CapSense_CSHL.c **** *  widget:  widget number.
1250:.\Generated_Source\PSoC4/CapSense_CSHL.c **** *
1251:.\Generated_Source\PSoC4/CapSense_CSHL.c **** * Return:
1252:.\Generated_Source\PSoC4/CapSense_CSHL.c **** *  Returns 1 if any widget is active, 0 none of widgets are active.
1253:.\Generated_Source\PSoC4/CapSense_CSHL.c **** *
1254:.\Generated_Source\PSoC4/CapSense_CSHL.c **** * Global Variables:
1255:.\Generated_Source\PSoC4/CapSense_CSHL.c **** *  None
1256:.\Generated_Source\PSoC4/CapSense_CSHL.c **** *
ARM GAS  C:\Users\Terence\AppData\Local\Temp\cc6R4aDx.s 			page 37


1257:.\Generated_Source\PSoC4/CapSense_CSHL.c **** * Side Effects:
1258:.\Generated_Source\PSoC4/CapSense_CSHL.c **** *  None
1259:.\Generated_Source\PSoC4/CapSense_CSHL.c **** *
1260:.\Generated_Source\PSoC4/CapSense_CSHL.c **** *******************************************************************************/
1261:.\Generated_Source\PSoC4/CapSense_CSHL.c **** uint32 CapSense_CheckIsAnyWidgetActive(void)
1262:.\Generated_Source\PSoC4/CapSense_CSHL.c **** {
 792              		.loc 1 1262 0
 793              		.cfi_startproc
 794 0000 38B5     		push	{r3, r4, r5, lr}
 795              		.cfi_def_cfa_offset 16
 796              		.cfi_offset 3, -16
 797              		.cfi_offset 4, -12
 798              		.cfi_offset 5, -8
 799              		.cfi_offset 14, -4
 800              	.LVL79:
1263:.\Generated_Source\PSoC4/CapSense_CSHL.c **** 
1264:.\Generated_Source\PSoC4/CapSense_CSHL.c ****         uint32 i;
1265:.\Generated_Source\PSoC4/CapSense_CSHL.c ****     uint32 state = 0u;
 801              		.loc 1 1265 0
 802 0002 0025     		mov	r5, #0
1266:.\Generated_Source\PSoC4/CapSense_CSHL.c ****     
1267:.\Generated_Source\PSoC4/CapSense_CSHL.c ****     for(i = 0u; i < CapSense_TOTAL_WIDGET_COUNT; i++)
 803              		.loc 1 1267 0
 804 0004 0024     		mov	r4, #0
 805 0006 06E0     		b	.L75
 806              	.LVL80:
 807              	.L77:
1268:.\Generated_Source\PSoC4/CapSense_CSHL.c ****     {
1269:.\Generated_Source\PSoC4/CapSense_CSHL.c ****         if (CapSense_CheckIsWidgetActive(i) != 0u)
 808              		.loc 1 1269 0
 809 0008 201C     		mov	r0, r4
 810 000a FFF7FEFF 		bl	CapSense_CheckIsWidgetActive
 811              	.LVL81:
 812 000e 0028     		cmp	r0, #0
 813 0010 00D0     		beq	.L76
1270:.\Generated_Source\PSoC4/CapSense_CSHL.c ****         {
1271:.\Generated_Source\PSoC4/CapSense_CSHL.c ****             state = CapSense_WIDGET_IS_ACTIVE;
 814              		.loc 1 1271 0
 815 0012 0125     		mov	r5, #1
 816              	.LVL82:
 817              	.L76:
1267:.\Generated_Source\PSoC4/CapSense_CSHL.c ****     {
 818              		.loc 1 1267 0 discriminator 2
 819 0014 0134     		add	r4, r4, #1
 820              	.LVL83:
 821              	.L75:
1267:.\Generated_Source\PSoC4/CapSense_CSHL.c ****     {
 822              		.loc 1 1267 0 is_stmt 0 discriminator 1
 823 0016 052C     		cmp	r4, #5
 824 0018 F6D9     		bls	.L77
1272:.\Generated_Source\PSoC4/CapSense_CSHL.c ****         }
1273:.\Generated_Source\PSoC4/CapSense_CSHL.c ****     }
1274:.\Generated_Source\PSoC4/CapSense_CSHL.c ****     
1275:.\Generated_Source\PSoC4/CapSense_CSHL.c **** 
1276:.\Generated_Source\PSoC4/CapSense_CSHL.c **** 
1277:.\Generated_Source\PSoC4/CapSense_CSHL.c ****     return state;
1278:.\Generated_Source\PSoC4/CapSense_CSHL.c **** }
ARM GAS  C:\Users\Terence\AppData\Local\Temp\cc6R4aDx.s 			page 38


 825              		.loc 1 1278 0 is_stmt 1
 826 001a 281C     		mov	r0, r5
 827              		@ sp needed
 828              	.LVL84:
 829              	.LVL85:
 830 001c 38BD     		pop	{r3, r4, r5, pc}
 831              		.cfi_endproc
 832              	.LFE60:
 833              		.size	CapSense_CheckIsAnyWidgetActive, .-CapSense_CheckIsAnyWidgetActive
 834 001e C046     		.section	.text.CapSense_EnableWidget,"ax",%progbits
 835              		.align	2
 836              		.global	CapSense_EnableWidget
 837              		.code	16
 838              		.thumb_func
 839              		.type	CapSense_EnableWidget, %function
 840              	CapSense_EnableWidget:
 841              	.LFB61:
1279:.\Generated_Source\PSoC4/CapSense_CSHL.c **** 
1280:.\Generated_Source\PSoC4/CapSense_CSHL.c **** 
1281:.\Generated_Source\PSoC4/CapSense_CSHL.c **** /*******************************************************************************
1282:.\Generated_Source\PSoC4/CapSense_CSHL.c **** * Function Name: CapSense_EnableWidget
1283:.\Generated_Source\PSoC4/CapSense_CSHL.c **** ********************************************************************************
1284:.\Generated_Source\PSoC4/CapSense_CSHL.c **** *
1285:.\Generated_Source\PSoC4/CapSense_CSHL.c **** * Summary:
1286:.\Generated_Source\PSoC4/CapSense_CSHL.c **** *  Enables all the widget elements (sensors) to the scanning process.
1287:.\Generated_Source\PSoC4/CapSense_CSHL.c **** *
1288:.\Generated_Source\PSoC4/CapSense_CSHL.c **** * Parameters:
1289:.\Generated_Source\PSoC4/CapSense_CSHL.c **** *  widget:  widget number.
1290:.\Generated_Source\PSoC4/CapSense_CSHL.c **** *
1291:.\Generated_Source\PSoC4/CapSense_CSHL.c **** * Return:
1292:.\Generated_Source\PSoC4/CapSense_CSHL.c **** *  None
1293:.\Generated_Source\PSoC4/CapSense_CSHL.c **** *
1294:.\Generated_Source\PSoC4/CapSense_CSHL.c **** * Global Variables:
1295:.\Generated_Source\PSoC4/CapSense_CSHL.c **** *  CapSense_sensorEnableMask[] - used to store the sensor scanning
1296:.\Generated_Source\PSoC4/CapSense_CSHL.c **** *  state.
1297:.\Generated_Source\PSoC4/CapSense_CSHL.c **** *  CapSense_sensorEnableMask[0] contains the masked bits for sensors
1298:.\Generated_Source\PSoC4/CapSense_CSHL.c **** *  0 through 7 (sensor 0 is bit 0, sensor 1 is bit 1).
1299:.\Generated_Source\PSoC4/CapSense_CSHL.c **** *  CapSense_sensorEnableMask[1] contains the masked bits for
1300:.\Generated_Source\PSoC4/CapSense_CSHL.c **** *  sensors 8 through 15 (if needed), and so on.
1301:.\Generated_Source\PSoC4/CapSense_CSHL.c **** *  0 - sensor doesn't scan by CapSense_ScanEnabledWidgets().
1302:.\Generated_Source\PSoC4/CapSense_CSHL.c **** *  1 - sensor scans by CapSense_ScanEnabledWidgets().
1303:.\Generated_Source\PSoC4/CapSense_CSHL.c **** *
1304:.\Generated_Source\PSoC4/CapSense_CSHL.c **** * Side Effects:
1305:.\Generated_Source\PSoC4/CapSense_CSHL.c **** *  None
1306:.\Generated_Source\PSoC4/CapSense_CSHL.c **** *
1307:.\Generated_Source\PSoC4/CapSense_CSHL.c **** *******************************************************************************/
1308:.\Generated_Source\PSoC4/CapSense_CSHL.c **** void CapSense_EnableWidget(uint32 widget)
1309:.\Generated_Source\PSoC4/CapSense_CSHL.c **** {
 842              		.loc 1 1309 0
 843              		.cfi_startproc
 844              	.LVL86:
 845 0000 38B5     		push	{r3, r4, r5, lr}
 846              		.cfi_def_cfa_offset 16
 847              		.cfi_offset 3, -16
 848              		.cfi_offset 4, -12
 849              		.cfi_offset 5, -8
 850              		.cfi_offset 14, -4
ARM GAS  C:\Users\Terence\AppData\Local\Temp\cc6R4aDx.s 			page 39


1310:.\Generated_Source\PSoC4/CapSense_CSHL.c **** 
1311:.\Generated_Source\PSoC4/CapSense_CSHL.c ****     uint8 rawIndex = CapSense_rawDataIndex[widget];
 851              		.loc 1 1311 0
 852 0002 084B     		ldr	r3, .L81
 853 0004 1C5C     		ldrb	r4, [r3, r0]
 854              	.LVL87:
1312:.\Generated_Source\PSoC4/CapSense_CSHL.c ****     uint8 numOfSensors = CapSense_numberOfSensors[widget] + rawIndex;
 855              		.loc 1 1312 0
 856 0006 1818     		add	r0, r3, r0
 857              	.LVL88:
 858 0008 057A     		ldrb	r5, [r0, #8]
 859 000a 2D19     		add	r5, r5, r4
 860 000c EDB2     		uxtb	r5, r5
 861              	.LVL89:
 862              	.L80:
1313:.\Generated_Source\PSoC4/CapSense_CSHL.c **** 
1314:.\Generated_Source\PSoC4/CapSense_CSHL.c ****     /* Enable all sensors of widget */
1315:.\Generated_Source\PSoC4/CapSense_CSHL.c ****     do
1316:.\Generated_Source\PSoC4/CapSense_CSHL.c ****     {
1317:.\Generated_Source\PSoC4/CapSense_CSHL.c ****         CapSense_SetBitValue(CapSense_sensorEnableMask, (uint32)rawIndex, 1u);
 863              		.loc 1 1317 0 discriminator 1
 864 000e 0648     		ldr	r0, .L81+4
 865 0010 211C     		mov	r1, r4
 866 0012 0122     		mov	r2, #1
 867 0014 FFF7FEFF 		bl	CapSense_SetBitValue
 868              	.LVL90:
1318:.\Generated_Source\PSoC4/CapSense_CSHL.c ****         rawIndex++;
 869              		.loc 1 1318 0 discriminator 1
 870 0018 0134     		add	r4, r4, #1
 871              	.LVL91:
 872 001a E4B2     		uxtb	r4, r4
 873              	.LVL92:
1319:.\Generated_Source\PSoC4/CapSense_CSHL.c ****     }
1320:.\Generated_Source\PSoC4/CapSense_CSHL.c ****     while(rawIndex < numOfSensors);
 874              		.loc 1 1320 0 discriminator 1
 875 001c AC42     		cmp	r4, r5
 876 001e F6D3     		bcc	.L80
1321:.\Generated_Source\PSoC4/CapSense_CSHL.c **** }
 877              		.loc 1 1321 0
 878              		@ sp needed
 879              	.LVL93:
 880              	.LVL94:
 881 0020 38BD     		pop	{r3, r4, r5, pc}
 882              	.L82:
 883 0022 C046     		.align	2
 884              	.L81:
 885 0024 00000000 		.word	.LANCHOR2
 886 0028 00000000 		.word	CapSense_sensorEnableMask
 887              		.cfi_endproc
 888              	.LFE61:
 889              		.size	CapSense_EnableWidget, .-CapSense_EnableWidget
 890              		.section	.text.CapSense_DisableWidget,"ax",%progbits
 891              		.align	2
 892              		.global	CapSense_DisableWidget
 893              		.code	16
 894              		.thumb_func
 895              		.type	CapSense_DisableWidget, %function
ARM GAS  C:\Users\Terence\AppData\Local\Temp\cc6R4aDx.s 			page 40


 896              	CapSense_DisableWidget:
 897              	.LFB62:
1322:.\Generated_Source\PSoC4/CapSense_CSHL.c **** 
1323:.\Generated_Source\PSoC4/CapSense_CSHL.c **** 
1324:.\Generated_Source\PSoC4/CapSense_CSHL.c **** /*******************************************************************************
1325:.\Generated_Source\PSoC4/CapSense_CSHL.c **** * Function Name: CapSense_DisableWidget
1326:.\Generated_Source\PSoC4/CapSense_CSHL.c **** ********************************************************************************
1327:.\Generated_Source\PSoC4/CapSense_CSHL.c **** *
1328:.\Generated_Source\PSoC4/CapSense_CSHL.c **** * Summary:
1329:.\Generated_Source\PSoC4/CapSense_CSHL.c **** *  Disables all the widget elements (sensors) from the scanning process.
1330:.\Generated_Source\PSoC4/CapSense_CSHL.c **** *
1331:.\Generated_Source\PSoC4/CapSense_CSHL.c **** * Parameters:
1332:.\Generated_Source\PSoC4/CapSense_CSHL.c **** *  widget:  widget number.
1333:.\Generated_Source\PSoC4/CapSense_CSHL.c **** *
1334:.\Generated_Source\PSoC4/CapSense_CSHL.c **** * Return:
1335:.\Generated_Source\PSoC4/CapSense_CSHL.c **** *  None
1336:.\Generated_Source\PSoC4/CapSense_CSHL.c **** *
1337:.\Generated_Source\PSoC4/CapSense_CSHL.c **** * Global Variables:
1338:.\Generated_Source\PSoC4/CapSense_CSHL.c **** *  CapSense_sensorEnableMask[] - used to store the sensor scanning
1339:.\Generated_Source\PSoC4/CapSense_CSHL.c **** *  state.
1340:.\Generated_Source\PSoC4/CapSense_CSHL.c **** *  CapSense_sensorEnableMask[0] contains the masked bits for sensors
1341:.\Generated_Source\PSoC4/CapSense_CSHL.c **** *  0 through 7 (sensor 0 is bit 0, sensor 1 is bit 1).
1342:.\Generated_Source\PSoC4/CapSense_CSHL.c **** *  CapSense_sensorEnableMask[1] contains the masked bits for
1343:.\Generated_Source\PSoC4/CapSense_CSHL.c **** *  sensors 8 through 15 (if needed), and so on.
1344:.\Generated_Source\PSoC4/CapSense_CSHL.c **** *  0 - sensor isn't scanned by CapSense_ScanEnabledWidgets().
1345:.\Generated_Source\PSoC4/CapSense_CSHL.c **** *  1 - sensor is scanned by CapSense_ScanEnabledWidgets().
1346:.\Generated_Source\PSoC4/CapSense_CSHL.c **** *
1347:.\Generated_Source\PSoC4/CapSense_CSHL.c **** * Side Effects:
1348:.\Generated_Source\PSoC4/CapSense_CSHL.c **** *  None
1349:.\Generated_Source\PSoC4/CapSense_CSHL.c **** *
1350:.\Generated_Source\PSoC4/CapSense_CSHL.c **** *******************************************************************************/
1351:.\Generated_Source\PSoC4/CapSense_CSHL.c **** void CapSense_DisableWidget(uint32 widget)
1352:.\Generated_Source\PSoC4/CapSense_CSHL.c **** {
 898              		.loc 1 1352 0
 899              		.cfi_startproc
 900              	.LVL95:
 901 0000 38B5     		push	{r3, r4, r5, lr}
 902              		.cfi_def_cfa_offset 16
 903              		.cfi_offset 3, -16
 904              		.cfi_offset 4, -12
 905              		.cfi_offset 5, -8
 906              		.cfi_offset 14, -4
1353:.\Generated_Source\PSoC4/CapSense_CSHL.c ****     uint8 rawIndex = CapSense_rawDataIndex[widget];
 907              		.loc 1 1353 0
 908 0002 084B     		ldr	r3, .L85
 909 0004 1C5C     		ldrb	r4, [r3, r0]
 910              	.LVL96:
1354:.\Generated_Source\PSoC4/CapSense_CSHL.c ****     uint8 numOfSensors = CapSense_numberOfSensors[widget] + rawIndex;
 911              		.loc 1 1354 0
 912 0006 1818     		add	r0, r3, r0
 913              	.LVL97:
 914 0008 057A     		ldrb	r5, [r0, #8]
 915 000a 2D19     		add	r5, r5, r4
 916 000c EDB2     		uxtb	r5, r5
 917              	.LVL98:
 918              	.L84:
1355:.\Generated_Source\PSoC4/CapSense_CSHL.c **** 
ARM GAS  C:\Users\Terence\AppData\Local\Temp\cc6R4aDx.s 			page 41


1356:.\Generated_Source\PSoC4/CapSense_CSHL.c ****     /* Disable all sensors of widget */
1357:.\Generated_Source\PSoC4/CapSense_CSHL.c ****     do
1358:.\Generated_Source\PSoC4/CapSense_CSHL.c ****     {
1359:.\Generated_Source\PSoC4/CapSense_CSHL.c **** 
1360:.\Generated_Source\PSoC4/CapSense_CSHL.c ****         CapSense_SetBitValue(CapSense_sensorEnableMask, (uint32)rawIndex, 0u);
 919              		.loc 1 1360 0 discriminator 1
 920 000e 0648     		ldr	r0, .L85+4
 921 0010 211C     		mov	r1, r4
 922 0012 0022     		mov	r2, #0
 923 0014 FFF7FEFF 		bl	CapSense_SetBitValue
 924              	.LVL99:
1361:.\Generated_Source\PSoC4/CapSense_CSHL.c ****         rawIndex++;
 925              		.loc 1 1361 0 discriminator 1
 926 0018 0134     		add	r4, r4, #1
 927              	.LVL100:
 928 001a E4B2     		uxtb	r4, r4
 929              	.LVL101:
1362:.\Generated_Source\PSoC4/CapSense_CSHL.c ****     }
1363:.\Generated_Source\PSoC4/CapSense_CSHL.c ****     while(rawIndex < numOfSensors);
 930              		.loc 1 1363 0 discriminator 1
 931 001c AC42     		cmp	r4, r5
 932 001e F6D3     		bcc	.L84
1364:.\Generated_Source\PSoC4/CapSense_CSHL.c **** }
 933              		.loc 1 1364 0
 934              		@ sp needed
 935              	.LVL102:
 936              	.LVL103:
 937 0020 38BD     		pop	{r3, r4, r5, pc}
 938              	.L86:
 939 0022 C046     		.align	2
 940              	.L85:
 941 0024 00000000 		.word	.LANCHOR2
 942 0028 00000000 		.word	CapSense_sensorEnableMask
 943              		.cfi_endproc
 944              	.LFE62:
 945              		.size	CapSense_DisableWidget, .-CapSense_DisableWidget
 946              		.section	.text.CapSense_FindMaximum,"ax",%progbits
 947              		.align	2
 948              		.global	CapSense_FindMaximum
 949              		.code	16
 950              		.thumb_func
 951              		.type	CapSense_FindMaximum, %function
 952              	CapSense_FindMaximum:
 953              	.LFB63:
1365:.\Generated_Source\PSoC4/CapSense_CSHL.c **** 
1366:.\Generated_Source\PSoC4/CapSense_CSHL.c **** 
1367:.\Generated_Source\PSoC4/CapSense_CSHL.c **** #if(CapSense_TOTAL_CENTROIDS_BASIC_COUNT)
1368:.\Generated_Source\PSoC4/CapSense_CSHL.c ****     /*******************************************************************************
1369:.\Generated_Source\PSoC4/CapSense_CSHL.c ****     * Function Name: CapSense_FindMaximum
1370:.\Generated_Source\PSoC4/CapSense_CSHL.c ****     ********************************************************************************
1371:.\Generated_Source\PSoC4/CapSense_CSHL.c ****     *
1372:.\Generated_Source\PSoC4/CapSense_CSHL.c ****     * Summary:
1373:.\Generated_Source\PSoC4/CapSense_CSHL.c ****     *  Finds the index of the maximum element within a defined centroid. Checks
1374:.\Generated_Source\PSoC4/CapSense_CSHL.c ****     *  CapSense_sensorSignal[] within a defined centroid and
1375:.\Generated_Source\PSoC4/CapSense_CSHL.c ****     *  returns the index of the maximum element. The values below the finger threshold are
1376:.\Generated_Source\PSoC4/CapSense_CSHL.c ****     *  ignored.
1377:.\Generated_Source\PSoC4/CapSense_CSHL.c ****     *  The centroid is defined by offset of the first element and a number of elements - count.
ARM GAS  C:\Users\Terence\AppData\Local\Temp\cc6R4aDx.s 			page 42


1378:.\Generated_Source\PSoC4/CapSense_CSHL.c ****     *  The diplexed centroid requires at least two consecutive elements above
1379:.\Generated_Source\PSoC4/CapSense_CSHL.c ****     *  FingerThreshold to find the index of the maximum element.
1380:.\Generated_Source\PSoC4/CapSense_CSHL.c ****     *
1381:.\Generated_Source\PSoC4/CapSense_CSHL.c ****     * Parameters:
1382:.\Generated_Source\PSoC4/CapSense_CSHL.c ****     *  offset:  Start index of centroid in CapSense_sensorSignal[] array.
1383:.\Generated_Source\PSoC4/CapSense_CSHL.c ****     *  count:   number of elements within centroid.
1384:.\Generated_Source\PSoC4/CapSense_CSHL.c ****     *  fingerThreshold:  Finger threshold.
1385:.\Generated_Source\PSoC4/CapSense_CSHL.c ****     *  diplex:   pointer to diplex table.
1386:.\Generated_Source\PSoC4/CapSense_CSHL.c ****     *
1387:.\Generated_Source\PSoC4/CapSense_CSHL.c ****     * Return:
1388:.\Generated_Source\PSoC4/CapSense_CSHL.c ****     *  Returns the index of the maximum element within a defined centroid.
1389:.\Generated_Source\PSoC4/CapSense_CSHL.c ****     *  If the index of the maximum element isn't found it returns 0xFF.
1390:.\Generated_Source\PSoC4/CapSense_CSHL.c ****     *
1391:.\Generated_Source\PSoC4/CapSense_CSHL.c ****     * Global Variables:
1392:.\Generated_Source\PSoC4/CapSense_CSHL.c ****     *  CapSense_startOfSlider[] - contains the index of the first slider element
1393:.\Generated_Source\PSoC4/CapSense_CSHL.c ****     *
1394:.\Generated_Source\PSoC4/CapSense_CSHL.c ****     * Side Effects:
1395:.\Generated_Source\PSoC4/CapSense_CSHL.c ****     *  None
1396:.\Generated_Source\PSoC4/CapSense_CSHL.c ****     *
1397:.\Generated_Source\PSoC4/CapSense_CSHL.c ****     *******************************************************************************/
1398:.\Generated_Source\PSoC4/CapSense_CSHL.c ****     #if (CapSense_IS_DIPLEX_SLIDER)
1399:.\Generated_Source\PSoC4/CapSense_CSHL.c ****         uint8 CapSense_FindMaximum(uint8 offset, uint8 count, uint8 fingerThreshold, const uint8 *d
1400:.\Generated_Source\PSoC4/CapSense_CSHL.c ****     #else
1401:.\Generated_Source\PSoC4/CapSense_CSHL.c ****         uint8 CapSense_FindMaximum(uint8 offset, uint8 count, uint8 fingerThreshold)
1402:.\Generated_Source\PSoC4/CapSense_CSHL.c ****     #endif /* (CapSense_IS_DIPLEX_SLIDER) */
1403:.\Generated_Source\PSoC4/CapSense_CSHL.c ****     {
 954              		.loc 1 1403 0
 955              		.cfi_startproc
 956              	.LVL104:
 957 0000 70B5     		push	{r4, r5, r6, lr}
 958              		.cfi_def_cfa_offset 16
 959              		.cfi_offset 4, -16
 960              		.cfi_offset 5, -12
 961              		.cfi_offset 6, -8
 962              		.cfi_offset 14, -4
 963              	.LVL105:
1404:.\Generated_Source\PSoC4/CapSense_CSHL.c ****         uint8 i;
1405:.\Generated_Source\PSoC4/CapSense_CSHL.c ****         #if (CapSense_IS_DIPLEX_SLIDER)
1406:.\Generated_Source\PSoC4/CapSense_CSHL.c ****             uint8 curPos = 0u;
1407:.\Generated_Source\PSoC4/CapSense_CSHL.c ****             /* No centroid at Start */
1408:.\Generated_Source\PSoC4/CapSense_CSHL.c ****             uint8 curCntrdSize = 0u;
1409:.\Generated_Source\PSoC4/CapSense_CSHL.c ****             uint8 curCtrdStartPos = CapSense_MAXIMUM_CENTROID;
1410:.\Generated_Source\PSoC4/CapSense_CSHL.c ****             /* Biggest centroid is zero */
1411:.\Generated_Source\PSoC4/CapSense_CSHL.c ****             uint8 biggestCtrdSize = 0u;
1412:.\Generated_Source\PSoC4/CapSense_CSHL.c ****             uint8 biggestCtrdStartPos = 0u;
1413:.\Generated_Source\PSoC4/CapSense_CSHL.c ****         #endif /* (CapSense_IS_DIPLEX_SLIDER) */
1414:.\Generated_Source\PSoC4/CapSense_CSHL.c ****         uint8 maximum = CapSense_MAXIMUM_CENTROID;
1415:.\Generated_Source\PSoC4/CapSense_CSHL.c **** 
1416:.\Generated_Source\PSoC4/CapSense_CSHL.c ****         uint8 temp = 0u;
1417:.\Generated_Source\PSoC4/CapSense_CSHL.c ****         uint8 *startOfSlider = &CapSense_sensorSignal[offset];
 964              		.loc 1 1417 0
 965 0002 094D     		ldr	r5, .L92
 966 0004 2C35     		add	r5, r5, #44
 967 0006 2D18     		add	r5, r5, r0
 968              	.LVL106:
1416:.\Generated_Source\PSoC4/CapSense_CSHL.c ****         uint8 *startOfSlider = &CapSense_sensorSignal[offset];
 969              		.loc 1 1416 0
ARM GAS  C:\Users\Terence\AppData\Local\Temp\cc6R4aDx.s 			page 43


 970 0008 0026     		mov	r6, #0
1414:.\Generated_Source\PSoC4/CapSense_CSHL.c **** 
 971              		.loc 1 1414 0
 972 000a FF20     		mov	r0, #255
 973              	.LVL107:
1418:.\Generated_Source\PSoC4/CapSense_CSHL.c **** 
1419:.\Generated_Source\PSoC4/CapSense_CSHL.c ****         #if (CapSense_IS_DIPLEX_SLIDER)
1420:.\Generated_Source\PSoC4/CapSense_CSHL.c ****             if(diplex != 0u)
1421:.\Generated_Source\PSoC4/CapSense_CSHL.c ****             {
1422:.\Generated_Source\PSoC4/CapSense_CSHL.c ****                 /* Initialize */
1423:.\Generated_Source\PSoC4/CapSense_CSHL.c ****                 i = 0u;
1424:.\Generated_Source\PSoC4/CapSense_CSHL.c **** 
1425:.\Generated_Source\PSoC4/CapSense_CSHL.c ****                 /* Make slider x2 as Diplexed */
1426:.\Generated_Source\PSoC4/CapSense_CSHL.c ****                 count <<= 1u;
1427:.\Generated_Source\PSoC4/CapSense_CSHL.c ****                 while(1u)
1428:.\Generated_Source\PSoC4/CapSense_CSHL.c ****                 {
1429:.\Generated_Source\PSoC4/CapSense_CSHL.c ****                     if (startOfSlider[curPos] > 0u)    /* Looking for centroids */
1430:.\Generated_Source\PSoC4/CapSense_CSHL.c ****                     {
1431:.\Generated_Source\PSoC4/CapSense_CSHL.c ****                         if (curCtrdStartPos == CapSense_MAXIMUM_CENTROID)
1432:.\Generated_Source\PSoC4/CapSense_CSHL.c ****                         {
1433:.\Generated_Source\PSoC4/CapSense_CSHL.c ****                             /* Start of centroid */
1434:.\Generated_Source\PSoC4/CapSense_CSHL.c ****                             curCtrdStartPos = i;
1435:.\Generated_Source\PSoC4/CapSense_CSHL.c ****                             curCntrdSize++;
1436:.\Generated_Source\PSoC4/CapSense_CSHL.c ****                         }
1437:.\Generated_Source\PSoC4/CapSense_CSHL.c ****                         else
1438:.\Generated_Source\PSoC4/CapSense_CSHL.c ****                         {
1439:.\Generated_Source\PSoC4/CapSense_CSHL.c ****                             curCntrdSize++;
1440:.\Generated_Source\PSoC4/CapSense_CSHL.c ****                         }
1441:.\Generated_Source\PSoC4/CapSense_CSHL.c ****                     }
1442:.\Generated_Source\PSoC4/CapSense_CSHL.c ****                     else   /* Select biggest and indicate zero start */
1443:.\Generated_Source\PSoC4/CapSense_CSHL.c ****                     {
1444:.\Generated_Source\PSoC4/CapSense_CSHL.c ****                         if(curCntrdSize > 0u)
1445:.\Generated_Source\PSoC4/CapSense_CSHL.c ****                         {
1446:.\Generated_Source\PSoC4/CapSense_CSHL.c ****                             /* We are at the end of current */
1447:.\Generated_Source\PSoC4/CapSense_CSHL.c ****                             if(curCntrdSize > biggestCtrdSize)
1448:.\Generated_Source\PSoC4/CapSense_CSHL.c ****                             {
1449:.\Generated_Source\PSoC4/CapSense_CSHL.c ****                                 biggestCtrdSize = curCntrdSize;
1450:.\Generated_Source\PSoC4/CapSense_CSHL.c ****                                 biggestCtrdStartPos = curCtrdStartPos;
1451:.\Generated_Source\PSoC4/CapSense_CSHL.c ****                             }
1452:.\Generated_Source\PSoC4/CapSense_CSHL.c **** 
1453:.\Generated_Source\PSoC4/CapSense_CSHL.c ****                             curCntrdSize = 0u;
1454:.\Generated_Source\PSoC4/CapSense_CSHL.c ****                             curCtrdStartPos = CapSense_MAXIMUM_CENTROID;
1455:.\Generated_Source\PSoC4/CapSense_CSHL.c ****                         }
1456:.\Generated_Source\PSoC4/CapSense_CSHL.c ****                     }
1457:.\Generated_Source\PSoC4/CapSense_CSHL.c **** 
1458:.\Generated_Source\PSoC4/CapSense_CSHL.c ****                     i++;
1459:.\Generated_Source\PSoC4/CapSense_CSHL.c ****                     curPos = diplex[i];
1460:.\Generated_Source\PSoC4/CapSense_CSHL.c ****                     if(i == count)
1461:.\Generated_Source\PSoC4/CapSense_CSHL.c ****                     {
1462:.\Generated_Source\PSoC4/CapSense_CSHL.c ****                         break;
1463:.\Generated_Source\PSoC4/CapSense_CSHL.c ****                     }
1464:.\Generated_Source\PSoC4/CapSense_CSHL.c ****                 }
1465:.\Generated_Source\PSoC4/CapSense_CSHL.c **** 
1466:.\Generated_Source\PSoC4/CapSense_CSHL.c ****                     /* Find biggest centroid if two are same size, last one wins
1467:.\Generated_Source\PSoC4/CapSense_CSHL.c ****                        We are at the end of current */
1468:.\Generated_Source\PSoC4/CapSense_CSHL.c ****                 if (curCntrdSize >= biggestCtrdSize)
1469:.\Generated_Source\PSoC4/CapSense_CSHL.c ****                 {
ARM GAS  C:\Users\Terence\AppData\Local\Temp\cc6R4aDx.s 			page 44


1470:.\Generated_Source\PSoC4/CapSense_CSHL.c ****                     biggestCtrdSize = curCntrdSize;
1471:.\Generated_Source\PSoC4/CapSense_CSHL.c ****                     biggestCtrdStartPos = curCtrdStartPos;
1472:.\Generated_Source\PSoC4/CapSense_CSHL.c ****                 }
1473:.\Generated_Source\PSoC4/CapSense_CSHL.c ****             }
1474:.\Generated_Source\PSoC4/CapSense_CSHL.c ****             else
1475:.\Generated_Source\PSoC4/CapSense_CSHL.c ****             {
1476:.\Generated_Source\PSoC4/CapSense_CSHL.c ****                 /* Without diplexing */
1477:.\Generated_Source\PSoC4/CapSense_CSHL.c ****                 biggestCtrdSize = count;
1478:.\Generated_Source\PSoC4/CapSense_CSHL.c ****             }
1479:.\Generated_Source\PSoC4/CapSense_CSHL.c **** 
1480:.\Generated_Source\PSoC4/CapSense_CSHL.c **** 
1481:.\Generated_Source\PSoC4/CapSense_CSHL.c ****             /* Check centroid size */
1482:.\Generated_Source\PSoC4/CapSense_CSHL.c ****             #if (CapSense_IS_NON_DIPLEX_SLIDER)
1483:.\Generated_Source\PSoC4/CapSense_CSHL.c ****                 if((biggestCtrdSize >= 2u) || ((biggestCtrdSize == 1u) && (diplex == 0u)))
1484:.\Generated_Source\PSoC4/CapSense_CSHL.c ****             #else
1485:.\Generated_Source\PSoC4/CapSense_CSHL.c ****                 if(biggestCtrdSize >= 2u)
1486:.\Generated_Source\PSoC4/CapSense_CSHL.c ****             #endif /* (CapSense_IS_NON_DIPLEX_SLIDER) */
1487:.\Generated_Source\PSoC4/CapSense_CSHL.c ****                 {
1488:.\Generated_Source\PSoC4/CapSense_CSHL.c ****                     for (i = biggestCtrdStartPos; i < (biggestCtrdStartPos + biggestCtrdSize); i++)
1489:.\Generated_Source\PSoC4/CapSense_CSHL.c ****                     {
1490:.\Generated_Source\PSoC4/CapSense_CSHL.c ****                         #if (CapSense_IS_DIPLEX_SLIDER && CapSense_IS_NON_DIPLEX_SLIDER)
1491:.\Generated_Source\PSoC4/CapSense_CSHL.c ****                             if (diplex == 0u)
1492:.\Generated_Source\PSoC4/CapSense_CSHL.c ****                             {
1493:.\Generated_Source\PSoC4/CapSense_CSHL.c ****                                 curPos = i;
1494:.\Generated_Source\PSoC4/CapSense_CSHL.c ****                             }
1495:.\Generated_Source\PSoC4/CapSense_CSHL.c ****                             else
1496:.\Generated_Source\PSoC4/CapSense_CSHL.c ****                             {
1497:.\Generated_Source\PSoC4/CapSense_CSHL.c ****                                 curPos = diplex[i];
1498:.\Generated_Source\PSoC4/CapSense_CSHL.c ****                             }
1499:.\Generated_Source\PSoC4/CapSense_CSHL.c ****                         #elif (CapSense_IS_DIPLEX_SLIDER)
1500:.\Generated_Source\PSoC4/CapSense_CSHL.c ****                             curPos = diplex[i];
1501:.\Generated_Source\PSoC4/CapSense_CSHL.c ****                         #endif /* (CapSense_IS_DIPLEX_SLIDER && CapSense_IS_NON_DIPLEX_SLIDER) */
1502:.\Generated_Source\PSoC4/CapSense_CSHL.c ****                         /* Looking for greater element within centroid */
1503:.\Generated_Source\PSoC4/CapSense_CSHL.c ****                         if(startOfSlider[curPos] > fingerThreshold)
1504:.\Generated_Source\PSoC4/CapSense_CSHL.c ****                         {
1505:.\Generated_Source\PSoC4/CapSense_CSHL.c ****                             if(startOfSlider[curPos] > temp)
1506:.\Generated_Source\PSoC4/CapSense_CSHL.c ****                             {
1507:.\Generated_Source\PSoC4/CapSense_CSHL.c ****                                 maximum = i;
1508:.\Generated_Source\PSoC4/CapSense_CSHL.c ****                                 temp = startOfSlider[curPos];
1509:.\Generated_Source\PSoC4/CapSense_CSHL.c ****                             }
1510:.\Generated_Source\PSoC4/CapSense_CSHL.c ****                         }
1511:.\Generated_Source\PSoC4/CapSense_CSHL.c ****                     }
1512:.\Generated_Source\PSoC4/CapSense_CSHL.c ****                 }
1513:.\Generated_Source\PSoC4/CapSense_CSHL.c ****         #else
1514:.\Generated_Source\PSoC4/CapSense_CSHL.c ****             for (i = 0u; i < count; i++)
 974              		.loc 1 1514 0
 975 000c 0023     		mov	r3, #0
 976 000e 08E0     		b	.L88
 977              	.LVL108:
 978              	.L90:
1515:.\Generated_Source\PSoC4/CapSense_CSHL.c ****             {
1516:.\Generated_Source\PSoC4/CapSense_CSHL.c ****                 /* Looking for greater element within centroid */
1517:.\Generated_Source\PSoC4/CapSense_CSHL.c ****                 if(startOfSlider[i] > fingerThreshold)
 979              		.loc 1 1517 0
 980 0010 EC5C     		ldrb	r4, [r5, r3]
 981 0012 9442     		cmp	r4, r2
 982 0014 03D9     		bls	.L89
ARM GAS  C:\Users\Terence\AppData\Local\Temp\cc6R4aDx.s 			page 45


1518:.\Generated_Source\PSoC4/CapSense_CSHL.c ****                 {
1519:.\Generated_Source\PSoC4/CapSense_CSHL.c ****                     if(startOfSlider[i] > temp)
 983              		.loc 1 1519 0
 984 0016 A642     		cmp	r6, r4
 985 0018 01D2     		bcs	.L89
1520:.\Generated_Source\PSoC4/CapSense_CSHL.c ****                     {
1521:.\Generated_Source\PSoC4/CapSense_CSHL.c ****                         maximum = i;
1522:.\Generated_Source\PSoC4/CapSense_CSHL.c ****                         temp = startOfSlider[i];
 986              		.loc 1 1522 0
 987 001a 261C     		mov	r6, r4
 988              	.LVL109:
1521:.\Generated_Source\PSoC4/CapSense_CSHL.c ****                         temp = startOfSlider[i];
 989              		.loc 1 1521 0
 990 001c 181C     		mov	r0, r3
 991              	.LVL110:
 992              	.L89:
1514:.\Generated_Source\PSoC4/CapSense_CSHL.c ****             {
 993              		.loc 1 1514 0 discriminator 2
 994 001e 0133     		add	r3, r3, #1
 995              	.LVL111:
 996 0020 DBB2     		uxtb	r3, r3
 997              	.LVL112:
 998              	.L88:
1514:.\Generated_Source\PSoC4/CapSense_CSHL.c ****             {
 999              		.loc 1 1514 0 is_stmt 0 discriminator 1
 1000 0022 8B42     		cmp	r3, r1
 1001 0024 F4D3     		bcc	.L90
1523:.\Generated_Source\PSoC4/CapSense_CSHL.c ****                     }
1524:.\Generated_Source\PSoC4/CapSense_CSHL.c ****                 }
1525:.\Generated_Source\PSoC4/CapSense_CSHL.c ****             }
1526:.\Generated_Source\PSoC4/CapSense_CSHL.c ****         #endif /* (CapSense_IS_DIPLEX_SLIDER) */
1527:.\Generated_Source\PSoC4/CapSense_CSHL.c ****         return (maximum);
1528:.\Generated_Source\PSoC4/CapSense_CSHL.c ****     }
 1002              		.loc 1 1528 0 is_stmt 1
 1003              		@ sp needed
 1004              	.LVL113:
 1005              	.LVL114:
 1006 0026 70BD     		pop	{r4, r5, r6, pc}
 1007              	.L93:
 1008              		.align	2
 1009              	.L92:
 1010 0028 00000000 		.word	.LANCHOR0
 1011              		.cfi_endproc
 1012              	.LFE63:
 1013              		.size	CapSense_FindMaximum, .-CapSense_FindMaximum
 1014              		.global	__aeabi_idiv
 1015              		.section	.text.CapSense_CalcCentroid,"ax",%progbits
 1016              		.align	2
 1017              		.global	CapSense_CalcCentroid
 1018              		.code	16
 1019              		.thumb_func
 1020              		.type	CapSense_CalcCentroid, %function
 1021              	CapSense_CalcCentroid:
 1022              	.LFB64:
1529:.\Generated_Source\PSoC4/CapSense_CSHL.c **** 
1530:.\Generated_Source\PSoC4/CapSense_CSHL.c **** 
1531:.\Generated_Source\PSoC4/CapSense_CSHL.c ****     /*******************************************************************************
ARM GAS  C:\Users\Terence\AppData\Local\Temp\cc6R4aDx.s 			page 46


1532:.\Generated_Source\PSoC4/CapSense_CSHL.c ****     * Function Name: CapSense_CalcCentroid
1533:.\Generated_Source\PSoC4/CapSense_CSHL.c ****     ********************************************************************************
1534:.\Generated_Source\PSoC4/CapSense_CSHL.c ****     *
1535:.\Generated_Source\PSoC4/CapSense_CSHL.c ****     * Summary:
1536:.\Generated_Source\PSoC4/CapSense_CSHL.c ****     *  Returns a position value calculated according to the index of the maximum element and API
1537:.\Generated_Source\PSoC4/CapSense_CSHL.c ****     *  resolution.
1538:.\Generated_Source\PSoC4/CapSense_CSHL.c ****     *
1539:.\Generated_Source\PSoC4/CapSense_CSHL.c ****     * Parameters:
1540:.\Generated_Source\PSoC4/CapSense_CSHL.c ****     *  type:  widget type.
1541:.\Generated_Source\PSoC4/CapSense_CSHL.c ****     *  diplex:  pointer to diplex table.
1542:.\Generated_Source\PSoC4/CapSense_CSHL.c ****     *  maximum:  Index of maximum element within centroid.
1543:.\Generated_Source\PSoC4/CapSense_CSHL.c ****     *  offset:   Start index of centroid in CapSense_sensorSignal[] array.
1544:.\Generated_Source\PSoC4/CapSense_CSHL.c ****     *  count:    Number of elements within centroid.
1545:.\Generated_Source\PSoC4/CapSense_CSHL.c ****     *  resolution:  multiplicator calculated according to centroid type and
1546:.\Generated_Source\PSoC4/CapSense_CSHL.c ****     *  API resolution.
1547:.\Generated_Source\PSoC4/CapSense_CSHL.c ****     *  noiseThreshold:  Noise threshold.
1548:.\Generated_Source\PSoC4/CapSense_CSHL.c ****     *
1549:.\Generated_Source\PSoC4/CapSense_CSHL.c ****     * Return:
1550:.\Generated_Source\PSoC4/CapSense_CSHL.c ****     *  Returns a position value of the slider.
1551:.\Generated_Source\PSoC4/CapSense_CSHL.c ****     *
1552:.\Generated_Source\PSoC4/CapSense_CSHL.c ****     * Side Effects:
1553:.\Generated_Source\PSoC4/CapSense_CSHL.c ****     *  None
1554:.\Generated_Source\PSoC4/CapSense_CSHL.c ****     *
1555:.\Generated_Source\PSoC4/CapSense_CSHL.c ****     *******************************************************************************/
1556:.\Generated_Source\PSoC4/CapSense_CSHL.c **** #if (CapSense_TOTAL_TRACKPAD_GESTURES_COUNT > 0u)
1557:.\Generated_Source\PSoC4/CapSense_CSHL.c ****     uint8 CapSense_CalcCentroid(uint8 maximum, uint8 offset,
1558:.\Generated_Source\PSoC4/CapSense_CSHL.c ****                                         uint8 count, uint32 resolution, uint8 noiseThreshold)
1559:.\Generated_Source\PSoC4/CapSense_CSHL.c **** #else
1560:.\Generated_Source\PSoC4/CapSense_CSHL.c ****     uint8 CapSense_CalcCentroid(uint8 maximum, uint8 offset,
1561:.\Generated_Source\PSoC4/CapSense_CSHL.c ****                                         uint8 count, uint16 resolution, uint8 noiseThreshold)
1562:.\Generated_Source\PSoC4/CapSense_CSHL.c **** #endif /* (CapSense_TOTAL_TRACKPAD_GESTURES_COUNT > 0u) */
1563:.\Generated_Source\PSoC4/CapSense_CSHL.c ****     {
 1023              		.loc 1 1563 0
 1024              		.cfi_startproc
 1025              	.LVL115:
 1026 0000 F0B5     		push	{r4, r5, r6, r7, lr}
 1027              		.cfi_def_cfa_offset 20
 1028              		.cfi_offset 4, -20
 1029              		.cfi_offset 5, -16
 1030              		.cfi_offset 6, -12
 1031              		.cfi_offset 7, -8
 1032              		.cfi_offset 14, -4
 1033 0002 83B0     		sub	sp, sp, #12
 1034              		.cfi_def_cfa_offset 32
 1035 0004 041C     		mov	r4, r0
 1036 0006 161C     		mov	r6, r2
 1037 0008 0193     		str	r3, [sp, #4]
 1038 000a 08AB     		add	r3, sp, #32
 1039              	.LVL116:
 1040 000c 1878     		ldrb	r0, [r3]
 1041              	.LVL117:
1564:.\Generated_Source\PSoC4/CapSense_CSHL.c ****         #if ((CapSense_TOTAL_LINEAR_SLIDERS_COUNT > 0u) || (CapSense_TOTAL_TOUCH_PADS_BASIC_COUNT >
1565:.\Generated_Source\PSoC4/CapSense_CSHL.c ****             uint8 posPrev;
1566:.\Generated_Source\PSoC4/CapSense_CSHL.c ****             uint8 posNext;
1567:.\Generated_Source\PSoC4/CapSense_CSHL.c ****         #endif /* ((CapSense_TOTAL_LINEAR_SLIDERS_COUNT>0u) || (CapSense_TOTAL_TOUCH_PADS_BASIC_COU
1568:.\Generated_Source\PSoC4/CapSense_CSHL.c **** 
1569:.\Generated_Source\PSoC4/CapSense_CSHL.c ****         /* Helps during centroid calculation */
ARM GAS  C:\Users\Terence\AppData\Local\Temp\cc6R4aDx.s 			page 47


1570:.\Generated_Source\PSoC4/CapSense_CSHL.c ****         #if (CapSense_TOTAL_CENTROIDS_BASIC_COUNT)
1571:.\Generated_Source\PSoC4/CapSense_CSHL.c ****             static uint8 CapSense_centroid[3u];
1572:.\Generated_Source\PSoC4/CapSense_CSHL.c ****         #endif  /* (CapSense_TOTAL_CENTROIDS_BASIC_COUNT) */
1573:.\Generated_Source\PSoC4/CapSense_CSHL.c **** 
1574:.\Generated_Source\PSoC4/CapSense_CSHL.c ****         #if (CapSense_IS_DIPLEX_SLIDER)
1575:.\Generated_Source\PSoC4/CapSense_CSHL.c ****             uint8 pos;
1576:.\Generated_Source\PSoC4/CapSense_CSHL.c ****         #endif /* (CapSense_IS_DIPLEX_SLIDER) */
1577:.\Generated_Source\PSoC4/CapSense_CSHL.c **** 
1578:.\Generated_Source\PSoC4/CapSense_CSHL.c ****         uint8 position;
1579:.\Generated_Source\PSoC4/CapSense_CSHL.c ****         uint32 numerator;
1580:.\Generated_Source\PSoC4/CapSense_CSHL.c ****         int32 denominator;
1581:.\Generated_Source\PSoC4/CapSense_CSHL.c **** 
1582:.\Generated_Source\PSoC4/CapSense_CSHL.c ****         uint8  *startOfSlider = &CapSense_sensorSignal[offset];
 1042              		.loc 1 1582 0
 1043 000e 334A     		ldr	r2, .L103
 1044              	.LVL118:
 1045 0010 131C     		mov	r3, r2
 1046              	.LVL119:
 1047 0012 2C33     		add	r3, r3, #44
 1048 0014 5B18     		add	r3, r3, r1
 1049              	.LVL120:
1583:.\Generated_Source\PSoC4/CapSense_CSHL.c **** 
1584:.\Generated_Source\PSoC4/CapSense_CSHL.c ****         #if ((CapSense_TOTAL_LINEAR_SLIDERS_COUNT > 0u) || (CapSense_TOTAL_TOUCH_PADS_BASIC_COUNT >
1585:.\Generated_Source\PSoC4/CapSense_CSHL.c ****             posPrev = 0u;
1586:.\Generated_Source\PSoC4/CapSense_CSHL.c ****         #endif /* ((CapSense_TOTAL_LINEAR_SLIDERS_COUNT>0u) || (CapSense_TOTAL_TOUCH_PADS_BASIC_COU
1587:.\Generated_Source\PSoC4/CapSense_CSHL.c **** 
1588:.\Generated_Source\PSoC4/CapSense_CSHL.c ****         #if (CapSense_ADD_SLIDER_TYPE)
1589:.\Generated_Source\PSoC4/CapSense_CSHL.c ****             if(type == CapSense_TYPE_RADIAL_SLIDER)
1590:.\Generated_Source\PSoC4/CapSense_CSHL.c ****             {
1591:.\Generated_Source\PSoC4/CapSense_CSHL.c ****         #endif /* (CapSense_ADD_SLIDER_TYPE) */
1592:.\Generated_Source\PSoC4/CapSense_CSHL.c **** 
1593:.\Generated_Source\PSoC4/CapSense_CSHL.c ****             #if (CapSense_TOTAL_RADIAL_SLIDERS_COUNT > 0u)
1594:.\Generated_Source\PSoC4/CapSense_CSHL.c ****                 /* Copy Signal to the centroid array */
1595:.\Generated_Source\PSoC4/CapSense_CSHL.c ****                 CapSense_centroid[CapSense_POS] = startOfSlider[maximum];
 1050              		.loc 1 1595 0
 1051 0016 1D5D     		ldrb	r5, [r3, r4]
 1052 0018 4832     		add	r2, r2, #72
 1053 001a 5570     		strb	r5, [r2, #1]
1596:.\Generated_Source\PSoC4/CapSense_CSHL.c **** 
1597:.\Generated_Source\PSoC4/CapSense_CSHL.c ****                 /* Check borders for ROTARY Slider */
1598:.\Generated_Source\PSoC4/CapSense_CSHL.c ****                 if (maximum == 0u)                   /* Start of centroid */
 1054              		.loc 1 1598 0
 1055 001c 002C     		cmp	r4, #0
 1056 001e 09D1     		bne	.L95
1599:.\Generated_Source\PSoC4/CapSense_CSHL.c ****                 {
1600:.\Generated_Source\PSoC4/CapSense_CSHL.c ****                     CapSense_centroid[CapSense_POS_PREV] = startOfSlider[count - 1u];
 1057              		.loc 1 1600 0
 1058 0020 9A19     		add	r2, r3, r6
 1059 0022 013A     		sub	r2, r2, #1
 1060 0024 1778     		ldrb	r7, [r2]
 1061 0026 2D4A     		ldr	r2, .L103
 1062 0028 4821     		mov	r1, #72
 1063              	.LVL121:
 1064 002a 5754     		strb	r7, [r2, r1]
1601:.\Generated_Source\PSoC4/CapSense_CSHL.c ****                     CapSense_centroid[CapSense_POS_NEXT] = startOfSlider[1u];
 1065              		.loc 1 1601 0
 1066 002c 4832     		add	r2, r2, #72
ARM GAS  C:\Users\Terence\AppData\Local\Temp\cc6R4aDx.s 			page 48


 1067 002e 5B78     		ldrb	r3, [r3, #1]
 1068              	.LVL122:
 1069 0030 9370     		strb	r3, [r2, #2]
 1070 0032 17E0     		b	.L96
 1071              	.LVL123:
 1072              	.L95:
1602:.\Generated_Source\PSoC4/CapSense_CSHL.c ****                 }
1603:.\Generated_Source\PSoC4/CapSense_CSHL.c ****                 else if (maximum == (count - 1u))    /* End of centroid */
 1073              		.loc 1 1603 0
 1074 0034 721E     		sub	r2, r6, #1
 1075 0036 9442     		cmp	r4, r2
 1076 0038 0BD1     		bne	.L97
1604:.\Generated_Source\PSoC4/CapSense_CSHL.c ****                 {
1605:.\Generated_Source\PSoC4/CapSense_CSHL.c ****                     CapSense_centroid[CapSense_POS_PREV] = startOfSlider[maximum - 1u];
 1077              		.loc 1 1605 0
 1078 003a 1B19     		add	r3, r3, r4
 1079              	.LVL124:
 1080 003c 013B     		sub	r3, r3, #1
 1081 003e 1F78     		ldrb	r7, [r3]
 1082 0040 264B     		ldr	r3, .L103
 1083              	.LVL125:
 1084 0042 4822     		mov	r2, #72
 1085 0044 9F54     		strb	r7, [r3, r2]
1606:.\Generated_Source\PSoC4/CapSense_CSHL.c ****                     CapSense_centroid[CapSense_POS_NEXT] = startOfSlider[0u];
 1086              		.loc 1 1606 0
 1087 0046 1A1C     		mov	r2, r3
 1088 0048 2C32     		add	r2, r2, #44
 1089              	.LVL126:
 1090 004a 525C     		ldrb	r2, [r2, r1]
 1091              	.LVL127:
 1092 004c 4833     		add	r3, r3, #72
 1093              	.LVL128:
 1094 004e 9A70     		strb	r2, [r3, #2]
 1095 0050 08E0     		b	.L96
 1096              	.LVL129:
 1097              	.L97:
1607:.\Generated_Source\PSoC4/CapSense_CSHL.c ****                 }
1608:.\Generated_Source\PSoC4/CapSense_CSHL.c ****                 else                                /* Not first Not last */
1609:.\Generated_Source\PSoC4/CapSense_CSHL.c ****                 {
1610:.\Generated_Source\PSoC4/CapSense_CSHL.c ****                     CapSense_centroid[CapSense_POS_PREV] = startOfSlider[maximum - 1u];
 1098              		.loc 1 1610 0
 1099 0052 1B19     		add	r3, r3, r4
 1100              	.LVL130:
 1101 0054 5A1E     		sub	r2, r3, #1
 1102 0056 1778     		ldrb	r7, [r2]
 1103 0058 204A     		ldr	r2, .L103
 1104              	.LVL131:
 1105 005a 4821     		mov	r1, #72
 1106              	.LVL132:
 1107 005c 5754     		strb	r7, [r2, r1]
1611:.\Generated_Source\PSoC4/CapSense_CSHL.c ****                     CapSense_centroid[CapSense_POS_NEXT] = startOfSlider[maximum + 1u];
 1108              		.loc 1 1611 0
 1109 005e 5B78     		ldrb	r3, [r3, #1]
 1110 0060 4832     		add	r2, r2, #72
 1111 0062 9370     		strb	r3, [r2, #2]
 1112              	.L96:
1612:.\Generated_Source\PSoC4/CapSense_CSHL.c ****                 }
ARM GAS  C:\Users\Terence\AppData\Local\Temp\cc6R4aDx.s 			page 49


1613:.\Generated_Source\PSoC4/CapSense_CSHL.c ****             #endif /* (CapSense_TOTAL_RADIAL_SLIDERS_COUNT > 0u) */
1614:.\Generated_Source\PSoC4/CapSense_CSHL.c **** 
1615:.\Generated_Source\PSoC4/CapSense_CSHL.c ****         #if (CapSense_ADD_SLIDER_TYPE)
1616:.\Generated_Source\PSoC4/CapSense_CSHL.c ****             }
1617:.\Generated_Source\PSoC4/CapSense_CSHL.c ****             else
1618:.\Generated_Source\PSoC4/CapSense_CSHL.c ****             {
1619:.\Generated_Source\PSoC4/CapSense_CSHL.c ****         #endif /* (CapSense_ADD_SLIDER_TYPE) */
1620:.\Generated_Source\PSoC4/CapSense_CSHL.c **** 
1621:.\Generated_Source\PSoC4/CapSense_CSHL.c ****             #if ((CapSense_TOTAL_LINEAR_SLIDERS_COUNT > 0u) || (CapSense_TOTAL_TOUCH_PADS_BASIC_COU
1622:.\Generated_Source\PSoC4/CapSense_CSHL.c ****                 #if (CapSense_IS_DIPLEX_SLIDER && CapSense_IS_NON_DIPLEX_SLIDER)
1623:.\Generated_Source\PSoC4/CapSense_CSHL.c ****                     /* Calculate next and previous near to maximum */
1624:.\Generated_Source\PSoC4/CapSense_CSHL.c ****                     if(diplex == 0u)
1625:.\Generated_Source\PSoC4/CapSense_CSHL.c ****                     {
1626:.\Generated_Source\PSoC4/CapSense_CSHL.c ****                         pos     = maximum;
1627:.\Generated_Source\PSoC4/CapSense_CSHL.c ****                         posPrev = maximum - 1u;
1628:.\Generated_Source\PSoC4/CapSense_CSHL.c ****                         posNext = maximum + 1u;
1629:.\Generated_Source\PSoC4/CapSense_CSHL.c ****                     }
1630:.\Generated_Source\PSoC4/CapSense_CSHL.c ****                     else
1631:.\Generated_Source\PSoC4/CapSense_CSHL.c ****                     {
1632:.\Generated_Source\PSoC4/CapSense_CSHL.c ****                         pos     = diplex[maximum];
1633:.\Generated_Source\PSoC4/CapSense_CSHL.c ****                         posPrev = diplex[maximum - 1u];
1634:.\Generated_Source\PSoC4/CapSense_CSHL.c ****                         posNext = diplex[maximum + 1u];
1635:.\Generated_Source\PSoC4/CapSense_CSHL.c ****                         count <<= 1u;
1636:.\Generated_Source\PSoC4/CapSense_CSHL.c ****                     }
1637:.\Generated_Source\PSoC4/CapSense_CSHL.c ****                 #elif (CapSense_IS_DIPLEX_SLIDER)
1638:.\Generated_Source\PSoC4/CapSense_CSHL.c ****                     /* Calculate next and previous near to maximum */
1639:.\Generated_Source\PSoC4/CapSense_CSHL.c ****                     pos     = diplex[maximum];
1640:.\Generated_Source\PSoC4/CapSense_CSHL.c ****                     posPrev = diplex[maximum - 1u];
1641:.\Generated_Source\PSoC4/CapSense_CSHL.c ****                     posNext = diplex[maximum + 1u];
1642:.\Generated_Source\PSoC4/CapSense_CSHL.c ****                     count <<= 1u;
1643:.\Generated_Source\PSoC4/CapSense_CSHL.c ****                 #else
1644:.\Generated_Source\PSoC4/CapSense_CSHL.c ****                     /* Calculate next and previous near to maximum */
1645:.\Generated_Source\PSoC4/CapSense_CSHL.c ****                     if (maximum >= 1u)
1646:.\Generated_Source\PSoC4/CapSense_CSHL.c ****                     {
1647:.\Generated_Source\PSoC4/CapSense_CSHL.c ****                         posPrev = maximum - 1u;
1648:.\Generated_Source\PSoC4/CapSense_CSHL.c ****                     }
1649:.\Generated_Source\PSoC4/CapSense_CSHL.c ****                     posNext = maximum + 1u;
1650:.\Generated_Source\PSoC4/CapSense_CSHL.c ****                 #endif /* (CapSense_IS_DIPLEX_SLIDER && CapSense_IS_NON_DIPLEX_SLIDER) */
1651:.\Generated_Source\PSoC4/CapSense_CSHL.c **** 
1652:.\Generated_Source\PSoC4/CapSense_CSHL.c ****                 /* Copy Signal to the centroid array */
1653:.\Generated_Source\PSoC4/CapSense_CSHL.c ****                 #if (CapSense_IS_DIPLEX_SLIDER)
1654:.\Generated_Source\PSoC4/CapSense_CSHL.c ****                     CapSense_centroid[CapSense_POS] = startOfSlider[pos];
1655:.\Generated_Source\PSoC4/CapSense_CSHL.c ****                 #else
1656:.\Generated_Source\PSoC4/CapSense_CSHL.c ****                     CapSense_centroid[CapSense_POS] = startOfSlider[maximum];
1657:.\Generated_Source\PSoC4/CapSense_CSHL.c ****                 #endif /* (CapSense_IS_DIPLEX_SLIDER) */
1658:.\Generated_Source\PSoC4/CapSense_CSHL.c **** 
1659:.\Generated_Source\PSoC4/CapSense_CSHL.c ****                 /* Check borders for LINEAR Slider */
1660:.\Generated_Source\PSoC4/CapSense_CSHL.c ****                 if (maximum == 0u)                   /* Start of centroid */
1661:.\Generated_Source\PSoC4/CapSense_CSHL.c ****                 {
1662:.\Generated_Source\PSoC4/CapSense_CSHL.c ****                     CapSense_centroid[CapSense_POS_PREV] = 0u;
1663:.\Generated_Source\PSoC4/CapSense_CSHL.c ****                     CapSense_centroid[CapSense_POS_NEXT] = startOfSlider[posNext];
1664:.\Generated_Source\PSoC4/CapSense_CSHL.c ****                 }
1665:.\Generated_Source\PSoC4/CapSense_CSHL.c ****                 else if (maximum == ((count) - 1u)) /* End of centroid */
1666:.\Generated_Source\PSoC4/CapSense_CSHL.c ****                 {
1667:.\Generated_Source\PSoC4/CapSense_CSHL.c ****                     CapSense_centroid[CapSense_POS_PREV] = startOfSlider[posPrev];
1668:.\Generated_Source\PSoC4/CapSense_CSHL.c ****                     CapSense_centroid[CapSense_POS_NEXT] = 0u;
1669:.\Generated_Source\PSoC4/CapSense_CSHL.c ****                 }
ARM GAS  C:\Users\Terence\AppData\Local\Temp\cc6R4aDx.s 			page 50


1670:.\Generated_Source\PSoC4/CapSense_CSHL.c ****                 else                                /* Not first Not last */
1671:.\Generated_Source\PSoC4/CapSense_CSHL.c ****                 {
1672:.\Generated_Source\PSoC4/CapSense_CSHL.c ****                     CapSense_centroid[CapSense_POS_PREV] = startOfSlider[posPrev];
1673:.\Generated_Source\PSoC4/CapSense_CSHL.c ****                     CapSense_centroid[CapSense_POS_NEXT] = startOfSlider[posNext];
1674:.\Generated_Source\PSoC4/CapSense_CSHL.c ****                 }
1675:.\Generated_Source\PSoC4/CapSense_CSHL.c ****             #endif /* ((CapSense_TOTAL_LINEAR_SLIDERS_COUNT>0u)||(CapSense_TOTAL_TOUCH_PADS_BASIC_C
1676:.\Generated_Source\PSoC4/CapSense_CSHL.c **** 
1677:.\Generated_Source\PSoC4/CapSense_CSHL.c ****         #if (CapSense_ADD_SLIDER_TYPE)
1678:.\Generated_Source\PSoC4/CapSense_CSHL.c ****             }
1679:.\Generated_Source\PSoC4/CapSense_CSHL.c ****         #endif /* (CapSense_ADD_SLIDER_TYPE) */
1680:.\Generated_Source\PSoC4/CapSense_CSHL.c **** 
1681:.\Generated_Source\PSoC4/CapSense_CSHL.c ****         /* Subtract noiseThreshold */
1682:.\Generated_Source\PSoC4/CapSense_CSHL.c ****         if(CapSense_centroid[CapSense_POS_PREV] > noiseThreshold)
 1113              		.loc 1 1682 0
 1114 0064 4823     		mov	r3, #72
 1115 0066 1D4A     		ldr	r2, .L103
 1116 0068 D35C     		ldrb	r3, [r2, r3]
 1117 006a 8342     		cmp	r3, r0
 1118 006c 04D9     		bls	.L98
1683:.\Generated_Source\PSoC4/CapSense_CSHL.c ****         {
1684:.\Generated_Source\PSoC4/CapSense_CSHL.c ****             CapSense_centroid[CapSense_POS_PREV] -= noiseThreshold;
 1119              		.loc 1 1684 0
 1120 006e 1B1A     		sub	r3, r3, r0
 1121 0070 4822     		mov	r2, #72
 1122 0072 1A49     		ldr	r1, .L103
 1123 0074 8B54     		strb	r3, [r1, r2]
 1124 0076 03E0     		b	.L99
 1125              	.L98:
1685:.\Generated_Source\PSoC4/CapSense_CSHL.c ****         }
1686:.\Generated_Source\PSoC4/CapSense_CSHL.c ****         else
1687:.\Generated_Source\PSoC4/CapSense_CSHL.c ****         {
1688:.\Generated_Source\PSoC4/CapSense_CSHL.c ****             CapSense_centroid[CapSense_POS_PREV] = 0u;
 1126              		.loc 1 1688 0
 1127 0078 0021     		mov	r1, #0
 1128 007a 4823     		mov	r3, #72
 1129 007c 174A     		ldr	r2, .L103
 1130 007e D154     		strb	r1, [r2, r3]
 1131              	.L99:
1689:.\Generated_Source\PSoC4/CapSense_CSHL.c ****         }
1690:.\Generated_Source\PSoC4/CapSense_CSHL.c **** 
1691:.\Generated_Source\PSoC4/CapSense_CSHL.c ****         /* Maximum always greater than fingerThreshold, so greater than noiseThreshold */
1692:.\Generated_Source\PSoC4/CapSense_CSHL.c ****         CapSense_centroid[CapSense_POS] -= noiseThreshold;
 1132              		.loc 1 1692 0
 1133 0080 164A     		ldr	r2, .L103
 1134 0082 4832     		add	r2, r2, #72
 1135 0084 5378     		ldrb	r3, [r2, #1]
 1136 0086 1B1A     		sub	r3, r3, r0
 1137 0088 DBB2     		uxtb	r3, r3
 1138 008a 5370     		strb	r3, [r2, #1]
1693:.\Generated_Source\PSoC4/CapSense_CSHL.c **** 
1694:.\Generated_Source\PSoC4/CapSense_CSHL.c ****         /* Subtract noiseThreshold */
1695:.\Generated_Source\PSoC4/CapSense_CSHL.c ****         if(CapSense_centroid[CapSense_POS_NEXT] > noiseThreshold)
 1139              		.loc 1 1695 0
 1140 008c 9278     		ldrb	r2, [r2, #2]
 1141 008e 8242     		cmp	r2, r0
 1142 0090 04D9     		bls	.L100
1696:.\Generated_Source\PSoC4/CapSense_CSHL.c ****         {
ARM GAS  C:\Users\Terence\AppData\Local\Temp\cc6R4aDx.s 			page 51


1697:.\Generated_Source\PSoC4/CapSense_CSHL.c ****             CapSense_centroid[CapSense_POS_NEXT] -= noiseThreshold;
 1143              		.loc 1 1697 0
 1144 0092 101A     		sub	r0, r2, r0
 1145 0094 114A     		ldr	r2, .L103
 1146 0096 4832     		add	r2, r2, #72
 1147 0098 9070     		strb	r0, [r2, #2]
 1148 009a 03E0     		b	.L101
 1149              	.L100:
1698:.\Generated_Source\PSoC4/CapSense_CSHL.c ****         }
1699:.\Generated_Source\PSoC4/CapSense_CSHL.c ****         else
1700:.\Generated_Source\PSoC4/CapSense_CSHL.c ****         {
1701:.\Generated_Source\PSoC4/CapSense_CSHL.c ****             CapSense_centroid[CapSense_POS_NEXT] = 0u;
 1150              		.loc 1 1701 0
 1151 009c 0021     		mov	r1, #0
 1152 009e 0F4A     		ldr	r2, .L103
 1153 00a0 4832     		add	r2, r2, #72
 1154 00a2 9170     		strb	r1, [r2, #2]
 1155              	.L101:
1702:.\Generated_Source\PSoC4/CapSense_CSHL.c ****         }
1703:.\Generated_Source\PSoC4/CapSense_CSHL.c **** 
1704:.\Generated_Source\PSoC4/CapSense_CSHL.c **** 
1705:.\Generated_Source\PSoC4/CapSense_CSHL.c ****         /* Si+1 - Si-1 */
1706:.\Generated_Source\PSoC4/CapSense_CSHL.c ****         numerator = (uint32) CapSense_centroid[CapSense_POS_NEXT] -
 1156              		.loc 1 1706 0
 1157 00a4 0D49     		ldr	r1, .L103
 1158 00a6 0A1C     		mov	r2, r1
 1159 00a8 4832     		add	r2, r2, #72
 1160 00aa 9278     		ldrb	r2, [r2, #2]
1707:.\Generated_Source\PSoC4/CapSense_CSHL.c ****                     (uint32) CapSense_centroid[CapSense_POS_PREV];
 1161              		.loc 1 1707 0
 1162 00ac 4820     		mov	r0, #72
 1163 00ae 095C     		ldrb	r1, [r1, r0]
1706:.\Generated_Source\PSoC4/CapSense_CSHL.c ****                     (uint32) CapSense_centroid[CapSense_POS_PREV];
 1164              		.loc 1 1706 0
 1165 00b0 501A     		sub	r0, r2, r1
 1166              	.LVL133:
1708:.\Generated_Source\PSoC4/CapSense_CSHL.c **** 
1709:.\Generated_Source\PSoC4/CapSense_CSHL.c ****         /* Si+1 + Si + Si-1 */
1710:.\Generated_Source\PSoC4/CapSense_CSHL.c ****         denominator = (int32) CapSense_centroid[CapSense_POS_PREV] +
 1167              		.loc 1 1710 0
 1168 00b2 C918     		add	r1, r1, r3
 1169 00b4 8918     		add	r1, r1, r2
 1170              	.LVL134:
1711:.\Generated_Source\PSoC4/CapSense_CSHL.c ****                       (int32) CapSense_centroid[CapSense_POS] +
1712:.\Generated_Source\PSoC4/CapSense_CSHL.c ****                       (int32) CapSense_centroid[CapSense_POS_NEXT];
1713:.\Generated_Source\PSoC4/CapSense_CSHL.c **** 
1714:.\Generated_Source\PSoC4/CapSense_CSHL.c ****         /* (numerator/denominator) + maximum */
1715:.\Generated_Source\PSoC4/CapSense_CSHL.c ****         denominator = (((int32)(uint32)((uint32)numerator << 8u)/denominator) + (int32)(uint32)((ui
 1171              		.loc 1 1715 0
 1172 00b6 0002     		lsl	r0, r0, #8
 1173              	.LVL135:
 1174 00b8 FFF7FEFF 		bl	__aeabi_idiv
 1175              	.LVL136:
 1176 00bc 2402     		lsl	r4, r4, #8
 1177              	.LVL137:
1716:.\Generated_Source\PSoC4/CapSense_CSHL.c **** 
1717:.\Generated_Source\PSoC4/CapSense_CSHL.c ****         #if(CapSense_TOTAL_RADIAL_SLIDERS_COUNT > 0u)
ARM GAS  C:\Users\Terence\AppData\Local\Temp\cc6R4aDx.s 			page 52


1718:.\Generated_Source\PSoC4/CapSense_CSHL.c ****             /* Only required for RADIAL Slider */
1719:.\Generated_Source\PSoC4/CapSense_CSHL.c ****             if(denominator < 0)
 1178              		.loc 1 1719 0
 1179 00be 0419     		add	r4, r0, r4
 1180 00c0 01D5     		bpl	.L102
 1181              	.LVL138:
1720:.\Generated_Source\PSoC4/CapSense_CSHL.c ****             {
1721:.\Generated_Source\PSoC4/CapSense_CSHL.c ****                 denominator += (int32)((uint16)((uint16) count << 8u));
 1182              		.loc 1 1721 0
 1183 00c2 3602     		lsl	r6, r6, #8
 1184 00c4 A419     		add	r4, r4, r6
 1185              	.LVL139:
 1186              	.L102:
1722:.\Generated_Source\PSoC4/CapSense_CSHL.c ****             }
1723:.\Generated_Source\PSoC4/CapSense_CSHL.c ****         #endif /* (CapSense_TOTAL_RADIAL_SLIDERS_COUNT > 0u) */
1724:.\Generated_Source\PSoC4/CapSense_CSHL.c **** 
1725:.\Generated_Source\PSoC4/CapSense_CSHL.c ****         denominator *= (int16)resolution;
 1187              		.loc 1 1725 0
 1188 00c6 6B46     		mov	r3, sp
 1189 00c8 0420     		mov	r0, #4
 1190 00ca 185E     		ldrsh	r0, [r3, r0]
 1191 00cc 4443     		mul	r4, r0
 1192              	.LVL140:
1726:.\Generated_Source\PSoC4/CapSense_CSHL.c **** 
1727:.\Generated_Source\PSoC4/CapSense_CSHL.c ****         /* Round result and put it to uint8 */
1728:.\Generated_Source\PSoC4/CapSense_CSHL.c ****         position = ((uint8) HI16((uint32)denominator + CapSense_CENTROID_ROUND_VALUE));
 1193              		.loc 1 1728 0
 1194 00ce FE23     		mov	r3, #254
 1195 00d0 DB01     		lsl	r3, r3, #7
 1196 00d2 E018     		add	r0, r4, r3
 1197 00d4 000C     		lsr	r0, r0, #16
 1198 00d6 C0B2     		uxtb	r0, r0
 1199              	.LVL141:
1729:.\Generated_Source\PSoC4/CapSense_CSHL.c **** 
1730:.\Generated_Source\PSoC4/CapSense_CSHL.c ****         return (position);
1731:.\Generated_Source\PSoC4/CapSense_CSHL.c ****     }
 1200              		.loc 1 1731 0
 1201 00d8 03B0     		add	sp, sp, #12
 1202              		@ sp needed
 1203              	.LVL142:
 1204 00da F0BD     		pop	{r4, r5, r6, r7, pc}
 1205              	.L104:
 1206              		.align	2
 1207              	.L103:
 1208 00dc 00000000 		.word	.LANCHOR0
 1209              		.cfi_endproc
 1210              	.LFE64:
 1211              		.size	CapSense_CalcCentroid, .-CapSense_CalcCentroid
 1212              		.section	.text.CapSense_GetCentroidPos,"ax",%progbits
 1213              		.align	2
 1214              		.global	CapSense_GetCentroidPos
 1215              		.code	16
 1216              		.thumb_func
 1217              		.type	CapSense_GetCentroidPos, %function
 1218              	CapSense_GetCentroidPos:
 1219              	.LFB65:
1732:.\Generated_Source\PSoC4/CapSense_CSHL.c **** #endif /* (CapSense_TOTAL_CENTROIDS_BASIC_COUNT) */
ARM GAS  C:\Users\Terence\AppData\Local\Temp\cc6R4aDx.s 			page 53


1733:.\Generated_Source\PSoC4/CapSense_CSHL.c **** 
1734:.\Generated_Source\PSoC4/CapSense_CSHL.c **** 
1735:.\Generated_Source\PSoC4/CapSense_CSHL.c **** #if((CapSense_TOTAL_RADIAL_SLIDERS_COUNT > 0u) || (CapSense_TOTAL_LINEAR_SLIDERS_COUNT > 0u))
1736:.\Generated_Source\PSoC4/CapSense_CSHL.c ****     /*******************************************************************************
1737:.\Generated_Source\PSoC4/CapSense_CSHL.c ****     * Function Name: CapSense_GetCentroidPos
1738:.\Generated_Source\PSoC4/CapSense_CSHL.c ****     ********************************************************************************
1739:.\Generated_Source\PSoC4/CapSense_CSHL.c ****     *
1740:.\Generated_Source\PSoC4/CapSense_CSHL.c ****     * Summary:
1741:.\Generated_Source\PSoC4/CapSense_CSHL.c ****     *  Checks the CapSense_Signal[ ] array for a centroid within
1742:.\Generated_Source\PSoC4/CapSense_CSHL.c ****     *  a slider specified range. The centroid position is calculated according to the resolution
1743:.\Generated_Source\PSoC4/CapSense_CSHL.c ****     *  specified in the CapSense customizer. The position filters are applied to the
1744:.\Generated_Source\PSoC4/CapSense_CSHL.c ****     *  result if enabled.
1745:.\Generated_Source\PSoC4/CapSense_CSHL.c ****     *
1746:.\Generated_Source\PSoC4/CapSense_CSHL.c ****     * Parameters:
1747:.\Generated_Source\PSoC4/CapSense_CSHL.c ****     *  widget:  Widget number.
1748:.\Generated_Source\PSoC4/CapSense_CSHL.c ****     *  For every linear slider widget there are defines in this format:
1749:.\Generated_Source\PSoC4/CapSense_CSHL.c ****     *  #define CapSense_"widget_name"__LS           5
1750:.\Generated_Source\PSoC4/CapSense_CSHL.c ****     *
1751:.\Generated_Source\PSoC4/CapSense_CSHL.c ****     * Return:
1752:.\Generated_Source\PSoC4/CapSense_CSHL.c ****     *  Returns a position value of the linear slider.
1753:.\Generated_Source\PSoC4/CapSense_CSHL.c ****     *
1754:.\Generated_Source\PSoC4/CapSense_CSHL.c ****     * Global Variables:
1755:.\Generated_Source\PSoC4/CapSense_CSHL.c ****     *  None
1756:.\Generated_Source\PSoC4/CapSense_CSHL.c ****     *
1757:.\Generated_Source\PSoC4/CapSense_CSHL.c ****     * Side Effects:
1758:.\Generated_Source\PSoC4/CapSense_CSHL.c ****     *  If any sensor within the slider widget is active, the function returns values
1759:.\Generated_Source\PSoC4/CapSense_CSHL.c ****     *  from zero to the API resolution value set in the CapSense customizer. If no
1760:.\Generated_Source\PSoC4/CapSense_CSHL.c ****     *  sensors are active, the function returns 0xFFFF. If an error occurs during
1761:.\Generated_Source\PSoC4/CapSense_CSHL.c ****     *  execution of the centroid/diplexing algorithm, the function returns 0xFFFF.
1762:.\Generated_Source\PSoC4/CapSense_CSHL.c ****     *  There are no checks of the widget type argument provided to this function.
1763:.\Generated_Source\PSoC4/CapSense_CSHL.c ****     *  The unproper widget type provided will cause unexpected position calculations.
1764:.\Generated_Source\PSoC4/CapSense_CSHL.c ****     *
1765:.\Generated_Source\PSoC4/CapSense_CSHL.c ****     * Note:
1766:.\Generated_Source\PSoC4/CapSense_CSHL.c ****     *  If noise counts on the slider segments are greater than the noise
1767:.\Generated_Source\PSoC4/CapSense_CSHL.c ****     *  threshold, this subroutine may generate a false centroid result. The noise
1768:.\Generated_Source\PSoC4/CapSense_CSHL.c ****     *  threshold should be set carefully (high enough above the noise level) so
1769:.\Generated_Source\PSoC4/CapSense_CSHL.c ****     *  that noise will not generate a false centroid.
1770:.\Generated_Source\PSoC4/CapSense_CSHL.c ****     *******************************************************************************/
1771:.\Generated_Source\PSoC4/CapSense_CSHL.c ****     uint16 CapSense_GetCentroidPos(uint32 widget)
1772:.\Generated_Source\PSoC4/CapSense_CSHL.c ****     {
 1220              		.loc 1 1772 0
 1221              		.cfi_startproc
 1222              	.LVL143:
 1223 0000 70B5     		push	{r4, r5, r6, lr}
 1224              		.cfi_def_cfa_offset 16
 1225              		.cfi_offset 4, -16
 1226              		.cfi_offset 5, -12
 1227              		.cfi_offset 6, -8
 1228              		.cfi_offset 14, -4
 1229 0002 82B0     		sub	sp, sp, #8
 1230              		.cfi_def_cfa_offset 24
 1231 0004 041C     		mov	r4, r0
1773:.\Generated_Source\PSoC4/CapSense_CSHL.c ****         #if (CapSense_IS_DIPLEX_SLIDER)
1774:.\Generated_Source\PSoC4/CapSense_CSHL.c ****             const uint8 *diplex;
1775:.\Generated_Source\PSoC4/CapSense_CSHL.c ****         #endif /* (CapSense_IS_DIPLEX_SLIDER) */
1776:.\Generated_Source\PSoC4/CapSense_CSHL.c **** 
1777:.\Generated_Source\PSoC4/CapSense_CSHL.c ****         #if (0u != CapSense_LINEAR_SLIDERS_POS_FILTERS_MASK)
ARM GAS  C:\Users\Terence\AppData\Local\Temp\cc6R4aDx.s 			page 54


1778:.\Generated_Source\PSoC4/CapSense_CSHL.c ****             uint8 posIndex;
1779:.\Generated_Source\PSoC4/CapSense_CSHL.c ****             uint8 firstTimeIndex = CapSense_posFiltersData[widget];
1780:.\Generated_Source\PSoC4/CapSense_CSHL.c ****             uint8 posFiltersMask = CapSense_posFiltersMask[widget];
1781:.\Generated_Source\PSoC4/CapSense_CSHL.c ****         #endif /* (0u != CapSense_LINEAR_SLIDERS_POS_FILTERS_MASK) */
1782:.\Generated_Source\PSoC4/CapSense_CSHL.c **** 
1783:.\Generated_Source\PSoC4/CapSense_CSHL.c ****         #if ((0u != (CapSense_MEDIAN_FILTER & CapSense_LINEAR_SLIDERS_POS_FILTERS_MASK)) || \
1784:.\Generated_Source\PSoC4/CapSense_CSHL.c ****              (0u != (CapSense_AVERAGING_FILTER & CapSense_LINEAR_SLIDERS_POS_FILTERS_MASK)))
1785:.\Generated_Source\PSoC4/CapSense_CSHL.c ****             uint8 tempPos;
1786:.\Generated_Source\PSoC4/CapSense_CSHL.c ****         #endif /* ((0u != (CapSense_MEDIAN_FILTER & CapSense_LINEAR_SLIDERS_POS_FILTERS_MASK)) || \
1787:.\Generated_Source\PSoC4/CapSense_CSHL.c ****                *   (0u != (CapSense_AVERAGING_FILTER & CapSense_LINEAR_SLIDERS_POS_FILTERS_MASK)))
1788:.\Generated_Source\PSoC4/CapSense_CSHL.c ****                */
1789:.\Generated_Source\PSoC4/CapSense_CSHL.c **** 
1790:.\Generated_Source\PSoC4/CapSense_CSHL.c ****         uint8 maximum;
1791:.\Generated_Source\PSoC4/CapSense_CSHL.c ****         uint16 position;
1792:.\Generated_Source\PSoC4/CapSense_CSHL.c ****         uint8 offset = CapSense_rawDataIndex[widget];
 1232              		.loc 1 1792 0
 1233 0006 0D4B     		ldr	r3, .L108
 1234 0008 1D5C     		ldrb	r5, [r3, r0]
 1235              	.LVL144:
1793:.\Generated_Source\PSoC4/CapSense_CSHL.c ****         uint8 count = CapSense_numberOfSensors[widget];
 1236              		.loc 1 1793 0
 1237 000a 1B18     		add	r3, r3, r0
 1238 000c 1E7A     		ldrb	r6, [r3, #8]
 1239              	.LVL145:
1794:.\Generated_Source\PSoC4/CapSense_CSHL.c **** 
1795:.\Generated_Source\PSoC4/CapSense_CSHL.c ****         #if (CapSense_IS_DIPLEX_SLIDER)
1796:.\Generated_Source\PSoC4/CapSense_CSHL.c ****             if(widget < CapSense_TOTAL_DIPLEXED_SLIDERS_COUNT)
1797:.\Generated_Source\PSoC4/CapSense_CSHL.c ****             {
1798:.\Generated_Source\PSoC4/CapSense_CSHL.c ****                 maximum = CapSense_diplexTable[widget];
1799:.\Generated_Source\PSoC4/CapSense_CSHL.c ****                 diplex = &CapSense_diplexTable[maximum];
1800:.\Generated_Source\PSoC4/CapSense_CSHL.c ****             }
1801:.\Generated_Source\PSoC4/CapSense_CSHL.c ****             else
1802:.\Generated_Source\PSoC4/CapSense_CSHL.c ****             {
1803:.\Generated_Source\PSoC4/CapSense_CSHL.c ****                 diplex = 0u;
1804:.\Generated_Source\PSoC4/CapSense_CSHL.c ****             }
1805:.\Generated_Source\PSoC4/CapSense_CSHL.c ****         #endif /* (CapSense_IS_DIPLEX_SLIDER) */
1806:.\Generated_Source\PSoC4/CapSense_CSHL.c **** 
1807:.\Generated_Source\PSoC4/CapSense_CSHL.c ****         /* Find Maximum within centroid */
1808:.\Generated_Source\PSoC4/CapSense_CSHL.c ****         #if (CapSense_IS_DIPLEX_SLIDER)
1809:.\Generated_Source\PSoC4/CapSense_CSHL.c ****             maximum = CapSense_FindMaximum(offset, count, (uint8)CapSense_fingerThreshold[widget], 
1810:.\Generated_Source\PSoC4/CapSense_CSHL.c ****         #else
1811:.\Generated_Source\PSoC4/CapSense_CSHL.c ****             maximum = CapSense_FindMaximum(offset, count, (uint8)CapSense_fingerThreshold[widget]);
 1240              		.loc 1 1811 0
 1241 000e 0C4B     		ldr	r3, .L108+4
 1242 0010 1B18     		add	r3, r3, r0
 1243 0012 1A7A     		ldrb	r2, [r3, #8]
 1244 0014 281C     		mov	r0, r5
 1245              	.LVL146:
 1246 0016 311C     		mov	r1, r6
 1247 0018 FFF7FEFF 		bl	CapSense_FindMaximum
 1248              	.LVL147:
1812:.\Generated_Source\PSoC4/CapSense_CSHL.c ****         #endif /* (CapSense_IS_DIPLEX_SLIDER) */
1813:.\Generated_Source\PSoC4/CapSense_CSHL.c **** 
1814:.\Generated_Source\PSoC4/CapSense_CSHL.c ****         if (maximum != 0xFFu)
 1249              		.loc 1 1814 0
 1250 001c FF28     		cmp	r0, #255
 1251 001e 0AD0     		beq	.L107
ARM GAS  C:\Users\Terence\AppData\Local\Temp\cc6R4aDx.s 			page 55


1815:.\Generated_Source\PSoC4/CapSense_CSHL.c ****         {
1816:.\Generated_Source\PSoC4/CapSense_CSHL.c ****             /* Calculate centroid */
1817:.\Generated_Source\PSoC4/CapSense_CSHL.c ****             position = (uint16) CapSense_CalcCentroid(maximum,
 1252              		.loc 1 1817 0
 1253 0020 084B     		ldr	r3, .L108+8
 1254 0022 1B5D     		ldrb	r3, [r3, r4]
 1255 0024 0093     		str	r3, [sp]
 1256 0026 291C     		mov	r1, r5
 1257 0028 321C     		mov	r2, r6
 1258 002a C823     		mov	r3, #200
 1259 002c 5B01     		lsl	r3, r3, #5
 1260 002e FFF7FEFF 		bl	CapSense_CalcCentroid
 1261              	.LVL148:
 1262 0032 80B2     		uxth	r0, r0
 1263              	.LVL149:
 1264 0034 00E0     		b	.L106
 1265              	.LVL150:
 1266              	.L107:
1818:.\Generated_Source\PSoC4/CapSense_CSHL.c ****                          offset, count, CapSense_centroidMult[widget], CapSense_noiseThreshold[widg
1819:.\Generated_Source\PSoC4/CapSense_CSHL.c **** 
1820:.\Generated_Source\PSoC4/CapSense_CSHL.c ****             #if (0u != CapSense_LINEAR_SLIDERS_POS_FILTERS_MASK)
1821:.\Generated_Source\PSoC4/CapSense_CSHL.c ****                 /* Check if this linear slider has enabled filters */
1822:.\Generated_Source\PSoC4/CapSense_CSHL.c ****                 if (0u != (posFiltersMask & CapSense_ANY_POS_FILTER))
1823:.\Generated_Source\PSoC4/CapSense_CSHL.c ****                 {
1824:.\Generated_Source\PSoC4/CapSense_CSHL.c ****                     /* Calculate position to store filters data */
1825:.\Generated_Source\PSoC4/CapSense_CSHL.c ****                     posIndex  = firstTimeIndex + 1u;
1826:.\Generated_Source\PSoC4/CapSense_CSHL.c **** 
1827:.\Generated_Source\PSoC4/CapSense_CSHL.c ****                     if (0u == CapSense_posFiltersData[firstTimeIndex])
1828:.\Generated_Source\PSoC4/CapSense_CSHL.c ****                     {
1829:.\Generated_Source\PSoC4/CapSense_CSHL.c ****                         /* Init filters */
1830:.\Generated_Source\PSoC4/CapSense_CSHL.c ****                         CapSense_posFiltersData[posIndex] = (uint8) position;
1831:.\Generated_Source\PSoC4/CapSense_CSHL.c ****                         #if ((0u != (CapSense_MEDIAN_FILTER & \
1832:.\Generated_Source\PSoC4/CapSense_CSHL.c ****                                      CapSense_LINEAR_SLIDERS_POS_FILTERS_MASK)) || \
1833:.\Generated_Source\PSoC4/CapSense_CSHL.c ****                              (0u != (CapSense_AVERAGING_FILTER & \
1834:.\Generated_Source\PSoC4/CapSense_CSHL.c ****                                      CapSense_LINEAR_SLIDERS_POS_FILTERS_MASK)))
1835:.\Generated_Source\PSoC4/CapSense_CSHL.c **** 
1836:.\Generated_Source\PSoC4/CapSense_CSHL.c ****                             if ( (0u != (posFiltersMask & CapSense_MEDIAN_FILTER)) ||
1837:.\Generated_Source\PSoC4/CapSense_CSHL.c ****                                  (0u != (posFiltersMask & CapSense_AVERAGING_FILTER)) )
1838:.\Generated_Source\PSoC4/CapSense_CSHL.c ****                             {
1839:.\Generated_Source\PSoC4/CapSense_CSHL.c ****                                 CapSense_posFiltersData[posIndex + 1u] = (uint8) position;
1840:.\Generated_Source\PSoC4/CapSense_CSHL.c ****                             }
1841:.\Generated_Source\PSoC4/CapSense_CSHL.c ****                         #endif /* ((0u != (CapSense_MEDIAN_FILTER & \
1842:.\Generated_Source\PSoC4/CapSense_CSHL.c ****                                *           CapSense_LINEAR_SLIDERS_POS_FILTERS_MASK)) || \
1843:.\Generated_Source\PSoC4/CapSense_CSHL.c ****                                *   (0u != (CapSense_AVERAGING_FILTER & \
1844:.\Generated_Source\PSoC4/CapSense_CSHL.c ****                                *           CapSense_LINEAR_SLIDERS_POS_FILTERS_MASK)))
1845:.\Generated_Source\PSoC4/CapSense_CSHL.c ****                                */
1846:.\Generated_Source\PSoC4/CapSense_CSHL.c **** 
1847:.\Generated_Source\PSoC4/CapSense_CSHL.c ****                         CapSense_posFiltersData[firstTimeIndex] = 1u;
1848:.\Generated_Source\PSoC4/CapSense_CSHL.c ****                     }
1849:.\Generated_Source\PSoC4/CapSense_CSHL.c ****                     else
1850:.\Generated_Source\PSoC4/CapSense_CSHL.c ****                     {
1851:.\Generated_Source\PSoC4/CapSense_CSHL.c ****                         /* Do filtering */
1852:.\Generated_Source\PSoC4/CapSense_CSHL.c ****                         #if (0u != (CapSense_MEDIAN_FILTER & CapSense_LINEAR_SLIDERS_POS_FILTERS_MA
1853:.\Generated_Source\PSoC4/CapSense_CSHL.c ****                             if (0u != (posFiltersMask & CapSense_MEDIAN_FILTER))
1854:.\Generated_Source\PSoC4/CapSense_CSHL.c ****                             {
1855:.\Generated_Source\PSoC4/CapSense_CSHL.c ****                                 tempPos = (uint8) position;
1856:.\Generated_Source\PSoC4/CapSense_CSHL.c ****                                 position = CapSense_MedianFilter(position,
ARM GAS  C:\Users\Terence\AppData\Local\Temp\cc6R4aDx.s 			page 56


1857:.\Generated_Source\PSoC4/CapSense_CSHL.c ****                                                                 (uint16)CapSense_posFiltersData[pos
1858:.\Generated_Source\PSoC4/CapSense_CSHL.c ****                                                                 (uint16)CapSense_posFiltersData[pos
1859:.\Generated_Source\PSoC4/CapSense_CSHL.c ****                                 CapSense_posFiltersData[posIndex + 1u] =
1860:.\Generated_Source\PSoC4/CapSense_CSHL.c ****                                                                              CapSense_posFiltersDat
1861:.\Generated_Source\PSoC4/CapSense_CSHL.c ****                                 CapSense_posFiltersData[posIndex] = tempPos;
1862:.\Generated_Source\PSoC4/CapSense_CSHL.c ****                             }
1863:.\Generated_Source\PSoC4/CapSense_CSHL.c ****                         #endif /*(0u != (CapSense_MEDIAN_FILTER &
1864:.\Generated_Source\PSoC4/CapSense_CSHL.c ****                                *         CapSense_LINEAR_SLIDERS_POS_FILTERS_MASK))
1865:.\Generated_Source\PSoC4/CapSense_CSHL.c ****                                */
1866:.\Generated_Source\PSoC4/CapSense_CSHL.c **** 
1867:.\Generated_Source\PSoC4/CapSense_CSHL.c ****                         #if(0u!=(CapSense_AVERAGING_FILTER & CapSense_LINEAR_SLIDERS_POS_FILTERS_MA
1868:.\Generated_Source\PSoC4/CapSense_CSHL.c ****                             if (0u != (posFiltersMask & CapSense_AVERAGING_FILTER))
1869:.\Generated_Source\PSoC4/CapSense_CSHL.c ****                             {
1870:.\Generated_Source\PSoC4/CapSense_CSHL.c ****                                 tempPos = (uint8) position;
1871:.\Generated_Source\PSoC4/CapSense_CSHL.c ****                                 position = CapSense_AveragingFilter(position,
1872:.\Generated_Source\PSoC4/CapSense_CSHL.c ****                                                                 (uint16)CapSense_posFiltersData[pos
1873:.\Generated_Source\PSoC4/CapSense_CSHL.c ****                                                                 (uint16)CapSense_posFiltersData[pos
1874:.\Generated_Source\PSoC4/CapSense_CSHL.c ****                                 CapSense_posFiltersData[posIndex+1u]=CapSense_posFiltersData[posInd
1875:.\Generated_Source\PSoC4/CapSense_CSHL.c ****                                 CapSense_posFiltersData[posIndex] = tempPos;
1876:.\Generated_Source\PSoC4/CapSense_CSHL.c ****                             }
1877:.\Generated_Source\PSoC4/CapSense_CSHL.c ****                         #endif /* (0u != (CapSense_AVERAGING_FILTER & \
1878:.\Generated_Source\PSoC4/CapSense_CSHL.c ****                                *           CapSense_LINEAR_SLIDERS_POS_FILTERS_MASK))
1879:.\Generated_Source\PSoC4/CapSense_CSHL.c ****                                */
1880:.\Generated_Source\PSoC4/CapSense_CSHL.c **** 
1881:.\Generated_Source\PSoC4/CapSense_CSHL.c ****                         #if (0u != (CapSense_IIR2_FILTER & CapSense_LINEAR_SLIDERS_POS_FILTERS_MASK
1882:.\Generated_Source\PSoC4/CapSense_CSHL.c ****                             if (0u != (posFiltersMask & CapSense_IIR2_FILTER))
1883:.\Generated_Source\PSoC4/CapSense_CSHL.c ****                             {
1884:.\Generated_Source\PSoC4/CapSense_CSHL.c ****                                 position = CapSense_IIR2Filter(position,
1885:.\Generated_Source\PSoC4/CapSense_CSHL.c ****                                                                     (uint16)CapSense_posFiltersData
1886:.\Generated_Source\PSoC4/CapSense_CSHL.c ****                                 CapSense_posFiltersData[posIndex] = (uint8) position;
1887:.\Generated_Source\PSoC4/CapSense_CSHL.c ****                             }
1888:.\Generated_Source\PSoC4/CapSense_CSHL.c ****                         #endif /* (0u != (CapSense_IIR2_FILTER & \
1889:.\Generated_Source\PSoC4/CapSense_CSHL.c ****                                *          CapSense_LINEAR_SLIDERS_POS_FILTERS_MASK))
1890:.\Generated_Source\PSoC4/CapSense_CSHL.c ****                                */
1891:.\Generated_Source\PSoC4/CapSense_CSHL.c **** 
1892:.\Generated_Source\PSoC4/CapSense_CSHL.c ****                         #if (0u != (CapSense_IIR4_FILTER & CapSense_LINEAR_SLIDERS_POS_FILTERS_MASK
1893:.\Generated_Source\PSoC4/CapSense_CSHL.c ****                             if (0u != (posFiltersMask & CapSense_IIR4_FILTER))
1894:.\Generated_Source\PSoC4/CapSense_CSHL.c ****                             {
1895:.\Generated_Source\PSoC4/CapSense_CSHL.c ****                                 position = CapSense_IIR4Filter(position,
1896:.\Generated_Source\PSoC4/CapSense_CSHL.c ****                                                                     (uint16)CapSense_posFiltersData
1897:.\Generated_Source\PSoC4/CapSense_CSHL.c ****                                 CapSense_posFiltersData[posIndex] = (uint8) position;
1898:.\Generated_Source\PSoC4/CapSense_CSHL.c ****                             }
1899:.\Generated_Source\PSoC4/CapSense_CSHL.c ****                         #endif /* (0u != (CapSense_IIR4_FILTER & \
1900:.\Generated_Source\PSoC4/CapSense_CSHL.c ****                                *          CapSense_LINEAR_SLIDERS_POS_FILTERS_MASK))
1901:.\Generated_Source\PSoC4/CapSense_CSHL.c ****                                */
1902:.\Generated_Source\PSoC4/CapSense_CSHL.c **** 
1903:.\Generated_Source\PSoC4/CapSense_CSHL.c ****                         #if (0u != (CapSense_JITTER_FILTER & CapSense_LINEAR_SLIDERS_POS_FILTERS_MA
1904:.\Generated_Source\PSoC4/CapSense_CSHL.c ****                             if (0u != (posFiltersMask & CapSense_JITTER_FILTER))
1905:.\Generated_Source\PSoC4/CapSense_CSHL.c ****                             {
1906:.\Generated_Source\PSoC4/CapSense_CSHL.c ****                                 position = CapSense_JitterFilter(position,
1907:.\Generated_Source\PSoC4/CapSense_CSHL.c ****                                                                     (uint16)CapSense_posFiltersData
1908:.\Generated_Source\PSoC4/CapSense_CSHL.c ****                                 CapSense_posFiltersData[posIndex] = (uint8) position;
1909:.\Generated_Source\PSoC4/CapSense_CSHL.c ****                             }
1910:.\Generated_Source\PSoC4/CapSense_CSHL.c ****                         #endif /* (0u != (CapSense_JITTER_FILTER & \
1911:.\Generated_Source\PSoC4/CapSense_CSHL.c ****                                *           CapSense_LINEAR_SLIDERS_POS_FILTERS_MASK))
1912:.\Generated_Source\PSoC4/CapSense_CSHL.c ****                                */
1913:.\Generated_Source\PSoC4/CapSense_CSHL.c ****                     }
ARM GAS  C:\Users\Terence\AppData\Local\Temp\cc6R4aDx.s 			page 57


1914:.\Generated_Source\PSoC4/CapSense_CSHL.c ****                 }
1915:.\Generated_Source\PSoC4/CapSense_CSHL.c ****             #endif /* (0u != CapSense_LINEAR_SLIDERS_POS_FILTERS_MASK) */
1916:.\Generated_Source\PSoC4/CapSense_CSHL.c **** 
1917:.\Generated_Source\PSoC4/CapSense_CSHL.c ****         }
1918:.\Generated_Source\PSoC4/CapSense_CSHL.c ****         else
1919:.\Generated_Source\PSoC4/CapSense_CSHL.c ****         {
1920:.\Generated_Source\PSoC4/CapSense_CSHL.c ****             /* Maximum wasn't found */
1921:.\Generated_Source\PSoC4/CapSense_CSHL.c ****             position = 0xFFFFu;
 1267              		.loc 1 1921 0
 1268 0036 0448     		ldr	r0, .L108+12
 1269              	.LVL151:
 1270              	.L106:
1922:.\Generated_Source\PSoC4/CapSense_CSHL.c **** 
1923:.\Generated_Source\PSoC4/CapSense_CSHL.c ****             #if(0u != CapSense_LINEAR_SLIDERS_POS_FILTERS_MASK)
1924:.\Generated_Source\PSoC4/CapSense_CSHL.c ****                 /* Reset filters */
1925:.\Generated_Source\PSoC4/CapSense_CSHL.c ****                 if(0u != (posFiltersMask & CapSense_ANY_POS_FILTER))
1926:.\Generated_Source\PSoC4/CapSense_CSHL.c ****                 {
1927:.\Generated_Source\PSoC4/CapSense_CSHL.c ****                     CapSense_posFiltersData[firstTimeIndex] = 0u;
1928:.\Generated_Source\PSoC4/CapSense_CSHL.c ****                 }
1929:.\Generated_Source\PSoC4/CapSense_CSHL.c ****             #endif /* (0u != CapSense_LINEAR_SLIDERS_POS_FILTERS_MASK) */
1930:.\Generated_Source\PSoC4/CapSense_CSHL.c ****         }
1931:.\Generated_Source\PSoC4/CapSense_CSHL.c **** 
1932:.\Generated_Source\PSoC4/CapSense_CSHL.c **** 
1933:.\Generated_Source\PSoC4/CapSense_CSHL.c ****         return (position);
1934:.\Generated_Source\PSoC4/CapSense_CSHL.c ****     }
 1271              		.loc 1 1934 0
 1272 0038 02B0     		add	sp, sp, #8
 1273              		@ sp needed
 1274              	.LVL152:
 1275              	.LVL153:
 1276              	.LVL154:
 1277 003a 70BD     		pop	{r4, r5, r6, pc}
 1278              	.L109:
 1279              		.align	2
 1280              	.L108:
 1281 003c 00000000 		.word	.LANCHOR2
 1282 0040 00000000 		.word	.LANCHOR1
 1283 0044 00000000 		.word	CapSense_noiseThreshold
 1284 0048 FFFF0000 		.word	65535
 1285              		.cfi_endproc
 1286              	.LFE65:
 1287              		.size	CapSense_GetCentroidPos, .-CapSense_GetCentroidPos
 1288              		.section	.text.CapSense_MedianFilter,"ax",%progbits
 1289              		.align	2
 1290              		.global	CapSense_MedianFilter
 1291              		.code	16
 1292              		.thumb_func
 1293              		.type	CapSense_MedianFilter, %function
 1294              	CapSense_MedianFilter:
 1295              	.LFB67:
1935:.\Generated_Source\PSoC4/CapSense_CSHL.c **** #endif /* ((CapSense_TOTAL_RADIAL_SLIDERS_COUNT > 0u) || (CapSense_TOTAL_LINEAR_SLIDERS_COUNT > 0u)
1936:.\Generated_Source\PSoC4/CapSense_CSHL.c **** 
1937:.\Generated_Source\PSoC4/CapSense_CSHL.c **** 
1938:.\Generated_Source\PSoC4/CapSense_CSHL.c **** #if((CapSense_TOTAL_RADIAL_SLIDERS_COUNT > 0u) || (CapSense_TOTAL_LINEAR_SLIDERS_COUNT > 0u))
1939:.\Generated_Source\PSoC4/CapSense_CSHL.c ****     /*******************************************************************************
1940:.\Generated_Source\PSoC4/CapSense_CSHL.c ****     * Function Name: CapSense_GetRadialCentroidPos
1941:.\Generated_Source\PSoC4/CapSense_CSHL.c ****     ********************************************************************************
ARM GAS  C:\Users\Terence\AppData\Local\Temp\cc6R4aDx.s 			page 58


1942:.\Generated_Source\PSoC4/CapSense_CSHL.c ****     *
1943:.\Generated_Source\PSoC4/CapSense_CSHL.c ****     * Summary:
1944:.\Generated_Source\PSoC4/CapSense_CSHL.c ****     *  Checks the CapSense_Signal[ ] array for a centroid within
1945:.\Generated_Source\PSoC4/CapSense_CSHL.c ****     *  a slider specified range. The centroid position is calculated according to the resolution
1946:.\Generated_Source\PSoC4/CapSense_CSHL.c ****     *  specified in the CapSense customizer. The position filters are applied to the
1947:.\Generated_Source\PSoC4/CapSense_CSHL.c ****     *  result if enabled.
1948:.\Generated_Source\PSoC4/CapSense_CSHL.c ****     *
1949:.\Generated_Source\PSoC4/CapSense_CSHL.c ****     * Parameters:
1950:.\Generated_Source\PSoC4/CapSense_CSHL.c ****     *  widget:  Widget number.
1951:.\Generated_Source\PSoC4/CapSense_CSHL.c ****     *  For every radial slider widget there are defines in this format:
1952:.\Generated_Source\PSoC4/CapSense_CSHL.c ****     *  #define CapSense_"widget_name"__RS           5
1953:.\Generated_Source\PSoC4/CapSense_CSHL.c ****     *
1954:.\Generated_Source\PSoC4/CapSense_CSHL.c ****     * Return:
1955:.\Generated_Source\PSoC4/CapSense_CSHL.c ****     *  Returns a position value of the radial slider.
1956:.\Generated_Source\PSoC4/CapSense_CSHL.c ****     *
1957:.\Generated_Source\PSoC4/CapSense_CSHL.c ****     * Global Variables:
1958:.\Generated_Source\PSoC4/CapSense_CSHL.c ****     *  None.
1959:.\Generated_Source\PSoC4/CapSense_CSHL.c ****     *
1960:.\Generated_Source\PSoC4/CapSense_CSHL.c ****     * Side Effects:
1961:.\Generated_Source\PSoC4/CapSense_CSHL.c ****     *  If any sensor within the slider widget is active, the function returns values
1962:.\Generated_Source\PSoC4/CapSense_CSHL.c ****     *  from zero to the API resolution value set in the CapSense customizer. If no
1963:.\Generated_Source\PSoC4/CapSense_CSHL.c ****     *  sensors are active, the function returns 0xFFFF.
1964:.\Generated_Source\PSoC4/CapSense_CSHL.c ****     *  There are no checks of the widget type argument provided to this function.
1965:.\Generated_Source\PSoC4/CapSense_CSHL.c ****     *  The unproper widget type provided will cause unexpected position calculations.
1966:.\Generated_Source\PSoC4/CapSense_CSHL.c ****     *
1967:.\Generated_Source\PSoC4/CapSense_CSHL.c ****     * Note:
1968:.\Generated_Source\PSoC4/CapSense_CSHL.c ****     *  If noise counts on the slider segments are greater than the noise
1969:.\Generated_Source\PSoC4/CapSense_CSHL.c ****     *  threshold, this subroutine may generate a false centroid result. The noise
1970:.\Generated_Source\PSoC4/CapSense_CSHL.c ****     *  threshold should be set carefully (high enough above the noise level) so
1971:.\Generated_Source\PSoC4/CapSense_CSHL.c ****     *  that noise will not generate a false centroid.
1972:.\Generated_Source\PSoC4/CapSense_CSHL.c ****     *
1973:.\Generated_Source\PSoC4/CapSense_CSHL.c ****     *******************************************************************************/
1974:.\Generated_Source\PSoC4/CapSense_CSHL.c ****      uint16 CapSense_GetRadialCentroidPos(uint32 widget)
1975:.\Generated_Source\PSoC4/CapSense_CSHL.c ****     {
1976:.\Generated_Source\PSoC4/CapSense_CSHL.c ****         #if (0u != CapSense_RADIAL_SLIDERS_POS_FILTERS_MASK)
1977:.\Generated_Source\PSoC4/CapSense_CSHL.c ****             uint8 posIndex;
1978:.\Generated_Source\PSoC4/CapSense_CSHL.c ****             uint8 firstTimeIndex = CapSense_posFiltersData[widget];
1979:.\Generated_Source\PSoC4/CapSense_CSHL.c ****             uint8 posFiltersMask = CapSense_posFiltersMask[widget];
1980:.\Generated_Source\PSoC4/CapSense_CSHL.c ****         #endif /* (0u != CapSense_RADIAL_SLIDERS_POS_FILTERS_MASK) */
1981:.\Generated_Source\PSoC4/CapSense_CSHL.c **** 
1982:.\Generated_Source\PSoC4/CapSense_CSHL.c ****         #if ((0u != (CapSense_MEDIAN_FILTER & CapSense_RADIAL_SLIDERS_POS_FILTERS_MASK)) || \
1983:.\Generated_Source\PSoC4/CapSense_CSHL.c ****              (0u != (CapSense_AVERAGING_FILTER & CapSense_RADIAL_SLIDERS_POS_FILTERS_MASK)))
1984:.\Generated_Source\PSoC4/CapSense_CSHL.c ****             uint8 tempPos;
1985:.\Generated_Source\PSoC4/CapSense_CSHL.c ****         #endif /* ((0u != (CapSense_MEDIAN_FILTER & CapSense_RADIAL_SLIDERS_POS_FILTERS_MASK)) || \
1986:.\Generated_Source\PSoC4/CapSense_CSHL.c ****                *   (0u != (CapSense_AVERAGING_FILTER & CapSense_RADIAL_SLIDERS_POS_FILTERS_MASK)))
1987:.\Generated_Source\PSoC4/CapSense_CSHL.c ****                */
1988:.\Generated_Source\PSoC4/CapSense_CSHL.c **** 
1989:.\Generated_Source\PSoC4/CapSense_CSHL.c ****         uint8 maximum;
1990:.\Generated_Source\PSoC4/CapSense_CSHL.c ****         uint16 position;
1991:.\Generated_Source\PSoC4/CapSense_CSHL.c ****         uint8 offset = CapSense_rawDataIndex[widget];
1992:.\Generated_Source\PSoC4/CapSense_CSHL.c ****         uint8 count = CapSense_numberOfSensors[widget];
1993:.\Generated_Source\PSoC4/CapSense_CSHL.c **** 
1994:.\Generated_Source\PSoC4/CapSense_CSHL.c ****         /* Find Maximum within centroid */
1995:.\Generated_Source\PSoC4/CapSense_CSHL.c ****         #if (CapSense_IS_DIPLEX_SLIDER)
1996:.\Generated_Source\PSoC4/CapSense_CSHL.c ****             maximum = CapSense_FindMaximum(offset, count, (uint8)CapSense_fingerThreshold[widget], 
1997:.\Generated_Source\PSoC4/CapSense_CSHL.c ****         #else
1998:.\Generated_Source\PSoC4/CapSense_CSHL.c ****             maximum = CapSense_FindMaximum(offset, count, (uint8)CapSense_fingerThreshold[widget]);
ARM GAS  C:\Users\Terence\AppData\Local\Temp\cc6R4aDx.s 			page 59


1999:.\Generated_Source\PSoC4/CapSense_CSHL.c ****         #endif /* (CapSense_IS_DIPLEX_SLIDER) */
2000:.\Generated_Source\PSoC4/CapSense_CSHL.c **** 
2001:.\Generated_Source\PSoC4/CapSense_CSHL.c ****         if (maximum != CapSense_MAXIMUM_CENTROID)
2002:.\Generated_Source\PSoC4/CapSense_CSHL.c ****         {
2003:.\Generated_Source\PSoC4/CapSense_CSHL.c ****             /* Calculate centroid */
2004:.\Generated_Source\PSoC4/CapSense_CSHL.c ****             position = (uint16) CapSense_CalcCentroid(maximum,
2005:.\Generated_Source\PSoC4/CapSense_CSHL.c ****                          offset, count, CapSense_centroidMult[widget], CapSense_noiseThreshold[widg
2006:.\Generated_Source\PSoC4/CapSense_CSHL.c **** 
2007:.\Generated_Source\PSoC4/CapSense_CSHL.c ****             #if (0u != CapSense_RADIAL_SLIDERS_POS_FILTERS_MASK)
2008:.\Generated_Source\PSoC4/CapSense_CSHL.c ****                 /* Check if this Radial slider has enabled filters */
2009:.\Generated_Source\PSoC4/CapSense_CSHL.c ****                 if (0u != (posFiltersMask & CapSense_ANY_POS_FILTER))
2010:.\Generated_Source\PSoC4/CapSense_CSHL.c ****                 {
2011:.\Generated_Source\PSoC4/CapSense_CSHL.c ****                     /* Calculate position to store filters data */
2012:.\Generated_Source\PSoC4/CapSense_CSHL.c ****                     posIndex  = firstTimeIndex + 1u;
2013:.\Generated_Source\PSoC4/CapSense_CSHL.c **** 
2014:.\Generated_Source\PSoC4/CapSense_CSHL.c ****                     if (0u == CapSense_posFiltersData[firstTimeIndex])
2015:.\Generated_Source\PSoC4/CapSense_CSHL.c ****                     {
2016:.\Generated_Source\PSoC4/CapSense_CSHL.c ****                         /* Init filters */
2017:.\Generated_Source\PSoC4/CapSense_CSHL.c ****                         CapSense_posFiltersData[posIndex] = (uint8) position;
2018:.\Generated_Source\PSoC4/CapSense_CSHL.c ****                         #if ((0u != (CapSense_MEDIAN_FILTER & \
2019:.\Generated_Source\PSoC4/CapSense_CSHL.c ****                                      CapSense_RADIAL_SLIDERS_POS_FILTERS_MASK)) || \
2020:.\Generated_Source\PSoC4/CapSense_CSHL.c ****                              (0u != (CapSense_AVERAGING_FILTER & \
2021:.\Generated_Source\PSoC4/CapSense_CSHL.c ****                                      CapSense_RADIAL_SLIDERS_POS_FILTERS_MASK)))
2022:.\Generated_Source\PSoC4/CapSense_CSHL.c **** 
2023:.\Generated_Source\PSoC4/CapSense_CSHL.c ****                             if ( (0u != (posFiltersMask & CapSense_MEDIAN_FILTER))  ||
2024:.\Generated_Source\PSoC4/CapSense_CSHL.c ****                                  (0u != (posFiltersMask & CapSense_AVERAGING_FILTER)) )
2025:.\Generated_Source\PSoC4/CapSense_CSHL.c ****                             {
2026:.\Generated_Source\PSoC4/CapSense_CSHL.c ****                                 CapSense_posFiltersData[posIndex + 1u] = (uint8) position;
2027:.\Generated_Source\PSoC4/CapSense_CSHL.c ****                             }
2028:.\Generated_Source\PSoC4/CapSense_CSHL.c ****                         #endif /* ((0u != (CapSense_MEDIAN_FILTER & \
2029:.\Generated_Source\PSoC4/CapSense_CSHL.c ****                                *           CapSense_RADIAL_SLIDERS_POS_FILTERS_MASK)) || \
2030:.\Generated_Source\PSoC4/CapSense_CSHL.c ****                                *   (0u != (CapSense_AVERAGING_FILTER & \
2031:.\Generated_Source\PSoC4/CapSense_CSHL.c ****                                *           CapSense_RADIAL_SLIDERS_POS_FILTERS_MASK)))
2032:.\Generated_Source\PSoC4/CapSense_CSHL.c ****                                */
2033:.\Generated_Source\PSoC4/CapSense_CSHL.c **** 
2034:.\Generated_Source\PSoC4/CapSense_CSHL.c ****                         CapSense_posFiltersData[firstTimeIndex] = 1u;
2035:.\Generated_Source\PSoC4/CapSense_CSHL.c ****                     }
2036:.\Generated_Source\PSoC4/CapSense_CSHL.c ****                     else
2037:.\Generated_Source\PSoC4/CapSense_CSHL.c ****                     {
2038:.\Generated_Source\PSoC4/CapSense_CSHL.c ****                         /* Do filtering */
2039:.\Generated_Source\PSoC4/CapSense_CSHL.c ****                         #if (0u != (CapSense_MEDIAN_FILTER & CapSense_RADIAL_SLIDERS_POS_FILTERS_MA
2040:.\Generated_Source\PSoC4/CapSense_CSHL.c ****                             if (0u != (posFiltersMask & CapSense_MEDIAN_FILTER))
2041:.\Generated_Source\PSoC4/CapSense_CSHL.c ****                             {
2042:.\Generated_Source\PSoC4/CapSense_CSHL.c ****                                 tempPos = (uint8) position;
2043:.\Generated_Source\PSoC4/CapSense_CSHL.c ****                                 position = CapSense_MedianFilter(position,
2044:.\Generated_Source\PSoC4/CapSense_CSHL.c ****                                                                         CapSense_posFiltersData[pos
2045:.\Generated_Source\PSoC4/CapSense_CSHL.c ****                                                                         CapSense_posFiltersData[pos
2046:.\Generated_Source\PSoC4/CapSense_CSHL.c ****                                 CapSense_posFiltersData[posIndex + 1u] =
2047:.\Generated_Source\PSoC4/CapSense_CSHL.c ****                                                                               CapSense_posFiltersDa
2048:.\Generated_Source\PSoC4/CapSense_CSHL.c ****                                 CapSense_posFiltersData[posIndex] = tempPos;
2049:.\Generated_Source\PSoC4/CapSense_CSHL.c ****                             }
2050:.\Generated_Source\PSoC4/CapSense_CSHL.c ****                         #endif /* (0u != (CapSense_MEDIAN_FILTER &
2051:.\Generated_Source\PSoC4/CapSense_CSHL.c ****                                *          CapSense_RADIAL_SLIDERS_POS_FILTERS_MASK))
2052:.\Generated_Source\PSoC4/CapSense_CSHL.c ****                                */
2053:.\Generated_Source\PSoC4/CapSense_CSHL.c **** 
2054:.\Generated_Source\PSoC4/CapSense_CSHL.c ****                         #if (0u != (CapSense_AVERAGING_FILTER & \
2055:.\Generated_Source\PSoC4/CapSense_CSHL.c ****                                     CapSense_RADIAL_SLIDERS_POS_FILTERS_MASK))
ARM GAS  C:\Users\Terence\AppData\Local\Temp\cc6R4aDx.s 			page 60


2056:.\Generated_Source\PSoC4/CapSense_CSHL.c ****                             if (0u != (posFiltersMask & CapSense_AVERAGING_FILTER))
2057:.\Generated_Source\PSoC4/CapSense_CSHL.c ****                             {
2058:.\Generated_Source\PSoC4/CapSense_CSHL.c ****                                 tempPos = (uint8) position;
2059:.\Generated_Source\PSoC4/CapSense_CSHL.c ****                                 position = CapSense_AveragingFilter(position,
2060:.\Generated_Source\PSoC4/CapSense_CSHL.c ****                                                                        CapSense_posFiltersData[posI
2061:.\Generated_Source\PSoC4/CapSense_CSHL.c ****                                                                        CapSense_posFiltersData[posI
2062:.\Generated_Source\PSoC4/CapSense_CSHL.c ****                                 CapSense_posFiltersData[posIndex+1u]= CapSense_posFiltersData[posIn
2063:.\Generated_Source\PSoC4/CapSense_CSHL.c ****                                 CapSense_posFiltersData[posIndex] = tempPos;
2064:.\Generated_Source\PSoC4/CapSense_CSHL.c ****                             }
2065:.\Generated_Source\PSoC4/CapSense_CSHL.c ****                         #endif /* (0u != (CapSense_AVERAGING_FILTER & \
2066:.\Generated_Source\PSoC4/CapSense_CSHL.c ****                                *          CapSense_RADIAL_SLIDERS_POS_FILTERS_MASK))
2067:.\Generated_Source\PSoC4/CapSense_CSHL.c ****                                */
2068:.\Generated_Source\PSoC4/CapSense_CSHL.c **** 
2069:.\Generated_Source\PSoC4/CapSense_CSHL.c ****                         #if (0u != (CapSense_IIR2_FILTER & CapSense_RADIAL_SLIDERS_POS_FILTERS_MASK
2070:.\Generated_Source\PSoC4/CapSense_CSHL.c ****                             if (0u != (posFiltersMask & CapSense_IIR2_FILTER))
2071:.\Generated_Source\PSoC4/CapSense_CSHL.c ****                             {
2072:.\Generated_Source\PSoC4/CapSense_CSHL.c ****                                 position = CapSense_IIR2Filter(position,
2073:.\Generated_Source\PSoC4/CapSense_CSHL.c ****                                                                     (uint16)CapSense_posFiltersData
2074:.\Generated_Source\PSoC4/CapSense_CSHL.c ****                                 CapSense_posFiltersData[posIndex] = (uint8) position;
2075:.\Generated_Source\PSoC4/CapSense_CSHL.c ****                             }
2076:.\Generated_Source\PSoC4/CapSense_CSHL.c ****                         #endif /* (0u != (CapSense_IIR2_FILTER &
2077:.\Generated_Source\PSoC4/CapSense_CSHL.c ****                                *          CapSense_RADIAL_SLIDERS_POS_FILTERS_MASK))
2078:.\Generated_Source\PSoC4/CapSense_CSHL.c ****                                */
2079:.\Generated_Source\PSoC4/CapSense_CSHL.c **** 
2080:.\Generated_Source\PSoC4/CapSense_CSHL.c ****                         #if (0u != (CapSense_IIR4_FILTER & CapSense_RADIAL_SLIDERS_POS_FILTERS_MASK
2081:.\Generated_Source\PSoC4/CapSense_CSHL.c ****                             if (0u != (posFiltersMask & CapSense_IIR4_FILTER))
2082:.\Generated_Source\PSoC4/CapSense_CSHL.c ****                             {
2083:.\Generated_Source\PSoC4/CapSense_CSHL.c ****                                 position = CapSense_IIR4Filter(position,
2084:.\Generated_Source\PSoC4/CapSense_CSHL.c ****                                                                     (uint16)CapSense_posFiltersData
2085:.\Generated_Source\PSoC4/CapSense_CSHL.c ****                                 CapSense_posFiltersData[posIndex] = (uint8) position;
2086:.\Generated_Source\PSoC4/CapSense_CSHL.c ****                             }
2087:.\Generated_Source\PSoC4/CapSense_CSHL.c ****                         #endif /* (0u != (CapSense_IIR4_FILTER &
2088:.\Generated_Source\PSoC4/CapSense_CSHL.c ****                                *          CapSense_RADIAL_SLIDERS_POS_FILTERS_MASK))
2089:.\Generated_Source\PSoC4/CapSense_CSHL.c ****                                */
2090:.\Generated_Source\PSoC4/CapSense_CSHL.c **** 
2091:.\Generated_Source\PSoC4/CapSense_CSHL.c ****                         #if (0u != (CapSense_JITTER_FILTER & CapSense_RADIAL_SLIDERS_POS_FILTERS_MA
2092:.\Generated_Source\PSoC4/CapSense_CSHL.c ****                             if (0u != (posFiltersMask & CapSense_JITTER_FILTER))
2093:.\Generated_Source\PSoC4/CapSense_CSHL.c ****                             {
2094:.\Generated_Source\PSoC4/CapSense_CSHL.c ****                                 position = CapSense_JitterFilter(position,
2095:.\Generated_Source\PSoC4/CapSense_CSHL.c ****                                                                          CapSense_posFiltersData[po
2096:.\Generated_Source\PSoC4/CapSense_CSHL.c ****                                 CapSense_posFiltersData[posIndex] = (uint8) position;
2097:.\Generated_Source\PSoC4/CapSense_CSHL.c ****                             }
2098:.\Generated_Source\PSoC4/CapSense_CSHL.c ****                         #endif /* (0u != (CapSense_JITTER_FILTER &
2099:.\Generated_Source\PSoC4/CapSense_CSHL.c ****                                *           CapSense_RADIAL_SLIDERS_POS_FILTERS_MASK))
2100:.\Generated_Source\PSoC4/CapSense_CSHL.c ****                                */
2101:.\Generated_Source\PSoC4/CapSense_CSHL.c ****                     }
2102:.\Generated_Source\PSoC4/CapSense_CSHL.c ****                 }
2103:.\Generated_Source\PSoC4/CapSense_CSHL.c ****             #endif /* (0u != CapSense_RADIAL_SLIDERS_POS_FILTERS_MASK) */
2104:.\Generated_Source\PSoC4/CapSense_CSHL.c **** 
2105:.\Generated_Source\PSoC4/CapSense_CSHL.c ****         }
2106:.\Generated_Source\PSoC4/CapSense_CSHL.c ****         else
2107:.\Generated_Source\PSoC4/CapSense_CSHL.c ****         {
2108:.\Generated_Source\PSoC4/CapSense_CSHL.c ****             /* Maximum was not found */
2109:.\Generated_Source\PSoC4/CapSense_CSHL.c ****             position = 0xFFFFu;
2110:.\Generated_Source\PSoC4/CapSense_CSHL.c **** 
2111:.\Generated_Source\PSoC4/CapSense_CSHL.c ****             #if (0u != CapSense_RADIAL_SLIDERS_POS_FILTERS_MASK)
2112:.\Generated_Source\PSoC4/CapSense_CSHL.c ****                 /* Reset filters */
ARM GAS  C:\Users\Terence\AppData\Local\Temp\cc6R4aDx.s 			page 61


2113:.\Generated_Source\PSoC4/CapSense_CSHL.c ****                 if((posFiltersMask & CapSense_ANY_POS_FILTER) != 0u)
2114:.\Generated_Source\PSoC4/CapSense_CSHL.c ****                 {
2115:.\Generated_Source\PSoC4/CapSense_CSHL.c ****                     CapSense_posFiltersData[firstTimeIndex] = 0u;
2116:.\Generated_Source\PSoC4/CapSense_CSHL.c ****                 }
2117:.\Generated_Source\PSoC4/CapSense_CSHL.c ****             #endif /* (0u != CapSense_RADIAL_SLIDERS_POS_FILTERS_MASK) */
2118:.\Generated_Source\PSoC4/CapSense_CSHL.c ****         }
2119:.\Generated_Source\PSoC4/CapSense_CSHL.c **** 
2120:.\Generated_Source\PSoC4/CapSense_CSHL.c ****         return (position);
2121:.\Generated_Source\PSoC4/CapSense_CSHL.c ****     }
2122:.\Generated_Source\PSoC4/CapSense_CSHL.c **** #endif /* ((CapSense_TOTAL_RADIAL_SLIDERS_COUNT > 0u) || (CapSense_TOTAL_LINEAR_SLIDERS_COUNT > 0u)
2123:.\Generated_Source\PSoC4/CapSense_CSHL.c **** 
2124:.\Generated_Source\PSoC4/CapSense_CSHL.c **** 
2125:.\Generated_Source\PSoC4/CapSense_CSHL.c **** #if(CapSense_TOTAL_TOUCH_PADS_BASIC_COUNT > 0u)
2126:.\Generated_Source\PSoC4/CapSense_CSHL.c ****     /*******************************************************************************
2127:.\Generated_Source\PSoC4/CapSense_CSHL.c ****     * Function Name: CapSense_GetTouchCentroidPos
2128:.\Generated_Source\PSoC4/CapSense_CSHL.c ****     ********************************************************************************
2129:.\Generated_Source\PSoC4/CapSense_CSHL.c ****     *
2130:.\Generated_Source\PSoC4/CapSense_CSHL.c ****     * Summary:
2131:.\Generated_Source\PSoC4/CapSense_CSHL.c ****     *  If a finger is present on a touchpad, this function calculates the X and Y
2132:.\Generated_Source\PSoC4/CapSense_CSHL.c ****     *  position of the finger by calculating the centroids within touchpad specified
2133:.\Generated_Source\PSoC4/CapSense_CSHL.c ****     *  range. The X and Y positions are calculated according to the API resolutions set in the
2134:.\Generated_Source\PSoC4/CapSense_CSHL.c ****     *  CapSense customizer. Returns 1 if a finger is on the touchpad.
2135:.\Generated_Source\PSoC4/CapSense_CSHL.c ****     *  The position filter is applied to the result if enabled.
2136:.\Generated_Source\PSoC4/CapSense_CSHL.c ****     *  This function is available only if a touch pad is defined by the CapSense
2137:.\Generated_Source\PSoC4/CapSense_CSHL.c ****     *  customizer.
2138:.\Generated_Source\PSoC4/CapSense_CSHL.c ****     *
2139:.\Generated_Source\PSoC4/CapSense_CSHL.c ****     * Parameters:
2140:.\Generated_Source\PSoC4/CapSense_CSHL.c ****     *  widget:  Widget number.
2141:.\Generated_Source\PSoC4/CapSense_CSHL.c ****     *  For every touchpad widget there are defines in this format:
2142:.\Generated_Source\PSoC4/CapSense_CSHL.c ****     *  #define CapSense_"widget_name"__TP            5
2143:.\Generated_Source\PSoC4/CapSense_CSHL.c ****     *
2144:.\Generated_Source\PSoC4/CapSense_CSHL.c ****     *  pos:     Pointer to the array of two uint16 elements, where result
2145:.\Generated_Source\PSoC4/CapSense_CSHL.c ****     *  result of calculation of X and Y position are stored.
2146:.\Generated_Source\PSoC4/CapSense_CSHL.c ****     *  pos[0u]  - position of X
2147:.\Generated_Source\PSoC4/CapSense_CSHL.c ****     *  pos[1u]  - position of Y
2148:.\Generated_Source\PSoC4/CapSense_CSHL.c ****     *
2149:.\Generated_Source\PSoC4/CapSense_CSHL.c ****     * Return:
2150:.\Generated_Source\PSoC4/CapSense_CSHL.c ****     *  Returns a 1 if a finger is on the touch pad, 0 - if not.
2151:.\Generated_Source\PSoC4/CapSense_CSHL.c ****     *
2152:.\Generated_Source\PSoC4/CapSense_CSHL.c ****     * Global Variables:
2153:.\Generated_Source\PSoC4/CapSense_CSHL.c ****     *  None.
2154:.\Generated_Source\PSoC4/CapSense_CSHL.c ****     *
2155:.\Generated_Source\PSoC4/CapSense_CSHL.c ****     * Side Effects:
2156:.\Generated_Source\PSoC4/CapSense_CSHL.c ****     *   There are no checks of the widget type argument provided to this function.
2157:.\Generated_Source\PSoC4/CapSense_CSHL.c ****     *   The unproper widget type provided will cause unexpected position
2158:.\Generated_Source\PSoC4/CapSense_CSHL.c ****     *   calculations.
2159:.\Generated_Source\PSoC4/CapSense_CSHL.c ****     *
2160:.\Generated_Source\PSoC4/CapSense_CSHL.c ****     *******************************************************************************/
2161:.\Generated_Source\PSoC4/CapSense_CSHL.c ****     uint32 CapSense_GetTouchCentroidPos(uint32 widget, uint16* pos)
2162:.\Generated_Source\PSoC4/CapSense_CSHL.c ****     {
2163:.\Generated_Source\PSoC4/CapSense_CSHL.c ****         #if (0u != CapSense_TOUCH_PADS_POS_FILTERS_MASK)
2164:.\Generated_Source\PSoC4/CapSense_CSHL.c ****             uint8 posXIndex;
2165:.\Generated_Source\PSoC4/CapSense_CSHL.c ****             uint8 posYIndex;
2166:.\Generated_Source\PSoC4/CapSense_CSHL.c ****             uint8 firstTimeIndex = CapSense_posFiltersData[widget];
2167:.\Generated_Source\PSoC4/CapSense_CSHL.c ****             uint8 posFiltersMask = CapSense_posFiltersMask[widget];
2168:.\Generated_Source\PSoC4/CapSense_CSHL.c ****         #endif /* (0u != CapSense_TOUCH_PADS_POS_FILTERS_MASK) */
2169:.\Generated_Source\PSoC4/CapSense_CSHL.c **** 
ARM GAS  C:\Users\Terence\AppData\Local\Temp\cc6R4aDx.s 			page 62


2170:.\Generated_Source\PSoC4/CapSense_CSHL.c ****         #if ((0u != (CapSense_MEDIAN_FILTER & CapSense_TOUCH_PADS_POS_FILTERS_MASK)) || \
2171:.\Generated_Source\PSoC4/CapSense_CSHL.c ****              (0u != (CapSense_AVERAGING_FILTER & CapSense_TOUCH_PADS_POS_FILTERS_MASK)))
2172:.\Generated_Source\PSoC4/CapSense_CSHL.c ****             uint16 tempPos;
2173:.\Generated_Source\PSoC4/CapSense_CSHL.c ****         #endif /* ((0u != (CapSense_MEDIAN_FILTER & CapSense_TOUCH_PADS_POS_FILTERS_MASK)) || \
2174:.\Generated_Source\PSoC4/CapSense_CSHL.c ****                *   (0u != (CapSense_AVERAGING_FILTER & CapSense_TOUCH_PADS_POS_FILTERS_MASK)))
2175:.\Generated_Source\PSoC4/CapSense_CSHL.c ****                */
2176:.\Generated_Source\PSoC4/CapSense_CSHL.c **** 
2177:.\Generated_Source\PSoC4/CapSense_CSHL.c ****         uint8 MaxX;
2178:.\Generated_Source\PSoC4/CapSense_CSHL.c ****         uint8 MaxY;
2179:.\Generated_Source\PSoC4/CapSense_CSHL.c ****         uint8 posX;
2180:.\Generated_Source\PSoC4/CapSense_CSHL.c ****         uint8 posY;
2181:.\Generated_Source\PSoC4/CapSense_CSHL.c ****         uint32 touch = 0u;
2182:.\Generated_Source\PSoC4/CapSense_CSHL.c ****         uint8 offset = CapSense_rawDataIndex[widget];
2183:.\Generated_Source\PSoC4/CapSense_CSHL.c ****         uint8 count = CapSense_numberOfSensors[widget];
2184:.\Generated_Source\PSoC4/CapSense_CSHL.c **** 
2185:.\Generated_Source\PSoC4/CapSense_CSHL.c ****         /* Find Maximum within X centroid */
2186:.\Generated_Source\PSoC4/CapSense_CSHL.c ****         #if (CapSense_IS_DIPLEX_SLIDER)
2187:.\Generated_Source\PSoC4/CapSense_CSHL.c ****             MaxX = CapSense_FindMaximum(offset, count, CapSense_fingerThreshold[widget], 0u);
2188:.\Generated_Source\PSoC4/CapSense_CSHL.c ****         #else
2189:.\Generated_Source\PSoC4/CapSense_CSHL.c ****             MaxX = CapSense_FindMaximum(offset, count, CapSense_fingerThreshold[widget]);
2190:.\Generated_Source\PSoC4/CapSense_CSHL.c ****         #endif /* (CapSense_IS_DIPLEX_SLIDER) */
2191:.\Generated_Source\PSoC4/CapSense_CSHL.c **** 
2192:.\Generated_Source\PSoC4/CapSense_CSHL.c ****         if (MaxX != CapSense_MAXIMUM_CENTROID)
2193:.\Generated_Source\PSoC4/CapSense_CSHL.c ****         {
2194:.\Generated_Source\PSoC4/CapSense_CSHL.c ****             offset = CapSense_rawDataIndex[widget + 1u];
2195:.\Generated_Source\PSoC4/CapSense_CSHL.c ****             count = CapSense_numberOfSensors[widget + 1u];
2196:.\Generated_Source\PSoC4/CapSense_CSHL.c **** 
2197:.\Generated_Source\PSoC4/CapSense_CSHL.c ****             /* Find Maximum within Y centroid */
2198:.\Generated_Source\PSoC4/CapSense_CSHL.c ****             #if (CapSense_IS_DIPLEX_SLIDER)
2199:.\Generated_Source\PSoC4/CapSense_CSHL.c ****                 MaxY = CapSense_FindMaximum(offset, count, CapSense_fingerThreshold[widget + 1u], 0
2200:.\Generated_Source\PSoC4/CapSense_CSHL.c ****             #else
2201:.\Generated_Source\PSoC4/CapSense_CSHL.c ****                 MaxY = CapSense_FindMaximum(offset, count, CapSense_fingerThreshold[widget + 1u]);
2202:.\Generated_Source\PSoC4/CapSense_CSHL.c ****             #endif /* (CapSense_IS_DIPLEX_SLIDER) */
2203:.\Generated_Source\PSoC4/CapSense_CSHL.c **** 
2204:.\Generated_Source\PSoC4/CapSense_CSHL.c ****             if (MaxY != CapSense_MAXIMUM_CENTROID)
2205:.\Generated_Source\PSoC4/CapSense_CSHL.c ****             {
2206:.\Generated_Source\PSoC4/CapSense_CSHL.c ****                 /* X and Y maximums are found = true touch */
2207:.\Generated_Source\PSoC4/CapSense_CSHL.c ****                 touch = 1u;
2208:.\Generated_Source\PSoC4/CapSense_CSHL.c **** 
2209:.\Generated_Source\PSoC4/CapSense_CSHL.c ****                 /* Calculate Y centroid */
2210:.\Generated_Source\PSoC4/CapSense_CSHL.c ****                 posY = CapSense_CalcCentroid(MaxY, offset, count,
2211:.\Generated_Source\PSoC4/CapSense_CSHL.c ****                             CapSense_centroidMult[widget + 1u], CapSense_noiseThreshold[widget + 1u
2212:.\Generated_Source\PSoC4/CapSense_CSHL.c **** 
2213:.\Generated_Source\PSoC4/CapSense_CSHL.c ****                 /* Calculate X centroid */
2214:.\Generated_Source\PSoC4/CapSense_CSHL.c ****                 offset = CapSense_rawDataIndex[widget];
2215:.\Generated_Source\PSoC4/CapSense_CSHL.c ****                 count = CapSense_numberOfSensors[widget];
2216:.\Generated_Source\PSoC4/CapSense_CSHL.c **** 
2217:.\Generated_Source\PSoC4/CapSense_CSHL.c ****                 posX = CapSense_CalcCentroid(MaxX, offset, count,
2218:.\Generated_Source\PSoC4/CapSense_CSHL.c ****                             CapSense_centroidMult[widget],CapSense_noiseThreshold[widget]);
2219:.\Generated_Source\PSoC4/CapSense_CSHL.c **** 
2220:.\Generated_Source\PSoC4/CapSense_CSHL.c ****                 #if (0u != CapSense_TOUCH_PADS_POS_FILTERS_MASK)
2221:.\Generated_Source\PSoC4/CapSense_CSHL.c ****                     /* Check if this TP has enabled filters */
2222:.\Generated_Source\PSoC4/CapSense_CSHL.c ****                     if (0u != (posFiltersMask & CapSense_ANY_POS_FILTER))
2223:.\Generated_Source\PSoC4/CapSense_CSHL.c ****                     {
2224:.\Generated_Source\PSoC4/CapSense_CSHL.c ****                         /* Calculate position to store filters data */
2225:.\Generated_Source\PSoC4/CapSense_CSHL.c ****                         posXIndex  = firstTimeIndex + 1u;
2226:.\Generated_Source\PSoC4/CapSense_CSHL.c ****                         posYIndex  = CapSense_posFiltersData[widget + 1u];
ARM GAS  C:\Users\Terence\AppData\Local\Temp\cc6R4aDx.s 			page 63


2227:.\Generated_Source\PSoC4/CapSense_CSHL.c **** 
2228:.\Generated_Source\PSoC4/CapSense_CSHL.c ****                         if (0u == CapSense_posFiltersData[firstTimeIndex])
2229:.\Generated_Source\PSoC4/CapSense_CSHL.c ****                         {
2230:.\Generated_Source\PSoC4/CapSense_CSHL.c ****                             /* Init filters */
2231:.\Generated_Source\PSoC4/CapSense_CSHL.c ****                             CapSense_posFiltersData[posXIndex] = posX;
2232:.\Generated_Source\PSoC4/CapSense_CSHL.c ****                             CapSense_posFiltersData[posYIndex] = posY;
2233:.\Generated_Source\PSoC4/CapSense_CSHL.c **** 
2234:.\Generated_Source\PSoC4/CapSense_CSHL.c ****                             #if((0u != (CapSense_MEDIAN_FILTER & \
2235:.\Generated_Source\PSoC4/CapSense_CSHL.c ****                                         CapSense_TOUCH_PADS_POS_FILTERS_MASK))|| \
2236:.\Generated_Source\PSoC4/CapSense_CSHL.c ****                                 (0u != (CapSense_AVERAGING_FILTER & \
2237:.\Generated_Source\PSoC4/CapSense_CSHL.c ****                                         CapSense_TOUCH_PADS_POS_FILTERS_MASK)))
2238:.\Generated_Source\PSoC4/CapSense_CSHL.c **** 
2239:.\Generated_Source\PSoC4/CapSense_CSHL.c ****                                 if ( (0u != (posFiltersMask & CapSense_MEDIAN_FILTER)) ||
2240:.\Generated_Source\PSoC4/CapSense_CSHL.c ****                                      (0u != (posFiltersMask & CapSense_AVERAGING_FILTER)) )
2241:.\Generated_Source\PSoC4/CapSense_CSHL.c ****                                 {
2242:.\Generated_Source\PSoC4/CapSense_CSHL.c ****                                     CapSense_posFiltersData[posXIndex + 1u] = posX;
2243:.\Generated_Source\PSoC4/CapSense_CSHL.c ****                                     CapSense_posFiltersData[posYIndex + 1u] = posY;
2244:.\Generated_Source\PSoC4/CapSense_CSHL.c ****                                 }
2245:.\Generated_Source\PSoC4/CapSense_CSHL.c ****                             #endif /* ((0u != (CapSense_MEDIAN_FILTER & \
2246:.\Generated_Source\PSoC4/CapSense_CSHL.c ****                                    *           CapSense_TOUCH_PADS_POS_FILTERS_MASK)) || \
2247:.\Generated_Source\PSoC4/CapSense_CSHL.c ****                                    *    (0u != (CapSense_AVERAGING_FILTER & \
2248:.\Generated_Source\PSoC4/CapSense_CSHL.c ****                                    *            CapSense_TOUCH_PADS_POS_FILTERS_MASK)))
2249:.\Generated_Source\PSoC4/CapSense_CSHL.c ****                                    */
2250:.\Generated_Source\PSoC4/CapSense_CSHL.c **** 
2251:.\Generated_Source\PSoC4/CapSense_CSHL.c ****                             CapSense_posFiltersData[firstTimeIndex] = 1u;
2252:.\Generated_Source\PSoC4/CapSense_CSHL.c ****                         }
2253:.\Generated_Source\PSoC4/CapSense_CSHL.c ****                         else
2254:.\Generated_Source\PSoC4/CapSense_CSHL.c ****                         {
2255:.\Generated_Source\PSoC4/CapSense_CSHL.c ****                             /* Do filtering */
2256:.\Generated_Source\PSoC4/CapSense_CSHL.c ****                             #if (0u != (CapSense_MEDIAN_FILTER & CapSense_TOUCH_PADS_POS_FILTERS_MA
2257:.\Generated_Source\PSoC4/CapSense_CSHL.c ****                                 if (0u != (posFiltersMask & CapSense_MEDIAN_FILTER))
2258:.\Generated_Source\PSoC4/CapSense_CSHL.c ****                                 {
2259:.\Generated_Source\PSoC4/CapSense_CSHL.c ****                                     tempPos = posX;
2260:.\Generated_Source\PSoC4/CapSense_CSHL.c ****                                     posX = (uint8) CapSense_MedianFilter(posX,
2261:.\Generated_Source\PSoC4/CapSense_CSHL.c ****                                                                       CapSense_posFiltersData[posXI
2262:.\Generated_Source\PSoC4/CapSense_CSHL.c ****                                                                       CapSense_posFiltersData[posXI
2263:.\Generated_Source\PSoC4/CapSense_CSHL.c ****                                     CapSense_posFiltersData[posXIndex + 1u] =
2264:.\Generated_Source\PSoC4/CapSense_CSHL.c ****                                                                              CapSense_posFiltersDat
2265:.\Generated_Source\PSoC4/CapSense_CSHL.c ****                                     CapSense_posFiltersData[posXIndex] = tempPos;
2266:.\Generated_Source\PSoC4/CapSense_CSHL.c **** 
2267:.\Generated_Source\PSoC4/CapSense_CSHL.c ****                                     tempPos = posY;
2268:.\Generated_Source\PSoC4/CapSense_CSHL.c ****                                     posY = (uint8) CapSense_MedianFilter(posY,
2269:.\Generated_Source\PSoC4/CapSense_CSHL.c ****                                                                        CapSense_posFiltersData[posY
2270:.\Generated_Source\PSoC4/CapSense_CSHL.c ****                                                                        CapSense_posFiltersData[posY
2271:.\Generated_Source\PSoC4/CapSense_CSHL.c ****                                     CapSense_posFiltersData[posYIndex + 1u] =
2272:.\Generated_Source\PSoC4/CapSense_CSHL.c ****                                                                              CapSense_posFiltersDat
2273:.\Generated_Source\PSoC4/CapSense_CSHL.c ****                                     CapSense_posFiltersData[posYIndex] = tempPos;
2274:.\Generated_Source\PSoC4/CapSense_CSHL.c ****                                 }
2275:.\Generated_Source\PSoC4/CapSense_CSHL.c **** 
2276:.\Generated_Source\PSoC4/CapSense_CSHL.c ****                             #endif /* (0u != (CapSense_MEDIAN_FILTER & \
2277:.\Generated_Source\PSoC4/CapSense_CSHL.c ****                                    *          CapSense_TOUCH_PADS_POS_FILTERS_MASK))
2278:.\Generated_Source\PSoC4/CapSense_CSHL.c ****                                    */
2279:.\Generated_Source\PSoC4/CapSense_CSHL.c **** 
2280:.\Generated_Source\PSoC4/CapSense_CSHL.c ****                             #if(0u !=(CapSense_AVERAGING_FILTER & CapSense_TOUCH_PADS_POS_FILTERS_M
2281:.\Generated_Source\PSoC4/CapSense_CSHL.c ****                                 if (0u != (posFiltersMask & CapSense_AVERAGING_FILTER))
2282:.\Generated_Source\PSoC4/CapSense_CSHL.c ****                                 {
2283:.\Generated_Source\PSoC4/CapSense_CSHL.c ****                                     tempPos = posX;
ARM GAS  C:\Users\Terence\AppData\Local\Temp\cc6R4aDx.s 			page 64


2284:.\Generated_Source\PSoC4/CapSense_CSHL.c ****                                     posX = (uint8) CapSense_AveragingFilter(posX,
2285:.\Generated_Source\PSoC4/CapSense_CSHL.c ****                                                                        CapSense_posFiltersData[posX
2286:.\Generated_Source\PSoC4/CapSense_CSHL.c ****                                                                        CapSense_posFiltersData[posX
2287:.\Generated_Source\PSoC4/CapSense_CSHL.c ****                                     CapSense_posFiltersData[posXIndex + 1u] =
2288:.\Generated_Source\PSoC4/CapSense_CSHL.c ****                                                                              CapSense_posFiltersDat
2289:.\Generated_Source\PSoC4/CapSense_CSHL.c ****                                     CapSense_posFiltersData[posXIndex] = tempPos;
2290:.\Generated_Source\PSoC4/CapSense_CSHL.c **** 
2291:.\Generated_Source\PSoC4/CapSense_CSHL.c ****                                     tempPos = posY;
2292:.\Generated_Source\PSoC4/CapSense_CSHL.c ****                                     posY = (uint8) CapSense_AveragingFilter(posY,
2293:.\Generated_Source\PSoC4/CapSense_CSHL.c ****                                                                       CapSense_posFiltersData[posYI
2294:.\Generated_Source\PSoC4/CapSense_CSHL.c ****                                                                       CapSense_posFiltersData[posYI
2295:.\Generated_Source\PSoC4/CapSense_CSHL.c ****                                     CapSense_posFiltersData[posYIndex + 1u] =
2296:.\Generated_Source\PSoC4/CapSense_CSHL.c ****                                                                             CapSense_posFiltersData
2297:.\Generated_Source\PSoC4/CapSense_CSHL.c ****                                     CapSense_posFiltersData[posYIndex] = tempPos;
2298:.\Generated_Source\PSoC4/CapSense_CSHL.c ****                                 }
2299:.\Generated_Source\PSoC4/CapSense_CSHL.c **** 
2300:.\Generated_Source\PSoC4/CapSense_CSHL.c ****                             #endif /* (0u != (CapSense_AVERAGING_FILTER & \
2301:.\Generated_Source\PSoC4/CapSense_CSHL.c ****                                    *           CapSense_TOUCH_PADS_POS_FILTERS_MASK))
2302:.\Generated_Source\PSoC4/CapSense_CSHL.c ****                                    */
2303:.\Generated_Source\PSoC4/CapSense_CSHL.c **** 
2304:.\Generated_Source\PSoC4/CapSense_CSHL.c ****                             #if (0u != (CapSense_IIR2_FILTER & CapSense_TOUCH_PADS_POS_FILTERS_MASK
2305:.\Generated_Source\PSoC4/CapSense_CSHL.c ****                                 if (0u != (posFiltersMask & CapSense_IIR2_FILTER))
2306:.\Generated_Source\PSoC4/CapSense_CSHL.c ****                                 {
2307:.\Generated_Source\PSoC4/CapSense_CSHL.c ****                                     posX = (uint8) CapSense_IIR2Filter(posX,
2308:.\Generated_Source\PSoC4/CapSense_CSHL.c ****                                                                            CapSense_posFiltersData[
2309:.\Generated_Source\PSoC4/CapSense_CSHL.c ****                                     CapSense_posFiltersData[posXIndex] = posX;
2310:.\Generated_Source\PSoC4/CapSense_CSHL.c **** 
2311:.\Generated_Source\PSoC4/CapSense_CSHL.c ****                                     posY = (uint8) CapSense_IIR2Filter(posY,
2312:.\Generated_Source\PSoC4/CapSense_CSHL.c ****                                                                             CapSense_posFiltersData
2313:.\Generated_Source\PSoC4/CapSense_CSHL.c ****                                     CapSense_posFiltersData[posYIndex] = posY;
2314:.\Generated_Source\PSoC4/CapSense_CSHL.c ****                                 }
2315:.\Generated_Source\PSoC4/CapSense_CSHL.c **** 
2316:.\Generated_Source\PSoC4/CapSense_CSHL.c ****                             #endif /* (0u != (CapSense_IIR2_FILTER & \
2317:.\Generated_Source\PSoC4/CapSense_CSHL.c ****                                    *          CapSense_TOUCH_PADS_POS_FILTERS_MASK))
2318:.\Generated_Source\PSoC4/CapSense_CSHL.c ****                                    */
2319:.\Generated_Source\PSoC4/CapSense_CSHL.c **** 
2320:.\Generated_Source\PSoC4/CapSense_CSHL.c ****                             #if (0u != (CapSense_IIR4_FILTER & CapSense_TOUCH_PADS_POS_FILTERS_MASK
2321:.\Generated_Source\PSoC4/CapSense_CSHL.c ****                                 if (0u != (posFiltersMask & CapSense_IIR4_FILTER))
2322:.\Generated_Source\PSoC4/CapSense_CSHL.c ****                                 {
2323:.\Generated_Source\PSoC4/CapSense_CSHL.c ****                                     posX = (uint8) CapSense_IIR4Filter((uint16)posX,
2324:.\Generated_Source\PSoC4/CapSense_CSHL.c ****                                                                     (uint16)CapSense_posFiltersData
2325:.\Generated_Source\PSoC4/CapSense_CSHL.c ****                                     CapSense_posFiltersData[posXIndex] = posX;
2326:.\Generated_Source\PSoC4/CapSense_CSHL.c **** 
2327:.\Generated_Source\PSoC4/CapSense_CSHL.c ****                                     posY = (uint8) CapSense_IIR4Filter((uint16)posY,
2328:.\Generated_Source\PSoC4/CapSense_CSHL.c ****                                                                     (uint16)CapSense_posFiltersData
2329:.\Generated_Source\PSoC4/CapSense_CSHL.c ****                                     CapSense_posFiltersData[posYIndex] = posY;
2330:.\Generated_Source\PSoC4/CapSense_CSHL.c ****                                 }
2331:.\Generated_Source\PSoC4/CapSense_CSHL.c **** 
2332:.\Generated_Source\PSoC4/CapSense_CSHL.c ****                             #endif /* (0u != (CapSense_IIR4_FILTER & \
2333:.\Generated_Source\PSoC4/CapSense_CSHL.c ****                                    *           CapSense_TOUCH_PADS_POS_FILTERS_MASK))
2334:.\Generated_Source\PSoC4/CapSense_CSHL.c ****                                    */
2335:.\Generated_Source\PSoC4/CapSense_CSHL.c **** 
2336:.\Generated_Source\PSoC4/CapSense_CSHL.c ****                             #if (0u != (CapSense_JITTER_FILTER & CapSense_TOUCH_PADS_POS_FILTERS_MA
2337:.\Generated_Source\PSoC4/CapSense_CSHL.c ****                                 if (0u != (posFiltersMask & CapSense_JITTER_FILTER))
2338:.\Generated_Source\PSoC4/CapSense_CSHL.c ****                                     {
2339:.\Generated_Source\PSoC4/CapSense_CSHL.c ****                                         posX = (uint8) CapSense_JitterFilter(posX,
2340:.\Generated_Source\PSoC4/CapSense_CSHL.c ****                                                                             CapSense_posFiltersData
ARM GAS  C:\Users\Terence\AppData\Local\Temp\cc6R4aDx.s 			page 65


2341:.\Generated_Source\PSoC4/CapSense_CSHL.c ****                                         CapSense_posFiltersData[posXIndex] = posX;
2342:.\Generated_Source\PSoC4/CapSense_CSHL.c **** 
2343:.\Generated_Source\PSoC4/CapSense_CSHL.c ****                                         posY = (uint8) CapSense_JitterFilter(posY,
2344:.\Generated_Source\PSoC4/CapSense_CSHL.c ****                                                                             CapSense_posFiltersData
2345:.\Generated_Source\PSoC4/CapSense_CSHL.c ****                                         CapSense_posFiltersData[posYIndex] = posY;
2346:.\Generated_Source\PSoC4/CapSense_CSHL.c ****                                     }
2347:.\Generated_Source\PSoC4/CapSense_CSHL.c ****                             #endif /* (0u != (CapSense_JITTER_FILTER & \
2348:.\Generated_Source\PSoC4/CapSense_CSHL.c ****                                    *           CapSense_TOUCH_PADS_POS_FILTERS_MASK))
2349:.\Generated_Source\PSoC4/CapSense_CSHL.c ****                                    */
2350:.\Generated_Source\PSoC4/CapSense_CSHL.c ****                         }
2351:.\Generated_Source\PSoC4/CapSense_CSHL.c ****                     }
2352:.\Generated_Source\PSoC4/CapSense_CSHL.c ****                 #endif /* (0u != CapSense_TOUCH_PADS_POS_FILTERS_MASK) */
2353:.\Generated_Source\PSoC4/CapSense_CSHL.c **** 
2354:.\Generated_Source\PSoC4/CapSense_CSHL.c ****                 /* Save positions */
2355:.\Generated_Source\PSoC4/CapSense_CSHL.c ****                 pos[0u] = posX;
2356:.\Generated_Source\PSoC4/CapSense_CSHL.c ****                 pos[1u] = posY;
2357:.\Generated_Source\PSoC4/CapSense_CSHL.c ****             }
2358:.\Generated_Source\PSoC4/CapSense_CSHL.c ****         }
2359:.\Generated_Source\PSoC4/CapSense_CSHL.c **** 
2360:.\Generated_Source\PSoC4/CapSense_CSHL.c ****         #if (0u != CapSense_TOUCH_PADS_POS_FILTERS_MASK)
2361:.\Generated_Source\PSoC4/CapSense_CSHL.c ****             if(touch == 0u)
2362:.\Generated_Source\PSoC4/CapSense_CSHL.c ****             {
2363:.\Generated_Source\PSoC4/CapSense_CSHL.c ****                 /* Reset filters */
2364:.\Generated_Source\PSoC4/CapSense_CSHL.c ****                 if ((posFiltersMask & CapSense_ANY_POS_FILTER) != 0u)
2365:.\Generated_Source\PSoC4/CapSense_CSHL.c ****                 {
2366:.\Generated_Source\PSoC4/CapSense_CSHL.c ****                     CapSense_posFiltersData[firstTimeIndex] = 0u;
2367:.\Generated_Source\PSoC4/CapSense_CSHL.c ****                 }
2368:.\Generated_Source\PSoC4/CapSense_CSHL.c ****             }
2369:.\Generated_Source\PSoC4/CapSense_CSHL.c ****         #endif /* (0u != CapSense_TOUCH_PADS_POS_FILTERS_MASK) */
2370:.\Generated_Source\PSoC4/CapSense_CSHL.c **** 
2371:.\Generated_Source\PSoC4/CapSense_CSHL.c ****         return (touch);
2372:.\Generated_Source\PSoC4/CapSense_CSHL.c ****     }
2373:.\Generated_Source\PSoC4/CapSense_CSHL.c **** #endif /* (CapSense_TOTAL_TOUCH_PADS_BASIC_COUNT > 0u) */
2374:.\Generated_Source\PSoC4/CapSense_CSHL.c **** 
2375:.\Generated_Source\PSoC4/CapSense_CSHL.c **** 
2376:.\Generated_Source\PSoC4/CapSense_CSHL.c **** #if ( (0u != (CapSense_RAW_FILTER_MASK & CapSense_MEDIAN_FILTER)) || \
2377:.\Generated_Source\PSoC4/CapSense_CSHL.c ****       (0u != (CapSense_POS_FILTERS_MASK & CapSense_MEDIAN_FILTER)) || \
2378:.\Generated_Source\PSoC4/CapSense_CSHL.c ****       ((CapSense_TUNING_METHOD == CapSense__TUNING_AUTO)) )
2379:.\Generated_Source\PSoC4/CapSense_CSHL.c ****     /*******************************************************************************
2380:.\Generated_Source\PSoC4/CapSense_CSHL.c ****     * Function Name: CapSense_MedianFilter
2381:.\Generated_Source\PSoC4/CapSense_CSHL.c ****     ********************************************************************************
2382:.\Generated_Source\PSoC4/CapSense_CSHL.c ****     *
2383:.\Generated_Source\PSoC4/CapSense_CSHL.c ****     * Summary:
2384:.\Generated_Source\PSoC4/CapSense_CSHL.c ****     *  This is the Median filter function.
2385:.\Generated_Source\PSoC4/CapSense_CSHL.c ****     *  The median filter looks at the three most recent samples and reports the
2386:.\Generated_Source\PSoC4/CapSense_CSHL.c ****     *  median value.
2387:.\Generated_Source\PSoC4/CapSense_CSHL.c ****     *
2388:.\Generated_Source\PSoC4/CapSense_CSHL.c ****     * Parameters:
2389:.\Generated_Source\PSoC4/CapSense_CSHL.c ****     *  x1:  Current value.
2390:.\Generated_Source\PSoC4/CapSense_CSHL.c ****     *  x2:  Previous value.
2391:.\Generated_Source\PSoC4/CapSense_CSHL.c ****     *  x3:  Before previous value.
2392:.\Generated_Source\PSoC4/CapSense_CSHL.c ****     *
2393:.\Generated_Source\PSoC4/CapSense_CSHL.c ****     * Return:
2394:.\Generated_Source\PSoC4/CapSense_CSHL.c ****     *  Returns filtered value.
2395:.\Generated_Source\PSoC4/CapSense_CSHL.c ****     *
2396:.\Generated_Source\PSoC4/CapSense_CSHL.c ****     * Global Variables:
2397:.\Generated_Source\PSoC4/CapSense_CSHL.c ****     *  None.
ARM GAS  C:\Users\Terence\AppData\Local\Temp\cc6R4aDx.s 			page 66


2398:.\Generated_Source\PSoC4/CapSense_CSHL.c ****     *
2399:.\Generated_Source\PSoC4/CapSense_CSHL.c ****     * Side Effects:
2400:.\Generated_Source\PSoC4/CapSense_CSHL.c ****     *  None
2401:.\Generated_Source\PSoC4/CapSense_CSHL.c ****     *
2402:.\Generated_Source\PSoC4/CapSense_CSHL.c ****     *******************************************************************************/
2403:.\Generated_Source\PSoC4/CapSense_CSHL.c ****     uint16 CapSense_MedianFilter(uint16 x1, uint16 x2, uint16 x3)
2404:.\Generated_Source\PSoC4/CapSense_CSHL.c ****     {
 1296              		.loc 1 2404 0
 1297              		.cfi_startproc
 1298              	.LVL155:
2405:.\Generated_Source\PSoC4/CapSense_CSHL.c ****         uint16 tmp;
2406:.\Generated_Source\PSoC4/CapSense_CSHL.c **** 
2407:.\Generated_Source\PSoC4/CapSense_CSHL.c ****         if (x1 > x2)
 1299              		.loc 1 2407 0
 1300 0000 8842     		cmp	r0, r1
 1301 0002 02D9     		bls	.L111
 1302 0004 031C     		mov	r3, r0
2408:.\Generated_Source\PSoC4/CapSense_CSHL.c ****         {
2409:.\Generated_Source\PSoC4/CapSense_CSHL.c ****             tmp = x2;
2410:.\Generated_Source\PSoC4/CapSense_CSHL.c ****             x2 = x1;
2411:.\Generated_Source\PSoC4/CapSense_CSHL.c ****             x1 = tmp;
 1303              		.loc 1 2411 0
 1304 0006 081C     		mov	r0, r1
 1305              	.LVL156:
2410:.\Generated_Source\PSoC4/CapSense_CSHL.c ****             x1 = tmp;
 1306              		.loc 1 2410 0
 1307 0008 191C     		mov	r1, r3
 1308              	.LVL157:
 1309              	.L111:
2412:.\Generated_Source\PSoC4/CapSense_CSHL.c ****         }
2413:.\Generated_Source\PSoC4/CapSense_CSHL.c **** 
2414:.\Generated_Source\PSoC4/CapSense_CSHL.c ****         if (x2 > x3)
 1310              		.loc 1 2414 0
 1311 000a 9142     		cmp	r1, r2
 1312 000c 00D9     		bls	.L112
2415:.\Generated_Source\PSoC4/CapSense_CSHL.c ****         {
2416:.\Generated_Source\PSoC4/CapSense_CSHL.c ****             x2 = x3;
 1313              		.loc 1 2416 0
 1314 000e 111C     		mov	r1, r2
 1315              	.LVL158:
 1316              	.L112:
2417:.\Generated_Source\PSoC4/CapSense_CSHL.c ****         }
2418:.\Generated_Source\PSoC4/CapSense_CSHL.c **** 
2419:.\Generated_Source\PSoC4/CapSense_CSHL.c ****         return ((x1 > x2) ? x1 : x2);
 1317              		.loc 1 2419 0
 1318 0010 0B1C     		add	r3, r1, #0
 1319 0012 8142     		cmp	r1, r0
 1320 0014 00D2     		bcs	.L113
 1321 0016 031C     		add	r3, r0, #0
 1322              	.L113:
 1323 0018 98B2     		uxth	r0, r3
 1324              	.LVL159:
2420:.\Generated_Source\PSoC4/CapSense_CSHL.c ****     }
 1325              		.loc 1 2420 0
 1326              		@ sp needed
 1327 001a 7047     		bx	lr
 1328              		.cfi_endproc
ARM GAS  C:\Users\Terence\AppData\Local\Temp\cc6R4aDx.s 			page 67


 1329              	.LFE67:
 1330              		.size	CapSense_MedianFilter, .-CapSense_MedianFilter
 1331              		.section	.text.CapSense_GetRadialCentroidPos,"ax",%progbits
 1332              		.align	2
 1333              		.global	CapSense_GetRadialCentroidPos
 1334              		.code	16
 1335              		.thumb_func
 1336              		.type	CapSense_GetRadialCentroidPos, %function
 1337              	CapSense_GetRadialCentroidPos:
 1338              	.LFB66:
1975:.\Generated_Source\PSoC4/CapSense_CSHL.c ****         #if (0u != CapSense_RADIAL_SLIDERS_POS_FILTERS_MASK)
 1339              		.loc 1 1975 0
 1340              		.cfi_startproc
 1341              	.LVL160:
 1342 0000 F0B5     		push	{r4, r5, r6, r7, lr}
 1343              		.cfi_def_cfa_offset 20
 1344              		.cfi_offset 4, -20
 1345              		.cfi_offset 5, -16
 1346              		.cfi_offset 6, -12
 1347              		.cfi_offset 7, -8
 1348              		.cfi_offset 14, -4
 1349 0002 4746     		mov	r7, r8
 1350 0004 80B4     		push	{r7}
 1351              		.cfi_def_cfa_offset 24
 1352              		.cfi_offset 8, -24
 1353 0006 84B0     		sub	sp, sp, #16
 1354              		.cfi_def_cfa_offset 40
 1355 0008 041C     		mov	r4, r0
1978:.\Generated_Source\PSoC4/CapSense_CSHL.c ****             uint8 posFiltersMask = CapSense_posFiltersMask[widget];
 1356              		.loc 1 1978 0
 1357 000a 214B     		ldr	r3, .L120
 1358 000c 1A1C     		mov	r2, r3
 1359 000e 2032     		add	r2, r2, #32
 1360 0010 175C     		ldrb	r7, [r2, r0]
 1361              	.LVL161:
1991:.\Generated_Source\PSoC4/CapSense_CSHL.c ****         uint8 count = CapSense_numberOfSensors[widget];
 1362              		.loc 1 1991 0
 1363 0012 204A     		ldr	r2, .L120+4
 1364 0014 165C     		ldrb	r6, [r2, r0]
 1365              	.LVL162:
1992:.\Generated_Source\PSoC4/CapSense_CSHL.c **** 
 1366              		.loc 1 1992 0
 1367 0016 1218     		add	r2, r2, r0
 1368 0018 157A     		ldrb	r5, [r2, #8]
 1369              	.LVL163:
1998:.\Generated_Source\PSoC4/CapSense_CSHL.c ****         #endif /* (CapSense_IS_DIPLEX_SLIDER) */
 1370              		.loc 1 1998 0
 1371 001a 1B18     		add	r3, r3, r0
 1372 001c 1A7A     		ldrb	r2, [r3, #8]
 1373 001e 301C     		mov	r0, r6
 1374              	.LVL164:
 1375 0020 291C     		mov	r1, r5
 1376 0022 FFF7FEFF 		bl	CapSense_FindMaximum
 1377              	.LVL165:
2001:.\Generated_Source\PSoC4/CapSense_CSHL.c ****         {
 1378              		.loc 1 2001 0
 1379 0026 FF28     		cmp	r0, #255
ARM GAS  C:\Users\Terence\AppData\Local\Temp\cc6R4aDx.s 			page 68


 1380 0028 28D0     		beq	.L117
2004:.\Generated_Source\PSoC4/CapSense_CSHL.c ****                          offset, count, CapSense_centroidMult[widget], CapSense_noiseThreshold[widg
 1381              		.loc 1 2004 0
 1382 002a 1B4B     		ldr	r3, .L120+8
 1383 002c 1B5D     		ldrb	r3, [r3, r4]
 1384 002e 0093     		str	r3, [sp]
 1385 0030 311C     		mov	r1, r6
 1386 0032 2A1C     		mov	r2, r5
 1387 0034 C823     		mov	r3, #200
 1388 0036 5B01     		lsl	r3, r3, #5
 1389 0038 FFF7FEFF 		bl	CapSense_CalcCentroid
 1390              	.LVL166:
 1391 003c 051C     		mov	r5, r0
 1392              	.LVL167:
 1393 003e 80B2     		uxth	r0, r0
 1394              	.LVL168:
2012:.\Generated_Source\PSoC4/CapSense_CSHL.c **** 
 1395              		.loc 1 2012 0
 1396 0040 7C1C     		add	r4, r7, #1
 1397              	.LVL169:
 1398 0042 E4B2     		uxtb	r4, r4
 1399              	.LVL170:
2014:.\Generated_Source\PSoC4/CapSense_CSHL.c ****                     {
 1400              		.loc 1 2014 0
 1401 0044 124B     		ldr	r3, .L120
 1402 0046 2033     		add	r3, r3, #32
 1403 0048 DB5D     		ldrb	r3, [r3, r7]
 1404 004a 002B     		cmp	r3, #0
 1405 004c 07D1     		bne	.L118
2017:.\Generated_Source\PSoC4/CapSense_CSHL.c ****                         #if ((0u != (CapSense_MEDIAN_FILTER & \
 1406              		.loc 1 2017 0
 1407 004e 104B     		ldr	r3, .L120
 1408 0050 2033     		add	r3, r3, #32
 1409 0052 1D55     		strb	r5, [r3, r4]
2026:.\Generated_Source\PSoC4/CapSense_CSHL.c ****                             }
 1410              		.loc 1 2026 0
 1411 0054 0134     		add	r4, r4, #1
 1412              	.LVL171:
 1413 0056 1D55     		strb	r5, [r3, r4]
2034:.\Generated_Source\PSoC4/CapSense_CSHL.c ****                     }
 1414              		.loc 1 2034 0
 1415 0058 0122     		mov	r2, #1
 1416 005a DA55     		strb	r2, [r3, r7]
 1417 005c 13E0     		b	.L119
 1418              	.LVL172:
 1419              	.L118:
2044:.\Generated_Source\PSoC4/CapSense_CSHL.c ****                                                                         CapSense_posFiltersData[pos
 1420              		.loc 1 2044 0
 1421 005e 0C4E     		ldr	r6, .L120
 1422              	.LVL173:
 1423 0060 2036     		add	r6, r6, #32
 1424 0062 335D     		ldrb	r3, [r6, r4]
 1425 0064 9846     		mov	r8, r3
2043:.\Generated_Source\PSoC4/CapSense_CSHL.c ****                                                                         CapSense_posFiltersData[pos
 1426              		.loc 1 2043 0
 1427 0066 6A46     		mov	r2, sp
 1428 0068 D381     		strh	r3, [r2, #14]
ARM GAS  C:\Users\Terence\AppData\Local\Temp\cc6R4aDx.s 			page 69


 1429 006a D189     		ldrh	r1, [r2, #14]
2045:.\Generated_Source\PSoC4/CapSense_CSHL.c ****                                 CapSense_posFiltersData[posIndex + 1u] =
 1430              		.loc 1 2045 0
 1431 006c 671C     		add	r7, r4, #1
 1432              	.LVL174:
2043:.\Generated_Source\PSoC4/CapSense_CSHL.c ****                                                                         CapSense_posFiltersData[pos
 1433              		.loc 1 2043 0
 1434 006e F25D     		ldrb	r2, [r6, r7]
 1435 0070 FFF7FEFF 		bl	CapSense_MedianFilter
 1436              	.LVL175:
2046:.\Generated_Source\PSoC4/CapSense_CSHL.c ****                                                                               CapSense_posFiltersDa
 1437              		.loc 1 2046 0
 1438 0074 4346     		mov	r3, r8
 1439 0076 F355     		strb	r3, [r6, r7]
2048:.\Generated_Source\PSoC4/CapSense_CSHL.c ****                             }
 1440              		.loc 1 2048 0
 1441 0078 3555     		strb	r5, [r6, r4]
 1442 007a 04E0     		b	.L119
 1443              	.LVL176:
 1444              	.L117:
2115:.\Generated_Source\PSoC4/CapSense_CSHL.c ****                 }
 1445              		.loc 1 2115 0
 1446 007c 0022     		mov	r2, #0
 1447 007e 044B     		ldr	r3, .L120
 1448 0080 2033     		add	r3, r3, #32
 1449 0082 DA55     		strb	r2, [r3, r7]
2109:.\Generated_Source\PSoC4/CapSense_CSHL.c **** 
 1450              		.loc 1 2109 0
 1451 0084 0548     		ldr	r0, .L120+12
 1452              	.LVL177:
 1453              	.L119:
2121:.\Generated_Source\PSoC4/CapSense_CSHL.c **** #endif /* ((CapSense_TOTAL_RADIAL_SLIDERS_COUNT > 0u) || (CapSense_TOTAL_LINEAR_SLIDERS_COUNT > 0u)
 1454              		.loc 1 2121 0
 1455 0086 04B0     		add	sp, sp, #16
 1456              		@ sp needed
 1457 0088 04BC     		pop	{r2}
 1458 008a 9046     		mov	r8, r2
 1459 008c F0BD     		pop	{r4, r5, r6, r7, pc}
 1460              	.L121:
 1461 008e C046     		.align	2
 1462              	.L120:
 1463 0090 00000000 		.word	.LANCHOR1
 1464 0094 00000000 		.word	.LANCHOR2
 1465 0098 00000000 		.word	CapSense_noiseThreshold
 1466 009c FFFF0000 		.word	65535
 1467              		.cfi_endproc
 1468              	.LFE66:
 1469              		.size	CapSense_GetRadialCentroidPos, .-CapSense_GetRadialCentroidPos
 1470              		.section	.text.CapSense_IIR4Filter,"ax",%progbits
 1471              		.align	2
 1472              		.global	CapSense_IIR4Filter
 1473              		.code	16
 1474              		.thumb_func
 1475              		.type	CapSense_IIR4Filter, %function
 1476              	CapSense_IIR4Filter:
 1477              	.LFB68:
2421:.\Generated_Source\PSoC4/CapSense_CSHL.c **** #endif /* ( (0u != (CapSense_RAW_FILTER_MASK & CapSense_MEDIAN_FILTER)) || \
ARM GAS  C:\Users\Terence\AppData\Local\Temp\cc6R4aDx.s 			page 70


2422:.\Generated_Source\PSoC4/CapSense_CSHL.c ****       (0u != (CapSense_POS_FILTERS_MASK & CapSense_MEDIAN_FILTER)) || \
2423:.\Generated_Source\PSoC4/CapSense_CSHL.c ****       ((CapSense_TUNING_METHOD == CapSense__TUNING_AUTO)) ) */
2424:.\Generated_Source\PSoC4/CapSense_CSHL.c **** 
2425:.\Generated_Source\PSoC4/CapSense_CSHL.c **** 
2426:.\Generated_Source\PSoC4/CapSense_CSHL.c **** #if ( (0u != (CapSense_RAW_FILTER_MASK & CapSense_AVERAGING_FILTER)) || \
2427:.\Generated_Source\PSoC4/CapSense_CSHL.c ****       (0u != (CapSense_POS_FILTERS_MASK & CapSense_AVERAGING_FILTER)) )
2428:.\Generated_Source\PSoC4/CapSense_CSHL.c ****     /*******************************************************************************
2429:.\Generated_Source\PSoC4/CapSense_CSHL.c ****     * Function Name: CapSense_AveragingFilter
2430:.\Generated_Source\PSoC4/CapSense_CSHL.c ****     ********************************************************************************
2431:.\Generated_Source\PSoC4/CapSense_CSHL.c ****     *
2432:.\Generated_Source\PSoC4/CapSense_CSHL.c ****     * Summary:
2433:.\Generated_Source\PSoC4/CapSense_CSHL.c ****     *  This is the Averaging filter function.
2434:.\Generated_Source\PSoC4/CapSense_CSHL.c ****     *  The averaging filter looks at the three most recent samples of a position and
2435:.\Generated_Source\PSoC4/CapSense_CSHL.c ****     *  reports the averaging value.
2436:.\Generated_Source\PSoC4/CapSense_CSHL.c ****     *
2437:.\Generated_Source\PSoC4/CapSense_CSHL.c ****     * Parameters:
2438:.\Generated_Source\PSoC4/CapSense_CSHL.c ****     *  x1:  Current value.
2439:.\Generated_Source\PSoC4/CapSense_CSHL.c ****     *  x2:  Previous value.
2440:.\Generated_Source\PSoC4/CapSense_CSHL.c ****     *  x3:  Before previous value.
2441:.\Generated_Source\PSoC4/CapSense_CSHL.c ****     *
2442:.\Generated_Source\PSoC4/CapSense_CSHL.c ****     * Return:
2443:.\Generated_Source\PSoC4/CapSense_CSHL.c ****     *  Returns filtered value.
2444:.\Generated_Source\PSoC4/CapSense_CSHL.c ****     *
2445:.\Generated_Source\PSoC4/CapSense_CSHL.c ****     * Global Variables:
2446:.\Generated_Source\PSoC4/CapSense_CSHL.c ****     *  None.
2447:.\Generated_Source\PSoC4/CapSense_CSHL.c ****     *
2448:.\Generated_Source\PSoC4/CapSense_CSHL.c ****     * Side Effects:
2449:.\Generated_Source\PSoC4/CapSense_CSHL.c ****     *  None
2450:.\Generated_Source\PSoC4/CapSense_CSHL.c ****     *
2451:.\Generated_Source\PSoC4/CapSense_CSHL.c ****     *******************************************************************************/
2452:.\Generated_Source\PSoC4/CapSense_CSHL.c ****     uint16 CapSense_AveragingFilter(uint16 x1, uint16 x2, uint16 x3)
2453:.\Generated_Source\PSoC4/CapSense_CSHL.c ****     {
2454:.\Generated_Source\PSoC4/CapSense_CSHL.c ****         uint32 tmp = ((uint32)x1 + (uint32)x2 + (uint32)x3) / 3u;
2455:.\Generated_Source\PSoC4/CapSense_CSHL.c **** 
2456:.\Generated_Source\PSoC4/CapSense_CSHL.c ****         return ((uint16) tmp);
2457:.\Generated_Source\PSoC4/CapSense_CSHL.c ****     }
2458:.\Generated_Source\PSoC4/CapSense_CSHL.c **** #endif /* ( (0u != (CapSense_RAW_FILTER_MASK & CapSense_AVERAGING_FILTER) || \
2459:.\Generated_Source\PSoC4/CapSense_CSHL.c ****       (0u != (CapSense_POS_FILTERS_MASK & CapSense_AVERAGING_FILTER) ) */
2460:.\Generated_Source\PSoC4/CapSense_CSHL.c **** 
2461:.\Generated_Source\PSoC4/CapSense_CSHL.c **** 
2462:.\Generated_Source\PSoC4/CapSense_CSHL.c **** #if ( (0u != (CapSense_RAW_FILTER_MASK & CapSense_IIR2_FILTER)) || \
2463:.\Generated_Source\PSoC4/CapSense_CSHL.c ****       (0u != (CapSense_POS_FILTERS_MASK & CapSense_IIR2_FILTER)) )
2464:.\Generated_Source\PSoC4/CapSense_CSHL.c ****     /*******************************************************************************
2465:.\Generated_Source\PSoC4/CapSense_CSHL.c ****     * Function Name: CapSense_IIR2Filter
2466:.\Generated_Source\PSoC4/CapSense_CSHL.c ****     ********************************************************************************
2467:.\Generated_Source\PSoC4/CapSense_CSHL.c ****     *
2468:.\Generated_Source\PSoC4/CapSense_CSHL.c ****     * Summary:
2469:.\Generated_Source\PSoC4/CapSense_CSHL.c ****     *  This is the IIR1/2 filter function. IIR1/2 = 1/2current + 1/2previous.
2470:.\Generated_Source\PSoC4/CapSense_CSHL.c ****     *
2471:.\Generated_Source\PSoC4/CapSense_CSHL.c ****     * Parameters:
2472:.\Generated_Source\PSoC4/CapSense_CSHL.c ****     *  x1:  Current value.
2473:.\Generated_Source\PSoC4/CapSense_CSHL.c ****     *  x2:  Previous value.
2474:.\Generated_Source\PSoC4/CapSense_CSHL.c ****     *
2475:.\Generated_Source\PSoC4/CapSense_CSHL.c ****     * Return:
2476:.\Generated_Source\PSoC4/CapSense_CSHL.c ****     *  Returns filtered value.
2477:.\Generated_Source\PSoC4/CapSense_CSHL.c ****     *
2478:.\Generated_Source\PSoC4/CapSense_CSHL.c ****     * Global Variables:
ARM GAS  C:\Users\Terence\AppData\Local\Temp\cc6R4aDx.s 			page 71


2479:.\Generated_Source\PSoC4/CapSense_CSHL.c ****     *  None.
2480:.\Generated_Source\PSoC4/CapSense_CSHL.c ****     *
2481:.\Generated_Source\PSoC4/CapSense_CSHL.c ****     * Side Effects:
2482:.\Generated_Source\PSoC4/CapSense_CSHL.c ****     *  None
2483:.\Generated_Source\PSoC4/CapSense_CSHL.c ****     *
2484:.\Generated_Source\PSoC4/CapSense_CSHL.c ****     *******************************************************************************/
2485:.\Generated_Source\PSoC4/CapSense_CSHL.c ****     uint16 CapSense_IIR2Filter(uint16 x1, uint16 x2)
2486:.\Generated_Source\PSoC4/CapSense_CSHL.c ****     {
2487:.\Generated_Source\PSoC4/CapSense_CSHL.c ****         uint32 tmp;
2488:.\Generated_Source\PSoC4/CapSense_CSHL.c **** 
2489:.\Generated_Source\PSoC4/CapSense_CSHL.c ****         /* IIR = 1/2 Current Value+ 1/2 Previous Value */
2490:.\Generated_Source\PSoC4/CapSense_CSHL.c ****         tmp = (uint32)x1 + (uint32)x2;
2491:.\Generated_Source\PSoC4/CapSense_CSHL.c ****         tmp >>= 1u;
2492:.\Generated_Source\PSoC4/CapSense_CSHL.c **** 
2493:.\Generated_Source\PSoC4/CapSense_CSHL.c ****         return ((uint16) tmp);
2494:.\Generated_Source\PSoC4/CapSense_CSHL.c ****     }
2495:.\Generated_Source\PSoC4/CapSense_CSHL.c **** #endif /* ( (0u != (CapSense_RAW_FILTER_MASK & CapSense_IIR2_FILTER)) || \
2496:.\Generated_Source\PSoC4/CapSense_CSHL.c ****        *    (0u != (CapSense_POS_FILTERS_MASK & CapSense_IIR2_FILTER)) )
2497:.\Generated_Source\PSoC4/CapSense_CSHL.c ****        */
2498:.\Generated_Source\PSoC4/CapSense_CSHL.c **** 
2499:.\Generated_Source\PSoC4/CapSense_CSHL.c **** 
2500:.\Generated_Source\PSoC4/CapSense_CSHL.c **** #if ( (0u != (CapSense_RAW_FILTER_MASK & CapSense_IIR4_FILTER)) || \
2501:.\Generated_Source\PSoC4/CapSense_CSHL.c ****       (0u != (CapSense_POS_FILTERS_MASK & CapSense_IIR4_FILTER)) )
2502:.\Generated_Source\PSoC4/CapSense_CSHL.c ****     /*******************************************************************************
2503:.\Generated_Source\PSoC4/CapSense_CSHL.c ****     * Function Name: CapSense_IIR4Filter
2504:.\Generated_Source\PSoC4/CapSense_CSHL.c ****     ********************************************************************************
2505:.\Generated_Source\PSoC4/CapSense_CSHL.c ****     *
2506:.\Generated_Source\PSoC4/CapSense_CSHL.c ****     * Summary:
2507:.\Generated_Source\PSoC4/CapSense_CSHL.c ****     *  This is the IIR1/4 filter function. IIR1/4 = 1/4current + 3/4previous.
2508:.\Generated_Source\PSoC4/CapSense_CSHL.c ****     *
2509:.\Generated_Source\PSoC4/CapSense_CSHL.c ****     * Parameters:
2510:.\Generated_Source\PSoC4/CapSense_CSHL.c ****     *  x1:  Current value.
2511:.\Generated_Source\PSoC4/CapSense_CSHL.c ****     *  x2:  Previous value.
2512:.\Generated_Source\PSoC4/CapSense_CSHL.c ****     *
2513:.\Generated_Source\PSoC4/CapSense_CSHL.c ****     * Return:
2514:.\Generated_Source\PSoC4/CapSense_CSHL.c ****     *  Returns a filtered value.
2515:.\Generated_Source\PSoC4/CapSense_CSHL.c ****     *
2516:.\Generated_Source\PSoC4/CapSense_CSHL.c ****     * Global Variables:
2517:.\Generated_Source\PSoC4/CapSense_CSHL.c ****     *  None.
2518:.\Generated_Source\PSoC4/CapSense_CSHL.c ****     *
2519:.\Generated_Source\PSoC4/CapSense_CSHL.c ****     * Side Effects:
2520:.\Generated_Source\PSoC4/CapSense_CSHL.c ****     *  None
2521:.\Generated_Source\PSoC4/CapSense_CSHL.c ****     *
2522:.\Generated_Source\PSoC4/CapSense_CSHL.c ****     *******************************************************************************/
2523:.\Generated_Source\PSoC4/CapSense_CSHL.c ****     uint16 CapSense_IIR4Filter(uint16 x1, uint16 x2)
2524:.\Generated_Source\PSoC4/CapSense_CSHL.c ****     {
 1478              		.loc 1 2524 0
 1479              		.cfi_startproc
 1480              	.LVL178:
2525:.\Generated_Source\PSoC4/CapSense_CSHL.c ****         uint32 tmp;
2526:.\Generated_Source\PSoC4/CapSense_CSHL.c **** 
2527:.\Generated_Source\PSoC4/CapSense_CSHL.c ****         /* IIR = 1/4 Current Value + 3/4 Previous Value */
2528:.\Generated_Source\PSoC4/CapSense_CSHL.c ****         tmp = (uint32)x1 + (uint32)x2;
 1481              		.loc 1 2528 0
 1482 0000 4318     		add	r3, r0, r1
 1483              	.LVL179:
2529:.\Generated_Source\PSoC4/CapSense_CSHL.c ****         tmp += ((uint32)x2 << 1u);
ARM GAS  C:\Users\Terence\AppData\Local\Temp\cc6R4aDx.s 			page 72


 1484              		.loc 1 2529 0
 1485 0002 4900     		lsl	r1, r1, #1
 1486              	.LVL180:
 1487 0004 C818     		add	r0, r1, r3
 1488              	.LVL181:
2530:.\Generated_Source\PSoC4/CapSense_CSHL.c ****         tmp >>= 2u;
 1489              		.loc 1 2530 0
 1490 0006 8008     		lsr	r0, r0, #2
 1491              	.LVL182:
2531:.\Generated_Source\PSoC4/CapSense_CSHL.c **** 
2532:.\Generated_Source\PSoC4/CapSense_CSHL.c ****         return ((uint16) tmp);
 1492              		.loc 1 2532 0
 1493 0008 80B2     		uxth	r0, r0
 1494              	.LVL183:
2533:.\Generated_Source\PSoC4/CapSense_CSHL.c ****     }
 1495              		.loc 1 2533 0
 1496              		@ sp needed
 1497 000a 7047     		bx	lr
 1498              		.cfi_endproc
 1499              	.LFE68:
 1500              		.size	CapSense_IIR4Filter, .-CapSense_IIR4Filter
 1501              		.section	.text.CapSense_UpdateBaselineNoThreshold,"ax",%progbits
 1502              		.align	2
 1503              		.global	CapSense_UpdateBaselineNoThreshold
 1504              		.code	16
 1505              		.thumb_func
 1506              		.type	CapSense_UpdateBaselineNoThreshold, %function
 1507              	CapSense_UpdateBaselineNoThreshold:
 1508              	.LFB40:
 375:.\Generated_Source\PSoC4/CapSense_CSHL.c ****     uint32 calc;
 1509              		.loc 1 375 0
 1510              		.cfi_startproc
 1511              	.LVL184:
 1512 0000 F0B5     		push	{r4, r5, r6, r7, lr}
 1513              		.cfi_def_cfa_offset 20
 1514              		.cfi_offset 4, -20
 1515              		.cfi_offset 5, -16
 1516              		.cfi_offset 6, -12
 1517              		.cfi_offset 7, -8
 1518              		.cfi_offset 14, -4
 1519 0002 4746     		mov	r7, r8
 1520 0004 80B4     		push	{r7}
 1521              		.cfi_def_cfa_offset 24
 1522              		.cfi_offset 8, -24
 1523 0006 82B0     		sub	sp, sp, #8
 1524              		.cfi_def_cfa_offset 32
 1525 0008 041C     		mov	r4, r0
 380:.\Generated_Source\PSoC4/CapSense_CSHL.c ****     uint8 noiseThreshold;
 1526              		.loc 1 380 0
 1527 000a 3C4B     		ldr	r3, .L134
 1528 000c 1E5C     		ldrb	r6, [r3, r0]
 389:.\Generated_Source\PSoC4/CapSense_CSHL.c ****     filteredRawData = CapSense_sensorRaw[sensor];
 1529              		.loc 1 389 0
 1530 000e 3C4B     		ldr	r3, .L134+4
 1531 0010 9B5D     		ldrb	r3, [r3, r6]
 1532 0012 0193     		str	r3, [sp, #4]
 1533              	.LVL185:
ARM GAS  C:\Users\Terence\AppData\Local\Temp\cc6R4aDx.s 			page 73


 390:.\Generated_Source\PSoC4/CapSense_CSHL.c **** 
 1534              		.loc 1 390 0
 1535 0014 4200     		lsl	r2, r0, #1
 1536 0016 3B4B     		ldr	r3, .L134+8
 1537 0018 D75A     		ldrh	r7, [r2, r3]
 1538              	.LVL186:
 393:.\Generated_Source\PSoC4/CapSense_CSHL.c ****     {
 1539              		.loc 1 393 0
 1540 001a 2423     		mov	r3, #36
 1541 001c 3A4A     		ldr	r2, .L134+12
 1542 001e D35C     		ldrb	r3, [r2, r3]
 1543 0020 002B     		cmp	r3, #0
 1544 0022 09D0     		beq	.L124
 414:.\Generated_Source\PSoC4/CapSense_CSHL.c ****             CapSense_rawFilterData1[sensor] = filteredRawData;
 1545              		.loc 1 414 0
 1546 0024 394D     		ldr	r5, .L134+16
 1547 0026 4300     		lsl	r3, r0, #1
 1548 0028 9846     		mov	r8, r3
 1549 002a 595B     		ldrh	r1, [r3, r5]
 1550 002c 381C     		mov	r0, r7
 1551              	.LVL187:
 1552 002e FFF7FEFF 		bl	CapSense_IIR4Filter
 1553              	.LVL188:
 1554 0032 071C     		mov	r7, r0
 1555              	.LVL189:
 415:.\Generated_Source\PSoC4/CapSense_CSHL.c **** 
 1556              		.loc 1 415 0
 1557 0034 4346     		mov	r3, r8
 1558 0036 5853     		strh	r0, [r3, r5]
 1559              	.LVL190:
 1560              	.L124:
 436:.\Generated_Source\PSoC4/CapSense_CSHL.c ****     #endif /* (CapSense_TUNING_METHOD == CapSense__TUNING_AUTO) */
 1561              		.loc 1 436 0
 1562 0038 E1B2     		uxtb	r1, r4
 1563 003a 3548     		ldr	r0, .L134+20
 1564 003c 314A     		ldr	r2, .L134+8
 1565 003e FFF7FEFF 		bl	MeasureNoiseEnvelope_P4_v2_40
 1566              	.LVL191:
 441:.\Generated_Source\PSoC4/CapSense_CSHL.c ****     {
 1567              		.loc 1 441 0
 1568 0042 6300     		lsl	r3, r4, #1
 1569 0044 334A     		ldr	r2, .L134+24
 1570 0046 9A5A     		ldrh	r2, [r3, r2]
 1571 0048 BA42     		cmp	r2, r7
 1572 004a 07D8     		bhi	.L125
 443:.\Generated_Source\PSoC4/CapSense_CSHL.c ****         tempRaw = filteredRawData - CapSense_sensorBaseline[sensor];
 1573              		.loc 1 443 0
 1574 004c 0021     		mov	r1, #0
 1575 004e 324B     		ldr	r3, .L134+28
 1576 0050 1955     		strb	r1, [r3, r4]
 444:.\Generated_Source\PSoC4/CapSense_CSHL.c ****         sign = 1u;    /* Positive difference - Calculate the Signal */
 1577              		.loc 1 444 0
 1578 0052 BD1A     		sub	r5, r7, r2
 1579 0054 ADB2     		uxth	r5, r5
 1580              	.LVL192:
 445:.\Generated_Source\PSoC4/CapSense_CSHL.c ****     }
 1581              		.loc 1 445 0
ARM GAS  C:\Users\Terence\AppData\Local\Temp\cc6R4aDx.s 			page 74


 1582 0056 0123     		mov	r3, #1
 1583 0058 9846     		mov	r8, r3
 1584 005a 03E0     		b	.L126
 1585              	.LVL193:
 1586              	.L125:
 449:.\Generated_Source\PSoC4/CapSense_CSHL.c ****         sign = 0u;    /* Negative difference - Do NOT calculate the Signal */
 1587              		.loc 1 449 0
 1588 005c D51B     		sub	r5, r2, r7
 1589 005e ADB2     		uxth	r5, r5
 1590              	.LVL194:
 450:.\Generated_Source\PSoC4/CapSense_CSHL.c ****     }
 1591              		.loc 1 450 0
 1592 0060 0023     		mov	r3, #0
 1593 0062 9846     		mov	r8, r3
 1594              	.LVL195:
 1595              	.L126:
 454:.\Generated_Source\PSoC4/CapSense_CSHL.c ****     #else
 1596              		.loc 1 454 0
 1597 0064 4346     		mov	r3, r8
 1598 0066 002B     		cmp	r3, #0
 1599 0068 15D1     		bne	.L127
 454:.\Generated_Source\PSoC4/CapSense_CSHL.c ****     #else
 1600              		.loc 1 454 0 is_stmt 0 discriminator 1
 1601 006a 2C4B     		ldr	r3, .L134+32
 1602 006c 9B5D     		ldrb	r3, [r3, r6]
 1603 006e AB42     		cmp	r3, r5
 1604 0070 11D2     		bcs	.L127
 459:.\Generated_Source\PSoC4/CapSense_CSHL.c ****         {
 1605              		.loc 1 459 0 is_stmt 1
 1606 0072 294B     		ldr	r3, .L134+28
 1607 0074 1B5D     		ldrb	r3, [r3, r4]
 1608 0076 244A     		ldr	r2, .L134+12
 1609 0078 1219     		add	r2, r2, r4
 1610 007a 127C     		ldrb	r2, [r2, #16]
 1611 007c 9342     		cmp	r3, r2
 1612 007e 06D3     		bcc	.L128
 461:.\Generated_Source\PSoC4/CapSense_CSHL.c ****             CapSense_lowBaselineResetCnt[sensor] = 0u;
 1613              		.loc 1 461 0
 1614 0080 201C     		mov	r0, r4
 1615 0082 FFF7FEFF 		bl	CapSense_BaseInit
 1616              	.LVL196:
 462:.\Generated_Source\PSoC4/CapSense_CSHL.c ****         }
 1617              		.loc 1 462 0
 1618 0086 0022     		mov	r2, #0
 1619 0088 234B     		ldr	r3, .L134+28
 1620 008a 1A55     		strb	r2, [r3, r4]
 1621 008c 1CE0     		b	.L129
 1622              	.L128:
 466:.\Generated_Source\PSoC4/CapSense_CSHL.c ****         }
 1623              		.loc 1 466 0
 1624 008e 0133     		add	r3, r3, #1
 1625 0090 214A     		ldr	r2, .L134+28
 1626 0092 1355     		strb	r3, [r2, r4]
 1627 0094 18E0     		b	.L129
 1628              	.L127:
 474:.\Generated_Source\PSoC4/CapSense_CSHL.c ****              ((tempRaw < (uint16) CapSense_negativeNoiseThreshold[widget])
 1629              		.loc 1 474 0
ARM GAS  C:\Users\Terence\AppData\Local\Temp\cc6R4aDx.s 			page 75


 1630 0096 6B46     		mov	r3, sp
 1631 0098 9B88     		ldrh	r3, [r3, #4]
 1632 009a AB42     		cmp	r3, r5
 1633 009c 06D2     		bcs	.L130
 475:.\Generated_Source\PSoC4/CapSense_CSHL.c ****                && (sign == 0u)))
 1634              		.loc 1 475 0 discriminator 1
 1635 009e 1F4B     		ldr	r3, .L134+32
 1636 00a0 9B5D     		ldrb	r3, [r3, r6]
 474:.\Generated_Source\PSoC4/CapSense_CSHL.c ****              ((tempRaw < (uint16) CapSense_negativeNoiseThreshold[widget])
 1637              		.loc 1 474 0 discriminator 1
 1638 00a2 AB42     		cmp	r3, r5
 1639 00a4 10D9     		bls	.L129
 476:.\Generated_Source\PSoC4/CapSense_CSHL.c ****             {
 1640              		.loc 1 476 0
 1641 00a6 4346     		mov	r3, r8
 1642 00a8 002B     		cmp	r3, #0
 1643 00aa 0DD1     		bne	.L129
 1644              	.L130:
 487:.\Generated_Source\PSoC4/CapSense_CSHL.c ****                 calc |= (uint32) CapSense_sensorBaselineLow[sensor];
 1645              		.loc 1 487 0
 1646 00ac 1302     		lsl	r3, r2, #8
 1647              	.LVL197:
 488:.\Generated_Source\PSoC4/CapSense_CSHL.c **** 
 1648              		.loc 1 488 0
 1649 00ae 1948     		ldr	r0, .L134+24
 1650 00b0 0119     		add	r1, r0, r4
 1651 00b2 0E7F     		ldrb	r6, [r1, #28]
 1652 00b4 3343     		orr	r3, r6
 1653              	.LVL198:
 491:.\Generated_Source\PSoC4/CapSense_CSHL.c **** 
 1654              		.loc 1 491 0
 1655 00b6 FF18     		add	r7, r7, r3
 1656              	.LVL199:
 494:.\Generated_Source\PSoC4/CapSense_CSHL.c **** 
 1657              		.loc 1 494 0
 1658 00b8 BF1A     		sub	r7, r7, r2
 1659              	.LVL200:
 497:.\Generated_Source\PSoC4/CapSense_CSHL.c ****                 CapSense_sensorBaselineLow[sensor] = ((uint8) calc);
 1660              		.loc 1 497 0
 1661 00ba 3A0A     		lsr	r2, r7, #8
 1662 00bc 6300     		lsl	r3, r4, #1
 1663 00be C252     		strh	r2, [r0, r3]
 498:.\Generated_Source\PSoC4/CapSense_CSHL.c **** 
 1664              		.loc 1 498 0
 1665 00c0 0F77     		strb	r7, [r1, #28]
 500:.\Generated_Source\PSoC4/CapSense_CSHL.c ****         #if (CapSense_AUTO_RESET == CapSense_AUTO_RESET_DISABLE)
 1666              		.loc 1 500 0
 1667 00c2 0022     		mov	r2, #0
 1668 00c4 144B     		ldr	r3, .L134+28
 1669 00c6 1A55     		strb	r2, [r3, r4]
 1670              	.LVL201:
 1671              	.L129:
 507:.\Generated_Source\PSoC4/CapSense_CSHL.c ****     {
 1672              		.loc 1 507 0
 1673 00c8 6B46     		mov	r3, sp
 1674 00ca 9E88     		ldrh	r6, [r3, #4]
 1675 00cc AE42     		cmp	r6, r5
ARM GAS  C:\Users\Terence\AppData\Local\Temp\cc6R4aDx.s 			page 76


 1676 00ce 0DD2     		bcs	.L131
 507:.\Generated_Source\PSoC4/CapSense_CSHL.c ****     {
 1677              		.loc 1 507 0 is_stmt 0 discriminator 1
 1678 00d0 4346     		mov	r3, r8
 1679 00d2 002B     		cmp	r3, #0
 1680 00d4 0AD0     		beq	.L131
 1681              	.LVL202:
 511:.\Generated_Source\PSoC4/CapSense_CSHL.c ****             {
 1682              		.loc 1 511 0 is_stmt 1
 1683 00d6 FF2D     		cmp	r5, #255
 1684 00d8 04D9     		bls	.L132
 513:.\Generated_Source\PSoC4/CapSense_CSHL.c ****             }
 1685              		.loc 1 513 0
 1686 00da FF22     		mov	r2, #255
 1687 00dc 0D4B     		ldr	r3, .L134+24
 1688              	.LVL203:
 1689 00de 2C33     		add	r3, r3, #44
 1690 00e0 1A55     		strb	r2, [r3, r4]
 1691 00e2 07E0     		b	.L123
 1692              	.LVL204:
 1693              	.L132:
 517:.\Generated_Source\PSoC4/CapSense_CSHL.c ****             }
 1694              		.loc 1 517 0
 1695 00e4 0B4B     		ldr	r3, .L134+24
 1696              	.LVL205:
 1697 00e6 2C33     		add	r3, r3, #44
 1698 00e8 1D55     		strb	r5, [r3, r4]
 1699 00ea 03E0     		b	.L123
 1700              	.L131:
 526:.\Generated_Source\PSoC4/CapSense_CSHL.c ****     }
 1701              		.loc 1 526 0
 1702 00ec 0022     		mov	r2, #0
 1703 00ee 094B     		ldr	r3, .L134+24
 1704 00f0 2C33     		add	r3, r3, #44
 1705 00f2 1A55     		strb	r2, [r3, r4]
 1706              	.L123:
 533:.\Generated_Source\PSoC4/CapSense_CSHL.c **** 
 1707              		.loc 1 533 0
 1708 00f4 02B0     		add	sp, sp, #8
 1709              		@ sp needed
 1710              	.LVL206:
 1711              	.LVL207:
 1712              	.LVL208:
 1713 00f6 04BC     		pop	{r2}
 1714 00f8 9046     		mov	r8, r2
 1715 00fa F0BD     		pop	{r4, r5, r6, r7, pc}
 1716              	.L135:
 1717              		.align	2
 1718              	.L134:
 1719 00fc 00000000 		.word	CapSense_widgetNumber
 1720 0100 00000000 		.word	CapSense_noiseThreshold
 1721 0104 00000000 		.word	CapSense_sensorRaw
 1722 0108 00000000 		.word	.LANCHOR1
 1723 010c 00000000 		.word	CapSense_rawFilterData1
 1724 0110 00000000 		.word	CapSense_config
 1725 0114 00000000 		.word	.LANCHOR0
 1726 0118 00000000 		.word	CapSense_lowBaselineResetCnt
ARM GAS  C:\Users\Terence\AppData\Local\Temp\cc6R4aDx.s 			page 77


 1727 011c 00000000 		.word	CapSense_negativeNoiseThreshold
 1728              		.cfi_endproc
 1729              	.LFE40:
 1730              		.size	CapSense_UpdateBaselineNoThreshold, .-CapSense_UpdateBaselineNoThreshold
 1731              		.section	.text.CapSense_UpdateSensorBaseline,"ax",%progbits
 1732              		.align	2
 1733              		.global	CapSense_UpdateSensorBaseline
 1734              		.code	16
 1735              		.thumb_func
 1736              		.type	CapSense_UpdateSensorBaseline, %function
 1737              	CapSense_UpdateSensorBaseline:
 1738              	.LFB41:
 567:.\Generated_Source\PSoC4/CapSense_CSHL.c ****     #if (CapSense_TOTAL_GENERICS_COUNT)
 1739              		.loc 1 567 0
 1740              		.cfi_startproc
 1741              	.LVL209:
 1742 0000 10B5     		push	{r4, lr}
 1743              		.cfi_def_cfa_offset 8
 1744              		.cfi_offset 4, -8
 1745              		.cfi_offset 14, -4
 1746 0002 041C     		mov	r4, r0
 579:.\Generated_Source\PSoC4/CapSense_CSHL.c ****     #endif /* (CapSense_TUNING_METHOD == CapSense__TUNING_AUTO) */
 1747              		.loc 1 579 0
 1748 0004 FFF7FEFF 		bl	CapSense_UpdateThresholds
 1749              	.LVL210:
 582:.\Generated_Source\PSoC4/CapSense_CSHL.c **** 
 1750              		.loc 1 582 0
 1751 0008 201C     		mov	r0, r4
 1752 000a FFF7FEFF 		bl	CapSense_UpdateBaselineNoThreshold
 1753              	.LVL211:
 588:.\Generated_Source\PSoC4/CapSense_CSHL.c **** 
 1754              		.loc 1 588 0
 1755              		@ sp needed
 1756              	.LVL212:
 1757 000e 10BD     		pop	{r4, pc}
 1758              		.cfi_endproc
 1759              	.LFE41:
 1760              		.size	CapSense_UpdateSensorBaseline, .-CapSense_UpdateSensorBaseline
 1761              		.section	.text.CapSense_UpdateEnabledBaselines,"ax",%progbits
 1762              		.align	2
 1763              		.global	CapSense_UpdateEnabledBaselines
 1764              		.code	16
 1765              		.thumb_func
 1766              		.type	CapSense_UpdateEnabledBaselines, %function
 1767              	CapSense_UpdateEnabledBaselines:
 1768              	.LFB42:
 621:.\Generated_Source\PSoC4/CapSense_CSHL.c ****     uint32 i;
 1769              		.loc 1 621 0
 1770              		.cfi_startproc
 1771 0000 10B5     		push	{r4, lr}
 1772              		.cfi_def_cfa_offset 8
 1773              		.cfi_offset 4, -8
 1774              		.cfi_offset 14, -4
 1775              	.LVL213:
 625:.\Generated_Source\PSoC4/CapSense_CSHL.c ****     {
 1776              		.loc 1 625 0
 1777 0002 0024     		mov	r4, #0
ARM GAS  C:\Users\Terence\AppData\Local\Temp\cc6R4aDx.s 			page 78


 1778 0004 09E0     		b	.L138
 1779              	.LVL214:
 1780              	.L140:
 627:.\Generated_Source\PSoC4/CapSense_CSHL.c **** 
 1781              		.loc 1 627 0
 1782 0006 0648     		ldr	r0, .L141
 1783 0008 211C     		mov	r1, r4
 1784 000a FFF7FEFF 		bl	CapSense_GetBitValue
 1785              	.LVL215:
 629:.\Generated_Source\PSoC4/CapSense_CSHL.c ****         {
 1786              		.loc 1 629 0
 1787 000e 0028     		cmp	r0, #0
 1788 0010 02D0     		beq	.L139
 631:.\Generated_Source\PSoC4/CapSense_CSHL.c ****         }
 1789              		.loc 1 631 0
 1790 0012 201C     		mov	r0, r4
 1791              	.LVL216:
 1792 0014 FFF7FEFF 		bl	CapSense_UpdateSensorBaseline
 1793              	.LVL217:
 1794              	.L139:
 625:.\Generated_Source\PSoC4/CapSense_CSHL.c ****     {
 1795              		.loc 1 625 0 discriminator 2
 1796 0018 0134     		add	r4, r4, #1
 1797              	.LVL218:
 1798              	.L138:
 625:.\Generated_Source\PSoC4/CapSense_CSHL.c ****     {
 1799              		.loc 1 625 0 is_stmt 0 discriminator 1
 1800 001a 0C2C     		cmp	r4, #12
 1801 001c F3D9     		bls	.L140
 634:.\Generated_Source\PSoC4/CapSense_CSHL.c **** 
 1802              		.loc 1 634 0 is_stmt 1
 1803              		@ sp needed
 1804              	.LVL219:
 1805 001e 10BD     		pop	{r4, pc}
 1806              	.L142:
 1807              		.align	2
 1808              	.L141:
 1809 0020 00000000 		.word	CapSense_sensorEnableMask
 1810              		.cfi_endproc
 1811              	.LFE42:
 1812              		.size	CapSense_UpdateEnabledBaselines, .-CapSense_UpdateEnabledBaselines
 1813              		.section	.text.CapSense_UpdateWidgetBaseline,"ax",%progbits
 1814              		.align	2
 1815              		.global	CapSense_UpdateWidgetBaseline
 1816              		.code	16
 1817              		.thumb_func
 1818              		.type	CapSense_UpdateWidgetBaseline, %function
 1819              	CapSense_UpdateWidgetBaseline:
 1820              	.LFB43:
 666:.\Generated_Source\PSoC4/CapSense_CSHL.c ****     uint32 sensorsPerWidget;
 1821              		.loc 1 666 0
 1822              		.cfi_startproc
 1823              	.LVL220:
 1824 0000 38B5     		push	{r3, r4, r5, lr}
 1825              		.cfi_def_cfa_offset 16
 1826              		.cfi_offset 3, -16
 1827              		.cfi_offset 4, -12
ARM GAS  C:\Users\Terence\AppData\Local\Temp\cc6R4aDx.s 			page 79


 1828              		.cfi_offset 5, -8
 1829              		.cfi_offset 14, -4
 674:.\Generated_Source\PSoC4/CapSense_CSHL.c **** 
 1830              		.loc 1 674 0
 1831 0002 094B     		ldr	r3, .L147
 1832 0004 1A18     		add	r2, r3, r0
 1833 0006 157A     		ldrb	r5, [r2, #8]
 1834              	.LVL221:
 677:.\Generated_Source\PSoC4/CapSense_CSHL.c **** 
 1835              		.loc 1 677 0
 1836 0008 1C5C     		ldrb	r4, [r3, r0]
 1837              	.LVL222:
 680:.\Generated_Source\PSoC4/CapSense_CSHL.c **** 
 1838              		.loc 1 680 0
 1839 000a 2D19     		add	r5, r5, r4
 1840              	.LVL223:
 682:.\Generated_Source\PSoC4/CapSense_CSHL.c ****     {
 1841              		.loc 1 682 0
 1842 000c 09E0     		b	.L144
 1843              	.LVL224:
 1844              	.L146:
 684:.\Generated_Source\PSoC4/CapSense_CSHL.c **** 
 1845              		.loc 1 684 0
 1846 000e 0748     		ldr	r0, .L147+4
 1847 0010 211C     		mov	r1, r4
 1848 0012 FFF7FEFF 		bl	CapSense_GetBitValue
 1849              	.LVL225:
 686:.\Generated_Source\PSoC4/CapSense_CSHL.c ****         {
 1850              		.loc 1 686 0
 1851 0016 0028     		cmp	r0, #0
 1852 0018 02D0     		beq	.L145
 688:.\Generated_Source\PSoC4/CapSense_CSHL.c ****         }
 1853              		.loc 1 688 0
 1854 001a 201C     		mov	r0, r4
 1855              	.LVL226:
 1856 001c FFF7FEFF 		bl	CapSense_UpdateSensorBaseline
 1857              	.LVL227:
 1858              	.L145:
 682:.\Generated_Source\PSoC4/CapSense_CSHL.c ****     {
 1859              		.loc 1 682 0 discriminator 2
 1860 0020 0134     		add	r4, r4, #1
 1861              	.LVL228:
 1862              	.L144:
 682:.\Generated_Source\PSoC4/CapSense_CSHL.c ****     {
 1863              		.loc 1 682 0 is_stmt 0 discriminator 1
 1864 0022 AC42     		cmp	r4, r5
 1865 0024 F3D3     		bcc	.L146
 691:.\Generated_Source\PSoC4/CapSense_CSHL.c **** 
 1866              		.loc 1 691 0 is_stmt 1
 1867              		@ sp needed
 1868              	.LVL229:
 1869              	.LVL230:
 1870 0026 38BD     		pop	{r3, r4, r5, pc}
 1871              	.L148:
 1872              		.align	2
 1873              	.L147:
 1874 0028 00000000 		.word	.LANCHOR2
ARM GAS  C:\Users\Terence\AppData\Local\Temp\cc6R4aDx.s 			page 80


 1875 002c 00000000 		.word	CapSense_sensorEnableMask
 1876              		.cfi_endproc
 1877              	.LFE43:
 1878              		.size	CapSense_UpdateWidgetBaseline, .-CapSense_UpdateWidgetBaseline
 1879              		.section	.text.CapSense_GetWidgetNumber,"ax",%progbits
 1880              		.align	2
 1881              		.global	CapSense_GetWidgetNumber
 1882              		.code	16
 1883              		.thumb_func
 1884              		.type	CapSense_GetWidgetNumber, %function
 1885              	CapSense_GetWidgetNumber:
 1886              	.LFB69:
2534:.\Generated_Source\PSoC4/CapSense_CSHL.c **** #endif /* ( (0u != (CapSense_RAW_FILTER_MASK & CapSense_IIR4_FILTER)) || \
2535:.\Generated_Source\PSoC4/CapSense_CSHL.c ****        *    (0u != (CapSense_POS_FILTERS_MASK & CapSense_IIR4_FILTER)) )
2536:.\Generated_Source\PSoC4/CapSense_CSHL.c ****        */
2537:.\Generated_Source\PSoC4/CapSense_CSHL.c **** 
2538:.\Generated_Source\PSoC4/CapSense_CSHL.c **** 
2539:.\Generated_Source\PSoC4/CapSense_CSHL.c **** #if ( (0u != (CapSense_RAW_FILTER_MASK & CapSense_JITTER_FILTER)) || \
2540:.\Generated_Source\PSoC4/CapSense_CSHL.c ****       (0u != (CapSense_POS_FILTERS_MASK & CapSense_JITTER_FILTER)) || \
2541:.\Generated_Source\PSoC4/CapSense_CSHL.c ****       (0u != (CapSense_TRACKPAD_GEST_POS_FILTERS_MASK & CapSense_JITTER_FILTER)))
2542:.\Generated_Source\PSoC4/CapSense_CSHL.c ****     /*******************************************************************************
2543:.\Generated_Source\PSoC4/CapSense_CSHL.c ****     * Function Name: uint16 CapSense_JitterFilter
2544:.\Generated_Source\PSoC4/CapSense_CSHL.c ****     ********************************************************************************
2545:.\Generated_Source\PSoC4/CapSense_CSHL.c ****     *
2546:.\Generated_Source\PSoC4/CapSense_CSHL.c ****     * Summary:
2547:.\Generated_Source\PSoC4/CapSense_CSHL.c ****     *  This is the Jitter filter function.
2548:.\Generated_Source\PSoC4/CapSense_CSHL.c ****     *
2549:.\Generated_Source\PSoC4/CapSense_CSHL.c ****     * Parameters:
2550:.\Generated_Source\PSoC4/CapSense_CSHL.c ****     *  x1:  Current value.
2551:.\Generated_Source\PSoC4/CapSense_CSHL.c ****     *  x2:  Previous value.
2552:.\Generated_Source\PSoC4/CapSense_CSHL.c ****     *
2553:.\Generated_Source\PSoC4/CapSense_CSHL.c ****     * Return:
2554:.\Generated_Source\PSoC4/CapSense_CSHL.c ****     *  Returns filtered value.
2555:.\Generated_Source\PSoC4/CapSense_CSHL.c ****     *
2556:.\Generated_Source\PSoC4/CapSense_CSHL.c ****     * Global Variables:
2557:.\Generated_Source\PSoC4/CapSense_CSHL.c ****     *  None.
2558:.\Generated_Source\PSoC4/CapSense_CSHL.c ****     *
2559:.\Generated_Source\PSoC4/CapSense_CSHL.c ****     * Side Effects:
2560:.\Generated_Source\PSoC4/CapSense_CSHL.c ****     *  None
2561:.\Generated_Source\PSoC4/CapSense_CSHL.c ****     *
2562:.\Generated_Source\PSoC4/CapSense_CSHL.c ****     *******************************************************************************/
2563:.\Generated_Source\PSoC4/CapSense_CSHL.c ****     uint16 CapSense_JitterFilter(uint16 x1, uint16 x2)
2564:.\Generated_Source\PSoC4/CapSense_CSHL.c ****     {
2565:.\Generated_Source\PSoC4/CapSense_CSHL.c ****         if (x1 > x2)
2566:.\Generated_Source\PSoC4/CapSense_CSHL.c ****         {
2567:.\Generated_Source\PSoC4/CapSense_CSHL.c ****             x1--;
2568:.\Generated_Source\PSoC4/CapSense_CSHL.c ****         }
2569:.\Generated_Source\PSoC4/CapSense_CSHL.c ****         else
2570:.\Generated_Source\PSoC4/CapSense_CSHL.c ****         {
2571:.\Generated_Source\PSoC4/CapSense_CSHL.c ****             if (x1 < x2)
2572:.\Generated_Source\PSoC4/CapSense_CSHL.c ****             {
2573:.\Generated_Source\PSoC4/CapSense_CSHL.c ****                 x1++;
2574:.\Generated_Source\PSoC4/CapSense_CSHL.c ****             }
2575:.\Generated_Source\PSoC4/CapSense_CSHL.c ****         }
2576:.\Generated_Source\PSoC4/CapSense_CSHL.c **** 
2577:.\Generated_Source\PSoC4/CapSense_CSHL.c ****         return x1;
2578:.\Generated_Source\PSoC4/CapSense_CSHL.c ****     }
ARM GAS  C:\Users\Terence\AppData\Local\Temp\cc6R4aDx.s 			page 81


2579:.\Generated_Source\PSoC4/CapSense_CSHL.c **** #endif /* ( (0u != (CapSense_RAW_FILTER_MASK & CapSense_JITTER_FILTER)) || \
2580:.\Generated_Source\PSoC4/CapSense_CSHL.c ****        *    (0u != (CapSense_POS_FILTERS_MASK & CapSense_JITTER_FILTER)) )
2581:.\Generated_Source\PSoC4/CapSense_CSHL.c ****        *    (0u != (CapSense_TRACKPAD_GEST_POS_FILTERS_MASK & CapSense_JITTER_FILTER)) )
2582:.\Generated_Source\PSoC4/CapSense_CSHL.c ****        */
2583:.\Generated_Source\PSoC4/CapSense_CSHL.c **** 
2584:.\Generated_Source\PSoC4/CapSense_CSHL.c **** 
2585:.\Generated_Source\PSoC4/CapSense_CSHL.c **** #if (0u != (CapSense_RAW_FILTER_MASK & CapSense_IIR8_FILTER))
2586:.\Generated_Source\PSoC4/CapSense_CSHL.c ****     /*******************************************************************************
2587:.\Generated_Source\PSoC4/CapSense_CSHL.c ****     * Function Name: CapSense_IIR8Filter
2588:.\Generated_Source\PSoC4/CapSense_CSHL.c ****     ********************************************************************************
2589:.\Generated_Source\PSoC4/CapSense_CSHL.c ****     *
2590:.\Generated_Source\PSoC4/CapSense_CSHL.c ****     * Summary:
2591:.\Generated_Source\PSoC4/CapSense_CSHL.c ****     *  This is the IIR1/8 filter function. IIR1/8 = 1/8current + 7/8previous.
2592:.\Generated_Source\PSoC4/CapSense_CSHL.c ****     *  Only applies for raw data.
2593:.\Generated_Source\PSoC4/CapSense_CSHL.c ****     *
2594:.\Generated_Source\PSoC4/CapSense_CSHL.c ****     * Parameters:
2595:.\Generated_Source\PSoC4/CapSense_CSHL.c ****     *  x1:  Current value.
2596:.\Generated_Source\PSoC4/CapSense_CSHL.c ****     *  x2:  Previous value.
2597:.\Generated_Source\PSoC4/CapSense_CSHL.c ****     *
2598:.\Generated_Source\PSoC4/CapSense_CSHL.c ****     * Return:
2599:.\Generated_Source\PSoC4/CapSense_CSHL.c ****     *  Returns filtered value.
2600:.\Generated_Source\PSoC4/CapSense_CSHL.c ****     *
2601:.\Generated_Source\PSoC4/CapSense_CSHL.c ****     * Global Variables:
2602:.\Generated_Source\PSoC4/CapSense_CSHL.c ****     *  None.
2603:.\Generated_Source\PSoC4/CapSense_CSHL.c ****     *
2604:.\Generated_Source\PSoC4/CapSense_CSHL.c ****     * Side Effects:
2605:.\Generated_Source\PSoC4/CapSense_CSHL.c ****     *  None
2606:.\Generated_Source\PSoC4/CapSense_CSHL.c ****     *
2607:.\Generated_Source\PSoC4/CapSense_CSHL.c ****     *******************************************************************************/
2608:.\Generated_Source\PSoC4/CapSense_CSHL.c ****     uint16 CapSense_IIR8Filter(uint16 x1, uint16 x2)
2609:.\Generated_Source\PSoC4/CapSense_CSHL.c ****     {
2610:.\Generated_Source\PSoC4/CapSense_CSHL.c ****         uint32 tmp;
2611:.\Generated_Source\PSoC4/CapSense_CSHL.c **** 
2612:.\Generated_Source\PSoC4/CapSense_CSHL.c ****         /* IIR = 1/8 Current Value + 7/8 Previous Value */
2613:.\Generated_Source\PSoC4/CapSense_CSHL.c ****         tmp = (uint32)x1;
2614:.\Generated_Source\PSoC4/CapSense_CSHL.c ****         tmp += (((uint32)x2 << 3u) - ((uint32)x2));
2615:.\Generated_Source\PSoC4/CapSense_CSHL.c ****         tmp >>= 3u;
2616:.\Generated_Source\PSoC4/CapSense_CSHL.c **** 
2617:.\Generated_Source\PSoC4/CapSense_CSHL.c ****         return ((uint16) tmp);
2618:.\Generated_Source\PSoC4/CapSense_CSHL.c ****     }
2619:.\Generated_Source\PSoC4/CapSense_CSHL.c **** #endif /* (0u != (CapSense_RAW_FILTER_MASK & CapSense_IIR8_FILTER)) */
2620:.\Generated_Source\PSoC4/CapSense_CSHL.c **** 
2621:.\Generated_Source\PSoC4/CapSense_CSHL.c **** 
2622:.\Generated_Source\PSoC4/CapSense_CSHL.c **** #if (0u != (CapSense_RAW_FILTER_MASK & CapSense_IIR16_FILTER))
2623:.\Generated_Source\PSoC4/CapSense_CSHL.c ****     /*******************************************************************************
2624:.\Generated_Source\PSoC4/CapSense_CSHL.c ****     * Function Name: CapSense_IIR16Filter
2625:.\Generated_Source\PSoC4/CapSense_CSHL.c ****     ********************************************************************************
2626:.\Generated_Source\PSoC4/CapSense_CSHL.c ****     *
2627:.\Generated_Source\PSoC4/CapSense_CSHL.c ****     * Summary:
2628:.\Generated_Source\PSoC4/CapSense_CSHL.c ****     *  This is the IIR1/16 filter function. IIR1/16 = 1/16current + 15/16previous.
2629:.\Generated_Source\PSoC4/CapSense_CSHL.c ****     *  Only applies for raw data.
2630:.\Generated_Source\PSoC4/CapSense_CSHL.c ****     *
2631:.\Generated_Source\PSoC4/CapSense_CSHL.c ****     * Parameters:
2632:.\Generated_Source\PSoC4/CapSense_CSHL.c ****     *  x1:  Current value.
2633:.\Generated_Source\PSoC4/CapSense_CSHL.c ****     *  x2:  Previous value.
2634:.\Generated_Source\PSoC4/CapSense_CSHL.c ****     *
2635:.\Generated_Source\PSoC4/CapSense_CSHL.c ****     * Return:
ARM GAS  C:\Users\Terence\AppData\Local\Temp\cc6R4aDx.s 			page 82


2636:.\Generated_Source\PSoC4/CapSense_CSHL.c ****     *  Returns filtered value.
2637:.\Generated_Source\PSoC4/CapSense_CSHL.c ****     *
2638:.\Generated_Source\PSoC4/CapSense_CSHL.c ****     * Global Variables:
2639:.\Generated_Source\PSoC4/CapSense_CSHL.c ****     *  None.
2640:.\Generated_Source\PSoC4/CapSense_CSHL.c ****     *
2641:.\Generated_Source\PSoC4/CapSense_CSHL.c ****     * Side Effects:
2642:.\Generated_Source\PSoC4/CapSense_CSHL.c ****     *  None
2643:.\Generated_Source\PSoC4/CapSense_CSHL.c ****     *
2644:.\Generated_Source\PSoC4/CapSense_CSHL.c ****     *******************************************************************************/
2645:.\Generated_Source\PSoC4/CapSense_CSHL.c ****     uint16 CapSense_IIR16Filter(uint16 x1, uint16 x2)
2646:.\Generated_Source\PSoC4/CapSense_CSHL.c ****     {
2647:.\Generated_Source\PSoC4/CapSense_CSHL.c ****         uint32 tmp;
2648:.\Generated_Source\PSoC4/CapSense_CSHL.c **** 
2649:.\Generated_Source\PSoC4/CapSense_CSHL.c ****         /* IIR = 1/16 Current Value + 15/16 Previous Value */
2650:.\Generated_Source\PSoC4/CapSense_CSHL.c ****         tmp = (uint32)x1;
2651:.\Generated_Source\PSoC4/CapSense_CSHL.c ****         tmp += (((uint32)x2 << 4u) - ((uint32)x2));
2652:.\Generated_Source\PSoC4/CapSense_CSHL.c ****         tmp >>= 4u;
2653:.\Generated_Source\PSoC4/CapSense_CSHL.c **** 
2654:.\Generated_Source\PSoC4/CapSense_CSHL.c ****         return ((uint16) tmp);
2655:.\Generated_Source\PSoC4/CapSense_CSHL.c ****     }
2656:.\Generated_Source\PSoC4/CapSense_CSHL.c **** #endif /* (CapSense_RAW_FILTER_MASK & CapSense_IIR16_FILTER) */
2657:.\Generated_Source\PSoC4/CapSense_CSHL.c **** 
2658:.\Generated_Source\PSoC4/CapSense_CSHL.c **** 
2659:.\Generated_Source\PSoC4/CapSense_CSHL.c **** #if (0u != (CapSense_TOTAL_MATRIX_BUTTONS_COUNT))
2660:.\Generated_Source\PSoC4/CapSense_CSHL.c **** 
2661:.\Generated_Source\PSoC4/CapSense_CSHL.c ****     /*******************************************************************************
2662:.\Generated_Source\PSoC4/CapSense_CSHL.c ****     * Function Name: CapSense_GetMatrixButtonPos
2663:.\Generated_Source\PSoC4/CapSense_CSHL.c ****     ********************************************************************************
2664:.\Generated_Source\PSoC4/CapSense_CSHL.c ****     *
2665:.\Generated_Source\PSoC4/CapSense_CSHL.c ****     * Summary:
2666:.\Generated_Source\PSoC4/CapSense_CSHL.c ****     *  Function calculates and returns a touch position (column and row) for the matrix
2667:.\Generated_Source\PSoC4/CapSense_CSHL.c ****     *  button widget.
2668:.\Generated_Source\PSoC4/CapSense_CSHL.c ****     *
2669:.\Generated_Source\PSoC4/CapSense_CSHL.c ****     * Parameters:
2670:.\Generated_Source\PSoC4/CapSense_CSHL.c ****     *  widget:  widget number;
2671:.\Generated_Source\PSoC4/CapSense_CSHL.c ****     *  pos:     pointer to an array of two uint8, where touch position will be
2672:.\Generated_Source\PSoC4/CapSense_CSHL.c ****     *           stored:
2673:.\Generated_Source\PSoC4/CapSense_CSHL.c ****     *           pos[0] - column position;
2674:.\Generated_Source\PSoC4/CapSense_CSHL.c ****     *           pos[1] - raw position.
2675:.\Generated_Source\PSoC4/CapSense_CSHL.c ****     *
2676:.\Generated_Source\PSoC4/CapSense_CSHL.c ****     * Return:
2677:.\Generated_Source\PSoC4/CapSense_CSHL.c ****     *  Returns 1 if row and column sensors of matrix button are active, 0 - in other
2678:.\Generated_Source\PSoC4/CapSense_CSHL.c ****     *  cases.
2679:.\Generated_Source\PSoC4/CapSense_CSHL.c ****     *
2680:.\Generated_Source\PSoC4/CapSense_CSHL.c ****     * Global Variables:
2681:.\Generated_Source\PSoC4/CapSense_CSHL.c ****     *  CapSense_fingerThreshold[ ] - used to store the finger threshold for all widgets.
2682:.\Generated_Source\PSoC4/CapSense_CSHL.c ****     *  CapSense_sensorSignal[ ] - used to store a difference between the current value of
2683:.\Generated_Source\PSoC4/CapSense_CSHL.c ****     *  raw data and a previous value of the baseline.
2684:.\Generated_Source\PSoC4/CapSense_CSHL.c ****     *
2685:.\Generated_Source\PSoC4/CapSense_CSHL.c ****     * Side Effects:
2686:.\Generated_Source\PSoC4/CapSense_CSHL.c ****     *  None
2687:.\Generated_Source\PSoC4/CapSense_CSHL.c ****     *
2688:.\Generated_Source\PSoC4/CapSense_CSHL.c ****     *******************************************************************************/
2689:.\Generated_Source\PSoC4/CapSense_CSHL.c ****     uint32 CapSense_GetMatrixButtonPos(uint32 widget, uint8* pos)
2690:.\Generated_Source\PSoC4/CapSense_CSHL.c ****     {
2691:.\Generated_Source\PSoC4/CapSense_CSHL.c ****         uint8 i;
2692:.\Generated_Source\PSoC4/CapSense_CSHL.c ****         uint32 retVal = 0u;
ARM GAS  C:\Users\Terence\AppData\Local\Temp\cc6R4aDx.s 			page 83


2693:.\Generated_Source\PSoC4/CapSense_CSHL.c ****         uint16 row_sig_max = 0u;
2694:.\Generated_Source\PSoC4/CapSense_CSHL.c ****         uint16 col_sig_max = 0u;
2695:.\Generated_Source\PSoC4/CapSense_CSHL.c ****         uint8 row_ind = 0u;
2696:.\Generated_Source\PSoC4/CapSense_CSHL.c ****         uint8 col_ind = 0u;
2697:.\Generated_Source\PSoC4/CapSense_CSHL.c **** 
2698:.\Generated_Source\PSoC4/CapSense_CSHL.c ****         if (CapSense_CheckIsWidgetActive(widget) == 1u)
2699:.\Generated_Source\PSoC4/CapSense_CSHL.c ****         {
2700:.\Generated_Source\PSoC4/CapSense_CSHL.c ****             /* Find row number with maximal signal value */
2701:.\Generated_Source\PSoC4/CapSense_CSHL.c ****             for(i = CapSense_rawDataIndex[widget]; i < (CapSense_rawDataIndex[widget] + \
2702:.\Generated_Source\PSoC4/CapSense_CSHL.c ****                  CapSense_numberOfSensors[widget]); i++)
2703:.\Generated_Source\PSoC4/CapSense_CSHL.c ****             {
2704:.\Generated_Source\PSoC4/CapSense_CSHL.c ****                 if (CapSense_sensorSignal[i] > col_sig_max)
2705:.\Generated_Source\PSoC4/CapSense_CSHL.c ****                 {
2706:.\Generated_Source\PSoC4/CapSense_CSHL.c ****                     col_ind = i;
2707:.\Generated_Source\PSoC4/CapSense_CSHL.c ****                     col_sig_max = CapSense_sensorSignal[i];
2708:.\Generated_Source\PSoC4/CapSense_CSHL.c ****                 }
2709:.\Generated_Source\PSoC4/CapSense_CSHL.c ****             }
2710:.\Generated_Source\PSoC4/CapSense_CSHL.c **** 
2711:.\Generated_Source\PSoC4/CapSense_CSHL.c ****             /* Find row number with maximal signal value */
2712:.\Generated_Source\PSoC4/CapSense_CSHL.c ****             for(i = CapSense_rawDataIndex[widget+1u]; i < (CapSense_rawDataIndex[widget+1u] + \
2713:.\Generated_Source\PSoC4/CapSense_CSHL.c ****                  CapSense_numberOfSensors[widget+1u]); i++)
2714:.\Generated_Source\PSoC4/CapSense_CSHL.c ****             {
2715:.\Generated_Source\PSoC4/CapSense_CSHL.c ****                 if (CapSense_sensorSignal[i] > row_sig_max)
2716:.\Generated_Source\PSoC4/CapSense_CSHL.c ****                 {
2717:.\Generated_Source\PSoC4/CapSense_CSHL.c ****                     row_ind = i;
2718:.\Generated_Source\PSoC4/CapSense_CSHL.c ****                     row_sig_max = CapSense_sensorSignal[i];
2719:.\Generated_Source\PSoC4/CapSense_CSHL.c ****                 }
2720:.\Generated_Source\PSoC4/CapSense_CSHL.c ****             }
2721:.\Generated_Source\PSoC4/CapSense_CSHL.c **** 
2722:.\Generated_Source\PSoC4/CapSense_CSHL.c ****             if((col_sig_max >= CapSense_fingerThreshold[widget]) && \
2723:.\Generated_Source\PSoC4/CapSense_CSHL.c ****                (row_sig_max >= CapSense_fingerThreshold[widget+1u]))
2724:.\Generated_Source\PSoC4/CapSense_CSHL.c ****             {
2725:.\Generated_Source\PSoC4/CapSense_CSHL.c ****                 pos[0u] = col_ind - CapSense_rawDataIndex[widget];
2726:.\Generated_Source\PSoC4/CapSense_CSHL.c ****                 pos[1u] = row_ind - CapSense_rawDataIndex[widget+1u];
2727:.\Generated_Source\PSoC4/CapSense_CSHL.c ****                 retVal = 1u;
2728:.\Generated_Source\PSoC4/CapSense_CSHL.c ****             }
2729:.\Generated_Source\PSoC4/CapSense_CSHL.c ****         }
2730:.\Generated_Source\PSoC4/CapSense_CSHL.c ****         return (retVal);
2731:.\Generated_Source\PSoC4/CapSense_CSHL.c ****     }
2732:.\Generated_Source\PSoC4/CapSense_CSHL.c **** 
2733:.\Generated_Source\PSoC4/CapSense_CSHL.c **** #endif /* (0u != (CapSense_TOTAL_MATRIX_BUTTONS_COUNT)) */
2734:.\Generated_Source\PSoC4/CapSense_CSHL.c **** 
2735:.\Generated_Source\PSoC4/CapSense_CSHL.c **** /*******************************************************************************
2736:.\Generated_Source\PSoC4/CapSense_CSHL.c **** * Function Name: CapSense_GetWidgetNumber
2737:.\Generated_Source\PSoC4/CapSense_CSHL.c **** ********************************************************************************
2738:.\Generated_Source\PSoC4/CapSense_CSHL.c **** *
2739:.\Generated_Source\PSoC4/CapSense_CSHL.c **** * Summary:
2740:.\Generated_Source\PSoC4/CapSense_CSHL.c **** *  This API returns the widget number for the sensor.
2741:.\Generated_Source\PSoC4/CapSense_CSHL.c **** *
2742:.\Generated_Source\PSoC4/CapSense_CSHL.c **** * Parameters:
2743:.\Generated_Source\PSoC4/CapSense_CSHL.c **** *  sensor: sensor index. The value of index can be
2744:.\Generated_Source\PSoC4/CapSense_CSHL.c **** *  from 0 to (CapSense_TOTAL_SENSOR_COUNT-1).
2745:.\Generated_Source\PSoC4/CapSense_CSHL.c **** *
2746:.\Generated_Source\PSoC4/CapSense_CSHL.c **** * Return:
2747:.\Generated_Source\PSoC4/CapSense_CSHL.c **** *  This API returns the widget number for the sensor.
2748:.\Generated_Source\PSoC4/CapSense_CSHL.c **** *
2749:.\Generated_Source\PSoC4/CapSense_CSHL.c **** * Global Variables:
ARM GAS  C:\Users\Terence\AppData\Local\Temp\cc6R4aDx.s 			page 84


2750:.\Generated_Source\PSoC4/CapSense_CSHL.c **** *  CapSense_widgetNumber[]  - stores widget numbers.
2751:.\Generated_Source\PSoC4/CapSense_CSHL.c **** *
2752:.\Generated_Source\PSoC4/CapSense_CSHL.c **** * Side Effects:
2753:.\Generated_Source\PSoC4/CapSense_CSHL.c **** *  None
2754:.\Generated_Source\PSoC4/CapSense_CSHL.c **** *
2755:.\Generated_Source\PSoC4/CapSense_CSHL.c **** *******************************************************************************/
2756:.\Generated_Source\PSoC4/CapSense_CSHL.c **** uint32 CapSense_GetWidgetNumber(uint32 sensor)
2757:.\Generated_Source\PSoC4/CapSense_CSHL.c **** {
 1887              		.loc 1 2757 0
 1888              		.cfi_startproc
 1889              	.LVL231:
2758:.\Generated_Source\PSoC4/CapSense_CSHL.c ****     return((uint32)CapSense_widgetNumber[sensor]);
 1890              		.loc 1 2758 0
 1891 0000 014B     		ldr	r3, .L150
 1892 0002 185C     		ldrb	r0, [r3, r0]
 1893              	.LVL232:
2759:.\Generated_Source\PSoC4/CapSense_CSHL.c **** }
 1894              		.loc 1 2759 0
 1895              		@ sp needed
 1896 0004 7047     		bx	lr
 1897              	.L151:
 1898 0006 C046     		.align	2
 1899              	.L150:
 1900 0008 00000000 		.word	CapSense_widgetNumber
 1901              		.cfi_endproc
 1902              	.LFE69:
 1903              		.size	CapSense_GetWidgetNumber, .-CapSense_GetWidgetNumber
 1904              		.section	.text.CapSense_GetLowBaselineReset,"ax",%progbits
 1905              		.align	2
 1906              		.global	CapSense_GetLowBaselineReset
 1907              		.code	16
 1908              		.thumb_func
 1909              		.type	CapSense_GetLowBaselineReset, %function
 1910              	CapSense_GetLowBaselineReset:
 1911              	.LFB70:
2760:.\Generated_Source\PSoC4/CapSense_CSHL.c **** 
2761:.\Generated_Source\PSoC4/CapSense_CSHL.c **** /*******************************************************************************
2762:.\Generated_Source\PSoC4/CapSense_CSHL.c **** * Function Name: CapSense_GetLowBaselineReset
2763:.\Generated_Source\PSoC4/CapSense_CSHL.c **** ********************************************************************************
2764:.\Generated_Source\PSoC4/CapSense_CSHL.c **** *
2765:.\Generated_Source\PSoC4/CapSense_CSHL.c **** * Summary:
2766:.\Generated_Source\PSoC4/CapSense_CSHL.c **** *  This API returns the low baseline reset threshold value for the  sensor.
2767:.\Generated_Source\PSoC4/CapSense_CSHL.c **** *
2768:.\Generated_Source\PSoC4/CapSense_CSHL.c **** * Parameters:
2769:.\Generated_Source\PSoC4/CapSense_CSHL.c **** *  sensor: sensor index. The value of index can be
2770:.\Generated_Source\PSoC4/CapSense_CSHL.c **** *  from 0 to (CapSense_TOTAL_SENSOR_COUNT-1).
2771:.\Generated_Source\PSoC4/CapSense_CSHL.c **** *
2772:.\Generated_Source\PSoC4/CapSense_CSHL.c **** * Return:
2773:.\Generated_Source\PSoC4/CapSense_CSHL.c **** *  low baseline reset threshold value a sensor.
2774:.\Generated_Source\PSoC4/CapSense_CSHL.c **** *
2775:.\Generated_Source\PSoC4/CapSense_CSHL.c **** * Global Variables:
2776:.\Generated_Source\PSoC4/CapSense_CSHL.c **** *  CapSense_lowBaselineReset[]  - stores low baseline reset values.
2777:.\Generated_Source\PSoC4/CapSense_CSHL.c **** *
2778:.\Generated_Source\PSoC4/CapSense_CSHL.c **** * Side Effects:
2779:.\Generated_Source\PSoC4/CapSense_CSHL.c **** *  None
2780:.\Generated_Source\PSoC4/CapSense_CSHL.c **** *
2781:.\Generated_Source\PSoC4/CapSense_CSHL.c **** *******************************************************************************/
ARM GAS  C:\Users\Terence\AppData\Local\Temp\cc6R4aDx.s 			page 85


2782:.\Generated_Source\PSoC4/CapSense_CSHL.c **** uint8 CapSense_GetLowBaselineReset(uint32 sensor)
2783:.\Generated_Source\PSoC4/CapSense_CSHL.c **** {
 1912              		.loc 1 2783 0
 1913              		.cfi_startproc
 1914              	.LVL233:
2784:.\Generated_Source\PSoC4/CapSense_CSHL.c ****     return(CapSense_lowBaselineReset[sensor]);
 1915              		.loc 1 2784 0
 1916 0000 014B     		ldr	r3, .L153
 1917 0002 1818     		add	r0, r3, r0
 1918              	.LVL234:
 1919 0004 007C     		ldrb	r0, [r0, #16]
2785:.\Generated_Source\PSoC4/CapSense_CSHL.c **** }
 1920              		.loc 1 2785 0
 1921              		@ sp needed
 1922 0006 7047     		bx	lr
 1923              	.L154:
 1924              		.align	2
 1925              	.L153:
 1926 0008 00000000 		.word	.LANCHOR1
 1927              		.cfi_endproc
 1928              	.LFE70:
 1929              		.size	CapSense_GetLowBaselineReset, .-CapSense_GetLowBaselineReset
 1930              		.section	.text.CapSense_GetDebounce,"ax",%progbits
 1931              		.align	2
 1932              		.global	CapSense_GetDebounce
 1933              		.code	16
 1934              		.thumb_func
 1935              		.type	CapSense_GetDebounce, %function
 1936              	CapSense_GetDebounce:
 1937              	.LFB71:
2786:.\Generated_Source\PSoC4/CapSense_CSHL.c **** 
2787:.\Generated_Source\PSoC4/CapSense_CSHL.c **** /*******************************************************************************
2788:.\Generated_Source\PSoC4/CapSense_CSHL.c **** * Function Name: CapSense_GetDebounce
2789:.\Generated_Source\PSoC4/CapSense_CSHL.c **** ********************************************************************************
2790:.\Generated_Source\PSoC4/CapSense_CSHL.c **** *
2791:.\Generated_Source\PSoC4/CapSense_CSHL.c **** * Summary:
2792:.\Generated_Source\PSoC4/CapSense_CSHL.c **** *  This API returns a debounce value.
2793:.\Generated_Source\PSoC4/CapSense_CSHL.c **** *
2794:.\Generated_Source\PSoC4/CapSense_CSHL.c **** * Parameters:
2795:.\Generated_Source\PSoC4/CapSense_CSHL.c **** *  sensor: sensor index. The value of index can be
2796:.\Generated_Source\PSoC4/CapSense_CSHL.c **** *  from 0 to (CapSense_TOTAL_SENSOR_COUNT-1).
2797:.\Generated_Source\PSoC4/CapSense_CSHL.c **** *
2798:.\Generated_Source\PSoC4/CapSense_CSHL.c **** * Return:
2799:.\Generated_Source\PSoC4/CapSense_CSHL.c **** *  Debounce value
2800:.\Generated_Source\PSoC4/CapSense_CSHL.c **** *
2801:.\Generated_Source\PSoC4/CapSense_CSHL.c **** * Global Variables:
2802:.\Generated_Source\PSoC4/CapSense_CSHL.c **** *  CapSense_debounce[]  - stores the debounce value.
2803:.\Generated_Source\PSoC4/CapSense_CSHL.c **** *
2804:.\Generated_Source\PSoC4/CapSense_CSHL.c **** * Side Effects:
2805:.\Generated_Source\PSoC4/CapSense_CSHL.c **** *  None
2806:.\Generated_Source\PSoC4/CapSense_CSHL.c **** *
2807:.\Generated_Source\PSoC4/CapSense_CSHL.c **** *******************************************************************************/
2808:.\Generated_Source\PSoC4/CapSense_CSHL.c **** uint8 CapSense_GetDebounce(uint32 widget)
2809:.\Generated_Source\PSoC4/CapSense_CSHL.c **** {
 1938              		.loc 1 2809 0
 1939              		.cfi_startproc
 1940              	.LVL235:
ARM GAS  C:\Users\Terence\AppData\Local\Temp\cc6R4aDx.s 			page 86


2810:.\Generated_Source\PSoC4/CapSense_CSHL.c ****     return(CapSense_debounce[widget]);
 1941              		.loc 1 2810 0
 1942 0000 014B     		ldr	r3, .L156
 1943 0002 185C     		ldrb	r0, [r3, r0]
 1944              	.LVL236:
2811:.\Generated_Source\PSoC4/CapSense_CSHL.c **** }
 1945              		.loc 1 2811 0
 1946              		@ sp needed
 1947 0004 7047     		bx	lr
 1948              	.L157:
 1949 0006 C046     		.align	2
 1950              	.L156:
 1951 0008 00000000 		.word	.LANCHOR1
 1952              		.cfi_endproc
 1953              	.LFE71:
 1954              		.size	CapSense_GetDebounce, .-CapSense_GetDebounce
 1955              		.section	.text.CapSense_EnableRawDataFilters,"ax",%progbits
 1956              		.align	2
 1957              		.global	CapSense_EnableRawDataFilters
 1958              		.code	16
 1959              		.thumb_func
 1960              		.type	CapSense_EnableRawDataFilters, %function
 1961              	CapSense_EnableRawDataFilters:
 1962              	.LFB72:
2812:.\Generated_Source\PSoC4/CapSense_CSHL.c **** 
2813:.\Generated_Source\PSoC4/CapSense_CSHL.c **** #if (CapSense_RAW_FILTER_MASK != 0u)
2814:.\Generated_Source\PSoC4/CapSense_CSHL.c ****     /*******************************************************************************
2815:.\Generated_Source\PSoC4/CapSense_CSHL.c ****     * Function Name: CapSense_EnableRawDataFilters
2816:.\Generated_Source\PSoC4/CapSense_CSHL.c ****     ********************************************************************************
2817:.\Generated_Source\PSoC4/CapSense_CSHL.c ****     *
2818:.\Generated_Source\PSoC4/CapSense_CSHL.c ****     * Summary:
2819:.\Generated_Source\PSoC4/CapSense_CSHL.c ****     *  Enables the rawdata filters for the sensor signals.
2820:.\Generated_Source\PSoC4/CapSense_CSHL.c ****     *
2821:.\Generated_Source\PSoC4/CapSense_CSHL.c ****     * Parameters:
2822:.\Generated_Source\PSoC4/CapSense_CSHL.c ****     *  None
2823:.\Generated_Source\PSoC4/CapSense_CSHL.c ****     *
2824:.\Generated_Source\PSoC4/CapSense_CSHL.c ****     * Return:
2825:.\Generated_Source\PSoC4/CapSense_CSHL.c ****     *  None
2826:.\Generated_Source\PSoC4/CapSense_CSHL.c ****     *
2827:.\Generated_Source\PSoC4/CapSense_CSHL.c ****     * Global Variables:
2828:.\Generated_Source\PSoC4/CapSense_CSHL.c ****     *  CapSense_enableRawFilters defines if the filters are enabled or not.
2829:.\Generated_Source\PSoC4/CapSense_CSHL.c ****     *
2830:.\Generated_Source\PSoC4/CapSense_CSHL.c ****     * Side Effects:
2831:.\Generated_Source\PSoC4/CapSense_CSHL.c ****     *  None
2832:.\Generated_Source\PSoC4/CapSense_CSHL.c ****     *
2833:.\Generated_Source\PSoC4/CapSense_CSHL.c ****     *******************************************************************************/
2834:.\Generated_Source\PSoC4/CapSense_CSHL.c ****     void CapSense_EnableRawDataFilters(void)
2835:.\Generated_Source\PSoC4/CapSense_CSHL.c ****     {
 1963              		.loc 1 2835 0
 1964              		.cfi_startproc
2836:.\Generated_Source\PSoC4/CapSense_CSHL.c ****         CapSense_enableRawFilters = CapSense_RAW_FILTERS_ENABLED;
 1965              		.loc 1 2836 0
 1966 0000 0121     		mov	r1, #1
 1967 0002 2423     		mov	r3, #36
 1968 0004 014A     		ldr	r2, .L159
 1969 0006 D154     		strb	r1, [r2, r3]
2837:.\Generated_Source\PSoC4/CapSense_CSHL.c ****     }
ARM GAS  C:\Users\Terence\AppData\Local\Temp\cc6R4aDx.s 			page 87


 1970              		.loc 1 2837 0
 1971              		@ sp needed
 1972 0008 7047     		bx	lr
 1973              	.L160:
 1974 000a C046     		.align	2
 1975              	.L159:
 1976 000c 00000000 		.word	.LANCHOR1
 1977              		.cfi_endproc
 1978              	.LFE72:
 1979              		.size	CapSense_EnableRawDataFilters, .-CapSense_EnableRawDataFilters
 1980              		.section	.text.CapSense_DisableRawDataFilters,"ax",%progbits
 1981              		.align	2
 1982              		.global	CapSense_DisableRawDataFilters
 1983              		.code	16
 1984              		.thumb_func
 1985              		.type	CapSense_DisableRawDataFilters, %function
 1986              	CapSense_DisableRawDataFilters:
 1987              	.LFB73:
2838:.\Generated_Source\PSoC4/CapSense_CSHL.c **** 
2839:.\Generated_Source\PSoC4/CapSense_CSHL.c ****     /*******************************************************************************
2840:.\Generated_Source\PSoC4/CapSense_CSHL.c ****     * Function Name: CapSense_DisableRawDataFilters
2841:.\Generated_Source\PSoC4/CapSense_CSHL.c ****     ********************************************************************************
2842:.\Generated_Source\PSoC4/CapSense_CSHL.c ****     *
2843:.\Generated_Source\PSoC4/CapSense_CSHL.c ****     * Summary:
2844:.\Generated_Source\PSoC4/CapSense_CSHL.c ****     *  Disables the rawdata filters for the sensor signals.
2845:.\Generated_Source\PSoC4/CapSense_CSHL.c ****     *
2846:.\Generated_Source\PSoC4/CapSense_CSHL.c ****     * Parameters:
2847:.\Generated_Source\PSoC4/CapSense_CSHL.c ****     *  None
2848:.\Generated_Source\PSoC4/CapSense_CSHL.c ****     *
2849:.\Generated_Source\PSoC4/CapSense_CSHL.c ****     * Return:
2850:.\Generated_Source\PSoC4/CapSense_CSHL.c ****     *  None
2851:.\Generated_Source\PSoC4/CapSense_CSHL.c ****     *
2852:.\Generated_Source\PSoC4/CapSense_CSHL.c ****     * Global Variables:
2853:.\Generated_Source\PSoC4/CapSense_CSHL.c ****     *  CapSense_enableRawFilters defines if the filters are enabled or not.
2854:.\Generated_Source\PSoC4/CapSense_CSHL.c ****     *
2855:.\Generated_Source\PSoC4/CapSense_CSHL.c ****     * Side Effects:
2856:.\Generated_Source\PSoC4/CapSense_CSHL.c ****     *  None
2857:.\Generated_Source\PSoC4/CapSense_CSHL.c ****     *
2858:.\Generated_Source\PSoC4/CapSense_CSHL.c ****     *******************************************************************************/
2859:.\Generated_Source\PSoC4/CapSense_CSHL.c ****     void CapSense_DisableRawDataFilters(void)
2860:.\Generated_Source\PSoC4/CapSense_CSHL.c ****     {
 1988              		.loc 1 2860 0
 1989              		.cfi_startproc
2861:.\Generated_Source\PSoC4/CapSense_CSHL.c ****         CapSense_enableRawFilters = CapSense_RAW_FILTERS_DISABLED;
 1990              		.loc 1 2861 0
 1991 0000 0021     		mov	r1, #0
 1992 0002 2423     		mov	r3, #36
 1993 0004 014A     		ldr	r2, .L162
 1994 0006 D154     		strb	r1, [r2, r3]
2862:.\Generated_Source\PSoC4/CapSense_CSHL.c ****     }
 1995              		.loc 1 2862 0
 1996              		@ sp needed
 1997 0008 7047     		bx	lr
 1998              	.L163:
 1999 000a C046     		.align	2
 2000              	.L162:
 2001 000c 00000000 		.word	.LANCHOR1
ARM GAS  C:\Users\Terence\AppData\Local\Temp\cc6R4aDx.s 			page 88


 2002              		.cfi_endproc
 2003              	.LFE73:
 2004              		.size	CapSense_DisableRawDataFilters, .-CapSense_DisableRawDataFilters
 2005              		.global	CapSense_numberOfSensors
 2006              		.global	CapSense_rawDataIndex
 2007              		.global	CapSense_debounce
 2008              		.comm	CapSense_hysteresis,6,4
 2009              		.comm	CapSense_negativeNoiseThreshold,6,4
 2010              		.comm	CapSense_noiseThreshold,6,4
 2011              		.global	CapSense_fingerThreshold
 2012              		.global	CapSense_enableRawFilters
 2013              		.global	CapSense_lowBaselineReset
 2014              		.comm	CapSense_lowBaselineResetCnt,13,4
 2015              		.global	CapSense_sensorOnMask
 2016              		.global	CapSense_sensorSignal
 2017              		.global	CapSense_sensorBaselineLow
 2018              		.global	CapSense_sensorBaseline
 2019              		.comm	CapSense_rawFilterData1,26,4
 2020              		.section	.rodata
 2021              		.align	2
 2022              		.set	.LANCHOR2,. + 0
 2023              		.type	CapSense_rawDataIndex, %object
 2024              		.size	CapSense_rawDataIndex, 6
 2025              	CapSense_rawDataIndex:
 2026 0000 05       		.byte	5
 2027 0001 00       		.byte	0
 2028 0002 01       		.byte	1
 2029 0003 02       		.byte	2
 2030 0004 03       		.byte	3
 2031 0005 04       		.byte	4
 2032 0006 0000     		.space	2
 2033              		.type	CapSense_numberOfSensors, %object
 2034              		.size	CapSense_numberOfSensors, 6
 2035              	CapSense_numberOfSensors:
 2036 0008 08       		.byte	8
 2037 0009 01       		.byte	1
 2038 000a 01       		.byte	1
 2039 000b 01       		.byte	1
 2040 000c 01       		.byte	1
 2041 000d 01       		.byte	1
 2042 000e 0000     		.data
 2043              		.align	2
 2044              		.set	.LANCHOR1,. + 0
 2045              		.type	CapSense_debounce, %object
 2046              		.size	CapSense_debounce, 6
 2047              	CapSense_debounce:
 2048 0000 01       		.byte	1
 2049 0001 02       		.byte	2
 2050 0002 02       		.byte	2
 2051 0003 02       		.byte	2
 2052 0004 02       		.byte	2
 2053 0005 01       		.byte	1
 2054 0006 0000     		.space	2
 2055              		.type	CapSense_fingerThreshold, %object
 2056              		.size	CapSense_fingerThreshold, 6
 2057              	CapSense_fingerThreshold:
 2058 0008 64       		.byte	100
ARM GAS  C:\Users\Terence\AppData\Local\Temp\cc6R4aDx.s 			page 89


 2059 0009 C8       		.byte	-56
 2060 000a C8       		.byte	-56
 2061 000b C8       		.byte	-56
 2062 000c C8       		.byte	-56
 2063 000d 64       		.byte	100
 2064 000e 0000     		.space	2
 2065              		.type	CapSense_lowBaselineReset, %object
 2066              		.size	CapSense_lowBaselineReset, 13
 2067              	CapSense_lowBaselineReset:
 2068 0010 1E       		.byte	30
 2069 0011 1E       		.byte	30
 2070 0012 1E       		.byte	30
 2071 0013 1E       		.byte	30
 2072 0014 1E       		.byte	30
 2073 0015 1E       		.byte	30
 2074 0016 1E       		.byte	30
 2075 0017 1E       		.byte	30
 2076 0018 1E       		.byte	30
 2077 0019 1E       		.byte	30
 2078 001a 1E       		.byte	30
 2079 001b 1E       		.byte	30
 2080 001c 1E       		.byte	30
 2081 001d 000000   		.space	3
 2082              		.type	CapSense_posFiltersData, %object
 2083              		.size	CapSense_posFiltersData, 4
 2084              	CapSense_posFiltersData:
 2085 0020 01       		.byte	1
 2086 0021 00       		.byte	0
 2087 0022 00       		.byte	0
 2088 0023 00       		.byte	0
 2089              		.type	CapSense_enableRawFilters, %object
 2090              		.size	CapSense_enableRawFilters, 1
 2091              	CapSense_enableRawFilters:
 2092 0024 01       		.byte	1
 2093 0025 000000   		.bss
 2094              		.align	2
 2095              		.set	.LANCHOR0,. + 0
 2096              		.type	CapSense_sensorBaseline, %object
 2097              		.size	CapSense_sensorBaseline, 26
 2098              	CapSense_sensorBaseline:
 2099 0000 00000000 		.space	26
 2099      00000000 
 2099      00000000 
 2099      00000000 
 2099      00000000 
 2100 001a 0000     		.space	2
 2101              		.type	CapSense_sensorBaselineLow, %object
 2102              		.size	CapSense_sensorBaselineLow, 13
 2103              	CapSense_sensorBaselineLow:
 2104 001c 00000000 		.space	13
 2104      00000000 
 2104      00000000 
 2104      00
 2105 0029 000000   		.space	3
 2106              		.type	CapSense_sensorSignal, %object
 2107              		.size	CapSense_sensorSignal, 13
 2108              	CapSense_sensorSignal:
ARM GAS  C:\Users\Terence\AppData\Local\Temp\cc6R4aDx.s 			page 90


 2109 002c 00000000 		.space	13
 2109      00000000 
 2109      00000000 
 2109      00
 2110 0039 000000   		.space	3
 2111              		.type	CapSense_debounceCounter, %object
 2112              		.size	CapSense_debounceCounter, 6
 2113              	CapSense_debounceCounter:
 2114 003c 00000000 		.space	6
 2114      0000
 2115 0042 0000     		.space	2
 2116              		.type	CapSense_sensorOnMask, %object
 2117              		.size	CapSense_sensorOnMask, 2
 2118              	CapSense_sensorOnMask:
 2119 0044 0000     		.space	2
 2120 0046 0000     		.space	2
 2121              		.type	CapSense_centroid.5507, %object
 2122              		.size	CapSense_centroid.5507, 3
 2123              	CapSense_centroid.5507:
 2124 0048 000000   		.space	3
 2125 004b 00       		.text
 2126              	.Letext0:
 2127              		.file 2 ".\\Generated_Source\\PSoC4\\cytypes.h"
 2128              		.file 3 ".\\Generated_Source\\PSoC4\\CapSense_PVT.h"
 2129              		.file 4 ".\\Generated_Source\\PSoC4\\CapSense.h"
 2130              		.section	.debug_info,"",%progbits
 2131              	.Ldebug_info0:
 2132 0000 88110000 		.4byte	0x1188
 2133 0004 0400     		.2byte	0x4
 2134 0006 00000000 		.4byte	.Ldebug_abbrev0
 2135 000a 04       		.byte	0x4
 2136 000b 01       		.uleb128 0x1
 2137 000c 20080000 		.4byte	.LASF147
 2138 0010 01       		.byte	0x1
 2139 0011 FE050000 		.4byte	.LASF148
 2140 0015 D30A0000 		.4byte	.LASF149
 2141 0019 00000000 		.4byte	.Ldebug_ranges0+0
 2142 001d 00000000 		.4byte	0
 2143 0021 00000000 		.4byte	.Ldebug_line0
 2144 0025 02       		.uleb128 0x2
 2145 0026 01       		.byte	0x1
 2146 0027 06       		.byte	0x6
 2147 0028 960A0000 		.4byte	.LASF0
 2148 002c 02       		.uleb128 0x2
 2149 002d 01       		.byte	0x1
 2150 002e 08       		.byte	0x8
 2151 002f 93090000 		.4byte	.LASF1
 2152 0033 02       		.uleb128 0x2
 2153 0034 02       		.byte	0x2
 2154 0035 05       		.byte	0x5
 2155 0036 E7070000 		.4byte	.LASF2
 2156 003a 02       		.uleb128 0x2
 2157 003b 02       		.byte	0x2
 2158 003c 07       		.byte	0x7
 2159 003d A20A0000 		.4byte	.LASF3
 2160 0041 02       		.uleb128 0x2
 2161 0042 04       		.byte	0x4
ARM GAS  C:\Users\Terence\AppData\Local\Temp\cc6R4aDx.s 			page 91


 2162 0043 05       		.byte	0x5
 2163 0044 F1070000 		.4byte	.LASF4
 2164 0048 02       		.uleb128 0x2
 2165 0049 04       		.byte	0x4
 2166 004a 07       		.byte	0x7
 2167 004b 25090000 		.4byte	.LASF5
 2168 004f 02       		.uleb128 0x2
 2169 0050 08       		.byte	0x8
 2170 0051 05       		.byte	0x5
 2171 0052 27060000 		.4byte	.LASF6
 2172 0056 02       		.uleb128 0x2
 2173 0057 08       		.byte	0x8
 2174 0058 07       		.byte	0x7
 2175 0059 30030000 		.4byte	.LASF7
 2176 005d 03       		.uleb128 0x3
 2177 005e 04       		.byte	0x4
 2178 005f 05       		.byte	0x5
 2179 0060 696E7400 		.ascii	"int\000"
 2180 0064 02       		.uleb128 0x2
 2181 0065 04       		.byte	0x4
 2182 0066 07       		.byte	0x7
 2183 0067 29010000 		.4byte	.LASF8
 2184 006b 04       		.uleb128 0x4
 2185 006c B40B0000 		.4byte	.LASF9
 2186 0070 02       		.byte	0x2
 2187 0071 3801     		.2byte	0x138
 2188 0073 2C000000 		.4byte	0x2c
 2189 0077 04       		.uleb128 0x4
 2190 0078 87050000 		.4byte	.LASF10
 2191 007c 02       		.byte	0x2
 2192 007d 3901     		.2byte	0x139
 2193 007f 3A000000 		.4byte	0x3a
 2194 0083 04       		.uleb128 0x4
 2195 0084 2F070000 		.4byte	.LASF11
 2196 0088 02       		.byte	0x2
 2197 0089 3A01     		.2byte	0x13a
 2198 008b 48000000 		.4byte	0x48
 2199 008f 04       		.uleb128 0x4
 2200 0090 46010000 		.4byte	.LASF12
 2201 0094 02       		.byte	0x2
 2202 0095 3C01     		.2byte	0x13c
 2203 0097 33000000 		.4byte	0x33
 2204 009b 04       		.uleb128 0x4
 2205 009c D6020000 		.4byte	.LASF13
 2206 00a0 02       		.byte	0x2
 2207 00a1 3D01     		.2byte	0x13d
 2208 00a3 41000000 		.4byte	0x41
 2209 00a7 02       		.uleb128 0x2
 2210 00a8 04       		.byte	0x4
 2211 00a9 04       		.byte	0x4
 2212 00aa D0020000 		.4byte	.LASF14
 2213 00ae 02       		.uleb128 0x2
 2214 00af 08       		.byte	0x8
 2215 00b0 04       		.byte	0x4
 2216 00b1 BA0B0000 		.4byte	.LASF15
 2217 00b5 02       		.uleb128 0x2
 2218 00b6 01       		.byte	0x1
ARM GAS  C:\Users\Terence\AppData\Local\Temp\cc6R4aDx.s 			page 92


 2219 00b7 08       		.byte	0x8
 2220 00b8 50050000 		.4byte	.LASF16
 2221 00bc 02       		.uleb128 0x2
 2222 00bd 04       		.byte	0x4
 2223 00be 07       		.byte	0x7
 2224 00bf 1C090000 		.4byte	.LASF17
 2225 00c3 05       		.uleb128 0x5
 2226 00c4 04       		.byte	0x4
 2227 00c5 06       		.uleb128 0x6
 2228 00c6 5C       		.byte	0x5c
 2229 00c7 03       		.byte	0x3
 2230 00c8 2F       		.byte	0x2f
 2231 00c9 E2010000 		.4byte	0x1e2
 2232 00cd 07       		.uleb128 0x7
 2233 00ce 93050000 		.4byte	.LASF18
 2234 00d2 03       		.byte	0x3
 2235 00d3 31       		.byte	0x31
 2236 00d4 E2010000 		.4byte	0x1e2
 2237 00d8 00       		.byte	0
 2238 00d9 07       		.uleb128 0x7
 2239 00da D8070000 		.4byte	.LASF19
 2240 00de 03       		.byte	0x3
 2241 00df 32       		.byte	0x32
 2242 00e0 E2010000 		.4byte	0x1e2
 2243 00e4 04       		.byte	0x4
 2244 00e5 07       		.uleb128 0x7
 2245 00e6 1D0A0000 		.4byte	.LASF20
 2246 00ea 03       		.byte	0x3
 2247 00eb 33       		.byte	0x33
 2248 00ec E2010000 		.4byte	0x1e2
 2249 00f0 08       		.byte	0x8
 2250 00f1 07       		.uleb128 0x7
 2251 00f2 86090000 		.4byte	.LASF21
 2252 00f6 03       		.byte	0x3
 2253 00f7 34       		.byte	0x34
 2254 00f8 E2010000 		.4byte	0x1e2
 2255 00fc 0C       		.byte	0xc
 2256 00fd 07       		.uleb128 0x7
 2257 00fe 8C0A0000 		.4byte	.LASF22
 2258 0102 03       		.byte	0x3
 2259 0103 35       		.byte	0x35
 2260 0104 E2010000 		.4byte	0x1e2
 2261 0108 10       		.byte	0x10
 2262 0109 07       		.uleb128 0x7
 2263 010a AF070000 		.4byte	.LASF23
 2264 010e 03       		.byte	0x3
 2265 010f 36       		.byte	0x36
 2266 0110 E8010000 		.4byte	0x1e8
 2267 0114 14       		.byte	0x14
 2268 0115 07       		.uleb128 0x7
 2269 0116 E2020000 		.4byte	.LASF24
 2270 011a 03       		.byte	0x3
 2271 011b 37       		.byte	0x37
 2272 011c F3010000 		.4byte	0x1f3
 2273 0120 18       		.byte	0x18
 2274 0121 07       		.uleb128 0x7
 2275 0122 51040000 		.4byte	.LASF25
ARM GAS  C:\Users\Terence\AppData\Local\Temp\cc6R4aDx.s 			page 93


 2276 0126 03       		.byte	0x3
 2277 0127 38       		.byte	0x38
 2278 0128 E2010000 		.4byte	0x1e2
 2279 012c 1C       		.byte	0x1c
 2280 012d 07       		.uleb128 0x7
 2281 012e 1B030000 		.4byte	.LASF26
 2282 0132 03       		.byte	0x3
 2283 0133 39       		.byte	0x39
 2284 0134 E2010000 		.4byte	0x1e2
 2285 0138 20       		.byte	0x20
 2286 0139 07       		.uleb128 0x7
 2287 013a 95010000 		.4byte	.LASF27
 2288 013e 03       		.byte	0x3
 2289 013f 3A       		.byte	0x3a
 2290 0140 E2010000 		.4byte	0x1e2
 2291 0144 24       		.byte	0x24
 2292 0145 07       		.uleb128 0x7
 2293 0146 CF060000 		.4byte	.LASF28
 2294 014a 03       		.byte	0x3
 2295 014b 3B       		.byte	0x3b
 2296 014c F9010000 		.4byte	0x1f9
 2297 0150 28       		.byte	0x28
 2298 0151 07       		.uleb128 0x7
 2299 0152 4C010000 		.4byte	.LASF29
 2300 0156 03       		.byte	0x3
 2301 0157 3C       		.byte	0x3c
 2302 0158 F9010000 		.4byte	0x1f9
 2303 015c 2C       		.byte	0x2c
 2304 015d 07       		.uleb128 0x7
 2305 015e 4F090000 		.4byte	.LASF30
 2306 0162 03       		.byte	0x3
 2307 0163 3D       		.byte	0x3d
 2308 0164 F9010000 		.4byte	0x1f9
 2309 0168 30       		.byte	0x30
 2310 0169 07       		.uleb128 0x7
 2311 016a F2080000 		.4byte	.LASF31
 2312 016e 03       		.byte	0x3
 2313 016f 3E       		.byte	0x3e
 2314 0170 E2010000 		.4byte	0x1e2
 2315 0174 34       		.byte	0x34
 2316 0175 07       		.uleb128 0x7
 2317 0176 48000000 		.4byte	.LASF32
 2318 017a 03       		.byte	0x3
 2319 017b 3F       		.byte	0x3f
 2320 017c E2010000 		.4byte	0x1e2
 2321 0180 38       		.byte	0x38
 2322 0181 07       		.uleb128 0x7
 2323 0182 78050000 		.4byte	.LASF33
 2324 0186 03       		.byte	0x3
 2325 0187 40       		.byte	0x40
 2326 0188 E8010000 		.4byte	0x1e8
 2327 018c 3C       		.byte	0x3c
 2328 018d 07       		.uleb128 0x7
 2329 018e 20020000 		.4byte	.LASF34
 2330 0192 03       		.byte	0x3
 2331 0193 41       		.byte	0x41
 2332 0194 E8010000 		.4byte	0x1e8
ARM GAS  C:\Users\Terence\AppData\Local\Temp\cc6R4aDx.s 			page 94


 2333 0198 40       		.byte	0x40
 2334 0199 07       		.uleb128 0x7
 2335 019a 95000000 		.4byte	.LASF35
 2336 019e 03       		.byte	0x3
 2337 019f 42       		.byte	0x42
 2338 01a0 E8010000 		.4byte	0x1e8
 2339 01a4 44       		.byte	0x44
 2340 01a5 07       		.uleb128 0x7
 2341 01a6 7F060000 		.4byte	.LASF36
 2342 01aa 03       		.byte	0x3
 2343 01ab 43       		.byte	0x43
 2344 01ac 0E020000 		.4byte	0x20e
 2345 01b0 48       		.byte	0x48
 2346 01b1 07       		.uleb128 0x7
 2347 01b2 57060000 		.4byte	.LASF37
 2348 01b6 03       		.byte	0x3
 2349 01b7 44       		.byte	0x44
 2350 01b8 1F020000 		.4byte	0x21f
 2351 01bc 4C       		.byte	0x4c
 2352 01bd 07       		.uleb128 0x7
 2353 01be 67040000 		.4byte	.LASF38
 2354 01c2 03       		.byte	0x3
 2355 01c3 45       		.byte	0x45
 2356 01c4 0E020000 		.4byte	0x20e
 2357 01c8 50       		.byte	0x50
 2358 01c9 07       		.uleb128 0x7
 2359 01ca A5000000 		.4byte	.LASF39
 2360 01ce 03       		.byte	0x3
 2361 01cf 46       		.byte	0x46
 2362 01d0 39020000 		.4byte	0x239
 2363 01d4 54       		.byte	0x54
 2364 01d5 07       		.uleb128 0x7
 2365 01d6 000C0000 		.4byte	.LASF40
 2366 01da 03       		.byte	0x3
 2367 01db 47       		.byte	0x47
 2368 01dc 54020000 		.4byte	0x254
 2369 01e0 58       		.byte	0x58
 2370 01e1 00       		.byte	0
 2371 01e2 08       		.uleb128 0x8
 2372 01e3 04       		.byte	0x4
 2373 01e4 6B000000 		.4byte	0x6b
 2374 01e8 08       		.uleb128 0x8
 2375 01e9 04       		.byte	0x4
 2376 01ea EE010000 		.4byte	0x1ee
 2377 01ee 09       		.uleb128 0x9
 2378 01ef 6B000000 		.4byte	0x6b
 2379 01f3 08       		.uleb128 0x8
 2380 01f4 04       		.byte	0x4
 2381 01f5 83000000 		.4byte	0x83
 2382 01f9 08       		.uleb128 0x8
 2383 01fa 04       		.byte	0x4
 2384 01fb 77000000 		.4byte	0x77
 2385 01ff 0A       		.uleb128 0xa
 2386 0200 77000000 		.4byte	0x77
 2387 0204 0E020000 		.4byte	0x20e
 2388 0208 0B       		.uleb128 0xb
 2389 0209 83000000 		.4byte	0x83
ARM GAS  C:\Users\Terence\AppData\Local\Temp\cc6R4aDx.s 			page 95


 2390 020d 00       		.byte	0
 2391 020e 08       		.uleb128 0x8
 2392 020f 04       		.byte	0x4
 2393 0210 FF010000 		.4byte	0x1ff
 2394 0214 0C       		.uleb128 0xc
 2395 0215 1F020000 		.4byte	0x21f
 2396 0219 0B       		.uleb128 0xb
 2397 021a 83000000 		.4byte	0x83
 2398 021e 00       		.byte	0
 2399 021f 08       		.uleb128 0x8
 2400 0220 04       		.byte	0x4
 2401 0221 14020000 		.4byte	0x214
 2402 0225 0A       		.uleb128 0xa
 2403 0226 83000000 		.4byte	0x83
 2404 022a 39020000 		.4byte	0x239
 2405 022e 0B       		.uleb128 0xb
 2406 022f E8010000 		.4byte	0x1e8
 2407 0233 0B       		.uleb128 0xb
 2408 0234 83000000 		.4byte	0x83
 2409 0238 00       		.byte	0
 2410 0239 08       		.uleb128 0x8
 2411 023a 04       		.byte	0x4
 2412 023b 25020000 		.4byte	0x225
 2413 023f 0C       		.uleb128 0xc
 2414 0240 54020000 		.4byte	0x254
 2415 0244 0B       		.uleb128 0xb
 2416 0245 E2010000 		.4byte	0x1e2
 2417 0249 0B       		.uleb128 0xb
 2418 024a 83000000 		.4byte	0x83
 2419 024e 0B       		.uleb128 0xb
 2420 024f 83000000 		.4byte	0x83
 2421 0253 00       		.byte	0
 2422 0254 08       		.uleb128 0x8
 2423 0255 04       		.byte	0x4
 2424 0256 3F020000 		.4byte	0x23f
 2425 025a 0D       		.uleb128 0xd
 2426 025b C10B0000 		.4byte	.LASF41
 2427 025f 03       		.byte	0x3
 2428 0260 48       		.byte	0x48
 2429 0261 C5000000 		.4byte	0xc5
 2430 0265 06       		.uleb128 0x6
 2431 0266 0C       		.byte	0xc
 2432 0267 03       		.byte	0x3
 2433 0268 4A       		.byte	0x4a
 2434 0269 B6020000 		.4byte	0x2b6
 2435 026d 07       		.uleb128 0x7
 2436 026e 11050000 		.4byte	.LASF42
 2437 0272 03       		.byte	0x3
 2438 0273 4C       		.byte	0x4c
 2439 0274 6B000000 		.4byte	0x6b
 2440 0278 00       		.byte	0
 2441 0279 07       		.uleb128 0x7
 2442 027a 2D020000 		.4byte	.LASF43
 2443 027e 03       		.byte	0x3
 2444 027f 4D       		.byte	0x4d
 2445 0280 6B000000 		.4byte	0x6b
 2446 0284 01       		.byte	0x1
ARM GAS  C:\Users\Terence\AppData\Local\Temp\cc6R4aDx.s 			page 96


 2447 0285 07       		.uleb128 0x7
 2448 0286 36010000 		.4byte	.LASF44
 2449 028a 03       		.byte	0x3
 2450 028b 4E       		.byte	0x4e
 2451 028c 6B000000 		.4byte	0x6b
 2452 0290 02       		.byte	0x2
 2453 0291 07       		.uleb128 0x7
 2454 0292 2A050000 		.4byte	.LASF45
 2455 0296 03       		.byte	0x3
 2456 0297 4F       		.byte	0x4f
 2457 0298 77000000 		.4byte	0x77
 2458 029c 04       		.byte	0x4
 2459 029d 07       		.uleb128 0x7
 2460 029e A1070000 		.4byte	.LASF46
 2461 02a2 03       		.byte	0x3
 2462 02a3 50       		.byte	0x50
 2463 02a4 77000000 		.4byte	0x77
 2464 02a8 06       		.byte	0x6
 2465 02a9 07       		.uleb128 0x7
 2466 02aa 37090000 		.4byte	.LASF47
 2467 02ae 03       		.byte	0x3
 2468 02af 51       		.byte	0x51
 2469 02b0 B6020000 		.4byte	0x2b6
 2470 02b4 08       		.byte	0x8
 2471 02b5 00       		.byte	0
 2472 02b6 08       		.uleb128 0x8
 2473 02b7 04       		.byte	0x4
 2474 02b8 BC020000 		.4byte	0x2bc
 2475 02bc 09       		.uleb128 0x9
 2476 02bd 5A020000 		.4byte	0x25a
 2477 02c1 0D       		.uleb128 0xd
 2478 02c2 D9010000 		.4byte	.LASF48
 2479 02c6 03       		.byte	0x3
 2480 02c7 52       		.byte	0x52
 2481 02c8 65020000 		.4byte	0x265
 2482 02cc 0E       		.uleb128 0xe
 2483 02cd A7060000 		.4byte	.LASF49
 2484 02d1 01       		.byte	0x1
 2485 02d2 9E       		.byte	0x9e
 2486 02d3 00000000 		.4byte	.LFB36
 2487 02d7 48000000 		.4byte	.LFE36-.LFB36
 2488 02db 01       		.uleb128 0x1
 2489 02dc 9C       		.byte	0x9c
 2490 02dd 00030000 		.4byte	0x300
 2491 02e1 0F       		.uleb128 0xf
 2492 02e2 23050000 		.4byte	.LASF51
 2493 02e6 01       		.byte	0x1
 2494 02e7 9E       		.byte	0x9e
 2495 02e8 83000000 		.4byte	0x83
 2496 02ec 00000000 		.4byte	.LLST0
 2497 02f0 10       		.uleb128 0x10
 2498 02f1 7F030000 		.4byte	.LASF53
 2499 02f5 01       		.byte	0x1
 2500 02f6 A2       		.byte	0xa2
 2501 02f7 6B000000 		.4byte	0x6b
 2502 02fb 21000000 		.4byte	.LLST1
 2503 02ff 00       		.byte	0
ARM GAS  C:\Users\Terence\AppData\Local\Temp\cc6R4aDx.s 			page 97


 2504 0300 0E       		.uleb128 0xe
 2505 0301 B7010000 		.4byte	.LASF50
 2506 0305 01       		.byte	0x1
 2507 0306 ED       		.byte	0xed
 2508 0307 00000000 		.4byte	.LFB37
 2509 030b 18000000 		.4byte	.LFE37-.LFB37
 2510 030f 01       		.uleb128 0x1
 2511 0310 9C       		.byte	0x9c
 2512 0311 52030000 		.4byte	0x352
 2513 0315 0F       		.uleb128 0xf
 2514 0316 23050000 		.4byte	.LASF51
 2515 031a 01       		.byte	0x1
 2516 031b ED       		.byte	0xed
 2517 031c 83000000 		.4byte	0x83
 2518 0320 41000000 		.4byte	.LLST2
 2519 0324 11       		.uleb128 0x11
 2520 0325 08000000 		.4byte	.LVL6
 2521 0329 00110000 		.4byte	0x1100
 2522 032d 38030000 		.4byte	0x338
 2523 0331 12       		.uleb128 0x12
 2524 0332 01       		.uleb128 0x1
 2525 0333 50       		.byte	0x50
 2526 0334 02       		.uleb128 0x2
 2527 0335 74       		.byte	0x74
 2528 0336 00       		.sleb128 0
 2529 0337 00       		.byte	0
 2530 0338 13       		.uleb128 0x13
 2531 0339 0C000000 		.4byte	.LVL7
 2532 033d 11110000 		.4byte	0x1111
 2533 0341 14       		.uleb128 0x14
 2534 0342 16000000 		.4byte	.LVL8
 2535 0346 CC020000 		.4byte	0x2cc
 2536 034a 12       		.uleb128 0x12
 2537 034b 01       		.uleb128 0x1
 2538 034c 50       		.byte	0x50
 2539 034d 02       		.uleb128 0x2
 2540 034e 74       		.byte	0x74
 2541 034f 00       		.sleb128 0
 2542 0350 00       		.byte	0
 2543 0351 00       		.byte	0
 2544 0352 15       		.uleb128 0x15
 2545 0353 C7090000 		.4byte	.LASF52
 2546 0357 01       		.byte	0x1
 2547 0358 1201     		.2byte	0x112
 2548 035a 00000000 		.4byte	.LFB38
 2549 035e 14000000 		.4byte	.LFE38-.LFB38
 2550 0362 01       		.uleb128 0x1
 2551 0363 9C       		.byte	0x9c
 2552 0364 87030000 		.4byte	0x387
 2553 0368 16       		.uleb128 0x16
 2554 0369 6900     		.ascii	"i\000"
 2555 036b 01       		.byte	0x1
 2556 036c 1401     		.2byte	0x114
 2557 036e 83000000 		.4byte	0x83
 2558 0372 6D000000 		.4byte	.LLST3
 2559 0376 14       		.uleb128 0x14
 2560 0377 0C000000 		.4byte	.LVL12
ARM GAS  C:\Users\Terence\AppData\Local\Temp\cc6R4aDx.s 			page 98


 2561 037b 00030000 		.4byte	0x300
 2562 037f 12       		.uleb128 0x12
 2563 0380 01       		.uleb128 0x1
 2564 0381 50       		.byte	0x50
 2565 0382 02       		.uleb128 0x2
 2566 0383 74       		.byte	0x74
 2567 0384 00       		.sleb128 0
 2568 0385 00       		.byte	0
 2569 0386 00       		.byte	0
 2570 0387 15       		.uleb128 0x15
 2571 0388 59010000 		.4byte	.LASF54
 2572 038c 01       		.byte	0x1
 2573 038d 3501     		.2byte	0x135
 2574 038f 00000000 		.4byte	.LFB39
 2575 0393 30000000 		.4byte	.LFE39-.LFB39
 2576 0397 01       		.uleb128 0x1
 2577 0398 9C       		.byte	0x9c
 2578 0399 F2030000 		.4byte	0x3f2
 2579 039d 16       		.uleb128 0x16
 2580 039e 6900     		.ascii	"i\000"
 2581 03a0 01       		.byte	0x1
 2582 03a1 3701     		.2byte	0x137
 2583 03a3 83000000 		.4byte	0x83
 2584 03a7 8C000000 		.4byte	.LLST4
 2585 03ab 17       		.uleb128 0x17
 2586 03ac 0C010000 		.4byte	.LASF55
 2587 03b0 01       		.byte	0x1
 2588 03b1 3801     		.2byte	0x138
 2589 03b3 83000000 		.4byte	0x83
 2590 03b7 9F000000 		.4byte	.LLST5
 2591 03bb 13       		.uleb128 0x13
 2592 03bc 06000000 		.4byte	.LVL15
 2593 03c0 1C110000 		.4byte	0x111c
 2594 03c4 13       		.uleb128 0x13
 2595 03c5 0A000000 		.4byte	.LVL16
 2596 03c9 11110000 		.4byte	0x1111
 2597 03cd 11       		.uleb128 0x11
 2598 03ce 1A000000 		.4byte	.LVL18
 2599 03d2 23110000 		.4byte	0x1123
 2600 03d6 E1030000 		.4byte	0x3e1
 2601 03da 12       		.uleb128 0x12
 2602 03db 01       		.uleb128 0x1
 2603 03dc 51       		.byte	0x51
 2604 03dd 02       		.uleb128 0x2
 2605 03de 74       		.byte	0x74
 2606 03df 00       		.sleb128 0
 2607 03e0 00       		.byte	0
 2608 03e1 14       		.uleb128 0x14
 2609 03e2 24000000 		.4byte	.LVL20
 2610 03e6 CC020000 		.4byte	0x2cc
 2611 03ea 12       		.uleb128 0x12
 2612 03eb 01       		.uleb128 0x1
 2613 03ec 50       		.byte	0x50
 2614 03ed 02       		.uleb128 0x2
 2615 03ee 74       		.byte	0x74
 2616 03ef 00       		.sleb128 0
 2617 03f0 00       		.byte	0
ARM GAS  C:\Users\Terence\AppData\Local\Temp\cc6R4aDx.s 			page 99


 2618 03f1 00       		.byte	0
 2619 03f2 18       		.uleb128 0x18
 2620 03f3 E7090000 		.4byte	.LASF58
 2621 03f7 01       		.byte	0x1
 2622 03f8 CA02     		.2byte	0x2ca
 2623 03fa 77000000 		.4byte	0x77
 2624 03fe 00000000 		.4byte	.LFB44
 2625 0402 0C000000 		.4byte	.LFE44-.LFB44
 2626 0406 01       		.uleb128 0x1
 2627 0407 9C       		.byte	0x9c
 2628 0408 1D040000 		.4byte	0x41d
 2629 040c 19       		.uleb128 0x19
 2630 040d 23050000 		.4byte	.LASF51
 2631 0411 01       		.byte	0x1
 2632 0412 CA02     		.2byte	0x2ca
 2633 0414 83000000 		.4byte	0x83
 2634 0418 B2000000 		.4byte	.LLST6
 2635 041c 00       		.byte	0
 2636 041d 15       		.uleb128 0x15
 2637 041e 07020000 		.4byte	.LASF56
 2638 0422 01       		.byte	0x1
 2639 0423 E502     		.2byte	0x2e5
 2640 0425 00000000 		.4byte	.LFB45
 2641 0429 0C000000 		.4byte	.LFE45-.LFB45
 2642 042d 01       		.uleb128 0x1
 2643 042e 9C       		.byte	0x9c
 2644 042f 52040000 		.4byte	0x452
 2645 0433 19       		.uleb128 0x19
 2646 0434 23050000 		.4byte	.LASF51
 2647 0438 01       		.byte	0x1
 2648 0439 E502     		.2byte	0x2e5
 2649 043b 83000000 		.4byte	0x83
 2650 043f D3000000 		.4byte	.LLST7
 2651 0443 1A       		.uleb128 0x1a
 2652 0444 8E050000 		.4byte	.LASF57
 2653 0448 01       		.byte	0x1
 2654 0449 E502     		.2byte	0x2e5
 2655 044b 77000000 		.4byte	0x77
 2656 044f 01       		.uleb128 0x1
 2657 0450 51       		.byte	0x51
 2658 0451 00       		.byte	0
 2659 0452 18       		.uleb128 0x18
 2660 0453 2B040000 		.4byte	.LASF59
 2661 0457 01       		.byte	0x1
 2662 0458 0003     		.2byte	0x300
 2663 045a 6B000000 		.4byte	0x6b
 2664 045e 00000000 		.4byte	.LFB46
 2665 0462 0C000000 		.4byte	.LFE46-.LFB46
 2666 0466 01       		.uleb128 0x1
 2667 0467 9C       		.byte	0x9c
 2668 0468 7D040000 		.4byte	0x47d
 2669 046c 19       		.uleb128 0x19
 2670 046d 23050000 		.4byte	.LASF51
 2671 0471 01       		.byte	0x1
 2672 0472 0003     		.2byte	0x300
 2673 0474 83000000 		.4byte	0x83
 2674 0478 F4000000 		.4byte	.LLST8
ARM GAS  C:\Users\Terence\AppData\Local\Temp\cc6R4aDx.s 			page 100


 2675 047c 00       		.byte	0
 2676 047d 15       		.uleb128 0x15
 2677 047e 3D020000 		.4byte	.LASF60
 2678 0482 01       		.byte	0x1
 2679 0483 1B03     		.2byte	0x31b
 2680 0485 00000000 		.4byte	.LFB47
 2681 0489 0C000000 		.4byte	.LFE47-.LFB47
 2682 048d 01       		.uleb128 0x1
 2683 048e 9C       		.byte	0x9c
 2684 048f B0040000 		.4byte	0x4b0
 2685 0493 1A       		.uleb128 0x1a
 2686 0494 23050000 		.4byte	.LASF51
 2687 0498 01       		.byte	0x1
 2688 0499 1B03     		.2byte	0x31b
 2689 049b 83000000 		.4byte	0x83
 2690 049f 01       		.uleb128 0x1
 2691 04a0 50       		.byte	0x50
 2692 04a1 1A       		.uleb128 0x1a
 2693 04a2 08040000 		.4byte	.LASF61
 2694 04a6 01       		.byte	0x1
 2695 04a7 1B03     		.2byte	0x31b
 2696 04a9 6B000000 		.4byte	0x6b
 2697 04ad 01       		.uleb128 0x1
 2698 04ae 51       		.byte	0x51
 2699 04af 00       		.byte	0
 2700 04b0 18       		.uleb128 0x18
 2701 04b1 70070000 		.4byte	.LASF62
 2702 04b5 01       		.byte	0x1
 2703 04b6 3603     		.2byte	0x336
 2704 04b8 6B000000 		.4byte	0x6b
 2705 04bc 00000000 		.4byte	.LFB48
 2706 04c0 0C000000 		.4byte	.LFE48-.LFB48
 2707 04c4 01       		.uleb128 0x1
 2708 04c5 9C       		.byte	0x9c
 2709 04c6 DB040000 		.4byte	0x4db
 2710 04ca 19       		.uleb128 0x19
 2711 04cb 7F030000 		.4byte	.LASF53
 2712 04cf 01       		.byte	0x1
 2713 04d0 3603     		.2byte	0x336
 2714 04d2 83000000 		.4byte	0x83
 2715 04d6 15010000 		.4byte	.LLST9
 2716 04da 00       		.byte	0
 2717 04db 18       		.uleb128 0x18
 2718 04dc 00030000 		.4byte	.LASF63
 2719 04e0 01       		.byte	0x1
 2720 04e1 5103     		.2byte	0x351
 2721 04e3 6B000000 		.4byte	0x6b
 2722 04e7 00000000 		.4byte	.LFB49
 2723 04eb 0C000000 		.4byte	.LFE49-.LFB49
 2724 04ef 01       		.uleb128 0x1
 2725 04f0 9C       		.byte	0x9c
 2726 04f1 06050000 		.4byte	0x506
 2727 04f5 19       		.uleb128 0x19
 2728 04f6 7F030000 		.4byte	.LASF53
 2729 04fa 01       		.byte	0x1
 2730 04fb 5103     		.2byte	0x351
 2731 04fd 83000000 		.4byte	0x83
ARM GAS  C:\Users\Terence\AppData\Local\Temp\cc6R4aDx.s 			page 101


 2732 0501 36010000 		.4byte	.LLST10
 2733 0505 00       		.byte	0
 2734 0506 18       		.uleb128 0x18
 2735 0507 0E040000 		.4byte	.LASF64
 2736 050b 01       		.byte	0x1
 2737 050c 6D03     		.2byte	0x36d
 2738 050e 6B000000 		.4byte	0x6b
 2739 0512 00000000 		.4byte	.LFB50
 2740 0516 0C000000 		.4byte	.LFE50-.LFB50
 2741 051a 01       		.uleb128 0x1
 2742 051b 9C       		.byte	0x9c
 2743 051c 31050000 		.4byte	0x531
 2744 0520 19       		.uleb128 0x19
 2745 0521 7F030000 		.4byte	.LASF53
 2746 0525 01       		.byte	0x1
 2747 0526 6D03     		.2byte	0x36d
 2748 0528 83000000 		.4byte	0x83
 2749 052c 57010000 		.4byte	.LLST11
 2750 0530 00       		.byte	0
 2751 0531 18       		.uleb128 0x18
 2752 0532 55050000 		.4byte	.LASF65
 2753 0536 01       		.byte	0x1
 2754 0537 8903     		.2byte	0x389
 2755 0539 6B000000 		.4byte	0x6b
 2756 053d 00000000 		.4byte	.LFB51
 2757 0541 0C000000 		.4byte	.LFE51-.LFB51
 2758 0545 01       		.uleb128 0x1
 2759 0546 9C       		.byte	0x9c
 2760 0547 5C050000 		.4byte	0x55c
 2761 054b 19       		.uleb128 0x19
 2762 054c 7F030000 		.4byte	.LASF53
 2763 0550 01       		.byte	0x1
 2764 0551 8903     		.2byte	0x389
 2765 0553 83000000 		.4byte	0x83
 2766 0557 78010000 		.4byte	.LLST12
 2767 055b 00       		.byte	0
 2768 055c 15       		.uleb128 0x15
 2769 055d CD030000 		.4byte	.LASF66
 2770 0561 01       		.byte	0x1
 2771 0562 AA03     		.2byte	0x3aa
 2772 0564 00000000 		.4byte	.LFB52
 2773 0568 0C000000 		.4byte	.LFE52-.LFB52
 2774 056c 01       		.uleb128 0x1
 2775 056d 9C       		.byte	0x9c
 2776 056e 91050000 		.4byte	0x591
 2777 0572 19       		.uleb128 0x19
 2778 0573 7F030000 		.4byte	.LASF53
 2779 0577 01       		.byte	0x1
 2780 0578 AA03     		.2byte	0x3aa
 2781 057a 83000000 		.4byte	0x83
 2782 057e 99010000 		.4byte	.LLST13
 2783 0582 1A       		.uleb128 0x1a
 2784 0583 08040000 		.4byte	.LASF61
 2785 0587 01       		.byte	0x1
 2786 0588 AA03     		.2byte	0x3aa
 2787 058a 6B000000 		.4byte	0x6b
 2788 058e 01       		.uleb128 0x1
ARM GAS  C:\Users\Terence\AppData\Local\Temp\cc6R4aDx.s 			page 102


 2789 058f 51       		.byte	0x51
 2790 0590 00       		.byte	0
 2791 0591 15       		.uleb128 0x15
 2792 0592 83020000 		.4byte	.LASF67
 2793 0596 01       		.byte	0x1
 2794 0597 C603     		.2byte	0x3c6
 2795 0599 00000000 		.4byte	.LFB53
 2796 059d 0C000000 		.4byte	.LFE53-.LFB53
 2797 05a1 01       		.uleb128 0x1
 2798 05a2 9C       		.byte	0x9c
 2799 05a3 C4050000 		.4byte	0x5c4
 2800 05a7 1A       		.uleb128 0x1a
 2801 05a8 7F030000 		.4byte	.LASF53
 2802 05ac 01       		.byte	0x1
 2803 05ad C603     		.2byte	0x3c6
 2804 05af 83000000 		.4byte	0x83
 2805 05b3 01       		.uleb128 0x1
 2806 05b4 50       		.byte	0x50
 2807 05b5 1A       		.uleb128 0x1a
 2808 05b6 08040000 		.4byte	.LASF61
 2809 05ba 01       		.byte	0x1
 2810 05bb C603     		.2byte	0x3c6
 2811 05bd 6B000000 		.4byte	0x6b
 2812 05c1 01       		.uleb128 0x1
 2813 05c2 51       		.byte	0x51
 2814 05c3 00       		.byte	0
 2815 05c4 15       		.uleb128 0x15
 2816 05c5 53070000 		.4byte	.LASF68
 2817 05c9 01       		.byte	0x1
 2818 05ca E203     		.2byte	0x3e2
 2819 05cc 00000000 		.4byte	.LFB54
 2820 05d0 0C000000 		.4byte	.LFE54-.LFB54
 2821 05d4 01       		.uleb128 0x1
 2822 05d5 9C       		.byte	0x9c
 2823 05d6 F7050000 		.4byte	0x5f7
 2824 05da 1A       		.uleb128 0x1a
 2825 05db 7F030000 		.4byte	.LASF53
 2826 05df 01       		.byte	0x1
 2827 05e0 E203     		.2byte	0x3e2
 2828 05e2 83000000 		.4byte	0x83
 2829 05e6 01       		.uleb128 0x1
 2830 05e7 50       		.byte	0x50
 2831 05e8 1A       		.uleb128 0x1a
 2832 05e9 08040000 		.4byte	.LASF61
 2833 05ed 01       		.byte	0x1
 2834 05ee E203     		.2byte	0x3e2
 2835 05f0 6B000000 		.4byte	0x6b
 2836 05f4 01       		.uleb128 0x1
 2837 05f5 51       		.byte	0x51
 2838 05f6 00       		.byte	0
 2839 05f7 15       		.uleb128 0x15
 2840 05f8 0C070000 		.4byte	.LASF69
 2841 05fc 01       		.byte	0x1
 2842 05fd FF03     		.2byte	0x3ff
 2843 05ff 00000000 		.4byte	.LFB55
 2844 0603 0C000000 		.4byte	.LFE55-.LFB55
 2845 0607 01       		.uleb128 0x1
ARM GAS  C:\Users\Terence\AppData\Local\Temp\cc6R4aDx.s 			page 103


 2846 0608 9C       		.byte	0x9c
 2847 0609 2A060000 		.4byte	0x62a
 2848 060d 1A       		.uleb128 0x1a
 2849 060e 7F030000 		.4byte	.LASF53
 2850 0612 01       		.byte	0x1
 2851 0613 FF03     		.2byte	0x3ff
 2852 0615 83000000 		.4byte	0x83
 2853 0619 01       		.uleb128 0x1
 2854 061a 50       		.byte	0x50
 2855 061b 1A       		.uleb128 0x1a
 2856 061c 08040000 		.4byte	.LASF61
 2857 0620 01       		.byte	0x1
 2858 0621 FF03     		.2byte	0x3ff
 2859 0623 6B000000 		.4byte	0x6b
 2860 0627 01       		.uleb128 0x1
 2861 0628 51       		.byte	0x51
 2862 0629 00       		.byte	0
 2863 062a 15       		.uleb128 0x15
 2864 062b 61090000 		.4byte	.LASF70
 2865 062f 01       		.byte	0x1
 2866 0630 1B04     		.2byte	0x41b
 2867 0632 00000000 		.4byte	.LFB56
 2868 0636 0C000000 		.4byte	.LFE56-.LFB56
 2869 063a 01       		.uleb128 0x1
 2870 063b 9C       		.byte	0x9c
 2871 063c 5D060000 		.4byte	0x65d
 2872 0640 1A       		.uleb128 0x1a
 2873 0641 7F030000 		.4byte	.LASF53
 2874 0645 01       		.byte	0x1
 2875 0646 1B04     		.2byte	0x41b
 2876 0648 83000000 		.4byte	0x83
 2877 064c 01       		.uleb128 0x1
 2878 064d 50       		.byte	0x50
 2879 064e 1A       		.uleb128 0x1a
 2880 064f 08040000 		.4byte	.LASF61
 2881 0653 01       		.byte	0x1
 2882 0654 1B04     		.2byte	0x41b
 2883 0656 6B000000 		.4byte	0x6b
 2884 065a 01       		.uleb128 0x1
 2885 065b 51       		.byte	0x51
 2886 065c 00       		.byte	0
 2887 065d 15       		.uleb128 0x15
 2888 065e 000A0000 		.4byte	.LASF71
 2889 0662 01       		.byte	0x1
 2890 0663 3704     		.2byte	0x437
 2891 0665 00000000 		.4byte	.LFB57
 2892 0669 0C000000 		.4byte	.LFE57-.LFB57
 2893 066d 01       		.uleb128 0x1
 2894 066e 9C       		.byte	0x9c
 2895 066f 92060000 		.4byte	0x692
 2896 0673 19       		.uleb128 0x19
 2897 0674 23050000 		.4byte	.LASF51
 2898 0678 01       		.byte	0x1
 2899 0679 3704     		.2byte	0x437
 2900 067b 83000000 		.4byte	0x83
 2901 067f BA010000 		.4byte	.LLST14
 2902 0683 1A       		.uleb128 0x1a
ARM GAS  C:\Users\Terence\AppData\Local\Temp\cc6R4aDx.s 			page 104


 2903 0684 08040000 		.4byte	.LASF61
 2904 0688 01       		.byte	0x1
 2905 0689 3704     		.2byte	0x437
 2906 068b 6B000000 		.4byte	0x6b
 2907 068f 01       		.uleb128 0x1
 2908 0690 51       		.byte	0x51
 2909 0691 00       		.byte	0
 2910 0692 18       		.uleb128 0x18
 2911 0693 62060000 		.4byte	.LASF72
 2912 0697 01       		.byte	0x1
 2913 0698 6504     		.2byte	0x465
 2914 069a 83000000 		.4byte	0x83
 2915 069e 00000000 		.4byte	.LFB58
 2916 06a2 B8000000 		.4byte	.LFE58-.LFB58
 2917 06a6 01       		.uleb128 0x1
 2918 06a7 9C       		.byte	0x9c
 2919 06a8 85070000 		.4byte	0x785
 2920 06ac 19       		.uleb128 0x19
 2921 06ad 23050000 		.4byte	.LASF51
 2922 06b1 01       		.byte	0x1
 2923 06b2 6504     		.2byte	0x465
 2924 06b4 83000000 		.4byte	0x83
 2925 06b8 DB010000 		.4byte	.LLST15
 2926 06bc 17       		.uleb128 0x17
 2927 06bd 7F030000 		.4byte	.LASF53
 2928 06c1 01       		.byte	0x1
 2929 06c2 6704     		.2byte	0x467
 2930 06c4 6B000000 		.4byte	0x6b
 2931 06c8 07020000 		.4byte	.LLST16
 2932 06cc 17       		.uleb128 0x17
 2933 06cd 4E060000 		.4byte	.LASF73
 2934 06d1 01       		.byte	0x1
 2935 06d2 6804     		.2byte	0x468
 2936 06d4 6B000000 		.4byte	0x6b
 2937 06d8 32020000 		.4byte	.LLST17
 2938 06dc 17       		.uleb128 0x17
 2939 06dd B9090000 		.4byte	.LASF74
 2940 06e1 01       		.byte	0x1
 2941 06e2 6904     		.2byte	0x469
 2942 06e4 6B000000 		.4byte	0x6b
 2943 06e8 45020000 		.4byte	.LLST18
 2944 06ec 17       		.uleb128 0x17
 2945 06ed 76090000 		.4byte	.LASF75
 2946 06f1 01       		.byte	0x1
 2947 06f2 6B04     		.2byte	0x46b
 2948 06f4 6B000000 		.4byte	0x6b
 2949 06f8 64020000 		.4byte	.LLST19
 2950 06fc 17       		.uleb128 0x17
 2951 06fd 78040000 		.4byte	.LASF76
 2952 0701 01       		.byte	0x1
 2953 0702 6C04     		.2byte	0x46c
 2954 0704 6B000000 		.4byte	0x6b
 2955 0708 77020000 		.4byte	.LLST20
 2956 070c 11       		.uleb128 0x11
 2957 070d 38000000 		.4byte	.LVL57
 2958 0711 23110000 		.4byte	0x1123
 2959 0715 29070000 		.4byte	0x729
ARM GAS  C:\Users\Terence\AppData\Local\Temp\cc6R4aDx.s 			page 105


 2960 0719 12       		.uleb128 0x12
 2961 071a 01       		.uleb128 0x1
 2962 071b 51       		.byte	0x51
 2963 071c 02       		.uleb128 0x2
 2964 071d 75       		.byte	0x75
 2965 071e 00       		.sleb128 0
 2966 071f 12       		.uleb128 0x12
 2967 0720 01       		.uleb128 0x1
 2968 0721 50       		.byte	0x50
 2969 0722 05       		.uleb128 0x5
 2970 0723 03       		.byte	0x3
 2971 0724 44000000 		.4byte	.LANCHOR0+68
 2972 0728 00       		.byte	0
 2973 0729 11       		.uleb128 0x11
 2974 072a 56000000 		.4byte	.LVL59
 2975 072e 3D110000 		.4byte	0x113d
 2976 0732 49070000 		.4byte	0x749
 2977 0736 12       		.uleb128 0x12
 2978 0737 01       		.uleb128 0x1
 2979 0738 52       		.byte	0x52
 2980 0739 01       		.uleb128 0x1
 2981 073a 30       		.byte	0x30
 2982 073b 12       		.uleb128 0x12
 2983 073c 01       		.uleb128 0x1
 2984 073d 51       		.byte	0x51
 2985 073e 02       		.uleb128 0x2
 2986 073f 75       		.byte	0x75
 2987 0740 00       		.sleb128 0
 2988 0741 12       		.uleb128 0x12
 2989 0742 01       		.uleb128 0x1
 2990 0743 50       		.byte	0x50
 2991 0744 03       		.uleb128 0x3
 2992 0745 76       		.byte	0x76
 2993 0746 C400     		.sleb128 68
 2994 0748 00       		.byte	0
 2995 0749 11       		.uleb128 0x11
 2996 074a 86000000 		.4byte	.LVL62
 2997 074e 3D110000 		.4byte	0x113d
 2998 0752 6B070000 		.4byte	0x76b
 2999 0756 12       		.uleb128 0x12
 3000 0757 01       		.uleb128 0x1
 3001 0758 52       		.byte	0x52
 3002 0759 01       		.uleb128 0x1
 3003 075a 31       		.byte	0x31
 3004 075b 12       		.uleb128 0x12
 3005 075c 01       		.uleb128 0x1
 3006 075d 51       		.byte	0x51
 3007 075e 02       		.uleb128 0x2
 3008 075f 75       		.byte	0x75
 3009 0760 00       		.sleb128 0
 3010 0761 12       		.uleb128 0x12
 3011 0762 01       		.uleb128 0x1
 3012 0763 50       		.byte	0x50
 3013 0764 05       		.uleb128 0x5
 3014 0765 03       		.byte	0x3
 3015 0766 44000000 		.4byte	.LANCHOR0+68
 3016 076a 00       		.byte	0
ARM GAS  C:\Users\Terence\AppData\Local\Temp\cc6R4aDx.s 			page 106


 3017 076b 14       		.uleb128 0x14
 3018 076c 9A000000 		.4byte	.LVL63
 3019 0770 23110000 		.4byte	0x1123
 3020 0774 12       		.uleb128 0x12
 3021 0775 01       		.uleb128 0x1
 3022 0776 51       		.byte	0x51
 3023 0777 02       		.uleb128 0x2
 3024 0778 75       		.byte	0x75
 3025 0779 00       		.sleb128 0
 3026 077a 12       		.uleb128 0x12
 3027 077b 01       		.uleb128 0x1
 3028 077c 50       		.byte	0x50
 3029 077d 05       		.uleb128 0x5
 3030 077e 03       		.byte	0x3
 3031 077f 44000000 		.4byte	.LANCHOR0+68
 3032 0783 00       		.byte	0
 3033 0784 00       		.byte	0
 3034 0785 18       		.uleb128 0x18
 3035 0786 970B0000 		.4byte	.LASF77
 3036 078a 01       		.byte	0x1
 3037 078b BF04     		.2byte	0x4bf
 3038 078d 83000000 		.4byte	0x83
 3039 0791 00000000 		.4byte	.LFB59
 3040 0795 28000000 		.4byte	.LFE59-.LFB59
 3041 0799 01       		.uleb128 0x1
 3042 079a 9C       		.byte	0x9c
 3043 079b F0070000 		.4byte	0x7f0
 3044 079f 19       		.uleb128 0x19
 3045 07a0 7F030000 		.4byte	.LASF53
 3046 07a4 01       		.byte	0x1
 3047 07a5 BF04     		.2byte	0x4bf
 3048 07a7 83000000 		.4byte	0x83
 3049 07ab 95020000 		.4byte	.LLST21
 3050 07af 17       		.uleb128 0x17
 3051 07b0 AD050000 		.4byte	.LASF78
 3052 07b4 01       		.byte	0x1
 3053 07b5 C104     		.2byte	0x4c1
 3054 07b7 83000000 		.4byte	0x83
 3055 07bb B6020000 		.4byte	.LLST22
 3056 07bf 17       		.uleb128 0x17
 3057 07c0 1C010000 		.4byte	.LASF79
 3058 07c4 01       		.byte	0x1
 3059 07c5 C204     		.2byte	0x4c2
 3060 07c7 83000000 		.4byte	0x83
 3061 07cb C9020000 		.4byte	.LLST23
 3062 07cf 17       		.uleb128 0x17
 3063 07d0 6C0A0000 		.4byte	.LASF80
 3064 07d4 01       		.byte	0x1
 3065 07d5 C304     		.2byte	0x4c3
 3066 07d7 83000000 		.4byte	0x83
 3067 07db 04030000 		.4byte	.LLST24
 3068 07df 14       		.uleb128 0x14
 3069 07e0 14000000 		.4byte	.LVL73
 3070 07e4 92060000 		.4byte	0x692
 3071 07e8 12       		.uleb128 0x12
 3072 07e9 01       		.uleb128 0x1
 3073 07ea 50       		.byte	0x50
ARM GAS  C:\Users\Terence\AppData\Local\Temp\cc6R4aDx.s 			page 107


 3074 07eb 02       		.uleb128 0x2
 3075 07ec 74       		.byte	0x74
 3076 07ed 00       		.sleb128 0
 3077 07ee 00       		.byte	0
 3078 07ef 00       		.byte	0
 3079 07f0 18       		.uleb128 0x18
 3080 07f1 B8040000 		.4byte	.LASF81
 3081 07f5 01       		.byte	0x1
 3082 07f6 ED04     		.2byte	0x4ed
 3083 07f8 83000000 		.4byte	0x83
 3084 07fc 00000000 		.4byte	.LFB60
 3085 0800 1E000000 		.4byte	.LFE60-.LFB60
 3086 0804 01       		.uleb128 0x1
 3087 0805 9C       		.byte	0x9c
 3088 0806 39080000 		.4byte	0x839
 3089 080a 16       		.uleb128 0x16
 3090 080b 6900     		.ascii	"i\000"
 3091 080d 01       		.byte	0x1
 3092 080e F004     		.2byte	0x4f0
 3093 0810 83000000 		.4byte	0x83
 3094 0814 2E030000 		.4byte	.LLST25
 3095 0818 17       		.uleb128 0x17
 3096 0819 6C0A0000 		.4byte	.LASF80
 3097 081d 01       		.byte	0x1
 3098 081e F104     		.2byte	0x4f1
 3099 0820 83000000 		.4byte	0x83
 3100 0824 4D030000 		.4byte	.LLST26
 3101 0828 14       		.uleb128 0x14
 3102 0829 0E000000 		.4byte	.LVL81
 3103 082d 85070000 		.4byte	0x785
 3104 0831 12       		.uleb128 0x12
 3105 0832 01       		.uleb128 0x1
 3106 0833 50       		.byte	0x50
 3107 0834 02       		.uleb128 0x2
 3108 0835 74       		.byte	0x74
 3109 0836 00       		.sleb128 0
 3110 0837 00       		.byte	0
 3111 0838 00       		.byte	0
 3112 0839 15       		.uleb128 0x15
 3113 083a 3A050000 		.4byte	.LASF82
 3114 083e 01       		.byte	0x1
 3115 083f 1C05     		.2byte	0x51c
 3116 0841 00000000 		.4byte	.LFB61
 3117 0845 2C000000 		.4byte	.LFE61-.LFB61
 3118 0849 01       		.uleb128 0x1
 3119 084a 9C       		.byte	0x9c
 3120 084b 95080000 		.4byte	0x895
 3121 084f 19       		.uleb128 0x19
 3122 0850 7F030000 		.4byte	.LASF53
 3123 0854 01       		.byte	0x1
 3124 0855 1C05     		.2byte	0x51c
 3125 0857 83000000 		.4byte	0x83
 3126 085b 77030000 		.4byte	.LLST27
 3127 085f 17       		.uleb128 0x17
 3128 0860 AD050000 		.4byte	.LASF78
 3129 0864 01       		.byte	0x1
 3130 0865 1F05     		.2byte	0x51f
ARM GAS  C:\Users\Terence\AppData\Local\Temp\cc6R4aDx.s 			page 108


 3131 0867 6B000000 		.4byte	0x6b
 3132 086b 98030000 		.4byte	.LLST28
 3133 086f 17       		.uleb128 0x17
 3134 0870 1C010000 		.4byte	.LASF79
 3135 0874 01       		.byte	0x1
 3136 0875 2005     		.2byte	0x520
 3137 0877 6B000000 		.4byte	0x6b
 3138 087b B6030000 		.4byte	.LLST29
 3139 087f 14       		.uleb128 0x14
 3140 0880 18000000 		.4byte	.LVL90
 3141 0884 3D110000 		.4byte	0x113d
 3142 0888 12       		.uleb128 0x12
 3143 0889 01       		.uleb128 0x1
 3144 088a 52       		.byte	0x52
 3145 088b 01       		.uleb128 0x1
 3146 088c 31       		.byte	0x31
 3147 088d 12       		.uleb128 0x12
 3148 088e 01       		.uleb128 0x1
 3149 088f 51       		.byte	0x51
 3150 0890 02       		.uleb128 0x2
 3151 0891 74       		.byte	0x74
 3152 0892 00       		.sleb128 0
 3153 0893 00       		.byte	0
 3154 0894 00       		.byte	0
 3155 0895 15       		.uleb128 0x15
 3156 0896 B4000000 		.4byte	.LASF83
 3157 089a 01       		.byte	0x1
 3158 089b 4705     		.2byte	0x547
 3159 089d 00000000 		.4byte	.LFB62
 3160 08a1 2C000000 		.4byte	.LFE62-.LFB62
 3161 08a5 01       		.uleb128 0x1
 3162 08a6 9C       		.byte	0x9c
 3163 08a7 F1080000 		.4byte	0x8f1
 3164 08ab 19       		.uleb128 0x19
 3165 08ac 7F030000 		.4byte	.LASF53
 3166 08b0 01       		.byte	0x1
 3167 08b1 4705     		.2byte	0x547
 3168 08b3 83000000 		.4byte	0x83
 3169 08b7 F1030000 		.4byte	.LLST30
 3170 08bb 17       		.uleb128 0x17
 3171 08bc AD050000 		.4byte	.LASF78
 3172 08c0 01       		.byte	0x1
 3173 08c1 4905     		.2byte	0x549
 3174 08c3 6B000000 		.4byte	0x6b
 3175 08c7 12040000 		.4byte	.LLST31
 3176 08cb 17       		.uleb128 0x17
 3177 08cc 1C010000 		.4byte	.LASF79
 3178 08d0 01       		.byte	0x1
 3179 08d1 4A05     		.2byte	0x54a
 3180 08d3 6B000000 		.4byte	0x6b
 3181 08d7 30040000 		.4byte	.LLST32
 3182 08db 14       		.uleb128 0x14
 3183 08dc 18000000 		.4byte	.LVL99
 3184 08e0 3D110000 		.4byte	0x113d
 3185 08e4 12       		.uleb128 0x12
 3186 08e5 01       		.uleb128 0x1
 3187 08e6 52       		.byte	0x52
ARM GAS  C:\Users\Terence\AppData\Local\Temp\cc6R4aDx.s 			page 109


 3188 08e7 01       		.uleb128 0x1
 3189 08e8 30       		.byte	0x30
 3190 08e9 12       		.uleb128 0x12
 3191 08ea 01       		.uleb128 0x1
 3192 08eb 51       		.byte	0x51
 3193 08ec 02       		.uleb128 0x2
 3194 08ed 74       		.byte	0x74
 3195 08ee 00       		.sleb128 0
 3196 08ef 00       		.byte	0
 3197 08f0 00       		.byte	0
 3198 08f1 18       		.uleb128 0x18
 3199 08f2 0B080000 		.4byte	.LASF84
 3200 08f6 01       		.byte	0x1
 3201 08f7 7905     		.2byte	0x579
 3202 08f9 6B000000 		.4byte	0x6b
 3203 08fd 00000000 		.4byte	.LFB63
 3204 0901 2C000000 		.4byte	.LFE63-.LFB63
 3205 0905 01       		.uleb128 0x1
 3206 0906 9C       		.byte	0x9c
 3207 0907 76090000 		.4byte	0x976
 3208 090b 19       		.uleb128 0x19
 3209 090c 4A040000 		.4byte	.LASF85
 3210 0910 01       		.byte	0x1
 3211 0911 7905     		.2byte	0x579
 3212 0913 6B000000 		.4byte	0x6b
 3213 0917 6B040000 		.4byte	.LLST33
 3214 091b 1A       		.uleb128 0x1a
 3215 091c DC020000 		.4byte	.LASF86
 3216 0920 01       		.byte	0x1
 3217 0921 7905     		.2byte	0x579
 3218 0923 6B000000 		.4byte	0x6b
 3219 0927 01       		.uleb128 0x1
 3220 0928 51       		.byte	0x51
 3221 0929 1A       		.uleb128 0x1a
 3222 092a 76090000 		.4byte	.LASF75
 3223 092e 01       		.byte	0x1
 3224 092f 7905     		.2byte	0x579
 3225 0931 6B000000 		.4byte	0x6b
 3226 0935 01       		.uleb128 0x1
 3227 0936 52       		.byte	0x52
 3228 0937 16       		.uleb128 0x16
 3229 0938 6900     		.ascii	"i\000"
 3230 093a 01       		.byte	0x1
 3231 093b 7C05     		.2byte	0x57c
 3232 093d 6B000000 		.4byte	0x6b
 3233 0941 8C040000 		.4byte	.LLST34
 3234 0945 17       		.uleb128 0x17
 3235 0946 14090000 		.4byte	.LASF87
 3236 094a 01       		.byte	0x1
 3237 094b 8605     		.2byte	0x586
 3238 094d 6B000000 		.4byte	0x6b
 3239 0951 B6040000 		.4byte	.LLST35
 3240 0955 17       		.uleb128 0x17
 3241 0956 06080000 		.4byte	.LASF88
 3242 095a 01       		.byte	0x1
 3243 095b 8805     		.2byte	0x588
 3244 095d 6B000000 		.4byte	0x6b
ARM GAS  C:\Users\Terence\AppData\Local\Temp\cc6R4aDx.s 			page 110


 3245 0961 D6040000 		.4byte	.LLST36
 3246 0965 17       		.uleb128 0x17
 3247 0966 45070000 		.4byte	.LASF89
 3248 096a 01       		.byte	0x1
 3249 096b 8905     		.2byte	0x589
 3250 096d E2010000 		.4byte	0x1e2
 3251 0971 00050000 		.4byte	.LLST37
 3252 0975 00       		.byte	0
 3253 0976 1B       		.uleb128 0x1b
 3254 0977 B9060000 		.4byte	.LASF90
 3255 097b 01       		.byte	0x1
 3256 097c 1806     		.2byte	0x618
 3257 097e 6B000000 		.4byte	0x6b
 3258 0982 00000000 		.4byte	.LFB64
 3259 0986 E0000000 		.4byte	.LFE64-.LFB64
 3260 098a 01       		.uleb128 0x1
 3261 098b 9C       		.byte	0x9c
 3262 098c 310A0000 		.4byte	0xa31
 3263 0990 19       		.uleb128 0x19
 3264 0991 14090000 		.4byte	.LASF87
 3265 0995 01       		.byte	0x1
 3266 0996 1806     		.2byte	0x618
 3267 0998 6B000000 		.4byte	0x6b
 3268 099c 13050000 		.4byte	.LLST38
 3269 09a0 19       		.uleb128 0x19
 3270 09a1 4A040000 		.4byte	.LASF85
 3271 09a5 01       		.byte	0x1
 3272 09a6 1806     		.2byte	0x618
 3273 09a8 6B000000 		.4byte	0x6b
 3274 09ac 34050000 		.4byte	.LLST39
 3275 09b0 19       		.uleb128 0x19
 3276 09b1 DC020000 		.4byte	.LASF86
 3277 09b5 01       		.byte	0x1
 3278 09b6 1906     		.2byte	0x619
 3279 09b8 6B000000 		.4byte	0x6b
 3280 09bc 6E050000 		.4byte	.LLST40
 3281 09c0 19       		.uleb128 0x19
 3282 09c1 A2050000 		.4byte	.LASF91
 3283 09c5 01       		.byte	0x1
 3284 09c6 1906     		.2byte	0x619
 3285 09c8 77000000 		.4byte	0x77
 3286 09cc 8F050000 		.4byte	.LLST41
 3287 09d0 19       		.uleb128 0x19
 3288 09d1 40090000 		.4byte	.LASF92
 3289 09d5 01       		.byte	0x1
 3290 09d6 1906     		.2byte	0x619
 3291 09d8 6B000000 		.4byte	0x6b
 3292 09dc B0050000 		.4byte	.LLST42
 3293 09e0 1C       		.uleb128 0x1c
 3294 09e1 D0050000 		.4byte	.LASF93
 3295 09e5 01       		.byte	0x1
 3296 09e6 2306     		.2byte	0x623
 3297 09e8 310A0000 		.4byte	0xa31
 3298 09ec 05       		.uleb128 0x5
 3299 09ed 03       		.byte	0x3
 3300 09ee 48000000 		.4byte	CapSense_centroid.5507
 3301 09f2 1C       		.uleb128 0x1c
ARM GAS  C:\Users\Terence\AppData\Local\Temp\cc6R4aDx.s 			page 111


 3302 09f3 0F0C0000 		.4byte	.LASF94
 3303 09f7 01       		.byte	0x1
 3304 09f8 2A06     		.2byte	0x62a
 3305 09fa 6B000000 		.4byte	0x6b
 3306 09fe 01       		.uleb128 0x1
 3307 09ff 50       		.byte	0x50
 3308 0a00 17       		.uleb128 0x17
 3309 0a01 8C070000 		.4byte	.LASF95
 3310 0a05 01       		.byte	0x1
 3311 0a06 2B06     		.2byte	0x62b
 3312 0a08 83000000 		.4byte	0x83
 3313 0a0c DC050000 		.4byte	.LLST43
 3314 0a10 17       		.uleb128 0x17
 3315 0a11 E6080000 		.4byte	.LASF96
 3316 0a15 01       		.byte	0x1
 3317 0a16 2C06     		.2byte	0x62c
 3318 0a18 9B000000 		.4byte	0x9b
 3319 0a1c 07060000 		.4byte	.LLST44
 3320 0a20 17       		.uleb128 0x17
 3321 0a21 45070000 		.4byte	.LASF89
 3322 0a25 01       		.byte	0x1
 3323 0a26 2E06     		.2byte	0x62e
 3324 0a28 E2010000 		.4byte	0x1e2
 3325 0a2c 35060000 		.4byte	.LLST45
 3326 0a30 00       		.byte	0
 3327 0a31 1D       		.uleb128 0x1d
 3328 0a32 6B000000 		.4byte	0x6b
 3329 0a36 410A0000 		.4byte	0xa41
 3330 0a3a 1E       		.uleb128 0x1e
 3331 0a3b BC000000 		.4byte	0xbc
 3332 0a3f 02       		.byte	0x2
 3333 0a40 00       		.byte	0
 3334 0a41 18       		.uleb128 0x18
 3335 0a42 C0070000 		.4byte	.LASF97
 3336 0a46 01       		.byte	0x1
 3337 0a47 EB06     		.2byte	0x6eb
 3338 0a49 77000000 		.4byte	0x77
 3339 0a4d 00000000 		.4byte	.LFB65
 3340 0a51 4C000000 		.4byte	.LFE65-.LFB65
 3341 0a55 01       		.uleb128 0x1
 3342 0a56 9C       		.byte	0x9c
 3343 0a57 E30A0000 		.4byte	0xae3
 3344 0a5b 19       		.uleb128 0x19
 3345 0a5c 7F030000 		.4byte	.LASF53
 3346 0a60 01       		.byte	0x1
 3347 0a61 EB06     		.2byte	0x6eb
 3348 0a63 83000000 		.4byte	0x83
 3349 0a67 DD060000 		.4byte	.LLST46
 3350 0a6b 17       		.uleb128 0x17
 3351 0a6c 14090000 		.4byte	.LASF87
 3352 0a70 01       		.byte	0x1
 3353 0a71 FE06     		.2byte	0x6fe
 3354 0a73 6B000000 		.4byte	0x6b
 3355 0a77 09070000 		.4byte	.LLST47
 3356 0a7b 17       		.uleb128 0x17
 3357 0a7c 0F0C0000 		.4byte	.LASF94
 3358 0a80 01       		.byte	0x1
ARM GAS  C:\Users\Terence\AppData\Local\Temp\cc6R4aDx.s 			page 112


 3359 0a81 FF06     		.2byte	0x6ff
 3360 0a83 77000000 		.4byte	0x77
 3361 0a87 27070000 		.4byte	.LLST48
 3362 0a8b 17       		.uleb128 0x17
 3363 0a8c 4A040000 		.4byte	.LASF85
 3364 0a90 01       		.byte	0x1
 3365 0a91 0007     		.2byte	0x700
 3366 0a93 6B000000 		.4byte	0x6b
 3367 0a97 45070000 		.4byte	.LLST49
 3368 0a9b 17       		.uleb128 0x17
 3369 0a9c DC020000 		.4byte	.LASF86
 3370 0aa0 01       		.byte	0x1
 3371 0aa1 0107     		.2byte	0x701
 3372 0aa3 6B000000 		.4byte	0x6b
 3373 0aa7 6B070000 		.4byte	.LLST50
 3374 0aab 11       		.uleb128 0x11
 3375 0aac 1C000000 		.4byte	.LVL147
 3376 0ab0 F1080000 		.4byte	0x8f1
 3377 0ab4 C50A0000 		.4byte	0xac5
 3378 0ab8 12       		.uleb128 0x12
 3379 0ab9 01       		.uleb128 0x1
 3380 0aba 51       		.byte	0x51
 3381 0abb 02       		.uleb128 0x2
 3382 0abc 76       		.byte	0x76
 3383 0abd 00       		.sleb128 0
 3384 0abe 12       		.uleb128 0x12
 3385 0abf 01       		.uleb128 0x1
 3386 0ac0 50       		.byte	0x50
 3387 0ac1 02       		.uleb128 0x2
 3388 0ac2 75       		.byte	0x75
 3389 0ac3 00       		.sleb128 0
 3390 0ac4 00       		.byte	0
 3391 0ac5 14       		.uleb128 0x14
 3392 0ac6 32000000 		.4byte	.LVL148
 3393 0aca 76090000 		.4byte	0x976
 3394 0ace 12       		.uleb128 0x12
 3395 0acf 01       		.uleb128 0x1
 3396 0ad0 53       		.byte	0x53
 3397 0ad1 03       		.uleb128 0x3
 3398 0ad2 0A       		.byte	0xa
 3399 0ad3 0019     		.2byte	0x1900
 3400 0ad5 12       		.uleb128 0x12
 3401 0ad6 01       		.uleb128 0x1
 3402 0ad7 52       		.byte	0x52
 3403 0ad8 02       		.uleb128 0x2
 3404 0ad9 76       		.byte	0x76
 3405 0ada 00       		.sleb128 0
 3406 0adb 12       		.uleb128 0x12
 3407 0adc 01       		.uleb128 0x1
 3408 0add 51       		.byte	0x51
 3409 0ade 02       		.uleb128 0x2
 3410 0adf 75       		.byte	0x75
 3411 0ae0 00       		.sleb128 0
 3412 0ae1 00       		.byte	0
 3413 0ae2 00       		.byte	0
 3414 0ae3 18       		.uleb128 0x18
 3415 0ae4 640B0000 		.4byte	.LASF98
ARM GAS  C:\Users\Terence\AppData\Local\Temp\cc6R4aDx.s 			page 113


 3416 0ae8 01       		.byte	0x1
 3417 0ae9 6309     		.2byte	0x963
 3418 0aeb 77000000 		.4byte	0x77
 3419 0aef 00000000 		.4byte	.LFB67
 3420 0af3 1C000000 		.4byte	.LFE67-.LFB67
 3421 0af7 01       		.uleb128 0x1
 3422 0af8 9C       		.byte	0x9c
 3423 0af9 350B0000 		.4byte	0xb35
 3424 0afd 1F       		.uleb128 0x1f
 3425 0afe 783100   		.ascii	"x1\000"
 3426 0b01 01       		.byte	0x1
 3427 0b02 6309     		.2byte	0x963
 3428 0b04 77000000 		.4byte	0x77
 3429 0b08 91070000 		.4byte	.LLST51
 3430 0b0c 1F       		.uleb128 0x1f
 3431 0b0d 783200   		.ascii	"x2\000"
 3432 0b10 01       		.byte	0x1
 3433 0b11 6309     		.2byte	0x963
 3434 0b13 77000000 		.4byte	0x77
 3435 0b17 BD070000 		.4byte	.LLST52
 3436 0b1b 20       		.uleb128 0x20
 3437 0b1c 783300   		.ascii	"x3\000"
 3438 0b1f 01       		.byte	0x1
 3439 0b20 6309     		.2byte	0x963
 3440 0b22 77000000 		.4byte	0x77
 3441 0b26 01       		.uleb128 0x1
 3442 0b27 52       		.byte	0x52
 3443 0b28 21       		.uleb128 0x21
 3444 0b29 746D7000 		.ascii	"tmp\000"
 3445 0b2d 01       		.byte	0x1
 3446 0b2e 6509     		.2byte	0x965
 3447 0b30 77000000 		.4byte	0x77
 3448 0b34 00       		.byte	0
 3449 0b35 18       		.uleb128 0x18
 3450 0b36 B50A0000 		.4byte	.LASF99
 3451 0b3a 01       		.byte	0x1
 3452 0b3b B607     		.2byte	0x7b6
 3453 0b3d 77000000 		.4byte	0x77
 3454 0b41 00000000 		.4byte	.LFB66
 3455 0b45 A0000000 		.4byte	.LFE66-.LFB66
 3456 0b49 01       		.uleb128 0x1
 3457 0b4a 9C       		.byte	0x9c
 3458 0b4b 2A0C0000 		.4byte	0xc2a
 3459 0b4f 19       		.uleb128 0x19
 3460 0b50 7F030000 		.4byte	.LASF53
 3461 0b54 01       		.byte	0x1
 3462 0b55 B607     		.2byte	0x7b6
 3463 0b57 83000000 		.4byte	0x83
 3464 0b5b DB070000 		.4byte	.LLST53
 3465 0b5f 17       		.uleb128 0x17
 3466 0b60 F3000000 		.4byte	.LASF100
 3467 0b64 01       		.byte	0x1
 3468 0b65 B907     		.2byte	0x7b9
 3469 0b67 6B000000 		.4byte	0x6b
 3470 0b6b 20080000 		.4byte	.LLST54
 3471 0b6f 17       		.uleb128 0x17
 3472 0b70 36070000 		.4byte	.LASF101
ARM GAS  C:\Users\Terence\AppData\Local\Temp\cc6R4aDx.s 			page 114


 3473 0b74 01       		.byte	0x1
 3474 0b75 BA07     		.2byte	0x7ba
 3475 0b77 6B000000 		.4byte	0x6b
 3476 0b7b 4B080000 		.4byte	.LLST55
 3477 0b7f 22       		.uleb128 0x22
 3478 0b80 F1020000 		.4byte	.LASF102
 3479 0b84 01       		.byte	0x1
 3480 0b85 BB07     		.2byte	0x7bb
 3481 0b87 6B000000 		.4byte	0x6b
 3482 0b8b 01       		.byte	0x1
 3483 0b8c 17       		.uleb128 0x17
 3484 0b8d CB000000 		.4byte	.LASF103
 3485 0b91 01       		.byte	0x1
 3486 0b92 C007     		.2byte	0x7c0
 3487 0b94 6B000000 		.4byte	0x6b
 3488 0b98 69080000 		.4byte	.LLST56
 3489 0b9c 17       		.uleb128 0x17
 3490 0b9d 14090000 		.4byte	.LASF87
 3491 0ba1 01       		.byte	0x1
 3492 0ba2 C507     		.2byte	0x7c5
 3493 0ba4 6B000000 		.4byte	0x6b
 3494 0ba8 7C080000 		.4byte	.LLST57
 3495 0bac 17       		.uleb128 0x17
 3496 0bad 0F0C0000 		.4byte	.LASF94
 3497 0bb1 01       		.byte	0x1
 3498 0bb2 C607     		.2byte	0x7c6
 3499 0bb4 77000000 		.4byte	0x77
 3500 0bb8 9A080000 		.4byte	.LLST58
 3501 0bbc 17       		.uleb128 0x17
 3502 0bbd 4A040000 		.4byte	.LASF85
 3503 0bc1 01       		.byte	0x1
 3504 0bc2 C707     		.2byte	0x7c7
 3505 0bc4 6B000000 		.4byte	0x6b
 3506 0bc8 D0080000 		.4byte	.LLST59
 3507 0bcc 17       		.uleb128 0x17
 3508 0bcd DC020000 		.4byte	.LASF86
 3509 0bd1 01       		.byte	0x1
 3510 0bd2 C807     		.2byte	0x7c8
 3511 0bd4 6B000000 		.4byte	0x6b
 3512 0bd8 14090000 		.4byte	.LLST60
 3513 0bdc 11       		.uleb128 0x11
 3514 0bdd 26000000 		.4byte	.LVL165
 3515 0be1 F1080000 		.4byte	0x8f1
 3516 0be5 F60B0000 		.4byte	0xbf6
 3517 0be9 12       		.uleb128 0x12
 3518 0bea 01       		.uleb128 0x1
 3519 0beb 51       		.byte	0x51
 3520 0bec 02       		.uleb128 0x2
 3521 0bed 75       		.byte	0x75
 3522 0bee 00       		.sleb128 0
 3523 0bef 12       		.uleb128 0x12
 3524 0bf0 01       		.uleb128 0x1
 3525 0bf1 50       		.byte	0x50
 3526 0bf2 02       		.uleb128 0x2
 3527 0bf3 76       		.byte	0x76
 3528 0bf4 00       		.sleb128 0
 3529 0bf5 00       		.byte	0
ARM GAS  C:\Users\Terence\AppData\Local\Temp\cc6R4aDx.s 			page 115


 3530 0bf6 11       		.uleb128 0x11
 3531 0bf7 3C000000 		.4byte	.LVL166
 3532 0bfb 76090000 		.4byte	0x976
 3533 0bff 170C0000 		.4byte	0xc17
 3534 0c03 12       		.uleb128 0x12
 3535 0c04 01       		.uleb128 0x1
 3536 0c05 53       		.byte	0x53
 3537 0c06 03       		.uleb128 0x3
 3538 0c07 0A       		.byte	0xa
 3539 0c08 0019     		.2byte	0x1900
 3540 0c0a 12       		.uleb128 0x12
 3541 0c0b 01       		.uleb128 0x1
 3542 0c0c 52       		.byte	0x52
 3543 0c0d 02       		.uleb128 0x2
 3544 0c0e 75       		.byte	0x75
 3545 0c0f 00       		.sleb128 0
 3546 0c10 12       		.uleb128 0x12
 3547 0c11 01       		.uleb128 0x1
 3548 0c12 51       		.byte	0x51
 3549 0c13 02       		.uleb128 0x2
 3550 0c14 76       		.byte	0x76
 3551 0c15 00       		.sleb128 0
 3552 0c16 00       		.byte	0
 3553 0c17 14       		.uleb128 0x14
 3554 0c18 74000000 		.4byte	.LVL175
 3555 0c1c E30A0000 		.4byte	0xae3
 3556 0c20 12       		.uleb128 0x12
 3557 0c21 01       		.uleb128 0x1
 3558 0c22 51       		.byte	0x51
 3559 0c23 04       		.uleb128 0x4
 3560 0c24 7D       		.byte	0x7d
 3561 0c25 0E       		.sleb128 14
 3562 0c26 94       		.byte	0x94
 3563 0c27 02       		.byte	0x2
 3564 0c28 00       		.byte	0
 3565 0c29 00       		.byte	0
 3566 0c2a 18       		.uleb128 0x18
 3567 0c2b 1B000000 		.4byte	.LASF104
 3568 0c2f 01       		.byte	0x1
 3569 0c30 DB09     		.2byte	0x9db
 3570 0c32 77000000 		.4byte	0x77
 3571 0c36 00000000 		.4byte	.LFB68
 3572 0c3a 0C000000 		.4byte	.LFE68-.LFB68
 3573 0c3e 01       		.uleb128 0x1
 3574 0c3f 9C       		.byte	0x9c
 3575 0c40 730C0000 		.4byte	0xc73
 3576 0c44 1F       		.uleb128 0x1f
 3577 0c45 783100   		.ascii	"x1\000"
 3578 0c48 01       		.byte	0x1
 3579 0c49 DB09     		.2byte	0x9db
 3580 0c4b 77000000 		.4byte	0x77
 3581 0c4f 6A090000 		.4byte	.LLST61
 3582 0c53 1F       		.uleb128 0x1f
 3583 0c54 783200   		.ascii	"x2\000"
 3584 0c57 01       		.byte	0x1
 3585 0c58 DB09     		.2byte	0x9db
 3586 0c5a 77000000 		.4byte	0x77
ARM GAS  C:\Users\Terence\AppData\Local\Temp\cc6R4aDx.s 			page 116


 3587 0c5e 8B090000 		.4byte	.LLST62
 3588 0c62 16       		.uleb128 0x16
 3589 0c63 746D7000 		.ascii	"tmp\000"
 3590 0c67 01       		.byte	0x1
 3591 0c68 DD09     		.2byte	0x9dd
 3592 0c6a 83000000 		.4byte	0x83
 3593 0c6e AC090000 		.4byte	.LLST63
 3594 0c72 00       		.byte	0
 3595 0c73 15       		.uleb128 0x15
 3596 0c74 72000000 		.4byte	.LASF105
 3597 0c78 01       		.byte	0x1
 3598 0c79 7601     		.2byte	0x176
 3599 0c7b 00000000 		.4byte	.LFB40
 3600 0c7f 20010000 		.4byte	.LFE40-.LFB40
 3601 0c83 01       		.uleb128 0x1
 3602 0c84 9C       		.byte	0x9c
 3603 0c85 2D0D0000 		.4byte	0xd2d
 3604 0c89 19       		.uleb128 0x19
 3605 0c8a 23050000 		.4byte	.LASF51
 3606 0c8e 01       		.byte	0x1
 3607 0c8f 7601     		.2byte	0x176
 3608 0c91 83000000 		.4byte	0x83
 3609 0c95 DC090000 		.4byte	.LLST64
 3610 0c99 17       		.uleb128 0x17
 3611 0c9a 62040000 		.4byte	.LASF106
 3612 0c9e 01       		.byte	0x1
 3613 0c9f 7801     		.2byte	0x178
 3614 0ca1 83000000 		.4byte	0x83
 3615 0ca5 080A0000 		.4byte	.LLST65
 3616 0ca9 17       		.uleb128 0x17
 3617 0caa 45040000 		.4byte	.LASF107
 3618 0cae 01       		.byte	0x1
 3619 0caf 7901     		.2byte	0x179
 3620 0cb1 83000000 		.4byte	0x83
 3621 0cb5 260A0000 		.4byte	.LLST66
 3622 0cb9 17       		.uleb128 0x17
 3623 0cba 7A0B0000 		.4byte	.LASF108
 3624 0cbe 01       		.byte	0x1
 3625 0cbf 7A01     		.2byte	0x17a
 3626 0cc1 77000000 		.4byte	0x77
 3627 0cc5 7D0A0000 		.4byte	.LLST67
 3628 0cc9 17       		.uleb128 0x17
 3629 0cca 97040000 		.4byte	.LASF109
 3630 0cce 01       		.byte	0x1
 3631 0ccf 7B01     		.2byte	0x17b
 3632 0cd1 77000000 		.4byte	0x77
 3633 0cd5 9B0A0000 		.4byte	.LLST68
 3634 0cd9 23       		.uleb128 0x23
 3635 0cda 7F030000 		.4byte	.LASF53
 3636 0cde 01       		.byte	0x1
 3637 0cdf 7C01     		.2byte	0x17c
 3638 0ce1 6B000000 		.4byte	0x6b
 3639 0ce5 1C       		.uleb128 0x1c
 3640 0ce6 40090000 		.4byte	.LASF92
 3641 0cea 01       		.byte	0x1
 3642 0ceb 7D01     		.2byte	0x17d
 3643 0ced 6B000000 		.4byte	0x6b
ARM GAS  C:\Users\Terence\AppData\Local\Temp\cc6R4aDx.s 			page 117


 3644 0cf1 02       		.uleb128 0x2
 3645 0cf2 91       		.byte	0x91
 3646 0cf3 64       		.sleb128 -28
 3647 0cf4 11       		.uleb128 0x11
 3648 0cf5 32000000 		.4byte	.LVL188
 3649 0cf9 2A0C0000 		.4byte	0xc2a
 3650 0cfd 080D0000 		.4byte	0xd08
 3651 0d01 12       		.uleb128 0x12
 3652 0d02 01       		.uleb128 0x1
 3653 0d03 50       		.byte	0x50
 3654 0d04 02       		.uleb128 0x2
 3655 0d05 77       		.byte	0x77
 3656 0d06 00       		.sleb128 0
 3657 0d07 00       		.byte	0
 3658 0d08 11       		.uleb128 0x11
 3659 0d09 42000000 		.4byte	.LVL191
 3660 0d0d 58110000 		.4byte	0x1158
 3661 0d11 1C0D0000 		.4byte	0xd1c
 3662 0d15 12       		.uleb128 0x12
 3663 0d16 01       		.uleb128 0x1
 3664 0d17 51       		.byte	0x51
 3665 0d18 02       		.uleb128 0x2
 3666 0d19 74       		.byte	0x74
 3667 0d1a 00       		.sleb128 0
 3668 0d1b 00       		.byte	0
 3669 0d1c 14       		.uleb128 0x14
 3670 0d1d 86000000 		.4byte	.LVL196
 3671 0d21 CC020000 		.4byte	0x2cc
 3672 0d25 12       		.uleb128 0x12
 3673 0d26 01       		.uleb128 0x1
 3674 0d27 50       		.byte	0x50
 3675 0d28 02       		.uleb128 0x2
 3676 0d29 74       		.byte	0x74
 3677 0d2a 00       		.sleb128 0
 3678 0d2b 00       		.byte	0
 3679 0d2c 00       		.byte	0
 3680 0d2d 15       		.uleb128 0x15
 3681 0d2e 89060000 		.4byte	.LASF110
 3682 0d32 01       		.byte	0x1
 3683 0d33 3602     		.2byte	0x236
 3684 0d35 00000000 		.4byte	.LFB41
 3685 0d39 10000000 		.4byte	.LFE41-.LFB41
 3686 0d3d 01       		.uleb128 0x1
 3687 0d3e 9C       		.byte	0x9c
 3688 0d3f 780D0000 		.4byte	0xd78
 3689 0d43 19       		.uleb128 0x19
 3690 0d44 23050000 		.4byte	.LASF51
 3691 0d48 01       		.byte	0x1
 3692 0d49 3602     		.2byte	0x236
 3693 0d4b 83000000 		.4byte	0x83
 3694 0d4f C40A0000 		.4byte	.LLST69
 3695 0d53 11       		.uleb128 0x11
 3696 0d54 08000000 		.4byte	.LVL210
 3697 0d58 7E110000 		.4byte	0x117e
 3698 0d5c 670D0000 		.4byte	0xd67
 3699 0d60 12       		.uleb128 0x12
 3700 0d61 01       		.uleb128 0x1
ARM GAS  C:\Users\Terence\AppData\Local\Temp\cc6R4aDx.s 			page 118


 3701 0d62 50       		.byte	0x50
 3702 0d63 02       		.uleb128 0x2
 3703 0d64 74       		.byte	0x74
 3704 0d65 00       		.sleb128 0
 3705 0d66 00       		.byte	0
 3706 0d67 14       		.uleb128 0x14
 3707 0d68 0E000000 		.4byte	.LVL211
 3708 0d6c 730C0000 		.4byte	0xc73
 3709 0d70 12       		.uleb128 0x12
 3710 0d71 01       		.uleb128 0x1
 3711 0d72 50       		.byte	0x50
 3712 0d73 02       		.uleb128 0x2
 3713 0d74 74       		.byte	0x74
 3714 0d75 00       		.sleb128 0
 3715 0d76 00       		.byte	0
 3716 0d77 00       		.byte	0
 3717 0d78 15       		.uleb128 0x15
 3718 0d79 D3000000 		.4byte	.LASF111
 3719 0d7d 01       		.byte	0x1
 3720 0d7e 6C02     		.2byte	0x26c
 3721 0d80 00000000 		.4byte	.LFB42
 3722 0d84 24000000 		.4byte	.LFE42-.LFB42
 3723 0d88 01       		.uleb128 0x1
 3724 0d89 9C       		.byte	0x9c
 3725 0d8a D10D0000 		.4byte	0xdd1
 3726 0d8e 16       		.uleb128 0x16
 3727 0d8f 6900     		.ascii	"i\000"
 3728 0d91 01       		.byte	0x1
 3729 0d92 6E02     		.2byte	0x26e
 3730 0d94 83000000 		.4byte	0x83
 3731 0d98 F00A0000 		.4byte	.LLST70
 3732 0d9c 17       		.uleb128 0x17
 3733 0d9d 0C010000 		.4byte	.LASF55
 3734 0da1 01       		.byte	0x1
 3735 0da2 6F02     		.2byte	0x26f
 3736 0da4 83000000 		.4byte	0x83
 3737 0da8 0F0B0000 		.4byte	.LLST71
 3738 0dac 11       		.uleb128 0x11
 3739 0dad 0E000000 		.4byte	.LVL215
 3740 0db1 23110000 		.4byte	0x1123
 3741 0db5 C00D0000 		.4byte	0xdc0
 3742 0db9 12       		.uleb128 0x12
 3743 0dba 01       		.uleb128 0x1
 3744 0dbb 51       		.byte	0x51
 3745 0dbc 02       		.uleb128 0x2
 3746 0dbd 74       		.byte	0x74
 3747 0dbe 00       		.sleb128 0
 3748 0dbf 00       		.byte	0
 3749 0dc0 14       		.uleb128 0x14
 3750 0dc1 18000000 		.4byte	.LVL217
 3751 0dc5 2D0D0000 		.4byte	0xd2d
 3752 0dc9 12       		.uleb128 0x12
 3753 0dca 01       		.uleb128 0x1
 3754 0dcb 50       		.byte	0x50
 3755 0dcc 02       		.uleb128 0x2
 3756 0dcd 74       		.byte	0x74
 3757 0dce 00       		.sleb128 0
ARM GAS  C:\Users\Terence\AppData\Local\Temp\cc6R4aDx.s 			page 119


 3758 0dcf 00       		.byte	0
 3759 0dd0 00       		.byte	0
 3760 0dd1 15       		.uleb128 0x15
 3761 0dd2 9E020000 		.4byte	.LASF112
 3762 0dd6 01       		.byte	0x1
 3763 0dd7 9902     		.2byte	0x299
 3764 0dd9 00000000 		.4byte	.LFB43
 3765 0ddd 30000000 		.4byte	.LFE43-.LFB43
 3766 0de1 01       		.uleb128 0x1
 3767 0de2 9C       		.byte	0x9c
 3768 0de3 6A0E0000 		.4byte	0xe6a
 3769 0de7 19       		.uleb128 0x19
 3770 0de8 7F030000 		.4byte	.LASF53
 3771 0dec 01       		.byte	0x1
 3772 0ded 9902     		.2byte	0x299
 3773 0def 83000000 		.4byte	0x83
 3774 0df3 220B0000 		.4byte	.LLST72
 3775 0df7 17       		.uleb128 0x17
 3776 0df8 A7040000 		.4byte	.LASF113
 3777 0dfc 01       		.byte	0x1
 3778 0dfd 9B02     		.2byte	0x29b
 3779 0dff 83000000 		.4byte	0x83
 3780 0e03 430B0000 		.4byte	.LLST73
 3781 0e07 17       		.uleb128 0x17
 3782 0e08 FA070000 		.4byte	.LASF114
 3783 0e0c 01       		.byte	0x1
 3784 0e0d 9C02     		.2byte	0x29c
 3785 0e0f 83000000 		.4byte	0x83
 3786 0e13 810B0000 		.4byte	.LLST74
 3787 0e17 17       		.uleb128 0x17
 3788 0e18 96070000 		.4byte	.LASF115
 3789 0e1c 01       		.byte	0x1
 3790 0e1d 9D02     		.2byte	0x29d
 3791 0e1f 83000000 		.4byte	0x83
 3792 0e23 AD0B0000 		.4byte	.LLST75
 3793 0e27 16       		.uleb128 0x16
 3794 0e28 6900     		.ascii	"i\000"
 3795 0e2a 01       		.byte	0x1
 3796 0e2b 9E02     		.2byte	0x29e
 3797 0e2d 83000000 		.4byte	0x83
 3798 0e31 E80B0000 		.4byte	.LLST76
 3799 0e35 17       		.uleb128 0x17
 3800 0e36 0C010000 		.4byte	.LASF55
 3801 0e3a 01       		.byte	0x1
 3802 0e3b 9F02     		.2byte	0x29f
 3803 0e3d 83000000 		.4byte	0x83
 3804 0e41 FB0B0000 		.4byte	.LLST77
 3805 0e45 11       		.uleb128 0x11
 3806 0e46 16000000 		.4byte	.LVL225
 3807 0e4a 23110000 		.4byte	0x1123
 3808 0e4e 590E0000 		.4byte	0xe59
 3809 0e52 12       		.uleb128 0x12
 3810 0e53 01       		.uleb128 0x1
 3811 0e54 51       		.byte	0x51
 3812 0e55 02       		.uleb128 0x2
 3813 0e56 74       		.byte	0x74
 3814 0e57 00       		.sleb128 0
ARM GAS  C:\Users\Terence\AppData\Local\Temp\cc6R4aDx.s 			page 120


 3815 0e58 00       		.byte	0
 3816 0e59 14       		.uleb128 0x14
 3817 0e5a 20000000 		.4byte	.LVL227
 3818 0e5e 2D0D0000 		.4byte	0xd2d
 3819 0e62 12       		.uleb128 0x12
 3820 0e63 01       		.uleb128 0x1
 3821 0e64 50       		.byte	0x50
 3822 0e65 02       		.uleb128 0x2
 3823 0e66 74       		.byte	0x74
 3824 0e67 00       		.sleb128 0
 3825 0e68 00       		.byte	0
 3826 0e69 00       		.byte	0
 3827 0e6a 18       		.uleb128 0x18
 3828 0e6b 35060000 		.4byte	.LASF116
 3829 0e6f 01       		.byte	0x1
 3830 0e70 C40A     		.2byte	0xac4
 3831 0e72 83000000 		.4byte	0x83
 3832 0e76 00000000 		.4byte	.LFB69
 3833 0e7a 0C000000 		.4byte	.LFE69-.LFB69
 3834 0e7e 01       		.uleb128 0x1
 3835 0e7f 9C       		.byte	0x9c
 3836 0e80 950E0000 		.4byte	0xe95
 3837 0e84 19       		.uleb128 0x19
 3838 0e85 23050000 		.4byte	.LASF51
 3839 0e89 01       		.byte	0x1
 3840 0e8a C40A     		.2byte	0xac4
 3841 0e8c 83000000 		.4byte	0x83
 3842 0e90 0E0C0000 		.4byte	.LLST78
 3843 0e94 00       		.byte	0
 3844 0e95 18       		.uleb128 0x18
 3845 0e96 EF060000 		.4byte	.LASF117
 3846 0e9a 01       		.byte	0x1
 3847 0e9b DE0A     		.2byte	0xade
 3848 0e9d 6B000000 		.4byte	0x6b
 3849 0ea1 00000000 		.4byte	.LFB70
 3850 0ea5 0C000000 		.4byte	.LFE70-.LFB70
 3851 0ea9 01       		.uleb128 0x1
 3852 0eaa 9C       		.byte	0x9c
 3853 0eab C00E0000 		.4byte	0xec0
 3854 0eaf 19       		.uleb128 0x19
 3855 0eb0 23050000 		.4byte	.LASF51
 3856 0eb4 01       		.byte	0x1
 3857 0eb5 DE0A     		.2byte	0xade
 3858 0eb7 83000000 		.4byte	0x83
 3859 0ebb 2F0C0000 		.4byte	.LLST79
 3860 0ebf 00       		.byte	0
 3861 0ec0 18       		.uleb128 0x18
 3862 0ec1 820B0000 		.4byte	.LASF118
 3863 0ec5 01       		.byte	0x1
 3864 0ec6 F80A     		.2byte	0xaf8
 3865 0ec8 6B000000 		.4byte	0x6b
 3866 0ecc 00000000 		.4byte	.LFB71
 3867 0ed0 0C000000 		.4byte	.LFE71-.LFB71
 3868 0ed4 01       		.uleb128 0x1
 3869 0ed5 9C       		.byte	0x9c
 3870 0ed6 EB0E0000 		.4byte	0xeeb
 3871 0eda 19       		.uleb128 0x19
ARM GAS  C:\Users\Terence\AppData\Local\Temp\cc6R4aDx.s 			page 121


 3872 0edb 7F030000 		.4byte	.LASF53
 3873 0edf 01       		.byte	0x1
 3874 0ee0 F80A     		.2byte	0xaf8
 3875 0ee2 83000000 		.4byte	0x83
 3876 0ee6 500C0000 		.4byte	.LLST80
 3877 0eea 00       		.byte	0
 3878 0eeb 24       		.uleb128 0x24
 3879 0eec AE080000 		.4byte	.LASF119
 3880 0ef0 01       		.byte	0x1
 3881 0ef1 120B     		.2byte	0xb12
 3882 0ef3 00000000 		.4byte	.LFB72
 3883 0ef7 10000000 		.4byte	.LFE72-.LFB72
 3884 0efb 01       		.uleb128 0x1
 3885 0efc 9C       		.byte	0x9c
 3886 0efd 24       		.uleb128 0x24
 3887 0efe E9030000 		.4byte	.LASF120
 3888 0f02 01       		.byte	0x1
 3889 0f03 2B0B     		.2byte	0xb2b
 3890 0f05 00000000 		.4byte	.LFB73
 3891 0f09 10000000 		.4byte	.LFE73-.LFB73
 3892 0f0d 01       		.uleb128 0x1
 3893 0f0e 9C       		.byte	0x9c
 3894 0f0f 1D       		.uleb128 0x1d
 3895 0f10 6B000000 		.4byte	0x6b
 3896 0f14 1F0F0000 		.4byte	0xf1f
 3897 0f18 1E       		.uleb128 0x1e
 3898 0f19 BC000000 		.4byte	0xbc
 3899 0f1d 05       		.byte	0x5
 3900 0f1e 00       		.byte	0
 3901 0f1f 25       		.uleb128 0x25
 3902 0f20 2F000000 		.4byte	.LASF121
 3903 0f24 01       		.byte	0x1
 3904 0f25 57       		.byte	0x57
 3905 0f26 0F0F0000 		.4byte	0xf0f
 3906 0f2a 05       		.uleb128 0x5
 3907 0f2b 03       		.byte	0x3
 3908 0f2c 3C000000 		.4byte	CapSense_debounceCounter
 3909 0f30 1D       		.uleb128 0x1d
 3910 0f31 77000000 		.4byte	0x77
 3911 0f35 400F0000 		.4byte	0xf40
 3912 0f39 1E       		.uleb128 0x1e
 3913 0f3a BC000000 		.4byte	0xbc
 3914 0f3e 00       		.byte	0
 3915 0f3f 00       		.byte	0
 3916 0f40 26       		.uleb128 0x26
 3917 0f41 410A0000 		.4byte	.LASF122
 3918 0f45 01       		.byte	0x1
 3919 0f46 6D       		.byte	0x6d
 3920 0f47 4E0F0000 		.4byte	0xf4e
 3921 0f4b 02       		.byte	0x2
 3922 0f4c 00       		.byte	0
 3923 0f4d 19       		.byte	0x19
 3924 0f4e 09       		.uleb128 0x9
 3925 0f4f 300F0000 		.4byte	0xf30
 3926 0f53 1D       		.uleb128 0x1d
 3927 0f54 6B000000 		.4byte	0x6b
 3928 0f58 630F0000 		.4byte	0xf63
ARM GAS  C:\Users\Terence\AppData\Local\Temp\cc6R4aDx.s 			page 122


 3929 0f5c 1E       		.uleb128 0x1e
 3930 0f5d BC000000 		.4byte	0xbc
 3931 0f61 00       		.byte	0
 3932 0f62 00       		.byte	0
 3933 0f63 26       		.uleb128 0x26
 3934 0f64 86030000 		.4byte	.LASF123
 3935 0f68 01       		.byte	0x1
 3936 0f69 71       		.byte	0x71
 3937 0f6a 700F0000 		.4byte	0xf70
 3938 0f6e 01       		.byte	0x1
 3939 0f6f 01       		.byte	0x1
 3940 0f70 09       		.uleb128 0x9
 3941 0f71 530F0000 		.4byte	0xf53
 3942 0f75 1D       		.uleb128 0x1d
 3943 0f76 6B000000 		.4byte	0x6b
 3944 0f7a 850F0000 		.4byte	0xf85
 3945 0f7e 1E       		.uleb128 0x1e
 3946 0f7f BC000000 		.4byte	0xbc
 3947 0f83 03       		.byte	0x3
 3948 0f84 00       		.byte	0
 3949 0f85 25       		.uleb128 0x25
 3950 0f86 7D010000 		.4byte	.LASF124
 3951 0f8a 01       		.byte	0x1
 3952 0f8b 75       		.byte	0x75
 3953 0f8c 750F0000 		.4byte	0xf75
 3954 0f90 05       		.uleb128 0x5
 3955 0f91 03       		.byte	0x3
 3956 0f92 20000000 		.4byte	CapSense_posFiltersData
 3957 0f96 1D       		.uleb128 0x1d
 3958 0f97 77000000 		.4byte	0x77
 3959 0f9b A60F0000 		.4byte	0xfa6
 3960 0f9f 1E       		.uleb128 0x1e
 3961 0fa0 BC000000 		.4byte	0xbc
 3962 0fa4 0C       		.byte	0xc
 3963 0fa5 00       		.byte	0
 3964 0fa6 27       		.uleb128 0x27
 3965 0fa7 DC060000 		.4byte	.LASF125
 3966 0fab 01       		.byte	0x1
 3967 0fac 2C       		.byte	0x2c
 3968 0fad 960F0000 		.4byte	0xf96
 3969 0fb1 1D       		.uleb128 0x1d
 3970 0fb2 6B000000 		.4byte	0x6b
 3971 0fb6 C10F0000 		.4byte	0xfc1
 3972 0fba 1E       		.uleb128 0x1e
 3973 0fbb BC000000 		.4byte	0xbc
 3974 0fbf 01       		.byte	0x1
 3975 0fc0 00       		.byte	0
 3976 0fc1 27       		.uleb128 0x27
 3977 0fc2 47030000 		.4byte	.LASF126
 3978 0fc6 01       		.byte	0x1
 3979 0fc7 2D       		.byte	0x2d
 3980 0fc8 B10F0000 		.4byte	0xfb1
 3981 0fcc 1D       		.uleb128 0x1d
 3982 0fcd 6B000000 		.4byte	0x6b
 3983 0fd1 DC0F0000 		.4byte	0xfdc
 3984 0fd5 1E       		.uleb128 0x1e
 3985 0fd6 BC000000 		.4byte	0xbc
ARM GAS  C:\Users\Terence\AppData\Local\Temp\cc6R4aDx.s 			page 123


 3986 0fda 0C       		.byte	0xc
 3987 0fdb 00       		.byte	0
 3988 0fdc 27       		.uleb128 0x27
 3989 0fdd B7030000 		.4byte	.LASF127
 3990 0fe1 01       		.byte	0x1
 3991 0fe2 2E       		.byte	0x2e
 3992 0fe3 E70F0000 		.4byte	0xfe7
 3993 0fe7 09       		.uleb128 0x9
 3994 0fe8 CC0F0000 		.4byte	0xfcc
 3995 0fec 28       		.uleb128 0x28
 3996 0fed FC080000 		.4byte	.LASF128
 3997 0ff1 01       		.byte	0x1
 3998 0ff2 34       		.byte	0x34
 3999 0ff3 960F0000 		.4byte	0xf96
 4000 0ff7 05       		.uleb128 0x5
 4001 0ff8 03       		.byte	0x3
 4002 0ff9 00000000 		.4byte	CapSense_sensorBaseline
 4003 0ffd 28       		.uleb128 0x28
 4004 0ffe 00000000 		.4byte	.LASF129
 4005 1002 01       		.byte	0x1
 4006 1003 35       		.byte	0x35
 4007 1004 CC0F0000 		.4byte	0xfcc
 4008 1008 05       		.uleb128 0x5
 4009 1009 03       		.byte	0x3
 4010 100a 00000000 		.4byte	CapSense_sensorBaselineLow
 4011 100e 28       		.uleb128 0x28
 4012 100f 57020000 		.4byte	.LASF130
 4013 1013 01       		.byte	0x1
 4014 1014 36       		.byte	0x36
 4015 1015 CC0F0000 		.4byte	0xfcc
 4016 1019 05       		.uleb128 0x5
 4017 101a 03       		.byte	0x3
 4018 101b 00000000 		.4byte	CapSense_sensorSignal
 4019 101f 28       		.uleb128 0x28
 4020 1020 180C0000 		.4byte	.LASF131
 4021 1024 01       		.byte	0x1
 4022 1025 37       		.byte	0x37
 4023 1026 B10F0000 		.4byte	0xfb1
 4024 102a 05       		.uleb128 0x5
 4025 102b 03       		.byte	0x3
 4026 102c 00000000 		.4byte	CapSense_sensorOnMask
 4027 1030 28       		.uleb128 0x28
 4028 1031 55000000 		.4byte	.LASF132
 4029 1035 01       		.byte	0x1
 4030 1036 39       		.byte	0x39
 4031 1037 CC0F0000 		.4byte	0xfcc
 4032 103b 05       		.uleb128 0x5
 4033 103c 03       		.byte	0x3
 4034 103d 00000000 		.4byte	CapSense_lowBaselineResetCnt
 4035 1041 28       		.uleb128 0x28
 4036 1042 CC080000 		.4byte	.LASF133
 4037 1046 01       		.byte	0x1
 4038 1047 3A       		.byte	0x3a
 4039 1048 CC0F0000 		.4byte	0xfcc
 4040 104c 05       		.uleb128 0x5
 4041 104d 03       		.byte	0x3
 4042 104e 00000000 		.4byte	CapSense_lowBaselineReset
ARM GAS  C:\Users\Terence\AppData\Local\Temp\cc6R4aDx.s 			page 124


 4043 1052 28       		.uleb128 0x28
 4044 1053 9E030000 		.4byte	.LASF134
 4045 1057 01       		.byte	0x1
 4046 1058 49       		.byte	0x49
 4047 1059 0F0F0000 		.4byte	0xf0f
 4048 105d 05       		.uleb128 0x5
 4049 105e 03       		.byte	0x3
 4050 105f 00000000 		.4byte	CapSense_fingerThreshold
 4051 1063 28       		.uleb128 0x28
 4052 1064 A1090000 		.4byte	.LASF135
 4053 1068 01       		.byte	0x1
 4054 1069 4D       		.byte	0x4d
 4055 106a 0F0F0000 		.4byte	0xf0f
 4056 106e 05       		.uleb128 0x5
 4057 106f 03       		.byte	0x3
 4058 1070 00000000 		.4byte	CapSense_noiseThreshold
 4059 1074 28       		.uleb128 0x28
 4060 1075 F1040000 		.4byte	.LASF136
 4061 1079 01       		.byte	0x1
 4062 107a 4F       		.byte	0x4f
 4063 107b 0F0F0000 		.4byte	0xf0f
 4064 107f 05       		.uleb128 0x5
 4065 1080 03       		.byte	0x3
 4066 1081 00000000 		.4byte	CapSense_negativeNoiseThreshold
 4067 1085 28       		.uleb128 0x28
 4068 1086 BC020000 		.4byte	.LASF137
 4069 108a 01       		.byte	0x1
 4070 108b 51       		.byte	0x51
 4071 108c 0F0F0000 		.4byte	0xf0f
 4072 1090 05       		.uleb128 0x5
 4073 1091 03       		.byte	0x3
 4074 1092 00000000 		.4byte	CapSense_hysteresis
 4075 1096 28       		.uleb128 0x28
 4076 1097 A5010000 		.4byte	.LASF138
 4077 109b 01       		.byte	0x1
 4078 109c 53       		.byte	0x53
 4079 109d 0F0F0000 		.4byte	0xf0f
 4080 10a1 05       		.uleb128 0x5
 4081 10a2 03       		.byte	0x3
 4082 10a3 00000000 		.4byte	CapSense_debounce
 4083 10a7 28       		.uleb128 0x28
 4084 10a8 6D020000 		.4byte	.LASF139
 4085 10ac 01       		.byte	0x1
 4086 10ad 5B       		.byte	0x5b
 4087 10ae B8100000 		.4byte	0x10b8
 4088 10b2 05       		.uleb128 0x5
 4089 10b3 03       		.byte	0x3
 4090 10b4 00000000 		.4byte	CapSense_rawDataIndex
 4091 10b8 09       		.uleb128 0x9
 4092 10b9 0F0F0000 		.4byte	0xf0f
 4093 10bd 28       		.uleb128 0x28
 4094 10be D8040000 		.4byte	.LASF140
 4095 10c2 01       		.byte	0x1
 4096 10c3 64       		.byte	0x64
 4097 10c4 CE100000 		.4byte	0x10ce
 4098 10c8 05       		.uleb128 0x5
 4099 10c9 03       		.byte	0x3
ARM GAS  C:\Users\Terence\AppData\Local\Temp\cc6R4aDx.s 			page 125


 4100 10ca 00000000 		.4byte	CapSense_numberOfSensors
 4101 10ce 09       		.uleb128 0x9
 4102 10cf 0F0F0000 		.4byte	0xf0f
 4103 10d3 28       		.uleb128 0x28
 4104 10d4 E80B0000 		.4byte	.LASF141
 4105 10d8 01       		.byte	0x1
 4106 10d9 27       		.byte	0x27
 4107 10da 960F0000 		.4byte	0xf96
 4108 10de 05       		.uleb128 0x5
 4109 10df 03       		.byte	0x3
 4110 10e0 00000000 		.4byte	CapSense_rawFilterData1
 4111 10e4 27       		.uleb128 0x27
 4112 10e5 FC000000 		.4byte	.LASF142
 4113 10e9 01       		.byte	0x1
 4114 10ea 41       		.byte	0x41
 4115 10eb C1020000 		.4byte	0x2c1
 4116 10ef 28       		.uleb128 0x28
 4117 10f0 720A0000 		.4byte	.LASF143
 4118 10f4 01       		.byte	0x1
 4119 10f5 45       		.byte	0x45
 4120 10f6 6B000000 		.4byte	0x6b
 4121 10fa 05       		.uleb128 0x5
 4122 10fb 03       		.byte	0x3
 4123 10fc 00000000 		.4byte	CapSense_enableRawFilters
 4124 1100 29       		.uleb128 0x29
 4125 1101 83040000 		.4byte	.LASF144
 4126 1105 04       		.byte	0x4
 4127 1106 A8       		.byte	0xa8
 4128 1107 11110000 		.4byte	0x1111
 4129 110b 0B       		.uleb128 0xb
 4130 110c 83000000 		.4byte	0x83
 4131 1110 00       		.byte	0
 4132 1111 2A       		.uleb128 0x2a
 4133 1112 F7010000 		.4byte	.LASF150
 4134 1116 04       		.byte	0x4
 4135 1117 A7       		.byte	0xa7
 4136 1118 83000000 		.4byte	0x83
 4137 111c 2B       		.uleb128 0x2b
 4138 111d E2050000 		.4byte	.LASF151
 4139 1121 04       		.byte	0x4
 4140 1122 AA       		.byte	0xaa
 4141 1123 2C       		.uleb128 0x2c
 4142 1124 570A0000 		.4byte	.LASF152
 4143 1128 03       		.byte	0x3
 4144 1129 6A       		.byte	0x6a
 4145 112a 83000000 		.4byte	0x83
 4146 112e 3D110000 		.4byte	0x113d
 4147 1132 0B       		.uleb128 0xb
 4148 1133 E8010000 		.4byte	0x1e8
 4149 1137 0B       		.uleb128 0xb
 4150 1138 83000000 		.4byte	0x83
 4151 113c 00       		.byte	0
 4152 113d 29       		.uleb128 0x29
 4153 113e 2C0A0000 		.4byte	.LASF145
 4154 1142 03       		.byte	0x3
 4155 1143 6B       		.byte	0x6b
 4156 1144 58110000 		.4byte	0x1158
ARM GAS  C:\Users\Terence\AppData\Local\Temp\cc6R4aDx.s 			page 126


 4157 1148 0B       		.uleb128 0xb
 4158 1149 E2010000 		.4byte	0x1e2
 4159 114d 0B       		.uleb128 0xb
 4160 114e 83000000 		.4byte	0x83
 4161 1152 0B       		.uleb128 0xb
 4162 1153 83000000 		.4byte	0x83
 4163 1157 00       		.byte	0
 4164 1158 29       		.uleb128 0x29
 4165 1159 61030000 		.4byte	.LASF146
 4166 115d 03       		.byte	0x3
 4167 115e 81       		.byte	0x81
 4168 115f 73110000 		.4byte	0x1173
 4169 1163 0B       		.uleb128 0xb
 4170 1164 C3000000 		.4byte	0xc3
 4171 1168 0B       		.uleb128 0xb
 4172 1169 EE010000 		.4byte	0x1ee
 4173 116d 0B       		.uleb128 0xb
 4174 116e 73110000 		.4byte	0x1173
 4175 1172 00       		.byte	0
 4176 1173 08       		.uleb128 0x8
 4177 1174 04       		.byte	0x4
 4178 1175 79110000 		.4byte	0x1179
 4179 1179 09       		.uleb128 0x9
 4180 117a 77000000 		.4byte	0x77
 4181 117e 2D       		.uleb128 0x2d
 4182 117f B6050000 		.4byte	.LASF153
 4183 1183 01       		.byte	0x1
 4184 1184 17       		.byte	0x17
 4185 1185 0B       		.uleb128 0xb
 4186 1186 83000000 		.4byte	0x83
 4187 118a 00       		.byte	0
 4188 118b 00       		.byte	0
 4189              		.section	.debug_abbrev,"",%progbits
 4190              	.Ldebug_abbrev0:
 4191 0000 01       		.uleb128 0x1
 4192 0001 11       		.uleb128 0x11
 4193 0002 01       		.byte	0x1
 4194 0003 25       		.uleb128 0x25
 4195 0004 0E       		.uleb128 0xe
 4196 0005 13       		.uleb128 0x13
 4197 0006 0B       		.uleb128 0xb
 4198 0007 03       		.uleb128 0x3
 4199 0008 0E       		.uleb128 0xe
 4200 0009 1B       		.uleb128 0x1b
 4201 000a 0E       		.uleb128 0xe
 4202 000b 55       		.uleb128 0x55
 4203 000c 17       		.uleb128 0x17
 4204 000d 11       		.uleb128 0x11
 4205 000e 01       		.uleb128 0x1
 4206 000f 10       		.uleb128 0x10
 4207 0010 17       		.uleb128 0x17
 4208 0011 00       		.byte	0
 4209 0012 00       		.byte	0
 4210 0013 02       		.uleb128 0x2
 4211 0014 24       		.uleb128 0x24
 4212 0015 00       		.byte	0
 4213 0016 0B       		.uleb128 0xb
ARM GAS  C:\Users\Terence\AppData\Local\Temp\cc6R4aDx.s 			page 127


 4214 0017 0B       		.uleb128 0xb
 4215 0018 3E       		.uleb128 0x3e
 4216 0019 0B       		.uleb128 0xb
 4217 001a 03       		.uleb128 0x3
 4218 001b 0E       		.uleb128 0xe
 4219 001c 00       		.byte	0
 4220 001d 00       		.byte	0
 4221 001e 03       		.uleb128 0x3
 4222 001f 24       		.uleb128 0x24
 4223 0020 00       		.byte	0
 4224 0021 0B       		.uleb128 0xb
 4225 0022 0B       		.uleb128 0xb
 4226 0023 3E       		.uleb128 0x3e
 4227 0024 0B       		.uleb128 0xb
 4228 0025 03       		.uleb128 0x3
 4229 0026 08       		.uleb128 0x8
 4230 0027 00       		.byte	0
 4231 0028 00       		.byte	0
 4232 0029 04       		.uleb128 0x4
 4233 002a 16       		.uleb128 0x16
 4234 002b 00       		.byte	0
 4235 002c 03       		.uleb128 0x3
 4236 002d 0E       		.uleb128 0xe
 4237 002e 3A       		.uleb128 0x3a
 4238 002f 0B       		.uleb128 0xb
 4239 0030 3B       		.uleb128 0x3b
 4240 0031 05       		.uleb128 0x5
 4241 0032 49       		.uleb128 0x49
 4242 0033 13       		.uleb128 0x13
 4243 0034 00       		.byte	0
 4244 0035 00       		.byte	0
 4245 0036 05       		.uleb128 0x5
 4246 0037 0F       		.uleb128 0xf
 4247 0038 00       		.byte	0
 4248 0039 0B       		.uleb128 0xb
 4249 003a 0B       		.uleb128 0xb
 4250 003b 00       		.byte	0
 4251 003c 00       		.byte	0
 4252 003d 06       		.uleb128 0x6
 4253 003e 13       		.uleb128 0x13
 4254 003f 01       		.byte	0x1
 4255 0040 0B       		.uleb128 0xb
 4256 0041 0B       		.uleb128 0xb
 4257 0042 3A       		.uleb128 0x3a
 4258 0043 0B       		.uleb128 0xb
 4259 0044 3B       		.uleb128 0x3b
 4260 0045 0B       		.uleb128 0xb
 4261 0046 01       		.uleb128 0x1
 4262 0047 13       		.uleb128 0x13
 4263 0048 00       		.byte	0
 4264 0049 00       		.byte	0
 4265 004a 07       		.uleb128 0x7
 4266 004b 0D       		.uleb128 0xd
 4267 004c 00       		.byte	0
 4268 004d 03       		.uleb128 0x3
 4269 004e 0E       		.uleb128 0xe
 4270 004f 3A       		.uleb128 0x3a
ARM GAS  C:\Users\Terence\AppData\Local\Temp\cc6R4aDx.s 			page 128


 4271 0050 0B       		.uleb128 0xb
 4272 0051 3B       		.uleb128 0x3b
 4273 0052 0B       		.uleb128 0xb
 4274 0053 49       		.uleb128 0x49
 4275 0054 13       		.uleb128 0x13
 4276 0055 38       		.uleb128 0x38
 4277 0056 0B       		.uleb128 0xb
 4278 0057 00       		.byte	0
 4279 0058 00       		.byte	0
 4280 0059 08       		.uleb128 0x8
 4281 005a 0F       		.uleb128 0xf
 4282 005b 00       		.byte	0
 4283 005c 0B       		.uleb128 0xb
 4284 005d 0B       		.uleb128 0xb
 4285 005e 49       		.uleb128 0x49
 4286 005f 13       		.uleb128 0x13
 4287 0060 00       		.byte	0
 4288 0061 00       		.byte	0
 4289 0062 09       		.uleb128 0x9
 4290 0063 26       		.uleb128 0x26
 4291 0064 00       		.byte	0
 4292 0065 49       		.uleb128 0x49
 4293 0066 13       		.uleb128 0x13
 4294 0067 00       		.byte	0
 4295 0068 00       		.byte	0
 4296 0069 0A       		.uleb128 0xa
 4297 006a 15       		.uleb128 0x15
 4298 006b 01       		.byte	0x1
 4299 006c 27       		.uleb128 0x27
 4300 006d 19       		.uleb128 0x19
 4301 006e 49       		.uleb128 0x49
 4302 006f 13       		.uleb128 0x13
 4303 0070 01       		.uleb128 0x1
 4304 0071 13       		.uleb128 0x13
 4305 0072 00       		.byte	0
 4306 0073 00       		.byte	0
 4307 0074 0B       		.uleb128 0xb
 4308 0075 05       		.uleb128 0x5
 4309 0076 00       		.byte	0
 4310 0077 49       		.uleb128 0x49
 4311 0078 13       		.uleb128 0x13
 4312 0079 00       		.byte	0
 4313 007a 00       		.byte	0
 4314 007b 0C       		.uleb128 0xc
 4315 007c 15       		.uleb128 0x15
 4316 007d 01       		.byte	0x1
 4317 007e 27       		.uleb128 0x27
 4318 007f 19       		.uleb128 0x19
 4319 0080 01       		.uleb128 0x1
 4320 0081 13       		.uleb128 0x13
 4321 0082 00       		.byte	0
 4322 0083 00       		.byte	0
 4323 0084 0D       		.uleb128 0xd
 4324 0085 16       		.uleb128 0x16
 4325 0086 00       		.byte	0
 4326 0087 03       		.uleb128 0x3
 4327 0088 0E       		.uleb128 0xe
ARM GAS  C:\Users\Terence\AppData\Local\Temp\cc6R4aDx.s 			page 129


 4328 0089 3A       		.uleb128 0x3a
 4329 008a 0B       		.uleb128 0xb
 4330 008b 3B       		.uleb128 0x3b
 4331 008c 0B       		.uleb128 0xb
 4332 008d 49       		.uleb128 0x49
 4333 008e 13       		.uleb128 0x13
 4334 008f 00       		.byte	0
 4335 0090 00       		.byte	0
 4336 0091 0E       		.uleb128 0xe
 4337 0092 2E       		.uleb128 0x2e
 4338 0093 01       		.byte	0x1
 4339 0094 3F       		.uleb128 0x3f
 4340 0095 19       		.uleb128 0x19
 4341 0096 03       		.uleb128 0x3
 4342 0097 0E       		.uleb128 0xe
 4343 0098 3A       		.uleb128 0x3a
 4344 0099 0B       		.uleb128 0xb
 4345 009a 3B       		.uleb128 0x3b
 4346 009b 0B       		.uleb128 0xb
 4347 009c 27       		.uleb128 0x27
 4348 009d 19       		.uleb128 0x19
 4349 009e 11       		.uleb128 0x11
 4350 009f 01       		.uleb128 0x1
 4351 00a0 12       		.uleb128 0x12
 4352 00a1 06       		.uleb128 0x6
 4353 00a2 40       		.uleb128 0x40
 4354 00a3 18       		.uleb128 0x18
 4355 00a4 9742     		.uleb128 0x2117
 4356 00a6 19       		.uleb128 0x19
 4357 00a7 01       		.uleb128 0x1
 4358 00a8 13       		.uleb128 0x13
 4359 00a9 00       		.byte	0
 4360 00aa 00       		.byte	0
 4361 00ab 0F       		.uleb128 0xf
 4362 00ac 05       		.uleb128 0x5
 4363 00ad 00       		.byte	0
 4364 00ae 03       		.uleb128 0x3
 4365 00af 0E       		.uleb128 0xe
 4366 00b0 3A       		.uleb128 0x3a
 4367 00b1 0B       		.uleb128 0xb
 4368 00b2 3B       		.uleb128 0x3b
 4369 00b3 0B       		.uleb128 0xb
 4370 00b4 49       		.uleb128 0x49
 4371 00b5 13       		.uleb128 0x13
 4372 00b6 02       		.uleb128 0x2
 4373 00b7 17       		.uleb128 0x17
 4374 00b8 00       		.byte	0
 4375 00b9 00       		.byte	0
 4376 00ba 10       		.uleb128 0x10
 4377 00bb 34       		.uleb128 0x34
 4378 00bc 00       		.byte	0
 4379 00bd 03       		.uleb128 0x3
 4380 00be 0E       		.uleb128 0xe
 4381 00bf 3A       		.uleb128 0x3a
 4382 00c0 0B       		.uleb128 0xb
 4383 00c1 3B       		.uleb128 0x3b
 4384 00c2 0B       		.uleb128 0xb
ARM GAS  C:\Users\Terence\AppData\Local\Temp\cc6R4aDx.s 			page 130


 4385 00c3 49       		.uleb128 0x49
 4386 00c4 13       		.uleb128 0x13
 4387 00c5 02       		.uleb128 0x2
 4388 00c6 17       		.uleb128 0x17
 4389 00c7 00       		.byte	0
 4390 00c8 00       		.byte	0
 4391 00c9 11       		.uleb128 0x11
 4392 00ca 898201   		.uleb128 0x4109
 4393 00cd 01       		.byte	0x1
 4394 00ce 11       		.uleb128 0x11
 4395 00cf 01       		.uleb128 0x1
 4396 00d0 31       		.uleb128 0x31
 4397 00d1 13       		.uleb128 0x13
 4398 00d2 01       		.uleb128 0x1
 4399 00d3 13       		.uleb128 0x13
 4400 00d4 00       		.byte	0
 4401 00d5 00       		.byte	0
 4402 00d6 12       		.uleb128 0x12
 4403 00d7 8A8201   		.uleb128 0x410a
 4404 00da 00       		.byte	0
 4405 00db 02       		.uleb128 0x2
 4406 00dc 18       		.uleb128 0x18
 4407 00dd 9142     		.uleb128 0x2111
 4408 00df 18       		.uleb128 0x18
 4409 00e0 00       		.byte	0
 4410 00e1 00       		.byte	0
 4411 00e2 13       		.uleb128 0x13
 4412 00e3 898201   		.uleb128 0x4109
 4413 00e6 00       		.byte	0
 4414 00e7 11       		.uleb128 0x11
 4415 00e8 01       		.uleb128 0x1
 4416 00e9 31       		.uleb128 0x31
 4417 00ea 13       		.uleb128 0x13
 4418 00eb 00       		.byte	0
 4419 00ec 00       		.byte	0
 4420 00ed 14       		.uleb128 0x14
 4421 00ee 898201   		.uleb128 0x4109
 4422 00f1 01       		.byte	0x1
 4423 00f2 11       		.uleb128 0x11
 4424 00f3 01       		.uleb128 0x1
 4425 00f4 31       		.uleb128 0x31
 4426 00f5 13       		.uleb128 0x13
 4427 00f6 00       		.byte	0
 4428 00f7 00       		.byte	0
 4429 00f8 15       		.uleb128 0x15
 4430 00f9 2E       		.uleb128 0x2e
 4431 00fa 01       		.byte	0x1
 4432 00fb 3F       		.uleb128 0x3f
 4433 00fc 19       		.uleb128 0x19
 4434 00fd 03       		.uleb128 0x3
 4435 00fe 0E       		.uleb128 0xe
 4436 00ff 3A       		.uleb128 0x3a
 4437 0100 0B       		.uleb128 0xb
 4438 0101 3B       		.uleb128 0x3b
 4439 0102 05       		.uleb128 0x5
 4440 0103 27       		.uleb128 0x27
 4441 0104 19       		.uleb128 0x19
ARM GAS  C:\Users\Terence\AppData\Local\Temp\cc6R4aDx.s 			page 131


 4442 0105 11       		.uleb128 0x11
 4443 0106 01       		.uleb128 0x1
 4444 0107 12       		.uleb128 0x12
 4445 0108 06       		.uleb128 0x6
 4446 0109 40       		.uleb128 0x40
 4447 010a 18       		.uleb128 0x18
 4448 010b 9742     		.uleb128 0x2117
 4449 010d 19       		.uleb128 0x19
 4450 010e 01       		.uleb128 0x1
 4451 010f 13       		.uleb128 0x13
 4452 0110 00       		.byte	0
 4453 0111 00       		.byte	0
 4454 0112 16       		.uleb128 0x16
 4455 0113 34       		.uleb128 0x34
 4456 0114 00       		.byte	0
 4457 0115 03       		.uleb128 0x3
 4458 0116 08       		.uleb128 0x8
 4459 0117 3A       		.uleb128 0x3a
 4460 0118 0B       		.uleb128 0xb
 4461 0119 3B       		.uleb128 0x3b
 4462 011a 05       		.uleb128 0x5
 4463 011b 49       		.uleb128 0x49
 4464 011c 13       		.uleb128 0x13
 4465 011d 02       		.uleb128 0x2
 4466 011e 17       		.uleb128 0x17
 4467 011f 00       		.byte	0
 4468 0120 00       		.byte	0
 4469 0121 17       		.uleb128 0x17
 4470 0122 34       		.uleb128 0x34
 4471 0123 00       		.byte	0
 4472 0124 03       		.uleb128 0x3
 4473 0125 0E       		.uleb128 0xe
 4474 0126 3A       		.uleb128 0x3a
 4475 0127 0B       		.uleb128 0xb
 4476 0128 3B       		.uleb128 0x3b
 4477 0129 05       		.uleb128 0x5
 4478 012a 49       		.uleb128 0x49
 4479 012b 13       		.uleb128 0x13
 4480 012c 02       		.uleb128 0x2
 4481 012d 17       		.uleb128 0x17
 4482 012e 00       		.byte	0
 4483 012f 00       		.byte	0
 4484 0130 18       		.uleb128 0x18
 4485 0131 2E       		.uleb128 0x2e
 4486 0132 01       		.byte	0x1
 4487 0133 3F       		.uleb128 0x3f
 4488 0134 19       		.uleb128 0x19
 4489 0135 03       		.uleb128 0x3
 4490 0136 0E       		.uleb128 0xe
 4491 0137 3A       		.uleb128 0x3a
 4492 0138 0B       		.uleb128 0xb
 4493 0139 3B       		.uleb128 0x3b
 4494 013a 05       		.uleb128 0x5
 4495 013b 27       		.uleb128 0x27
 4496 013c 19       		.uleb128 0x19
 4497 013d 49       		.uleb128 0x49
 4498 013e 13       		.uleb128 0x13
ARM GAS  C:\Users\Terence\AppData\Local\Temp\cc6R4aDx.s 			page 132


 4499 013f 11       		.uleb128 0x11
 4500 0140 01       		.uleb128 0x1
 4501 0141 12       		.uleb128 0x12
 4502 0142 06       		.uleb128 0x6
 4503 0143 40       		.uleb128 0x40
 4504 0144 18       		.uleb128 0x18
 4505 0145 9742     		.uleb128 0x2117
 4506 0147 19       		.uleb128 0x19
 4507 0148 01       		.uleb128 0x1
 4508 0149 13       		.uleb128 0x13
 4509 014a 00       		.byte	0
 4510 014b 00       		.byte	0
 4511 014c 19       		.uleb128 0x19
 4512 014d 05       		.uleb128 0x5
 4513 014e 00       		.byte	0
 4514 014f 03       		.uleb128 0x3
 4515 0150 0E       		.uleb128 0xe
 4516 0151 3A       		.uleb128 0x3a
 4517 0152 0B       		.uleb128 0xb
 4518 0153 3B       		.uleb128 0x3b
 4519 0154 05       		.uleb128 0x5
 4520 0155 49       		.uleb128 0x49
 4521 0156 13       		.uleb128 0x13
 4522 0157 02       		.uleb128 0x2
 4523 0158 17       		.uleb128 0x17
 4524 0159 00       		.byte	0
 4525 015a 00       		.byte	0
 4526 015b 1A       		.uleb128 0x1a
 4527 015c 05       		.uleb128 0x5
 4528 015d 00       		.byte	0
 4529 015e 03       		.uleb128 0x3
 4530 015f 0E       		.uleb128 0xe
 4531 0160 3A       		.uleb128 0x3a
 4532 0161 0B       		.uleb128 0xb
 4533 0162 3B       		.uleb128 0x3b
 4534 0163 05       		.uleb128 0x5
 4535 0164 49       		.uleb128 0x49
 4536 0165 13       		.uleb128 0x13
 4537 0166 02       		.uleb128 0x2
 4538 0167 18       		.uleb128 0x18
 4539 0168 00       		.byte	0
 4540 0169 00       		.byte	0
 4541 016a 1B       		.uleb128 0x1b
 4542 016b 2E       		.uleb128 0x2e
 4543 016c 01       		.byte	0x1
 4544 016d 3F       		.uleb128 0x3f
 4545 016e 19       		.uleb128 0x19
 4546 016f 03       		.uleb128 0x3
 4547 0170 0E       		.uleb128 0xe
 4548 0171 3A       		.uleb128 0x3a
 4549 0172 0B       		.uleb128 0xb
 4550 0173 3B       		.uleb128 0x3b
 4551 0174 05       		.uleb128 0x5
 4552 0175 27       		.uleb128 0x27
 4553 0176 19       		.uleb128 0x19
 4554 0177 49       		.uleb128 0x49
 4555 0178 13       		.uleb128 0x13
ARM GAS  C:\Users\Terence\AppData\Local\Temp\cc6R4aDx.s 			page 133


 4556 0179 11       		.uleb128 0x11
 4557 017a 01       		.uleb128 0x1
 4558 017b 12       		.uleb128 0x12
 4559 017c 06       		.uleb128 0x6
 4560 017d 40       		.uleb128 0x40
 4561 017e 18       		.uleb128 0x18
 4562 017f 9642     		.uleb128 0x2116
 4563 0181 19       		.uleb128 0x19
 4564 0182 01       		.uleb128 0x1
 4565 0183 13       		.uleb128 0x13
 4566 0184 00       		.byte	0
 4567 0185 00       		.byte	0
 4568 0186 1C       		.uleb128 0x1c
 4569 0187 34       		.uleb128 0x34
 4570 0188 00       		.byte	0
 4571 0189 03       		.uleb128 0x3
 4572 018a 0E       		.uleb128 0xe
 4573 018b 3A       		.uleb128 0x3a
 4574 018c 0B       		.uleb128 0xb
 4575 018d 3B       		.uleb128 0x3b
 4576 018e 05       		.uleb128 0x5
 4577 018f 49       		.uleb128 0x49
 4578 0190 13       		.uleb128 0x13
 4579 0191 02       		.uleb128 0x2
 4580 0192 18       		.uleb128 0x18
 4581 0193 00       		.byte	0
 4582 0194 00       		.byte	0
 4583 0195 1D       		.uleb128 0x1d
 4584 0196 01       		.uleb128 0x1
 4585 0197 01       		.byte	0x1
 4586 0198 49       		.uleb128 0x49
 4587 0199 13       		.uleb128 0x13
 4588 019a 01       		.uleb128 0x1
 4589 019b 13       		.uleb128 0x13
 4590 019c 00       		.byte	0
 4591 019d 00       		.byte	0
 4592 019e 1E       		.uleb128 0x1e
 4593 019f 21       		.uleb128 0x21
 4594 01a0 00       		.byte	0
 4595 01a1 49       		.uleb128 0x49
 4596 01a2 13       		.uleb128 0x13
 4597 01a3 2F       		.uleb128 0x2f
 4598 01a4 0B       		.uleb128 0xb
 4599 01a5 00       		.byte	0
 4600 01a6 00       		.byte	0
 4601 01a7 1F       		.uleb128 0x1f
 4602 01a8 05       		.uleb128 0x5
 4603 01a9 00       		.byte	0
 4604 01aa 03       		.uleb128 0x3
 4605 01ab 08       		.uleb128 0x8
 4606 01ac 3A       		.uleb128 0x3a
 4607 01ad 0B       		.uleb128 0xb
 4608 01ae 3B       		.uleb128 0x3b
 4609 01af 05       		.uleb128 0x5
 4610 01b0 49       		.uleb128 0x49
 4611 01b1 13       		.uleb128 0x13
 4612 01b2 02       		.uleb128 0x2
ARM GAS  C:\Users\Terence\AppData\Local\Temp\cc6R4aDx.s 			page 134


 4613 01b3 17       		.uleb128 0x17
 4614 01b4 00       		.byte	0
 4615 01b5 00       		.byte	0
 4616 01b6 20       		.uleb128 0x20
 4617 01b7 05       		.uleb128 0x5
 4618 01b8 00       		.byte	0
 4619 01b9 03       		.uleb128 0x3
 4620 01ba 08       		.uleb128 0x8
 4621 01bb 3A       		.uleb128 0x3a
 4622 01bc 0B       		.uleb128 0xb
 4623 01bd 3B       		.uleb128 0x3b
 4624 01be 05       		.uleb128 0x5
 4625 01bf 49       		.uleb128 0x49
 4626 01c0 13       		.uleb128 0x13
 4627 01c1 02       		.uleb128 0x2
 4628 01c2 18       		.uleb128 0x18
 4629 01c3 00       		.byte	0
 4630 01c4 00       		.byte	0
 4631 01c5 21       		.uleb128 0x21
 4632 01c6 34       		.uleb128 0x34
 4633 01c7 00       		.byte	0
 4634 01c8 03       		.uleb128 0x3
 4635 01c9 08       		.uleb128 0x8
 4636 01ca 3A       		.uleb128 0x3a
 4637 01cb 0B       		.uleb128 0xb
 4638 01cc 3B       		.uleb128 0x3b
 4639 01cd 05       		.uleb128 0x5
 4640 01ce 49       		.uleb128 0x49
 4641 01cf 13       		.uleb128 0x13
 4642 01d0 00       		.byte	0
 4643 01d1 00       		.byte	0
 4644 01d2 22       		.uleb128 0x22
 4645 01d3 34       		.uleb128 0x34
 4646 01d4 00       		.byte	0
 4647 01d5 03       		.uleb128 0x3
 4648 01d6 0E       		.uleb128 0xe
 4649 01d7 3A       		.uleb128 0x3a
 4650 01d8 0B       		.uleb128 0xb
 4651 01d9 3B       		.uleb128 0x3b
 4652 01da 05       		.uleb128 0x5
 4653 01db 49       		.uleb128 0x49
 4654 01dc 13       		.uleb128 0x13
 4655 01dd 1C       		.uleb128 0x1c
 4656 01de 0B       		.uleb128 0xb
 4657 01df 00       		.byte	0
 4658 01e0 00       		.byte	0
 4659 01e1 23       		.uleb128 0x23
 4660 01e2 34       		.uleb128 0x34
 4661 01e3 00       		.byte	0
 4662 01e4 03       		.uleb128 0x3
 4663 01e5 0E       		.uleb128 0xe
 4664 01e6 3A       		.uleb128 0x3a
 4665 01e7 0B       		.uleb128 0xb
 4666 01e8 3B       		.uleb128 0x3b
 4667 01e9 05       		.uleb128 0x5
 4668 01ea 49       		.uleb128 0x49
 4669 01eb 13       		.uleb128 0x13
ARM GAS  C:\Users\Terence\AppData\Local\Temp\cc6R4aDx.s 			page 135


 4670 01ec 00       		.byte	0
 4671 01ed 00       		.byte	0
 4672 01ee 24       		.uleb128 0x24
 4673 01ef 2E       		.uleb128 0x2e
 4674 01f0 00       		.byte	0
 4675 01f1 3F       		.uleb128 0x3f
 4676 01f2 19       		.uleb128 0x19
 4677 01f3 03       		.uleb128 0x3
 4678 01f4 0E       		.uleb128 0xe
 4679 01f5 3A       		.uleb128 0x3a
 4680 01f6 0B       		.uleb128 0xb
 4681 01f7 3B       		.uleb128 0x3b
 4682 01f8 05       		.uleb128 0x5
 4683 01f9 27       		.uleb128 0x27
 4684 01fa 19       		.uleb128 0x19
 4685 01fb 11       		.uleb128 0x11
 4686 01fc 01       		.uleb128 0x1
 4687 01fd 12       		.uleb128 0x12
 4688 01fe 06       		.uleb128 0x6
 4689 01ff 40       		.uleb128 0x40
 4690 0200 18       		.uleb128 0x18
 4691 0201 9742     		.uleb128 0x2117
 4692 0203 19       		.uleb128 0x19
 4693 0204 00       		.byte	0
 4694 0205 00       		.byte	0
 4695 0206 25       		.uleb128 0x25
 4696 0207 34       		.uleb128 0x34
 4697 0208 00       		.byte	0
 4698 0209 03       		.uleb128 0x3
 4699 020a 0E       		.uleb128 0xe
 4700 020b 3A       		.uleb128 0x3a
 4701 020c 0B       		.uleb128 0xb
 4702 020d 3B       		.uleb128 0x3b
 4703 020e 0B       		.uleb128 0xb
 4704 020f 49       		.uleb128 0x49
 4705 0210 13       		.uleb128 0x13
 4706 0211 02       		.uleb128 0x2
 4707 0212 18       		.uleb128 0x18
 4708 0213 00       		.byte	0
 4709 0214 00       		.byte	0
 4710 0215 26       		.uleb128 0x26
 4711 0216 34       		.uleb128 0x34
 4712 0217 00       		.byte	0
 4713 0218 03       		.uleb128 0x3
 4714 0219 0E       		.uleb128 0xe
 4715 021a 3A       		.uleb128 0x3a
 4716 021b 0B       		.uleb128 0xb
 4717 021c 3B       		.uleb128 0x3b
 4718 021d 0B       		.uleb128 0xb
 4719 021e 49       		.uleb128 0x49
 4720 021f 13       		.uleb128 0x13
 4721 0220 1C       		.uleb128 0x1c
 4722 0221 0A       		.uleb128 0xa
 4723 0222 00       		.byte	0
 4724 0223 00       		.byte	0
 4725 0224 27       		.uleb128 0x27
 4726 0225 34       		.uleb128 0x34
ARM GAS  C:\Users\Terence\AppData\Local\Temp\cc6R4aDx.s 			page 136


 4727 0226 00       		.byte	0
 4728 0227 03       		.uleb128 0x3
 4729 0228 0E       		.uleb128 0xe
 4730 0229 3A       		.uleb128 0x3a
 4731 022a 0B       		.uleb128 0xb
 4732 022b 3B       		.uleb128 0x3b
 4733 022c 0B       		.uleb128 0xb
 4734 022d 49       		.uleb128 0x49
 4735 022e 13       		.uleb128 0x13
 4736 022f 3F       		.uleb128 0x3f
 4737 0230 19       		.uleb128 0x19
 4738 0231 3C       		.uleb128 0x3c
 4739 0232 19       		.uleb128 0x19
 4740 0233 00       		.byte	0
 4741 0234 00       		.byte	0
 4742 0235 28       		.uleb128 0x28
 4743 0236 34       		.uleb128 0x34
 4744 0237 00       		.byte	0
 4745 0238 03       		.uleb128 0x3
 4746 0239 0E       		.uleb128 0xe
 4747 023a 3A       		.uleb128 0x3a
 4748 023b 0B       		.uleb128 0xb
 4749 023c 3B       		.uleb128 0x3b
 4750 023d 0B       		.uleb128 0xb
 4751 023e 49       		.uleb128 0x49
 4752 023f 13       		.uleb128 0x13
 4753 0240 3F       		.uleb128 0x3f
 4754 0241 19       		.uleb128 0x19
 4755 0242 02       		.uleb128 0x2
 4756 0243 18       		.uleb128 0x18
 4757 0244 00       		.byte	0
 4758 0245 00       		.byte	0
 4759 0246 29       		.uleb128 0x29
 4760 0247 2E       		.uleb128 0x2e
 4761 0248 01       		.byte	0x1
 4762 0249 3F       		.uleb128 0x3f
 4763 024a 19       		.uleb128 0x19
 4764 024b 03       		.uleb128 0x3
 4765 024c 0E       		.uleb128 0xe
 4766 024d 3A       		.uleb128 0x3a
 4767 024e 0B       		.uleb128 0xb
 4768 024f 3B       		.uleb128 0x3b
 4769 0250 0B       		.uleb128 0xb
 4770 0251 27       		.uleb128 0x27
 4771 0252 19       		.uleb128 0x19
 4772 0253 3C       		.uleb128 0x3c
 4773 0254 19       		.uleb128 0x19
 4774 0255 01       		.uleb128 0x1
 4775 0256 13       		.uleb128 0x13
 4776 0257 00       		.byte	0
 4777 0258 00       		.byte	0
 4778 0259 2A       		.uleb128 0x2a
 4779 025a 2E       		.uleb128 0x2e
 4780 025b 00       		.byte	0
 4781 025c 3F       		.uleb128 0x3f
 4782 025d 19       		.uleb128 0x19
 4783 025e 03       		.uleb128 0x3
ARM GAS  C:\Users\Terence\AppData\Local\Temp\cc6R4aDx.s 			page 137


 4784 025f 0E       		.uleb128 0xe
 4785 0260 3A       		.uleb128 0x3a
 4786 0261 0B       		.uleb128 0xb
 4787 0262 3B       		.uleb128 0x3b
 4788 0263 0B       		.uleb128 0xb
 4789 0264 27       		.uleb128 0x27
 4790 0265 19       		.uleb128 0x19
 4791 0266 49       		.uleb128 0x49
 4792 0267 13       		.uleb128 0x13
 4793 0268 3C       		.uleb128 0x3c
 4794 0269 19       		.uleb128 0x19
 4795 026a 00       		.byte	0
 4796 026b 00       		.byte	0
 4797 026c 2B       		.uleb128 0x2b
 4798 026d 2E       		.uleb128 0x2e
 4799 026e 00       		.byte	0
 4800 026f 3F       		.uleb128 0x3f
 4801 0270 19       		.uleb128 0x19
 4802 0271 03       		.uleb128 0x3
 4803 0272 0E       		.uleb128 0xe
 4804 0273 3A       		.uleb128 0x3a
 4805 0274 0B       		.uleb128 0xb
 4806 0275 3B       		.uleb128 0x3b
 4807 0276 0B       		.uleb128 0xb
 4808 0277 27       		.uleb128 0x27
 4809 0278 19       		.uleb128 0x19
 4810 0279 3C       		.uleb128 0x3c
 4811 027a 19       		.uleb128 0x19
 4812 027b 00       		.byte	0
 4813 027c 00       		.byte	0
 4814 027d 2C       		.uleb128 0x2c
 4815 027e 2E       		.uleb128 0x2e
 4816 027f 01       		.byte	0x1
 4817 0280 3F       		.uleb128 0x3f
 4818 0281 19       		.uleb128 0x19
 4819 0282 03       		.uleb128 0x3
 4820 0283 0E       		.uleb128 0xe
 4821 0284 3A       		.uleb128 0x3a
 4822 0285 0B       		.uleb128 0xb
 4823 0286 3B       		.uleb128 0x3b
 4824 0287 0B       		.uleb128 0xb
 4825 0288 27       		.uleb128 0x27
 4826 0289 19       		.uleb128 0x19
 4827 028a 49       		.uleb128 0x49
 4828 028b 13       		.uleb128 0x13
 4829 028c 3C       		.uleb128 0x3c
 4830 028d 19       		.uleb128 0x19
 4831 028e 01       		.uleb128 0x1
 4832 028f 13       		.uleb128 0x13
 4833 0290 00       		.byte	0
 4834 0291 00       		.byte	0
 4835 0292 2D       		.uleb128 0x2d
 4836 0293 2E       		.uleb128 0x2e
 4837 0294 01       		.byte	0x1
 4838 0295 3F       		.uleb128 0x3f
 4839 0296 19       		.uleb128 0x19
 4840 0297 03       		.uleb128 0x3
ARM GAS  C:\Users\Terence\AppData\Local\Temp\cc6R4aDx.s 			page 138


 4841 0298 0E       		.uleb128 0xe
 4842 0299 3A       		.uleb128 0x3a
 4843 029a 0B       		.uleb128 0xb
 4844 029b 3B       		.uleb128 0x3b
 4845 029c 0B       		.uleb128 0xb
 4846 029d 27       		.uleb128 0x27
 4847 029e 19       		.uleb128 0x19
 4848 029f 3C       		.uleb128 0x3c
 4849 02a0 19       		.uleb128 0x19
 4850 02a1 00       		.byte	0
 4851 02a2 00       		.byte	0
 4852 02a3 00       		.byte	0
 4853              		.section	.debug_loc,"",%progbits
 4854              	.Ldebug_loc0:
 4855              	.LLST0:
 4856 0000 00000000 		.4byte	.LVL0
 4857 0004 2C000000 		.4byte	.LVL4
 4858 0008 0100     		.2byte	0x1
 4859 000a 50       		.byte	0x50
 4860 000b 2C000000 		.4byte	.LVL4
 4861 000f 48000000 		.4byte	.LFE36
 4862 0013 0400     		.2byte	0x4
 4863 0015 F3       		.byte	0xf3
 4864 0016 01       		.uleb128 0x1
 4865 0017 50       		.byte	0x50
 4866 0018 9F       		.byte	0x9f
 4867 0019 00000000 		.4byte	0
 4868 001d 00000000 		.4byte	0
 4869              	.LLST1:
 4870 0021 06000000 		.4byte	.LVL1
 4871 0025 24000000 		.4byte	.LVL2
 4872 0029 0100     		.2byte	0x1
 4873 002b 52       		.byte	0x52
 4874 002c 24000000 		.4byte	.LVL2
 4875 0030 2A000000 		.4byte	.LVL3
 4876 0034 0300     		.2byte	0x3
 4877 0036 74       		.byte	0x74
 4878 0037 01       		.sleb128 1
 4879 0038 9F       		.byte	0x9f
 4880 0039 00000000 		.4byte	0
 4881 003d 00000000 		.4byte	0
 4882              	.LLST2:
 4883 0041 00000000 		.4byte	.LVL5
 4884 0045 07000000 		.4byte	.LVL6-1
 4885 0049 0100     		.2byte	0x1
 4886 004b 50       		.byte	0x50
 4887 004c 07000000 		.4byte	.LVL6-1
 4888 0050 16000000 		.4byte	.LVL9
 4889 0054 0100     		.2byte	0x1
 4890 0056 54       		.byte	0x54
 4891 0057 16000000 		.4byte	.LVL9
 4892 005b 18000000 		.4byte	.LFE37
 4893 005f 0400     		.2byte	0x4
 4894 0061 F3       		.byte	0xf3
 4895 0062 01       		.uleb128 0x1
 4896 0063 50       		.byte	0x50
 4897 0064 9F       		.byte	0x9f
ARM GAS  C:\Users\Terence\AppData\Local\Temp\cc6R4aDx.s 			page 139


 4898 0065 00000000 		.4byte	0
 4899 0069 00000000 		.4byte	0
 4900              	.LLST3:
 4901 006d 02000000 		.4byte	.LVL10
 4902 0071 06000000 		.4byte	.LVL11
 4903 0075 0200     		.2byte	0x2
 4904 0077 30       		.byte	0x30
 4905 0078 9F       		.byte	0x9f
 4906 0079 06000000 		.4byte	.LVL11
 4907 007d 12000000 		.4byte	.LVL14
 4908 0081 0100     		.2byte	0x1
 4909 0083 54       		.byte	0x54
 4910 0084 00000000 		.4byte	0
 4911 0088 00000000 		.4byte	0
 4912              	.LLST4:
 4913 008c 12000000 		.4byte	.LVL17
 4914 0090 2A000000 		.4byte	.LVL22
 4915 0094 0100     		.2byte	0x1
 4916 0096 54       		.byte	0x54
 4917 0097 00000000 		.4byte	0
 4918 009b 00000000 		.4byte	0
 4919              	.LLST5:
 4920 009f 1A000000 		.4byte	.LVL18
 4921 00a3 20000000 		.4byte	.LVL19
 4922 00a7 0100     		.2byte	0x1
 4923 00a9 50       		.byte	0x50
 4924 00aa 00000000 		.4byte	0
 4925 00ae 00000000 		.4byte	0
 4926              	.LLST6:
 4927 00b2 00000000 		.4byte	.LVL23
 4928 00b6 02000000 		.4byte	.LVL24
 4929 00ba 0100     		.2byte	0x1
 4930 00bc 50       		.byte	0x50
 4931 00bd 02000000 		.4byte	.LVL24
 4932 00c1 0C000000 		.4byte	.LFE44
 4933 00c5 0400     		.2byte	0x4
 4934 00c7 F3       		.byte	0xf3
 4935 00c8 01       		.uleb128 0x1
 4936 00c9 50       		.byte	0x50
 4937 00ca 9F       		.byte	0x9f
 4938 00cb 00000000 		.4byte	0
 4939 00cf 00000000 		.4byte	0
 4940              	.LLST7:
 4941 00d3 00000000 		.4byte	.LVL25
 4942 00d7 02000000 		.4byte	.LVL26
 4943 00db 0100     		.2byte	0x1
 4944 00dd 50       		.byte	0x50
 4945 00de 02000000 		.4byte	.LVL26
 4946 00e2 0C000000 		.4byte	.LFE45
 4947 00e6 0400     		.2byte	0x4
 4948 00e8 F3       		.byte	0xf3
 4949 00e9 01       		.uleb128 0x1
 4950 00ea 50       		.byte	0x50
 4951 00eb 9F       		.byte	0x9f
 4952 00ec 00000000 		.4byte	0
 4953 00f0 00000000 		.4byte	0
 4954              	.LLST8:
ARM GAS  C:\Users\Terence\AppData\Local\Temp\cc6R4aDx.s 			page 140


 4955 00f4 00000000 		.4byte	.LVL27
 4956 00f8 06000000 		.4byte	.LVL28
 4957 00fc 0100     		.2byte	0x1
 4958 00fe 50       		.byte	0x50
 4959 00ff 06000000 		.4byte	.LVL28
 4960 0103 0C000000 		.4byte	.LFE46
 4961 0107 0400     		.2byte	0x4
 4962 0109 F3       		.byte	0xf3
 4963 010a 01       		.uleb128 0x1
 4964 010b 50       		.byte	0x50
 4965 010c 9F       		.byte	0x9f
 4966 010d 00000000 		.4byte	0
 4967 0111 00000000 		.4byte	0
 4968              	.LLST9:
 4969 0115 00000000 		.4byte	.LVL30
 4970 0119 04000000 		.4byte	.LVL31
 4971 011d 0100     		.2byte	0x1
 4972 011f 50       		.byte	0x50
 4973 0120 04000000 		.4byte	.LVL31
 4974 0124 0C000000 		.4byte	.LFE48
 4975 0128 0400     		.2byte	0x4
 4976 012a F3       		.byte	0xf3
 4977 012b 01       		.uleb128 0x1
 4978 012c 50       		.byte	0x50
 4979 012d 9F       		.byte	0x9f
 4980 012e 00000000 		.4byte	0
 4981 0132 00000000 		.4byte	0
 4982              	.LLST10:
 4983 0136 00000000 		.4byte	.LVL32
 4984 013a 04000000 		.4byte	.LVL33
 4985 013e 0100     		.2byte	0x1
 4986 0140 50       		.byte	0x50
 4987 0141 04000000 		.4byte	.LVL33
 4988 0145 0C000000 		.4byte	.LFE49
 4989 0149 0400     		.2byte	0x4
 4990 014b F3       		.byte	0xf3
 4991 014c 01       		.uleb128 0x1
 4992 014d 50       		.byte	0x50
 4993 014e 9F       		.byte	0x9f
 4994 014f 00000000 		.4byte	0
 4995 0153 00000000 		.4byte	0
 4996              	.LLST11:
 4997 0157 00000000 		.4byte	.LVL34
 4998 015b 04000000 		.4byte	.LVL35
 4999 015f 0100     		.2byte	0x1
 5000 0161 50       		.byte	0x50
 5001 0162 04000000 		.4byte	.LVL35
 5002 0166 0C000000 		.4byte	.LFE50
 5003 016a 0400     		.2byte	0x4
 5004 016c F3       		.byte	0xf3
 5005 016d 01       		.uleb128 0x1
 5006 016e 50       		.byte	0x50
 5007 016f 9F       		.byte	0x9f
 5008 0170 00000000 		.4byte	0
 5009 0174 00000000 		.4byte	0
 5010              	.LLST12:
 5011 0178 00000000 		.4byte	.LVL36
ARM GAS  C:\Users\Terence\AppData\Local\Temp\cc6R4aDx.s 			page 141


 5012 017c 04000000 		.4byte	.LVL37
 5013 0180 0100     		.2byte	0x1
 5014 0182 50       		.byte	0x50
 5015 0183 04000000 		.4byte	.LVL37
 5016 0187 0C000000 		.4byte	.LFE51
 5017 018b 0400     		.2byte	0x4
 5018 018d F3       		.byte	0xf3
 5019 018e 01       		.uleb128 0x1
 5020 018f 50       		.byte	0x50
 5021 0190 9F       		.byte	0x9f
 5022 0191 00000000 		.4byte	0
 5023 0195 00000000 		.4byte	0
 5024              	.LLST13:
 5025 0199 00000000 		.4byte	.LVL38
 5026 019d 04000000 		.4byte	.LVL39
 5027 01a1 0100     		.2byte	0x1
 5028 01a3 50       		.byte	0x50
 5029 01a4 04000000 		.4byte	.LVL39
 5030 01a8 0C000000 		.4byte	.LFE52
 5031 01ac 0400     		.2byte	0x4
 5032 01ae F3       		.byte	0xf3
 5033 01af 01       		.uleb128 0x1
 5034 01b0 50       		.byte	0x50
 5035 01b1 9F       		.byte	0x9f
 5036 01b2 00000000 		.4byte	0
 5037 01b6 00000000 		.4byte	0
 5038              	.LLST14:
 5039 01ba 00000000 		.4byte	.LVL44
 5040 01be 04000000 		.4byte	.LVL45
 5041 01c2 0100     		.2byte	0x1
 5042 01c4 50       		.byte	0x50
 5043 01c5 04000000 		.4byte	.LVL45
 5044 01c9 0C000000 		.4byte	.LFE57
 5045 01cd 0400     		.2byte	0x4
 5046 01cf F3       		.byte	0xf3
 5047 01d0 01       		.uleb128 0x1
 5048 01d1 50       		.byte	0x50
 5049 01d2 9F       		.byte	0x9f
 5050 01d3 00000000 		.4byte	0
 5051 01d7 00000000 		.4byte	0
 5052              	.LLST15:
 5053 01db 00000000 		.4byte	.LVL46
 5054 01df 30000000 		.4byte	.LVL56
 5055 01e3 0100     		.2byte	0x1
 5056 01e5 50       		.byte	0x50
 5057 01e6 30000000 		.4byte	.LVL56
 5058 01ea A0000000 		.4byte	.LVL65
 5059 01ee 0100     		.2byte	0x1
 5060 01f0 55       		.byte	0x55
 5061 01f1 A0000000 		.4byte	.LVL65
 5062 01f5 B8000000 		.4byte	.LFE58
 5063 01f9 0400     		.2byte	0x4
 5064 01fb F3       		.byte	0xf3
 5065 01fc 01       		.uleb128 0x1
 5066 01fd 50       		.byte	0x50
 5067 01fe 9F       		.byte	0x9f
 5068 01ff 00000000 		.4byte	0
ARM GAS  C:\Users\Terence\AppData\Local\Temp\cc6R4aDx.s 			page 142


 5069 0203 00000000 		.4byte	0
 5070              	.LLST16:
 5071 0207 0C000000 		.4byte	.LVL47
 5072 020b 22000000 		.4byte	.LVL52
 5073 020f 0100     		.2byte	0x1
 5074 0211 53       		.byte	0x53
 5075 0212 2A000000 		.4byte	.LVL53
 5076 0216 2C000000 		.4byte	.LVL54
 5077 021a 0100     		.2byte	0x1
 5078 021c 53       		.byte	0x53
 5079 021d 2C000000 		.4byte	.LVL54
 5080 0221 2E000000 		.4byte	.LVL55
 5081 0225 0300     		.2byte	0x3
 5082 0227 73       		.byte	0x73
 5083 0228 01       		.sleb128 1
 5084 0229 9F       		.byte	0x9f
 5085 022a 00000000 		.4byte	0
 5086 022e 00000000 		.4byte	0
 5087              	.LLST17:
 5088 0232 1A000000 		.4byte	.LVL50
 5089 0236 A0000000 		.4byte	.LVL67
 5090 023a 0100     		.2byte	0x1
 5091 023c 58       		.byte	0x58
 5092 023d 00000000 		.4byte	0
 5093 0241 00000000 		.4byte	0
 5094              	.LLST18:
 5095 0245 1E000000 		.4byte	.LVL51
 5096 0249 2A000000 		.4byte	.LVL53
 5097 024d 0200     		.2byte	0x2
 5098 024f 35       		.byte	0x35
 5099 0250 9F       		.byte	0x9f
 5100 0251 2E000000 		.4byte	.LVL55
 5101 0255 A0000000 		.4byte	.LVL64
 5102 0259 0100     		.2byte	0x1
 5103 025b 54       		.byte	0x54
 5104 025c 00000000 		.4byte	0
 5105 0260 00000000 		.4byte	0
 5106              	.LLST19:
 5107 0264 12000000 		.4byte	.LVL48
 5108 0268 A0000000 		.4byte	.LVL66
 5109 026c 0100     		.2byte	0x1
 5110 026e 57       		.byte	0x57
 5111 026f 00000000 		.4byte	0
 5112 0273 00000000 		.4byte	0
 5113              	.LLST20:
 5114 0277 16000000 		.4byte	.LVL49
 5115 027b 44000000 		.4byte	.LVL58
 5116 027f 0100     		.2byte	0x1
 5117 0281 56       		.byte	0x56
 5118 0282 5E000000 		.4byte	.LVL60
 5119 0286 66000000 		.4byte	.LVL61
 5120 028a 0100     		.2byte	0x1
 5121 028c 56       		.byte	0x56
 5122 028d 00000000 		.4byte	0
 5123 0291 00000000 		.4byte	0
 5124              	.LLST21:
 5125 0295 00000000 		.4byte	.LVL68
ARM GAS  C:\Users\Terence\AppData\Local\Temp\cc6R4aDx.s 			page 143


 5126 0299 08000000 		.4byte	.LVL70
 5127 029d 0100     		.2byte	0x1
 5128 029f 50       		.byte	0x50
 5129 02a0 08000000 		.4byte	.LVL70
 5130 02a4 28000000 		.4byte	.LFE59
 5131 02a8 0400     		.2byte	0x4
 5132 02aa F3       		.byte	0xf3
 5133 02ab 01       		.uleb128 0x1
 5134 02ac 50       		.byte	0x50
 5135 02ad 9F       		.byte	0x9f
 5136 02ae 00000000 		.4byte	0
 5137 02b2 00000000 		.4byte	0
 5138              	.LLST22:
 5139 02b6 06000000 		.4byte	.LVL69
 5140 02ba 22000000 		.4byte	.LVL76
 5141 02be 0100     		.2byte	0x1
 5142 02c0 54       		.byte	0x54
 5143 02c1 00000000 		.4byte	0
 5144 02c5 00000000 		.4byte	0
 5145              	.LLST23:
 5146 02c9 0C000000 		.4byte	.LVL71
 5147 02cd 22000000 		.4byte	.LVL77
 5148 02d1 0100     		.2byte	0x1
 5149 02d3 55       		.byte	0x55
 5150 02d4 22000000 		.4byte	.LVL77
 5151 02d8 28000000 		.4byte	.LFE59
 5152 02dc 1E00     		.2byte	0x1e
 5153 02de F3       		.byte	0xf3
 5154 02df 01       		.uleb128 0x1
 5155 02e0 50       		.byte	0x50
 5156 02e1 03       		.byte	0x3
 5157 02e2 08000000 		.4byte	.LANCHOR2+8
 5158 02e6 22       		.byte	0x22
 5159 02e7 94       		.byte	0x94
 5160 02e8 01       		.byte	0x1
 5161 02e9 08       		.byte	0x8
 5162 02ea FF       		.byte	0xff
 5163 02eb 1A       		.byte	0x1a
 5164 02ec F3       		.byte	0xf3
 5165 02ed 01       		.uleb128 0x1
 5166 02ee 50       		.byte	0x50
 5167 02ef 03       		.byte	0x3
 5168 02f0 00000000 		.4byte	.LANCHOR2
 5169 02f4 22       		.byte	0x22
 5170 02f5 94       		.byte	0x94
 5171 02f6 01       		.byte	0x1
 5172 02f7 08       		.byte	0x8
 5173 02f8 FF       		.byte	0xff
 5174 02f9 1A       		.byte	0x1a
 5175 02fa 22       		.byte	0x22
 5176 02fb 9F       		.byte	0x9f
 5177 02fc 00000000 		.4byte	0
 5178 0300 00000000 		.4byte	0
 5179              	.LLST24:
 5180 0304 0C000000 		.4byte	.LVL71
 5181 0308 0E000000 		.4byte	.LVL72
 5182 030c 0200     		.2byte	0x2
ARM GAS  C:\Users\Terence\AppData\Local\Temp\cc6R4aDx.s 			page 144


 5183 030e 30       		.byte	0x30
 5184 030f 9F       		.byte	0x9f
 5185 0310 0E000000 		.4byte	.LVL72
 5186 0314 22000000 		.4byte	.LVL78
 5187 0318 0100     		.2byte	0x1
 5188 031a 56       		.byte	0x56
 5189 031b 22000000 		.4byte	.LVL78
 5190 031f 28000000 		.4byte	.LFE59
 5191 0323 0100     		.2byte	0x1
 5192 0325 50       		.byte	0x50
 5193 0326 00000000 		.4byte	0
 5194 032a 00000000 		.4byte	0
 5195              	.LLST25:
 5196 032e 02000000 		.4byte	.LVL79
 5197 0332 08000000 		.4byte	.LVL80
 5198 0336 0200     		.2byte	0x2
 5199 0338 30       		.byte	0x30
 5200 0339 9F       		.byte	0x9f
 5201 033a 08000000 		.4byte	.LVL80
 5202 033e 1C000000 		.4byte	.LVL84
 5203 0342 0100     		.2byte	0x1
 5204 0344 54       		.byte	0x54
 5205 0345 00000000 		.4byte	0
 5206 0349 00000000 		.4byte	0
 5207              	.LLST26:
 5208 034d 02000000 		.4byte	.LVL79
 5209 0351 08000000 		.4byte	.LVL80
 5210 0355 0200     		.2byte	0x2
 5211 0357 30       		.byte	0x30
 5212 0358 9F       		.byte	0x9f
 5213 0359 08000000 		.4byte	.LVL80
 5214 035d 1C000000 		.4byte	.LVL85
 5215 0361 0100     		.2byte	0x1
 5216 0363 55       		.byte	0x55
 5217 0364 1C000000 		.4byte	.LVL85
 5218 0368 1E000000 		.4byte	.LFE60
 5219 036c 0100     		.2byte	0x1
 5220 036e 50       		.byte	0x50
 5221 036f 00000000 		.4byte	0
 5222 0373 00000000 		.4byte	0
 5223              	.LLST27:
 5224 0377 00000000 		.4byte	.LVL86
 5225 037b 08000000 		.4byte	.LVL88
 5226 037f 0100     		.2byte	0x1
 5227 0381 50       		.byte	0x50
 5228 0382 08000000 		.4byte	.LVL88
 5229 0386 2C000000 		.4byte	.LFE61
 5230 038a 0400     		.2byte	0x4
 5231 038c F3       		.byte	0xf3
 5232 038d 01       		.uleb128 0x1
 5233 038e 50       		.byte	0x50
 5234 038f 9F       		.byte	0x9f
 5235 0390 00000000 		.4byte	0
 5236 0394 00000000 		.4byte	0
 5237              	.LLST28:
 5238 0398 06000000 		.4byte	.LVL87
 5239 039c 1A000000 		.4byte	.LVL91
ARM GAS  C:\Users\Terence\AppData\Local\Temp\cc6R4aDx.s 			page 145


 5240 03a0 0100     		.2byte	0x1
 5241 03a2 54       		.byte	0x54
 5242 03a3 1C000000 		.4byte	.LVL92
 5243 03a7 20000000 		.4byte	.LVL93
 5244 03ab 0100     		.2byte	0x1
 5245 03ad 54       		.byte	0x54
 5246 03ae 00000000 		.4byte	0
 5247 03b2 00000000 		.4byte	0
 5248              	.LLST29:
 5249 03b6 0E000000 		.4byte	.LVL89
 5250 03ba 20000000 		.4byte	.LVL94
 5251 03be 0100     		.2byte	0x1
 5252 03c0 55       		.byte	0x55
 5253 03c1 20000000 		.4byte	.LVL94
 5254 03c5 2C000000 		.4byte	.LFE61
 5255 03c9 1E00     		.2byte	0x1e
 5256 03cb F3       		.byte	0xf3
 5257 03cc 01       		.uleb128 0x1
 5258 03cd 50       		.byte	0x50
 5259 03ce 03       		.byte	0x3
 5260 03cf 08000000 		.4byte	.LANCHOR2+8
 5261 03d3 22       		.byte	0x22
 5262 03d4 94       		.byte	0x94
 5263 03d5 01       		.byte	0x1
 5264 03d6 08       		.byte	0x8
 5265 03d7 FF       		.byte	0xff
 5266 03d8 1A       		.byte	0x1a
 5267 03d9 F3       		.byte	0xf3
 5268 03da 01       		.uleb128 0x1
 5269 03db 50       		.byte	0x50
 5270 03dc 03       		.byte	0x3
 5271 03dd 00000000 		.4byte	.LANCHOR2
 5272 03e1 22       		.byte	0x22
 5273 03e2 94       		.byte	0x94
 5274 03e3 01       		.byte	0x1
 5275 03e4 08       		.byte	0x8
 5276 03e5 FF       		.byte	0xff
 5277 03e6 1A       		.byte	0x1a
 5278 03e7 22       		.byte	0x22
 5279 03e8 9F       		.byte	0x9f
 5280 03e9 00000000 		.4byte	0
 5281 03ed 00000000 		.4byte	0
 5282              	.LLST30:
 5283 03f1 00000000 		.4byte	.LVL95
 5284 03f5 08000000 		.4byte	.LVL97
 5285 03f9 0100     		.2byte	0x1
 5286 03fb 50       		.byte	0x50
 5287 03fc 08000000 		.4byte	.LVL97
 5288 0400 2C000000 		.4byte	.LFE62
 5289 0404 0400     		.2byte	0x4
 5290 0406 F3       		.byte	0xf3
 5291 0407 01       		.uleb128 0x1
 5292 0408 50       		.byte	0x50
 5293 0409 9F       		.byte	0x9f
 5294 040a 00000000 		.4byte	0
 5295 040e 00000000 		.4byte	0
 5296              	.LLST31:
ARM GAS  C:\Users\Terence\AppData\Local\Temp\cc6R4aDx.s 			page 146


 5297 0412 06000000 		.4byte	.LVL96
 5298 0416 1A000000 		.4byte	.LVL100
 5299 041a 0100     		.2byte	0x1
 5300 041c 54       		.byte	0x54
 5301 041d 1C000000 		.4byte	.LVL101
 5302 0421 20000000 		.4byte	.LVL102
 5303 0425 0100     		.2byte	0x1
 5304 0427 54       		.byte	0x54
 5305 0428 00000000 		.4byte	0
 5306 042c 00000000 		.4byte	0
 5307              	.LLST32:
 5308 0430 0E000000 		.4byte	.LVL98
 5309 0434 20000000 		.4byte	.LVL103
 5310 0438 0100     		.2byte	0x1
 5311 043a 55       		.byte	0x55
 5312 043b 20000000 		.4byte	.LVL103
 5313 043f 2C000000 		.4byte	.LFE62
 5314 0443 1E00     		.2byte	0x1e
 5315 0445 F3       		.byte	0xf3
 5316 0446 01       		.uleb128 0x1
 5317 0447 50       		.byte	0x50
 5318 0448 03       		.byte	0x3
 5319 0449 08000000 		.4byte	.LANCHOR2+8
 5320 044d 22       		.byte	0x22
 5321 044e 94       		.byte	0x94
 5322 044f 01       		.byte	0x1
 5323 0450 08       		.byte	0x8
 5324 0451 FF       		.byte	0xff
 5325 0452 1A       		.byte	0x1a
 5326 0453 F3       		.byte	0xf3
 5327 0454 01       		.uleb128 0x1
 5328 0455 50       		.byte	0x50
 5329 0456 03       		.byte	0x3
 5330 0457 00000000 		.4byte	.LANCHOR2
 5331 045b 22       		.byte	0x22
 5332 045c 94       		.byte	0x94
 5333 045d 01       		.byte	0x1
 5334 045e 08       		.byte	0x8
 5335 045f FF       		.byte	0xff
 5336 0460 1A       		.byte	0x1a
 5337 0461 22       		.byte	0x22
 5338 0462 9F       		.byte	0x9f
 5339 0463 00000000 		.4byte	0
 5340 0467 00000000 		.4byte	0
 5341              	.LLST33:
 5342 046b 00000000 		.4byte	.LVL104
 5343 046f 0C000000 		.4byte	.LVL107
 5344 0473 0100     		.2byte	0x1
 5345 0475 50       		.byte	0x50
 5346 0476 0C000000 		.4byte	.LVL107
 5347 047a 2C000000 		.4byte	.LFE63
 5348 047e 0400     		.2byte	0x4
 5349 0480 F3       		.byte	0xf3
 5350 0481 01       		.uleb128 0x1
 5351 0482 50       		.byte	0x50
 5352 0483 9F       		.byte	0x9f
 5353 0484 00000000 		.4byte	0
ARM GAS  C:\Users\Terence\AppData\Local\Temp\cc6R4aDx.s 			page 147


 5354 0488 00000000 		.4byte	0
 5355              	.LLST34:
 5356 048c 08000000 		.4byte	.LVL106
 5357 0490 10000000 		.4byte	.LVL108
 5358 0494 0200     		.2byte	0x2
 5359 0496 30       		.byte	0x30
 5360 0497 9F       		.byte	0x9f
 5361 0498 10000000 		.4byte	.LVL108
 5362 049c 20000000 		.4byte	.LVL111
 5363 04a0 0100     		.2byte	0x1
 5364 04a2 53       		.byte	0x53
 5365 04a3 22000000 		.4byte	.LVL112
 5366 04a7 2C000000 		.4byte	.LFE63
 5367 04ab 0100     		.2byte	0x1
 5368 04ad 53       		.byte	0x53
 5369 04ae 00000000 		.4byte	0
 5370 04b2 00000000 		.4byte	0
 5371              	.LLST35:
 5372 04b6 02000000 		.4byte	.LVL105
 5373 04ba 10000000 		.4byte	.LVL108
 5374 04be 0300     		.2byte	0x3
 5375 04c0 09       		.byte	0x9
 5376 04c1 FF       		.byte	0xff
 5377 04c2 9F       		.byte	0x9f
 5378 04c3 10000000 		.4byte	.LVL108
 5379 04c7 2C000000 		.4byte	.LFE63
 5380 04cb 0100     		.2byte	0x1
 5381 04cd 50       		.byte	0x50
 5382 04ce 00000000 		.4byte	0
 5383 04d2 00000000 		.4byte	0
 5384              	.LLST36:
 5385 04d6 02000000 		.4byte	.LVL105
 5386 04da 10000000 		.4byte	.LVL108
 5387 04de 0200     		.2byte	0x2
 5388 04e0 30       		.byte	0x30
 5389 04e1 9F       		.byte	0x9f
 5390 04e2 10000000 		.4byte	.LVL108
 5391 04e6 1C000000 		.4byte	.LVL109
 5392 04ea 0100     		.2byte	0x1
 5393 04ec 56       		.byte	0x56
 5394 04ed 1E000000 		.4byte	.LVL110
 5395 04f1 26000000 		.4byte	.LVL114
 5396 04f5 0100     		.2byte	0x1
 5397 04f7 56       		.byte	0x56
 5398 04f8 00000000 		.4byte	0
 5399 04fc 00000000 		.4byte	0
 5400              	.LLST37:
 5401 0500 08000000 		.4byte	.LVL106
 5402 0504 26000000 		.4byte	.LVL113
 5403 0508 0100     		.2byte	0x1
 5404 050a 55       		.byte	0x55
 5405 050b 00000000 		.4byte	0
 5406 050f 00000000 		.4byte	0
 5407              	.LLST38:
 5408 0513 00000000 		.4byte	.LVL115
 5409 0517 0E000000 		.4byte	.LVL117
 5410 051b 0100     		.2byte	0x1
ARM GAS  C:\Users\Terence\AppData\Local\Temp\cc6R4aDx.s 			page 148


 5411 051d 50       		.byte	0x50
 5412 051e 0E000000 		.4byte	.LVL117
 5413 0522 E0000000 		.4byte	.LFE64
 5414 0526 0400     		.2byte	0x4
 5415 0528 F3       		.byte	0xf3
 5416 0529 01       		.uleb128 0x1
 5417 052a 50       		.byte	0x50
 5418 052b 9F       		.byte	0x9f
 5419 052c 00000000 		.4byte	0
 5420 0530 00000000 		.4byte	0
 5421              	.LLST39:
 5422 0534 00000000 		.4byte	.LVL115
 5423 0538 2A000000 		.4byte	.LVL121
 5424 053c 0100     		.2byte	0x1
 5425 053e 51       		.byte	0x51
 5426 053f 2A000000 		.4byte	.LVL121
 5427 0543 34000000 		.4byte	.LVL123
 5428 0547 0400     		.2byte	0x4
 5429 0549 F3       		.byte	0xf3
 5430 054a 01       		.uleb128 0x1
 5431 054b 51       		.byte	0x51
 5432 054c 9F       		.byte	0x9f
 5433 054d 34000000 		.4byte	.LVL123
 5434 0551 5C000000 		.4byte	.LVL132
 5435 0555 0100     		.2byte	0x1
 5436 0557 51       		.byte	0x51
 5437 0558 5C000000 		.4byte	.LVL132
 5438 055c E0000000 		.4byte	.LFE64
 5439 0560 0400     		.2byte	0x4
 5440 0562 F3       		.byte	0xf3
 5441 0563 01       		.uleb128 0x1
 5442 0564 51       		.byte	0x51
 5443 0565 9F       		.byte	0x9f
 5444 0566 00000000 		.4byte	0
 5445 056a 00000000 		.4byte	0
 5446              	.LLST40:
 5447 056e 00000000 		.4byte	.LVL115
 5448 0572 10000000 		.4byte	.LVL118
 5449 0576 0100     		.2byte	0x1
 5450 0578 52       		.byte	0x52
 5451 0579 10000000 		.4byte	.LVL118
 5452 057d E0000000 		.4byte	.LFE64
 5453 0581 0400     		.2byte	0x4
 5454 0583 F3       		.byte	0xf3
 5455 0584 01       		.uleb128 0x1
 5456 0585 52       		.byte	0x52
 5457 0586 9F       		.byte	0x9f
 5458 0587 00000000 		.4byte	0
 5459 058b 00000000 		.4byte	0
 5460              	.LLST41:
 5461 058f 00000000 		.4byte	.LVL115
 5462 0593 0C000000 		.4byte	.LVL116
 5463 0597 0100     		.2byte	0x1
 5464 0599 53       		.byte	0x53
 5465 059a 0C000000 		.4byte	.LVL116
 5466 059e E0000000 		.4byte	.LFE64
 5467 05a2 0400     		.2byte	0x4
ARM GAS  C:\Users\Terence\AppData\Local\Temp\cc6R4aDx.s 			page 149


 5468 05a4 F3       		.byte	0xf3
 5469 05a5 01       		.uleb128 0x1
 5470 05a6 53       		.byte	0x53
 5471 05a7 9F       		.byte	0x9f
 5472 05a8 00000000 		.4byte	0
 5473 05ac 00000000 		.4byte	0
 5474              	.LLST42:
 5475 05b0 00000000 		.4byte	.LVL115
 5476 05b4 0C000000 		.4byte	.LVL116
 5477 05b8 0200     		.2byte	0x2
 5478 05ba 91       		.byte	0x91
 5479 05bb 00       		.sleb128 0
 5480 05bc 0C000000 		.4byte	.LVL116
 5481 05c0 12000000 		.4byte	.LVL119
 5482 05c4 0200     		.2byte	0x2
 5483 05c6 73       		.byte	0x73
 5484 05c7 00       		.sleb128 0
 5485 05c8 12000000 		.4byte	.LVL119
 5486 05cc E0000000 		.4byte	.LFE64
 5487 05d0 0200     		.2byte	0x2
 5488 05d2 91       		.byte	0x91
 5489 05d3 00       		.sleb128 0
 5490 05d4 00000000 		.4byte	0
 5491 05d8 00000000 		.4byte	0
 5492              	.LLST43:
 5493 05dc B2000000 		.4byte	.LVL133
 5494 05e0 B8000000 		.4byte	.LVL135
 5495 05e4 0100     		.2byte	0x1
 5496 05e6 50       		.byte	0x50
 5497 05e7 B8000000 		.4byte	.LVL135
 5498 05eb BB000000 		.4byte	.LVL136-1
 5499 05ef 0E00     		.2byte	0xe
 5500 05f1 72       		.byte	0x72
 5501 05f2 00       		.sleb128 0
 5502 05f3 03       		.byte	0x3
 5503 05f4 48000000 		.4byte	CapSense_centroid.5507
 5504 05f8 94       		.byte	0x94
 5505 05f9 01       		.byte	0x1
 5506 05fa 08       		.byte	0x8
 5507 05fb FF       		.byte	0xff
 5508 05fc 1A       		.byte	0x1a
 5509 05fd 1C       		.byte	0x1c
 5510 05fe 9F       		.byte	0x9f
 5511 05ff 00000000 		.4byte	0
 5512 0603 00000000 		.4byte	0
 5513              	.LLST44:
 5514 0607 B6000000 		.4byte	.LVL134
 5515 060b BB000000 		.4byte	.LVL136-1
 5516 060f 0100     		.2byte	0x1
 5517 0611 51       		.byte	0x51
 5518 0612 BE000000 		.4byte	.LVL137
 5519 0616 C2000000 		.4byte	.LVL138
 5520 061a 0600     		.2byte	0x6
 5521 061c 70       		.byte	0x70
 5522 061d 00       		.sleb128 0
 5523 061e 74       		.byte	0x74
 5524 061f 00       		.sleb128 0
ARM GAS  C:\Users\Terence\AppData\Local\Temp\cc6R4aDx.s 			page 150


 5525 0620 22       		.byte	0x22
 5526 0621 9F       		.byte	0x9f
 5527 0622 C2000000 		.4byte	.LVL138
 5528 0626 DA000000 		.4byte	.LVL142
 5529 062a 0100     		.2byte	0x1
 5530 062c 54       		.byte	0x54
 5531 062d 00000000 		.4byte	0
 5532 0631 00000000 		.4byte	0
 5533              	.LLST45:
 5534 0635 16000000 		.4byte	.LVL120
 5535 0639 30000000 		.4byte	.LVL122
 5536 063d 0100     		.2byte	0x1
 5537 063f 53       		.byte	0x53
 5538 0640 34000000 		.4byte	.LVL123
 5539 0644 3C000000 		.4byte	.LVL124
 5540 0648 0100     		.2byte	0x1
 5541 064a 53       		.byte	0x53
 5542 064b 3C000000 		.4byte	.LVL124
 5543 064f 42000000 		.4byte	.LVL125
 5544 0653 0900     		.2byte	0x9
 5545 0655 71       		.byte	0x71
 5546 0656 00       		.sleb128 0
 5547 0657 03       		.byte	0x3
 5548 0658 2C000000 		.4byte	.LANCHOR0+44
 5549 065c 22       		.byte	0x22
 5550 065d 9F       		.byte	0x9f
 5551 065e 42000000 		.4byte	.LVL125
 5552 0662 4A000000 		.4byte	.LVL126
 5553 0666 0800     		.2byte	0x8
 5554 0668 73       		.byte	0x73
 5555 0669 00       		.sleb128 0
 5556 066a 71       		.byte	0x71
 5557 066b 00       		.sleb128 0
 5558 066c 22       		.byte	0x22
 5559 066d 23       		.byte	0x23
 5560 066e 2C       		.uleb128 0x2c
 5561 066f 9F       		.byte	0x9f
 5562 0670 4A000000 		.4byte	.LVL126
 5563 0674 4C000000 		.4byte	.LVL127
 5564 0678 0600     		.2byte	0x6
 5565 067a 72       		.byte	0x72
 5566 067b 00       		.sleb128 0
 5567 067c 71       		.byte	0x71
 5568 067d 00       		.sleb128 0
 5569 067e 22       		.byte	0x22
 5570 067f 9F       		.byte	0x9f
 5571 0680 4C000000 		.4byte	.LVL127
 5572 0684 4E000000 		.4byte	.LVL128
 5573 0688 0800     		.2byte	0x8
 5574 068a 73       		.byte	0x73
 5575 068b 00       		.sleb128 0
 5576 068c 71       		.byte	0x71
 5577 068d 00       		.sleb128 0
 5578 068e 22       		.byte	0x22
 5579 068f 23       		.byte	0x23
 5580 0690 2C       		.uleb128 0x2c
 5581 0691 9F       		.byte	0x9f
ARM GAS  C:\Users\Terence\AppData\Local\Temp\cc6R4aDx.s 			page 151


 5582 0692 4E000000 		.4byte	.LVL128
 5583 0696 52000000 		.4byte	.LVL129
 5584 069a 0900     		.2byte	0x9
 5585 069c 71       		.byte	0x71
 5586 069d 00       		.sleb128 0
 5587 069e 03       		.byte	0x3
 5588 069f 2C000000 		.4byte	.LANCHOR0+44
 5589 06a3 22       		.byte	0x22
 5590 06a4 9F       		.byte	0x9f
 5591 06a5 52000000 		.4byte	.LVL129
 5592 06a9 54000000 		.4byte	.LVL130
 5593 06ad 0100     		.2byte	0x1
 5594 06af 53       		.byte	0x53
 5595 06b0 54000000 		.4byte	.LVL130
 5596 06b4 5A000000 		.4byte	.LVL131
 5597 06b8 0900     		.2byte	0x9
 5598 06ba 71       		.byte	0x71
 5599 06bb 00       		.sleb128 0
 5600 06bc 03       		.byte	0x3
 5601 06bd 2C000000 		.4byte	.LANCHOR0+44
 5602 06c1 22       		.byte	0x22
 5603 06c2 9F       		.byte	0x9f
 5604 06c3 5A000000 		.4byte	.LVL131
 5605 06c7 5C000000 		.4byte	.LVL132
 5606 06cb 0800     		.2byte	0x8
 5607 06cd 72       		.byte	0x72
 5608 06ce 00       		.sleb128 0
 5609 06cf 71       		.byte	0x71
 5610 06d0 00       		.sleb128 0
 5611 06d1 22       		.byte	0x22
 5612 06d2 23       		.byte	0x23
 5613 06d3 2C       		.uleb128 0x2c
 5614 06d4 9F       		.byte	0x9f
 5615 06d5 00000000 		.4byte	0
 5616 06d9 00000000 		.4byte	0
 5617              	.LLST46:
 5618 06dd 00000000 		.4byte	.LVL143
 5619 06e1 16000000 		.4byte	.LVL146
 5620 06e5 0100     		.2byte	0x1
 5621 06e7 50       		.byte	0x50
 5622 06e8 16000000 		.4byte	.LVL146
 5623 06ec 3A000000 		.4byte	.LVL152
 5624 06f0 0100     		.2byte	0x1
 5625 06f2 54       		.byte	0x54
 5626 06f3 3A000000 		.4byte	.LVL152
 5627 06f7 4C000000 		.4byte	.LFE65
 5628 06fb 0400     		.2byte	0x4
 5629 06fd F3       		.byte	0xf3
 5630 06fe 01       		.uleb128 0x1
 5631 06ff 50       		.byte	0x50
 5632 0700 9F       		.byte	0x9f
 5633 0701 00000000 		.4byte	0
 5634 0705 00000000 		.4byte	0
 5635              	.LLST47:
 5636 0709 1C000000 		.4byte	.LVL147
 5637 070d 31000000 		.4byte	.LVL148-1
 5638 0711 0100     		.2byte	0x1
ARM GAS  C:\Users\Terence\AppData\Local\Temp\cc6R4aDx.s 			page 152


 5639 0713 50       		.byte	0x50
 5640 0714 36000000 		.4byte	.LVL150
 5641 0718 38000000 		.4byte	.LVL151
 5642 071c 0100     		.2byte	0x1
 5643 071e 50       		.byte	0x50
 5644 071f 00000000 		.4byte	0
 5645 0723 00000000 		.4byte	0
 5646              	.LLST48:
 5647 0727 34000000 		.4byte	.LVL149
 5648 072b 36000000 		.4byte	.LVL150
 5649 072f 0100     		.2byte	0x1
 5650 0731 50       		.byte	0x50
 5651 0732 38000000 		.4byte	.LVL151
 5652 0736 4C000000 		.4byte	.LFE65
 5653 073a 0100     		.2byte	0x1
 5654 073c 50       		.byte	0x50
 5655 073d 00000000 		.4byte	0
 5656 0741 00000000 		.4byte	0
 5657              	.LLST49:
 5658 0745 0A000000 		.4byte	.LVL144
 5659 0749 3A000000 		.4byte	.LVL153
 5660 074d 0100     		.2byte	0x1
 5661 074f 55       		.byte	0x55
 5662 0750 3A000000 		.4byte	.LVL153
 5663 0754 4C000000 		.4byte	.LFE65
 5664 0758 0900     		.2byte	0x9
 5665 075a F3       		.byte	0xf3
 5666 075b 01       		.uleb128 0x1
 5667 075c 50       		.byte	0x50
 5668 075d 03       		.byte	0x3
 5669 075e 00000000 		.4byte	.LANCHOR2
 5670 0762 22       		.byte	0x22
 5671 0763 00000000 		.4byte	0
 5672 0767 00000000 		.4byte	0
 5673              	.LLST50:
 5674 076b 0E000000 		.4byte	.LVL145
 5675 076f 3A000000 		.4byte	.LVL154
 5676 0773 0100     		.2byte	0x1
 5677 0775 56       		.byte	0x56
 5678 0776 3A000000 		.4byte	.LVL154
 5679 077a 4C000000 		.4byte	.LFE65
 5680 077e 0900     		.2byte	0x9
 5681 0780 F3       		.byte	0xf3
 5682 0781 01       		.uleb128 0x1
 5683 0782 50       		.byte	0x50
 5684 0783 03       		.byte	0x3
 5685 0784 08000000 		.4byte	.LANCHOR2+8
 5686 0788 22       		.byte	0x22
 5687 0789 00000000 		.4byte	0
 5688 078d 00000000 		.4byte	0
 5689              	.LLST51:
 5690 0791 00000000 		.4byte	.LVL155
 5691 0795 08000000 		.4byte	.LVL156
 5692 0799 0100     		.2byte	0x1
 5693 079b 50       		.byte	0x50
 5694 079c 08000000 		.4byte	.LVL156
 5695 07a0 0A000000 		.4byte	.LVL157
ARM GAS  C:\Users\Terence\AppData\Local\Temp\cc6R4aDx.s 			page 153


 5696 07a4 0400     		.2byte	0x4
 5697 07a6 F3       		.byte	0xf3
 5698 07a7 01       		.uleb128 0x1
 5699 07a8 50       		.byte	0x50
 5700 07a9 9F       		.byte	0x9f
 5701 07aa 0A000000 		.4byte	.LVL157
 5702 07ae 1A000000 		.4byte	.LVL159
 5703 07b2 0100     		.2byte	0x1
 5704 07b4 50       		.byte	0x50
 5705 07b5 00000000 		.4byte	0
 5706 07b9 00000000 		.4byte	0
 5707              	.LLST52:
 5708 07bd 00000000 		.4byte	.LVL155
 5709 07c1 0A000000 		.4byte	.LVL157
 5710 07c5 0100     		.2byte	0x1
 5711 07c7 51       		.byte	0x51
 5712 07c8 0A000000 		.4byte	.LVL157
 5713 07cc 1C000000 		.4byte	.LFE67
 5714 07d0 0100     		.2byte	0x1
 5715 07d2 51       		.byte	0x51
 5716 07d3 00000000 		.4byte	0
 5717 07d7 00000000 		.4byte	0
 5718              	.LLST53:
 5719 07db 00000000 		.4byte	.LVL160
 5720 07df 20000000 		.4byte	.LVL164
 5721 07e3 0100     		.2byte	0x1
 5722 07e5 50       		.byte	0x50
 5723 07e6 20000000 		.4byte	.LVL164
 5724 07ea 42000000 		.4byte	.LVL169
 5725 07ee 0100     		.2byte	0x1
 5726 07f0 54       		.byte	0x54
 5727 07f1 42000000 		.4byte	.LVL169
 5728 07f5 7C000000 		.4byte	.LVL176
 5729 07f9 0400     		.2byte	0x4
 5730 07fb F3       		.byte	0xf3
 5731 07fc 01       		.uleb128 0x1
 5732 07fd 50       		.byte	0x50
 5733 07fe 9F       		.byte	0x9f
 5734 07ff 7C000000 		.4byte	.LVL176
 5735 0803 86000000 		.4byte	.LVL177
 5736 0807 0100     		.2byte	0x1
 5737 0809 54       		.byte	0x54
 5738 080a 86000000 		.4byte	.LVL177
 5739 080e A0000000 		.4byte	.LFE66
 5740 0812 0400     		.2byte	0x4
 5741 0814 F3       		.byte	0xf3
 5742 0815 01       		.uleb128 0x1
 5743 0816 50       		.byte	0x50
 5744 0817 9F       		.byte	0x9f
 5745 0818 00000000 		.4byte	0
 5746 081c 00000000 		.4byte	0
 5747              	.LLST54:
 5748 0820 44000000 		.4byte	.LVL170
 5749 0824 56000000 		.4byte	.LVL171
 5750 0828 0100     		.2byte	0x1
 5751 082a 54       		.byte	0x54
 5752 082b 56000000 		.4byte	.LVL171
ARM GAS  C:\Users\Terence\AppData\Local\Temp\cc6R4aDx.s 			page 154


 5753 082f 5E000000 		.4byte	.LVL172
 5754 0833 0300     		.2byte	0x3
 5755 0835 74       		.byte	0x74
 5756 0836 7F       		.sleb128 -1
 5757 0837 9F       		.byte	0x9f
 5758 0838 5E000000 		.4byte	.LVL172
 5759 083c 7C000000 		.4byte	.LVL176
 5760 0840 0100     		.2byte	0x1
 5761 0842 54       		.byte	0x54
 5762 0843 00000000 		.4byte	0
 5763 0847 00000000 		.4byte	0
 5764              	.LLST55:
 5765 084b 12000000 		.4byte	.LVL161
 5766 084f 6E000000 		.4byte	.LVL174
 5767 0853 0100     		.2byte	0x1
 5768 0855 57       		.byte	0x57
 5769 0856 7C000000 		.4byte	.LVL176
 5770 085a 86000000 		.4byte	.LVL177
 5771 085e 0100     		.2byte	0x1
 5772 0860 57       		.byte	0x57
 5773 0861 00000000 		.4byte	0
 5774 0865 00000000 		.4byte	0
 5775              	.LLST56:
 5776 0869 5E000000 		.4byte	.LVL172
 5777 086d 7C000000 		.4byte	.LVL176
 5778 0871 0100     		.2byte	0x1
 5779 0873 55       		.byte	0x55
 5780 0874 00000000 		.4byte	0
 5781 0878 00000000 		.4byte	0
 5782              	.LLST57:
 5783 087c 26000000 		.4byte	.LVL165
 5784 0880 3B000000 		.4byte	.LVL166-1
 5785 0884 0100     		.2byte	0x1
 5786 0886 50       		.byte	0x50
 5787 0887 7C000000 		.4byte	.LVL176
 5788 088b 86000000 		.4byte	.LVL177
 5789 088f 0100     		.2byte	0x1
 5790 0891 50       		.byte	0x50
 5791 0892 00000000 		.4byte	0
 5792 0896 00000000 		.4byte	0
 5793              	.LLST58:
 5794 089a 40000000 		.4byte	.LVL168
 5795 089e 73000000 		.4byte	.LVL175-1
 5796 08a2 0100     		.2byte	0x1
 5797 08a4 50       		.byte	0x50
 5798 08a5 74000000 		.4byte	.LVL175
 5799 08a9 7C000000 		.4byte	.LVL176
 5800 08ad 0100     		.2byte	0x1
 5801 08af 50       		.byte	0x50
 5802 08b0 7C000000 		.4byte	.LVL176
 5803 08b4 86000000 		.4byte	.LVL177
 5804 08b8 0300     		.2byte	0x3
 5805 08ba 09       		.byte	0x9
 5806 08bb FF       		.byte	0xff
 5807 08bc 9F       		.byte	0x9f
 5808 08bd 86000000 		.4byte	.LVL177
 5809 08c1 A0000000 		.4byte	.LFE66
ARM GAS  C:\Users\Terence\AppData\Local\Temp\cc6R4aDx.s 			page 155


 5810 08c5 0100     		.2byte	0x1
 5811 08c7 50       		.byte	0x50
 5812 08c8 00000000 		.4byte	0
 5813 08cc 00000000 		.4byte	0
 5814              	.LLST59:
 5815 08d0 16000000 		.4byte	.LVL162
 5816 08d4 60000000 		.4byte	.LVL173
 5817 08d8 0100     		.2byte	0x1
 5818 08da 56       		.byte	0x56
 5819 08db 60000000 		.4byte	.LVL173
 5820 08df 7C000000 		.4byte	.LVL176
 5821 08e3 0900     		.2byte	0x9
 5822 08e5 F3       		.byte	0xf3
 5823 08e6 01       		.uleb128 0x1
 5824 08e7 50       		.byte	0x50
 5825 08e8 03       		.byte	0x3
 5826 08e9 00000000 		.4byte	.LANCHOR2
 5827 08ed 22       		.byte	0x22
 5828 08ee 7C000000 		.4byte	.LVL176
 5829 08f2 86000000 		.4byte	.LVL177
 5830 08f6 0100     		.2byte	0x1
 5831 08f8 56       		.byte	0x56
 5832 08f9 86000000 		.4byte	.LVL177
 5833 08fd A0000000 		.4byte	.LFE66
 5834 0901 0900     		.2byte	0x9
 5835 0903 F3       		.byte	0xf3
 5836 0904 01       		.uleb128 0x1
 5837 0905 50       		.byte	0x50
 5838 0906 03       		.byte	0x3
 5839 0907 00000000 		.4byte	.LANCHOR2
 5840 090b 22       		.byte	0x22
 5841 090c 00000000 		.4byte	0
 5842 0910 00000000 		.4byte	0
 5843              	.LLST60:
 5844 0914 1A000000 		.4byte	.LVL163
 5845 0918 3E000000 		.4byte	.LVL167
 5846 091c 0100     		.2byte	0x1
 5847 091e 55       		.byte	0x55
 5848 091f 3E000000 		.4byte	.LVL167
 5849 0923 42000000 		.4byte	.LVL169
 5850 0927 0800     		.2byte	0x8
 5851 0929 74       		.byte	0x74
 5852 092a 00       		.sleb128 0
 5853 092b 03       		.byte	0x3
 5854 092c 08000000 		.4byte	.LANCHOR2+8
 5855 0930 22       		.byte	0x22
 5856 0931 42000000 		.4byte	.LVL169
 5857 0935 7C000000 		.4byte	.LVL176
 5858 0939 0900     		.2byte	0x9
 5859 093b F3       		.byte	0xf3
 5860 093c 01       		.uleb128 0x1
 5861 093d 50       		.byte	0x50
 5862 093e 03       		.byte	0x3
 5863 093f 08000000 		.4byte	.LANCHOR2+8
 5864 0943 22       		.byte	0x22
 5865 0944 7C000000 		.4byte	.LVL176
 5866 0948 86000000 		.4byte	.LVL177
ARM GAS  C:\Users\Terence\AppData\Local\Temp\cc6R4aDx.s 			page 156


 5867 094c 0100     		.2byte	0x1
 5868 094e 55       		.byte	0x55
 5869 094f 86000000 		.4byte	.LVL177
 5870 0953 A0000000 		.4byte	.LFE66
 5871 0957 0900     		.2byte	0x9
 5872 0959 F3       		.byte	0xf3
 5873 095a 01       		.uleb128 0x1
 5874 095b 50       		.byte	0x50
 5875 095c 03       		.byte	0x3
 5876 095d 08000000 		.4byte	.LANCHOR2+8
 5877 0961 22       		.byte	0x22
 5878 0962 00000000 		.4byte	0
 5879 0966 00000000 		.4byte	0
 5880              	.LLST61:
 5881 096a 00000000 		.4byte	.LVL178
 5882 096e 06000000 		.4byte	.LVL181
 5883 0972 0100     		.2byte	0x1
 5884 0974 50       		.byte	0x50
 5885 0975 06000000 		.4byte	.LVL181
 5886 0979 0C000000 		.4byte	.LFE68
 5887 097d 0400     		.2byte	0x4
 5888 097f F3       		.byte	0xf3
 5889 0980 01       		.uleb128 0x1
 5890 0981 50       		.byte	0x50
 5891 0982 9F       		.byte	0x9f
 5892 0983 00000000 		.4byte	0
 5893 0987 00000000 		.4byte	0
 5894              	.LLST62:
 5895 098b 00000000 		.4byte	.LVL178
 5896 098f 04000000 		.4byte	.LVL180
 5897 0993 0100     		.2byte	0x1
 5898 0995 51       		.byte	0x51
 5899 0996 04000000 		.4byte	.LVL180
 5900 099a 0C000000 		.4byte	.LFE68
 5901 099e 0400     		.2byte	0x4
 5902 09a0 F3       		.byte	0xf3
 5903 09a1 01       		.uleb128 0x1
 5904 09a2 51       		.byte	0x51
 5905 09a3 9F       		.byte	0x9f
 5906 09a4 00000000 		.4byte	0
 5907 09a8 00000000 		.4byte	0
 5908              	.LLST63:
 5909 09ac 02000000 		.4byte	.LVL179
 5910 09b0 06000000 		.4byte	.LVL181
 5911 09b4 0100     		.2byte	0x1
 5912 09b6 53       		.byte	0x53
 5913 09b7 06000000 		.4byte	.LVL181
 5914 09bb 0A000000 		.4byte	.LVL183
 5915 09bf 0100     		.2byte	0x1
 5916 09c1 50       		.byte	0x50
 5917 09c2 0A000000 		.4byte	.LVL183
 5918 09c6 0C000000 		.4byte	.LFE68
 5919 09ca 0800     		.2byte	0x8
 5920 09cc 71       		.byte	0x71
 5921 09cd 00       		.sleb128 0
 5922 09ce 73       		.byte	0x73
 5923 09cf 00       		.sleb128 0
ARM GAS  C:\Users\Terence\AppData\Local\Temp\cc6R4aDx.s 			page 157


 5924 09d0 22       		.byte	0x22
 5925 09d1 32       		.byte	0x32
 5926 09d2 25       		.byte	0x25
 5927 09d3 9F       		.byte	0x9f
 5928 09d4 00000000 		.4byte	0
 5929 09d8 00000000 		.4byte	0
 5930              	.LLST64:
 5931 09dc 00000000 		.4byte	.LVL184
 5932 09e0 2E000000 		.4byte	.LVL187
 5933 09e4 0100     		.2byte	0x1
 5934 09e6 50       		.byte	0x50
 5935 09e7 2E000000 		.4byte	.LVL187
 5936 09eb F6000000 		.4byte	.LVL206
 5937 09ef 0100     		.2byte	0x1
 5938 09f1 54       		.byte	0x54
 5939 09f2 F6000000 		.4byte	.LVL206
 5940 09f6 20010000 		.4byte	.LFE40
 5941 09fa 0400     		.2byte	0x4
 5942 09fc F3       		.byte	0xf3
 5943 09fd 01       		.uleb128 0x1
 5944 09fe 50       		.byte	0x50
 5945 09ff 9F       		.byte	0x9f
 5946 0a00 00000000 		.4byte	0
 5947 0a04 00000000 		.4byte	0
 5948              	.LLST65:
 5949 0a08 AE000000 		.4byte	.LVL197
 5950 0a0c B8000000 		.4byte	.LVL199
 5951 0a10 0100     		.2byte	0x1
 5952 0a12 53       		.byte	0x53
 5953 0a13 B8000000 		.4byte	.LVL199
 5954 0a17 C8000000 		.4byte	.LVL201
 5955 0a1b 0100     		.2byte	0x1
 5956 0a1d 57       		.byte	0x57
 5957 0a1e 00000000 		.4byte	0
 5958 0a22 00000000 		.4byte	0
 5959              	.LLST66:
 5960 0a26 56000000 		.4byte	.LVL192
 5961 0a2a 5C000000 		.4byte	.LVL193
 5962 0a2e 0200     		.2byte	0x2
 5963 0a30 31       		.byte	0x31
 5964 0a31 9F       		.byte	0x9f
 5965 0a32 60000000 		.4byte	.LVL194
 5966 0a36 64000000 		.4byte	.LVL195
 5967 0a3a 0200     		.2byte	0x2
 5968 0a3c 30       		.byte	0x30
 5969 0a3d 9F       		.byte	0x9f
 5970 0a3e 64000000 		.4byte	.LVL195
 5971 0a42 D6000000 		.4byte	.LVL202
 5972 0a46 0100     		.2byte	0x1
 5973 0a48 58       		.byte	0x58
 5974 0a49 D6000000 		.4byte	.LVL202
 5975 0a4d DE000000 		.4byte	.LVL203
 5976 0a51 0100     		.2byte	0x1
 5977 0a53 53       		.byte	0x53
 5978 0a54 DE000000 		.4byte	.LVL203
 5979 0a58 E4000000 		.4byte	.LVL204
 5980 0a5c 0100     		.2byte	0x1
ARM GAS  C:\Users\Terence\AppData\Local\Temp\cc6R4aDx.s 			page 158


 5981 0a5e 58       		.byte	0x58
 5982 0a5f E4000000 		.4byte	.LVL204
 5983 0a63 E6000000 		.4byte	.LVL205
 5984 0a67 0100     		.2byte	0x1
 5985 0a69 53       		.byte	0x53
 5986 0a6a E6000000 		.4byte	.LVL205
 5987 0a6e F6000000 		.4byte	.LVL208
 5988 0a72 0100     		.2byte	0x1
 5989 0a74 58       		.byte	0x58
 5990 0a75 00000000 		.4byte	0
 5991 0a79 00000000 		.4byte	0
 5992              	.LLST67:
 5993 0a7d 56000000 		.4byte	.LVL192
 5994 0a81 5C000000 		.4byte	.LVL193
 5995 0a85 0100     		.2byte	0x1
 5996 0a87 55       		.byte	0x55
 5997 0a88 60000000 		.4byte	.LVL194
 5998 0a8c F6000000 		.4byte	.LVL207
 5999 0a90 0100     		.2byte	0x1
 6000 0a92 55       		.byte	0x55
 6001 0a93 00000000 		.4byte	0
 6002 0a97 00000000 		.4byte	0
 6003              	.LLST68:
 6004 0a9b 1A000000 		.4byte	.LVL186
 6005 0a9f 34000000 		.4byte	.LVL189
 6006 0aa3 0100     		.2byte	0x1
 6007 0aa5 57       		.byte	0x57
 6008 0aa6 34000000 		.4byte	.LVL189
 6009 0aaa 38000000 		.4byte	.LVL190
 6010 0aae 0100     		.2byte	0x1
 6011 0ab0 50       		.byte	0x50
 6012 0ab1 38000000 		.4byte	.LVL190
 6013 0ab5 B8000000 		.4byte	.LVL199
 6014 0ab9 0100     		.2byte	0x1
 6015 0abb 57       		.byte	0x57
 6016 0abc 00000000 		.4byte	0
 6017 0ac0 00000000 		.4byte	0
 6018              	.LLST69:
 6019 0ac4 00000000 		.4byte	.LVL209
 6020 0ac8 07000000 		.4byte	.LVL210-1
 6021 0acc 0100     		.2byte	0x1
 6022 0ace 50       		.byte	0x50
 6023 0acf 07000000 		.4byte	.LVL210-1
 6024 0ad3 0E000000 		.4byte	.LVL212
 6025 0ad7 0100     		.2byte	0x1
 6026 0ad9 54       		.byte	0x54
 6027 0ada 0E000000 		.4byte	.LVL212
 6028 0ade 10000000 		.4byte	.LFE41
 6029 0ae2 0400     		.2byte	0x4
 6030 0ae4 F3       		.byte	0xf3
 6031 0ae5 01       		.uleb128 0x1
 6032 0ae6 50       		.byte	0x50
 6033 0ae7 9F       		.byte	0x9f
 6034 0ae8 00000000 		.4byte	0
 6035 0aec 00000000 		.4byte	0
 6036              	.LLST70:
 6037 0af0 02000000 		.4byte	.LVL213
ARM GAS  C:\Users\Terence\AppData\Local\Temp\cc6R4aDx.s 			page 159


 6038 0af4 06000000 		.4byte	.LVL214
 6039 0af8 0200     		.2byte	0x2
 6040 0afa 30       		.byte	0x30
 6041 0afb 9F       		.byte	0x9f
 6042 0afc 06000000 		.4byte	.LVL214
 6043 0b00 1E000000 		.4byte	.LVL219
 6044 0b04 0100     		.2byte	0x1
 6045 0b06 54       		.byte	0x54
 6046 0b07 00000000 		.4byte	0
 6047 0b0b 00000000 		.4byte	0
 6048              	.LLST71:
 6049 0b0f 0E000000 		.4byte	.LVL215
 6050 0b13 14000000 		.4byte	.LVL216
 6051 0b17 0100     		.2byte	0x1
 6052 0b19 50       		.byte	0x50
 6053 0b1a 00000000 		.4byte	0
 6054 0b1e 00000000 		.4byte	0
 6055              	.LLST72:
 6056 0b22 00000000 		.4byte	.LVL220
 6057 0b26 0E000000 		.4byte	.LVL224
 6058 0b2a 0100     		.2byte	0x1
 6059 0b2c 50       		.byte	0x50
 6060 0b2d 0E000000 		.4byte	.LVL224
 6061 0b31 30000000 		.4byte	.LFE43
 6062 0b35 0400     		.2byte	0x4
 6063 0b37 F3       		.byte	0xf3
 6064 0b38 01       		.uleb128 0x1
 6065 0b39 50       		.byte	0x50
 6066 0b3a 9F       		.byte	0x9f
 6067 0b3b 00000000 		.4byte	0
 6068 0b3f 00000000 		.4byte	0
 6069              	.LLST73:
 6070 0b43 08000000 		.4byte	.LVL221
 6071 0b47 0C000000 		.4byte	.LVL223
 6072 0b4b 0100     		.2byte	0x1
 6073 0b4d 55       		.byte	0x55
 6074 0b4e 0C000000 		.4byte	.LVL223
 6075 0b52 0E000000 		.4byte	.LVL224
 6076 0b56 0800     		.2byte	0x8
 6077 0b58 72       		.byte	0x72
 6078 0b59 08       		.sleb128 8
 6079 0b5a 94       		.byte	0x94
 6080 0b5b 01       		.byte	0x1
 6081 0b5c 08       		.byte	0x8
 6082 0b5d FF       		.byte	0xff
 6083 0b5e 1A       		.byte	0x1a
 6084 0b5f 9F       		.byte	0x9f
 6085 0b60 0E000000 		.4byte	.LVL224
 6086 0b64 30000000 		.4byte	.LFE43
 6087 0b68 0F00     		.2byte	0xf
 6088 0b6a F3       		.byte	0xf3
 6089 0b6b 01       		.uleb128 0x1
 6090 0b6c 50       		.byte	0x50
 6091 0b6d 03       		.byte	0x3
 6092 0b6e 08000000 		.4byte	.LANCHOR2+8
 6093 0b72 22       		.byte	0x22
 6094 0b73 94       		.byte	0x94
ARM GAS  C:\Users\Terence\AppData\Local\Temp\cc6R4aDx.s 			page 160


 6095 0b74 01       		.byte	0x1
 6096 0b75 08       		.byte	0x8
 6097 0b76 FF       		.byte	0xff
 6098 0b77 1A       		.byte	0x1a
 6099 0b78 9F       		.byte	0x9f
 6100 0b79 00000000 		.4byte	0
 6101 0b7d 00000000 		.4byte	0
 6102              	.LLST74:
 6103 0b81 0A000000 		.4byte	.LVL222
 6104 0b85 0E000000 		.4byte	.LVL224
 6105 0b89 0100     		.2byte	0x1
 6106 0b8b 54       		.byte	0x54
 6107 0b8c 0E000000 		.4byte	.LVL224
 6108 0b90 30000000 		.4byte	.LFE43
 6109 0b94 0F00     		.2byte	0xf
 6110 0b96 F3       		.byte	0xf3
 6111 0b97 01       		.uleb128 0x1
 6112 0b98 50       		.byte	0x50
 6113 0b99 03       		.byte	0x3
 6114 0b9a 00000000 		.4byte	.LANCHOR2
 6115 0b9e 22       		.byte	0x22
 6116 0b9f 94       		.byte	0x94
 6117 0ba0 01       		.byte	0x1
 6118 0ba1 08       		.byte	0x8
 6119 0ba2 FF       		.byte	0xff
 6120 0ba3 1A       		.byte	0x1a
 6121 0ba4 9F       		.byte	0x9f
 6122 0ba5 00000000 		.4byte	0
 6123 0ba9 00000000 		.4byte	0
 6124              	.LLST75:
 6125 0bad 0C000000 		.4byte	.LVL223
 6126 0bb1 26000000 		.4byte	.LVL230
 6127 0bb5 0100     		.2byte	0x1
 6128 0bb7 55       		.byte	0x55
 6129 0bb8 26000000 		.4byte	.LVL230
 6130 0bbc 30000000 		.4byte	.LFE43
 6131 0bc0 1E00     		.2byte	0x1e
 6132 0bc2 F3       		.byte	0xf3
 6133 0bc3 01       		.uleb128 0x1
 6134 0bc4 50       		.byte	0x50
 6135 0bc5 03       		.byte	0x3
 6136 0bc6 08000000 		.4byte	.LANCHOR2+8
 6137 0bca 22       		.byte	0x22
 6138 0bcb 94       		.byte	0x94
 6139 0bcc 01       		.byte	0x1
 6140 0bcd 08       		.byte	0x8
 6141 0bce FF       		.byte	0xff
 6142 0bcf 1A       		.byte	0x1a
 6143 0bd0 F3       		.byte	0xf3
 6144 0bd1 01       		.uleb128 0x1
 6145 0bd2 50       		.byte	0x50
 6146 0bd3 03       		.byte	0x3
 6147 0bd4 00000000 		.4byte	.LANCHOR2
 6148 0bd8 22       		.byte	0x22
 6149 0bd9 94       		.byte	0x94
 6150 0bda 01       		.byte	0x1
 6151 0bdb 08       		.byte	0x8
ARM GAS  C:\Users\Terence\AppData\Local\Temp\cc6R4aDx.s 			page 161


 6152 0bdc FF       		.byte	0xff
 6153 0bdd 1A       		.byte	0x1a
 6154 0bde 22       		.byte	0x22
 6155 0bdf 9F       		.byte	0x9f
 6156 0be0 00000000 		.4byte	0
 6157 0be4 00000000 		.4byte	0
 6158              	.LLST76:
 6159 0be8 0C000000 		.4byte	.LVL223
 6160 0bec 26000000 		.4byte	.LVL229
 6161 0bf0 0100     		.2byte	0x1
 6162 0bf2 54       		.byte	0x54
 6163 0bf3 00000000 		.4byte	0
 6164 0bf7 00000000 		.4byte	0
 6165              	.LLST77:
 6166 0bfb 16000000 		.4byte	.LVL225
 6167 0bff 1C000000 		.4byte	.LVL226
 6168 0c03 0100     		.2byte	0x1
 6169 0c05 50       		.byte	0x50
 6170 0c06 00000000 		.4byte	0
 6171 0c0a 00000000 		.4byte	0
 6172              	.LLST78:
 6173 0c0e 00000000 		.4byte	.LVL231
 6174 0c12 04000000 		.4byte	.LVL232
 6175 0c16 0100     		.2byte	0x1
 6176 0c18 50       		.byte	0x50
 6177 0c19 04000000 		.4byte	.LVL232
 6178 0c1d 0C000000 		.4byte	.LFE69
 6179 0c21 0400     		.2byte	0x4
 6180 0c23 F3       		.byte	0xf3
 6181 0c24 01       		.uleb128 0x1
 6182 0c25 50       		.byte	0x50
 6183 0c26 9F       		.byte	0x9f
 6184 0c27 00000000 		.4byte	0
 6185 0c2b 00000000 		.4byte	0
 6186              	.LLST79:
 6187 0c2f 00000000 		.4byte	.LVL233
 6188 0c33 04000000 		.4byte	.LVL234
 6189 0c37 0100     		.2byte	0x1
 6190 0c39 50       		.byte	0x50
 6191 0c3a 04000000 		.4byte	.LVL234
 6192 0c3e 0C000000 		.4byte	.LFE70
 6193 0c42 0400     		.2byte	0x4
 6194 0c44 F3       		.byte	0xf3
 6195 0c45 01       		.uleb128 0x1
 6196 0c46 50       		.byte	0x50
 6197 0c47 9F       		.byte	0x9f
 6198 0c48 00000000 		.4byte	0
 6199 0c4c 00000000 		.4byte	0
 6200              	.LLST80:
 6201 0c50 00000000 		.4byte	.LVL235
 6202 0c54 04000000 		.4byte	.LVL236
 6203 0c58 0100     		.2byte	0x1
 6204 0c5a 50       		.byte	0x50
 6205 0c5b 04000000 		.4byte	.LVL236
 6206 0c5f 0C000000 		.4byte	.LFE71
 6207 0c63 0400     		.2byte	0x4
 6208 0c65 F3       		.byte	0xf3
ARM GAS  C:\Users\Terence\AppData\Local\Temp\cc6R4aDx.s 			page 162


 6209 0c66 01       		.uleb128 0x1
 6210 0c67 50       		.byte	0x50
 6211 0c68 9F       		.byte	0x9f
 6212 0c69 00000000 		.4byte	0
 6213 0c6d 00000000 		.4byte	0
 6214              		.section	.debug_aranges,"",%progbits
 6215 0000 44010000 		.4byte	0x144
 6216 0004 0200     		.2byte	0x2
 6217 0006 00000000 		.4byte	.Ldebug_info0
 6218 000a 04       		.byte	0x4
 6219 000b 00       		.byte	0
 6220 000c 0000     		.2byte	0
 6221 000e 0000     		.2byte	0
 6222 0010 00000000 		.4byte	.LFB36
 6223 0014 48000000 		.4byte	.LFE36-.LFB36
 6224 0018 00000000 		.4byte	.LFB37
 6225 001c 18000000 		.4byte	.LFE37-.LFB37
 6226 0020 00000000 		.4byte	.LFB38
 6227 0024 14000000 		.4byte	.LFE38-.LFB38
 6228 0028 00000000 		.4byte	.LFB39
 6229 002c 30000000 		.4byte	.LFE39-.LFB39
 6230 0030 00000000 		.4byte	.LFB44
 6231 0034 0C000000 		.4byte	.LFE44-.LFB44
 6232 0038 00000000 		.4byte	.LFB45
 6233 003c 0C000000 		.4byte	.LFE45-.LFB45
 6234 0040 00000000 		.4byte	.LFB46
 6235 0044 0C000000 		.4byte	.LFE46-.LFB46
 6236 0048 00000000 		.4byte	.LFB47
 6237 004c 0C000000 		.4byte	.LFE47-.LFB47
 6238 0050 00000000 		.4byte	.LFB48
 6239 0054 0C000000 		.4byte	.LFE48-.LFB48
 6240 0058 00000000 		.4byte	.LFB49
 6241 005c 0C000000 		.4byte	.LFE49-.LFB49
 6242 0060 00000000 		.4byte	.LFB50
 6243 0064 0C000000 		.4byte	.LFE50-.LFB50
 6244 0068 00000000 		.4byte	.LFB51
 6245 006c 0C000000 		.4byte	.LFE51-.LFB51
 6246 0070 00000000 		.4byte	.LFB52
 6247 0074 0C000000 		.4byte	.LFE52-.LFB52
 6248 0078 00000000 		.4byte	.LFB53
 6249 007c 0C000000 		.4byte	.LFE53-.LFB53
 6250 0080 00000000 		.4byte	.LFB54
 6251 0084 0C000000 		.4byte	.LFE54-.LFB54
 6252 0088 00000000 		.4byte	.LFB55
 6253 008c 0C000000 		.4byte	.LFE55-.LFB55
 6254 0090 00000000 		.4byte	.LFB56
 6255 0094 0C000000 		.4byte	.LFE56-.LFB56
 6256 0098 00000000 		.4byte	.LFB57
 6257 009c 0C000000 		.4byte	.LFE57-.LFB57
 6258 00a0 00000000 		.4byte	.LFB58
 6259 00a4 B8000000 		.4byte	.LFE58-.LFB58
 6260 00a8 00000000 		.4byte	.LFB59
 6261 00ac 28000000 		.4byte	.LFE59-.LFB59
 6262 00b0 00000000 		.4byte	.LFB60
 6263 00b4 1E000000 		.4byte	.LFE60-.LFB60
 6264 00b8 00000000 		.4byte	.LFB61
 6265 00bc 2C000000 		.4byte	.LFE61-.LFB61
ARM GAS  C:\Users\Terence\AppData\Local\Temp\cc6R4aDx.s 			page 163


 6266 00c0 00000000 		.4byte	.LFB62
 6267 00c4 2C000000 		.4byte	.LFE62-.LFB62
 6268 00c8 00000000 		.4byte	.LFB63
 6269 00cc 2C000000 		.4byte	.LFE63-.LFB63
 6270 00d0 00000000 		.4byte	.LFB64
 6271 00d4 E0000000 		.4byte	.LFE64-.LFB64
 6272 00d8 00000000 		.4byte	.LFB65
 6273 00dc 4C000000 		.4byte	.LFE65-.LFB65
 6274 00e0 00000000 		.4byte	.LFB67
 6275 00e4 1C000000 		.4byte	.LFE67-.LFB67
 6276 00e8 00000000 		.4byte	.LFB66
 6277 00ec A0000000 		.4byte	.LFE66-.LFB66
 6278 00f0 00000000 		.4byte	.LFB68
 6279 00f4 0C000000 		.4byte	.LFE68-.LFB68
 6280 00f8 00000000 		.4byte	.LFB40
 6281 00fc 20010000 		.4byte	.LFE40-.LFB40
 6282 0100 00000000 		.4byte	.LFB41
 6283 0104 10000000 		.4byte	.LFE41-.LFB41
 6284 0108 00000000 		.4byte	.LFB42
 6285 010c 24000000 		.4byte	.LFE42-.LFB42
 6286 0110 00000000 		.4byte	.LFB43
 6287 0114 30000000 		.4byte	.LFE43-.LFB43
 6288 0118 00000000 		.4byte	.LFB69
 6289 011c 0C000000 		.4byte	.LFE69-.LFB69
 6290 0120 00000000 		.4byte	.LFB70
 6291 0124 0C000000 		.4byte	.LFE70-.LFB70
 6292 0128 00000000 		.4byte	.LFB71
 6293 012c 0C000000 		.4byte	.LFE71-.LFB71
 6294 0130 00000000 		.4byte	.LFB72
 6295 0134 10000000 		.4byte	.LFE72-.LFB72
 6296 0138 00000000 		.4byte	.LFB73
 6297 013c 10000000 		.4byte	.LFE73-.LFB73
 6298 0140 00000000 		.4byte	0
 6299 0144 00000000 		.4byte	0
 6300              		.section	.debug_ranges,"",%progbits
 6301              	.Ldebug_ranges0:
 6302 0000 00000000 		.4byte	.LFB36
 6303 0004 48000000 		.4byte	.LFE36
 6304 0008 00000000 		.4byte	.LFB37
 6305 000c 18000000 		.4byte	.LFE37
 6306 0010 00000000 		.4byte	.LFB38
 6307 0014 14000000 		.4byte	.LFE38
 6308 0018 00000000 		.4byte	.LFB39
 6309 001c 30000000 		.4byte	.LFE39
 6310 0020 00000000 		.4byte	.LFB44
 6311 0024 0C000000 		.4byte	.LFE44
 6312 0028 00000000 		.4byte	.LFB45
 6313 002c 0C000000 		.4byte	.LFE45
 6314 0030 00000000 		.4byte	.LFB46
 6315 0034 0C000000 		.4byte	.LFE46
 6316 0038 00000000 		.4byte	.LFB47
 6317 003c 0C000000 		.4byte	.LFE47
 6318 0040 00000000 		.4byte	.LFB48
 6319 0044 0C000000 		.4byte	.LFE48
 6320 0048 00000000 		.4byte	.LFB49
 6321 004c 0C000000 		.4byte	.LFE49
 6322 0050 00000000 		.4byte	.LFB50
ARM GAS  C:\Users\Terence\AppData\Local\Temp\cc6R4aDx.s 			page 164


 6323 0054 0C000000 		.4byte	.LFE50
 6324 0058 00000000 		.4byte	.LFB51
 6325 005c 0C000000 		.4byte	.LFE51
 6326 0060 00000000 		.4byte	.LFB52
 6327 0064 0C000000 		.4byte	.LFE52
 6328 0068 00000000 		.4byte	.LFB53
 6329 006c 0C000000 		.4byte	.LFE53
 6330 0070 00000000 		.4byte	.LFB54
 6331 0074 0C000000 		.4byte	.LFE54
 6332 0078 00000000 		.4byte	.LFB55
 6333 007c 0C000000 		.4byte	.LFE55
 6334 0080 00000000 		.4byte	.LFB56
 6335 0084 0C000000 		.4byte	.LFE56
 6336 0088 00000000 		.4byte	.LFB57
 6337 008c 0C000000 		.4byte	.LFE57
 6338 0090 00000000 		.4byte	.LFB58
 6339 0094 B8000000 		.4byte	.LFE58
 6340 0098 00000000 		.4byte	.LFB59
 6341 009c 28000000 		.4byte	.LFE59
 6342 00a0 00000000 		.4byte	.LFB60
 6343 00a4 1E000000 		.4byte	.LFE60
 6344 00a8 00000000 		.4byte	.LFB61
 6345 00ac 2C000000 		.4byte	.LFE61
 6346 00b0 00000000 		.4byte	.LFB62
 6347 00b4 2C000000 		.4byte	.LFE62
 6348 00b8 00000000 		.4byte	.LFB63
 6349 00bc 2C000000 		.4byte	.LFE63
 6350 00c0 00000000 		.4byte	.LFB64
 6351 00c4 E0000000 		.4byte	.LFE64
 6352 00c8 00000000 		.4byte	.LFB65
 6353 00cc 4C000000 		.4byte	.LFE65
 6354 00d0 00000000 		.4byte	.LFB67
 6355 00d4 1C000000 		.4byte	.LFE67
 6356 00d8 00000000 		.4byte	.LFB66
 6357 00dc A0000000 		.4byte	.LFE66
 6358 00e0 00000000 		.4byte	.LFB68
 6359 00e4 0C000000 		.4byte	.LFE68
 6360 00e8 00000000 		.4byte	.LFB40
 6361 00ec 20010000 		.4byte	.LFE40
 6362 00f0 00000000 		.4byte	.LFB41
 6363 00f4 10000000 		.4byte	.LFE41
 6364 00f8 00000000 		.4byte	.LFB42
 6365 00fc 24000000 		.4byte	.LFE42
 6366 0100 00000000 		.4byte	.LFB43
 6367 0104 30000000 		.4byte	.LFE43
 6368 0108 00000000 		.4byte	.LFB69
 6369 010c 0C000000 		.4byte	.LFE69
 6370 0110 00000000 		.4byte	.LFB70
 6371 0114 0C000000 		.4byte	.LFE70
 6372 0118 00000000 		.4byte	.LFB71
 6373 011c 0C000000 		.4byte	.LFE71
 6374 0120 00000000 		.4byte	.LFB72
 6375 0124 10000000 		.4byte	.LFE72
 6376 0128 00000000 		.4byte	.LFB73
 6377 012c 10000000 		.4byte	.LFE73
 6378 0130 00000000 		.4byte	0
 6379 0134 00000000 		.4byte	0
ARM GAS  C:\Users\Terence\AppData\Local\Temp\cc6R4aDx.s 			page 165


 6380              		.section	.debug_line,"",%progbits
 6381              	.Ldebug_line0:
 6382 0000 85040000 		.section	.debug_str,"MS",%progbits,1
 6382      02006C00 
 6382      00000201 
 6382      FB0E0D00 
 6382      01010101 
 6383              	.LASF129:
 6384 0000 43617053 		.ascii	"CapSense_sensorBaselineLow\000"
 6384      656E7365 
 6384      5F73656E 
 6384      736F7242 
 6384      6173656C 
 6385              	.LASF104:
 6386 001b 43617053 		.ascii	"CapSense_IIR4Filter\000"
 6386      656E7365 
 6386      5F494952 
 6386      3446696C 
 6386      74657200 
 6387              	.LASF121:
 6388 002f 43617053 		.ascii	"CapSense_debounceCounter\000"
 6388      656E7365 
 6388      5F646562 
 6388      6F756E63 
 6388      65436F75 
 6389              	.LASF32:
 6390 0048 7363616E 		.ascii	"scanSpeedTbl\000"
 6390      53706565 
 6390      6454626C 
 6390      00
 6391              	.LASF132:
 6392 0055 43617053 		.ascii	"CapSense_lowBaselineResetCnt\000"
 6392      656E7365 
 6392      5F6C6F77 
 6392      42617365 
 6392      6C696E65 
 6393              	.LASF105:
 6394 0072 43617053 		.ascii	"CapSense_UpdateBaselineNoThreshold\000"
 6394      656E7365 
 6394      5F557064 
 6394      61746542 
 6394      6173656C 
 6395              	.LASF35:
 6396 0095 6E756D62 		.ascii	"numberOfSensors\000"
 6396      65724F66 
 6396      53656E73 
 6396      6F727300 
 6397              	.LASF39:
 6398 00a5 70747247 		.ascii	"ptrGetBitValue\000"
 6398      65744269 
 6398      7456616C 
 6398      756500
 6399              	.LASF83:
 6400 00b4 43617053 		.ascii	"CapSense_DisableWidget\000"
 6400      656E7365 
 6400      5F446973 
 6400      61626C65 
ARM GAS  C:\Users\Terence\AppData\Local\Temp\cc6R4aDx.s 			page 166


 6400      57696467 
 6401              	.LASF103:
 6402 00cb 74656D70 		.ascii	"tempPos\000"
 6402      506F7300 
 6403              	.LASF111:
 6404 00d3 43617053 		.ascii	"CapSense_UpdateEnabledBaselines\000"
 6404      656E7365 
 6404      5F557064 
 6404      61746545 
 6404      6E61626C 
 6405              	.LASF100:
 6406 00f3 706F7349 		.ascii	"posIndex\000"
 6406      6E646578 
 6406      00
 6407              	.LASF142:
 6408 00fc 43617053 		.ascii	"CapSense_config\000"
 6408      656E7365 
 6408      5F636F6E 
 6408      66696700 
 6409              	.LASF55:
 6410 010c 69735365 		.ascii	"isSensorEnabled\000"
 6410      6E736F72 
 6410      456E6162 
 6410      6C656400 
 6411              	.LASF79:
 6412 011c 6E756D4F 		.ascii	"numOfSensors\000"
 6412      6653656E 
 6412      736F7273 
 6412      00
 6413              	.LASF8:
 6414 0129 756E7369 		.ascii	"unsigned int\000"
 6414      676E6564 
 6414      20696E74 
 6414      00
 6415              	.LASF44:
 6416 0136 746F7461 		.ascii	"totalSensorsNum\000"
 6416      6C53656E 
 6416      736F7273 
 6416      4E756D00 
 6417              	.LASF12:
 6418 0146 696E7431 		.ascii	"int16\000"
 6418      3600
 6419              	.LASF29:
 6420 014c 73616D70 		.ascii	"sampleMaxTbl\000"
 6420      6C654D61 
 6420      7854626C 
 6420      00
 6421              	.LASF54:
 6422 0159 43617053 		.ascii	"CapSense_InitializeEnabledBaselines\000"
 6422      656E7365 
 6422      5F496E69 
 6422      7469616C 
 6422      697A6545 
 6423              	.LASF124:
 6424 017d 43617053 		.ascii	"CapSense_posFiltersData\000"
 6424      656E7365 
 6424      5F706F73 
ARM GAS  C:\Users\Terence\AppData\Local\Temp\cc6R4aDx.s 			page 167


 6424      46696C74 
 6424      65727344 
 6425              	.LASF27:
 6426 0195 7369676E 		.ascii	"signRegisterTbl\000"
 6426      52656769 
 6426      73746572 
 6426      54626C00 
 6427              	.LASF138:
 6428 01a5 43617053 		.ascii	"CapSense_debounce\000"
 6428      656E7365 
 6428      5F646562 
 6428      6F756E63 
 6428      6500
 6429              	.LASF50:
 6430 01b7 43617053 		.ascii	"CapSense_InitializeSensorBaseline\000"
 6430      656E7365 
 6430      5F496E69 
 6430      7469616C 
 6430      697A6553 
 6431              	.LASF48:
 6432 01d9 43617053 		.ascii	"CapSense_CONFIG_TYPE_P4_v2_40\000"
 6432      656E7365 
 6432      5F434F4E 
 6432      4649475F 
 6432      54595045 
 6433              	.LASF150:
 6434 01f7 43617053 		.ascii	"CapSense_IsBusy\000"
 6434      656E7365 
 6434      5F497342 
 6434      75737900 
 6435              	.LASF56:
 6436 0207 43617053 		.ascii	"CapSense_SetBaselineData\000"
 6436      656E7365 
 6436      5F536574 
 6436      42617365 
 6436      6C696E65 
 6437              	.LASF34:
 6438 0220 72617744 		.ascii	"rawDataIndex\000"
 6438      61746149 
 6438      6E646578 
 6438      00
 6439              	.LASF43:
 6440 022d 746F7461 		.ascii	"totalWidgetsNum\000"
 6440      6C576964 
 6440      67657473 
 6440      4E756D00 
 6441              	.LASF60:
 6442 023d 43617053 		.ascii	"CapSense_SetDiffCountData\000"
 6442      656E7365 
 6442      5F536574 
 6442      44696666 
 6442      436F756E 
 6443              	.LASF130:
 6444 0257 43617053 		.ascii	"CapSense_sensorSignal\000"
 6444      656E7365 
 6444      5F73656E 
 6444      736F7253 
ARM GAS  C:\Users\Terence\AppData\Local\Temp\cc6R4aDx.s 			page 168


 6444      69676E61 
 6445              	.LASF139:
 6446 026d 43617053 		.ascii	"CapSense_rawDataIndex\000"
 6446      656E7365 
 6446      5F726177 
 6446      44617461 
 6446      496E6465 
 6447              	.LASF67:
 6448 0283 43617053 		.ascii	"CapSense_SetNoiseThreshold\000"
 6448      656E7365 
 6448      5F536574 
 6448      4E6F6973 
 6448      65546872 
 6449              	.LASF112:
 6450 029e 43617053 		.ascii	"CapSense_UpdateWidgetBaseline\000"
 6450      656E7365 
 6450      5F557064 
 6450      61746557 
 6450      69646765 
 6451              	.LASF137:
 6452 02bc 43617053 		.ascii	"CapSense_hysteresis\000"
 6452      656E7365 
 6452      5F687973 
 6452      74657265 
 6452      73697300 
 6453              	.LASF14:
 6454 02d0 666C6F61 		.ascii	"float\000"
 6454      7400
 6455              	.LASF13:
 6456 02d6 696E7433 		.ascii	"int32\000"
 6456      3200
 6457              	.LASF86:
 6458 02dc 636F756E 		.ascii	"count\000"
 6458      7400
 6459              	.LASF24:
 6460 02e2 7265736F 		.ascii	"resolutionsTbl\000"
 6460      6C757469 
 6460      6F6E7354 
 6460      626C00
 6461              	.LASF102:
 6462 02f1 706F7346 		.ascii	"posFiltersMask\000"
 6462      696C7465 
 6462      72734D61 
 6462      736B00
 6463              	.LASF63:
 6464 0300 43617053 		.ascii	"CapSense_GetNoiseThreshold\000"
 6464      656E7365 
 6464      5F476574 
 6464      4E6F6973 
 6464      65546872 
 6465              	.LASF26:
 6466 031b 72756E6E 		.ascii	"runningDifferenceTbl\000"
 6466      696E6744 
 6466      69666665 
 6466      72656E63 
 6466      6554626C 
 6467              	.LASF7:
ARM GAS  C:\Users\Terence\AppData\Local\Temp\cc6R4aDx.s 			page 169


 6468 0330 6C6F6E67 		.ascii	"long long unsigned int\000"
 6468      206C6F6E 
 6468      6720756E 
 6468      7369676E 
 6468      65642069 
 6469              	.LASF126:
 6470 0347 43617053 		.ascii	"CapSense_sensorEnableMask\000"
 6470      656E7365 
 6470      5F73656E 
 6470      736F7245 
 6470      6E61626C 
 6471              	.LASF146:
 6472 0361 4D656173 		.ascii	"MeasureNoiseEnvelope_P4_v2_40\000"
 6472      7572654E 
 6472      6F697365 
 6472      456E7665 
 6472      6C6F7065 
 6473              	.LASF53:
 6474 037f 77696467 		.ascii	"widget\000"
 6474      657400
 6475              	.LASF123:
 6476 0386 43617053 		.ascii	"CapSense_posFiltersMask\000"
 6476      656E7365 
 6476      5F706F73 
 6476      46696C74 
 6476      6572734D 
 6477              	.LASF134:
 6478 039e 43617053 		.ascii	"CapSense_fingerThreshold\000"
 6478      656E7365 
 6478      5F66696E 
 6478      67657254 
 6478      68726573 
 6479              	.LASF127:
 6480 03b7 43617053 		.ascii	"CapSense_widgetNumber\000"
 6480      656E7365 
 6480      5F776964 
 6480      6765744E 
 6480      756D6265 
 6481              	.LASF66:
 6482 03cd 43617053 		.ascii	"CapSense_SetFingerThreshold\000"
 6482      656E7365 
 6482      5F536574 
 6482      46696E67 
 6482      65725468 
 6483              	.LASF120:
 6484 03e9 43617053 		.ascii	"CapSense_DisableRawDataFilters\000"
 6484      656E7365 
 6484      5F446973 
 6484      61626C65 
 6484      52617744 
 6485              	.LASF61:
 6486 0408 76616C75 		.ascii	"value\000"
 6486      6500
 6487              	.LASF64:
 6488 040e 43617053 		.ascii	"CapSense_GetFingerHysteresis\000"
 6488      656E7365 
 6488      5F476574 
ARM GAS  C:\Users\Terence\AppData\Local\Temp\cc6R4aDx.s 			page 170


 6488      46696E67 
 6488      65724879 
 6489              	.LASF59:
 6490 042b 43617053 		.ascii	"CapSense_GetDiffCountData\000"
 6490      656E7365 
 6490      5F476574 
 6490      44696666 
 6490      436F756E 
 6491              	.LASF107:
 6492 0445 7369676E 		.ascii	"sign\000"
 6492      00
 6493              	.LASF85:
 6494 044a 6F666673 		.ascii	"offset\000"
 6494      657400
 6495              	.LASF25:
 6496 0451 6E6F6973 		.ascii	"noiseEnvelopeTbl\000"
 6496      65456E76 
 6496      656C6F70 
 6496      6554626C 
 6496      00
 6497              	.LASF106:
 6498 0462 63616C63 		.ascii	"calc\000"
 6498      00
 6499              	.LASF38:
 6500 0467 70747252 		.ascii	"ptrReadSensorRaw\000"
 6500      65616453 
 6500      656E736F 
 6500      72526177 
 6500      00
 6501              	.LASF76:
 6502 0478 68797374 		.ascii	"hysteresis\000"
 6502      65726573 
 6502      697300
 6503              	.LASF144:
 6504 0483 43617053 		.ascii	"CapSense_ScanSensor\000"
 6504      656E7365 
 6504      5F536361 
 6504      6E53656E 
 6504      736F7200 
 6505              	.LASF109:
 6506 0497 66696C74 		.ascii	"filteredRawData\000"
 6506      65726564 
 6506      52617744 
 6506      61746100 
 6507              	.LASF113:
 6508 04a7 73656E73 		.ascii	"sensorsPerWidget\000"
 6508      6F727350 
 6508      65725769 
 6508      64676574 
 6508      00
 6509              	.LASF81:
 6510 04b8 43617053 		.ascii	"CapSense_CheckIsAnyWidgetActive\000"
 6510      656E7365 
 6510      5F436865 
 6510      636B4973 
 6510      416E7957 
 6511              	.LASF140:
ARM GAS  C:\Users\Terence\AppData\Local\Temp\cc6R4aDx.s 			page 171


 6512 04d8 43617053 		.ascii	"CapSense_numberOfSensors\000"
 6512      656E7365 
 6512      5F6E756D 
 6512      6265724F 
 6512      6653656E 
 6513              	.LASF136:
 6514 04f1 43617053 		.ascii	"CapSense_negativeNoiseThreshold\000"
 6514      656E7365 
 6514      5F6E6567 
 6514      61746976 
 6514      654E6F69 
 6515              	.LASF42:
 6516 0511 746F7461 		.ascii	"totalScanslotsNum\000"
 6516      6C536361 
 6516      6E736C6F 
 6516      74734E75 
 6516      6D00
 6517              	.LASF51:
 6518 0523 73656E73 		.ascii	"sensor\000"
 6518      6F7200
 6519              	.LASF45:
 6520 052a 73656E73 		.ascii	"sensetivitySeed\000"
 6520      65746976 
 6520      69747953 
 6520      65656400 
 6521              	.LASF82:
 6522 053a 43617053 		.ascii	"CapSense_EnableWidget\000"
 6522      656E7365 
 6522      5F456E61 
 6522      626C6557 
 6522      69646765 
 6523              	.LASF16:
 6524 0550 63686172 		.ascii	"char\000"
 6524      00
 6525              	.LASF65:
 6526 0555 43617053 		.ascii	"CapSense_GetNegativeNoiseThreshold\000"
 6526      656E7365 
 6526      5F476574 
 6526      4E656761 
 6526      74697665 
 6527              	.LASF33:
 6528 0578 70726573 		.ascii	"prescalerTable\000"
 6528      63616C65 
 6528      72546162 
 6528      6C6500
 6529              	.LASF10:
 6530 0587 75696E74 		.ascii	"uint16\000"
 6530      313600
 6531              	.LASF57:
 6532 058e 64617461 		.ascii	"data\000"
 6532      00
 6533              	.LASF18:
 6534 0593 69646163 		.ascii	"idac1LevelsTbl\000"
 6534      314C6576 
 6534      656C7354 
 6534      626C00
 6535              	.LASF91:
ARM GAS  C:\Users\Terence\AppData\Local\Temp\cc6R4aDx.s 			page 172


 6536 05a2 7265736F 		.ascii	"resolution\000"
 6536      6C757469 
 6536      6F6E00
 6537              	.LASF78:
 6538 05ad 72617749 		.ascii	"rawIndex\000"
 6538      6E646578 
 6538      00
 6539              	.LASF153:
 6540 05b6 43617053 		.ascii	"CapSense_UpdateThresholds\000"
 6540      656E7365 
 6540      5F557064 
 6540      61746554 
 6540      68726573 
 6541              	.LASF93:
 6542 05d0 43617053 		.ascii	"CapSense_centroid\000"
 6542      656E7365 
 6542      5F63656E 
 6542      74726F69 
 6542      6400
 6543              	.LASF151:
 6544 05e2 43617053 		.ascii	"CapSense_ScanEnabledWidgets\000"
 6544      656E7365 
 6544      5F536361 
 6544      6E456E61 
 6544      626C6564 
 6545              	.LASF148:
 6546 05fe 2E5C4765 		.ascii	".\\Generated_Source\\PSoC4\\CapSense_CSHL.c\000"
 6546      6E657261 
 6546      7465645F 
 6546      536F7572 
 6546      63655C50 
 6547              	.LASF6:
 6548 0627 6C6F6E67 		.ascii	"long long int\000"
 6548      206C6F6E 
 6548      6720696E 
 6548      7400
 6549              	.LASF116:
 6550 0635 43617053 		.ascii	"CapSense_GetWidgetNumber\000"
 6550      656E7365 
 6550      5F476574 
 6550      57696467 
 6550      65744E75 
 6551              	.LASF73:
 6552 064e 6465626F 		.ascii	"debounce\000"
 6552      756E6365 
 6552      00
 6553              	.LASF37:
 6554 0657 70747250 		.ascii	"ptrPreScan\000"
 6554      72655363 
 6554      616E00
 6555              	.LASF72:
 6556 0662 43617053 		.ascii	"CapSense_CheckIsSensorActive\000"
 6556      656E7365 
 6556      5F436865 
 6556      636B4973 
 6556      53656E73 
 6557              	.LASF36:
ARM GAS  C:\Users\Terence\AppData\Local\Temp\cc6R4aDx.s 			page 173


 6558 067f 70747247 		.ascii	"ptrGetRaw\000"
 6558      65745261 
 6558      7700
 6559              	.LASF110:
 6560 0689 43617053 		.ascii	"CapSense_UpdateSensorBaseline\000"
 6560      656E7365 
 6560      5F557064 
 6560      61746553 
 6560      656E736F 
 6561              	.LASF49:
 6562 06a7 43617053 		.ascii	"CapSense_BaseInit\000"
 6562      656E7365 
 6562      5F426173 
 6562      65496E69 
 6562      7400
 6563              	.LASF90:
 6564 06b9 43617053 		.ascii	"CapSense_CalcCentroid\000"
 6564      656E7365 
 6564      5F43616C 
 6564      6343656E 
 6564      74726F69 
 6565              	.LASF28:
 6566 06cf 73616D70 		.ascii	"sampleMinTbl\000"
 6566      6C654D69 
 6566      6E54626C 
 6566      00
 6567              	.LASF125:
 6568 06dc 43617053 		.ascii	"CapSense_sensorRaw\000"
 6568      656E7365 
 6568      5F73656E 
 6568      736F7252 
 6568      617700
 6569              	.LASF117:
 6570 06ef 43617053 		.ascii	"CapSense_GetLowBaselineReset\000"
 6570      656E7365 
 6570      5F476574 
 6570      4C6F7742 
 6570      6173656C 
 6571              	.LASF69:
 6572 070c 43617053 		.ascii	"CapSense_SetNegativeNoiseThreshold\000"
 6572      656E7365 
 6572      5F536574 
 6572      4E656761 
 6572      74697665 
 6573              	.LASF11:
 6574 072f 75696E74 		.ascii	"uint32\000"
 6574      333200
 6575              	.LASF101:
 6576 0736 66697273 		.ascii	"firstTimeIndex\000"
 6576      7454696D 
 6576      65496E64 
 6576      657800
 6577              	.LASF89:
 6578 0745 73746172 		.ascii	"startOfSlider\000"
 6578      744F6653 
 6578      6C696465 
 6578      7200
ARM GAS  C:\Users\Terence\AppData\Local\Temp\cc6R4aDx.s 			page 174


 6579              	.LASF68:
 6580 0753 43617053 		.ascii	"CapSense_SetFingerHysteresis\000"
 6580      656E7365 
 6580      5F536574 
 6580      46696E67 
 6580      65724879 
 6581              	.LASF62:
 6582 0770 43617053 		.ascii	"CapSense_GetFingerThreshold\000"
 6582      656E7365 
 6582      5F476574 
 6582      46696E67 
 6582      65725468 
 6583              	.LASF95:
 6584 078c 6E756D65 		.ascii	"numerator\000"
 6584      7261746F 
 6584      7200
 6585              	.LASF115:
 6586 0796 6C617374 		.ascii	"lastSensor\000"
 6586      53656E73 
 6586      6F7200
 6587              	.LASF46:
 6588 07a1 6866636C 		.ascii	"hfclkFreq_MHz\000"
 6588      6B467265 
 6588      715F4D48 
 6588      7A00
 6589              	.LASF23:
 6590 07af 77696467 		.ascii	"widgetNubmersTbl\000"
 6590      65744E75 
 6590      626D6572 
 6590      7354626C 
 6590      00
 6591              	.LASF97:
 6592 07c0 43617053 		.ascii	"CapSense_GetCentroidPos\000"
 6592      656E7365 
 6592      5F476574 
 6592      43656E74 
 6592      726F6964 
 6593              	.LASF19:
 6594 07d8 69646163 		.ascii	"idac2LevelsTbl\000"
 6594      324C6576 
 6594      656C7354 
 6594      626C00
 6595              	.LASF2:
 6596 07e7 73686F72 		.ascii	"short int\000"
 6596      7420696E 
 6596      7400
 6597              	.LASF4:
 6598 07f1 6C6F6E67 		.ascii	"long int\000"
 6598      20696E74 
 6598      00
 6599              	.LASF114:
 6600 07fa 66697273 		.ascii	"firstSensor\000"
 6600      7453656E 
 6600      736F7200 
 6601              	.LASF88:
 6602 0806 74656D70 		.ascii	"temp\000"
 6602      00
ARM GAS  C:\Users\Terence\AppData\Local\Temp\cc6R4aDx.s 			page 175


 6603              	.LASF84:
 6604 080b 43617053 		.ascii	"CapSense_FindMaximum\000"
 6604      656E7365 
 6604      5F46696E 
 6604      644D6178 
 6604      696D756D 
 6605              	.LASF147:
 6606 0820 474E5520 		.ascii	"GNU C 4.9.3 20150303 (release) [ARM/embedded-4_9-br"
 6606      4320342E 
 6606      392E3320 
 6606      32303135 
 6606      30333033 
 6607 0853 616E6368 		.ascii	"anch revision 221220] -mcpu=cortex-m0 -mthumb -g -O"
 6607      20726576 
 6607      6973696F 
 6607      6E203232 
 6607      31323230 
 6608 0886 67202D66 		.ascii	"g -ffunction-sections -ffat-lto-objects\000"
 6608      66756E63 
 6608      74696F6E 
 6608      2D736563 
 6608      74696F6E 
 6609              	.LASF119:
 6610 08ae 43617053 		.ascii	"CapSense_EnableRawDataFilters\000"
 6610      656E7365 
 6610      5F456E61 
 6610      626C6552 
 6610      61774461 
 6611              	.LASF133:
 6612 08cc 43617053 		.ascii	"CapSense_lowBaselineReset\000"
 6612      656E7365 
 6612      5F6C6F77 
 6612      42617365 
 6612      6C696E65 
 6613              	.LASF96:
 6614 08e6 64656E6F 		.ascii	"denominator\000"
 6614      6D696E61 
 6614      746F7200 
 6615              	.LASF31:
 6616 08f2 6B56616C 		.ascii	"kValueTbl\000"
 6616      75655462 
 6616      6C00
 6617              	.LASF128:
 6618 08fc 43617053 		.ascii	"CapSense_sensorBaseline\000"
 6618      656E7365 
 6618      5F73656E 
 6618      736F7242 
 6618      6173656C 
 6619              	.LASF87:
 6620 0914 6D617869 		.ascii	"maximum\000"
 6620      6D756D00 
 6621              	.LASF17:
 6622 091c 73697A65 		.ascii	"sizetype\000"
 6622      74797065 
 6622      00
 6623              	.LASF5:
 6624 0925 6C6F6E67 		.ascii	"long unsigned int\000"
ARM GAS  C:\Users\Terence\AppData\Local\Temp\cc6R4aDx.s 			page 176


 6624      20756E73 
 6624      69676E65 
 6624      6420696E 
 6624      7400
 6625              	.LASF47:
 6626 0937 706F696E 		.ascii	"pointers\000"
 6626      74657273 
 6626      00
 6627              	.LASF92:
 6628 0940 6E6F6973 		.ascii	"noiseThreshold\000"
 6628      65546872 
 6628      6573686F 
 6628      6C6400
 6629              	.LASF30:
 6630 094f 70726576 		.ascii	"previousSampleTbl\000"
 6630      696F7573 
 6630      53616D70 
 6630      6C655462 
 6630      6C00
 6631              	.LASF70:
 6632 0961 43617053 		.ascii	"CapSense_SetDebounce\000"
 6632      656E7365 
 6632      5F536574 
 6632      4465626F 
 6632      756E6365 
 6633              	.LASF75:
 6634 0976 66696E67 		.ascii	"fingerThreshold\000"
 6634      65725468 
 6634      72657368 
 6634      6F6C6400 
 6635              	.LASF21:
 6636 0986 63686172 		.ascii	"chargeDivTbl\000"
 6636      67654469 
 6636      7654626C 
 6636      00
 6637              	.LASF1:
 6638 0993 756E7369 		.ascii	"unsigned char\000"
 6638      676E6564 
 6638      20636861 
 6638      7200
 6639              	.LASF135:
 6640 09a1 43617053 		.ascii	"CapSense_noiseThreshold\000"
 6640      656E7365 
 6640      5F6E6F69 
 6640      73655468 
 6640      72657368 
 6641              	.LASF74:
 6642 09b9 6465626F 		.ascii	"debounceIndex\000"
 6642      756E6365 
 6642      496E6465 
 6642      7800
 6643              	.LASF52:
 6644 09c7 43617053 		.ascii	"CapSense_InitializeAllBaselines\000"
 6644      656E7365 
 6644      5F496E69 
 6644      7469616C 
 6644      697A6541 
ARM GAS  C:\Users\Terence\AppData\Local\Temp\cc6R4aDx.s 			page 177


 6645              	.LASF58:
 6646 09e7 43617053 		.ascii	"CapSense_GetBaselineData\000"
 6646      656E7365 
 6646      5F476574 
 6646      42617365 
 6646      6C696E65 
 6647              	.LASF71:
 6648 0a00 43617053 		.ascii	"CapSense_SetLowBaselineReset\000"
 6648      656E7365 
 6648      5F536574 
 6648      4C6F7742 
 6648      6173656C 
 6649              	.LASF20:
 6650 0a1d 73656E73 		.ascii	"sensetivityTbl\000"
 6650      65746976 
 6650      69747954 
 6650      626C00
 6651              	.LASF145:
 6652 0a2c 43617053 		.ascii	"CapSense_SetBitValue\000"
 6652      656E7365 
 6652      5F536574 
 6652      42697456 
 6652      616C7565 
 6653              	.LASF122:
 6654 0a41 43617053 		.ascii	"CapSense_centroidMult\000"
 6654      656E7365 
 6654      5F63656E 
 6654      74726F69 
 6654      644D756C 
 6655              	.LASF152:
 6656 0a57 43617053 		.ascii	"CapSense_GetBitValue\000"
 6656      656E7365 
 6656      5F476574 
 6656      42697456 
 6656      616C7565 
 6657              	.LASF80:
 6658 0a6c 73746174 		.ascii	"state\000"
 6658      6500
 6659              	.LASF143:
 6660 0a72 43617053 		.ascii	"CapSense_enableRawFilters\000"
 6660      656E7365 
 6660      5F656E61 
 6660      626C6552 
 6660      61774669 
 6661              	.LASF22:
 6662 0a8c 6D6F6444 		.ascii	"modDivTbl\000"
 6662      69765462 
 6662      6C00
 6663              	.LASF0:
 6664 0a96 7369676E 		.ascii	"signed char\000"
 6664      65642063 
 6664      68617200 
 6665              	.LASF3:
 6666 0aa2 73686F72 		.ascii	"short unsigned int\000"
 6666      7420756E 
 6666      7369676E 
 6666      65642069 
ARM GAS  C:\Users\Terence\AppData\Local\Temp\cc6R4aDx.s 			page 178


 6666      6E7400
 6667              	.LASF99:
 6668 0ab5 43617053 		.ascii	"CapSense_GetRadialCentroidPos\000"
 6668      656E7365 
 6668      5F476574 
 6668      52616469 
 6668      616C4365 
 6669              	.LASF149:
 6670 0ad3 433A5C50 		.ascii	"C:\\Program Files (x86)\\Cypress\\CY8CKIT-046 PSoC "
 6670      726F6772 
 6670      616D2046 
 6670      696C6573 
 6670      20287838 
 6671 0b03 34204C2D 		.ascii	"4 L-Series Pioneer Kit\\1.0\\Firmware\\PSoC 4200L\\"
 6671      53657269 
 6671      65732050 
 6671      696F6E65 
 6671      6572204B 
 6672 0b32 43593843 		.ascii	"CY8CKIT_046_USB_Audio\\CY8CKIT_046_USB_Audio.cydsn\000"
 6672      4B49545F 
 6672      3034365F 
 6672      5553425F 
 6672      41756469 
 6673              	.LASF98:
 6674 0b64 43617053 		.ascii	"CapSense_MedianFilter\000"
 6674      656E7365 
 6674      5F4D6564 
 6674      69616E46 
 6674      696C7465 
 6675              	.LASF108:
 6676 0b7a 74656D70 		.ascii	"tempRaw\000"
 6676      52617700 
 6677              	.LASF118:
 6678 0b82 43617053 		.ascii	"CapSense_GetDebounce\000"
 6678      656E7365 
 6678      5F476574 
 6678      4465626F 
 6678      756E6365 
 6679              	.LASF77:
 6680 0b97 43617053 		.ascii	"CapSense_CheckIsWidgetActive\000"
 6680      656E7365 
 6680      5F436865 
 6680      636B4973 
 6680      57696467 
 6681              	.LASF9:
 6682 0bb4 75696E74 		.ascii	"uint8\000"
 6682      3800
 6683              	.LASF15:
 6684 0bba 646F7562 		.ascii	"double\000"
 6684      6C6500
 6685              	.LASF41:
 6686 0bc1 43617053 		.ascii	"CapSense_CONFIG_TYPE_POINTERS_P4_v2_40\000"
 6686      656E7365 
 6686      5F434F4E 
 6686      4649475F 
 6686      54595045 
 6687              	.LASF141:
ARM GAS  C:\Users\Terence\AppData\Local\Temp\cc6R4aDx.s 			page 179


 6688 0be8 43617053 		.ascii	"CapSense_rawFilterData1\000"
 6688      656E7365 
 6688      5F726177 
 6688      46696C74 
 6688      65724461 
 6689              	.LASF40:
 6690 0c00 70747253 		.ascii	"ptrSetBitValue\000"
 6690      65744269 
 6690      7456616C 
 6690      756500
 6691              	.LASF94:
 6692 0c0f 706F7369 		.ascii	"position\000"
 6692      74696F6E 
 6692      00
 6693              	.LASF131:
 6694 0c18 43617053 		.ascii	"CapSense_sensorOnMask\000"
 6694      656E7365 
 6694      5F73656E 
 6694      736F724F 
 6694      6E4D6173 
 6695              		.ident	"GCC: (GNU Tools for ARM Embedded Processors) 4.9.3 20150303 (release) [ARM/embedded-4_9-br
