ARM GAS  C:\Users\Terence\AppData\Local\Temp\cc1UtWUh.s 			page 1


   1              		.cpu cortex-m0
   2              		.fpu softvfp
   3              		.eabi_attribute 20, 1
   4              		.eabi_attribute 21, 1
   5              		.eabi_attribute 23, 3
   6              		.eabi_attribute 24, 1
   7              		.eabi_attribute 25, 1
   8              		.eabi_attribute 26, 1
   9              		.eabi_attribute 30, 1
  10              		.eabi_attribute 34, 0
  11              		.eabi_attribute 18, 4
  12              		.code	16
  13              		.file	"I2S.c"
  14              		.text
  15              	.Ltext0:
  16              		.cfi_sections	.debug_frame
  17              		.section	.text.I2S_Enable,"ax",%progbits
  18              		.align	2
  19              		.global	I2S_Enable
  20              		.code	16
  21              		.thumb_func
  22              		.type	I2S_Enable, %function
  23              	I2S_Enable:
  24              	.LFB2:
  25              		.file 1 ".\\Generated_Source\\PSoC4\\I2S.c"
   1:.\Generated_Source\PSoC4/I2S.c **** /*******************************************************************************
   2:.\Generated_Source\PSoC4/I2S.c **** * File Name: I2S.c
   3:.\Generated_Source\PSoC4/I2S.c **** * Version 2.70
   4:.\Generated_Source\PSoC4/I2S.c **** *
   5:.\Generated_Source\PSoC4/I2S.c **** * Description:
   6:.\Generated_Source\PSoC4/I2S.c **** *  This file contains the setup, control and status commands for the I2S
   7:.\Generated_Source\PSoC4/I2S.c **** *  component.
   8:.\Generated_Source\PSoC4/I2S.c **** *
   9:.\Generated_Source\PSoC4/I2S.c **** * Note:
  10:.\Generated_Source\PSoC4/I2S.c **** *
  11:.\Generated_Source\PSoC4/I2S.c **** ********************************************************************************
  12:.\Generated_Source\PSoC4/I2S.c **** * Copyright 2008-2015, Cypress Semiconductor Corporation.  All rights reserved.
  13:.\Generated_Source\PSoC4/I2S.c **** * You may use this file only in accordance with the license, terms, conditions,
  14:.\Generated_Source\PSoC4/I2S.c **** * disclaimers, and limitations in the end user license agreement accompanying
  15:.\Generated_Source\PSoC4/I2S.c **** * the software package with which this file was provided.
  16:.\Generated_Source\PSoC4/I2S.c **** *******************************************************************************/
  17:.\Generated_Source\PSoC4/I2S.c **** 
  18:.\Generated_Source\PSoC4/I2S.c **** #include "CyLib.h"
  19:.\Generated_Source\PSoC4/I2S.c **** #include "I2S.h"
  20:.\Generated_Source\PSoC4/I2S.c **** 
  21:.\Generated_Source\PSoC4/I2S.c **** uint8 I2S_initVar = 0u;
  22:.\Generated_Source\PSoC4/I2S.c **** 
  23:.\Generated_Source\PSoC4/I2S.c **** 
  24:.\Generated_Source\PSoC4/I2S.c **** /*******************************************************************************
  25:.\Generated_Source\PSoC4/I2S.c **** * Function Name: I2S_Enable
  26:.\Generated_Source\PSoC4/I2S.c **** ********************************************************************************
  27:.\Generated_Source\PSoC4/I2S.c **** *
  28:.\Generated_Source\PSoC4/I2S.c **** * Summary:
  29:.\Generated_Source\PSoC4/I2S.c **** *  Enables I2S interface. Starts the generation of the sck and ws outputs.
  30:.\Generated_Source\PSoC4/I2S.c **** *  The Tx and Rx directions remain disabled. It is not necessary to call
  31:.\Generated_Source\PSoC4/I2S.c **** *  I2S_Enable() because the I2S_Start() routine calls this function, which is
  32:.\Generated_Source\PSoC4/I2S.c **** *  the preferred method to begin component operation.
ARM GAS  C:\Users\Terence\AppData\Local\Temp\cc1UtWUh.s 			page 2


  33:.\Generated_Source\PSoC4/I2S.c **** *
  34:.\Generated_Source\PSoC4/I2S.c **** * Parameters:
  35:.\Generated_Source\PSoC4/I2S.c **** *  None.
  36:.\Generated_Source\PSoC4/I2S.c **** *
  37:.\Generated_Source\PSoC4/I2S.c **** * Return:
  38:.\Generated_Source\PSoC4/I2S.c **** *  None.
  39:.\Generated_Source\PSoC4/I2S.c **** *
  40:.\Generated_Source\PSoC4/I2S.c **** *******************************************************************************/
  41:.\Generated_Source\PSoC4/I2S.c **** void I2S_Enable(void) 
  42:.\Generated_Source\PSoC4/I2S.c **** {
  26              		.loc 1 42 0
  27              		.cfi_startproc
  28 0000 08B5     		push	{r3, lr}
  29              		.cfi_def_cfa_offset 8
  30              		.cfi_offset 3, -8
  31              		.cfi_offset 14, -4
  43:.\Generated_Source\PSoC4/I2S.c ****     uint8 enableInterrupts;
  44:.\Generated_Source\PSoC4/I2S.c **** 
  45:.\Generated_Source\PSoC4/I2S.c ****     enableInterrupts = CyEnterCriticalSection();
  32              		.loc 1 45 0
  33 0002 FFF7FEFF 		bl	CyEnterCriticalSection
  34              	.LVL0:
  46:.\Generated_Source\PSoC4/I2S.c ****     I2S_AUX_CONTROL_REG |= I2S_CNT_START;
  35              		.loc 1 46 0
  36 0006 064A     		ldr	r2, .L2
  37 0008 1178     		ldrb	r1, [r2]
  38 000a 2023     		mov	r3, #32
  39 000c 0B43     		orr	r3, r1
  40 000e 1370     		strb	r3, [r2]
  47:.\Generated_Source\PSoC4/I2S.c ****     CyExitCriticalSection(enableInterrupts);
  41              		.loc 1 47 0
  42 0010 FFF7FEFF 		bl	CyExitCriticalSection
  43              	.LVL1:
  48:.\Generated_Source\PSoC4/I2S.c **** 
  49:.\Generated_Source\PSoC4/I2S.c ****     I2S_CONTROL_REG |= I2S_EN;
  44              		.loc 1 49 0
  45 0014 034A     		ldr	r2, .L2+4
  46 0016 1178     		ldrb	r1, [r2]
  47 0018 0423     		mov	r3, #4
  48 001a 0B43     		orr	r3, r1
  49 001c 1370     		strb	r3, [r2]
  50:.\Generated_Source\PSoC4/I2S.c **** }
  50              		.loc 1 50 0
  51              		@ sp needed
  52 001e 08BD     		pop	{r3, pc}
  53              	.L3:
  54              		.align	2
  55              	.L2:
  56 0020 90000F40 		.word	1074725008
  57 0024 77000F40 		.word	1074724983
  58              		.cfi_endproc
  59              	.LFE2:
  60              		.size	I2S_Enable, .-I2S_Enable
  61              		.section	.text.I2S_Init,"ax",%progbits
  62              		.align	2
  63              		.global	I2S_Init
  64              		.code	16
ARM GAS  C:\Users\Terence\AppData\Local\Temp\cc1UtWUh.s 			page 3


  65              		.thumb_func
  66              		.type	I2S_Init, %function
  67              	I2S_Init:
  68              	.LFB3:
  51:.\Generated_Source\PSoC4/I2S.c **** 
  52:.\Generated_Source\PSoC4/I2S.c **** 
  53:.\Generated_Source\PSoC4/I2S.c **** /*******************************************************************************
  54:.\Generated_Source\PSoC4/I2S.c **** * Function Name: I2S_Init
  55:.\Generated_Source\PSoC4/I2S.c **** ********************************************************************************
  56:.\Generated_Source\PSoC4/I2S.c **** *
  57:.\Generated_Source\PSoC4/I2S.c **** * Summary:
  58:.\Generated_Source\PSoC4/I2S.c **** *  Initializes or restores default I2S configuration provided with customizer.
  59:.\Generated_Source\PSoC4/I2S.c **** *  It is not necessary to call I2S_Init() because the I2S_Start() routine calls
  60:.\Generated_Source\PSoC4/I2S.c **** *  this function, which is the preferred method to begin component operation.
  61:.\Generated_Source\PSoC4/I2S.c **** *
  62:.\Generated_Source\PSoC4/I2S.c **** * Parameters:
  63:.\Generated_Source\PSoC4/I2S.c **** *  None.
  64:.\Generated_Source\PSoC4/I2S.c **** *
  65:.\Generated_Source\PSoC4/I2S.c **** * Return:
  66:.\Generated_Source\PSoC4/I2S.c **** *  None.
  67:.\Generated_Source\PSoC4/I2S.c **** *
  68:.\Generated_Source\PSoC4/I2S.c **** *******************************************************************************/
  69:.\Generated_Source\PSoC4/I2S.c **** void I2S_Init(void) 
  70:.\Generated_Source\PSoC4/I2S.c **** {
  69              		.loc 1 70 0
  70              		.cfi_startproc
  71:.\Generated_Source\PSoC4/I2S.c ****     #if (I2S_CLIP_DETECT_ENABLE)
  72:.\Generated_Source\PSoC4/I2S.c ****         static const uint8 CYCODE I2S_posThresholds[] = {64u, 64u, 64u, 64u, 64u};
  73:.\Generated_Source\PSoC4/I2S.c ****         static const int8  CYCODE I2S_negThresholds[] = {-64, -64, -64, -64, -64};
  74:.\Generated_Source\PSoC4/I2S.c ****     #endif /* I2S_CLIP_DETECT_ENABLE */
  75:.\Generated_Source\PSoC4/I2S.c **** 
  76:.\Generated_Source\PSoC4/I2S.c ****     #if (I2S_DYNAMIC_BIT_RESOLUTION)
  77:.\Generated_Source\PSoC4/I2S.c ****         (void)I2S_SetDataBits(I2S_DATA_BITS);
  78:.\Generated_Source\PSoC4/I2S.c ****     #endif /* I2S_DYNAMIC_BIT_RESOLUTION */
  79:.\Generated_Source\PSoC4/I2S.c **** 
  80:.\Generated_Source\PSoC4/I2S.c ****     /* Initialize Tx interrupt source selected in customizer */
  81:.\Generated_Source\PSoC4/I2S.c ****     #if (I2S_TX_DIRECTION_ENABLE)
  82:.\Generated_Source\PSoC4/I2S.c ****         I2S_SET_TX_INT_MASK(CH0, I2S_TX_INT_SOURCE);
  71              		.loc 1 82 0
  72 0000 074B     		ldr	r3, .L5
  73 0002 1A78     		ldrb	r2, [r3]
  74 0004 0721     		mov	r1, #7
  75 0006 8A43     		bic	r2, r1
  76 0008 1A70     		strb	r2, [r3]
  77 000a 1A78     		ldrb	r2, [r3]
  78 000c D2B2     		uxtb	r2, r2
  79 000e 1A70     		strb	r2, [r3]
  83:.\Generated_Source\PSoC4/I2S.c ****         #if (I2S_TX_STEREO_1_PRESENT)
  84:.\Generated_Source\PSoC4/I2S.c ****             I2S_SET_TX_INT_MASK(CH1, I2S_TX_INT_SOURCE);
  85:.\Generated_Source\PSoC4/I2S.c ****         #endif /* I2S_TX_STEREO_1_PRESENT */
  86:.\Generated_Source\PSoC4/I2S.c ****         #if (I2S_TX_STEREO_2_PRESENT)
  87:.\Generated_Source\PSoC4/I2S.c ****             I2S_SET_TX_INT_MASK(CH2, I2S_TX_INT_SOURCE);
  88:.\Generated_Source\PSoC4/I2S.c ****         #endif /* I2S_TX_STEREO_2_PRESENT */
  89:.\Generated_Source\PSoC4/I2S.c ****         #if (I2S_TX_STEREO_3_PRESENT)
  90:.\Generated_Source\PSoC4/I2S.c ****             I2S_SET_TX_INT_MASK(CH3, I2S_TX_INT_SOURCE);
  91:.\Generated_Source\PSoC4/I2S.c ****         #endif /* I2S_TX_STEREO_3_PRESENT */
  92:.\Generated_Source\PSoC4/I2S.c ****         #if (I2S_TX_STEREO_4_PRESENT)
ARM GAS  C:\Users\Terence\AppData\Local\Temp\cc1UtWUh.s 			page 4


  93:.\Generated_Source\PSoC4/I2S.c ****             I2S_SET_TX_INT_MASK(CH4, I2S_TX_INT_SOURCE);
  94:.\Generated_Source\PSoC4/I2S.c ****         #endif /* I2S_TX_STEREO_4_PRESENT */
  95:.\Generated_Source\PSoC4/I2S.c ****     #endif /* (I2S_TX_DIRECTION_ENABLE) */
  96:.\Generated_Source\PSoC4/I2S.c ****     
  97:.\Generated_Source\PSoC4/I2S.c ****     /* Initialize Rx interrupt source and clipping thresholds selected in customizer */
  98:.\Generated_Source\PSoC4/I2S.c ****     #if (I2S_RX_DIRECTION_ENABLE)
  99:.\Generated_Source\PSoC4/I2S.c ****         I2S_SET_RX_INT_MASK(CH0, I2S_RX_INT_SOURCE);
  80              		.loc 1 99 0
  81 0010 044B     		ldr	r3, .L5+4
  82 0012 1A78     		ldrb	r2, [r3]
  83 0014 8A43     		bic	r2, r1
  84 0016 1A70     		strb	r2, [r3]
  85 0018 1A78     		ldrb	r2, [r3]
  86 001a D2B2     		uxtb	r2, r2
  87 001c 1A70     		strb	r2, [r3]
 100:.\Generated_Source\PSoC4/I2S.c ****         #if (I2S_CLIP_DETECT_ENABLE)
 101:.\Generated_Source\PSoC4/I2S.c ****             I2S_SET_POS_THRESHOLD(CH0, I2S_posThresholds[I2S_STEREO_0]);
 102:.\Generated_Source\PSoC4/I2S.c ****             I2S_SET_NEG_THRESHOLD(CH0, I2S_negThresholds[I2S_STEREO_0]);
 103:.\Generated_Source\PSoC4/I2S.c ****         #endif /* I2S_CLIP_DETECT_ENABLE */
 104:.\Generated_Source\PSoC4/I2S.c ****         #if (I2S_RX_STEREO_1_PRESENT)
 105:.\Generated_Source\PSoC4/I2S.c ****             I2S_SET_RX_INT_MASK(CH1, I2S_RX_INT_SOURCE);
 106:.\Generated_Source\PSoC4/I2S.c ****             #if (I2S_CLIP_DETECT_ENABLE)
 107:.\Generated_Source\PSoC4/I2S.c ****                 I2S_SET_POS_THRESHOLD(CH1, I2S_posThresholds[I2S_STEREO_1]);
 108:.\Generated_Source\PSoC4/I2S.c ****                 I2S_SET_NEG_THRESHOLD(CH1, I2S_negThresholds[I2S_STEREO_1]);
 109:.\Generated_Source\PSoC4/I2S.c ****             #endif /* I2S_CLIP_DETECT_ENABLE */
 110:.\Generated_Source\PSoC4/I2S.c ****         #endif /* I2S_RX_STEREO_1_PRESENT */
 111:.\Generated_Source\PSoC4/I2S.c ****         #if (I2S_RX_STEREO_2_PRESENT)
 112:.\Generated_Source\PSoC4/I2S.c ****             I2S_SET_RX_INT_MASK(CH2, I2S_RX_INT_SOURCE);
 113:.\Generated_Source\PSoC4/I2S.c ****             #if (I2S_CLIP_DETECT_ENABLE)
 114:.\Generated_Source\PSoC4/I2S.c ****                 I2S_SET_POS_THRESHOLD(CH2, I2S_posThresholds[I2S_STEREO_2]);
 115:.\Generated_Source\PSoC4/I2S.c ****                 I2S_SET_NEG_THRESHOLD(CH2, I2S_negThresholds[I2S_STEREO_2]);
 116:.\Generated_Source\PSoC4/I2S.c ****             #endif /* I2S_CLIP_DETECT_ENABLE */
 117:.\Generated_Source\PSoC4/I2S.c ****         #endif /* I2S_RX_STEREO_2_PRESENT */
 118:.\Generated_Source\PSoC4/I2S.c ****         #if (I2S_RX_STEREO_3_PRESENT)
 119:.\Generated_Source\PSoC4/I2S.c ****             I2S_SET_RX_INT_MASK(CH3, I2S_RX_INT_SOURCE);
 120:.\Generated_Source\PSoC4/I2S.c ****             #if (I2S_CLIP_DETECT_ENABLE)
 121:.\Generated_Source\PSoC4/I2S.c ****                 I2S_SET_POS_THRESHOLD(CH3, I2S_posThresholds[I2S_STEREO_3]);
 122:.\Generated_Source\PSoC4/I2S.c ****                 I2S_SET_NEG_THRESHOLD(CH3, I2S_negThresholds[I2S_STEREO_3]);
 123:.\Generated_Source\PSoC4/I2S.c ****             #endif /* I2S_CLIP_DETECT_ENABLE */
 124:.\Generated_Source\PSoC4/I2S.c ****         #endif /* I2S_RX_STEREO_3_PRESENT */
 125:.\Generated_Source\PSoC4/I2S.c ****         #if (I2S_RX_STEREO_4_PRESENT)
 126:.\Generated_Source\PSoC4/I2S.c ****             I2S_SET_RX_INT_MASK(CH4, I2S_RX_INT_SOURCE);
 127:.\Generated_Source\PSoC4/I2S.c ****             #if (I2S_CLIP_DETECT_ENABLE)
 128:.\Generated_Source\PSoC4/I2S.c ****                 I2S_SET_POS_THRESHOLD(CH4, I2S_posThresholds[I2S_STEREO_4]);
 129:.\Generated_Source\PSoC4/I2S.c ****                 I2S_SET_NEG_THRESHOLD(CH4, I2S_negThresholds[I2S_STEREO_4]);
 130:.\Generated_Source\PSoC4/I2S.c ****             #endif /* I2S_CLIP_DETECT_ENABLE */
 131:.\Generated_Source\PSoC4/I2S.c ****         #endif /* I2S_RX_STEREO_4_PRESENT */
 132:.\Generated_Source\PSoC4/I2S.c ****     #endif /* (I2S_RX_DIRECTION_ENABLE) */
 133:.\Generated_Source\PSoC4/I2S.c **** }
  88              		.loc 1 133 0
  89              		@ sp needed
  90 001e 7047     		bx	lr
  91              	.L6:
  92              		.align	2
  93              	.L5:
  94 0020 83000F40 		.word	1074724995
  95 0024 86000F40 		.word	1074724998
ARM GAS  C:\Users\Terence\AppData\Local\Temp\cc1UtWUh.s 			page 5


  96              		.cfi_endproc
  97              	.LFE3:
  98              		.size	I2S_Init, .-I2S_Init
  99              		.section	.text.I2S_Start,"ax",%progbits
 100              		.align	2
 101              		.global	I2S_Start
 102              		.code	16
 103              		.thumb_func
 104              		.type	I2S_Start, %function
 105              	I2S_Start:
 106              	.LFB4:
 134:.\Generated_Source\PSoC4/I2S.c **** 
 135:.\Generated_Source\PSoC4/I2S.c **** 
 136:.\Generated_Source\PSoC4/I2S.c **** /*******************************************************************************
 137:.\Generated_Source\PSoC4/I2S.c **** * Function Name: I2S_Start
 138:.\Generated_Source\PSoC4/I2S.c **** ********************************************************************************
 139:.\Generated_Source\PSoC4/I2S.c **** *
 140:.\Generated_Source\PSoC4/I2S.c **** * Summary:
 141:.\Generated_Source\PSoC4/I2S.c **** *  Starts the I2S interface. Starts the generation of the sck and ws outputs.
 142:.\Generated_Source\PSoC4/I2S.c **** *  The Tx and Rx directions remain disabled.
 143:.\Generated_Source\PSoC4/I2S.c **** *
 144:.\Generated_Source\PSoC4/I2S.c **** * Parameters:
 145:.\Generated_Source\PSoC4/I2S.c **** *  None.
 146:.\Generated_Source\PSoC4/I2S.c **** *
 147:.\Generated_Source\PSoC4/I2S.c **** * Return:
 148:.\Generated_Source\PSoC4/I2S.c **** *  None.
 149:.\Generated_Source\PSoC4/I2S.c **** *
 150:.\Generated_Source\PSoC4/I2S.c **** * Global Variables:
 151:.\Generated_Source\PSoC4/I2S.c **** *  I2S_initVar - used to check initial configuration, modified on
 152:.\Generated_Source\PSoC4/I2S.c **** *  first function call.
 153:.\Generated_Source\PSoC4/I2S.c **** *
 154:.\Generated_Source\PSoC4/I2S.c **** * Reentrant:
 155:.\Generated_Source\PSoC4/I2S.c **** *  No.
 156:.\Generated_Source\PSoC4/I2S.c **** *
 157:.\Generated_Source\PSoC4/I2S.c **** *******************************************************************************/
 158:.\Generated_Source\PSoC4/I2S.c **** void I2S_Start(void) 
 159:.\Generated_Source\PSoC4/I2S.c **** {
 107              		.loc 1 159 0
 108              		.cfi_startproc
 109 0000 08B5     		push	{r3, lr}
 110              		.cfi_def_cfa_offset 8
 111              		.cfi_offset 3, -8
 112              		.cfi_offset 14, -4
 160:.\Generated_Source\PSoC4/I2S.c ****     if(0u == I2S_initVar)
 113              		.loc 1 160 0
 114 0002 064B     		ldr	r3, .L9
 115 0004 1B78     		ldrb	r3, [r3]
 116 0006 002B     		cmp	r3, #0
 117 0008 04D1     		bne	.L8
 161:.\Generated_Source\PSoC4/I2S.c ****     {
 162:.\Generated_Source\PSoC4/I2S.c ****         I2S_Init();
 118              		.loc 1 162 0
 119 000a FFF7FEFF 		bl	I2S_Init
 120              	.LVL2:
 163:.\Generated_Source\PSoC4/I2S.c ****         I2S_initVar = 1u;
 121              		.loc 1 163 0
 122 000e 0122     		mov	r2, #1
ARM GAS  C:\Users\Terence\AppData\Local\Temp\cc1UtWUh.s 			page 6


 123 0010 024B     		ldr	r3, .L9
 124 0012 1A70     		strb	r2, [r3]
 125              	.L8:
 164:.\Generated_Source\PSoC4/I2S.c ****     }
 165:.\Generated_Source\PSoC4/I2S.c **** 
 166:.\Generated_Source\PSoC4/I2S.c ****     I2S_Enable();
 126              		.loc 1 166 0
 127 0014 FFF7FEFF 		bl	I2S_Enable
 128              	.LVL3:
 167:.\Generated_Source\PSoC4/I2S.c **** }
 129              		.loc 1 167 0
 130              		@ sp needed
 131 0018 08BD     		pop	{r3, pc}
 132              	.L10:
 133 001a C046     		.align	2
 134              	.L9:
 135 001c 00000000 		.word	.LANCHOR0
 136              		.cfi_endproc
 137              	.LFE4:
 138              		.size	I2S_Start, .-I2S_Start
 139              		.section	.text.I2S_EnableTx,"ax",%progbits
 140              		.align	2
 141              		.global	I2S_EnableTx
 142              		.code	16
 143              		.thumb_func
 144              		.type	I2S_EnableTx, %function
 145              	I2S_EnableTx:
 146              	.LFB6:
 168:.\Generated_Source\PSoC4/I2S.c **** 
 169:.\Generated_Source\PSoC4/I2S.c **** 
 170:.\Generated_Source\PSoC4/I2S.c **** /*******************************************************************************
 171:.\Generated_Source\PSoC4/I2S.c **** * Function Name: I2S_Stop
 172:.\Generated_Source\PSoC4/I2S.c **** ********************************************************************************
 173:.\Generated_Source\PSoC4/I2S.c **** *
 174:.\Generated_Source\PSoC4/I2S.c **** * Summary:
 175:.\Generated_Source\PSoC4/I2S.c **** *  Disables the I2S interface. The sck and ws outputs are set to 0. The Tx and
 176:.\Generated_Source\PSoC4/I2S.c **** *  Rx directions are disabled and their FIFOs are cleared.
 177:.\Generated_Source\PSoC4/I2S.c **** *
 178:.\Generated_Source\PSoC4/I2S.c **** * Parameters:
 179:.\Generated_Source\PSoC4/I2S.c **** *  None.
 180:.\Generated_Source\PSoC4/I2S.c **** *
 181:.\Generated_Source\PSoC4/I2S.c **** * Return:
 182:.\Generated_Source\PSoC4/I2S.c **** *  None.
 183:.\Generated_Source\PSoC4/I2S.c **** *
 184:.\Generated_Source\PSoC4/I2S.c **** *******************************************************************************/
 185:.\Generated_Source\PSoC4/I2S.c **** void I2S_Stop(void) 
 186:.\Generated_Source\PSoC4/I2S.c **** {
 187:.\Generated_Source\PSoC4/I2S.c ****     uint8 enableInterrupts;
 188:.\Generated_Source\PSoC4/I2S.c **** 
 189:.\Generated_Source\PSoC4/I2S.c ****     I2S_CONTROL_REG &= (uint8)~I2S_EN;
 190:.\Generated_Source\PSoC4/I2S.c **** 
 191:.\Generated_Source\PSoC4/I2S.c ****     enableInterrupts = CyEnterCriticalSection();
 192:.\Generated_Source\PSoC4/I2S.c ****     I2S_AUX_CONTROL_REG &= (uint8)~I2S_CNT_START;
 193:.\Generated_Source\PSoC4/I2S.c ****     CyExitCriticalSection(enableInterrupts);
 194:.\Generated_Source\PSoC4/I2S.c **** 
 195:.\Generated_Source\PSoC4/I2S.c ****     /* Clear counter value to force reload when component is enabled */
 196:.\Generated_Source\PSoC4/I2S.c ****     I2S_CNT_COUNT_REG = 0u;
ARM GAS  C:\Users\Terence\AppData\Local\Temp\cc1UtWUh.s 			page 7


 197:.\Generated_Source\PSoC4/I2S.c **** 
 198:.\Generated_Source\PSoC4/I2S.c ****     #if (I2S_TX_DIRECTION_ENABLE)
 199:.\Generated_Source\PSoC4/I2S.c ****         I2S_DisableTx();
 200:.\Generated_Source\PSoC4/I2S.c ****         I2S_ClearTxFIFO();
 201:.\Generated_Source\PSoC4/I2S.c ****     #endif /* (I2S_TX_DIRECTION_ENABLE) */
 202:.\Generated_Source\PSoC4/I2S.c ****     
 203:.\Generated_Source\PSoC4/I2S.c ****     #if (I2S_RX_DIRECTION_ENABLE)
 204:.\Generated_Source\PSoC4/I2S.c ****         I2S_DisableRx();
 205:.\Generated_Source\PSoC4/I2S.c ****         I2S_ClearRxFIFO();
 206:.\Generated_Source\PSoC4/I2S.c ****     #endif /* (I2S_RX_DIRECTION_ENABLE) */
 207:.\Generated_Source\PSoC4/I2S.c **** }
 208:.\Generated_Source\PSoC4/I2S.c **** 
 209:.\Generated_Source\PSoC4/I2S.c **** #if (I2S_DYNAMIC_BIT_RESOLUTION)
 210:.\Generated_Source\PSoC4/I2S.c ****     /*******************************************************************************
 211:.\Generated_Source\PSoC4/I2S.c ****     * Function Name: I2S_SetDataBits
 212:.\Generated_Source\PSoC4/I2S.c ****     ********************************************************************************
 213:.\Generated_Source\PSoC4/I2S.c ****     *
 214:.\Generated_Source\PSoC4/I2S.c ****     * Summary:
 215:.\Generated_Source\PSoC4/I2S.c ****     *  Sets the number of data bits for each sample. The component must be stopped
 216:.\Generated_Source\PSoC4/I2S.c ****     *  before calling this API.
 217:.\Generated_Source\PSoC4/I2S.c ****     *
 218:.\Generated_Source\PSoC4/I2S.c ****     * Parameters:
 219:.\Generated_Source\PSoC4/I2S.c ****     *  dataBits: the number of data bits for each sample. Valid values - 8/16/24/32.
 220:.\Generated_Source\PSoC4/I2S.c ****     *  If Tx or Rx byte swapping is enabled, valid values are 16 and 24.
 221:.\Generated_Source\PSoC4/I2S.c ****     *
 222:.\Generated_Source\PSoC4/I2S.c ****     * Return:
 223:.\Generated_Source\PSoC4/I2S.c ****     *  CYRET_SUCCESS  : Operation is successful
 224:.\Generated_Source\PSoC4/I2S.c ****     *  CYRET_BAD_PARAM: Invalid parameter value
 225:.\Generated_Source\PSoC4/I2S.c ****     *
 226:.\Generated_Source\PSoC4/I2S.c ****     * Side effects:
 227:.\Generated_Source\PSoC4/I2S.c ****     *  Calling this API while the component is operating may cause unexpected
 228:.\Generated_Source\PSoC4/I2S.c ****     *  behavior.
 229:.\Generated_Source\PSoC4/I2S.c ****     *
 230:.\Generated_Source\PSoC4/I2S.c ****     *******************************************************************************/
 231:.\Generated_Source\PSoC4/I2S.c ****     cystatus I2S_SetDataBits(uint8 dataBits)   
 232:.\Generated_Source\PSoC4/I2S.c ****     {
 233:.\Generated_Source\PSoC4/I2S.c ****         cystatus status;
 234:.\Generated_Source\PSoC4/I2S.c **** 
 235:.\Generated_Source\PSoC4/I2S.c ****         CYASSERT((dataBits >= I2S_MIN_DATA_BITS) && (dataBits <= I2S_MAX_DATA_BITS));
 236:.\Generated_Source\PSoC4/I2S.c **** 
 237:.\Generated_Source\PSoC4/I2S.c ****         status = CYRET_SUCCESS;
 238:.\Generated_Source\PSoC4/I2S.c ****         /* The component must be stopped prior calling this API. Therefore
 239:.\Generated_Source\PSoC4/I2S.c ****         * all the control bits except the bits modified are zeros.
 240:.\Generated_Source\PSoC4/I2S.c ****         */
 241:.\Generated_Source\PSoC4/I2S.c ****         switch(dataBits)
 242:.\Generated_Source\PSoC4/I2S.c ****         {
 243:.\Generated_Source\PSoC4/I2S.c ****         case I2S_8BIT_DATA:
 244:.\Generated_Source\PSoC4/I2S.c ****             I2S_CONTROL_REG = I2S_8BIT_MODE;
 245:.\Generated_Source\PSoC4/I2S.c ****             break;
 246:.\Generated_Source\PSoC4/I2S.c ****         case I2S_16BIT_DATA:
 247:.\Generated_Source\PSoC4/I2S.c ****             I2S_CONTROL_REG = I2S_16BIT_MODE;
 248:.\Generated_Source\PSoC4/I2S.c ****             break;
 249:.\Generated_Source\PSoC4/I2S.c ****         case I2S_24BIT_DATA:
 250:.\Generated_Source\PSoC4/I2S.c ****             I2S_CONTROL_REG = I2S_24BIT_MODE;
 251:.\Generated_Source\PSoC4/I2S.c ****             break;
 252:.\Generated_Source\PSoC4/I2S.c ****         case I2S_32BIT_DATA:
 253:.\Generated_Source\PSoC4/I2S.c ****             I2S_CONTROL_REG = I2S_32BIT_MODE;
ARM GAS  C:\Users\Terence\AppData\Local\Temp\cc1UtWUh.s 			page 8


 254:.\Generated_Source\PSoC4/I2S.c ****             break;
 255:.\Generated_Source\PSoC4/I2S.c ****         default: status = CYRET_BAD_PARAM;
 256:.\Generated_Source\PSoC4/I2S.c ****             break;
 257:.\Generated_Source\PSoC4/I2S.c ****         }
 258:.\Generated_Source\PSoC4/I2S.c **** 
 259:.\Generated_Source\PSoC4/I2S.c ****         return (status);
 260:.\Generated_Source\PSoC4/I2S.c ****     }
 261:.\Generated_Source\PSoC4/I2S.c **** 
 262:.\Generated_Source\PSoC4/I2S.c **** #endif /* I2S_DYNAMIC_BIT_RESOLUTION */
 263:.\Generated_Source\PSoC4/I2S.c **** 
 264:.\Generated_Source\PSoC4/I2S.c **** #if(I2S_TX_DIRECTION_ENABLE)
 265:.\Generated_Source\PSoC4/I2S.c ****     /*******************************************************************************
 266:.\Generated_Source\PSoC4/I2S.c ****     * Function Name: I2S_EnableTx
 267:.\Generated_Source\PSoC4/I2S.c ****     ********************************************************************************
 268:.\Generated_Source\PSoC4/I2S.c ****     *
 269:.\Generated_Source\PSoC4/I2S.c ****     * Summary:
 270:.\Generated_Source\PSoC4/I2S.c ****     *  Enables the Tx direction of the I2S interface.  At the next word
 271:.\Generated_Source\PSoC4/I2S.c ****     *  select falling edge transmission will begin.
 272:.\Generated_Source\PSoC4/I2S.c ****     *
 273:.\Generated_Source\PSoC4/I2S.c ****     * Parameters:
 274:.\Generated_Source\PSoC4/I2S.c ****     *  None.
 275:.\Generated_Source\PSoC4/I2S.c ****     *
 276:.\Generated_Source\PSoC4/I2S.c ****     * Return:
 277:.\Generated_Source\PSoC4/I2S.c ****     *  None.
 278:.\Generated_Source\PSoC4/I2S.c ****     *
 279:.\Generated_Source\PSoC4/I2S.c ****     *******************************************************************************/
 280:.\Generated_Source\PSoC4/I2S.c ****     void I2S_EnableTx(void) 
 281:.\Generated_Source\PSoC4/I2S.c ****     {
 147              		.loc 1 281 0
 148              		.cfi_startproc
 149 0000 08B5     		push	{r3, lr}
 150              		.cfi_def_cfa_offset 8
 151              		.cfi_offset 3, -8
 152              		.cfi_offset 14, -4
 282:.\Generated_Source\PSoC4/I2S.c ****         uint8 enableInterrupts;
 283:.\Generated_Source\PSoC4/I2S.c **** 
 284:.\Generated_Source\PSoC4/I2S.c ****         enableInterrupts = CyEnterCriticalSection();
 153              		.loc 1 284 0
 154 0002 FFF7FEFF 		bl	CyEnterCriticalSection
 155              	.LVL4:
 285:.\Generated_Source\PSoC4/I2S.c ****         I2S_TX_STS0_1_ACTL_REG |= I2S_INT_EN;
 156              		.loc 1 285 0
 157 0006 064A     		ldr	r2, .L12
 158 0008 1178     		ldrb	r1, [r2]
 159 000a 1023     		mov	r3, #16
 160 000c 0B43     		orr	r3, r1
 161 000e 1370     		strb	r3, [r2]
 286:.\Generated_Source\PSoC4/I2S.c ****         #ifdef I2S_TX_STS2_3_ACTL_REG
 287:.\Generated_Source\PSoC4/I2S.c ****             I2S_TX_STS2_3_ACTL_REG |= I2S_INT_EN;
 288:.\Generated_Source\PSoC4/I2S.c ****         #endif /* I2S_TX_STS2_3_ACTL_REG */
 289:.\Generated_Source\PSoC4/I2S.c ****         #ifdef I2S_TX_STS4_ACTL_REG
 290:.\Generated_Source\PSoC4/I2S.c ****             I2S_TX_STS4_ACTL_REG |= I2S_INT_EN;
 291:.\Generated_Source\PSoC4/I2S.c ****         #endif /* I2S_TX_STS4_ACTL_REG */
 292:.\Generated_Source\PSoC4/I2S.c ****         CyExitCriticalSection(enableInterrupts);
 162              		.loc 1 292 0
 163 0010 FFF7FEFF 		bl	CyExitCriticalSection
 164              	.LVL5:
ARM GAS  C:\Users\Terence\AppData\Local\Temp\cc1UtWUh.s 			page 9


 293:.\Generated_Source\PSoC4/I2S.c ****         
 294:.\Generated_Source\PSoC4/I2S.c ****         I2S_CONTROL_REG |= I2S_TX_EN;
 165              		.loc 1 294 0
 166 0014 034A     		ldr	r2, .L12+4
 167 0016 1178     		ldrb	r1, [r2]
 168 0018 0123     		mov	r3, #1
 169 001a 0B43     		orr	r3, r1
 170 001c 1370     		strb	r3, [r2]
 295:.\Generated_Source\PSoC4/I2S.c ****     }
 171              		.loc 1 295 0
 172              		@ sp needed
 173 001e 08BD     		pop	{r3, pc}
 174              	.L13:
 175              		.align	2
 176              	.L12:
 177 0020 93000F40 		.word	1074725011
 178 0024 77000F40 		.word	1074724983
 179              		.cfi_endproc
 180              	.LFE6:
 181              		.size	I2S_EnableTx, .-I2S_EnableTx
 182              		.section	.text.I2S_DisableTx,"ax",%progbits
 183              		.align	2
 184              		.global	I2S_DisableTx
 185              		.code	16
 186              		.thumb_func
 187              		.type	I2S_DisableTx, %function
 188              	I2S_DisableTx:
 189              	.LFB7:
 296:.\Generated_Source\PSoC4/I2S.c **** 
 297:.\Generated_Source\PSoC4/I2S.c **** 
 298:.\Generated_Source\PSoC4/I2S.c ****     /*******************************************************************************
 299:.\Generated_Source\PSoC4/I2S.c ****     * Function Name: I2S_DisableTx
 300:.\Generated_Source\PSoC4/I2S.c ****     ********************************************************************************
 301:.\Generated_Source\PSoC4/I2S.c ****     *
 302:.\Generated_Source\PSoC4/I2S.c ****     * Summary:
 303:.\Generated_Source\PSoC4/I2S.c ****     *  Disables the Tx direction of the I2S interface.  At the next word
 304:.\Generated_Source\PSoC4/I2S.c ****     *  select falling edge transmission of data will stop and a constant 0 value
 305:.\Generated_Source\PSoC4/I2S.c ****     *  will be transmitted.
 306:.\Generated_Source\PSoC4/I2S.c ****     *
 307:.\Generated_Source\PSoC4/I2S.c ****     * Parameters:
 308:.\Generated_Source\PSoC4/I2S.c ****     *  None.
 309:.\Generated_Source\PSoC4/I2S.c ****     *
 310:.\Generated_Source\PSoC4/I2S.c ****     * Return:
 311:.\Generated_Source\PSoC4/I2S.c ****     *  None.
 312:.\Generated_Source\PSoC4/I2S.c ****     *
 313:.\Generated_Source\PSoC4/I2S.c ****     *******************************************************************************/
 314:.\Generated_Source\PSoC4/I2S.c ****     void I2S_DisableTx(void) 
 315:.\Generated_Source\PSoC4/I2S.c ****     {
 190              		.loc 1 315 0
 191              		.cfi_startproc
 192 0000 08B5     		push	{r3, lr}
 193              		.cfi_def_cfa_offset 8
 194              		.cfi_offset 3, -8
 195              		.cfi_offset 14, -4
 316:.\Generated_Source\PSoC4/I2S.c ****         uint8 enableInterrupts;
 317:.\Generated_Source\PSoC4/I2S.c **** 
 318:.\Generated_Source\PSoC4/I2S.c ****         I2S_CONTROL_REG &= (uint8)~I2S_TX_EN;
ARM GAS  C:\Users\Terence\AppData\Local\Temp\cc1UtWUh.s 			page 10


 196              		.loc 1 318 0
 197 0002 074A     		ldr	r2, .L15
 198 0004 1378     		ldrb	r3, [r2]
 199 0006 0121     		mov	r1, #1
 200 0008 8B43     		bic	r3, r1
 201 000a 1370     		strb	r3, [r2]
 319:.\Generated_Source\PSoC4/I2S.c **** 
 320:.\Generated_Source\PSoC4/I2S.c ****         enableInterrupts = CyEnterCriticalSection();
 202              		.loc 1 320 0
 203 000c FFF7FEFF 		bl	CyEnterCriticalSection
 204              	.LVL6:
 321:.\Generated_Source\PSoC4/I2S.c ****         I2S_TX_STS0_1_ACTL_REG &= (uint8)~I2S_INT_EN;
 205              		.loc 1 321 0
 206 0010 044A     		ldr	r2, .L15+4
 207 0012 1378     		ldrb	r3, [r2]
 208 0014 1021     		mov	r1, #16
 209 0016 8B43     		bic	r3, r1
 210 0018 1370     		strb	r3, [r2]
 322:.\Generated_Source\PSoC4/I2S.c ****         #ifdef I2S_TX_STS2_3_ACTL_REG
 323:.\Generated_Source\PSoC4/I2S.c ****             I2S_TX_STS2_3_ACTL_REG &= (uint8)~I2S_INT_EN;
 324:.\Generated_Source\PSoC4/I2S.c ****         #endif /* I2S_TX_STS2_3_ACTL_REG */
 325:.\Generated_Source\PSoC4/I2S.c ****         #ifdef I2S_TX_STS4_ACTL_REG
 326:.\Generated_Source\PSoC4/I2S.c ****             I2S_TX_STS4_ACTL_REG &= (uint8)~I2S_INT_EN;
 327:.\Generated_Source\PSoC4/I2S.c ****         #endif /* I2S_TX_STS4_ACTL_REG */
 328:.\Generated_Source\PSoC4/I2S.c ****         CyExitCriticalSection(enableInterrupts);
 211              		.loc 1 328 0
 212 001a FFF7FEFF 		bl	CyExitCriticalSection
 213              	.LVL7:
 329:.\Generated_Source\PSoC4/I2S.c ****     }
 214              		.loc 1 329 0
 215              		@ sp needed
 216 001e 08BD     		pop	{r3, pc}
 217              	.L16:
 218              		.align	2
 219              	.L15:
 220 0020 77000F40 		.word	1074724983
 221 0024 93000F40 		.word	1074725011
 222              		.cfi_endproc
 223              	.LFE7:
 224              		.size	I2S_DisableTx, .-I2S_DisableTx
 225              		.section	.text.I2S_ClearTxFIFO,"ax",%progbits
 226              		.align	2
 227              		.global	I2S_ClearTxFIFO
 228              		.code	16
 229              		.thumb_func
 230              		.type	I2S_ClearTxFIFO, %function
 231              	I2S_ClearTxFIFO:
 232              	.LFB8:
 330:.\Generated_Source\PSoC4/I2S.c **** 
 331:.\Generated_Source\PSoC4/I2S.c **** 
 332:.\Generated_Source\PSoC4/I2S.c ****     /*******************************************************************************
 333:.\Generated_Source\PSoC4/I2S.c ****     * Function Name: I2S_ClearTxFIFO
 334:.\Generated_Source\PSoC4/I2S.c ****     ********************************************************************************
 335:.\Generated_Source\PSoC4/I2S.c ****     *
 336:.\Generated_Source\PSoC4/I2S.c ****     * Summary:
 337:.\Generated_Source\PSoC4/I2S.c ****     *  Clears out the FIFOs for all Tx channels. Any data present in the FIFO will
 338:.\Generated_Source\PSoC4/I2S.c ****     *  not be sent. This call should be made only when the Tx direction is disabled.
ARM GAS  C:\Users\Terence\AppData\Local\Temp\cc1UtWUh.s 			page 11


 339:.\Generated_Source\PSoC4/I2S.c ****     *
 340:.\Generated_Source\PSoC4/I2S.c ****     * Parameters:
 341:.\Generated_Source\PSoC4/I2S.c ****     *  None.
 342:.\Generated_Source\PSoC4/I2S.c ****     *
 343:.\Generated_Source\PSoC4/I2S.c ****     * Return:
 344:.\Generated_Source\PSoC4/I2S.c ****     *  None.
 345:.\Generated_Source\PSoC4/I2S.c ****     *
 346:.\Generated_Source\PSoC4/I2S.c ****     *******************************************************************************/
 347:.\Generated_Source\PSoC4/I2S.c ****     void I2S_ClearTxFIFO(void) 
 348:.\Generated_Source\PSoC4/I2S.c ****     {
 233              		.loc 1 348 0
 234              		.cfi_startproc
 235 0000 08B5     		push	{r3, lr}
 236              		.cfi_def_cfa_offset 8
 237              		.cfi_offset 3, -8
 238              		.cfi_offset 14, -4
 349:.\Generated_Source\PSoC4/I2S.c ****         uint8 enableInterrupts;
 350:.\Generated_Source\PSoC4/I2S.c **** 
 351:.\Generated_Source\PSoC4/I2S.c ****         enableInterrupts = CyEnterCriticalSection();
 239              		.loc 1 351 0
 240 0002 FFF7FEFF 		bl	CyEnterCriticalSection
 241              	.LVL8:
 352:.\Generated_Source\PSoC4/I2S.c ****         I2S_CLEAR_TX_FIFO(CH0);
 242              		.loc 1 352 0
 243 0006 064B     		ldr	r3, .L18
 244 0008 1978     		ldrb	r1, [r3]
 245 000a 0322     		mov	r2, #3
 246 000c 0A43     		orr	r2, r1
 247 000e 1A70     		strb	r2, [r3]
 248 0010 1A78     		ldrb	r2, [r3]
 249 0012 0321     		mov	r1, #3
 250 0014 8A43     		bic	r2, r1
 251 0016 1A70     		strb	r2, [r3]
 353:.\Generated_Source\PSoC4/I2S.c ****         #if (I2S_TX_STEREO_1_PRESENT)
 354:.\Generated_Source\PSoC4/I2S.c ****             I2S_CLEAR_TX_FIFO(CH1);
 355:.\Generated_Source\PSoC4/I2S.c ****         #endif /* I2S_TX_STEREO_1_PRESENT */
 356:.\Generated_Source\PSoC4/I2S.c ****         #if (I2S_TX_STEREO_2_PRESENT)
 357:.\Generated_Source\PSoC4/I2S.c ****             I2S_CLEAR_TX_FIFO(CH2);
 358:.\Generated_Source\PSoC4/I2S.c ****         #endif /* I2S_TX_STEREO_2_PRESENT */
 359:.\Generated_Source\PSoC4/I2S.c ****         #if (I2S_TX_STEREO_3_PRESENT)
 360:.\Generated_Source\PSoC4/I2S.c ****             I2S_CLEAR_TX_FIFO(CH3);
 361:.\Generated_Source\PSoC4/I2S.c ****         #endif /* I2S_TX_STEREO_3_PRESENT */
 362:.\Generated_Source\PSoC4/I2S.c ****         #if (I2S_TX_STEREO_4_PRESENT)
 363:.\Generated_Source\PSoC4/I2S.c ****             I2S_CLEAR_TX_FIFO(CH4);
 364:.\Generated_Source\PSoC4/I2S.c ****         #endif /* I2S_TX_STEREO_4_PRESENT */
 365:.\Generated_Source\PSoC4/I2S.c ****         CyExitCriticalSection(enableInterrupts);
 252              		.loc 1 365 0
 253 0018 FFF7FEFF 		bl	CyExitCriticalSection
 254              	.LVL9:
 366:.\Generated_Source\PSoC4/I2S.c ****     }
 255              		.loc 1 366 0
 256              		@ sp needed
 257 001c 08BD     		pop	{r3, pc}
 258              	.L19:
 259 001e C046     		.align	2
 260              	.L18:
 261 0020 93000F40 		.word	1074725011
ARM GAS  C:\Users\Terence\AppData\Local\Temp\cc1UtWUh.s 			page 12


 262              		.cfi_endproc
 263              	.LFE8:
 264              		.size	I2S_ClearTxFIFO, .-I2S_ClearTxFIFO
 265              		.section	.text.I2S_EnableRx,"ax",%progbits
 266              		.align	2
 267              		.global	I2S_EnableRx
 268              		.code	16
 269              		.thumb_func
 270              		.type	I2S_EnableRx, %function
 271              	I2S_EnableRx:
 272              	.LFB9:
 367:.\Generated_Source\PSoC4/I2S.c **** 
 368:.\Generated_Source\PSoC4/I2S.c **** #endif /* (I2S_TX_DIRECTION_ENABLE) */
 369:.\Generated_Source\PSoC4/I2S.c **** 
 370:.\Generated_Source\PSoC4/I2S.c **** 
 371:.\Generated_Source\PSoC4/I2S.c **** #if(I2S_RX_DIRECTION_ENABLE)
 372:.\Generated_Source\PSoC4/I2S.c ****     /*******************************************************************************
 373:.\Generated_Source\PSoC4/I2S.c ****     * Function Name: I2S_EnableRx
 374:.\Generated_Source\PSoC4/I2S.c ****     ********************************************************************************
 375:.\Generated_Source\PSoC4/I2S.c ****     *
 376:.\Generated_Source\PSoC4/I2S.c ****     * Summary:
 377:.\Generated_Source\PSoC4/I2S.c ****     *  Enables the Rx direction of the I2S interface.  At the next word
 378:.\Generated_Source\PSoC4/I2S.c ****     *  select falling edge reception of data will begin.
 379:.\Generated_Source\PSoC4/I2S.c ****     *
 380:.\Generated_Source\PSoC4/I2S.c ****     * Parameters:
 381:.\Generated_Source\PSoC4/I2S.c ****     *  None.
 382:.\Generated_Source\PSoC4/I2S.c ****     *
 383:.\Generated_Source\PSoC4/I2S.c ****     * Return:
 384:.\Generated_Source\PSoC4/I2S.c ****     *  None.
 385:.\Generated_Source\PSoC4/I2S.c ****     *
 386:.\Generated_Source\PSoC4/I2S.c ****     *******************************************************************************/
 387:.\Generated_Source\PSoC4/I2S.c ****     void I2S_EnableRx(void) 
 388:.\Generated_Source\PSoC4/I2S.c ****     {
 273              		.loc 1 388 0
 274              		.cfi_startproc
 275 0000 08B5     		push	{r3, lr}
 276              		.cfi_def_cfa_offset 8
 277              		.cfi_offset 3, -8
 278              		.cfi_offset 14, -4
 389:.\Generated_Source\PSoC4/I2S.c ****         uint8 enableInterrupts;
 390:.\Generated_Source\PSoC4/I2S.c **** 
 391:.\Generated_Source\PSoC4/I2S.c ****         enableInterrupts = CyEnterCriticalSection();
 279              		.loc 1 391 0
 280 0002 FFF7FEFF 		bl	CyEnterCriticalSection
 281              	.LVL10:
 392:.\Generated_Source\PSoC4/I2S.c ****         I2S_RX_STS0_1_ACTL_REG |= I2S_INT_EN;
 282              		.loc 1 392 0
 283 0006 064A     		ldr	r2, .L21
 284 0008 1178     		ldrb	r1, [r2]
 285 000a 1023     		mov	r3, #16
 286 000c 0B43     		orr	r3, r1
 287 000e 1370     		strb	r3, [r2]
 393:.\Generated_Source\PSoC4/I2S.c ****         #ifdef I2S_RX_STS2_3_ACTL_REG
 394:.\Generated_Source\PSoC4/I2S.c ****             I2S_RX_STS2_3_ACTL_REG |= I2S_INT_EN;
 395:.\Generated_Source\PSoC4/I2S.c ****         #endif /* I2S_RX_STS2_3_ACTL_REG */
 396:.\Generated_Source\PSoC4/I2S.c ****         #ifdef I2S_RX_STS4_ACTL_REG
 397:.\Generated_Source\PSoC4/I2S.c ****             I2S_RX_STS4_ACTL_REG |= I2S_INT_EN;
ARM GAS  C:\Users\Terence\AppData\Local\Temp\cc1UtWUh.s 			page 13


 398:.\Generated_Source\PSoC4/I2S.c ****         #endif /* I2S_RX_STS4_ACTL_REG */
 399:.\Generated_Source\PSoC4/I2S.c ****         CyExitCriticalSection(enableInterrupts);
 288              		.loc 1 399 0
 289 0010 FFF7FEFF 		bl	CyExitCriticalSection
 290              	.LVL11:
 400:.\Generated_Source\PSoC4/I2S.c ****         
 401:.\Generated_Source\PSoC4/I2S.c ****         I2S_CONTROL_REG |= I2S_RX_EN;
 291              		.loc 1 401 0
 292 0014 034A     		ldr	r2, .L21+4
 293 0016 1178     		ldrb	r1, [r2]
 294 0018 0223     		mov	r3, #2
 295 001a 0B43     		orr	r3, r1
 296 001c 1370     		strb	r3, [r2]
 402:.\Generated_Source\PSoC4/I2S.c ****     }
 297              		.loc 1 402 0
 298              		@ sp needed
 299 001e 08BD     		pop	{r3, pc}
 300              	.L22:
 301              		.align	2
 302              	.L21:
 303 0020 96000F40 		.word	1074725014
 304 0024 77000F40 		.word	1074724983
 305              		.cfi_endproc
 306              	.LFE9:
 307              		.size	I2S_EnableRx, .-I2S_EnableRx
 308              		.section	.text.I2S_DisableRx,"ax",%progbits
 309              		.align	2
 310              		.global	I2S_DisableRx
 311              		.code	16
 312              		.thumb_func
 313              		.type	I2S_DisableRx, %function
 314              	I2S_DisableRx:
 315              	.LFB10:
 403:.\Generated_Source\PSoC4/I2S.c **** 
 404:.\Generated_Source\PSoC4/I2S.c **** 
 405:.\Generated_Source\PSoC4/I2S.c ****     /*******************************************************************************
 406:.\Generated_Source\PSoC4/I2S.c ****     * Function Name: I2S_DisableRx
 407:.\Generated_Source\PSoC4/I2S.c ****     ********************************************************************************
 408:.\Generated_Source\PSoC4/I2S.c ****     *
 409:.\Generated_Source\PSoC4/I2S.c ****     * Summary:
 410:.\Generated_Source\PSoC4/I2S.c ****     *  Disables the Rx direction of the I2S interface.
 411:.\Generated_Source\PSoC4/I2S.c ****     *
 412:.\Generated_Source\PSoC4/I2S.c ****     * Parameters:
 413:.\Generated_Source\PSoC4/I2S.c ****     *  None.
 414:.\Generated_Source\PSoC4/I2S.c ****     *
 415:.\Generated_Source\PSoC4/I2S.c ****     * Return:
 416:.\Generated_Source\PSoC4/I2S.c ****     *  None.
 417:.\Generated_Source\PSoC4/I2S.c ****     *
 418:.\Generated_Source\PSoC4/I2S.c ****     *******************************************************************************/
 419:.\Generated_Source\PSoC4/I2S.c ****     void I2S_DisableRx(void) 
 420:.\Generated_Source\PSoC4/I2S.c ****     {
 316              		.loc 1 420 0
 317              		.cfi_startproc
 318 0000 08B5     		push	{r3, lr}
 319              		.cfi_def_cfa_offset 8
 320              		.cfi_offset 3, -8
 321              		.cfi_offset 14, -4
ARM GAS  C:\Users\Terence\AppData\Local\Temp\cc1UtWUh.s 			page 14


 421:.\Generated_Source\PSoC4/I2S.c ****         uint8 enableInterrupts;
 422:.\Generated_Source\PSoC4/I2S.c **** 
 423:.\Generated_Source\PSoC4/I2S.c ****         I2S_CONTROL_REG &= (uint8)~I2S_RX_EN;
 322              		.loc 1 423 0
 323 0002 074A     		ldr	r2, .L24
 324 0004 1378     		ldrb	r3, [r2]
 325 0006 0221     		mov	r1, #2
 326 0008 8B43     		bic	r3, r1
 327 000a 1370     		strb	r3, [r2]
 424:.\Generated_Source\PSoC4/I2S.c **** 
 425:.\Generated_Source\PSoC4/I2S.c ****         enableInterrupts = CyEnterCriticalSection();
 328              		.loc 1 425 0
 329 000c FFF7FEFF 		bl	CyEnterCriticalSection
 330              	.LVL12:
 426:.\Generated_Source\PSoC4/I2S.c ****         I2S_RX_STS0_1_ACTL_REG &= (uint8)~I2S_INT_EN;
 331              		.loc 1 426 0
 332 0010 044A     		ldr	r2, .L24+4
 333 0012 1378     		ldrb	r3, [r2]
 334 0014 1021     		mov	r1, #16
 335 0016 8B43     		bic	r3, r1
 336 0018 1370     		strb	r3, [r2]
 427:.\Generated_Source\PSoC4/I2S.c ****         #ifdef I2S_RX_STS2_3_ACTL_REG
 428:.\Generated_Source\PSoC4/I2S.c ****             I2S_RX_STS2_3_ACTL_REG &= (uint8)~I2S_INT_EN;
 429:.\Generated_Source\PSoC4/I2S.c ****         #endif /* I2S_RX_STS2_3_ACTL_REG */
 430:.\Generated_Source\PSoC4/I2S.c ****         #ifdef I2S_RX_STS4_ACTL_REG
 431:.\Generated_Source\PSoC4/I2S.c ****             I2S_RX_STS4_ACTL_REG &= (uint8)~I2S_INT_EN;
 432:.\Generated_Source\PSoC4/I2S.c ****         #endif /* I2S_RX_STS4_ACTL_REG */
 433:.\Generated_Source\PSoC4/I2S.c ****         CyExitCriticalSection(enableInterrupts);
 337              		.loc 1 433 0
 338 001a FFF7FEFF 		bl	CyExitCriticalSection
 339              	.LVL13:
 434:.\Generated_Source\PSoC4/I2S.c ****     }
 340              		.loc 1 434 0
 341              		@ sp needed
 342 001e 08BD     		pop	{r3, pc}
 343              	.L25:
 344              		.align	2
 345              	.L24:
 346 0020 77000F40 		.word	1074724983
 347 0024 96000F40 		.word	1074725014
 348              		.cfi_endproc
 349              	.LFE10:
 350              		.size	I2S_DisableRx, .-I2S_DisableRx
 351              		.section	.text.I2S_ClearRxFIFO,"ax",%progbits
 352              		.align	2
 353              		.global	I2S_ClearRxFIFO
 354              		.code	16
 355              		.thumb_func
 356              		.type	I2S_ClearRxFIFO, %function
 357              	I2S_ClearRxFIFO:
 358              	.LFB11:
 435:.\Generated_Source\PSoC4/I2S.c **** 
 436:.\Generated_Source\PSoC4/I2S.c **** 
 437:.\Generated_Source\PSoC4/I2S.c ****     /*******************************************************************************
 438:.\Generated_Source\PSoC4/I2S.c ****     * Function Name: I2S_ClearRxFIFO
 439:.\Generated_Source\PSoC4/I2S.c ****     ********************************************************************************
 440:.\Generated_Source\PSoC4/I2S.c ****     *
ARM GAS  C:\Users\Terence\AppData\Local\Temp\cc1UtWUh.s 			page 15


 441:.\Generated_Source\PSoC4/I2S.c ****     * Summary:
 442:.\Generated_Source\PSoC4/I2S.c ****     *  Clears out the Rx FIFO.  Any data present in the FIFO will be lost.
 443:.\Generated_Source\PSoC4/I2S.c ****     *  This call should be made only when the Rx direction is disabled.
 444:.\Generated_Source\PSoC4/I2S.c ****     *
 445:.\Generated_Source\PSoC4/I2S.c ****     * Parameters:
 446:.\Generated_Source\PSoC4/I2S.c ****     *  None.
 447:.\Generated_Source\PSoC4/I2S.c ****     *
 448:.\Generated_Source\PSoC4/I2S.c ****     * Return:
 449:.\Generated_Source\PSoC4/I2S.c ****     *  None.
 450:.\Generated_Source\PSoC4/I2S.c ****     *
 451:.\Generated_Source\PSoC4/I2S.c ****     *******************************************************************************/
 452:.\Generated_Source\PSoC4/I2S.c ****     void I2S_ClearRxFIFO(void) 
 453:.\Generated_Source\PSoC4/I2S.c ****     {
 359              		.loc 1 453 0
 360              		.cfi_startproc
 361 0000 08B5     		push	{r3, lr}
 362              		.cfi_def_cfa_offset 8
 363              		.cfi_offset 3, -8
 364              		.cfi_offset 14, -4
 454:.\Generated_Source\PSoC4/I2S.c ****         uint8 enableInterrupts;
 455:.\Generated_Source\PSoC4/I2S.c **** 
 456:.\Generated_Source\PSoC4/I2S.c ****         enableInterrupts = CyEnterCriticalSection();
 365              		.loc 1 456 0
 366 0002 FFF7FEFF 		bl	CyEnterCriticalSection
 367              	.LVL14:
 457:.\Generated_Source\PSoC4/I2S.c ****         I2S_CLEAR_RX_FIFO(CH0);
 368              		.loc 1 457 0
 369 0006 064B     		ldr	r3, .L27
 370 0008 1978     		ldrb	r1, [r3]
 371 000a 0322     		mov	r2, #3
 372 000c 0A43     		orr	r2, r1
 373 000e 1A70     		strb	r2, [r3]
 374 0010 1A78     		ldrb	r2, [r3]
 375 0012 0321     		mov	r1, #3
 376 0014 8A43     		bic	r2, r1
 377 0016 1A70     		strb	r2, [r3]
 458:.\Generated_Source\PSoC4/I2S.c ****         #if (I2S_RX_STEREO_1_PRESENT)
 459:.\Generated_Source\PSoC4/I2S.c ****             I2S_CLEAR_RX_FIFO(CH1);
 460:.\Generated_Source\PSoC4/I2S.c ****         #endif /* I2S_RX_STEREO_1_PRESENT */
 461:.\Generated_Source\PSoC4/I2S.c ****         #if (I2S_RX_STEREO_2_PRESENT)
 462:.\Generated_Source\PSoC4/I2S.c ****             I2S_CLEAR_RX_FIFO(CH2);
 463:.\Generated_Source\PSoC4/I2S.c ****         #endif /* I2S_RX_STEREO_2_PRESENT */
 464:.\Generated_Source\PSoC4/I2S.c ****         #if (I2S_RX_STEREO_3_PRESENT)
 465:.\Generated_Source\PSoC4/I2S.c ****             I2S_CLEAR_RX_FIFO(CH3);
 466:.\Generated_Source\PSoC4/I2S.c ****         #endif /* I2S_RX_STEREO_3_PRESENT */
 467:.\Generated_Source\PSoC4/I2S.c ****         #if (I2S_RX_STEREO_4_PRESENT)
 468:.\Generated_Source\PSoC4/I2S.c ****             I2S_CLEAR_RX_FIFO(CH4);
 469:.\Generated_Source\PSoC4/I2S.c ****         #endif /* I2S_RX_STEREO_4_PRESENT */
 470:.\Generated_Source\PSoC4/I2S.c ****         CyExitCriticalSection(enableInterrupts);
 378              		.loc 1 470 0
 379 0018 FFF7FEFF 		bl	CyExitCriticalSection
 380              	.LVL15:
 471:.\Generated_Source\PSoC4/I2S.c ****     }
 381              		.loc 1 471 0
 382              		@ sp needed
 383 001c 08BD     		pop	{r3, pc}
 384              	.L28:
ARM GAS  C:\Users\Terence\AppData\Local\Temp\cc1UtWUh.s 			page 16


 385 001e C046     		.align	2
 386              	.L27:
 387 0020 95000F40 		.word	1074725013
 388              		.cfi_endproc
 389              	.LFE11:
 390              		.size	I2S_ClearRxFIFO, .-I2S_ClearRxFIFO
 391              		.section	.text.I2S_Stop,"ax",%progbits
 392              		.align	2
 393              		.global	I2S_Stop
 394              		.code	16
 395              		.thumb_func
 396              		.type	I2S_Stop, %function
 397              	I2S_Stop:
 398              	.LFB5:
 186:.\Generated_Source\PSoC4/I2S.c ****     uint8 enableInterrupts;
 399              		.loc 1 186 0
 400              		.cfi_startproc
 401 0000 08B5     		push	{r3, lr}
 402              		.cfi_def_cfa_offset 8
 403              		.cfi_offset 3, -8
 404              		.cfi_offset 14, -4
 189:.\Generated_Source\PSoC4/I2S.c **** 
 405              		.loc 1 189 0
 406 0002 0D4A     		ldr	r2, .L30
 407 0004 1378     		ldrb	r3, [r2]
 408 0006 0421     		mov	r1, #4
 409 0008 8B43     		bic	r3, r1
 410 000a 1370     		strb	r3, [r2]
 191:.\Generated_Source\PSoC4/I2S.c ****     I2S_AUX_CONTROL_REG &= (uint8)~I2S_CNT_START;
 411              		.loc 1 191 0
 412 000c FFF7FEFF 		bl	CyEnterCriticalSection
 413              	.LVL16:
 192:.\Generated_Source\PSoC4/I2S.c ****     CyExitCriticalSection(enableInterrupts);
 414              		.loc 1 192 0
 415 0010 0A4A     		ldr	r2, .L30+4
 416 0012 1378     		ldrb	r3, [r2]
 417 0014 2021     		mov	r1, #32
 418 0016 8B43     		bic	r3, r1
 419 0018 1370     		strb	r3, [r2]
 193:.\Generated_Source\PSoC4/I2S.c **** 
 420              		.loc 1 193 0
 421 001a FFF7FEFF 		bl	CyExitCriticalSection
 422              	.LVL17:
 196:.\Generated_Source\PSoC4/I2S.c **** 
 423              		.loc 1 196 0
 424 001e 0022     		mov	r2, #0
 425 0020 074B     		ldr	r3, .L30+8
 426 0022 1A70     		strb	r2, [r3]
 199:.\Generated_Source\PSoC4/I2S.c ****         I2S_ClearTxFIFO();
 427              		.loc 1 199 0
 428 0024 FFF7FEFF 		bl	I2S_DisableTx
 429              	.LVL18:
 200:.\Generated_Source\PSoC4/I2S.c ****     #endif /* (I2S_TX_DIRECTION_ENABLE) */
 430              		.loc 1 200 0
 431 0028 FFF7FEFF 		bl	I2S_ClearTxFIFO
 432              	.LVL19:
 204:.\Generated_Source\PSoC4/I2S.c ****         I2S_ClearRxFIFO();
ARM GAS  C:\Users\Terence\AppData\Local\Temp\cc1UtWUh.s 			page 17


 433              		.loc 1 204 0
 434 002c FFF7FEFF 		bl	I2S_DisableRx
 435              	.LVL20:
 205:.\Generated_Source\PSoC4/I2S.c ****     #endif /* (I2S_RX_DIRECTION_ENABLE) */
 436              		.loc 1 205 0
 437 0030 FFF7FEFF 		bl	I2S_ClearRxFIFO
 438              	.LVL21:
 207:.\Generated_Source\PSoC4/I2S.c **** 
 439              		.loc 1 207 0
 440              		@ sp needed
 441 0034 08BD     		pop	{r3, pc}
 442              	.L31:
 443 0036 C046     		.align	2
 444              	.L30:
 445 0038 77000F40 		.word	1074724983
 446 003c 90000F40 		.word	1074725008
 447 0040 70000F40 		.word	1074724976
 448              		.cfi_endproc
 449              	.LFE5:
 450              		.size	I2S_Stop, .-I2S_Stop
 451              		.global	I2S_initVar
 452              		.bss
 453              		.set	.LANCHOR0,. + 0
 454              		.type	I2S_initVar, %object
 455              		.size	I2S_initVar, 1
 456              	I2S_initVar:
 457 0000 00       		.space	1
 458              		.text
 459              	.Letext0:
 460              		.file 2 ".\\Generated_Source\\PSoC4\\cytypes.h"
 461              		.file 3 ".\\Generated_Source\\PSoC4\\CyLib.h"