ARM GAS  C:\Users\Terence\AppData\Local\Temp\ccT9Nh7D.s 			page 1


   1              		.cpu cortex-m0
   2              		.fpu softvfp
   3              		.eabi_attribute 20, 1
   4              		.eabi_attribute 21, 1
   5              		.eabi_attribute 23, 3
   6              		.eabi_attribute 24, 1
   7              		.eabi_attribute 25, 1
   8              		.eabi_attribute 26, 1
   9              		.eabi_attribute 30, 1
  10              		.eabi_attribute 34, 0
  11              		.eabi_attribute 18, 4
  12              		.code	16
  13              		.file	"Interrupts.c"
  14              		.text
  15              	.Ltext0:
  16              		.cfi_sections	.debug_frame
  17              		.section	.text.InDMADone_Interrupt,"ax",%progbits
  18              		.align	2
  19              		.global	InDMADone_Interrupt
  20              		.code	16
  21              		.thumb_func
  22              		.type	InDMADone_Interrupt, %function
  23              	InDMADone_Interrupt:
  24              	.LFB325:
  25              		.file 1 ".\\Interrupts.c"
   1:.\Interrupts.c **** /*******************************************************************************
   2:.\Interrupts.c **** * File Name: Interrupts.c
   3:.\Interrupts.c **** *
   4:.\Interrupts.c **** * Version 1.0
   5:.\Interrupts.c **** *
   6:.\Interrupts.c **** *  Description: This file contains interrupt service routines for all the interrupts
   7:.\Interrupts.c **** *               in the system
   8:.\Interrupts.c **** *
   9:.\Interrupts.c **** *******************************************************************************
  10:.\Interrupts.c **** * Copyright (2015), Cypress Semiconductor Corporation.
  11:.\Interrupts.c **** *******************************************************************************
  12:.\Interrupts.c **** * This software, including source code, documentation and related materials
  13:.\Interrupts.c **** * ("Software") is owned by Cypress Semiconductor Corporation (Cypress) and is
  14:.\Interrupts.c **** * protected by and subject to worldwide patent protection (United States and 
  15:.\Interrupts.c **** * foreign), United States copyright laws and international treaty provisions. 
  16:.\Interrupts.c **** * Cypress hereby grants to licensee a personal, non-exclusive, non-transferable
  17:.\Interrupts.c **** * license to copy, use, modify, create derivative works of, and compile the 
  18:.\Interrupts.c **** * Cypress source code and derivative works for the sole purpose of creating 
  19:.\Interrupts.c **** * custom software in support of licensee product, such licensee product to be
  20:.\Interrupts.c **** * used only in conjunction with Cypress's integrated circuit as specified in the
  21:.\Interrupts.c **** * applicable agreement. Any reproduction, modification, translation, compilation,
  22:.\Interrupts.c **** * or representation of this Software except as specified above is prohibited 
  23:.\Interrupts.c **** * without the express written permission of Cypress.
  24:.\Interrupts.c **** * 
  25:.\Interrupts.c **** * Disclaimer: THIS SOFTWARE IS PROVIDED AS-IS, WITH NO WARRANTY OF ANY KIND, 
  26:.\Interrupts.c **** * EXPRESS OR IMPLIED, INCLUDING, BUT NOT LIMITED TO, NONINFRINGEMENT, IMPLIED 
  27:.\Interrupts.c **** * WARRANTIES OF MERCHANTABILITY AND FITNESS FOR A PARTICULAR PURPOSE.
  28:.\Interrupts.c **** * Cypress reserves the right to make changes to the Software without notice. 
  29:.\Interrupts.c **** * Cypress does not assume any liability arising out of the application or use
  30:.\Interrupts.c **** * of Software or any product or circuit described in the Software. Cypress does
  31:.\Interrupts.c **** * not authorize its products for use as critical components in any products 
  32:.\Interrupts.c **** * where a malfunction or failure may reasonably be expected to result in 
ARM GAS  C:\Users\Terence\AppData\Local\Temp\ccT9Nh7D.s 			page 2


  33:.\Interrupts.c **** * significant injury or death ("ACTIVE Risk Product"). By including Cypress's 
  34:.\Interrupts.c **** * product in a ACTIVE Risk Product, the manufacturer of such system or application
  35:.\Interrupts.c **** * assumes all risk of such use and in doing so indemnifies Cypress against all
  36:.\Interrupts.c **** * liability. Use of this Software may be limited by and subject to the applicable
  37:.\Interrupts.c **** * Cypress software license agreement.
  38:.\Interrupts.c **** *******************************************************************************/
  39:.\Interrupts.c **** #include <AudioControl.h>
  40:.\Interrupts.c **** #include <AudioOut.h>
  41:.\Interrupts.c **** #include <Config.h>
  42:.\Interrupts.c **** #include <project.h>
  43:.\Interrupts.c **** #include <Application.h>
  44:.\Interrupts.c **** #include <Interrupts.h>
  45:.\Interrupts.c **** 
  46:.\Interrupts.c **** extern uint16 inCnt;
  47:.\Interrupts.c **** extern uint16 inLevel;
  48:.\Interrupts.c **** extern uint16 inUsbCount;
  49:.\Interrupts.c **** extern uint16 inUsbShadow;
  50:.\Interrupts.c **** extern uint16 outLevel;
  51:.\Interrupts.c **** extern uint16 outUsbCount;
  52:.\Interrupts.c **** extern uint16 outUsbShadow;
  53:.\Interrupts.c **** 
  54:.\Interrupts.c **** /*******************************************************************************
  55:.\Interrupts.c **** * Function Name: InDMADone_Interrupt
  56:.\Interrupts.c **** ********************************************************************************
  57:.\Interrupts.c **** * Summary:
  58:.\Interrupts.c **** *   The Interrupt Service Routine for isr_InDMADone. Arms USB Audio In end-point
  59:.\Interrupts.c **** * 	for USB host to receive audio data.
  60:.\Interrupts.c **** *
  61:.\Interrupts.c **** *
  62:.\Interrupts.c **** * Parameters:  
  63:.\Interrupts.c **** *	InDMADone interrupt vector
  64:.\Interrupts.c **** *
  65:.\Interrupts.c **** * Return:
  66:.\Interrupts.c **** *   void.
  67:.\Interrupts.c **** *
  68:.\Interrupts.c **** *******************************************************************************/
  69:.\Interrupts.c **** CY_ISR(InDMADone_Interrupt)
  70:.\Interrupts.c **** {
  26              		.loc 1 70 0
  27              		.cfi_startproc
  28 0000 08B5     		push	{r3, lr}
  29              		.cfi_def_cfa_offset 8
  30              		.cfi_offset 3, -8
  31              		.cfi_offset 14, -4
  71:.\Interrupts.c ****     /* Parameters to this API Call CHANGE DEPENDING ON DATA ENDPOINT MEMORY MODE */
  72:.\Interrupts.c ****     USBFS_LoadInEP(AUDIO_IN_ENDPOINT, USBFS_NULL, inCnt);
  32              		.loc 1 72 0
  33 0002 034B     		ldr	r3, .L2
  34 0004 1A88     		ldrh	r2, [r3]
  35 0006 0220     		mov	r0, #2
  36 0008 0021     		mov	r1, #0
  37 000a FFF7FEFF 		bl	USBFS_LoadInEP
  38              	.LVL0:
  73:.\Interrupts.c **** }
  39              		.loc 1 73 0
  40              		@ sp needed
  41 000e 08BD     		pop	{r3, pc}
ARM GAS  C:\Users\Terence\AppData\Local\Temp\ccT9Nh7D.s 			page 3


  42              	.L3:
  43              		.align	2
  44              	.L2:
  45 0010 00000000 		.word	inCnt
  46              		.cfi_endproc
  47              	.LFE325:
  48              		.size	InDMADone_Interrupt, .-InDMADone_Interrupt
  49              		.section	.text.RxDMADone_Interrupt,"ax",%progbits
  50              		.align	2
  51              		.global	RxDMADone_Interrupt
  52              		.code	16
  53              		.thumb_func
  54              		.type	RxDMADone_Interrupt, %function
  55              	RxDMADone_Interrupt:
  56              	.LFB326:
  74:.\Interrupts.c **** 
  75:.\Interrupts.c **** 
  76:.\Interrupts.c **** 
  77:.\Interrupts.c **** /*******************************************************************************
  78:.\Interrupts.c **** * Function Name: RxDMADone_Interrupt
  79:.\Interrupts.c **** ********************************************************************************
  80:.\Interrupts.c **** * Summary:
  81:.\Interrupts.c **** *   The Interrupt Service Routine for isr_RxDMADone. This handles the AUDIO In
  82:.\Interrupts.c **** *	buffer pointers and detects overflow of the buffer to stop AUDIO In. 
  83:.\Interrupts.c **** *
  84:.\Interrupts.c **** * Parameters:  
  85:.\Interrupts.c **** *	RxDMADone interrupt vector
  86:.\Interrupts.c **** *
  87:.\Interrupts.c **** * Return:
  88:.\Interrupts.c **** *   void.
  89:.\Interrupts.c **** *
  90:.\Interrupts.c **** *******************************************************************************/
  91:.\Interrupts.c **** CY_ISR(RxDMADone_Interrupt)
  92:.\Interrupts.c **** {    
  57              		.loc 1 92 0
  58              		.cfi_startproc
  59 0000 10B5     		push	{r4, lr}
  60              		.cfi_def_cfa_offset 8
  61              		.cfi_offset 4, -8
  62              		.cfi_offset 14, -4
  93:.\Interrupts.c ****     uint16 removed;
  94:.\Interrupts.c **** 	
  95:.\Interrupts.c **** 	/* Note: Care must be taken in the application code to update inUsbCount atomically */
  96:.\Interrupts.c **** 	removed = inUsbCount - inUsbShadow;
  63              		.loc 1 96 0
  64 0002 0A4B     		ldr	r3, .L7
  65 0004 1888     		ldrh	r0, [r3]
  66 0006 0A49     		ldr	r1, .L7+4
  67 0008 0B88     		ldrh	r3, [r1]
  68 000a C31A     		sub	r3, r0, r3
  69              	.LVL1:
  97:.\Interrupts.c ****     
  98:.\Interrupts.c **** 	inLevel -= removed;
  70              		.loc 1 98 0
  71 000c 094C     		ldr	r4, .L7+8
  72 000e 2288     		ldrh	r2, [r4]
  73 0010 D31A     		sub	r3, r2, r3
ARM GAS  C:\Users\Terence\AppData\Local\Temp\ccT9Nh7D.s 			page 4


  74              	.LVL2:
  75 0012 9BB2     		uxth	r3, r3
  76 0014 2380     		strh	r3, [r4]
  99:.\Interrupts.c ****        
 100:.\Interrupts.c **** 	inUsbShadow = inUsbCount;
  77              		.loc 1 100 0
  78 0016 0880     		strh	r0, [r1]
  79              	.LVL3:
 101:.\Interrupts.c **** 		
 102:.\Interrupts.c **** 	if (inLevel >= IN_BUFSIZE) 
  80              		.loc 1 102 0
  81 0018 074A     		ldr	r2, .L7+12
  82 001a 9342     		cmp	r3, r2
  83 001c 02D9     		bls	.L5
 103:.\Interrupts.c ****     {
 104:.\Interrupts.c **** 		/* Overflow, so disable the DMA, disable the I2S data and tell the main task to reset all its str
 105:.\Interrupts.c **** 		Stop_I2S_Rx();
  84              		.loc 1 105 0
  85 001e FFF7FEFF 		bl	Stop_I2S_Rx
  86              	.LVL4:
  87 0022 02E0     		b	.L4
  88              	.L5:
 106:.\Interrupts.c **** 	}
 107:.\Interrupts.c **** 	else 
 108:.\Interrupts.c ****     {
 109:.\Interrupts.c **** 		inLevel += IN_TRANS_SIZE;
  89              		.loc 1 109 0
  90 0024 9033     		add	r3, r3, #144
  91 0026 034A     		ldr	r2, .L7+8
  92 0028 1380     		strh	r3, [r2]
  93              	.L4:
 110:.\Interrupts.c **** 	} 
 111:.\Interrupts.c **** }
  94              		.loc 1 111 0
  95              		@ sp needed
  96 002a 10BD     		pop	{r4, pc}
  97              	.L8:
  98              		.align	2
  99              	.L7:
 100 002c 00000000 		.word	inUsbCount
 101 0030 00000000 		.word	inUsbShadow
 102 0034 00000000 		.word	inLevel
 103 0038 7F040000 		.word	1151
 104              		.cfi_endproc
 105              	.LFE326:
 106              		.size	RxDMADone_Interrupt, .-RxDMADone_Interrupt
 107              		.section	.text.TxDMADone_Interrupt,"ax",%progbits
 108              		.align	2
 109              		.global	TxDMADone_Interrupt
 110              		.code	16
 111              		.thumb_func
 112              		.type	TxDMADone_Interrupt, %function
 113              	TxDMADone_Interrupt:
 114              	.LFB327:
 112:.\Interrupts.c **** 
 113:.\Interrupts.c **** 
 114:.\Interrupts.c **** /*******************************************************************************
ARM GAS  C:\Users\Terence\AppData\Local\Temp\ccT9Nh7D.s 			page 5


 115:.\Interrupts.c **** * Function Name: TxDMADone_Interrupt
 116:.\Interrupts.c **** ********************************************************************************
 117:.\Interrupts.c **** * Summary:
 118:.\Interrupts.c **** *   The Interrupt Service Routine for isr_TxDMADone. This handles the AUDIO Out
 119:.\Interrupts.c **** *	buffer pointers and detects underflow of the buffer to stop AUDIO out.
 120:.\Interrupts.c **** *
 121:.\Interrupts.c **** * Parameters:  
 122:.\Interrupts.c **** *	TxDMADone interrupt vector
 123:.\Interrupts.c **** *
 124:.\Interrupts.c **** * Return:
 125:.\Interrupts.c **** *   void.
 126:.\Interrupts.c **** *
 127:.\Interrupts.c **** *******************************************************************************/
 128:.\Interrupts.c **** CY_ISR(TxDMADone_Interrupt)
 129:.\Interrupts.c **** {
 115              		.loc 1 129 0
 116              		.cfi_startproc
 117 0000 10B5     		push	{r4, lr}
 118              		.cfi_def_cfa_offset 8
 119              		.cfi_offset 4, -8
 120              		.cfi_offset 14, -4
 130:.\Interrupts.c **** 
 131:.\Interrupts.c **** 	uint16 added;
 132:.\Interrupts.c **** 
 133:.\Interrupts.c **** 	/* Note: Care must be taken in the application code to update outUsbCount atomically
 134:.\Interrupts.c **** 	 * Code is currently implemented with both updater of this value in interrupts that are
 135:.\Interrupts.c **** 	 * the same priority so the code will not execute at the same time, but the code
 136:.\Interrupts.c **** 	 * has been written so that this is not a requirement. */
 137:.\Interrupts.c ****     
 138:.\Interrupts.c **** 	added = outUsbCount - outUsbShadow;
 121              		.loc 1 138 0
 122 0002 0E4B     		ldr	r3, .L13
 123 0004 1888     		ldrh	r0, [r3]
 124 0006 0E49     		ldr	r1, .L13+4
 125 0008 0B88     		ldrh	r3, [r1]
 126 000a C31A     		sub	r3, r0, r3
 127              	.LVL5:
 139:.\Interrupts.c ****     
 140:.\Interrupts.c **** 	outLevel += added;
 128              		.loc 1 140 0
 129 000c 0D4C     		ldr	r4, .L13+8
 130 000e 2288     		ldrh	r2, [r4]
 131 0010 9B18     		add	r3, r3, r2
 132              	.LVL6:
 133 0012 9BB2     		uxth	r3, r3
 134 0014 2380     		strh	r3, [r4]
 141:.\Interrupts.c ****             
 142:.\Interrupts.c **** 	outUsbShadow = outUsbCount;
 135              		.loc 1 142 0
 136 0016 0880     		strh	r0, [r1]
 137              	.LVL7:
 143:.\Interrupts.c **** 	
 144:.\Interrupts.c **** 	if (outLevel <= AUDIOMAXPKT) 
 138              		.loc 1 144 0
 139 0018 9022     		mov	r2, #144
 140 001a 5200     		lsl	r2, r2, #1
 141 001c 9342     		cmp	r3, r2
ARM GAS  C:\Users\Terence\AppData\Local\Temp\ccT9Nh7D.s 			page 6


 142 001e 02D8     		bhi	.L10
 145:.\Interrupts.c **** 	{
 146:.\Interrupts.c **** 		/* Underflow, so disable the DMA, disable I2S TX and tell the main task to reset all its structur
 147:.\Interrupts.c **** 		Stop_I2S_Tx();
 143              		.loc 1 147 0
 144 0020 FFF7FEFF 		bl	Stop_I2S_Tx
 145              	.LVL8:
 146 0024 02E0     		b	.L11
 147              	.L10:
 148:.\Interrupts.c **** 	}
 149:.\Interrupts.c **** 	else
 150:.\Interrupts.c **** 	{
 151:.\Interrupts.c **** 		outLevel -= OUT_TRANS_SIZE;
 148              		.loc 1 151 0
 149 0026 903B     		sub	r3, r3, #144
 150 0028 064A     		ldr	r2, .L13+8
 151 002a 1380     		strh	r3, [r2]
 152              	.L11:
 152:.\Interrupts.c **** 	}
 153:.\Interrupts.c **** 	
 154:.\Interrupts.c **** 	if (outLevel > (OUT_BUFSIZE + MAX_AUDIO_SAMPLE_SIZE)) 
 153              		.loc 1 154 0
 154 002c 054B     		ldr	r3, .L13+8
 155 002e 1A88     		ldrh	r2, [r3]
 156 0030 054B     		ldr	r3, .L13+12
 157 0032 9A42     		cmp	r2, r3
 158 0034 01D9     		bls	.L9
 155:.\Interrupts.c **** 	{		
 156:.\Interrupts.c **** 		/* Stop I2S till the overflow condition is present - this provides USB enough time to correct the
 157:.\Interrupts.c **** 			Disable the DMA, mute and tell the main task to reset all its structures Stop DMA */
 158:.\Interrupts.c **** 		Stop_I2S_Tx();
 159              		.loc 1 158 0
 160 0036 FFF7FEFF 		bl	Stop_I2S_Tx
 161              	.LVL9:
 162              	.L9:
 159:.\Interrupts.c **** 	}
 160:.\Interrupts.c **** }
 163              		.loc 1 160 0
 164              		@ sp needed
 165 003a 10BD     		pop	{r4, pc}
 166              	.L14:
 167              		.align	2
 168              	.L13:
 169 003c 00000000 		.word	outUsbCount
 170 0040 00000000 		.word	outUsbShadow
 171 0044 00000000 		.word	outLevel
 172 0048 86040000 		.word	1158
 173              		.cfi_endproc
 174              	.LFE327:
 175              		.size	TxDMADone_Interrupt, .-TxDMADone_Interrupt
 176              		.text
 177              	.Letext0:
 178              		.file 2 "Generated_Source\\PSoC4/cytypes.h"
 179              		.file 3 "./AudioControl.h"
 180              		.file 4 "./AudioOut.h"
 181              		.file 5 "Generated_Source\\PSoC4/USBFS.h"