ARM GAS  C:\Users\Terence\AppData\Local\Temp\cc1hi0St.s 			page 1


   1              		.cpu cortex-m0
   2              		.fpu softvfp
   3              		.eabi_attribute 20, 1
   4              		.eabi_attribute 21, 1
   5              		.eabi_attribute 23, 3
   6              		.eabi_attribute 24, 1
   7              		.eabi_attribute 25, 1
   8              		.eabi_attribute 26, 1
   9              		.eabi_attribute 30, 1
  10              		.eabi_attribute 34, 0
  11              		.eabi_attribute 18, 4
  12              		.code	16
  13              		.file	"TxDMA.c"
  14              		.text
  15              	.Ltext0:
  16              		.cfi_sections	.debug_frame
  17              		.section	.text.TxDMA_Init,"ax",%progbits
  18              		.align	2
  19              		.global	TxDMA_Init
  20              		.code	16
  21              		.thumb_func
  22              		.type	TxDMA_Init, %function
  23              	TxDMA_Init:
  24              	.LFB33:
  25              		.file 1 ".\\Generated_Source\\PSoC4\\TxDMA.c"
   1:.\Generated_Source\PSoC4/TxDMA.c **** /*******************************************************************************
   2:.\Generated_Source\PSoC4/TxDMA.c **** * File Name: TxDMA.h
   3:.\Generated_Source\PSoC4/TxDMA.c **** * Version 1.0
   4:.\Generated_Source\PSoC4/TxDMA.c **** *
   5:.\Generated_Source\PSoC4/TxDMA.c **** * Description:
   6:.\Generated_Source\PSoC4/TxDMA.c **** *  This file contains all of the channel DMA API functions.
   7:.\Generated_Source\PSoC4/TxDMA.c **** *
   8:.\Generated_Source\PSoC4/TxDMA.c **** ********************************************************************************
   9:.\Generated_Source\PSoC4/TxDMA.c **** * Copyright 2015, Cypress Semiconductor Corporation. All rights reserved.
  10:.\Generated_Source\PSoC4/TxDMA.c **** * You may use this file only in accordance with the license, terms, conditions,
  11:.\Generated_Source\PSoC4/TxDMA.c **** * disclaimers, and limitations in the end user license agreement accompanying
  12:.\Generated_Source\PSoC4/TxDMA.c **** * the software package with which this file was provided.
  13:.\Generated_Source\PSoC4/TxDMA.c **** *******************************************************************************/
  14:.\Generated_Source\PSoC4/TxDMA.c **** 
  15:.\Generated_Source\PSoC4/TxDMA.c **** #include "TxDMA.h"
  16:.\Generated_Source\PSoC4/TxDMA.c **** 
  17:.\Generated_Source\PSoC4/TxDMA.c **** uint8 TxDMA_initVar = 0u;
  18:.\Generated_Source\PSoC4/TxDMA.c **** 
  19:.\Generated_Source\PSoC4/TxDMA.c **** 
  20:.\Generated_Source\PSoC4/TxDMA.c **** /*******************************************************************************
  21:.\Generated_Source\PSoC4/TxDMA.c **** * Function Name: TxDMA_Start
  22:.\Generated_Source\PSoC4/TxDMA.c **** ********************************************************************************
  23:.\Generated_Source\PSoC4/TxDMA.c **** *
  24:.\Generated_Source\PSoC4/TxDMA.c **** * Summary:
  25:.\Generated_Source\PSoC4/TxDMA.c **** *  Calls Init() to configure the DMA channel based on the customizer settings if
  26:.\Generated_Source\PSoC4/TxDMA.c **** *  the channel has not been initialized before.
  27:.\Generated_Source\PSoC4/TxDMA.c **** *  Sets source and destination address, validates descriptor 0 and enables the
  28:.\Generated_Source\PSoC4/TxDMA.c **** *  channel. After calling this function the DMA channel is active and waiting
  29:.\Generated_Source\PSoC4/TxDMA.c **** *  for a trigger.
  30:.\Generated_Source\PSoC4/TxDMA.c **** *
  31:.\Generated_Source\PSoC4/TxDMA.c **** * Parameters:
  32:.\Generated_Source\PSoC4/TxDMA.c **** *  srcAddress: Address of DMA transfer source for descriptor 0.
ARM GAS  C:\Users\Terence\AppData\Local\Temp\cc1hi0St.s 			page 2


  33:.\Generated_Source\PSoC4/TxDMA.c **** *  dstAddress: Address of DMA transfer destination for descriptor 0.
  34:.\Generated_Source\PSoC4/TxDMA.c **** *                   
  35:.\Generated_Source\PSoC4/TxDMA.c **** * Return:
  36:.\Generated_Source\PSoC4/TxDMA.c **** *  None.
  37:.\Generated_Source\PSoC4/TxDMA.c **** *
  38:.\Generated_Source\PSoC4/TxDMA.c **** *******************************************************************************/
  39:.\Generated_Source\PSoC4/TxDMA.c **** void TxDMA_Start(void * srcAddress, void * dstAddress)
  40:.\Generated_Source\PSoC4/TxDMA.c **** {
  41:.\Generated_Source\PSoC4/TxDMA.c ****     if(0u == TxDMA_initVar)
  42:.\Generated_Source\PSoC4/TxDMA.c ****     {
  43:.\Generated_Source\PSoC4/TxDMA.c ****         TxDMA_Init();
  44:.\Generated_Source\PSoC4/TxDMA.c ****         TxDMA_initVar = 1u;
  45:.\Generated_Source\PSoC4/TxDMA.c ****     }
  46:.\Generated_Source\PSoC4/TxDMA.c ****     CyDmaEnable();
  47:.\Generated_Source\PSoC4/TxDMA.c ****     TxDMA_SetSrcAddress(0, srcAddress);
  48:.\Generated_Source\PSoC4/TxDMA.c ****     TxDMA_SetDstAddress(0, dstAddress);
  49:.\Generated_Source\PSoC4/TxDMA.c ****     TxDMA_ValidateDescriptor(0);
  50:.\Generated_Source\PSoC4/TxDMA.c ****     TxDMA_ChEnable();
  51:.\Generated_Source\PSoC4/TxDMA.c **** }
  52:.\Generated_Source\PSoC4/TxDMA.c **** 
  53:.\Generated_Source\PSoC4/TxDMA.c **** 
  54:.\Generated_Source\PSoC4/TxDMA.c **** /*******************************************************************************
  55:.\Generated_Source\PSoC4/TxDMA.c **** * Function Name: TxDMA_Init
  56:.\Generated_Source\PSoC4/TxDMA.c **** ********************************************************************************
  57:.\Generated_Source\PSoC4/TxDMA.c **** *
  58:.\Generated_Source\PSoC4/TxDMA.c **** * Summary:
  59:.\Generated_Source\PSoC4/TxDMA.c **** *  Initializes the DMA channel based on the parameters set in the component
  60:.\Generated_Source\PSoC4/TxDMA.c **** *  customizer. It is not necessary to call TxDMA_Init() because the
  61:.\Generated_Source\PSoC4/TxDMA.c **** *  TxDMA_Start() API calls this function, which is the preferred method
  62:.\Generated_Source\PSoC4/TxDMA.c **** *  to begin component operation.
  63:.\Generated_Source\PSoC4/TxDMA.c **** *
  64:.\Generated_Source\PSoC4/TxDMA.c **** * Parameters:
  65:.\Generated_Source\PSoC4/TxDMA.c **** *  None.
  66:.\Generated_Source\PSoC4/TxDMA.c **** *                   
  67:.\Generated_Source\PSoC4/TxDMA.c **** * Return:
  68:.\Generated_Source\PSoC4/TxDMA.c **** *  None.
  69:.\Generated_Source\PSoC4/TxDMA.c **** *
  70:.\Generated_Source\PSoC4/TxDMA.c **** * Side effect:
  71:.\Generated_Source\PSoC4/TxDMA.c **** *  The first descriptor is set to descriptor 0. This function should not be
  72:.\Generated_Source\PSoC4/TxDMA.c **** *  called while the channel is enabled. All settings will be reset to their
  73:.\Generated_Source\PSoC4/TxDMA.c **** *  initial values.
  74:.\Generated_Source\PSoC4/TxDMA.c **** *
  75:.\Generated_Source\PSoC4/TxDMA.c **** *******************************************************************************/
  76:.\Generated_Source\PSoC4/TxDMA.c **** void TxDMA_Init(void)
  77:.\Generated_Source\PSoC4/TxDMA.c **** {
  26              		.loc 1 77 0
  27              		.cfi_startproc
  78:.\Generated_Source\PSoC4/TxDMA.c ****     CYDMA_CH_CTL_BASE.ctl[TxDMA_CHANNEL] = TxDMA_CHANNEL_CFG;
  28              		.loc 1 78 0
  29 0000 0022     		mov	r2, #0
  30 0002 034B     		ldr	r3, .L2
  31 0004 1A60     		str	r2, [r3]
  79:.\Generated_Source\PSoC4/TxDMA.c ****     CYDMA_DESCR_BASE.descriptor[TxDMA_CHANNEL][0].ctl = TxDMA_DESCR0_CFG;
  32              		.loc 1 79 0
  33 0006 034B     		ldr	r3, .L2+4
  34 0008 0349     		ldr	r1, .L2+8
  35 000a 9960     		str	r1, [r3, #8]
ARM GAS  C:\Users\Terence\AppData\Local\Temp\cc1hi0St.s 			page 3


  80:.\Generated_Source\PSoC4/TxDMA.c ****     CYDMA_DESCR_BASE.descriptor[TxDMA_CHANNEL][1].ctl = TxDMA_DESCR1_CFG;
  36              		.loc 1 80 0
  37 000c 9A61     		str	r2, [r3, #24]
  81:.\Generated_Source\PSoC4/TxDMA.c **** 
  82:.\Generated_Source\PSoC4/TxDMA.c ****     /* If the Generate IRQ option is selected for descriptor 0 or 1, set the
  83:.\Generated_Source\PSoC4/TxDMA.c ****     * channel bit field in the DMA interrupt mask register.
  84:.\Generated_Source\PSoC4/TxDMA.c ****     */
  85:.\Generated_Source\PSoC4/TxDMA.c ****     #if (0u != ((TxDMA_DESCR0_CFG | TxDMA_DESCR1_CFG) & CYDMA_GENERATE_IRQ))
  86:.\Generated_Source\PSoC4/TxDMA.c ****         CYDMA_INTR_MASK_REG |= TxDMA_CHANNEL_MASK;
  87:.\Generated_Source\PSoC4/TxDMA.c ****     #endif /* (0u != ((TxDMA_DESCR0_CFG | TxDMA_DESCR1_CFG) & CYDMA_GENERATE_IRQ)) */
  88:.\Generated_Source\PSoC4/TxDMA.c **** }
  38              		.loc 1 88 0
  39              		@ sp needed
  40 000e 7047     		bx	lr
  41              	.L3:
  42              		.align	2
  43              	.L2:
  44 0010 80101040 		.word	1074794624
  45 0014 00181040 		.word	1074796544
  46 0018 7F048001 		.word	25166975
  47              		.cfi_endproc
  48              	.LFE33:
  49              		.size	TxDMA_Init, .-TxDMA_Init
  50              		.section	.text.TxDMA_Start,"ax",%progbits
  51              		.align	2
  52              		.global	TxDMA_Start
  53              		.code	16
  54              		.thumb_func
  55              		.type	TxDMA_Start, %function
  56              	TxDMA_Start:
  57              	.LFB32:
  40:.\Generated_Source\PSoC4/TxDMA.c ****     if(0u == TxDMA_initVar)
  58              		.loc 1 40 0
  59              		.cfi_startproc
  60              	.LVL0:
  61 0000 38B5     		push	{r3, r4, r5, lr}
  62              		.cfi_def_cfa_offset 16
  63              		.cfi_offset 3, -16
  64              		.cfi_offset 4, -12
  65              		.cfi_offset 5, -8
  66              		.cfi_offset 14, -4
  67 0002 051C     		mov	r5, r0
  68 0004 0C1C     		mov	r4, r1
  41:.\Generated_Source\PSoC4/TxDMA.c ****     {
  69              		.loc 1 41 0
  70 0006 0E4B     		ldr	r3, .L6
  71 0008 1B78     		ldrb	r3, [r3]
  72 000a 002B     		cmp	r3, #0
  73 000c 04D1     		bne	.L5
  43:.\Generated_Source\PSoC4/TxDMA.c ****         TxDMA_initVar = 1u;
  74              		.loc 1 43 0
  75 000e FFF7FEFF 		bl	TxDMA_Init
  76              	.LVL1:
  44:.\Generated_Source\PSoC4/TxDMA.c ****     }
  77              		.loc 1 44 0
  78 0012 0122     		mov	r2, #1
  79 0014 0A4B     		ldr	r3, .L6
ARM GAS  C:\Users\Terence\AppData\Local\Temp\cc1hi0St.s 			page 4


  80 0016 1A70     		strb	r2, [r3]
  81              	.L5:
  46:.\Generated_Source\PSoC4/TxDMA.c ****     TxDMA_SetSrcAddress(0, srcAddress);
  82              		.loc 1 46 0
  83 0018 FFF7FEFF 		bl	CyDmaEnable
  84              	.LVL2:
  85              	.LBB10:
  86              	.LBB11:
  87              		.file 2 ".\\Generated_Source\\PSoC4\\TxDMA.h"
   1:.\Generated_Source\PSoC4/TxDMA.h **** /*******************************************************************************
   2:.\Generated_Source\PSoC4/TxDMA.h **** * File Name: TxDMA.h
   3:.\Generated_Source\PSoC4/TxDMA.h **** * Version 1.0
   4:.\Generated_Source\PSoC4/TxDMA.h **** *
   5:.\Generated_Source\PSoC4/TxDMA.h **** * Description:
   6:.\Generated_Source\PSoC4/TxDMA.h **** *  This file provides DMA channel defines and API function definitions.
   7:.\Generated_Source\PSoC4/TxDMA.h **** *
   8:.\Generated_Source\PSoC4/TxDMA.h **** ********************************************************************************
   9:.\Generated_Source\PSoC4/TxDMA.h **** * Copyright 2015, Cypress Semiconductor Corporation. All rights reserved.
  10:.\Generated_Source\PSoC4/TxDMA.h **** * You may use this file only in accordance with the license, terms, conditions,
  11:.\Generated_Source\PSoC4/TxDMA.h **** * disclaimers, and limitations in the end user license agreement accompanying
  12:.\Generated_Source\PSoC4/TxDMA.h **** * the software package with which this file was provided.
  13:.\Generated_Source\PSoC4/TxDMA.h **** *******************************************************************************/
  14:.\Generated_Source\PSoC4/TxDMA.h **** 
  15:.\Generated_Source\PSoC4/TxDMA.h **** #ifndef CY_DMA_CHANNEL_TxDMA_H
  16:.\Generated_Source\PSoC4/TxDMA.h **** #define CY_DMA_CHANNEL_TxDMA_H
  17:.\Generated_Source\PSoC4/TxDMA.h **** 
  18:.\Generated_Source\PSoC4/TxDMA.h **** #include "CyDMA.h"
  19:.\Generated_Source\PSoC4/TxDMA.h **** 
  20:.\Generated_Source\PSoC4/TxDMA.h ****     
  21:.\Generated_Source\PSoC4/TxDMA.h **** /***************************************
  22:.\Generated_Source\PSoC4/TxDMA.h **** *   Conditional Compilation Parameters
  23:.\Generated_Source\PSoC4/TxDMA.h **** ***************************************/
  24:.\Generated_Source\PSoC4/TxDMA.h **** 
  25:.\Generated_Source\PSoC4/TxDMA.h **** #define TxDMA_CHANNEL           (TxDMA__CHANNEL_NUMBER)
  26:.\Generated_Source\PSoC4/TxDMA.h **** #define TxDMA_CHANNEL_MASK      ((uint32)(1UL << TxDMA_CHANNEL))
  27:.\Generated_Source\PSoC4/TxDMA.h **** 
  28:.\Generated_Source\PSoC4/TxDMA.h **** 
  29:.\Generated_Source\PSoC4/TxDMA.h **** /***************************************
  30:.\Generated_Source\PSoC4/TxDMA.h **** *        Function Prototypes
  31:.\Generated_Source\PSoC4/TxDMA.h **** ***************************************/
  32:.\Generated_Source\PSoC4/TxDMA.h **** 
  33:.\Generated_Source\PSoC4/TxDMA.h **** /* Functions specific to this DMA channel */
  34:.\Generated_Source\PSoC4/TxDMA.h **** void TxDMA_Init(void);
  35:.\Generated_Source\PSoC4/TxDMA.h **** void TxDMA_Start(void * srcAddress, void * dstAddress);
  36:.\Generated_Source\PSoC4/TxDMA.h **** 
  37:.\Generated_Source\PSoC4/TxDMA.h **** /* Inline functions that call global API functions */
  38:.\Generated_Source\PSoC4/TxDMA.h **** static void   TxDMA_ChEnable(void);
  39:.\Generated_Source\PSoC4/TxDMA.h **** static void   TxDMA_ChDisable(void);
  40:.\Generated_Source\PSoC4/TxDMA.h **** static void   TxDMA_Trigger(void);
  41:.\Generated_Source\PSoC4/TxDMA.h **** static void   TxDMA_SetPriority(int32 priority);
  42:.\Generated_Source\PSoC4/TxDMA.h **** static int32  TxDMA_GetPriority(void);
  43:.\Generated_Source\PSoC4/TxDMA.h **** static void   TxDMA_SetNextDescriptor(int32 descriptor);
  44:.\Generated_Source\PSoC4/TxDMA.h **** static int32  TxDMA_GetNextDescriptor(void);
  45:.\Generated_Source\PSoC4/TxDMA.h **** static void   TxDMA_SetConfiguration(int32 descriptor, const cydma_init_struct * config);
  46:.\Generated_Source\PSoC4/TxDMA.h **** static void   TxDMA_ValidateDescriptor(int32 descriptor);
  47:.\Generated_Source\PSoC4/TxDMA.h **** static uint32 TxDMA_GetDescriptorStatus(int32 descriptor);
  48:.\Generated_Source\PSoC4/TxDMA.h **** static void   TxDMA_SetSrcAddress(int32 descriptor, void * srcAddress);
ARM GAS  C:\Users\Terence\AppData\Local\Temp\cc1hi0St.s 			page 5


  49:.\Generated_Source\PSoC4/TxDMA.h **** static void * TxDMA_GetSrcAddress(int32 descriptor);
  50:.\Generated_Source\PSoC4/TxDMA.h **** static void   TxDMA_SetDstAddress(int32 descriptor, void * dstAddress);
  51:.\Generated_Source\PSoC4/TxDMA.h **** static void * TxDMA_GetDstAddress(int32 descriptor);
  52:.\Generated_Source\PSoC4/TxDMA.h **** static void   TxDMA_SetDataElementSize(int32 descriptor, uint32 dataElementSize);
  53:.\Generated_Source\PSoC4/TxDMA.h **** static uint32 TxDMA_GetDataElementSize(int32 descriptor);
  54:.\Generated_Source\PSoC4/TxDMA.h **** static void   TxDMA_SetNumDataElements(int32 descriptor, int32 numDataElements);
  55:.\Generated_Source\PSoC4/TxDMA.h **** static int32  TxDMA_GetNumDataElements(int32 descriptor);
  56:.\Generated_Source\PSoC4/TxDMA.h **** static void   TxDMA_SetSrcDstTransferWidth(int32 descriptor, uint32 transferWidth);
  57:.\Generated_Source\PSoC4/TxDMA.h **** static uint32 TxDMA_GetSrcDstTransferWidth(int32 descriptor);
  58:.\Generated_Source\PSoC4/TxDMA.h **** static void   TxDMA_SetAddressIncrement(int32 descriptor, uint32 addressIncrement);
  59:.\Generated_Source\PSoC4/TxDMA.h **** static uint32 TxDMA_GetAddressIncrement(int32 descriptor);
  60:.\Generated_Source\PSoC4/TxDMA.h **** static void   TxDMA_SetTriggerType(int32 descriptor, uint32 triggerType);
  61:.\Generated_Source\PSoC4/TxDMA.h **** static uint32 TxDMA_GetTriggerType(int32 descriptor);
  62:.\Generated_Source\PSoC4/TxDMA.h **** static void   TxDMA_SetTransferMode(int32 descriptor, uint32 transferMode);
  63:.\Generated_Source\PSoC4/TxDMA.h **** static uint32 TxDMA_GetTransferMode(int32 descriptor);
  64:.\Generated_Source\PSoC4/TxDMA.h **** static void   TxDMA_SetPreemptable(int32 descriptor, uint32 preemptable);
  65:.\Generated_Source\PSoC4/TxDMA.h **** static uint32 TxDMA_GetPreemptable(int32 descriptor);
  66:.\Generated_Source\PSoC4/TxDMA.h **** static void   TxDMA_SetPostCompletionActions(int32 descriptor, uint32 actions);
  67:.\Generated_Source\PSoC4/TxDMA.h **** static uint32 TxDMA_GetPostCompletionAction(int32 descriptor);
  68:.\Generated_Source\PSoC4/TxDMA.h **** static cydma_callback_t TxDMA_SetInterruptCallback(cydma_callback_t callback);
  69:.\Generated_Source\PSoC4/TxDMA.h **** static cydma_callback_t TxDMA_GetInterruptCallback(void);
  70:.\Generated_Source\PSoC4/TxDMA.h **** 
  71:.\Generated_Source\PSoC4/TxDMA.h **** 
  72:.\Generated_Source\PSoC4/TxDMA.h **** /*******************************************************************************
  73:.\Generated_Source\PSoC4/TxDMA.h **** * Function Name: TxDMA_ChEnable
  74:.\Generated_Source\PSoC4/TxDMA.h **** ********************************************************************************
  75:.\Generated_Source\PSoC4/TxDMA.h **** *
  76:.\Generated_Source\PSoC4/TxDMA.h **** * Summary:
  77:.\Generated_Source\PSoC4/TxDMA.h **** *  Enables the DMA channel. It is not necessary to call TxDMA_ChEnable()
  78:.\Generated_Source\PSoC4/TxDMA.h **** *  because the TxDMA_Start() API calls this function, which is the
  79:.\Generated_Source\PSoC4/TxDMA.h **** *  preferred method to begin the component operation.
  80:.\Generated_Source\PSoC4/TxDMA.h **** *
  81:.\Generated_Source\PSoC4/TxDMA.h **** * Parameters:
  82:.\Generated_Source\PSoC4/TxDMA.h **** *  None.
  83:.\Generated_Source\PSoC4/TxDMA.h **** *                   
  84:.\Generated_Source\PSoC4/TxDMA.h **** * Return:
  85:.\Generated_Source\PSoC4/TxDMA.h **** *  None.
  86:.\Generated_Source\PSoC4/TxDMA.h **** *
  87:.\Generated_Source\PSoC4/TxDMA.h **** * Side effect:
  88:.\Generated_Source\PSoC4/TxDMA.h **** *  If this function is called before TxDMA_Start(), or TxDMA_Init()
  89:.\Generated_Source\PSoC4/TxDMA.h **** *  or TxDMA_SetConfiguration(), and TxDMA_SetSrcAddress()
  90:.\Generated_Source\PSoC4/TxDMA.h **** *  and TxDMA_SetDstAddress the operation of the DMA is 
  91:.\Generated_Source\PSoC4/TxDMA.h **** *  undefined and could result in system data corruption. 
  92:.\Generated_Source\PSoC4/TxDMA.h **** *
  93:.\Generated_Source\PSoC4/TxDMA.h **** *******************************************************************************/
  94:.\Generated_Source\PSoC4/TxDMA.h **** static CY_INLINE void TxDMA_ChEnable(void)
  95:.\Generated_Source\PSoC4/TxDMA.h **** {
  96:.\Generated_Source\PSoC4/TxDMA.h ****     CyDmaChEnable(TxDMA_CHANNEL);
  97:.\Generated_Source\PSoC4/TxDMA.h **** }
  98:.\Generated_Source\PSoC4/TxDMA.h **** 
  99:.\Generated_Source\PSoC4/TxDMA.h **** 
 100:.\Generated_Source\PSoC4/TxDMA.h **** /*******************************************************************************
 101:.\Generated_Source\PSoC4/TxDMA.h **** * Function Name: TxDMA_ChDisable
 102:.\Generated_Source\PSoC4/TxDMA.h **** ********************************************************************************
 103:.\Generated_Source\PSoC4/TxDMA.h **** *
 104:.\Generated_Source\PSoC4/TxDMA.h **** * Summary:
 105:.\Generated_Source\PSoC4/TxDMA.h **** *  Disables the DMA channel.
ARM GAS  C:\Users\Terence\AppData\Local\Temp\cc1hi0St.s 			page 6


 106:.\Generated_Source\PSoC4/TxDMA.h **** *
 107:.\Generated_Source\PSoC4/TxDMA.h **** * Parameters:
 108:.\Generated_Source\PSoC4/TxDMA.h **** *  None.
 109:.\Generated_Source\PSoC4/TxDMA.h **** *                   
 110:.\Generated_Source\PSoC4/TxDMA.h **** * Return:
 111:.\Generated_Source\PSoC4/TxDMA.h **** *  None.
 112:.\Generated_Source\PSoC4/TxDMA.h **** *
 113:.\Generated_Source\PSoC4/TxDMA.h **** * Side effect:
 114:.\Generated_Source\PSoC4/TxDMA.h **** *  If this function is called during a DMA transfer the transfer is aborted. 
 115:.\Generated_Source\PSoC4/TxDMA.h **** *
 116:.\Generated_Source\PSoC4/TxDMA.h **** *******************************************************************************/
 117:.\Generated_Source\PSoC4/TxDMA.h **** static CY_INLINE void TxDMA_ChDisable(void)
 118:.\Generated_Source\PSoC4/TxDMA.h **** {
 119:.\Generated_Source\PSoC4/TxDMA.h ****     CyDmaChDisable(TxDMA_CHANNEL);
 120:.\Generated_Source\PSoC4/TxDMA.h **** }
 121:.\Generated_Source\PSoC4/TxDMA.h **** 
 122:.\Generated_Source\PSoC4/TxDMA.h **** 
 123:.\Generated_Source\PSoC4/TxDMA.h **** /*******************************************************************************
 124:.\Generated_Source\PSoC4/TxDMA.h **** * Function Name: TxDMA_Trigger
 125:.\Generated_Source\PSoC4/TxDMA.h **** ********************************************************************************
 126:.\Generated_Source\PSoC4/TxDMA.h **** *
 127:.\Generated_Source\PSoC4/TxDMA.h **** * Summary:
 128:.\Generated_Source\PSoC4/TxDMA.h **** *  Triggers the DMA channel, this is useful only for software triggers. This is
 129:.\Generated_Source\PSoC4/TxDMA.h **** *  not needed when hardware triggers are used.
 130:.\Generated_Source\PSoC4/TxDMA.h **** *
 131:.\Generated_Source\PSoC4/TxDMA.h **** * Parameters:
 132:.\Generated_Source\PSoC4/TxDMA.h **** *  None.
 133:.\Generated_Source\PSoC4/TxDMA.h **** *                   
 134:.\Generated_Source\PSoC4/TxDMA.h **** * Return:
 135:.\Generated_Source\PSoC4/TxDMA.h **** *  None. 
 136:.\Generated_Source\PSoC4/TxDMA.h **** *
 137:.\Generated_Source\PSoC4/TxDMA.h **** *******************************************************************************/
 138:.\Generated_Source\PSoC4/TxDMA.h **** static CY_INLINE void TxDMA_Trigger(void)
 139:.\Generated_Source\PSoC4/TxDMA.h **** {
 140:.\Generated_Source\PSoC4/TxDMA.h ****     CyDmaTrigger(TxDMA_CHANNEL);
 141:.\Generated_Source\PSoC4/TxDMA.h **** }
 142:.\Generated_Source\PSoC4/TxDMA.h **** 
 143:.\Generated_Source\PSoC4/TxDMA.h **** 
 144:.\Generated_Source\PSoC4/TxDMA.h **** /*******************************************************************************
 145:.\Generated_Source\PSoC4/TxDMA.h **** * Function Name: TxDMA_SetPriority
 146:.\Generated_Source\PSoC4/TxDMA.h **** ********************************************************************************
 147:.\Generated_Source\PSoC4/TxDMA.h **** *
 148:.\Generated_Source\PSoC4/TxDMA.h **** * Summary:
 149:.\Generated_Source\PSoC4/TxDMA.h **** *  Sets the priority for the channel.
 150:.\Generated_Source\PSoC4/TxDMA.h **** *
 151:.\Generated_Source\PSoC4/TxDMA.h **** * Parameters:
 152:.\Generated_Source\PSoC4/TxDMA.h **** *  priority: Priority for channel. Priority can be 0,1,2, or 3.
 153:.\Generated_Source\PSoC4/TxDMA.h **** *            0 is the highest priority.
 154:.\Generated_Source\PSoC4/TxDMA.h **** *                   
 155:.\Generated_Source\PSoC4/TxDMA.h **** * Return:
 156:.\Generated_Source\PSoC4/TxDMA.h **** *  None.
 157:.\Generated_Source\PSoC4/TxDMA.h **** *
 158:.\Generated_Source\PSoC4/TxDMA.h **** * Side effect:
 159:.\Generated_Source\PSoC4/TxDMA.h **** *  This function should not be called while the channel is enabled.
 160:.\Generated_Source\PSoC4/TxDMA.h **** *
 161:.\Generated_Source\PSoC4/TxDMA.h **** *******************************************************************************/
 162:.\Generated_Source\PSoC4/TxDMA.h **** static CY_INLINE void TxDMA_SetPriority(int32 priority)
ARM GAS  C:\Users\Terence\AppData\Local\Temp\cc1hi0St.s 			page 7


 163:.\Generated_Source\PSoC4/TxDMA.h **** {
 164:.\Generated_Source\PSoC4/TxDMA.h ****     CyDmaSetPriority(TxDMA_CHANNEL, priority);
 165:.\Generated_Source\PSoC4/TxDMA.h **** }
 166:.\Generated_Source\PSoC4/TxDMA.h **** 
 167:.\Generated_Source\PSoC4/TxDMA.h **** 
 168:.\Generated_Source\PSoC4/TxDMA.h **** /*******************************************************************************
 169:.\Generated_Source\PSoC4/TxDMA.h **** * Function Name: TxDMA_GetPriority
 170:.\Generated_Source\PSoC4/TxDMA.h **** ********************************************************************************
 171:.\Generated_Source\PSoC4/TxDMA.h **** *
 172:.\Generated_Source\PSoC4/TxDMA.h **** * Summary:
 173:.\Generated_Source\PSoC4/TxDMA.h **** *  Gets the priority for the channel.
 174:.\Generated_Source\PSoC4/TxDMA.h **** *
 175:.\Generated_Source\PSoC4/TxDMA.h **** * Parameters:
 176:.\Generated_Source\PSoC4/TxDMA.h **** *  None.
 177:.\Generated_Source\PSoC4/TxDMA.h **** *                   
 178:.\Generated_Source\PSoC4/TxDMA.h **** * Return:
 179:.\Generated_Source\PSoC4/TxDMA.h **** *  Priority for channel. Priority can be 0,1,2, or 3. 0 is the highest priority.
 180:.\Generated_Source\PSoC4/TxDMA.h **** *
 181:.\Generated_Source\PSoC4/TxDMA.h **** *******************************************************************************/
 182:.\Generated_Source\PSoC4/TxDMA.h **** static CY_INLINE int32 TxDMA_GetPriority(void)
 183:.\Generated_Source\PSoC4/TxDMA.h **** {
 184:.\Generated_Source\PSoC4/TxDMA.h ****     return (CyDmaGetPriority(TxDMA_CHANNEL));
 185:.\Generated_Source\PSoC4/TxDMA.h **** }
 186:.\Generated_Source\PSoC4/TxDMA.h **** 
 187:.\Generated_Source\PSoC4/TxDMA.h **** 
 188:.\Generated_Source\PSoC4/TxDMA.h **** /*******************************************************************************
 189:.\Generated_Source\PSoC4/TxDMA.h **** * Function Name: TxDMA_SetNextDescriptor
 190:.\Generated_Source\PSoC4/TxDMA.h **** ********************************************************************************
 191:.\Generated_Source\PSoC4/TxDMA.h **** *
 192:.\Generated_Source\PSoC4/TxDMA.h **** * Summary:
 193:.\Generated_Source\PSoC4/TxDMA.h **** *  Sets the descriptor that should be run the next time the channel is
 194:.\Generated_Source\PSoC4/TxDMA.h **** *  triggered.
 195:.\Generated_Source\PSoC4/TxDMA.h **** *
 196:.\Generated_Source\PSoC4/TxDMA.h **** * Parameters:
 197:.\Generated_Source\PSoC4/TxDMA.h **** *  descriptor: Next Descriptor to run (0 or 1).
 198:.\Generated_Source\PSoC4/TxDMA.h **** *                   
 199:.\Generated_Source\PSoC4/TxDMA.h **** * Side effect:
 200:.\Generated_Source\PSoC4/TxDMA.h **** *  This function should not be called while the channel is enabled.
 201:.\Generated_Source\PSoC4/TxDMA.h **** *
 202:.\Generated_Source\PSoC4/TxDMA.h **** *******************************************************************************/
 203:.\Generated_Source\PSoC4/TxDMA.h **** static CY_INLINE void TxDMA_SetNextDescriptor(int32 descriptor)
 204:.\Generated_Source\PSoC4/TxDMA.h **** {
 205:.\Generated_Source\PSoC4/TxDMA.h ****     CyDmaSetNextDescriptor(TxDMA_CHANNEL, descriptor);
 206:.\Generated_Source\PSoC4/TxDMA.h **** }
 207:.\Generated_Source\PSoC4/TxDMA.h **** 
 208:.\Generated_Source\PSoC4/TxDMA.h **** 
 209:.\Generated_Source\PSoC4/TxDMA.h **** /*******************************************************************************
 210:.\Generated_Source\PSoC4/TxDMA.h **** * Function Name: TxDMA_GetNextDescriptor
 211:.\Generated_Source\PSoC4/TxDMA.h **** ********************************************************************************
 212:.\Generated_Source\PSoC4/TxDMA.h **** *
 213:.\Generated_Source\PSoC4/TxDMA.h **** * Summary:
 214:.\Generated_Source\PSoC4/TxDMA.h **** *  Returns the next descriptor that should be run, as set by 
 215:.\Generated_Source\PSoC4/TxDMA.h **** *  TxDMA_SetNextDescriptor().
 216:.\Generated_Source\PSoC4/TxDMA.h **** *
 217:.\Generated_Source\PSoC4/TxDMA.h **** * Parameters:
 218:.\Generated_Source\PSoC4/TxDMA.h **** *  None.
 219:.\Generated_Source\PSoC4/TxDMA.h **** *                   
ARM GAS  C:\Users\Terence\AppData\Local\Temp\cc1hi0St.s 			page 8


 220:.\Generated_Source\PSoC4/TxDMA.h **** * Return:
 221:.\Generated_Source\PSoC4/TxDMA.h **** *  Next Descriptor to run (0 or 1).
 222:.\Generated_Source\PSoC4/TxDMA.h **** *
 223:.\Generated_Source\PSoC4/TxDMA.h **** *******************************************************************************/
 224:.\Generated_Source\PSoC4/TxDMA.h **** static CY_INLINE int32 TxDMA_GetNextDescriptor(void)
 225:.\Generated_Source\PSoC4/TxDMA.h **** {
 226:.\Generated_Source\PSoC4/TxDMA.h ****     return (CyDmaGetNextDescriptor(TxDMA_CHANNEL));
 227:.\Generated_Source\PSoC4/TxDMA.h **** }
 228:.\Generated_Source\PSoC4/TxDMA.h **** 
 229:.\Generated_Source\PSoC4/TxDMA.h **** 
 230:.\Generated_Source\PSoC4/TxDMA.h **** /*******************************************************************************
 231:.\Generated_Source\PSoC4/TxDMA.h **** * Function Name: TxDMA_SetConfiguration
 232:.\Generated_Source\PSoC4/TxDMA.h **** ********************************************************************************
 233:.\Generated_Source\PSoC4/TxDMA.h **** *
 234:.\Generated_Source\PSoC4/TxDMA.h **** * Summary:
 235:.\Generated_Source\PSoC4/TxDMA.h **** *  Sets configuration information for the specified descriptor.
 236:.\Generated_Source\PSoC4/TxDMA.h **** *
 237:.\Generated_Source\PSoC4/TxDMA.h **** * Parameters:
 238:.\Generated_Source\PSoC4/TxDMA.h **** *  descriptor: Descriptor (0 or 1) modified by this function.
 239:.\Generated_Source\PSoC4/TxDMA.h **** *  config: Pointer to a configuration structure. Refer to cydma_init_struct
 240:.\Generated_Source\PSoC4/TxDMA.h **** *          structure definition in CyDMA_P4.h or the component datasheet.
 241:.\Generated_Source\PSoC4/TxDMA.h **** *                   
 242:.\Generated_Source\PSoC4/TxDMA.h **** * Return:
 243:.\Generated_Source\PSoC4/TxDMA.h **** *  None.
 244:.\Generated_Source\PSoC4/TxDMA.h **** *
 245:.\Generated_Source\PSoC4/TxDMA.h **** * Side effect:
 246:.\Generated_Source\PSoC4/TxDMA.h **** *  The status register associated with the specified descriptor is reset to
 247:.\Generated_Source\PSoC4/TxDMA.h **** *  zero after this function call. This function also validates the descriptor.
 248:.\Generated_Source\PSoC4/TxDMA.h **** *  This function should not be called while the descriptor is active.
 249:.\Generated_Source\PSoC4/TxDMA.h **** *  This can be checked by calling CyDmaGetStatus().
 250:.\Generated_Source\PSoC4/TxDMA.h **** *
 251:.\Generated_Source\PSoC4/TxDMA.h **** *******************************************************************************/
 252:.\Generated_Source\PSoC4/TxDMA.h **** static CY_INLINE void TxDMA_SetConfiguration(int32 descriptor, const cydma_init_struct * config)
 253:.\Generated_Source\PSoC4/TxDMA.h **** {
 254:.\Generated_Source\PSoC4/TxDMA.h ****     CyDmaSetConfiguration(TxDMA_CHANNEL, descriptor, config);
 255:.\Generated_Source\PSoC4/TxDMA.h **** }
 256:.\Generated_Source\PSoC4/TxDMA.h **** 
 257:.\Generated_Source\PSoC4/TxDMA.h **** 
 258:.\Generated_Source\PSoC4/TxDMA.h **** /*******************************************************************************
 259:.\Generated_Source\PSoC4/TxDMA.h **** * Function Name: TxDMA_ValidateDescriptor
 260:.\Generated_Source\PSoC4/TxDMA.h **** ********************************************************************************
 261:.\Generated_Source\PSoC4/TxDMA.h **** *
 262:.\Generated_Source\PSoC4/TxDMA.h **** * Summary:
 263:.\Generated_Source\PSoC4/TxDMA.h **** *  Validates the specified descriptor after it has been invalidated.
 264:.\Generated_Source\PSoC4/TxDMA.h **** *
 265:.\Generated_Source\PSoC4/TxDMA.h **** * Parameters:
 266:.\Generated_Source\PSoC4/TxDMA.h **** *  descriptor: Descriptor (0 or 1) modified by this function.
 267:.\Generated_Source\PSoC4/TxDMA.h **** *                   
 268:.\Generated_Source\PSoC4/TxDMA.h **** * Return:
 269:.\Generated_Source\PSoC4/TxDMA.h **** *  None. 
 270:.\Generated_Source\PSoC4/TxDMA.h **** *
 271:.\Generated_Source\PSoC4/TxDMA.h **** * Side effect:
 272:.\Generated_Source\PSoC4/TxDMA.h **** *  The status register associated with the specified descriptor is reset to
 273:.\Generated_Source\PSoC4/TxDMA.h **** *  zero after this function call. This function should not be called while the
 274:.\Generated_Source\PSoC4/TxDMA.h **** *  descriptor is active. This can be checked by calling CyDmaGetStatus().
 275:.\Generated_Source\PSoC4/TxDMA.h **** *
 276:.\Generated_Source\PSoC4/TxDMA.h **** *******************************************************************************/
ARM GAS  C:\Users\Terence\AppData\Local\Temp\cc1hi0St.s 			page 9


 277:.\Generated_Source\PSoC4/TxDMA.h **** static CY_INLINE void TxDMA_ValidateDescriptor(int32 descriptor)
 278:.\Generated_Source\PSoC4/TxDMA.h **** {
 279:.\Generated_Source\PSoC4/TxDMA.h ****     CyDmaValidateDescriptor(TxDMA_CHANNEL, descriptor);
 280:.\Generated_Source\PSoC4/TxDMA.h **** }
 281:.\Generated_Source\PSoC4/TxDMA.h **** 
 282:.\Generated_Source\PSoC4/TxDMA.h **** 
 283:.\Generated_Source\PSoC4/TxDMA.h **** /*******************************************************************************
 284:.\Generated_Source\PSoC4/TxDMA.h **** * Function Name: TxDMA_GetDescriptorStatus
 285:.\Generated_Source\PSoC4/TxDMA.h **** ********************************************************************************
 286:.\Generated_Source\PSoC4/TxDMA.h **** *
 287:.\Generated_Source\PSoC4/TxDMA.h **** * Summary:
 288:.\Generated_Source\PSoC4/TxDMA.h **** *  Returns the status of the specified descriptor.
 289:.\Generated_Source\PSoC4/TxDMA.h **** *
 290:.\Generated_Source\PSoC4/TxDMA.h **** * Parameters:
 291:.\Generated_Source\PSoC4/TxDMA.h **** *  descriptor: Descriptor (0 or 1) modified by this function.
 292:.\Generated_Source\PSoC4/TxDMA.h **** *                   
 293:.\Generated_Source\PSoC4/TxDMA.h **** * Return:
 294:.\Generated_Source\PSoC4/TxDMA.h **** *  Returns the contents of the specified descriptors status register. Refer to 
 295:.\Generated_Source\PSoC4/TxDMA.h **** *  descriptor status register bit definitions in CyDMA_P4.h or the API
 296:.\Generated_Source\PSoC4/TxDMA.h **** *  description in the DMA channel datasheet for more information.
 297:.\Generated_Source\PSoC4/TxDMA.h **** *
 298:.\Generated_Source\PSoC4/TxDMA.h **** *******************************************************************************/
 299:.\Generated_Source\PSoC4/TxDMA.h **** static CY_INLINE uint32 TxDMA_GetDescriptorStatus(int32 descriptor)
 300:.\Generated_Source\PSoC4/TxDMA.h **** {
 301:.\Generated_Source\PSoC4/TxDMA.h ****     return (CyDmaGetDescriptorStatus(TxDMA_CHANNEL, descriptor));
 302:.\Generated_Source\PSoC4/TxDMA.h **** }
 303:.\Generated_Source\PSoC4/TxDMA.h **** 
 304:.\Generated_Source\PSoC4/TxDMA.h **** 
 305:.\Generated_Source\PSoC4/TxDMA.h **** /*******************************************************************************
 306:.\Generated_Source\PSoC4/TxDMA.h **** * Function Name: TxDMA_SetSrcAddress
 307:.\Generated_Source\PSoC4/TxDMA.h **** ********************************************************************************
 308:.\Generated_Source\PSoC4/TxDMA.h **** *
 309:.\Generated_Source\PSoC4/TxDMA.h **** * Summary:
 310:.\Generated_Source\PSoC4/TxDMA.h **** *  Configures the source address for the specified descriptor.
 311:.\Generated_Source\PSoC4/TxDMA.h **** *
 312:.\Generated_Source\PSoC4/TxDMA.h **** * Parameters:
 313:.\Generated_Source\PSoC4/TxDMA.h **** *  descriptor: Descriptor (0 or 1) modified by this function.
 314:.\Generated_Source\PSoC4/TxDMA.h **** *  srcAddress: Address of DMA transfer source.
 315:.\Generated_Source\PSoC4/TxDMA.h **** *                   
 316:.\Generated_Source\PSoC4/TxDMA.h **** * Return:
 317:.\Generated_Source\PSoC4/TxDMA.h **** *  None.
 318:.\Generated_Source\PSoC4/TxDMA.h **** *
 319:.\Generated_Source\PSoC4/TxDMA.h **** * Side effect:
 320:.\Generated_Source\PSoC4/TxDMA.h **** *  This function should not be called when the specified descriptor is active
 321:.\Generated_Source\PSoC4/TxDMA.h **** *  in the DMA transfer engine. This can be checked by calling CyDmaGetStatus(). 
 322:.\Generated_Source\PSoC4/TxDMA.h **** *
 323:.\Generated_Source\PSoC4/TxDMA.h **** *******************************************************************************/
 324:.\Generated_Source\PSoC4/TxDMA.h **** static CY_INLINE void TxDMA_SetSrcAddress(int32 descriptor, void * srcAddress)
 325:.\Generated_Source\PSoC4/TxDMA.h **** {
 326:.\Generated_Source\PSoC4/TxDMA.h ****     CyDmaSetSrcAddress(TxDMA_CHANNEL, descriptor, srcAddress);
  88              		.loc 2 326 0
  89 001c 0020     		mov	r0, #0
  90 001e 0021     		mov	r1, #0
  91 0020 2A1C     		mov	r2, r5
  92 0022 FFF7FEFF 		bl	CyDmaSetSrcAddress
  93              	.LVL3:
  94              	.LBE11:
ARM GAS  C:\Users\Terence\AppData\Local\Temp\cc1hi0St.s 			page 10


  95              	.LBE10:
  96              	.LBB12:
  97              	.LBB13:
 327:.\Generated_Source\PSoC4/TxDMA.h **** }
 328:.\Generated_Source\PSoC4/TxDMA.h **** 
 329:.\Generated_Source\PSoC4/TxDMA.h **** 
 330:.\Generated_Source\PSoC4/TxDMA.h **** /*******************************************************************************
 331:.\Generated_Source\PSoC4/TxDMA.h **** * Function Name: TxDMA_GetSrcAddress
 332:.\Generated_Source\PSoC4/TxDMA.h **** ********************************************************************************
 333:.\Generated_Source\PSoC4/TxDMA.h **** *
 334:.\Generated_Source\PSoC4/TxDMA.h **** * Summary:
 335:.\Generated_Source\PSoC4/TxDMA.h **** *  Returns the source address for the specified descriptor, set by either 
 336:.\Generated_Source\PSoC4/TxDMA.h **** *  TxDMA_Start() or TxDMA_SetSrcAddress().
 337:.\Generated_Source\PSoC4/TxDMA.h **** *
 338:.\Generated_Source\PSoC4/TxDMA.h **** * Parameters:
 339:.\Generated_Source\PSoC4/TxDMA.h **** *  descriptor: Specifies descriptor (0 or 1) used by this function.
 340:.\Generated_Source\PSoC4/TxDMA.h **** *                   
 341:.\Generated_Source\PSoC4/TxDMA.h **** * Return:
 342:.\Generated_Source\PSoC4/TxDMA.h **** *  Source address written to specified descriptor.
 343:.\Generated_Source\PSoC4/TxDMA.h **** *
 344:.\Generated_Source\PSoC4/TxDMA.h **** *******************************************************************************/
 345:.\Generated_Source\PSoC4/TxDMA.h **** static CY_INLINE void * TxDMA_GetSrcAddress(int32 descriptor)
 346:.\Generated_Source\PSoC4/TxDMA.h **** {
 347:.\Generated_Source\PSoC4/TxDMA.h ****     return (CyDmaGetSrcAddress(TxDMA_CHANNEL, descriptor));
 348:.\Generated_Source\PSoC4/TxDMA.h **** }
 349:.\Generated_Source\PSoC4/TxDMA.h **** 
 350:.\Generated_Source\PSoC4/TxDMA.h **** 
 351:.\Generated_Source\PSoC4/TxDMA.h **** /*******************************************************************************
 352:.\Generated_Source\PSoC4/TxDMA.h **** * Function Name: TxDMA_SetDstAddress
 353:.\Generated_Source\PSoC4/TxDMA.h **** ********************************************************************************
 354:.\Generated_Source\PSoC4/TxDMA.h **** *
 355:.\Generated_Source\PSoC4/TxDMA.h **** * Summary:
 356:.\Generated_Source\PSoC4/TxDMA.h **** *  Configures the destination address for the specified descriptor.
 357:.\Generated_Source\PSoC4/TxDMA.h **** *
 358:.\Generated_Source\PSoC4/TxDMA.h **** * Parameters:
 359:.\Generated_Source\PSoC4/TxDMA.h **** *  descriptor: Descriptor (0 or 1) modified by this function.
 360:.\Generated_Source\PSoC4/TxDMA.h **** *  dstAddress: Address of DMA transfer destination.
 361:.\Generated_Source\PSoC4/TxDMA.h **** *                   
 362:.\Generated_Source\PSoC4/TxDMA.h **** * Return:
 363:.\Generated_Source\PSoC4/TxDMA.h **** *  None.
 364:.\Generated_Source\PSoC4/TxDMA.h **** *
 365:.\Generated_Source\PSoC4/TxDMA.h **** * Side effect:
 366:.\Generated_Source\PSoC4/TxDMA.h **** *  This function should not be called when the specified descriptor is active
 367:.\Generated_Source\PSoC4/TxDMA.h **** *  in the DMA transfer engine. This can be checked by calling CyDmaGetStatus(). 
 368:.\Generated_Source\PSoC4/TxDMA.h **** *
 369:.\Generated_Source\PSoC4/TxDMA.h **** *******************************************************************************/
 370:.\Generated_Source\PSoC4/TxDMA.h **** static CY_INLINE void TxDMA_SetDstAddress(int32 descriptor, void * dstAddress)
 371:.\Generated_Source\PSoC4/TxDMA.h **** {
 372:.\Generated_Source\PSoC4/TxDMA.h ****     CyDmaSetDstAddress(TxDMA_CHANNEL, descriptor, dstAddress);
  98              		.loc 2 372 0
  99 0026 0020     		mov	r0, #0
 100 0028 0021     		mov	r1, #0
 101 002a 221C     		mov	r2, r4
 102 002c FFF7FEFF 		bl	CyDmaSetDstAddress
 103              	.LVL4:
 104              	.LBE13:
 105              	.LBE12:
ARM GAS  C:\Users\Terence\AppData\Local\Temp\cc1hi0St.s 			page 11


 106              	.LBB14:
 107              	.LBB15:
 279:.\Generated_Source\PSoC4/TxDMA.h **** }
 108              		.loc 2 279 0
 109 0030 0020     		mov	r0, #0
 110 0032 0021     		mov	r1, #0
 111 0034 FFF7FEFF 		bl	CyDmaValidateDescriptor
 112              	.LVL5:
 113              	.LBE15:
 114              	.LBE14:
 115              	.LBB16:
 116              	.LBB17:
  96:.\Generated_Source\PSoC4/TxDMA.h **** }
 117              		.loc 2 96 0
 118 0038 0020     		mov	r0, #0
 119 003a FFF7FEFF 		bl	CyDmaChEnable
 120              	.LVL6:
 121              	.LBE17:
 122              	.LBE16:
  51:.\Generated_Source\PSoC4/TxDMA.c **** 
 123              		.loc 1 51 0
 124              		@ sp needed
 125              	.LVL7:
 126              	.LVL8:
 127 003e 38BD     		pop	{r3, r4, r5, pc}
 128              	.L7:
 129              		.align	2
 130              	.L6:
 131 0040 00000000 		.word	.LANCHOR0
 132              		.cfi_endproc
 133              	.LFE32:
 134              		.size	TxDMA_Start, .-TxDMA_Start
 135              		.global	TxDMA_initVar
 136              		.bss
 137              		.set	.LANCHOR0,. + 0
 138              		.type	TxDMA_initVar, %object
 139              		.size	TxDMA_initVar, 1
 140              	TxDMA_initVar:
 141 0000 00       		.space	1
 142              		.text
 143              	.Letext0:
 144              		.file 3 ".\\Generated_Source\\PSoC4\\cytypes.h"
 145              		.file 4 ".\\Generated_Source\\PSoC4\\CyDMA.h"