ARM GAS  C:\Users\Terence\AppData\Local\Temp\cc65qyTh.s 			page 1


   1              		.cpu cortex-m0
   2              		.fpu softvfp
   3              		.eabi_attribute 20, 1
   4              		.eabi_attribute 21, 1
   5              		.eabi_attribute 23, 3
   6              		.eabi_attribute 24, 1
   7              		.eabi_attribute 25, 1
   8              		.eabi_attribute 26, 1
   9              		.eabi_attribute 30, 1
  10              		.eabi_attribute 34, 0
  11              		.eabi_attribute 18, 4
  12              		.code	16
  13              		.file	"USBFS_episr.c"
  14              		.text
  15              	.Ltext0:
  16              		.cfi_sections	.debug_frame
  17              		.section	.text.USBFS_EP_4_ISR,"ax",%progbits
  18              		.align	2
  19              		.global	USBFS_EP_4_ISR
  20              		.code	16
  21              		.thumb_func
  22              		.type	USBFS_EP_4_ISR, %function
  23              	USBFS_EP_4_ISR:
  24              	.LFB165:
  25              		.file 1 ".\\Generated_Source\\PSoC4\\USBFS_episr.c"
   1:.\Generated_Source\PSoC4/USBFS_episr.c **** /***************************************************************************//**
   2:.\Generated_Source\PSoC4/USBFS_episr.c **** * \file USBFS_episr.c
   3:.\Generated_Source\PSoC4/USBFS_episr.c **** * \version 3.0
   4:.\Generated_Source\PSoC4/USBFS_episr.c **** *
   5:.\Generated_Source\PSoC4/USBFS_episr.c **** * \brief
   6:.\Generated_Source\PSoC4/USBFS_episr.c **** *  This file contains the Data endpoint Interrupt Service Routines.
   7:.\Generated_Source\PSoC4/USBFS_episr.c **** *
   8:.\Generated_Source\PSoC4/USBFS_episr.c **** ********************************************************************************
   9:.\Generated_Source\PSoC4/USBFS_episr.c **** * \copyright
  10:.\Generated_Source\PSoC4/USBFS_episr.c **** * Copyright 2008-2015, Cypress Semiconductor Corporation.  All rights reserved.
  11:.\Generated_Source\PSoC4/USBFS_episr.c **** * You may use this file only in accordance with the license, terms, conditions,
  12:.\Generated_Source\PSoC4/USBFS_episr.c **** * disclaimers, and limitations in the end user license agreement accompanying
  13:.\Generated_Source\PSoC4/USBFS_episr.c **** * the software package with which this file was provided.
  14:.\Generated_Source\PSoC4/USBFS_episr.c **** *******************************************************************************/
  15:.\Generated_Source\PSoC4/USBFS_episr.c **** 
  16:.\Generated_Source\PSoC4/USBFS_episr.c **** #include "USBFS_pvt.h"
  17:.\Generated_Source\PSoC4/USBFS_episr.c **** #include "USBFS_cydmac.h"
  18:.\Generated_Source\PSoC4/USBFS_episr.c **** #include "cyapicallbacks.h"
  19:.\Generated_Source\PSoC4/USBFS_episr.c **** 
  20:.\Generated_Source\PSoC4/USBFS_episr.c **** 
  21:.\Generated_Source\PSoC4/USBFS_episr.c **** /***************************************
  22:.\Generated_Source\PSoC4/USBFS_episr.c **** * Custom Declarations
  23:.\Generated_Source\PSoC4/USBFS_episr.c **** ***************************************/
  24:.\Generated_Source\PSoC4/USBFS_episr.c **** /* `#START CUSTOM_DECLARATIONS` Place your declaration here */
  25:.\Generated_Source\PSoC4/USBFS_episr.c **** 
  26:.\Generated_Source\PSoC4/USBFS_episr.c **** /* `#END` */
  27:.\Generated_Source\PSoC4/USBFS_episr.c **** 
  28:.\Generated_Source\PSoC4/USBFS_episr.c **** 
  29:.\Generated_Source\PSoC4/USBFS_episr.c **** #if (USBFS_EP1_ISR_ACTIVE)
  30:.\Generated_Source\PSoC4/USBFS_episr.c ****     /******************************************************************************
  31:.\Generated_Source\PSoC4/USBFS_episr.c ****     * Function Name: USBFS_EP_1_ISR
  32:.\Generated_Source\PSoC4/USBFS_episr.c ****     ***************************************************************************//**
ARM GAS  C:\Users\Terence\AppData\Local\Temp\cc65qyTh.s 			page 2


  33:.\Generated_Source\PSoC4/USBFS_episr.c ****     *
  34:.\Generated_Source\PSoC4/USBFS_episr.c ****     *  Endpoint 1 Interrupt Service Routine
  35:.\Generated_Source\PSoC4/USBFS_episr.c ****     *
  36:.\Generated_Source\PSoC4/USBFS_episr.c ****     ******************************************************************************/
  37:.\Generated_Source\PSoC4/USBFS_episr.c ****     CY_ISR(USBFS_EP_1_ISR)
  38:.\Generated_Source\PSoC4/USBFS_episr.c ****     {
  39:.\Generated_Source\PSoC4/USBFS_episr.c **** 
  40:.\Generated_Source\PSoC4/USBFS_episr.c ****     #ifdef USBFS_EP_1_ISR_ENTRY_CALLBACK
  41:.\Generated_Source\PSoC4/USBFS_episr.c ****         USBFS_EP_1_ISR_EntryCallback();
  42:.\Generated_Source\PSoC4/USBFS_episr.c ****     #endif /* (USBFS_EP_1_ISR_ENTRY_CALLBACK) */
  43:.\Generated_Source\PSoC4/USBFS_episr.c **** 
  44:.\Generated_Source\PSoC4/USBFS_episr.c ****         /* `#START EP1_USER_CODE` Place your code here */
  45:.\Generated_Source\PSoC4/USBFS_episr.c **** 
  46:.\Generated_Source\PSoC4/USBFS_episr.c ****         /* `#END` */
  47:.\Generated_Source\PSoC4/USBFS_episr.c **** 
  48:.\Generated_Source\PSoC4/USBFS_episr.c ****     #if (CY_PSOC3 && defined(USBFS_ENABLE_MIDI_STREAMING) && \
  49:.\Generated_Source\PSoC4/USBFS_episr.c ****         !defined(USBFS_MAIN_SERVICE_MIDI_OUT) && USBFS_ISR_SERVICE_MIDI_OUT)
  50:.\Generated_Source\PSoC4/USBFS_episr.c ****         {
  51:.\Generated_Source\PSoC4/USBFS_episr.c ****             uint8 intEn = EA;
  52:.\Generated_Source\PSoC4/USBFS_episr.c ****             CyGlobalIntEnable;  /* Enable nested interrupts. */
  53:.\Generated_Source\PSoC4/USBFS_episr.c ****     #endif /* (CY_PSOC3 && USBFS_ISR_SERVICE_MIDI_OUT) */
  54:.\Generated_Source\PSoC4/USBFS_episr.c ****     
  55:.\Generated_Source\PSoC4/USBFS_episr.c ****         USBFS_ClearSieEpInterruptSource(USBFS_SIE_INT_EP1_INTR);
  56:.\Generated_Source\PSoC4/USBFS_episr.c ****             
  57:.\Generated_Source\PSoC4/USBFS_episr.c ****         /* Notifies user that transfer IN or OUT transfer is completed.
  58:.\Generated_Source\PSoC4/USBFS_episr.c ****         * IN endpoint: endpoint buffer can be reloaded, Host is read data.
  59:.\Generated_Source\PSoC4/USBFS_episr.c ****         * OUT endpoint: data is ready to be read from endpoint buffer. 
  60:.\Generated_Source\PSoC4/USBFS_episr.c ****         */
  61:.\Generated_Source\PSoC4/USBFS_episr.c ****     #if (CY_PSOC4 && USBFS_EP_MANAGEMENT_DMA_AUTO)
  62:.\Generated_Source\PSoC4/USBFS_episr.c ****         if (0u != (USBFS_EP[USBFS_EP1].addr & USBFS_DIR_IN))
  63:.\Generated_Source\PSoC4/USBFS_episr.c ****     #endif /* (CY_PSOC4 && USBFS_EP_MANAGEMENT_DMA_AUTO) */
  64:.\Generated_Source\PSoC4/USBFS_episr.c ****         {
  65:.\Generated_Source\PSoC4/USBFS_episr.c ****             /* Read CR0 register to clear SIE lock. */
  66:.\Generated_Source\PSoC4/USBFS_episr.c ****             (void) USBFS_SIE_EP_BASE.sieEp[USBFS_EP1].epCr0;
  67:.\Generated_Source\PSoC4/USBFS_episr.c ****             
  68:.\Generated_Source\PSoC4/USBFS_episr.c ****             /* Toggle all endpoint types except ISOC. */
  69:.\Generated_Source\PSoC4/USBFS_episr.c ****             if (USBFS_GET_EP_TYPE(USBFS_EP1) != USBFS_EP_TYPE_ISOC)
  70:.\Generated_Source\PSoC4/USBFS_episr.c ****             {
  71:.\Generated_Source\PSoC4/USBFS_episr.c ****                 USBFS_EP[USBFS_EP1].epToggle ^= USBFS_EPX_CNT_DATA_TOGGLE;
  72:.\Generated_Source\PSoC4/USBFS_episr.c ****             }
  73:.\Generated_Source\PSoC4/USBFS_episr.c **** 
  74:.\Generated_Source\PSoC4/USBFS_episr.c ****             /* EP_MANAGEMENT_DMA_AUTO (Ticket ID# 214187): For OUT endpoint this event is used to n
  75:.\Generated_Source\PSoC4/USBFS_episr.c ****             * user that DMA has completed copying data from OUT endpoint which is not completely tr
  76:.\Generated_Source\PSoC4/USBFS_episr.c ****             * Because last chunk of data is being copied.
  77:.\Generated_Source\PSoC4/USBFS_episr.c ****             * For CY_PSOC 3/5LP: it is acceptable as DMA is really fast.
  78:.\Generated_Source\PSoC4/USBFS_episr.c ****             * For CY_PSOC4: this event is set in Arbiter interrupt (source is DMA_TERMIN).
  79:.\Generated_Source\PSoC4/USBFS_episr.c ****             */
  80:.\Generated_Source\PSoC4/USBFS_episr.c ****             USBFS_EP[USBFS_EP1].apiEpState = USBFS_EVENT_PENDING;
  81:.\Generated_Source\PSoC4/USBFS_episr.c ****         }
  82:.\Generated_Source\PSoC4/USBFS_episr.c **** 
  83:.\Generated_Source\PSoC4/USBFS_episr.c ****     #if (!(CY_PSOC4 && USBFS_EP_MANAGEMENT_DMA_AUTO))
  84:.\Generated_Source\PSoC4/USBFS_episr.c ****         #if (defined(USBFS_ENABLE_MIDI_STREAMING) && \
  85:.\Generated_Source\PSoC4/USBFS_episr.c ****             !defined(USBFS_MAIN_SERVICE_MIDI_OUT) && USBFS_ISR_SERVICE_MIDI_OUT)
  86:.\Generated_Source\PSoC4/USBFS_episr.c ****             if (USBFS_midi_out_ep == USBFS_EP1)
  87:.\Generated_Source\PSoC4/USBFS_episr.c ****             {
  88:.\Generated_Source\PSoC4/USBFS_episr.c ****                 USBFS_MIDI_OUT_Service();
  89:.\Generated_Source\PSoC4/USBFS_episr.c ****             }
ARM GAS  C:\Users\Terence\AppData\Local\Temp\cc65qyTh.s 			page 3


  90:.\Generated_Source\PSoC4/USBFS_episr.c ****         #endif /* (USBFS_ISR_SERVICE_MIDI_OUT) */
  91:.\Generated_Source\PSoC4/USBFS_episr.c ****     #endif /* (!(CY_PSOC4 && USBFS_EP_MANAGEMENT_DMA_AUTO)) */
  92:.\Generated_Source\PSoC4/USBFS_episr.c ****     
  93:.\Generated_Source\PSoC4/USBFS_episr.c ****         /* `#START EP1_END_USER_CODE` Place your code here */
  94:.\Generated_Source\PSoC4/USBFS_episr.c **** 
  95:.\Generated_Source\PSoC4/USBFS_episr.c ****         /* `#END` */
  96:.\Generated_Source\PSoC4/USBFS_episr.c **** 
  97:.\Generated_Source\PSoC4/USBFS_episr.c ****     #ifdef USBFS_EP_1_ISR_EXIT_CALLBACK
  98:.\Generated_Source\PSoC4/USBFS_episr.c ****         USBFS_EP_1_ISR_ExitCallback();
  99:.\Generated_Source\PSoC4/USBFS_episr.c ****     #endif /* (USBFS_EP_1_ISR_EXIT_CALLBACK) */
 100:.\Generated_Source\PSoC4/USBFS_episr.c **** 
 101:.\Generated_Source\PSoC4/USBFS_episr.c ****     #if (CY_PSOC3 && defined(USBFS_ENABLE_MIDI_STREAMING) && \
 102:.\Generated_Source\PSoC4/USBFS_episr.c ****         !defined(USBFS_MAIN_SERVICE_MIDI_OUT) && USBFS_ISR_SERVICE_MIDI_OUT)
 103:.\Generated_Source\PSoC4/USBFS_episr.c ****         
 104:.\Generated_Source\PSoC4/USBFS_episr.c ****             EA = intEn; /* Restore nested interrupt configuration. */
 105:.\Generated_Source\PSoC4/USBFS_episr.c ****         }
 106:.\Generated_Source\PSoC4/USBFS_episr.c ****     #endif /* (CY_PSOC3 && USBFS_ISR_SERVICE_MIDI_OUT) */
 107:.\Generated_Source\PSoC4/USBFS_episr.c ****     }
 108:.\Generated_Source\PSoC4/USBFS_episr.c **** 
 109:.\Generated_Source\PSoC4/USBFS_episr.c **** #endif /* (USBFS_EP1_ISR_ACTIVE) */
 110:.\Generated_Source\PSoC4/USBFS_episr.c **** 
 111:.\Generated_Source\PSoC4/USBFS_episr.c **** 
 112:.\Generated_Source\PSoC4/USBFS_episr.c **** #if (USBFS_EP2_ISR_ACTIVE)
 113:.\Generated_Source\PSoC4/USBFS_episr.c ****     /*******************************************************************************
 114:.\Generated_Source\PSoC4/USBFS_episr.c ****     * Function Name: USBFS_EP_2_ISR
 115:.\Generated_Source\PSoC4/USBFS_episr.c ****     ****************************************************************************//**
 116:.\Generated_Source\PSoC4/USBFS_episr.c ****     *
 117:.\Generated_Source\PSoC4/USBFS_episr.c ****     *  Endpoint 2 Interrupt Service Routine.
 118:.\Generated_Source\PSoC4/USBFS_episr.c ****     *
 119:.\Generated_Source\PSoC4/USBFS_episr.c ****     *******************************************************************************/
 120:.\Generated_Source\PSoC4/USBFS_episr.c ****     CY_ISR(USBFS_EP_2_ISR)
 121:.\Generated_Source\PSoC4/USBFS_episr.c ****     {
 122:.\Generated_Source\PSoC4/USBFS_episr.c ****     #ifdef USBFS_EP_2_ISR_ENTRY_CALLBACK
 123:.\Generated_Source\PSoC4/USBFS_episr.c ****         USBFS_EP_2_ISR_EntryCallback();
 124:.\Generated_Source\PSoC4/USBFS_episr.c ****     #endif /* (USBFS_EP_2_ISR_ENTRY_CALLBACK) */
 125:.\Generated_Source\PSoC4/USBFS_episr.c **** 
 126:.\Generated_Source\PSoC4/USBFS_episr.c ****         /* `#START EP2_USER_CODE` Place your code here */
 127:.\Generated_Source\PSoC4/USBFS_episr.c **** 
 128:.\Generated_Source\PSoC4/USBFS_episr.c ****         /* `#END` */
 129:.\Generated_Source\PSoC4/USBFS_episr.c **** 
 130:.\Generated_Source\PSoC4/USBFS_episr.c ****     #if (CY_PSOC3 && defined(USBFS_ENABLE_MIDI_STREAMING) && \
 131:.\Generated_Source\PSoC4/USBFS_episr.c ****         !defined(USBFS_MAIN_SERVICE_MIDI_OUT) && USBFS_ISR_SERVICE_MIDI_OUT)
 132:.\Generated_Source\PSoC4/USBFS_episr.c ****         {
 133:.\Generated_Source\PSoC4/USBFS_episr.c ****             uint8 intEn = EA;
 134:.\Generated_Source\PSoC4/USBFS_episr.c ****             CyGlobalIntEnable;  /* Enable nested interrupts. */
 135:.\Generated_Source\PSoC4/USBFS_episr.c ****     #endif /* (CY_PSOC3 && USBFS_ISR_SERVICE_MIDI_OUT) */
 136:.\Generated_Source\PSoC4/USBFS_episr.c **** 
 137:.\Generated_Source\PSoC4/USBFS_episr.c ****         USBFS_ClearSieEpInterruptSource(USBFS_SIE_INT_EP2_INTR);
 138:.\Generated_Source\PSoC4/USBFS_episr.c **** 
 139:.\Generated_Source\PSoC4/USBFS_episr.c ****         /* Notifies user that transfer IN or OUT transfer is completed.
 140:.\Generated_Source\PSoC4/USBFS_episr.c ****         * IN endpoint: endpoint buffer can be reloaded, Host is read data.
 141:.\Generated_Source\PSoC4/USBFS_episr.c ****         * OUT endpoint: data is ready to be read from endpoint buffer. 
 142:.\Generated_Source\PSoC4/USBFS_episr.c ****         */
 143:.\Generated_Source\PSoC4/USBFS_episr.c ****     #if (CY_PSOC4 && USBFS_EP_MANAGEMENT_DMA_AUTO)
 144:.\Generated_Source\PSoC4/USBFS_episr.c ****         if (0u != (USBFS_EP[USBFS_EP2].addr & USBFS_DIR_IN))
 145:.\Generated_Source\PSoC4/USBFS_episr.c ****     #endif /* (CY_PSOC4 && USBFS_EP_MANAGEMENT_DMA_AUTO) */
 146:.\Generated_Source\PSoC4/USBFS_episr.c ****         {            
ARM GAS  C:\Users\Terence\AppData\Local\Temp\cc65qyTh.s 			page 4


 147:.\Generated_Source\PSoC4/USBFS_episr.c ****             /* Read CR0 register to clear SIE lock. */
 148:.\Generated_Source\PSoC4/USBFS_episr.c ****             (void) USBFS_SIE_EP_BASE.sieEp[USBFS_EP2].epCr0;
 149:.\Generated_Source\PSoC4/USBFS_episr.c ****             
 150:.\Generated_Source\PSoC4/USBFS_episr.c ****             /* Toggle all endpoint types except ISOC. */
 151:.\Generated_Source\PSoC4/USBFS_episr.c ****             if (USBFS_GET_EP_TYPE(USBFS_EP2) != USBFS_EP_TYPE_ISOC)
 152:.\Generated_Source\PSoC4/USBFS_episr.c ****             {
 153:.\Generated_Source\PSoC4/USBFS_episr.c ****                 USBFS_EP[USBFS_EP2].epToggle ^= USBFS_EPX_CNT_DATA_TOGGLE;
 154:.\Generated_Source\PSoC4/USBFS_episr.c ****             }
 155:.\Generated_Source\PSoC4/USBFS_episr.c **** 
 156:.\Generated_Source\PSoC4/USBFS_episr.c ****             /* EP_MANAGEMENT_DMA_AUTO (Ticket ID# 214187): For OUT endpoint this event is used to n
 157:.\Generated_Source\PSoC4/USBFS_episr.c ****             * user that DMA has completed copying data from OUT endpoint which is not completely tr
 158:.\Generated_Source\PSoC4/USBFS_episr.c ****             * Because last chunk of data is being copied.
 159:.\Generated_Source\PSoC4/USBFS_episr.c ****             * For CY_PSOC 3/5LP: it is acceptable as DMA is really fast.
 160:.\Generated_Source\PSoC4/USBFS_episr.c ****             * For CY_PSOC4: this event is set in Arbiter interrupt (source is DMA_TERMIN).
 161:.\Generated_Source\PSoC4/USBFS_episr.c ****             */
 162:.\Generated_Source\PSoC4/USBFS_episr.c ****             USBFS_EP[USBFS_EP2].apiEpState = USBFS_EVENT_PENDING;
 163:.\Generated_Source\PSoC4/USBFS_episr.c ****         }
 164:.\Generated_Source\PSoC4/USBFS_episr.c **** 
 165:.\Generated_Source\PSoC4/USBFS_episr.c ****     #if (!(CY_PSOC4 && USBFS_EP_MANAGEMENT_DMA_AUTO))
 166:.\Generated_Source\PSoC4/USBFS_episr.c ****         #if (defined(USBFS_ENABLE_MIDI_STREAMING) && \
 167:.\Generated_Source\PSoC4/USBFS_episr.c ****             !defined(USBFS_MAIN_SERVICE_MIDI_OUT) && USBFS_ISR_SERVICE_MIDI_OUT)
 168:.\Generated_Source\PSoC4/USBFS_episr.c ****             if (USBFS_midi_out_ep == USBFS_EP2)
 169:.\Generated_Source\PSoC4/USBFS_episr.c ****             {
 170:.\Generated_Source\PSoC4/USBFS_episr.c ****                 USBFS_MIDI_OUT_Service();
 171:.\Generated_Source\PSoC4/USBFS_episr.c ****             }
 172:.\Generated_Source\PSoC4/USBFS_episr.c ****         #endif /* (USBFS_ISR_SERVICE_MIDI_OUT) */
 173:.\Generated_Source\PSoC4/USBFS_episr.c ****     #endif /* (!(CY_PSOC4 && USBFS_EP_MANAGEMENT_DMA_AUTO)) */        
 174:.\Generated_Source\PSoC4/USBFS_episr.c ****     
 175:.\Generated_Source\PSoC4/USBFS_episr.c ****         /* `#START EP2_END_USER_CODE` Place your code here */
 176:.\Generated_Source\PSoC4/USBFS_episr.c **** 
 177:.\Generated_Source\PSoC4/USBFS_episr.c ****         /* `#END` */
 178:.\Generated_Source\PSoC4/USBFS_episr.c **** 
 179:.\Generated_Source\PSoC4/USBFS_episr.c ****     #ifdef USBFS_EP_2_ISR_EXIT_CALLBACK
 180:.\Generated_Source\PSoC4/USBFS_episr.c ****         USBFS_EP_2_ISR_ExitCallback();
 181:.\Generated_Source\PSoC4/USBFS_episr.c ****     #endif /* (USBFS_EP_2_ISR_EXIT_CALLBACK) */
 182:.\Generated_Source\PSoC4/USBFS_episr.c **** 
 183:.\Generated_Source\PSoC4/USBFS_episr.c ****     #if (CY_PSOC3 && defined(USBFS_ENABLE_MIDI_STREAMING) && \
 184:.\Generated_Source\PSoC4/USBFS_episr.c ****         !defined(USBFS_MAIN_SERVICE_MIDI_OUT) && USBFS_ISR_SERVICE_MIDI_OUT)
 185:.\Generated_Source\PSoC4/USBFS_episr.c ****         
 186:.\Generated_Source\PSoC4/USBFS_episr.c ****             EA = intEn; /* Restore nested interrupt configuration. */
 187:.\Generated_Source\PSoC4/USBFS_episr.c ****         }
 188:.\Generated_Source\PSoC4/USBFS_episr.c ****     #endif /* (CY_PSOC3 && USBFS_ISR_SERVICE_MIDI_OUT) */
 189:.\Generated_Source\PSoC4/USBFS_episr.c ****     }
 190:.\Generated_Source\PSoC4/USBFS_episr.c **** #endif /* (USBFS_EP2_ISR_ACTIVE) */
 191:.\Generated_Source\PSoC4/USBFS_episr.c **** 
 192:.\Generated_Source\PSoC4/USBFS_episr.c **** 
 193:.\Generated_Source\PSoC4/USBFS_episr.c **** #if (USBFS_EP3_ISR_ACTIVE)
 194:.\Generated_Source\PSoC4/USBFS_episr.c ****     /*******************************************************************************
 195:.\Generated_Source\PSoC4/USBFS_episr.c ****     * Function Name: USBFS_EP_3_ISR
 196:.\Generated_Source\PSoC4/USBFS_episr.c ****     ****************************************************************************//**
 197:.\Generated_Source\PSoC4/USBFS_episr.c ****     *
 198:.\Generated_Source\PSoC4/USBFS_episr.c ****     *  Endpoint 3 Interrupt Service Routine.
 199:.\Generated_Source\PSoC4/USBFS_episr.c ****     *
 200:.\Generated_Source\PSoC4/USBFS_episr.c ****     *******************************************************************************/
 201:.\Generated_Source\PSoC4/USBFS_episr.c ****     CY_ISR(USBFS_EP_3_ISR)
 202:.\Generated_Source\PSoC4/USBFS_episr.c ****     {
 203:.\Generated_Source\PSoC4/USBFS_episr.c ****     #ifdef USBFS_EP_3_ISR_ENTRY_CALLBACK
ARM GAS  C:\Users\Terence\AppData\Local\Temp\cc65qyTh.s 			page 5


 204:.\Generated_Source\PSoC4/USBFS_episr.c ****         USBFS_EP_3_ISR_EntryCallback();
 205:.\Generated_Source\PSoC4/USBFS_episr.c ****     #endif /* (USBFS_EP_3_ISR_ENTRY_CALLBACK) */
 206:.\Generated_Source\PSoC4/USBFS_episr.c **** 
 207:.\Generated_Source\PSoC4/USBFS_episr.c ****         /* `#START EP3_USER_CODE` Place your code here */
 208:.\Generated_Source\PSoC4/USBFS_episr.c **** 
 209:.\Generated_Source\PSoC4/USBFS_episr.c ****         /* `#END` */
 210:.\Generated_Source\PSoC4/USBFS_episr.c **** 
 211:.\Generated_Source\PSoC4/USBFS_episr.c ****     #if (CY_PSOC3 && defined(USBFS_ENABLE_MIDI_STREAMING) && \
 212:.\Generated_Source\PSoC4/USBFS_episr.c ****         !defined(USBFS_MAIN_SERVICE_MIDI_OUT) && USBFS_ISR_SERVICE_MIDI_OUT)
 213:.\Generated_Source\PSoC4/USBFS_episr.c ****         {
 214:.\Generated_Source\PSoC4/USBFS_episr.c ****             uint8 intEn = EA;
 215:.\Generated_Source\PSoC4/USBFS_episr.c ****             CyGlobalIntEnable;  /* Enable nested interrupts. */
 216:.\Generated_Source\PSoC4/USBFS_episr.c ****     #endif /* (CY_PSOC3 && USBFS_ISR_SERVICE_MIDI_OUT) */
 217:.\Generated_Source\PSoC4/USBFS_episr.c **** 
 218:.\Generated_Source\PSoC4/USBFS_episr.c ****         USBFS_ClearSieEpInterruptSource(USBFS_SIE_INT_EP3_INTR);    
 219:.\Generated_Source\PSoC4/USBFS_episr.c **** 
 220:.\Generated_Source\PSoC4/USBFS_episr.c ****         /* Notifies user that transfer IN or OUT transfer is completed.
 221:.\Generated_Source\PSoC4/USBFS_episr.c ****         * IN endpoint: endpoint buffer can be reloaded, Host is read data.
 222:.\Generated_Source\PSoC4/USBFS_episr.c ****         * OUT endpoint: data is ready to be read from endpoint buffer. 
 223:.\Generated_Source\PSoC4/USBFS_episr.c ****         */
 224:.\Generated_Source\PSoC4/USBFS_episr.c ****     #if (CY_PSOC4 && USBFS_EP_MANAGEMENT_DMA_AUTO)
 225:.\Generated_Source\PSoC4/USBFS_episr.c ****         if (0u != (USBFS_EP[USBFS_EP3].addr & USBFS_DIR_IN))
 226:.\Generated_Source\PSoC4/USBFS_episr.c ****     #endif /* (USBFS_EP_MANAGEMENT_DMA_AUTO) */
 227:.\Generated_Source\PSoC4/USBFS_episr.c ****         {            
 228:.\Generated_Source\PSoC4/USBFS_episr.c ****             /* Read CR0 register to clear SIE lock. */
 229:.\Generated_Source\PSoC4/USBFS_episr.c ****             (void) USBFS_SIE_EP_BASE.sieEp[USBFS_EP3].epCr0;
 230:.\Generated_Source\PSoC4/USBFS_episr.c **** 
 231:.\Generated_Source\PSoC4/USBFS_episr.c ****             /* Toggle all endpoint types except ISOC. */
 232:.\Generated_Source\PSoC4/USBFS_episr.c ****             if (USBFS_GET_EP_TYPE(USBFS_EP3) != USBFS_EP_TYPE_ISOC)
 233:.\Generated_Source\PSoC4/USBFS_episr.c ****             {
 234:.\Generated_Source\PSoC4/USBFS_episr.c ****                 USBFS_EP[USBFS_EP3].epToggle ^= USBFS_EPX_CNT_DATA_TOGGLE;
 235:.\Generated_Source\PSoC4/USBFS_episr.c ****             }
 236:.\Generated_Source\PSoC4/USBFS_episr.c **** 
 237:.\Generated_Source\PSoC4/USBFS_episr.c ****             /* EP_MANAGEMENT_DMA_AUTO (Ticket ID# 214187): For OUT endpoint this event is used to n
 238:.\Generated_Source\PSoC4/USBFS_episr.c ****             * user that DMA has completed copying data from OUT endpoint which is not completely tr
 239:.\Generated_Source\PSoC4/USBFS_episr.c ****             * Because last chunk of data is being copied.
 240:.\Generated_Source\PSoC4/USBFS_episr.c ****             * For CY_PSOC 3/5LP: it is acceptable as DMA is really fast.
 241:.\Generated_Source\PSoC4/USBFS_episr.c ****             * For CY_PSOC4: this event is set in Arbiter interrupt (source is DMA_TERMIN).
 242:.\Generated_Source\PSoC4/USBFS_episr.c ****             */
 243:.\Generated_Source\PSoC4/USBFS_episr.c ****             USBFS_EP[USBFS_EP3].apiEpState = USBFS_EVENT_PENDING;
 244:.\Generated_Source\PSoC4/USBFS_episr.c ****         }
 245:.\Generated_Source\PSoC4/USBFS_episr.c **** 
 246:.\Generated_Source\PSoC4/USBFS_episr.c ****     #if (!(CY_PSOC4 && USBFS_EP_MANAGEMENT_DMA_AUTO))
 247:.\Generated_Source\PSoC4/USBFS_episr.c ****         #if (defined(USBFS_ENABLE_MIDI_STREAMING) && \
 248:.\Generated_Source\PSoC4/USBFS_episr.c ****             !defined(USBFS_MAIN_SERVICE_MIDI_OUT) && USBFS_ISR_SERVICE_MIDI_OUT)
 249:.\Generated_Source\PSoC4/USBFS_episr.c ****             if (USBFS_midi_out_ep == USBFS_EP3)
 250:.\Generated_Source\PSoC4/USBFS_episr.c ****             {
 251:.\Generated_Source\PSoC4/USBFS_episr.c ****                 USBFS_MIDI_OUT_Service();
 252:.\Generated_Source\PSoC4/USBFS_episr.c ****             }
 253:.\Generated_Source\PSoC4/USBFS_episr.c ****         #endif /* (USBFS_ISR_SERVICE_MIDI_OUT) */
 254:.\Generated_Source\PSoC4/USBFS_episr.c ****     #endif /* (!(CY_PSOC4 && USBFS_EP_MANAGEMENT_DMA_AUTO)) */        
 255:.\Generated_Source\PSoC4/USBFS_episr.c **** 
 256:.\Generated_Source\PSoC4/USBFS_episr.c ****         /* `#START EP3_END_USER_CODE` Place your code here */
 257:.\Generated_Source\PSoC4/USBFS_episr.c **** 
 258:.\Generated_Source\PSoC4/USBFS_episr.c ****         /* `#END` */
 259:.\Generated_Source\PSoC4/USBFS_episr.c **** 
 260:.\Generated_Source\PSoC4/USBFS_episr.c ****     #ifdef USBFS_EP_3_ISR_EXIT_CALLBACK
ARM GAS  C:\Users\Terence\AppData\Local\Temp\cc65qyTh.s 			page 6


 261:.\Generated_Source\PSoC4/USBFS_episr.c ****         USBFS_EP_3_ISR_ExitCallback();
 262:.\Generated_Source\PSoC4/USBFS_episr.c ****     #endif /* (USBFS_EP_3_ISR_EXIT_CALLBACK) */
 263:.\Generated_Source\PSoC4/USBFS_episr.c **** 
 264:.\Generated_Source\PSoC4/USBFS_episr.c ****     #if (CY_PSOC3 && defined(USBFS_ENABLE_MIDI_STREAMING) && \
 265:.\Generated_Source\PSoC4/USBFS_episr.c ****         !defined(USBFS_MAIN_SERVICE_MIDI_OUT) && USBFS_ISR_SERVICE_MIDI_OUT)
 266:.\Generated_Source\PSoC4/USBFS_episr.c ****         
 267:.\Generated_Source\PSoC4/USBFS_episr.c ****             EA = intEn; /* Restore nested interrupt configuration. */
 268:.\Generated_Source\PSoC4/USBFS_episr.c ****         }
 269:.\Generated_Source\PSoC4/USBFS_episr.c ****     #endif /* (CY_PSOC3 && USBFS_ISR_SERVICE_MIDI_OUT) */
 270:.\Generated_Source\PSoC4/USBFS_episr.c ****     }
 271:.\Generated_Source\PSoC4/USBFS_episr.c **** #endif /* (USBFS_EP3_ISR_ACTIVE) */
 272:.\Generated_Source\PSoC4/USBFS_episr.c **** 
 273:.\Generated_Source\PSoC4/USBFS_episr.c **** 
 274:.\Generated_Source\PSoC4/USBFS_episr.c **** #if (USBFS_EP4_ISR_ACTIVE)
 275:.\Generated_Source\PSoC4/USBFS_episr.c ****     /*******************************************************************************
 276:.\Generated_Source\PSoC4/USBFS_episr.c ****     * Function Name: USBFS_EP_4_ISR
 277:.\Generated_Source\PSoC4/USBFS_episr.c ****     ****************************************************************************//**
 278:.\Generated_Source\PSoC4/USBFS_episr.c ****     *
 279:.\Generated_Source\PSoC4/USBFS_episr.c ****     *  Endpoint 4 Interrupt Service Routine.
 280:.\Generated_Source\PSoC4/USBFS_episr.c ****     *
 281:.\Generated_Source\PSoC4/USBFS_episr.c ****     *******************************************************************************/
 282:.\Generated_Source\PSoC4/USBFS_episr.c ****     CY_ISR(USBFS_EP_4_ISR)
 283:.\Generated_Source\PSoC4/USBFS_episr.c ****     {
  26              		.loc 1 283 0
  27              		.cfi_startproc
 284:.\Generated_Source\PSoC4/USBFS_episr.c ****     #ifdef USBFS_EP_4_ISR_ENTRY_CALLBACK
 285:.\Generated_Source\PSoC4/USBFS_episr.c ****         USBFS_EP_4_ISR_EntryCallback();
 286:.\Generated_Source\PSoC4/USBFS_episr.c ****     #endif /* (USBFS_EP_4_ISR_ENTRY_CALLBACK) */
 287:.\Generated_Source\PSoC4/USBFS_episr.c **** 
 288:.\Generated_Source\PSoC4/USBFS_episr.c ****         /* `#START EP4_USER_CODE` Place your code here */
 289:.\Generated_Source\PSoC4/USBFS_episr.c **** 
 290:.\Generated_Source\PSoC4/USBFS_episr.c ****         /* `#END` */
 291:.\Generated_Source\PSoC4/USBFS_episr.c **** 
 292:.\Generated_Source\PSoC4/USBFS_episr.c ****     #if (CY_PSOC3 && defined(USBFS_ENABLE_MIDI_STREAMING) && \
 293:.\Generated_Source\PSoC4/USBFS_episr.c ****         !defined(USBFS_MAIN_SERVICE_MIDI_OUT) && USBFS_ISR_SERVICE_MIDI_OUT)
 294:.\Generated_Source\PSoC4/USBFS_episr.c ****         {
 295:.\Generated_Source\PSoC4/USBFS_episr.c ****             uint8 intEn = EA;
 296:.\Generated_Source\PSoC4/USBFS_episr.c ****             CyGlobalIntEnable;  /* Enable nested interrupts. */
 297:.\Generated_Source\PSoC4/USBFS_episr.c ****     #endif /* (CY_PSOC3 && USBFS_ISR_SERVICE_MIDI_OUT) */
 298:.\Generated_Source\PSoC4/USBFS_episr.c **** 
 299:.\Generated_Source\PSoC4/USBFS_episr.c ****         USBFS_ClearSieEpInterruptSource(USBFS_SIE_INT_EP4_INTR);
  28              		.loc 1 299 0
  29 0000 0822     		mov	r2, #8
  30 0002 0F4B     		ldr	r3, .L4
  31 0004 1A60     		str	r2, [r3]
 300:.\Generated_Source\PSoC4/USBFS_episr.c ****         
 301:.\Generated_Source\PSoC4/USBFS_episr.c ****         /* Notifies user that transfer IN or OUT transfer is completed.
 302:.\Generated_Source\PSoC4/USBFS_episr.c ****         * IN endpoint: endpoint buffer can be reloaded, Host is read data.
 303:.\Generated_Source\PSoC4/USBFS_episr.c ****         * OUT endpoint: data is ready to read from endpoint buffer. 
 304:.\Generated_Source\PSoC4/USBFS_episr.c ****         */
 305:.\Generated_Source\PSoC4/USBFS_episr.c ****     #if (CY_PSOC4 && USBFS_EP_MANAGEMENT_DMA_AUTO)
 306:.\Generated_Source\PSoC4/USBFS_episr.c ****         if (0u != (USBFS_EP[USBFS_EP4].addr & USBFS_DIR_IN))
  32              		.loc 1 306 0
  33 0006 3423     		mov	r3, #52
  34 0008 0E4A     		ldr	r2, .L4+4
  35 000a D35C     		ldrb	r3, [r2, r3]
  36 000c 5BB2     		sxtb	r3, r3
ARM GAS  C:\Users\Terence\AppData\Local\Temp\cc65qyTh.s 			page 7


  37 000e 002B     		cmp	r3, #0
  38 0010 14DA     		bge	.L1
 307:.\Generated_Source\PSoC4/USBFS_episr.c ****     #endif /* (USBFS_EP_MANAGEMENT_DMA_AUTO) */
 308:.\Generated_Source\PSoC4/USBFS_episr.c ****         {
 309:.\Generated_Source\PSoC4/USBFS_episr.c ****             /* Read CR0 register to clear SIE lock. */
 310:.\Generated_Source\PSoC4/USBFS_episr.c ****             (void) USBFS_SIE_EP_BASE.sieEp[USBFS_EP4].epCr0;
  39              		.loc 1 310 0
  40 0012 8423     		mov	r3, #132
  41 0014 5B00     		lsl	r3, r3, #1
  42 0016 0C4A     		ldr	r2, .L4+8
  43 0018 D358     		ldr	r3, [r2, r3]
 311:.\Generated_Source\PSoC4/USBFS_episr.c **** 
 312:.\Generated_Source\PSoC4/USBFS_episr.c ****             /* Toggle all endpoint types except ISOC. */
 313:.\Generated_Source\PSoC4/USBFS_episr.c ****             if (USBFS_GET_EP_TYPE(USBFS_EP4) != USBFS_EP_TYPE_ISOC)
  44              		.loc 1 313 0
  45 001a 3023     		mov	r3, #48
  46 001c 094A     		ldr	r2, .L4+4
  47 001e D25C     		ldrb	r2, [r2, r3]
  48 0020 2D3B     		sub	r3, r3, #45
  49 0022 1340     		and	r3, r2
  50 0024 012B     		cmp	r3, #1
  51 0026 05D0     		beq	.L3
 314:.\Generated_Source\PSoC4/USBFS_episr.c ****             {
 315:.\Generated_Source\PSoC4/USBFS_episr.c ****                 USBFS_EP[USBFS_EP4].epToggle ^= USBFS_EPX_CNT_DATA_TOGGLE;
  52              		.loc 1 315 0
  53 0028 0649     		ldr	r1, .L4+4
  54 002a 3322     		mov	r2, #51
  55 002c 885C     		ldrb	r0, [r1, r2]
  56 002e 8023     		mov	r3, #128
  57 0030 4340     		eor	r3, r0
  58 0032 8B54     		strb	r3, [r1, r2]
  59              	.L3:
 316:.\Generated_Source\PSoC4/USBFS_episr.c ****             }
 317:.\Generated_Source\PSoC4/USBFS_episr.c **** 
 318:.\Generated_Source\PSoC4/USBFS_episr.c ****             /* EP_MANAGEMENT_DMA_AUTO (Ticket ID# 214187): For OUT endpoint this event is used to n
 319:.\Generated_Source\PSoC4/USBFS_episr.c ****             * user that DMA has completed copying data from OUT endpoint which is not completely tr
 320:.\Generated_Source\PSoC4/USBFS_episr.c ****             * Because last chunk of data is being copied.
 321:.\Generated_Source\PSoC4/USBFS_episr.c ****             * For CY_PSOC 3/5LP: it is acceptable as DMA is really fast.
 322:.\Generated_Source\PSoC4/USBFS_episr.c ****             * For CY_PSOC4: this event is set in Arbiter interrupt (source is DMA_TERMIN).
 323:.\Generated_Source\PSoC4/USBFS_episr.c ****             */
 324:.\Generated_Source\PSoC4/USBFS_episr.c ****             USBFS_EP[USBFS_EP4].apiEpState = USBFS_EVENT_PENDING;
  60              		.loc 1 324 0
  61 0034 0121     		mov	r1, #1
  62 0036 3123     		mov	r3, #49
  63 0038 024A     		ldr	r2, .L4+4
  64 003a D154     		strb	r1, [r2, r3]
  65              	.L1:
 325:.\Generated_Source\PSoC4/USBFS_episr.c ****         }
 326:.\Generated_Source\PSoC4/USBFS_episr.c **** 
 327:.\Generated_Source\PSoC4/USBFS_episr.c ****     #if (!(CY_PSOC4 && USBFS_EP_MANAGEMENT_DMA_AUTO))
 328:.\Generated_Source\PSoC4/USBFS_episr.c ****         #if (defined(USBFS_ENABLE_MIDI_STREAMING) && \
 329:.\Generated_Source\PSoC4/USBFS_episr.c ****             !defined(USBFS_MAIN_SERVICE_MIDI_OUT) && USBFS_ISR_SERVICE_MIDI_OUT)
 330:.\Generated_Source\PSoC4/USBFS_episr.c ****             if(USBFS_midi_out_ep == USBFS_EP4)
 331:.\Generated_Source\PSoC4/USBFS_episr.c ****             {
 332:.\Generated_Source\PSoC4/USBFS_episr.c ****                 USBFS_MIDI_OUT_Service();
 333:.\Generated_Source\PSoC4/USBFS_episr.c ****             }
 334:.\Generated_Source\PSoC4/USBFS_episr.c ****         #endif /* (USBFS_ISR_SERVICE_MIDI_OUT) */
ARM GAS  C:\Users\Terence\AppData\Local\Temp\cc65qyTh.s 			page 8


 335:.\Generated_Source\PSoC4/USBFS_episr.c ****     #endif /* (!(CY_PSOC4 && USBFS_EP_MANAGEMENT_DMA_AUTO)) */        
 336:.\Generated_Source\PSoC4/USBFS_episr.c **** 
 337:.\Generated_Source\PSoC4/USBFS_episr.c ****         /* `#START EP4_END_USER_CODE` Place your code here */
 338:.\Generated_Source\PSoC4/USBFS_episr.c **** 
 339:.\Generated_Source\PSoC4/USBFS_episr.c ****         /* `#END` */
 340:.\Generated_Source\PSoC4/USBFS_episr.c **** 
 341:.\Generated_Source\PSoC4/USBFS_episr.c ****     #ifdef USBFS_EP_4_ISR_EXIT_CALLBACK
 342:.\Generated_Source\PSoC4/USBFS_episr.c ****         USBFS_EP_4_ISR_ExitCallback();
 343:.\Generated_Source\PSoC4/USBFS_episr.c ****     #endif /* (USBFS_EP_4_ISR_EXIT_CALLBACK) */
 344:.\Generated_Source\PSoC4/USBFS_episr.c **** 
 345:.\Generated_Source\PSoC4/USBFS_episr.c ****     #if (CY_PSOC3 && defined(USBFS_ENABLE_MIDI_STREAMING) && \
 346:.\Generated_Source\PSoC4/USBFS_episr.c ****         !defined(USBFS_MAIN_SERVICE_MIDI_OUT) && USBFS_ISR_SERVICE_MIDI_OUT)
 347:.\Generated_Source\PSoC4/USBFS_episr.c ****         
 348:.\Generated_Source\PSoC4/USBFS_episr.c ****             EA = intEn; /* Restore nested interrupt configuration. */
 349:.\Generated_Source\PSoC4/USBFS_episr.c ****         }
 350:.\Generated_Source\PSoC4/USBFS_episr.c ****     #endif /* (CY_PSOC3 && USBFS_ISR_SERVICE_MIDI_OUT) */
 351:.\Generated_Source\PSoC4/USBFS_episr.c ****     }
  66              		.loc 1 351 0
  67              		@ sp needed
  68 003c 7047     		bx	lr
  69              	.L5:
  70 003e C046     		.align	2
  71              	.L4:
  72 0040 2C002C40 		.word	1076625452
  73 0044 00000000 		.word	USBFS_EP
  74 0048 F0FF2B40 		.word	1076625392
  75              		.cfi_endproc
  76              	.LFE165:
  77              		.size	USBFS_EP_4_ISR, .-USBFS_EP_4_ISR
  78              		.section	.text.USBFS_EP_6_ISR,"ax",%progbits
  79              		.align	2
  80              		.global	USBFS_EP_6_ISR
  81              		.code	16
  82              		.thumb_func
  83              		.type	USBFS_EP_6_ISR, %function
  84              	USBFS_EP_6_ISR:
  85              	.LFB166:
 352:.\Generated_Source\PSoC4/USBFS_episr.c **** #endif /* (USBFS_EP4_ISR_ACTIVE) */
 353:.\Generated_Source\PSoC4/USBFS_episr.c **** 
 354:.\Generated_Source\PSoC4/USBFS_episr.c **** 
 355:.\Generated_Source\PSoC4/USBFS_episr.c **** #if (USBFS_EP5_ISR_ACTIVE)
 356:.\Generated_Source\PSoC4/USBFS_episr.c ****     /*******************************************************************************
 357:.\Generated_Source\PSoC4/USBFS_episr.c ****     * Function Name: USBFS_EP_5_ISR
 358:.\Generated_Source\PSoC4/USBFS_episr.c ****     ****************************************************************************//**
 359:.\Generated_Source\PSoC4/USBFS_episr.c ****     *
 360:.\Generated_Source\PSoC4/USBFS_episr.c ****     *  Endpoint 5 Interrupt Service Routine
 361:.\Generated_Source\PSoC4/USBFS_episr.c ****     *
 362:.\Generated_Source\PSoC4/USBFS_episr.c ****     *
 363:.\Generated_Source\PSoC4/USBFS_episr.c ****     *******************************************************************************/
 364:.\Generated_Source\PSoC4/USBFS_episr.c ****     CY_ISR(USBFS_EP_5_ISR)
 365:.\Generated_Source\PSoC4/USBFS_episr.c ****     {
 366:.\Generated_Source\PSoC4/USBFS_episr.c ****     #ifdef USBFS_EP_5_ISR_ENTRY_CALLBACK
 367:.\Generated_Source\PSoC4/USBFS_episr.c ****         USBFS_EP_5_ISR_EntryCallback();
 368:.\Generated_Source\PSoC4/USBFS_episr.c ****     #endif /* (USBFS_EP_5_ISR_ENTRY_CALLBACK) */
 369:.\Generated_Source\PSoC4/USBFS_episr.c **** 
 370:.\Generated_Source\PSoC4/USBFS_episr.c ****         /* `#START EP5_USER_CODE` Place your code here */
 371:.\Generated_Source\PSoC4/USBFS_episr.c **** 
ARM GAS  C:\Users\Terence\AppData\Local\Temp\cc65qyTh.s 			page 9


 372:.\Generated_Source\PSoC4/USBFS_episr.c ****         /* `#END` */
 373:.\Generated_Source\PSoC4/USBFS_episr.c **** 
 374:.\Generated_Source\PSoC4/USBFS_episr.c ****     #if (defined(USBFS_ENABLE_MIDI_STREAMING) && !defined(USBFS_MAIN_SERVICE_MIDI_OUT) && \
 375:.\Generated_Source\PSoC4/USBFS_episr.c ****                  USBFS_ISR_SERVICE_MIDI_OUT && CY_PSOC3)
 376:.\Generated_Source\PSoC4/USBFS_episr.c ****         {
 377:.\Generated_Source\PSoC4/USBFS_episr.c ****             uint8 intEn = EA;
 378:.\Generated_Source\PSoC4/USBFS_episr.c ****             CyGlobalIntEnable;  /* Enable nested interrupts. */
 379:.\Generated_Source\PSoC4/USBFS_episr.c ****     #endif /* (CY_PSOC3 && USBFS_ISR_SERVICE_MIDI_OUT) */
 380:.\Generated_Source\PSoC4/USBFS_episr.c **** 
 381:.\Generated_Source\PSoC4/USBFS_episr.c ****         USBFS_ClearSieEpInterruptSource(USBFS_SIE_INT_EP5_INTR);
 382:.\Generated_Source\PSoC4/USBFS_episr.c ****     
 383:.\Generated_Source\PSoC4/USBFS_episr.c ****         /* Notifies user that transfer IN or OUT transfer is completed.
 384:.\Generated_Source\PSoC4/USBFS_episr.c ****         * IN endpoint: endpoint buffer can be reloaded, Host is read data.
 385:.\Generated_Source\PSoC4/USBFS_episr.c ****         * OUT endpoint: data is ready to read from endpoint buffer. 
 386:.\Generated_Source\PSoC4/USBFS_episr.c ****         */
 387:.\Generated_Source\PSoC4/USBFS_episr.c ****     #if (CY_PSOC4 && USBFS_EP_MANAGEMENT_DMA_AUTO)
 388:.\Generated_Source\PSoC4/USBFS_episr.c ****         if (0u != (USBFS_EP[USBFS_EP5].addr & USBFS_DIR_IN))
 389:.\Generated_Source\PSoC4/USBFS_episr.c ****     #endif /* (USBFS_EP_MANAGEMENT_DMA_AUTO) */
 390:.\Generated_Source\PSoC4/USBFS_episr.c ****         {            
 391:.\Generated_Source\PSoC4/USBFS_episr.c ****             /* Read CR0 register to clear SIE lock. */
 392:.\Generated_Source\PSoC4/USBFS_episr.c ****             (void) USBFS_SIE_EP_BASE.sieEp[USBFS_EP5].epCr0;
 393:.\Generated_Source\PSoC4/USBFS_episr.c **** 
 394:.\Generated_Source\PSoC4/USBFS_episr.c ****             /* Toggle all endpoint types except ISOC. */
 395:.\Generated_Source\PSoC4/USBFS_episr.c ****             if (USBFS_GET_EP_TYPE(USBFS_EP5) != USBFS_EP_TYPE_ISOC)
 396:.\Generated_Source\PSoC4/USBFS_episr.c ****             {
 397:.\Generated_Source\PSoC4/USBFS_episr.c ****                 USBFS_EP[USBFS_EP5].epToggle ^= USBFS_EPX_CNT_DATA_TOGGLE;
 398:.\Generated_Source\PSoC4/USBFS_episr.c ****             }
 399:.\Generated_Source\PSoC4/USBFS_episr.c **** 
 400:.\Generated_Source\PSoC4/USBFS_episr.c ****             /* EP_MANAGEMENT_DMA_AUTO (Ticket ID# 214187): For OUT endpoint this event is used to n
 401:.\Generated_Source\PSoC4/USBFS_episr.c ****             * user that DMA has completed copying data from OUT endpoint which is not completely tr
 402:.\Generated_Source\PSoC4/USBFS_episr.c ****             * Because last chunk of data is being copied.
 403:.\Generated_Source\PSoC4/USBFS_episr.c ****             * For CY_PSOC 3/5LP: it is acceptable as DMA is really fast.
 404:.\Generated_Source\PSoC4/USBFS_episr.c ****             * For CY_PSOC4: this event is set in Arbiter interrupt (source is DMA_TERMIN).
 405:.\Generated_Source\PSoC4/USBFS_episr.c ****             */
 406:.\Generated_Source\PSoC4/USBFS_episr.c ****             USBFS_EP[USBFS_EP5].apiEpState = USBFS_EVENT_PENDING;
 407:.\Generated_Source\PSoC4/USBFS_episr.c ****         }
 408:.\Generated_Source\PSoC4/USBFS_episr.c **** 
 409:.\Generated_Source\PSoC4/USBFS_episr.c ****     #if (!(CY_PSOC4 && USBFS_EP_MANAGEMENT_DMA_AUTO))        
 410:.\Generated_Source\PSoC4/USBFS_episr.c ****         #if (defined(USBFS_ENABLE_MIDI_STREAMING) && \
 411:.\Generated_Source\PSoC4/USBFS_episr.c ****             !defined(USBFS_MAIN_SERVICE_MIDI_OUT) && USBFS_ISR_SERVICE_MIDI_OUT)
 412:.\Generated_Source\PSoC4/USBFS_episr.c ****             if (USBFS_midi_out_ep == USBFS_EP5)
 413:.\Generated_Source\PSoC4/USBFS_episr.c ****             {
 414:.\Generated_Source\PSoC4/USBFS_episr.c ****                 USBFS_MIDI_OUT_Service();
 415:.\Generated_Source\PSoC4/USBFS_episr.c ****             }
 416:.\Generated_Source\PSoC4/USBFS_episr.c ****         #endif /* (USBFS_ISR_SERVICE_MIDI_OUT) */
 417:.\Generated_Source\PSoC4/USBFS_episr.c ****     #endif /* (!(CY_PSOC4 && USBFS_EP_MANAGEMENT_DMA_AUTO)) */
 418:.\Generated_Source\PSoC4/USBFS_episr.c **** 
 419:.\Generated_Source\PSoC4/USBFS_episr.c ****         /* `#START EP5_END_USER_CODE` Place your code here */
 420:.\Generated_Source\PSoC4/USBFS_episr.c **** 
 421:.\Generated_Source\PSoC4/USBFS_episr.c ****         /* `#END` */
 422:.\Generated_Source\PSoC4/USBFS_episr.c **** 
 423:.\Generated_Source\PSoC4/USBFS_episr.c ****     #ifdef USBFS_EP_5_ISR_EXIT_CALLBACK
 424:.\Generated_Source\PSoC4/USBFS_episr.c ****         USBFS_EP_5_ISR_ExitCallback();
 425:.\Generated_Source\PSoC4/USBFS_episr.c ****     #endif /* (USBFS_EP_5_ISR_EXIT_CALLBACK) */
 426:.\Generated_Source\PSoC4/USBFS_episr.c **** 
 427:.\Generated_Source\PSoC4/USBFS_episr.c ****     #if (CY_PSOC3 && defined(USBFS_ENABLE_MIDI_STREAMING) && \
 428:.\Generated_Source\PSoC4/USBFS_episr.c ****         !defined(USBFS_MAIN_SERVICE_MIDI_OUT) && USBFS_ISR_SERVICE_MIDI_OUT)
ARM GAS  C:\Users\Terence\AppData\Local\Temp\cc65qyTh.s 			page 10


 429:.\Generated_Source\PSoC4/USBFS_episr.c ****         
 430:.\Generated_Source\PSoC4/USBFS_episr.c ****             EA = intEn; /* Restore nested interrupt configuration. */
 431:.\Generated_Source\PSoC4/USBFS_episr.c ****         }
 432:.\Generated_Source\PSoC4/USBFS_episr.c ****     #endif /* (CY_PSOC3 && USBFS_ISR_SERVICE_MIDI_OUT) */
 433:.\Generated_Source\PSoC4/USBFS_episr.c ****     }
 434:.\Generated_Source\PSoC4/USBFS_episr.c **** #endif /* (USBFS_EP5_ISR_ACTIVE) */
 435:.\Generated_Source\PSoC4/USBFS_episr.c **** 
 436:.\Generated_Source\PSoC4/USBFS_episr.c **** 
 437:.\Generated_Source\PSoC4/USBFS_episr.c **** #if (USBFS_EP6_ISR_ACTIVE)
 438:.\Generated_Source\PSoC4/USBFS_episr.c ****     /*******************************************************************************
 439:.\Generated_Source\PSoC4/USBFS_episr.c ****     * Function Name: USBFS_EP_6_ISR
 440:.\Generated_Source\PSoC4/USBFS_episr.c ****     ****************************************************************************//**
 441:.\Generated_Source\PSoC4/USBFS_episr.c ****     *
 442:.\Generated_Source\PSoC4/USBFS_episr.c ****     *  Endpoint 6 Interrupt Service Routine.
 443:.\Generated_Source\PSoC4/USBFS_episr.c ****     *
 444:.\Generated_Source\PSoC4/USBFS_episr.c ****     *
 445:.\Generated_Source\PSoC4/USBFS_episr.c ****     *******************************************************************************/
 446:.\Generated_Source\PSoC4/USBFS_episr.c ****     CY_ISR(USBFS_EP_6_ISR)
 447:.\Generated_Source\PSoC4/USBFS_episr.c ****     {
  86              		.loc 1 447 0
  87              		.cfi_startproc
 448:.\Generated_Source\PSoC4/USBFS_episr.c ****     #ifdef USBFS_EP_6_ISR_ENTRY_CALLBACK
 449:.\Generated_Source\PSoC4/USBFS_episr.c ****         USBFS_EP_6_ISR_EntryCallback();
 450:.\Generated_Source\PSoC4/USBFS_episr.c ****     #endif /* (USBFS_EP_6_ISR_ENTRY_CALLBACK) */
 451:.\Generated_Source\PSoC4/USBFS_episr.c **** 
 452:.\Generated_Source\PSoC4/USBFS_episr.c ****         /* `#START EP6_USER_CODE` Place your code here */
 453:.\Generated_Source\PSoC4/USBFS_episr.c **** 
 454:.\Generated_Source\PSoC4/USBFS_episr.c ****         /* `#END` */
 455:.\Generated_Source\PSoC4/USBFS_episr.c **** 
 456:.\Generated_Source\PSoC4/USBFS_episr.c ****     #if (CY_PSOC3 && defined(USBFS_ENABLE_MIDI_STREAMING) && \
 457:.\Generated_Source\PSoC4/USBFS_episr.c ****         !defined(USBFS_MAIN_SERVICE_MIDI_OUT) && USBFS_ISR_SERVICE_MIDI_OUT)
 458:.\Generated_Source\PSoC4/USBFS_episr.c ****         {
 459:.\Generated_Source\PSoC4/USBFS_episr.c ****             uint8 intEn = EA;
 460:.\Generated_Source\PSoC4/USBFS_episr.c ****             CyGlobalIntEnable;  /* Enable nested interrupts. */
 461:.\Generated_Source\PSoC4/USBFS_episr.c ****     #endif /* (CY_PSOC3 && USBFS_ISR_SERVICE_MIDI_OUT) */
 462:.\Generated_Source\PSoC4/USBFS_episr.c **** 
 463:.\Generated_Source\PSoC4/USBFS_episr.c ****         USBFS_ClearSieEpInterruptSource(USBFS_SIE_INT_EP6_INTR);
  88              		.loc 1 463 0
  89 0000 2022     		mov	r2, #32
  90 0002 0F4B     		ldr	r3, .L9
  91 0004 1A60     		str	r2, [r3]
 464:.\Generated_Source\PSoC4/USBFS_episr.c ****         
 465:.\Generated_Source\PSoC4/USBFS_episr.c ****         /* Notifies user that transfer IN or OUT transfer is completed.
 466:.\Generated_Source\PSoC4/USBFS_episr.c ****         * IN endpoint: endpoint buffer can be reloaded, Host is read data.
 467:.\Generated_Source\PSoC4/USBFS_episr.c ****         * OUT endpoint: data is ready to read from endpoint buffer. 
 468:.\Generated_Source\PSoC4/USBFS_episr.c ****         */
 469:.\Generated_Source\PSoC4/USBFS_episr.c ****     #if (CY_PSOC4 && USBFS_EP_MANAGEMENT_DMA_AUTO)
 470:.\Generated_Source\PSoC4/USBFS_episr.c ****         if (0u != (USBFS_EP[USBFS_EP6].addr & USBFS_DIR_IN))
  92              		.loc 1 470 0
  93 0006 4C23     		mov	r3, #76
  94 0008 0E4A     		ldr	r2, .L9+4
  95 000a D35C     		ldrb	r3, [r2, r3]
  96 000c 5BB2     		sxtb	r3, r3
  97 000e 002B     		cmp	r3, #0
  98 0010 14DA     		bge	.L6
 471:.\Generated_Source\PSoC4/USBFS_episr.c ****     #endif /* (USBFS_EP_MANAGEMENT_DMA_AUTO) */
 472:.\Generated_Source\PSoC4/USBFS_episr.c ****         {
ARM GAS  C:\Users\Terence\AppData\Local\Temp\cc65qyTh.s 			page 11


 473:.\Generated_Source\PSoC4/USBFS_episr.c ****             /* Read CR0 register to clear SIE lock. */
 474:.\Generated_Source\PSoC4/USBFS_episr.c ****             (void) USBFS_SIE_EP_BASE.sieEp[USBFS_EP6].epCr0;
  99              		.loc 1 474 0
 100 0012 C423     		mov	r3, #196
 101 0014 5B00     		lsl	r3, r3, #1
 102 0016 0C4A     		ldr	r2, .L9+8
 103 0018 D358     		ldr	r3, [r2, r3]
 475:.\Generated_Source\PSoC4/USBFS_episr.c **** 
 476:.\Generated_Source\PSoC4/USBFS_episr.c ****             /* Toggle all endpoint types except ISOC. */
 477:.\Generated_Source\PSoC4/USBFS_episr.c ****             if (USBFS_GET_EP_TYPE(USBFS_EP6) != USBFS_EP_TYPE_ISOC)
 104              		.loc 1 477 0
 105 001a 4823     		mov	r3, #72
 106 001c 094A     		ldr	r2, .L9+4
 107 001e D25C     		ldrb	r2, [r2, r3]
 108 0020 453B     		sub	r3, r3, #69
 109 0022 1340     		and	r3, r2
 110 0024 012B     		cmp	r3, #1
 111 0026 05D0     		beq	.L8
 478:.\Generated_Source\PSoC4/USBFS_episr.c ****             {
 479:.\Generated_Source\PSoC4/USBFS_episr.c ****                 USBFS_EP[USBFS_EP6].epToggle ^= USBFS_EPX_CNT_DATA_TOGGLE;
 112              		.loc 1 479 0
 113 0028 0649     		ldr	r1, .L9+4
 114 002a 4B22     		mov	r2, #75
 115 002c 885C     		ldrb	r0, [r1, r2]
 116 002e 8023     		mov	r3, #128
 117 0030 4340     		eor	r3, r0
 118 0032 8B54     		strb	r3, [r1, r2]
 119              	.L8:
 480:.\Generated_Source\PSoC4/USBFS_episr.c ****             }
 481:.\Generated_Source\PSoC4/USBFS_episr.c ****             
 482:.\Generated_Source\PSoC4/USBFS_episr.c ****             /* EP_MANAGEMENT_DMA_AUTO (Ticket ID# 214187): For OUT endpoint this event is used to n
 483:.\Generated_Source\PSoC4/USBFS_episr.c ****             * user that DMA has completed copying data from OUT endpoint which is not completely tr
 484:.\Generated_Source\PSoC4/USBFS_episr.c ****             * Because last chunk of data is being copied.
 485:.\Generated_Source\PSoC4/USBFS_episr.c ****             * For CY_PSOC 3/5LP: it is acceptable as DMA is really fast.
 486:.\Generated_Source\PSoC4/USBFS_episr.c ****             * For CY_PSOC4: this event is set in Arbiter interrupt (source is DMA_TERMIN).
 487:.\Generated_Source\PSoC4/USBFS_episr.c ****             */
 488:.\Generated_Source\PSoC4/USBFS_episr.c ****             USBFS_EP[USBFS_EP6].apiEpState = USBFS_EVENT_PENDING;
 120              		.loc 1 488 0
 121 0034 0121     		mov	r1, #1
 122 0036 4923     		mov	r3, #73
 123 0038 024A     		ldr	r2, .L9+4
 124 003a D154     		strb	r1, [r2, r3]
 125              	.L6:
 489:.\Generated_Source\PSoC4/USBFS_episr.c ****         }
 490:.\Generated_Source\PSoC4/USBFS_episr.c **** 
 491:.\Generated_Source\PSoC4/USBFS_episr.c ****     #if (!(CY_PSOC4 && USBFS_EP_MANAGEMENT_DMA_AUTO))
 492:.\Generated_Source\PSoC4/USBFS_episr.c ****         #if (defined(USBFS_ENABLE_MIDI_STREAMING) && \
 493:.\Generated_Source\PSoC4/USBFS_episr.c ****             !defined(USBFS_MAIN_SERVICE_MIDI_OUT) && USBFS_ISR_SERVICE_MIDI_OUT)
 494:.\Generated_Source\PSoC4/USBFS_episr.c ****             if (USBFS_midi_out_ep == USBFS_EP6)
 495:.\Generated_Source\PSoC4/USBFS_episr.c ****             {
 496:.\Generated_Source\PSoC4/USBFS_episr.c ****                 USBFS_MIDI_OUT_Service();
 497:.\Generated_Source\PSoC4/USBFS_episr.c ****             }
 498:.\Generated_Source\PSoC4/USBFS_episr.c ****         #endif /* (USBFS_ISR_SERVICE_MIDI_OUT) */
 499:.\Generated_Source\PSoC4/USBFS_episr.c ****     #endif /* (!(CY_PSOC4 && USBFS_EP_MANAGEMENT_DMA_AUTO)) */
 500:.\Generated_Source\PSoC4/USBFS_episr.c **** 
 501:.\Generated_Source\PSoC4/USBFS_episr.c ****         /* `#START EP6_END_USER_CODE` Place your code here */
 502:.\Generated_Source\PSoC4/USBFS_episr.c **** 
ARM GAS  C:\Users\Terence\AppData\Local\Temp\cc65qyTh.s 			page 12


 503:.\Generated_Source\PSoC4/USBFS_episr.c ****         /* `#END` */
 504:.\Generated_Source\PSoC4/USBFS_episr.c **** 
 505:.\Generated_Source\PSoC4/USBFS_episr.c ****     #ifdef USBFS_EP_6_ISR_EXIT_CALLBACK
 506:.\Generated_Source\PSoC4/USBFS_episr.c ****         USBFS_EP_6_ISR_ExitCallback();
 507:.\Generated_Source\PSoC4/USBFS_episr.c ****     #endif /* (USBFS_EP_6_ISR_EXIT_CALLBACK) */
 508:.\Generated_Source\PSoC4/USBFS_episr.c **** 
 509:.\Generated_Source\PSoC4/USBFS_episr.c ****     #if (CY_PSOC3 && defined(USBFS_ENABLE_MIDI_STREAMING) && \
 510:.\Generated_Source\PSoC4/USBFS_episr.c ****         !defined(USBFS_MAIN_SERVICE_MIDI_OUT) && USBFS_ISR_SERVICE_MIDI_OUT)
 511:.\Generated_Source\PSoC4/USBFS_episr.c ****         
 512:.\Generated_Source\PSoC4/USBFS_episr.c ****             EA = intEn; /* Restore nested interrupt configuration. */
 513:.\Generated_Source\PSoC4/USBFS_episr.c ****         }
 514:.\Generated_Source\PSoC4/USBFS_episr.c ****     #endif /* (CY_PSOC3 && USBFS_ISR_SERVICE_MIDI_OUT) */
 515:.\Generated_Source\PSoC4/USBFS_episr.c ****     }
 126              		.loc 1 515 0
 127              		@ sp needed
 128 003c 7047     		bx	lr
 129              	.L10:
 130 003e C046     		.align	2
 131              	.L9:
 132 0040 2C002C40 		.word	1076625452
 133 0044 00000000 		.word	USBFS_EP
 134 0048 F0FF2B40 		.word	1076625392
 135              		.cfi_endproc
 136              	.LFE166:
 137              		.size	USBFS_EP_6_ISR, .-USBFS_EP_6_ISR
 138              		.section	.text.USBFS_ARB_ISR,"ax",%progbits
 139              		.align	2
 140              		.global	USBFS_ARB_ISR
 141              		.code	16
 142              		.thumb_func
 143              		.type	USBFS_ARB_ISR, %function
 144              	USBFS_ARB_ISR:
 145              	.LFB169:
 516:.\Generated_Source\PSoC4/USBFS_episr.c **** #endif /* (USBFS_EP6_ISR_ACTIVE) */
 517:.\Generated_Source\PSoC4/USBFS_episr.c **** 
 518:.\Generated_Source\PSoC4/USBFS_episr.c **** 
 519:.\Generated_Source\PSoC4/USBFS_episr.c **** #if (USBFS_EP7_ISR_ACTIVE)
 520:.\Generated_Source\PSoC4/USBFS_episr.c ****     /*******************************************************************************
 521:.\Generated_Source\PSoC4/USBFS_episr.c ****     * Function Name: USBFS_EP_7_ISR
 522:.\Generated_Source\PSoC4/USBFS_episr.c ****     ****************************************************************************//**
 523:.\Generated_Source\PSoC4/USBFS_episr.c ****     *
 524:.\Generated_Source\PSoC4/USBFS_episr.c ****     *  Endpoint 7 Interrupt Service Routine.
 525:.\Generated_Source\PSoC4/USBFS_episr.c ****     *
 526:.\Generated_Source\PSoC4/USBFS_episr.c ****     *
 527:.\Generated_Source\PSoC4/USBFS_episr.c ****     *******************************************************************************/
 528:.\Generated_Source\PSoC4/USBFS_episr.c ****     CY_ISR(USBFS_EP_7_ISR)
 529:.\Generated_Source\PSoC4/USBFS_episr.c ****     {
 530:.\Generated_Source\PSoC4/USBFS_episr.c ****     #ifdef USBFS_EP_7_ISR_ENTRY_CALLBACK
 531:.\Generated_Source\PSoC4/USBFS_episr.c ****         USBFS_EP_7_ISR_EntryCallback();
 532:.\Generated_Source\PSoC4/USBFS_episr.c ****     #endif /* (USBFS_EP_7_ISR_ENTRY_CALLBACK) */
 533:.\Generated_Source\PSoC4/USBFS_episr.c **** 
 534:.\Generated_Source\PSoC4/USBFS_episr.c ****         /* `#START EP7_USER_CODE` Place your code here */
 535:.\Generated_Source\PSoC4/USBFS_episr.c **** 
 536:.\Generated_Source\PSoC4/USBFS_episr.c ****         /* `#END` */
 537:.\Generated_Source\PSoC4/USBFS_episr.c **** 
 538:.\Generated_Source\PSoC4/USBFS_episr.c ****     #if (CY_PSOC3 && defined(USBFS_ENABLE_MIDI_STREAMING) && \
 539:.\Generated_Source\PSoC4/USBFS_episr.c ****         !defined(USBFS_MAIN_SERVICE_MIDI_OUT) && USBFS_ISR_SERVICE_MIDI_OUT)
ARM GAS  C:\Users\Terence\AppData\Local\Temp\cc65qyTh.s 			page 13


 540:.\Generated_Source\PSoC4/USBFS_episr.c ****         {
 541:.\Generated_Source\PSoC4/USBFS_episr.c ****             uint8 intEn = EA;
 542:.\Generated_Source\PSoC4/USBFS_episr.c ****             CyGlobalIntEnable;  /* Enable nested interrupts. */
 543:.\Generated_Source\PSoC4/USBFS_episr.c ****     #endif /* (CY_PSOC3 && USBFS_ISR_SERVICE_MIDI_OUT) */
 544:.\Generated_Source\PSoC4/USBFS_episr.c ****     
 545:.\Generated_Source\PSoC4/USBFS_episr.c ****         USBFS_ClearSieEpInterruptSource(USBFS_SIE_INT_EP7_INTR);
 546:.\Generated_Source\PSoC4/USBFS_episr.c ****         
 547:.\Generated_Source\PSoC4/USBFS_episr.c ****         /* Notifies user that transfer IN or OUT transfer is completed.
 548:.\Generated_Source\PSoC4/USBFS_episr.c ****         * IN endpoint: endpoint buffer can be reloaded, Host is read data.
 549:.\Generated_Source\PSoC4/USBFS_episr.c ****         * OUT endpoint: data is ready to read from endpoint buffer. 
 550:.\Generated_Source\PSoC4/USBFS_episr.c ****         */
 551:.\Generated_Source\PSoC4/USBFS_episr.c ****     #if (CY_PSOC4 && USBFS_EP_MANAGEMENT_DMA_AUTO)
 552:.\Generated_Source\PSoC4/USBFS_episr.c ****         if (0u != (USBFS_EP[USBFS_EP7].addr & USBFS_DIR_IN))
 553:.\Generated_Source\PSoC4/USBFS_episr.c ****     #endif /* (USBFS_EP_MANAGEMENT_DMA_AUTO) */
 554:.\Generated_Source\PSoC4/USBFS_episr.c ****         {           
 555:.\Generated_Source\PSoC4/USBFS_episr.c ****             /* Read CR0 register to clear SIE lock. */
 556:.\Generated_Source\PSoC4/USBFS_episr.c ****             (void) USBFS_SIE_EP_BASE.sieEp[USBFS_EP7].epCr0;
 557:.\Generated_Source\PSoC4/USBFS_episr.c **** 
 558:.\Generated_Source\PSoC4/USBFS_episr.c ****             /* Toggle all endpoint types except ISOC. */
 559:.\Generated_Source\PSoC4/USBFS_episr.c ****             if (USBFS_GET_EP_TYPE(USBFS_EP7) != USBFS_EP_TYPE_ISOC)
 560:.\Generated_Source\PSoC4/USBFS_episr.c ****             {
 561:.\Generated_Source\PSoC4/USBFS_episr.c ****                 USBFS_EP[USBFS_EP7].epToggle ^= USBFS_EPX_CNT_DATA_TOGGLE;
 562:.\Generated_Source\PSoC4/USBFS_episr.c ****             }
 563:.\Generated_Source\PSoC4/USBFS_episr.c ****             
 564:.\Generated_Source\PSoC4/USBFS_episr.c ****             /* EP_MANAGEMENT_DMA_AUTO (Ticket ID# 214187): For OUT endpoint this event is used to n
 565:.\Generated_Source\PSoC4/USBFS_episr.c ****             * user that DMA has completed copying data from OUT endpoint which is not completely tr
 566:.\Generated_Source\PSoC4/USBFS_episr.c ****             * Because last chunk of data is being copied.
 567:.\Generated_Source\PSoC4/USBFS_episr.c ****             * For CY_PSOC 3/5LP: it is acceptable as DMA is really fast.
 568:.\Generated_Source\PSoC4/USBFS_episr.c ****             * For CY_PSOC4: this event is set in Arbiter interrupt (source is DMA_TERMIN).
 569:.\Generated_Source\PSoC4/USBFS_episr.c ****             */
 570:.\Generated_Source\PSoC4/USBFS_episr.c ****             USBFS_EP[USBFS_EP7].apiEpState = USBFS_EVENT_PENDING;
 571:.\Generated_Source\PSoC4/USBFS_episr.c ****         }
 572:.\Generated_Source\PSoC4/USBFS_episr.c **** 
 573:.\Generated_Source\PSoC4/USBFS_episr.c **** 
 574:.\Generated_Source\PSoC4/USBFS_episr.c ****     #if (!(CY_PSOC4 && USBFS_EP_MANAGEMENT_DMA_AUTO))
 575:.\Generated_Source\PSoC4/USBFS_episr.c ****         #if (defined(USBFS_ENABLE_MIDI_STREAMING) && \
 576:.\Generated_Source\PSoC4/USBFS_episr.c ****             !defined(USBFS_MAIN_SERVICE_MIDI_OUT) && USBFS_ISR_SERVICE_MIDI_OUT)
 577:.\Generated_Source\PSoC4/USBFS_episr.c ****             if(USBFS_midi_out_ep == USBFS_EP7)
 578:.\Generated_Source\PSoC4/USBFS_episr.c ****             {
 579:.\Generated_Source\PSoC4/USBFS_episr.c ****                 USBFS_MIDI_OUT_Service();
 580:.\Generated_Source\PSoC4/USBFS_episr.c ****             }
 581:.\Generated_Source\PSoC4/USBFS_episr.c ****         #endif /* (USBFS_ISR_SERVICE_MIDI_OUT) */
 582:.\Generated_Source\PSoC4/USBFS_episr.c ****     #endif /* (!(CY_PSOC4 && USBFS_EP_MANAGEMENT_DMA_AUTO)) */
 583:.\Generated_Source\PSoC4/USBFS_episr.c **** 
 584:.\Generated_Source\PSoC4/USBFS_episr.c ****         /* `#START EP7_END_USER_CODE` Place your code here */
 585:.\Generated_Source\PSoC4/USBFS_episr.c **** 
 586:.\Generated_Source\PSoC4/USBFS_episr.c ****         /* `#END` */
 587:.\Generated_Source\PSoC4/USBFS_episr.c **** 
 588:.\Generated_Source\PSoC4/USBFS_episr.c ****     #ifdef USBFS_EP_7_ISR_EXIT_CALLBACK
 589:.\Generated_Source\PSoC4/USBFS_episr.c ****         USBFS_EP_7_ISR_ExitCallback();
 590:.\Generated_Source\PSoC4/USBFS_episr.c ****     #endif /* (USBFS_EP_7_ISR_EXIT_CALLBACK) */
 591:.\Generated_Source\PSoC4/USBFS_episr.c **** 
 592:.\Generated_Source\PSoC4/USBFS_episr.c ****     #if (CY_PSOC3 && defined(USBFS_ENABLE_MIDI_STREAMING) && \
 593:.\Generated_Source\PSoC4/USBFS_episr.c ****         !defined(USBFS_MAIN_SERVICE_MIDI_OUT) && USBFS_ISR_SERVICE_MIDI_OUT)
 594:.\Generated_Source\PSoC4/USBFS_episr.c ****         
 595:.\Generated_Source\PSoC4/USBFS_episr.c ****             EA = intEn; /* Restore nested interrupt configuration. */
 596:.\Generated_Source\PSoC4/USBFS_episr.c ****         }
ARM GAS  C:\Users\Terence\AppData\Local\Temp\cc65qyTh.s 			page 14


 597:.\Generated_Source\PSoC4/USBFS_episr.c ****     #endif /* (CY_PSOC3 && USBFS_ISR_SERVICE_MIDI_OUT) */
 598:.\Generated_Source\PSoC4/USBFS_episr.c ****     }
 599:.\Generated_Source\PSoC4/USBFS_episr.c **** #endif /* (USBFS_EP7_ISR_ACTIVE) */
 600:.\Generated_Source\PSoC4/USBFS_episr.c **** 
 601:.\Generated_Source\PSoC4/USBFS_episr.c **** 
 602:.\Generated_Source\PSoC4/USBFS_episr.c **** #if (USBFS_EP8_ISR_ACTIVE)
 603:.\Generated_Source\PSoC4/USBFS_episr.c ****     /*******************************************************************************
 604:.\Generated_Source\PSoC4/USBFS_episr.c ****     * Function Name: USBFS_EP_8_ISR
 605:.\Generated_Source\PSoC4/USBFS_episr.c ****     ****************************************************************************//**
 606:.\Generated_Source\PSoC4/USBFS_episr.c ****     *
 607:.\Generated_Source\PSoC4/USBFS_episr.c ****     *  Endpoint 8 Interrupt Service Routine
 608:.\Generated_Source\PSoC4/USBFS_episr.c ****     *
 609:.\Generated_Source\PSoC4/USBFS_episr.c ****     *
 610:.\Generated_Source\PSoC4/USBFS_episr.c ****     *******************************************************************************/
 611:.\Generated_Source\PSoC4/USBFS_episr.c ****     CY_ISR(USBFS_EP_8_ISR)
 612:.\Generated_Source\PSoC4/USBFS_episr.c ****     {
 613:.\Generated_Source\PSoC4/USBFS_episr.c ****     #ifdef USBFS_EP_8_ISR_ENTRY_CALLBACK
 614:.\Generated_Source\PSoC4/USBFS_episr.c ****         USBFS_EP_8_ISR_EntryCallback();
 615:.\Generated_Source\PSoC4/USBFS_episr.c ****     #endif /* (USBFS_EP_8_ISR_ENTRY_CALLBACK) */
 616:.\Generated_Source\PSoC4/USBFS_episr.c **** 
 617:.\Generated_Source\PSoC4/USBFS_episr.c ****         /* `#START EP8_USER_CODE` Place your code here */
 618:.\Generated_Source\PSoC4/USBFS_episr.c **** 
 619:.\Generated_Source\PSoC4/USBFS_episr.c ****         /* `#END` */
 620:.\Generated_Source\PSoC4/USBFS_episr.c **** 
 621:.\Generated_Source\PSoC4/USBFS_episr.c ****     #if (CY_PSOC3 && defined(USBFS_ENABLE_MIDI_STREAMING) && \
 622:.\Generated_Source\PSoC4/USBFS_episr.c ****         !defined(USBFS_MAIN_SERVICE_MIDI_OUT) && USBFS_ISR_SERVICE_MIDI_OUT)
 623:.\Generated_Source\PSoC4/USBFS_episr.c ****         {
 624:.\Generated_Source\PSoC4/USBFS_episr.c ****             uint8 intEn = EA;
 625:.\Generated_Source\PSoC4/USBFS_episr.c ****             CyGlobalIntEnable;  /* Enable nested interrupts. */
 626:.\Generated_Source\PSoC4/USBFS_episr.c ****     #endif /* (CY_PSOC3 && USBFS_ISR_SERVICE_MIDI_OUT) */
 627:.\Generated_Source\PSoC4/USBFS_episr.c **** 
 628:.\Generated_Source\PSoC4/USBFS_episr.c ****         USBFS_ClearSieEpInterruptSource(USBFS_SIE_INT_EP8_INTR);
 629:.\Generated_Source\PSoC4/USBFS_episr.c ****         
 630:.\Generated_Source\PSoC4/USBFS_episr.c ****         /* Notifies user that transfer IN or OUT transfer is completed.
 631:.\Generated_Source\PSoC4/USBFS_episr.c ****         * IN endpoint: endpoint buffer can be reloaded, Host is read data.
 632:.\Generated_Source\PSoC4/USBFS_episr.c ****         * OUT endpoint: data is ready to read from endpoint buffer. 
 633:.\Generated_Source\PSoC4/USBFS_episr.c ****         */
 634:.\Generated_Source\PSoC4/USBFS_episr.c ****     #if (CY_PSOC4 && USBFS_EP_MANAGEMENT_DMA_AUTO)
 635:.\Generated_Source\PSoC4/USBFS_episr.c ****         if (0u != (USBFS_EP[USBFS_EP8].addr & USBFS_DIR_IN))
 636:.\Generated_Source\PSoC4/USBFS_episr.c ****     #endif /* (USBFS_EP_MANAGEMENT_DMA_AUTO) */
 637:.\Generated_Source\PSoC4/USBFS_episr.c ****         {
 638:.\Generated_Source\PSoC4/USBFS_episr.c ****             /* Read CR0 register to clear SIE lock. */
 639:.\Generated_Source\PSoC4/USBFS_episr.c ****             (void) USBFS_SIE_EP_BASE.sieEp[USBFS_EP8].epCr0;
 640:.\Generated_Source\PSoC4/USBFS_episr.c **** 
 641:.\Generated_Source\PSoC4/USBFS_episr.c ****             /* Toggle all endpoint types except ISOC. */
 642:.\Generated_Source\PSoC4/USBFS_episr.c ****             if (USBFS_GET_EP_TYPE(USBFS_EP8) != USBFS_EP_TYPE_ISOC)
 643:.\Generated_Source\PSoC4/USBFS_episr.c ****             {
 644:.\Generated_Source\PSoC4/USBFS_episr.c ****                 USBFS_EP[USBFS_EP8].epToggle ^= USBFS_EPX_CNT_DATA_TOGGLE;
 645:.\Generated_Source\PSoC4/USBFS_episr.c ****             }
 646:.\Generated_Source\PSoC4/USBFS_episr.c **** 
 647:.\Generated_Source\PSoC4/USBFS_episr.c ****             /* EP_MANAGEMENT_DMA_AUTO (Ticket ID# 214187): For OUT endpoint this event is used to n
 648:.\Generated_Source\PSoC4/USBFS_episr.c ****             * user that DMA has completed copying data from OUT endpoint which is not completely tr
 649:.\Generated_Source\PSoC4/USBFS_episr.c ****             * Because last chunk of data is being copied.
 650:.\Generated_Source\PSoC4/USBFS_episr.c ****             * For CY_PSOC 3/5LP: it is acceptable as DMA is really fast.
 651:.\Generated_Source\PSoC4/USBFS_episr.c ****             * For CY_PSOC4: this event is set in Arbiter interrupt (source is DMA_TERMIN).
 652:.\Generated_Source\PSoC4/USBFS_episr.c ****             */
 653:.\Generated_Source\PSoC4/USBFS_episr.c ****             USBFS_EP[USBFS_EP8].apiEpState = USBFS_EVENT_PENDING;
ARM GAS  C:\Users\Terence\AppData\Local\Temp\cc65qyTh.s 			page 15


 654:.\Generated_Source\PSoC4/USBFS_episr.c ****         }
 655:.\Generated_Source\PSoC4/USBFS_episr.c **** 
 656:.\Generated_Source\PSoC4/USBFS_episr.c ****     #if (!(CY_PSOC4 && USBFS_EP_MANAGEMENT_DMA_AUTO))
 657:.\Generated_Source\PSoC4/USBFS_episr.c ****         #if (defined(USBFS_ENABLE_MIDI_STREAMING) && \
 658:.\Generated_Source\PSoC4/USBFS_episr.c ****             !defined(USBFS_MAIN_SERVICE_MIDI_OUT) && USBFS_ISR_SERVICE_MIDI_OUT)
 659:.\Generated_Source\PSoC4/USBFS_episr.c ****             if (USBFS_midi_out_ep == USBFS_EP8)
 660:.\Generated_Source\PSoC4/USBFS_episr.c ****             {
 661:.\Generated_Source\PSoC4/USBFS_episr.c ****                 USBFS_MIDI_OUT_Service();
 662:.\Generated_Source\PSoC4/USBFS_episr.c ****             }
 663:.\Generated_Source\PSoC4/USBFS_episr.c ****         #endif /* (USBFS_ISR_SERVICE_MIDI_OUT) */
 664:.\Generated_Source\PSoC4/USBFS_episr.c ****     #endif /* (!(CY_PSOC4 && USBFS_EP_MANAGEMENT_DMA_AUTO)) */
 665:.\Generated_Source\PSoC4/USBFS_episr.c **** 
 666:.\Generated_Source\PSoC4/USBFS_episr.c ****         /* `#START EP8_END_USER_CODE` Place your code here */
 667:.\Generated_Source\PSoC4/USBFS_episr.c **** 
 668:.\Generated_Source\PSoC4/USBFS_episr.c ****         /* `#END` */
 669:.\Generated_Source\PSoC4/USBFS_episr.c **** 
 670:.\Generated_Source\PSoC4/USBFS_episr.c ****     #ifdef USBFS_EP_8_ISR_EXIT_CALLBACK
 671:.\Generated_Source\PSoC4/USBFS_episr.c ****         USBFS_EP_8_ISR_ExitCallback();
 672:.\Generated_Source\PSoC4/USBFS_episr.c ****     #endif /* (USBFS_EP_8_ISR_EXIT_CALLBACK) */
 673:.\Generated_Source\PSoC4/USBFS_episr.c **** 
 674:.\Generated_Source\PSoC4/USBFS_episr.c ****     #if (CY_PSOC3 && defined(USBFS_ENABLE_MIDI_STREAMING) && \
 675:.\Generated_Source\PSoC4/USBFS_episr.c ****         !defined(USBFS_MAIN_SERVICE_MIDI_OUT) && USBFS_ISR_SERVICE_MIDI_OUT)
 676:.\Generated_Source\PSoC4/USBFS_episr.c ****         
 677:.\Generated_Source\PSoC4/USBFS_episr.c ****             EA = intEn; /* Restore nested interrupt configuration. */
 678:.\Generated_Source\PSoC4/USBFS_episr.c ****         }
 679:.\Generated_Source\PSoC4/USBFS_episr.c ****     #endif /* (CY_PSOC3 && USBFS_ISR_SERVICE_MIDI_OUT) */
 680:.\Generated_Source\PSoC4/USBFS_episr.c ****     }
 681:.\Generated_Source\PSoC4/USBFS_episr.c **** #endif /* (USBFS_EP8_ISR_ACTIVE) */
 682:.\Generated_Source\PSoC4/USBFS_episr.c **** 
 683:.\Generated_Source\PSoC4/USBFS_episr.c **** 
 684:.\Generated_Source\PSoC4/USBFS_episr.c **** #if (USBFS_SOF_ISR_ACTIVE)
 685:.\Generated_Source\PSoC4/USBFS_episr.c ****     /*******************************************************************************
 686:.\Generated_Source\PSoC4/USBFS_episr.c ****     * Function Name: USBFS_SOF_ISR
 687:.\Generated_Source\PSoC4/USBFS_episr.c ****     ****************************************************************************//**
 688:.\Generated_Source\PSoC4/USBFS_episr.c ****     *
 689:.\Generated_Source\PSoC4/USBFS_episr.c ****     *  Start of Frame Interrupt Service Routine.
 690:.\Generated_Source\PSoC4/USBFS_episr.c ****     *
 691:.\Generated_Source\PSoC4/USBFS_episr.c ****     *
 692:.\Generated_Source\PSoC4/USBFS_episr.c ****     *******************************************************************************/
 693:.\Generated_Source\PSoC4/USBFS_episr.c ****     CY_ISR(USBFS_SOF_ISR)
 694:.\Generated_Source\PSoC4/USBFS_episr.c ****     {
 695:.\Generated_Source\PSoC4/USBFS_episr.c ****     #ifdef USBFS_SOF_ISR_ENTRY_CALLBACK
 696:.\Generated_Source\PSoC4/USBFS_episr.c ****         USBFS_SOF_ISR_EntryCallback();
 697:.\Generated_Source\PSoC4/USBFS_episr.c ****     #endif /* (USBFS_SOF_ISR_ENTRY_CALLBACK) */
 698:.\Generated_Source\PSoC4/USBFS_episr.c **** 
 699:.\Generated_Source\PSoC4/USBFS_episr.c ****         /* `#START SOF_USER_CODE` Place your code here */
 700:.\Generated_Source\PSoC4/USBFS_episr.c **** 
 701:.\Generated_Source\PSoC4/USBFS_episr.c ****         /* `#END` */
 702:.\Generated_Source\PSoC4/USBFS_episr.c **** 
 703:.\Generated_Source\PSoC4/USBFS_episr.c ****         USBFS_ClearSieInterruptSource(USBFS_INTR_SIE_SOF_INTR);
 704:.\Generated_Source\PSoC4/USBFS_episr.c **** 
 705:.\Generated_Source\PSoC4/USBFS_episr.c ****     #ifdef USBFS_SOF_ISR_EXIT_CALLBACK
 706:.\Generated_Source\PSoC4/USBFS_episr.c ****         USBFS_SOF_ISR_ExitCallback();
 707:.\Generated_Source\PSoC4/USBFS_episr.c ****     #endif /* (USBFS_SOF_ISR_EXIT_CALLBACK) */
 708:.\Generated_Source\PSoC4/USBFS_episr.c ****     }
 709:.\Generated_Source\PSoC4/USBFS_episr.c **** #endif /* (USBFS_SOF_ISR_ACTIVE) */
 710:.\Generated_Source\PSoC4/USBFS_episr.c **** 
ARM GAS  C:\Users\Terence\AppData\Local\Temp\cc65qyTh.s 			page 16


 711:.\Generated_Source\PSoC4/USBFS_episr.c **** 
 712:.\Generated_Source\PSoC4/USBFS_episr.c **** #if (USBFS_BUS_RESET_ISR_ACTIVE)
 713:.\Generated_Source\PSoC4/USBFS_episr.c **** /*******************************************************************************
 714:.\Generated_Source\PSoC4/USBFS_episr.c **** * Function Name: USBFS_BUS_RESET_ISR
 715:.\Generated_Source\PSoC4/USBFS_episr.c **** ****************************************************************************//**
 716:.\Generated_Source\PSoC4/USBFS_episr.c **** *
 717:.\Generated_Source\PSoC4/USBFS_episr.c **** *  USB Bus Reset Interrupt Service Routine.  Calls _Start with the same
 718:.\Generated_Source\PSoC4/USBFS_episr.c **** *  parameters as the last USER call to _Start
 719:.\Generated_Source\PSoC4/USBFS_episr.c **** *
 720:.\Generated_Source\PSoC4/USBFS_episr.c **** *
 721:.\Generated_Source\PSoC4/USBFS_episr.c **** *******************************************************************************/
 722:.\Generated_Source\PSoC4/USBFS_episr.c **** CY_ISR(USBFS_BUS_RESET_ISR)
 723:.\Generated_Source\PSoC4/USBFS_episr.c **** {
 724:.\Generated_Source\PSoC4/USBFS_episr.c **** #ifdef USBFS_BUS_RESET_ISR_ENTRY_CALLBACK
 725:.\Generated_Source\PSoC4/USBFS_episr.c ****     USBFS_BUS_RESET_ISR_EntryCallback();
 726:.\Generated_Source\PSoC4/USBFS_episr.c **** #endif /* (USBFS_BUS_RESET_ISR_ENTRY_CALLBACK) */
 727:.\Generated_Source\PSoC4/USBFS_episr.c **** 
 728:.\Generated_Source\PSoC4/USBFS_episr.c ****     /* `#START BUS_RESET_USER_CODE` Place your code here */
 729:.\Generated_Source\PSoC4/USBFS_episr.c **** 
 730:.\Generated_Source\PSoC4/USBFS_episr.c ****     /* `#END` */
 731:.\Generated_Source\PSoC4/USBFS_episr.c **** 
 732:.\Generated_Source\PSoC4/USBFS_episr.c ****     USBFS_ClearSieInterruptSource(USBFS_INTR_SIE_BUS_RESET_INTR);
 733:.\Generated_Source\PSoC4/USBFS_episr.c **** 
 734:.\Generated_Source\PSoC4/USBFS_episr.c ****     USBFS_ReInitComponent();
 735:.\Generated_Source\PSoC4/USBFS_episr.c **** 
 736:.\Generated_Source\PSoC4/USBFS_episr.c **** #ifdef USBFS_BUS_RESET_ISR_EXIT_CALLBACK
 737:.\Generated_Source\PSoC4/USBFS_episr.c ****     USBFS_BUS_RESET_ISR_ExitCallback();
 738:.\Generated_Source\PSoC4/USBFS_episr.c **** #endif /* (USBFS_BUS_RESET_ISR_EXIT_CALLBACK) */
 739:.\Generated_Source\PSoC4/USBFS_episr.c **** }
 740:.\Generated_Source\PSoC4/USBFS_episr.c **** #endif /* (USBFS_BUS_RESET_ISR_ACTIVE) */
 741:.\Generated_Source\PSoC4/USBFS_episr.c **** 
 742:.\Generated_Source\PSoC4/USBFS_episr.c **** 
 743:.\Generated_Source\PSoC4/USBFS_episr.c **** #if (USBFS_LPM_ACTIVE)
 744:.\Generated_Source\PSoC4/USBFS_episr.c **** /***************************************************************************
 745:.\Generated_Source\PSoC4/USBFS_episr.c **** * Function Name: USBFS_INTR_LPM_ISR
 746:.\Generated_Source\PSoC4/USBFS_episr.c **** ************************************************************************//**
 747:.\Generated_Source\PSoC4/USBFS_episr.c **** *
 748:.\Generated_Source\PSoC4/USBFS_episr.c **** *   Interrupt Service Routine for LPM of the interrupt sources.
 749:.\Generated_Source\PSoC4/USBFS_episr.c **** *
 750:.\Generated_Source\PSoC4/USBFS_episr.c **** *
 751:.\Generated_Source\PSoC4/USBFS_episr.c **** ***************************************************************************/
 752:.\Generated_Source\PSoC4/USBFS_episr.c **** CY_ISR(USBFS_LPM_ISR)
 753:.\Generated_Source\PSoC4/USBFS_episr.c **** {
 754:.\Generated_Source\PSoC4/USBFS_episr.c **** #ifdef USBFS_LPM_ISR_ENTRY_CALLBACK
 755:.\Generated_Source\PSoC4/USBFS_episr.c ****     USBFS_LPM_ISR_EntryCallback();
 756:.\Generated_Source\PSoC4/USBFS_episr.c **** #endif /* (USBFS_LPM_ISR_ENTRY_CALLBACK) */
 757:.\Generated_Source\PSoC4/USBFS_episr.c **** 
 758:.\Generated_Source\PSoC4/USBFS_episr.c ****     /* `#START LPM_BEGIN_USER_CODE` Place your code here */
 759:.\Generated_Source\PSoC4/USBFS_episr.c **** 
 760:.\Generated_Source\PSoC4/USBFS_episr.c ****     /* `#END` */
 761:.\Generated_Source\PSoC4/USBFS_episr.c **** 
 762:.\Generated_Source\PSoC4/USBFS_episr.c ****     USBFS_ClearSieInterruptSource(USBFS_INTR_SIE_LPM_INTR);
 763:.\Generated_Source\PSoC4/USBFS_episr.c **** 
 764:.\Generated_Source\PSoC4/USBFS_episr.c ****     /* `#START LPM_END_USER_CODE` Place your code here */
 765:.\Generated_Source\PSoC4/USBFS_episr.c **** 
 766:.\Generated_Source\PSoC4/USBFS_episr.c ****     /* `#END` */
 767:.\Generated_Source\PSoC4/USBFS_episr.c **** 
ARM GAS  C:\Users\Terence\AppData\Local\Temp\cc65qyTh.s 			page 17


 768:.\Generated_Source\PSoC4/USBFS_episr.c **** #ifdef USBFS_LPM_ISR_EXIT_CALLBACK
 769:.\Generated_Source\PSoC4/USBFS_episr.c ****     USBFS_LPM_ISR_ExitCallback();
 770:.\Generated_Source\PSoC4/USBFS_episr.c **** #endif /* (USBFS_LPM_ISR_EXIT_CALLBACK) */
 771:.\Generated_Source\PSoC4/USBFS_episr.c **** }
 772:.\Generated_Source\PSoC4/USBFS_episr.c **** #endif /* (USBFS_LPM_ACTIVE) */
 773:.\Generated_Source\PSoC4/USBFS_episr.c **** 
 774:.\Generated_Source\PSoC4/USBFS_episr.c **** 
 775:.\Generated_Source\PSoC4/USBFS_episr.c **** #if (USBFS_EP_MANAGEMENT_DMA && USBFS_ARB_ISR_ACTIVE)
 776:.\Generated_Source\PSoC4/USBFS_episr.c ****     /***************************************************************************
 777:.\Generated_Source\PSoC4/USBFS_episr.c ****     * Function Name: USBFS_ARB_ISR
 778:.\Generated_Source\PSoC4/USBFS_episr.c ****     ************************************************************************//**
 779:.\Generated_Source\PSoC4/USBFS_episr.c ****     *
 780:.\Generated_Source\PSoC4/USBFS_episr.c ****     *  Arbiter Interrupt Service Routine.
 781:.\Generated_Source\PSoC4/USBFS_episr.c ****     *
 782:.\Generated_Source\PSoC4/USBFS_episr.c ****     *
 783:.\Generated_Source\PSoC4/USBFS_episr.c ****     ***************************************************************************/
 784:.\Generated_Source\PSoC4/USBFS_episr.c ****     CY_ISR(USBFS_ARB_ISR)
 785:.\Generated_Source\PSoC4/USBFS_episr.c ****     {
 146              		.loc 1 785 0
 147              		.cfi_startproc
 148 0000 F0B5     		push	{r4, r5, r6, r7, lr}
 149              		.cfi_def_cfa_offset 20
 150              		.cfi_offset 4, -20
 151              		.cfi_offset 5, -16
 152              		.cfi_offset 6, -12
 153              		.cfi_offset 7, -8
 154              		.cfi_offset 14, -4
 155              	.LVL0:
 786:.\Generated_Source\PSoC4/USBFS_episr.c ****         uint32 arbIntrStatus;
 787:.\Generated_Source\PSoC4/USBFS_episr.c ****         uint32 epStatus;
 788:.\Generated_Source\PSoC4/USBFS_episr.c ****         uint32 ep = USBFS_EP1;
 789:.\Generated_Source\PSoC4/USBFS_episr.c **** 
 790:.\Generated_Source\PSoC4/USBFS_episr.c ****     #ifdef USBFS_ARB_ISR_ENTRY_CALLBACK
 791:.\Generated_Source\PSoC4/USBFS_episr.c ****         USBFS_ARB_ISR_EntryCallback();
 792:.\Generated_Source\PSoC4/USBFS_episr.c ****     #endif /* (USBFS_ARB_ISR_ENTRY_CALLBACK) */
 793:.\Generated_Source\PSoC4/USBFS_episr.c **** 
 794:.\Generated_Source\PSoC4/USBFS_episr.c ****         /* `#START ARB_BEGIN_USER_CODE` Place your code here */
 795:.\Generated_Source\PSoC4/USBFS_episr.c **** 
 796:.\Generated_Source\PSoC4/USBFS_episr.c ****         /* `#END` */
 797:.\Generated_Source\PSoC4/USBFS_episr.c **** 
 798:.\Generated_Source\PSoC4/USBFS_episr.c ****         /* Get pending ARB interrupt sources. */
 799:.\Generated_Source\PSoC4/USBFS_episr.c ****         arbIntrStatus = USBFS_ARB_INT_SR_REG;
 156              		.loc 1 799 0
 157 0002 4E4B     		ldr	r3, .L21
 158 0004 1A68     		ldr	r2, [r3]
 159              	.LVL1:
 788:.\Generated_Source\PSoC4/USBFS_episr.c **** 
 160              		.loc 1 788 0
 161 0006 0123     		mov	r3, #1
 800:.\Generated_Source\PSoC4/USBFS_episr.c **** 
 801:.\Generated_Source\PSoC4/USBFS_episr.c ****         while (0u != arbIntrStatus)
 162              		.loc 1 801 0
 163 0008 93E0     		b	.L12
 164              	.LVL2:
 165              	.L19:
 802:.\Generated_Source\PSoC4/USBFS_episr.c ****         {
 803:.\Generated_Source\PSoC4/USBFS_episr.c ****             /* Check which EP is interrupt source. */
ARM GAS  C:\Users\Terence\AppData\Local\Temp\cc65qyTh.s 			page 18


 804:.\Generated_Source\PSoC4/USBFS_episr.c ****             if (0u != (arbIntrStatus & 0x01u))
 166              		.loc 1 804 0
 167 000a D107     		lsl	r1, r2, #31
 168 000c 00D4     		bmi	.LCB141
 169 000e 8EE0     		b	.L13	@long jump
 170              	.LCB141:
 805:.\Generated_Source\PSoC4/USBFS_episr.c ****             {
 806:.\Generated_Source\PSoC4/USBFS_episr.c ****                 /* Get endpoint enable interrupt sources. */
 807:.\Generated_Source\PSoC4/USBFS_episr.c ****                 epStatus = (USBFS_ARB_EP_BASE.arbEp[ep].epSr & USBFS_ARB_EP_BASE.arbEp[ep].epIntEn)
 171              		.loc 1 807 0
 172 0010 9801     		lsl	r0, r3, #6
 173 0012 4B49     		ldr	r1, .L21+4
 174 0014 8C46     		mov	ip, r1
 175 0016 6044     		add	r0, r0, ip
 176 0018 8168     		ldr	r1, [r0, #8]
 177 001a 4068     		ldr	r0, [r0, #4]
 178 001c 0140     		and	r1, r0
 179              	.LVL3:
 808:.\Generated_Source\PSoC4/USBFS_episr.c **** 
 809:.\Generated_Source\PSoC4/USBFS_episr.c ****                 /* Handle IN endpoint buffer full event: happens only once when endpoint buffer is 
 810:.\Generated_Source\PSoC4/USBFS_episr.c ****                 if (0u != (epStatus & USBFS_ARB_EPX_INT_IN_BUF_FULL))
 180              		.loc 1 810 0
 181 001e C807     		lsl	r0, r1, #31
 182 0020 19D5     		bpl	.L14
 811:.\Generated_Source\PSoC4/USBFS_episr.c ****                 {
 812:.\Generated_Source\PSoC4/USBFS_episr.c ****                     if (0u != (USBFS_EP[ep].addr & USBFS_DIR_IN))
 183              		.loc 1 812 0
 184 0022 5800     		lsl	r0, r3, #1
 185 0024 C018     		add	r0, r0, r3
 186 0026 8000     		lsl	r0, r0, #2
 187 0028 464C     		ldr	r4, .L21+8
 188 002a 2018     		add	r0, r4, r0
 189 002c 0079     		ldrb	r0, [r0, #4]
 190 002e 40B2     		sxtb	r0, r0
 191 0030 0028     		cmp	r0, #0
 192 0032 10DA     		bge	.L14
 813:.\Generated_Source\PSoC4/USBFS_episr.c ****                     {
 814:.\Generated_Source\PSoC4/USBFS_episr.c ****                         /* Clear data ready status. */
 815:.\Generated_Source\PSoC4/USBFS_episr.c ****                         USBFS_ARB_EP_BASE.arbEp[ep].epCfg &= (uint32) ~USBFS_ARB_EPX_CFG_IN_DATA_RD
 193              		.loc 1 815 0
 194 0034 6546     		mov	r5, ip
 195 0036 9C01     		lsl	r4, r3, #6
 196 0038 6059     		ldr	r0, [r4, r5]
 197 003a 0126     		mov	r6, #1
 198 003c B043     		bic	r0, r6
 199 003e 6051     		str	r0, [r4, r5]
 816:.\Generated_Source\PSoC4/USBFS_episr.c **** 
 817:.\Generated_Source\PSoC4/USBFS_episr.c ****                     #if (CY_PSOC3 || CY_PSOC5LP)
 818:.\Generated_Source\PSoC4/USBFS_episr.c ****                         #if (USBFS_EP_MANAGEMENT_DMA_AUTO && (USBFS_EP_DMA_AUTO_OPT == 0u))
 819:.\Generated_Source\PSoC4/USBFS_episr.c ****                             /* Set up common area DMA with rest of data. */
 820:.\Generated_Source\PSoC4/USBFS_episr.c ****                             if(USBFS_inLength[ep] > USBFS_DMA_BYTES_PER_BURST)
 821:.\Generated_Source\PSoC4/USBFS_episr.c ****                             {
 822:.\Generated_Source\PSoC4/USBFS_episr.c ****                                 USBFS_LoadNextInEP(ep, 0u);
 823:.\Generated_Source\PSoC4/USBFS_episr.c ****                             }
 824:.\Generated_Source\PSoC4/USBFS_episr.c ****                             else
 825:.\Generated_Source\PSoC4/USBFS_episr.c ****                             {
 826:.\Generated_Source\PSoC4/USBFS_episr.c ****                                 USBFS_inBufFull[ep] = 1u;
ARM GAS  C:\Users\Terence\AppData\Local\Temp\cc65qyTh.s 			page 19


 827:.\Generated_Source\PSoC4/USBFS_episr.c ****                             }
 828:.\Generated_Source\PSoC4/USBFS_episr.c ****                         #endif /* (USBFS_EP_MANAGEMENT_DMA_AUTO && (USBFS_EP_DMA_AUTO_OPT == 0u)) *
 829:.\Generated_Source\PSoC4/USBFS_episr.c ****                     #endif /* (CY_PSOC3 || CY_PSOC5LP) */
 830:.\Generated_Source\PSoC4/USBFS_episr.c **** 
 831:.\Generated_Source\PSoC4/USBFS_episr.c ****                         /* Arm IN endpoint. */
 832:.\Generated_Source\PSoC4/USBFS_episr.c ****                         USBFS_SIE_EP_BASE.sieEp[ep].epCr0 = USBFS_EP[ep].epMode;
 200              		.loc 1 832 0
 201 0040 5800     		lsl	r0, r3, #1
 202 0042 C018     		add	r0, r0, r3
 203 0044 8000     		lsl	r0, r0, #2
 204 0046 3F4D     		ldr	r5, .L21+8
 205 0048 2818     		add	r0, r5, r0
 206 004a 4079     		ldrb	r0, [r0, #5]
 207 004c C0B2     		uxtb	r0, r0
 208 004e 3E4D     		ldr	r5, .L21+12
 209 0050 AC46     		mov	ip, r5
 210 0052 6444     		add	r4, r4, ip
 211 0054 A060     		str	r0, [r4, #8]
 212              	.L14:
 833:.\Generated_Source\PSoC4/USBFS_episr.c **** 
 834:.\Generated_Source\PSoC4/USBFS_episr.c ****                     #if (defined(USBFS_ENABLE_MIDI_STREAMING) && USBFS_ISR_SERVICE_MIDI_IN)
 835:.\Generated_Source\PSoC4/USBFS_episr.c ****                         if (ep == USBFS_midi_in_ep)
 836:.\Generated_Source\PSoC4/USBFS_episr.c ****                         {
 837:.\Generated_Source\PSoC4/USBFS_episr.c ****                             /* Clear MIDI input pointer. */
 838:.\Generated_Source\PSoC4/USBFS_episr.c ****                             USBFS_midiInPointer = 0u;
 839:.\Generated_Source\PSoC4/USBFS_episr.c ****                         }
 840:.\Generated_Source\PSoC4/USBFS_episr.c ****                     #endif /* (USBFS_ENABLE_MIDI_STREAMING) */
 841:.\Generated_Source\PSoC4/USBFS_episr.c ****                     }
 842:.\Generated_Source\PSoC4/USBFS_episr.c ****                 }
 843:.\Generated_Source\PSoC4/USBFS_episr.c **** 
 844:.\Generated_Source\PSoC4/USBFS_episr.c ****             #if (USBFS_EP_MANAGEMENT_DMA_MANUAL)
 845:.\Generated_Source\PSoC4/USBFS_episr.c ****                 /* Handle DMA completion event for OUT endpoints. */
 846:.\Generated_Source\PSoC4/USBFS_episr.c ****                 if (0u != (epStatus & USBFS_ARB_EPX_SR_DMA_GNT))
 847:.\Generated_Source\PSoC4/USBFS_episr.c ****                 {
 848:.\Generated_Source\PSoC4/USBFS_episr.c ****                     if (0u == (USBFS_EP[ep].addr & USBFS_DIR_IN))
 849:.\Generated_Source\PSoC4/USBFS_episr.c ****                     {
 850:.\Generated_Source\PSoC4/USBFS_episr.c ****                         /* Notify user that data has been copied from endpoint buffer. */
 851:.\Generated_Source\PSoC4/USBFS_episr.c ****                         USBFS_EP[ep].apiEpState = USBFS_NO_EVENT_PENDING;
 852:.\Generated_Source\PSoC4/USBFS_episr.c **** 
 853:.\Generated_Source\PSoC4/USBFS_episr.c ****                         /* DMA done coping data: OUT endpoint has to be re-armed by user. */
 854:.\Generated_Source\PSoC4/USBFS_episr.c ****                     }
 855:.\Generated_Source\PSoC4/USBFS_episr.c ****                 }
 856:.\Generated_Source\PSoC4/USBFS_episr.c ****             #endif /* (USBFS_EP_MANAGEMENT_DMA_MANUAL) */
 857:.\Generated_Source\PSoC4/USBFS_episr.c **** 
 858:.\Generated_Source\PSoC4/USBFS_episr.c ****             #if (CY_PSOC4 && USBFS_EP_MANAGEMENT_DMA_AUTO)
 859:.\Generated_Source\PSoC4/USBFS_episr.c ****                 /* Handle DMA completion event for OUT endpoints. */
 860:.\Generated_Source\PSoC4/USBFS_episr.c ****                 if (0u != (epStatus & USBFS_ARB_EPX_INT_DMA_TERMIN))
 213              		.loc 1 860 0
 214 0056 8806     		lsl	r0, r1, #26
 215 0058 64D5     		bpl	.L15
 216              	.LBB2:
 861:.\Generated_Source\PSoC4/USBFS_episr.c ****                 {
 862:.\Generated_Source\PSoC4/USBFS_episr.c ****                     uint32 channelNum = USBFS_DmaChan[ep];
 217              		.loc 1 862 0
 218 005a 3C48     		ldr	r0, .L21+16
 219 005c C05C     		ldrb	r0, [r0, r3]
 220              	.LVL4:
ARM GAS  C:\Users\Terence\AppData\Local\Temp\cc65qyTh.s 			page 20


 863:.\Generated_Source\PSoC4/USBFS_episr.c **** 
 864:.\Generated_Source\PSoC4/USBFS_episr.c ****                     /* Restore burst counter for endpoint. */
 865:.\Generated_Source\PSoC4/USBFS_episr.c ****                     USBFS_DmaEpBurstCnt[ep] = USBFS_DmaEpBurstCntBackup[ep];
 221              		.loc 1 865 0
 222 005e 3C4C     		ldr	r4, .L21+20
 223 0060 E55C     		ldrb	r5, [r4, r3]
 224 0062 3C4C     		ldr	r4, .L21+24
 225 0064 E554     		strb	r5, [r4, r3]
 866:.\Generated_Source\PSoC4/USBFS_episr.c **** 
 867:.\Generated_Source\PSoC4/USBFS_episr.c ****                     /* Disable DMA channel to restore descriptor configuration. The on-going transf
 868:.\Generated_Source\PSoC4/USBFS_episr.c ****                     USBFS_CyDmaChDisable(channelNum);
 226              		.loc 1 868 0
 227 0066 3C4D     		ldr	r5, .L21+28
 228 0068 8600     		lsl	r6, r0, #2
 229 006a 7459     		ldr	r4, [r6, r5]
 230 006c 6400     		lsl	r4, r4, #1
 231 006e 6408     		lsr	r4, r4, #1
 232 0070 7451     		str	r4, [r6, r5]
 869:.\Generated_Source\PSoC4/USBFS_episr.c **** 
 870:.\Generated_Source\PSoC4/USBFS_episr.c ****                     /* Generate DMA tr_out signal to notify USB IP that DMA is done. This signal is
 871:.\Generated_Source\PSoC4/USBFS_episr.c ****                     * when transfer was aborted (it occurs when host writes less bytes than buffer 
 872:.\Generated_Source\PSoC4/USBFS_episr.c ****                     */
 873:.\Generated_Source\PSoC4/USBFS_episr.c ****                     USBFS_CyDmaTriggerOut(USBFS_DmaBurstEndOut[ep]);
 233              		.loc 1 873 0
 234 0072 3A4C     		ldr	r4, .L21+32
 235 0074 E45C     		ldrb	r4, [r4, r3]
 236 0076 3A4D     		ldr	r5, .L21+36
 237 0078 2C43     		orr	r4, r5
 238 007a 3A4D     		ldr	r5, .L21+40
 239 007c 2C60     		str	r4, [r5]
 874:.\Generated_Source\PSoC4/USBFS_episr.c **** 
 875:.\Generated_Source\PSoC4/USBFS_episr.c ****                     /* Restore destination address for output endpoint. */
 876:.\Generated_Source\PSoC4/USBFS_episr.c ****                     USBFS_CyDmaSetDstAddress(channelNum, USBFS_DMA_DESCR0, (void*) ((uint32) USBFS_
 240              		.loc 1 876 0
 241 007e 3A4D     		ldr	r5, .L21+44
 242 0080 9E00     		lsl	r6, r3, #2
 243 0082 4401     		lsl	r4, r0, #5
 244 0084 394F     		ldr	r7, .L21+48
 245 0086 BC46     		mov	ip, r7
 246 0088 6444     		add	r4, r4, ip
 247 008a 7759     		ldr	r7, [r6, r5]
 248 008c 6760     		str	r7, [r4, #4]
 877:.\Generated_Source\PSoC4/USBFS_episr.c ****                     USBFS_CyDmaSetDstAddress(channelNum, USBFS_DMA_DESCR1, (void*) ((uint32) USBFS_
 249              		.loc 1 877 0
 250 008e 7559     		ldr	r5, [r6, r5]
 251 0090 2035     		add	r5, r5, #32
 252 0092 6561     		str	r5, [r4, #20]
 878:.\Generated_Source\PSoC4/USBFS_episr.c ****                                                                                                    
 879:.\Generated_Source\PSoC4/USBFS_episr.c **** 
 880:.\Generated_Source\PSoC4/USBFS_episr.c ****                     /* Restore number of data elements to transfer which was adjusted for last burs
 881:.\Generated_Source\PSoC4/USBFS_episr.c ****                     if (0u != (USBFS_DmaEpLastBurstEl[ep] & USBFS_DMA_DESCR_REVERT))
 253              		.loc 1 881 0
 254 0094 364C     		ldr	r4, .L21+52
 255 0096 E65C     		ldrb	r6, [r4, r3]
 256 0098 7406     		lsl	r4, r6, #25
 257 009a 14D5     		bpl	.L16
 882:.\Generated_Source\PSoC4/USBFS_episr.c ****                     {
ARM GAS  C:\Users\Terence\AppData\Local\Temp\cc65qyTh.s 			page 21


 883:.\Generated_Source\PSoC4/USBFS_episr.c ****                         USBFS_CyDmaSetNumDataElements(channelNum, (USBFS_DmaEpLastBurstEl[ep] >> US
 258              		.loc 1 883 0
 259 009c F409     		lsr	r4, r6, #7
 260 009e 4500     		lsl	r5, r0, #1
 261 00a0 2D19     		add	r5, r5, r4
 262 00a2 2D01     		lsl	r5, r5, #4
 263 00a4 6544     		add	r5, r5, ip
 264 00a6 AD68     		ldr	r5, [r5, #8]
 265 00a8 2D0C     		lsr	r5, r5, #16
 266 00aa 2D04     		lsl	r5, r5, #16
 267 00ac B606     		lsl	r6, r6, #26
 268 00ae 01D5     		bpl	.L20
 269 00b0 0F26     		mov	r6, #15
 270 00b2 00E0     		b	.L17
 271              	.L20:
 272 00b4 1F26     		mov	r6, #31
 273              	.L17:
 274              		.loc 1 883 0 is_stmt 0 discriminator 4
 275 00b6 3543     		orr	r5, r6
 276 00b8 4600     		lsl	r6, r0, #1
 277 00ba 3419     		add	r4, r6, r4
 278 00bc 2401     		lsl	r4, r4, #4
 279 00be 2B4E     		ldr	r6, .L21+48
 280 00c0 B446     		mov	ip, r6
 281 00c2 6444     		add	r4, r4, ip
 282 00c4 A560     		str	r5, [r4, #8]
 283              	.L16:
 884:.\Generated_Source\PSoC4/USBFS_episr.c ****                                                                              USBFS_DMA_GET_MAX_ELEM
 885:.\Generated_Source\PSoC4/USBFS_episr.c ****                     }
 886:.\Generated_Source\PSoC4/USBFS_episr.c **** 
 887:.\Generated_Source\PSoC4/USBFS_episr.c ****                     /* Validate descriptor 0 and 1 (also reset current state). Command to start wit
 888:.\Generated_Source\PSoC4/USBFS_episr.c ****                     USBFS_CyDmaValidateDescriptor(channelNum, USBFS_DMA_DESCR0);
 284              		.loc 1 888 0 is_stmt 1
 285 00c6 4401     		lsl	r4, r0, #5
 286 00c8 284D     		ldr	r5, .L21+48
 287 00ca AC46     		mov	ip, r5
 288 00cc 6444     		add	r4, r4, ip
 289 00ce 8026     		mov	r6, #128
 290 00d0 3606     		lsl	r6, r6, #24
 291 00d2 E660     		str	r6, [r4, #12]
 889:.\Generated_Source\PSoC4/USBFS_episr.c ****                     USBFS_CyDmaValidateDescriptor(channelNum, USBFS_DMA_DESCR1);
 292              		.loc 1 889 0
 293 00d4 E661     		str	r6, [r4, #28]
 890:.\Generated_Source\PSoC4/USBFS_episr.c ****                     USBFS_CyDmaSetDescriptor0Next(channelNum);
 294              		.loc 1 890 0
 295 00d6 204C     		ldr	r4, .L21+28
 296 00d8 8000     		lsl	r0, r0, #2
 297              	.LVL5:
 298 00da 0759     		ldr	r7, [r0, r4]
 299 00dc 254D     		ldr	r5, .L21+56
 300 00de 3D40     		and	r5, r7
 301 00e0 0551     		str	r5, [r0, r4]
 891:.\Generated_Source\PSoC4/USBFS_episr.c **** 
 892:.\Generated_Source\PSoC4/USBFS_episr.c ****                     /* Enable DMA channel: configuration complete. */
 893:.\Generated_Source\PSoC4/USBFS_episr.c ****                     USBFS_CyDmaChEnable(channelNum);
 302              		.loc 1 893 0
 303 00e2 0559     		ldr	r5, [r0, r4]
ARM GAS  C:\Users\Terence\AppData\Local\Temp\cc65qyTh.s 			page 22


 304 00e4 3543     		orr	r5, r6
 305 00e6 0551     		str	r5, [r0, r4]
 894:.\Generated_Source\PSoC4/USBFS_episr.c ****                     
 895:.\Generated_Source\PSoC4/USBFS_episr.c ****                     
 896:.\Generated_Source\PSoC4/USBFS_episr.c ****                     /* Read CR0 register to clear SIE lock. */
 897:.\Generated_Source\PSoC4/USBFS_episr.c ****                     (void) USBFS_SIE_EP_BASE.sieEp[ep].epCr0;
 306              		.loc 1 897 0
 307 00e8 9801     		lsl	r0, r3, #6
 308 00ea 174C     		ldr	r4, .L21+12
 309 00ec A446     		mov	ip, r4
 310 00ee 6044     		add	r0, r0, ip
 311 00f0 8068     		ldr	r0, [r0, #8]
 898:.\Generated_Source\PSoC4/USBFS_episr.c ****                     
 899:.\Generated_Source\PSoC4/USBFS_episr.c ****                     /* Toggle all endpoint types except ISOC. */
 900:.\Generated_Source\PSoC4/USBFS_episr.c ****                     if (USBFS_GET_EP_TYPE(ep) != USBFS_EP_TYPE_ISOC)
 312              		.loc 1 900 0
 313 00f2 5800     		lsl	r0, r3, #1
 314 00f4 C018     		add	r0, r0, r3
 315 00f6 8000     		lsl	r0, r0, #2
 316 00f8 124C     		ldr	r4, .L21+8
 317 00fa 045D     		ldrb	r4, [r0, r4]
 318 00fc 0320     		mov	r0, #3
 319 00fe 2040     		and	r0, r4
 320 0100 0128     		cmp	r0, #1
 321 0102 08D0     		beq	.L18
 901:.\Generated_Source\PSoC4/USBFS_episr.c ****                     {
 902:.\Generated_Source\PSoC4/USBFS_episr.c ****                         USBFS_EP[ep].epToggle ^= USBFS_EPX_CNT_DATA_TOGGLE;
 322              		.loc 1 902 0
 323 0104 5800     		lsl	r0, r3, #1
 324 0106 C018     		add	r0, r0, r3
 325 0108 8000     		lsl	r0, r0, #2
 326 010a 0E4C     		ldr	r4, .L21+8
 327 010c 2018     		add	r0, r4, r0
 328 010e C578     		ldrb	r5, [r0, #3]
 329 0110 8024     		mov	r4, #128
 330 0112 6C40     		eor	r4, r5
 331 0114 C470     		strb	r4, [r0, #3]
 332              	.L18:
 903:.\Generated_Source\PSoC4/USBFS_episr.c ****                     }
 904:.\Generated_Source\PSoC4/USBFS_episr.c ****             
 905:.\Generated_Source\PSoC4/USBFS_episr.c ****                     /* Notify user that data has been copied from endpoint buffer. */
 906:.\Generated_Source\PSoC4/USBFS_episr.c ****                     USBFS_EP[ep].apiEpState = USBFS_EVENT_PENDING;
 333              		.loc 1 906 0
 334 0116 5800     		lsl	r0, r3, #1
 335 0118 C018     		add	r0, r0, r3
 336 011a 8000     		lsl	r0, r0, #2
 337 011c 094C     		ldr	r4, .L21+8
 338 011e 2018     		add	r0, r4, r0
 339 0120 0124     		mov	r4, #1
 340 0122 4470     		strb	r4, [r0, #1]
 341              	.LVL6:
 342              	.L15:
 343              	.LBE2:
 907:.\Generated_Source\PSoC4/USBFS_episr.c ****                     
 908:.\Generated_Source\PSoC4/USBFS_episr.c ****                 #if (defined(USBFS_ENABLE_MIDI_STREAMING) && \
 909:.\Generated_Source\PSoC4/USBFS_episr.c ****                     !defined(USBFS_MAIN_SERVICE_MIDI_OUT) && USBFS_ISR_SERVICE_MIDI_OUT)
 910:.\Generated_Source\PSoC4/USBFS_episr.c ****                     if (USBFS_midi_out_ep == ep)
ARM GAS  C:\Users\Terence\AppData\Local\Temp\cc65qyTh.s 			page 23


 911:.\Generated_Source\PSoC4/USBFS_episr.c ****                     {
 912:.\Generated_Source\PSoC4/USBFS_episr.c ****                         USBFS_MIDI_OUT_Service();
 913:.\Generated_Source\PSoC4/USBFS_episr.c ****                     }
 914:.\Generated_Source\PSoC4/USBFS_episr.c ****                 #endif /* (USBFS_ISR_SERVICE_MIDI_OUT) */
 915:.\Generated_Source\PSoC4/USBFS_episr.c ****                 }
 916:.\Generated_Source\PSoC4/USBFS_episr.c ****             #endif /* (CY_PSOC4 && USBFS_EP_MANAGEMENT_DMA_AUTO) */
 917:.\Generated_Source\PSoC4/USBFS_episr.c **** 
 918:.\Generated_Source\PSoC4/USBFS_episr.c **** 
 919:.\Generated_Source\PSoC4/USBFS_episr.c ****                 /* `#START ARB_USER_CODE` Place your code here for handle Buffer Underflow/Overflow
 920:.\Generated_Source\PSoC4/USBFS_episr.c **** 
 921:.\Generated_Source\PSoC4/USBFS_episr.c ****                 /* `#END` */
 922:.\Generated_Source\PSoC4/USBFS_episr.c **** 
 923:.\Generated_Source\PSoC4/USBFS_episr.c ****             #ifdef USBFS_ARB_ISR_CALLBACK
 924:.\Generated_Source\PSoC4/USBFS_episr.c ****                 USBFS_ARB_ISR_Callback(ep, epStatus);
 925:.\Generated_Source\PSoC4/USBFS_episr.c ****             #endif /* (USBFS_ARB_ISR_CALLBACK) */
 926:.\Generated_Source\PSoC4/USBFS_episr.c **** 
 927:.\Generated_Source\PSoC4/USBFS_episr.c ****                 /* Clear serviced endpoint interrupt sources. */
 928:.\Generated_Source\PSoC4/USBFS_episr.c ****                 USBFS_ARB_EP_BASE.arbEp[ep].epSr = epStatus;
 344              		.loc 1 928 0
 345 0124 9801     		lsl	r0, r3, #6
 346 0126 064C     		ldr	r4, .L21+4
 347 0128 A446     		mov	ip, r4
 348 012a 6044     		add	r0, r0, ip
 349 012c 8160     		str	r1, [r0, #8]
 350              	.LVL7:
 351              	.L13:
 929:.\Generated_Source\PSoC4/USBFS_episr.c ****             }
 930:.\Generated_Source\PSoC4/USBFS_episr.c **** 
 931:.\Generated_Source\PSoC4/USBFS_episr.c ****             ++ep;
 352              		.loc 1 931 0
 353 012e 0133     		add	r3, r3, #1
 354              	.LVL8:
 932:.\Generated_Source\PSoC4/USBFS_episr.c ****             arbIntrStatus >>= 1u;
 355              		.loc 1 932 0
 356 0130 5208     		lsr	r2, r2, #1
 357              	.LVL9:
 358              	.L12:
 801:.\Generated_Source\PSoC4/USBFS_episr.c ****         {
 359              		.loc 1 801 0
 360 0132 002A     		cmp	r2, #0
 361 0134 00D0     		beq	.LCB349
 362 0136 68E7     		b	.L19	@long jump
 363              	.LCB349:
 933:.\Generated_Source\PSoC4/USBFS_episr.c ****         }
 934:.\Generated_Source\PSoC4/USBFS_episr.c **** 
 935:.\Generated_Source\PSoC4/USBFS_episr.c ****         /* `#START ARB_END_USER_CODE` Place your code here */
 936:.\Generated_Source\PSoC4/USBFS_episr.c **** 
 937:.\Generated_Source\PSoC4/USBFS_episr.c ****         /* `#END` */
 938:.\Generated_Source\PSoC4/USBFS_episr.c **** 
 939:.\Generated_Source\PSoC4/USBFS_episr.c ****     #ifdef USBFS_ARB_ISR_EXIT_CALLBACK
 940:.\Generated_Source\PSoC4/USBFS_episr.c ****         USBFS_ARB_ISR_ExitCallback();
 941:.\Generated_Source\PSoC4/USBFS_episr.c ****     #endif /* (USBFS_ARB_ISR_EXIT_CALLBACK) */
 942:.\Generated_Source\PSoC4/USBFS_episr.c ****     }
 364              		.loc 1 942 0
 365              		@ sp needed
 366 0138 F0BD     		pop	{r4, r5, r6, r7, pc}
 367              	.L22:
ARM GAS  C:\Users\Terence\AppData\Local\Temp\cc65qyTh.s 			page 24


 368 013a C046     		.align	2
 369              	.L21:
 370 013c 7C022C40 		.word	1076626044
 371 0140 C0012C40 		.word	1076625856
 372 0144 00000000 		.word	USBFS_EP
 373 0148 F0FF2B40 		.word	1076625392
 374 014c 00000000 		.word	USBFS_DmaChan
 375 0150 00000000 		.word	USBFS_DmaEpBurstCntBackup
 376 0154 00000000 		.word	USBFS_DmaEpBurstCnt
 377 0158 80101040 		.word	1074794624
 378 015c 00000000 		.word	USBFS_DmaBurstEndOut
 379 0160 000302C0 		.word	-1073609984
 380 0164 00060140 		.word	1073808896
 381 0168 00000000 		.word	USBFS_DmaEpBufferAddrBackup
 382 016c 00181040 		.word	1074796544
 383 0170 00000000 		.word	USBFS_DmaEpLastBurstEl
 384 0174 FFFFFFBF 		.word	-1073741825
 385              		.cfi_endproc
 386              	.LFE169:
 387              		.size	USBFS_ARB_ISR, .-USBFS_ARB_ISR
 388              		.section	.text.USBFS_EP_1_ISR,"ax",%progbits
 389              		.align	2
 390              		.global	USBFS_EP_1_ISR
 391              		.code	16
 392              		.thumb_func
 393              		.type	USBFS_EP_1_ISR, %function
 394              	USBFS_EP_1_ISR:
 395              	.LFB162:
  38:.\Generated_Source\PSoC4/USBFS_episr.c **** 
 396              		.loc 1 38 0
 397              		.cfi_startproc
 398 0000 08B5     		push	{r3, lr}
 399              		.cfi_def_cfa_offset 8
 400              		.cfi_offset 3, -8
 401              		.cfi_offset 14, -4
  41:.\Generated_Source\PSoC4/USBFS_episr.c ****     #endif /* (USBFS_EP_1_ISR_ENTRY_CALLBACK) */
 402              		.loc 1 41 0
 403 0002 FFF7FEFF 		bl	ProcessAudioOut
 404              	.LVL10:
  55:.\Generated_Source\PSoC4/USBFS_episr.c ****             
 405              		.loc 1 55 0
 406 0006 0122     		mov	r2, #1
 407 0008 0B4B     		ldr	r3, .L26
 408 000a 1A60     		str	r2, [r3]
  62:.\Generated_Source\PSoC4/USBFS_episr.c ****     #endif /* (CY_PSOC4 && USBFS_EP_MANAGEMENT_DMA_AUTO) */
 409              		.loc 1 62 0
 410 000c 0B4B     		ldr	r3, .L26+4
 411 000e 1B7C     		ldrb	r3, [r3, #16]
 412 0010 5BB2     		sxtb	r3, r3
 413 0012 002B     		cmp	r3, #0
 414 0014 0FDA     		bge	.L23
  66:.\Generated_Source\PSoC4/USBFS_episr.c ****             
 415              		.loc 1 66 0
 416 0016 0A4B     		ldr	r3, .L26+8
 417 0018 9B6C     		ldr	r3, [r3, #72]
  69:.\Generated_Source\PSoC4/USBFS_episr.c ****             {
 418              		.loc 1 69 0
ARM GAS  C:\Users\Terence\AppData\Local\Temp\cc65qyTh.s 			page 25


 419 001a 084B     		ldr	r3, .L26+4
 420 001c 1A7B     		ldrb	r2, [r3, #12]
 421 001e 0323     		mov	r3, #3
 422 0020 1340     		and	r3, r2
 423 0022 012B     		cmp	r3, #1
 424 0024 04D0     		beq	.L25
  71:.\Generated_Source\PSoC4/USBFS_episr.c ****             }
 425              		.loc 1 71 0
 426 0026 054A     		ldr	r2, .L26+4
 427 0028 D17B     		ldrb	r1, [r2, #15]
 428 002a 8023     		mov	r3, #128
 429 002c 4B40     		eor	r3, r1
 430 002e D373     		strb	r3, [r2, #15]
 431              	.L25:
  80:.\Generated_Source\PSoC4/USBFS_episr.c ****         }
 432              		.loc 1 80 0
 433 0030 0122     		mov	r2, #1
 434 0032 024B     		ldr	r3, .L26+4
 435 0034 5A73     		strb	r2, [r3, #13]
 436              	.L23:
 107:.\Generated_Source\PSoC4/USBFS_episr.c **** 
 437              		.loc 1 107 0
 438              		@ sp needed
 439 0036 08BD     		pop	{r3, pc}
 440              	.L27:
 441              		.align	2
 442              	.L26:
 443 0038 2C002C40 		.word	1076625452
 444 003c 00000000 		.word	USBFS_EP
 445 0040 F0FF2B40 		.word	1076625392
 446              		.cfi_endproc
 447              	.LFE162:
 448              		.size	USBFS_EP_1_ISR, .-USBFS_EP_1_ISR
 449              		.section	.text.USBFS_EP_2_ISR,"ax",%progbits
 450              		.align	2
 451              		.global	USBFS_EP_2_ISR
 452              		.code	16
 453              		.thumb_func
 454              		.type	USBFS_EP_2_ISR, %function
 455              	USBFS_EP_2_ISR:
 456              	.LFB163:
 121:.\Generated_Source\PSoC4/USBFS_episr.c ****     #ifdef USBFS_EP_2_ISR_ENTRY_CALLBACK
 457              		.loc 1 121 0
 458              		.cfi_startproc
 459 0000 08B5     		push	{r3, lr}
 460              		.cfi_def_cfa_offset 8
 461              		.cfi_offset 3, -8
 462              		.cfi_offset 14, -4
 123:.\Generated_Source\PSoC4/USBFS_episr.c ****     #endif /* (USBFS_EP_2_ISR_ENTRY_CALLBACK) */
 463              		.loc 1 123 0
 464 0002 FFF7FEFF 		bl	ProcessAudioIn
 465              	.LVL11:
 137:.\Generated_Source\PSoC4/USBFS_episr.c **** 
 466              		.loc 1 137 0
 467 0006 0222     		mov	r2, #2
 468 0008 0C4B     		ldr	r3, .L31
 469 000a 1A60     		str	r2, [r3]
ARM GAS  C:\Users\Terence\AppData\Local\Temp\cc65qyTh.s 			page 26


 144:.\Generated_Source\PSoC4/USBFS_episr.c ****     #endif /* (CY_PSOC4 && USBFS_EP_MANAGEMENT_DMA_AUTO) */
 470              		.loc 1 144 0
 471 000c 0C4B     		ldr	r3, .L31+4
 472 000e 1B7F     		ldrb	r3, [r3, #28]
 473 0010 5BB2     		sxtb	r3, r3
 474 0012 002B     		cmp	r3, #0
 475 0014 10DA     		bge	.L28
 148:.\Generated_Source\PSoC4/USBFS_episr.c ****             
 476              		.loc 1 148 0
 477 0016 8823     		mov	r3, #136
 478 0018 0A4A     		ldr	r2, .L31+8
 479 001a D358     		ldr	r3, [r2, r3]
 151:.\Generated_Source\PSoC4/USBFS_episr.c ****             {
 480              		.loc 1 151 0
 481 001c 084B     		ldr	r3, .L31+4
 482 001e 1A7E     		ldrb	r2, [r3, #24]
 483 0020 0323     		mov	r3, #3
 484 0022 1340     		and	r3, r2
 485 0024 012B     		cmp	r3, #1
 486 0026 04D0     		beq	.L30
 153:.\Generated_Source\PSoC4/USBFS_episr.c ****             }
 487              		.loc 1 153 0
 488 0028 054A     		ldr	r2, .L31+4
 489 002a D17E     		ldrb	r1, [r2, #27]
 490 002c 8023     		mov	r3, #128
 491 002e 4B40     		eor	r3, r1
 492 0030 D376     		strb	r3, [r2, #27]
 493              	.L30:
 162:.\Generated_Source\PSoC4/USBFS_episr.c ****         }
 494              		.loc 1 162 0
 495 0032 0122     		mov	r2, #1
 496 0034 024B     		ldr	r3, .L31+4
 497 0036 5A76     		strb	r2, [r3, #25]
 498              	.L28:
 189:.\Generated_Source\PSoC4/USBFS_episr.c **** #endif /* (USBFS_EP2_ISR_ACTIVE) */
 499              		.loc 1 189 0
 500              		@ sp needed
 501 0038 08BD     		pop	{r3, pc}
 502              	.L32:
 503 003a C046     		.align	2
 504              	.L31:
 505 003c 2C002C40 		.word	1076625452
 506 0040 00000000 		.word	USBFS_EP
 507 0044 F0FF2B40 		.word	1076625392
 508              		.cfi_endproc
 509              	.LFE163:
 510              		.size	USBFS_EP_2_ISR, .-USBFS_EP_2_ISR
 511              		.section	.text.USBFS_EP_3_ISR,"ax",%progbits
 512              		.align	2
 513              		.global	USBFS_EP_3_ISR
 514              		.code	16
 515              		.thumb_func
 516              		.type	USBFS_EP_3_ISR, %function
 517              	USBFS_EP_3_ISR:
 518              	.LFB164:
 202:.\Generated_Source\PSoC4/USBFS_episr.c ****     #ifdef USBFS_EP_3_ISR_ENTRY_CALLBACK
 519              		.loc 1 202 0
ARM GAS  C:\Users\Terence\AppData\Local\Temp\cc65qyTh.s 			page 27


 520              		.cfi_startproc
 521 0000 08B5     		push	{r3, lr}
 522              		.cfi_def_cfa_offset 8
 523              		.cfi_offset 3, -8
 524              		.cfi_offset 14, -4
 204:.\Generated_Source\PSoC4/USBFS_episr.c ****     #endif /* (USBFS_EP_3_ISR_ENTRY_CALLBACK) */
 525              		.loc 1 204 0
 526 0002 0120     		mov	r0, #1
 527 0004 FFF7FEFF 		bl	processAsyncFeedbackTransfer
 528              	.LVL12:
 218:.\Generated_Source\PSoC4/USBFS_episr.c **** 
 529              		.loc 1 218 0
 530 0008 0422     		mov	r2, #4
 531 000a 0E4B     		ldr	r3, .L36
 532 000c 1A60     		str	r2, [r3]
 225:.\Generated_Source\PSoC4/USBFS_episr.c ****     #endif /* (USBFS_EP_MANAGEMENT_DMA_AUTO) */
 533              		.loc 1 225 0
 534 000e 2823     		mov	r3, #40
 535 0010 0D4A     		ldr	r2, .L36+4
 536 0012 D35C     		ldrb	r3, [r2, r3]
 537 0014 5BB2     		sxtb	r3, r3
 538 0016 002B     		cmp	r3, #0
 539 0018 13DA     		bge	.L33
 229:.\Generated_Source\PSoC4/USBFS_episr.c **** 
 540              		.loc 1 229 0
 541 001a C823     		mov	r3, #200
 542 001c 0B4A     		ldr	r2, .L36+8
 543 001e D358     		ldr	r3, [r2, r3]
 232:.\Generated_Source\PSoC4/USBFS_episr.c ****             {
 544              		.loc 1 232 0
 545 0020 2423     		mov	r3, #36
 546 0022 094A     		ldr	r2, .L36+4
 547 0024 D25C     		ldrb	r2, [r2, r3]
 548 0026 213B     		sub	r3, r3, #33
 549 0028 1340     		and	r3, r2
 550 002a 012B     		cmp	r3, #1
 551 002c 05D0     		beq	.L35
 234:.\Generated_Source\PSoC4/USBFS_episr.c ****             }
 552              		.loc 1 234 0
 553 002e 0649     		ldr	r1, .L36+4
 554 0030 2722     		mov	r2, #39
 555 0032 885C     		ldrb	r0, [r1, r2]
 556 0034 8023     		mov	r3, #128
 557 0036 4340     		eor	r3, r0
 558 0038 8B54     		strb	r3, [r1, r2]
 559              	.L35:
 243:.\Generated_Source\PSoC4/USBFS_episr.c ****         }
 560              		.loc 1 243 0
 561 003a 0121     		mov	r1, #1
 562 003c 2523     		mov	r3, #37
 563 003e 024A     		ldr	r2, .L36+4
 564 0040 D154     		strb	r1, [r2, r3]
 565              	.L33:
 270:.\Generated_Source\PSoC4/USBFS_episr.c **** #endif /* (USBFS_EP3_ISR_ACTIVE) */
 566              		.loc 1 270 0
 567              		@ sp needed
 568 0042 08BD     		pop	{r3, pc}
ARM GAS  C:\Users\Terence\AppData\Local\Temp\cc65qyTh.s 			page 28


 569              	.L37:
 570              		.align	2
 571              	.L36:
 572 0044 2C002C40 		.word	1076625452
 573 0048 00000000 		.word	USBFS_EP
 574 004c F0FF2B40 		.word	1076625392
 575              		.cfi_endproc
 576              	.LFE164:
 577              		.size	USBFS_EP_3_ISR, .-USBFS_EP_3_ISR
 578              		.section	.text.USBFS_SOF_ISR,"ax",%progbits
 579              		.align	2
 580              		.global	USBFS_SOF_ISR
 581              		.code	16
 582              		.thumb_func
 583              		.type	USBFS_SOF_ISR, %function
 584              	USBFS_SOF_ISR:
 585              	.LFB167:
 694:.\Generated_Source\PSoC4/USBFS_episr.c ****     #ifdef USBFS_SOF_ISR_ENTRY_CALLBACK
 586              		.loc 1 694 0
 587              		.cfi_startproc
 588 0000 08B5     		push	{r3, lr}
 589              		.cfi_def_cfa_offset 8
 590              		.cfi_offset 3, -8
 591              		.cfi_offset 14, -4
 696:.\Generated_Source\PSoC4/USBFS_episr.c ****     #endif /* (USBFS_SOF_ISR_ENTRY_CALLBACK) */
 592              		.loc 1 696 0
 593 0002 FFF7FEFF 		bl	UpdateFeedbackCount
 594              	.LVL13:
 703:.\Generated_Source\PSoC4/USBFS_episr.c **** 
 595              		.loc 1 703 0
 596 0006 0122     		mov	r2, #1
 597 0008 014B     		ldr	r3, .L39
 598 000a 1A60     		str	r2, [r3]
 708:.\Generated_Source\PSoC4/USBFS_episr.c **** #endif /* (USBFS_SOF_ISR_ACTIVE) */
 599              		.loc 1 708 0
 600              		@ sp needed
 601 000c 08BD     		pop	{r3, pc}
 602              	.L40:
 603 000e C046     		.align	2
 604              	.L39:
 605 0010 20202C40 		.word	1076633632
 606              		.cfi_endproc
 607              	.LFE167:
 608              		.size	USBFS_SOF_ISR, .-USBFS_SOF_ISR
 609              		.section	.text.USBFS_BUS_RESET_ISR,"ax",%progbits
 610              		.align	2
 611              		.global	USBFS_BUS_RESET_ISR
 612              		.code	16
 613              		.thumb_func
 614              		.type	USBFS_BUS_RESET_ISR, %function
 615              	USBFS_BUS_RESET_ISR:
 616              	.LFB168:
 723:.\Generated_Source\PSoC4/USBFS_episr.c **** #ifdef USBFS_BUS_RESET_ISR_ENTRY_CALLBACK
 617              		.loc 1 723 0
 618              		.cfi_startproc
 619 0000 08B5     		push	{r3, lr}
 620              		.cfi_def_cfa_offset 8
ARM GAS  C:\Users\Terence\AppData\Local\Temp\cc65qyTh.s 			page 29


 621              		.cfi_offset 3, -8
 622              		.cfi_offset 14, -4
 732:.\Generated_Source\PSoC4/USBFS_episr.c **** 
 623              		.loc 1 732 0
 624 0002 0222     		mov	r2, #2
 625 0004 024B     		ldr	r3, .L42
 626 0006 1A60     		str	r2, [r3]
 734:.\Generated_Source\PSoC4/USBFS_episr.c **** 
 627              		.loc 1 734 0
 628 0008 FFF7FEFF 		bl	USBFS_ReInitComponent
 629              	.LVL14:
 739:.\Generated_Source\PSoC4/USBFS_episr.c **** #endif /* (USBFS_BUS_RESET_ISR_ACTIVE) */
 630              		.loc 1 739 0
 631              		@ sp needed
 632 000c 08BD     		pop	{r3, pc}
 633              	.L43:
 634 000e C046     		.align	2
 635              	.L42:
 636 0010 20202C40 		.word	1076633632
 637              		.cfi_endproc
 638              	.LFE168:
 639              		.size	USBFS_BUS_RESET_ISR, .-USBFS_BUS_RESET_ISR
 640              		.section	.text.USBFS_EP1_DMA_DONE_ISR,"ax",%progbits
 641              		.align	2
 642              		.global	USBFS_EP1_DMA_DONE_ISR
 643              		.code	16
 644              		.thumb_func
 645              		.type	USBFS_EP1_DMA_DONE_ISR, %function
 646              	USBFS_EP1_DMA_DONE_ISR:
 647              	.LFB170:
 943:.\Generated_Source\PSoC4/USBFS_episr.c **** 
 944:.\Generated_Source\PSoC4/USBFS_episr.c **** #endif /*  (USBFS_ARB_ISR_ACTIVE && USBFS_EP_MANAGEMENT_DMA) */
 945:.\Generated_Source\PSoC4/USBFS_episr.c **** 
 946:.\Generated_Source\PSoC4/USBFS_episr.c **** 
 947:.\Generated_Source\PSoC4/USBFS_episr.c **** #if (USBFS_EP_MANAGEMENT_DMA_AUTO)
 948:.\Generated_Source\PSoC4/USBFS_episr.c **** #if (CY_PSOC4)
 949:.\Generated_Source\PSoC4/USBFS_episr.c ****     #if (USBFS_DMA1_ACTIVE)
 950:.\Generated_Source\PSoC4/USBFS_episr.c ****         /******************************************************************************
 951:.\Generated_Source\PSoC4/USBFS_episr.c ****         * Function Name: USBFS_EP1_DMA_DONE_ISR
 952:.\Generated_Source\PSoC4/USBFS_episr.c ****         ***************************************************************************//**
 953:.\Generated_Source\PSoC4/USBFS_episr.c ****         *
 954:.\Generated_Source\PSoC4/USBFS_episr.c ****         *  Endpoint 1 DMA Done Interrupt Service Routine.
 955:.\Generated_Source\PSoC4/USBFS_episr.c ****         *
 956:.\Generated_Source\PSoC4/USBFS_episr.c ****         *
 957:.\Generated_Source\PSoC4/USBFS_episr.c ****         ******************************************************************************/
 958:.\Generated_Source\PSoC4/USBFS_episr.c ****         void USBFS_EP1_DMA_DONE_ISR(void)
 959:.\Generated_Source\PSoC4/USBFS_episr.c ****         {
 648              		.loc 1 959 0
 649              		.cfi_startproc
 960:.\Generated_Source\PSoC4/USBFS_episr.c ****             uint32 nextAddr;
 961:.\Generated_Source\PSoC4/USBFS_episr.c **** 
 962:.\Generated_Source\PSoC4/USBFS_episr.c ****             /* Manage data elements which remain to transfer. */
 963:.\Generated_Source\PSoC4/USBFS_episr.c ****             if (0u != USBFS_DmaEpBurstCnt[USBFS_EP1])
 650              		.loc 1 963 0
 651 0000 214B     		ldr	r3, .L49
 652 0002 5B78     		ldrb	r3, [r3, #1]
 653 0004 002B     		cmp	r3, #0
ARM GAS  C:\Users\Terence\AppData\Local\Temp\cc65qyTh.s 			page 30


 654 0006 03D0     		beq	.L45
 964:.\Generated_Source\PSoC4/USBFS_episr.c ****             {
 965:.\Generated_Source\PSoC4/USBFS_episr.c ****                 /* Decrement burst counter. */
 966:.\Generated_Source\PSoC4/USBFS_episr.c ****                 --USBFS_DmaEpBurstCnt[USBFS_EP1];
 655              		.loc 1 966 0
 656 0008 013B     		sub	r3, r3, #1
 657 000a 1F4A     		ldr	r2, .L49
 658 000c 5370     		strb	r3, [r2, #1]
 659 000e 0FE0     		b	.L46
 660              	.L45:
 967:.\Generated_Source\PSoC4/USBFS_episr.c ****             }
 968:.\Generated_Source\PSoC4/USBFS_episr.c ****             else
 969:.\Generated_Source\PSoC4/USBFS_episr.c ****             {
 970:.\Generated_Source\PSoC4/USBFS_episr.c ****                 /* Adjust length of last burst. */
 971:.\Generated_Source\PSoC4/USBFS_episr.c ****                 USBFS_CyDmaSetNumDataElements(USBFS_EP1_DMA_CH,
 661              		.loc 1 971 0
 662 0010 1E4B     		ldr	r3, .L49+4
 663 0012 5A78     		ldrb	r2, [r3, #1]
 664 0014 D309     		lsr	r3, r2, #7
 665 0016 1B01     		lsl	r3, r3, #4
 666 0018 1D49     		ldr	r1, .L49+8
 667 001a 8C46     		mov	ip, r1
 668 001c 6344     		add	r3, r3, ip
 669 001e 0933     		add	r3, r3, #9
 670 0020 FF33     		add	r3, r3, #255
 671 0022 1968     		ldr	r1, [r3]
 672 0024 090C     		lsr	r1, r1, #16
 673 0026 0904     		lsl	r1, r1, #16
 674 0028 1F20     		mov	r0, #31
 675 002a 0240     		and	r2, r0
 676 002c 0A43     		orr	r2, r1
 677 002e 1A60     		str	r2, [r3]
 678              	.L46:
 972:.\Generated_Source\PSoC4/USBFS_episr.c ****                                                         ((uint32) USBFS_DmaEpLastBurstEl[USBFS_EP1]
 973:.\Generated_Source\PSoC4/USBFS_episr.c ****                                                         ((uint32) USBFS_DmaEpLastBurstEl[USBFS_EP1]
 974:.\Generated_Source\PSoC4/USBFS_episr.c ****             }
 975:.\Generated_Source\PSoC4/USBFS_episr.c **** 
 976:.\Generated_Source\PSoC4/USBFS_episr.c ****             /* Advance source for input endpoint or destination for output endpoint. */
 977:.\Generated_Source\PSoC4/USBFS_episr.c ****             if (0u != (USBFS_EP[USBFS_EP1].addr & USBFS_DIR_IN))
 679              		.loc 1 977 0
 680 0030 184B     		ldr	r3, .L49+12
 681 0032 1B7C     		ldrb	r3, [r3, #16]
 682 0034 5BB2     		sxtb	r3, r3
 683 0036 002B     		cmp	r3, #0
 684 0038 0ADA     		bge	.L47
 978:.\Generated_Source\PSoC4/USBFS_episr.c ****             {
 979:.\Generated_Source\PSoC4/USBFS_episr.c ****                 /* Change source for descriptor 0. */
 980:.\Generated_Source\PSoC4/USBFS_episr.c ****                 nextAddr = (uint32) USBFS_CyDmaGetSrcAddress(USBFS_EP1_DMA_CH, USBFS_DMA_DESCR0);
 685              		.loc 1 980 0
 686 003a 154A     		ldr	r2, .L49+8
 687 003c 8021     		mov	r1, #128
 688 003e 4900     		lsl	r1, r1, #1
 689 0040 5358     		ldr	r3, [r2, r1]
 690              	.LVL15:
 981:.\Generated_Source\PSoC4/USBFS_episr.c ****                 nextAddr += (2u * USBFS_DMA_BYTES_PER_BURST);
 691              		.loc 1 981 0
 692 0042 181C     		mov	r0, r3
ARM GAS  C:\Users\Terence\AppData\Local\Temp\cc65qyTh.s 			page 31


 693 0044 4030     		add	r0, r0, #64
 694              	.LVL16:
 982:.\Generated_Source\PSoC4/USBFS_episr.c ****                 USBFS_CyDmaSetSrcAddress(USBFS_EP1_DMA_CH, USBFS_DMA_DESCR0, (void *) nextAddr);
 695              		.loc 1 982 0
 696 0046 5050     		str	r0, [r2, r1]
 983:.\Generated_Source\PSoC4/USBFS_episr.c **** 
 984:.\Generated_Source\PSoC4/USBFS_episr.c ****                 /* Change source for descriptor 1. */
 985:.\Generated_Source\PSoC4/USBFS_episr.c ****                 nextAddr += USBFS_DMA_BYTES_PER_BURST;
 697              		.loc 1 985 0
 698 0048 6033     		add	r3, r3, #96
 699              	.LVL17:
 986:.\Generated_Source\PSoC4/USBFS_episr.c ****                 USBFS_CyDmaSetSrcAddress(USBFS_EP1_DMA_CH, USBFS_DMA_DESCR1, (void *) nextAddr);
 700              		.loc 1 986 0
 701 004a 1031     		add	r1, r1, #16
 702 004c 5350     		str	r3, [r2, r1]
 703 004e 09E0     		b	.L48
 704              	.LVL18:
 705              	.L47:
 987:.\Generated_Source\PSoC4/USBFS_episr.c ****             }
 988:.\Generated_Source\PSoC4/USBFS_episr.c ****             else
 989:.\Generated_Source\PSoC4/USBFS_episr.c ****             {
 990:.\Generated_Source\PSoC4/USBFS_episr.c ****                 /* Change destination for descriptor 0. */
 991:.\Generated_Source\PSoC4/USBFS_episr.c ****                 nextAddr  = (uint32) USBFS_CyDmaGetDstAddress(USBFS_EP1_DMA_CH, USBFS_DMA_DESCR0);
 706              		.loc 1 991 0
 707 0050 0F4A     		ldr	r2, .L49+8
 708 0052 8221     		mov	r1, #130
 709 0054 4900     		lsl	r1, r1, #1
 710 0056 5358     		ldr	r3, [r2, r1]
 711              	.LVL19:
 992:.\Generated_Source\PSoC4/USBFS_episr.c ****                 nextAddr += (2u * USBFS_DMA_BYTES_PER_BURST);
 712              		.loc 1 992 0
 713 0058 181C     		mov	r0, r3
 714 005a 4030     		add	r0, r0, #64
 715              	.LVL20:
 993:.\Generated_Source\PSoC4/USBFS_episr.c ****                 USBFS_CyDmaSetDstAddress(USBFS_EP1_DMA_CH, USBFS_DMA_DESCR0, (void *) nextAddr);
 716              		.loc 1 993 0
 717 005c 5050     		str	r0, [r2, r1]
 994:.\Generated_Source\PSoC4/USBFS_episr.c **** 
 995:.\Generated_Source\PSoC4/USBFS_episr.c ****                 /* Change destination for descriptor 1. */
 996:.\Generated_Source\PSoC4/USBFS_episr.c ****                 nextAddr += USBFS_DMA_BYTES_PER_BURST;
 718              		.loc 1 996 0
 719 005e 6033     		add	r3, r3, #96
 720              	.LVL21:
 997:.\Generated_Source\PSoC4/USBFS_episr.c ****                 USBFS_CyDmaSetDstAddress(USBFS_EP1_DMA_CH, USBFS_DMA_DESCR1, (void *) nextAddr);
 721              		.loc 1 997 0
 722 0060 1031     		add	r1, r1, #16
 723 0062 5350     		str	r3, [r2, r1]
 724              	.L48:
 998:.\Generated_Source\PSoC4/USBFS_episr.c ****             }
 999:.\Generated_Source\PSoC4/USBFS_episr.c **** 
1000:.\Generated_Source\PSoC4/USBFS_episr.c ****             /* Enable DMA to execute transfer as it was disabled because there were no valid descri
1001:.\Generated_Source\PSoC4/USBFS_episr.c ****             USBFS_CyDmaValidateDescriptor(USBFS_EP1_DMA_CH, USBFS_DMA_DESCR0);
 725              		.loc 1 1001 0
 726 0064 8021     		mov	r1, #128
 727 0066 0906     		lsl	r1, r1, #24
 728 0068 8623     		mov	r3, #134
 729              	.LVL22:
ARM GAS  C:\Users\Terence\AppData\Local\Temp\cc65qyTh.s 			page 32


 730 006a 5B00     		lsl	r3, r3, #1
 731 006c 084A     		ldr	r2, .L49+8
 732 006e D150     		str	r1, [r2, r3]
1002:.\Generated_Source\PSoC4/USBFS_episr.c ****             USBFS_CyDmaChEnable (USBFS_EP1_DMA_CH);
 733              		.loc 1 1002 0
 734 0070 094A     		ldr	r2, .L49+16
 735 0072 136A     		ldr	r3, [r2, #32]
 736 0074 0B43     		orr	r3, r1
 737 0076 1362     		str	r3, [r2, #32]
1003:.\Generated_Source\PSoC4/USBFS_episr.c ****             USBFS_CyDmaTriggerIn(USBFS_DmaReqOut[USBFS_EP1]);
 738              		.loc 1 1003 0
 739 0078 084B     		ldr	r3, .L49+20
 740 007a 5B78     		ldrb	r3, [r3, #1]
 741 007c 084A     		ldr	r2, .L49+24
 742 007e 1343     		orr	r3, r2
 743 0080 084A     		ldr	r2, .L49+28
 744 0082 1360     		str	r3, [r2]
1004:.\Generated_Source\PSoC4/USBFS_episr.c ****         }
 745              		.loc 1 1004 0
 746              		@ sp needed
 747 0084 7047     		bx	lr
 748              	.L50:
 749 0086 C046     		.align	2
 750              	.L49:
 751 0088 00000000 		.word	USBFS_DmaEpBurstCnt
 752 008c 00000000 		.word	USBFS_DmaEpLastBurstEl
 753 0090 00181040 		.word	1074796544
 754 0094 00000000 		.word	USBFS_EP
 755 0098 80101040 		.word	1074794624
 756 009c 00000000 		.word	USBFS_DmaReqOut
 757 00a0 000102C0 		.word	-1073610496
 758 00a4 00060140 		.word	1073808896
 759              		.cfi_endproc
 760              	.LFE170:
 761              		.size	USBFS_EP1_DMA_DONE_ISR, .-USBFS_EP1_DMA_DONE_ISR
 762              		.section	.text.USBFS_EP2_DMA_DONE_ISR,"ax",%progbits
 763              		.align	2
 764              		.global	USBFS_EP2_DMA_DONE_ISR
 765              		.code	16
 766              		.thumb_func
 767              		.type	USBFS_EP2_DMA_DONE_ISR, %function
 768              	USBFS_EP2_DMA_DONE_ISR:
 769              	.LFB171:
1005:.\Generated_Source\PSoC4/USBFS_episr.c ****     #endif /* (USBFS_DMA1_ACTIVE) */
1006:.\Generated_Source\PSoC4/USBFS_episr.c **** 
1007:.\Generated_Source\PSoC4/USBFS_episr.c **** 
1008:.\Generated_Source\PSoC4/USBFS_episr.c ****     #if (USBFS_DMA2_ACTIVE)
1009:.\Generated_Source\PSoC4/USBFS_episr.c ****         /******************************************************************************
1010:.\Generated_Source\PSoC4/USBFS_episr.c ****         * Function Name: USBFS_EP2_DMA_DONE_ISR
1011:.\Generated_Source\PSoC4/USBFS_episr.c ****         ***************************************************************************//**
1012:.\Generated_Source\PSoC4/USBFS_episr.c ****         *
1013:.\Generated_Source\PSoC4/USBFS_episr.c ****         *  Endpoint 2 DMA Done Interrupt Service Routine.
1014:.\Generated_Source\PSoC4/USBFS_episr.c ****         *
1015:.\Generated_Source\PSoC4/USBFS_episr.c ****         *
1016:.\Generated_Source\PSoC4/USBFS_episr.c ****         ******************************************************************************/
1017:.\Generated_Source\PSoC4/USBFS_episr.c ****         void USBFS_EP2_DMA_DONE_ISR(void)
1018:.\Generated_Source\PSoC4/USBFS_episr.c ****         {
ARM GAS  C:\Users\Terence\AppData\Local\Temp\cc65qyTh.s 			page 33


 770              		.loc 1 1018 0
 771              		.cfi_startproc
1019:.\Generated_Source\PSoC4/USBFS_episr.c ****             uint32 nextAddr;
1020:.\Generated_Source\PSoC4/USBFS_episr.c **** 
1021:.\Generated_Source\PSoC4/USBFS_episr.c ****             /* Manage data elements which remain to transfer. */
1022:.\Generated_Source\PSoC4/USBFS_episr.c ****             if (0u != USBFS_DmaEpBurstCnt[USBFS_EP2])
 772              		.loc 1 1022 0
 773 0000 214B     		ldr	r3, .L56
 774 0002 9B78     		ldrb	r3, [r3, #2]
 775 0004 002B     		cmp	r3, #0
 776 0006 03D0     		beq	.L52
1023:.\Generated_Source\PSoC4/USBFS_episr.c ****             {
1024:.\Generated_Source\PSoC4/USBFS_episr.c ****                 /* Decrement burst counter. */
1025:.\Generated_Source\PSoC4/USBFS_episr.c ****                 --USBFS_DmaEpBurstCnt[USBFS_EP2];
 777              		.loc 1 1025 0
 778 0008 013B     		sub	r3, r3, #1
 779 000a 1F4A     		ldr	r2, .L56
 780 000c 9370     		strb	r3, [r2, #2]
 781 000e 0FE0     		b	.L53
 782              	.L52:
1026:.\Generated_Source\PSoC4/USBFS_episr.c ****             }
1027:.\Generated_Source\PSoC4/USBFS_episr.c ****             else
1028:.\Generated_Source\PSoC4/USBFS_episr.c ****             {
1029:.\Generated_Source\PSoC4/USBFS_episr.c ****                 /* Adjust length of last burst. */
1030:.\Generated_Source\PSoC4/USBFS_episr.c ****                 USBFS_CyDmaSetNumDataElements(USBFS_EP2_DMA_CH,
 783              		.loc 1 1030 0
 784 0010 1E4B     		ldr	r3, .L56+4
 785 0012 9A78     		ldrb	r2, [r3, #2]
 786 0014 D309     		lsr	r3, r2, #7
 787 0016 1B01     		lsl	r3, r3, #4
 788 0018 1D49     		ldr	r1, .L56+8
 789 001a 8C46     		mov	ip, r1
 790 001c 6344     		add	r3, r3, ip
 791 001e 2933     		add	r3, r3, #41
 792 0020 FF33     		add	r3, r3, #255
 793 0022 1968     		ldr	r1, [r3]
 794 0024 090C     		lsr	r1, r1, #16
 795 0026 0904     		lsl	r1, r1, #16
 796 0028 1F20     		mov	r0, #31
 797 002a 0240     		and	r2, r0
 798 002c 0A43     		orr	r2, r1
 799 002e 1A60     		str	r2, [r3]
 800              	.L53:
1031:.\Generated_Source\PSoC4/USBFS_episr.c ****                                                         ((uint32) USBFS_DmaEpLastBurstEl[USBFS_EP2]
1032:.\Generated_Source\PSoC4/USBFS_episr.c ****                                                         ((uint32) USBFS_DmaEpLastBurstEl[USBFS_EP2]
1033:.\Generated_Source\PSoC4/USBFS_episr.c ****             }
1034:.\Generated_Source\PSoC4/USBFS_episr.c **** 
1035:.\Generated_Source\PSoC4/USBFS_episr.c ****             /* Advance source for input endpoint or destination for output endpoint. */
1036:.\Generated_Source\PSoC4/USBFS_episr.c ****             if (0u != (USBFS_EP[USBFS_EP2].addr & USBFS_DIR_IN))
 801              		.loc 1 1036 0
 802 0030 184B     		ldr	r3, .L56+12
 803 0032 1B7F     		ldrb	r3, [r3, #28]
 804 0034 5BB2     		sxtb	r3, r3
 805 0036 002B     		cmp	r3, #0
 806 0038 0ADA     		bge	.L54
1037:.\Generated_Source\PSoC4/USBFS_episr.c ****             {
1038:.\Generated_Source\PSoC4/USBFS_episr.c ****                 /* Change source for descriptor 0. */
ARM GAS  C:\Users\Terence\AppData\Local\Temp\cc65qyTh.s 			page 34


1039:.\Generated_Source\PSoC4/USBFS_episr.c ****                 nextAddr = (uint32) USBFS_CyDmaGetSrcAddress(USBFS_EP2_DMA_CH, USBFS_DMA_DESCR0);
 807              		.loc 1 1039 0
 808 003a 154A     		ldr	r2, .L56+8
 809 003c 9021     		mov	r1, #144
 810 003e 4900     		lsl	r1, r1, #1
 811 0040 5358     		ldr	r3, [r2, r1]
 812              	.LVL23:
1040:.\Generated_Source\PSoC4/USBFS_episr.c ****                 nextAddr += (2u * USBFS_DMA_BYTES_PER_BURST);
 813              		.loc 1 1040 0
 814 0042 181C     		mov	r0, r3
 815 0044 4030     		add	r0, r0, #64
 816              	.LVL24:
1041:.\Generated_Source\PSoC4/USBFS_episr.c ****                 USBFS_CyDmaSetSrcAddress(USBFS_EP2_DMA_CH, USBFS_DMA_DESCR0, (void *) nextAddr);
 817              		.loc 1 1041 0
 818 0046 5050     		str	r0, [r2, r1]
1042:.\Generated_Source\PSoC4/USBFS_episr.c **** 
1043:.\Generated_Source\PSoC4/USBFS_episr.c ****                 /* Change source for descriptor 1. */
1044:.\Generated_Source\PSoC4/USBFS_episr.c ****                 nextAddr += USBFS_DMA_BYTES_PER_BURST;
 819              		.loc 1 1044 0
 820 0048 6033     		add	r3, r3, #96
 821              	.LVL25:
1045:.\Generated_Source\PSoC4/USBFS_episr.c ****                 USBFS_CyDmaSetSrcAddress(USBFS_EP2_DMA_CH, USBFS_DMA_DESCR1, (void *) nextAddr);
 822              		.loc 1 1045 0
 823 004a 1031     		add	r1, r1, #16
 824 004c 5350     		str	r3, [r2, r1]
 825 004e 09E0     		b	.L55
 826              	.LVL26:
 827              	.L54:
1046:.\Generated_Source\PSoC4/USBFS_episr.c ****             }
1047:.\Generated_Source\PSoC4/USBFS_episr.c ****             else
1048:.\Generated_Source\PSoC4/USBFS_episr.c ****             {
1049:.\Generated_Source\PSoC4/USBFS_episr.c ****                 /* Change destination for descriptor 0. */
1050:.\Generated_Source\PSoC4/USBFS_episr.c ****                 nextAddr  = (uint32) USBFS_CyDmaGetDstAddress(USBFS_EP2_DMA_CH, USBFS_DMA_DESCR0);
 828              		.loc 1 1050 0
 829 0050 0F4A     		ldr	r2, .L56+8
 830 0052 9221     		mov	r1, #146
 831 0054 4900     		lsl	r1, r1, #1
 832 0056 5358     		ldr	r3, [r2, r1]
 833              	.LVL27:
1051:.\Generated_Source\PSoC4/USBFS_episr.c ****                 nextAddr += (2u * USBFS_DMA_BYTES_PER_BURST);
 834              		.loc 1 1051 0
 835 0058 181C     		mov	r0, r3
 836 005a 4030     		add	r0, r0, #64
 837              	.LVL28:
1052:.\Generated_Source\PSoC4/USBFS_episr.c ****                 USBFS_CyDmaSetDstAddress(USBFS_EP2_DMA_CH, USBFS_DMA_DESCR0, (void *) nextAddr);
 838              		.loc 1 1052 0
 839 005c 5050     		str	r0, [r2, r1]
1053:.\Generated_Source\PSoC4/USBFS_episr.c **** 
1054:.\Generated_Source\PSoC4/USBFS_episr.c ****                 /* Change destination for descriptor 1. */
1055:.\Generated_Source\PSoC4/USBFS_episr.c ****                 nextAddr += USBFS_DMA_BYTES_PER_BURST;
 840              		.loc 1 1055 0
 841 005e 6033     		add	r3, r3, #96
 842              	.LVL29:
1056:.\Generated_Source\PSoC4/USBFS_episr.c ****                 USBFS_CyDmaSetDstAddress(USBFS_EP2_DMA_CH, USBFS_DMA_DESCR1, (void *) nextAddr);
 843              		.loc 1 1056 0
 844 0060 1031     		add	r1, r1, #16
 845 0062 5350     		str	r3, [r2, r1]
ARM GAS  C:\Users\Terence\AppData\Local\Temp\cc65qyTh.s 			page 35


 846              	.L55:
1057:.\Generated_Source\PSoC4/USBFS_episr.c ****             }
1058:.\Generated_Source\PSoC4/USBFS_episr.c **** 
1059:.\Generated_Source\PSoC4/USBFS_episr.c ****             /* Enable DMA to execute transfer as it was disabled because there were no valid descri
1060:.\Generated_Source\PSoC4/USBFS_episr.c ****             USBFS_CyDmaValidateDescriptor(USBFS_EP2_DMA_CH, USBFS_DMA_DESCR0);
 847              		.loc 1 1060 0
 848 0064 8021     		mov	r1, #128
 849 0066 0906     		lsl	r1, r1, #24
 850 0068 9623     		mov	r3, #150
 851              	.LVL30:
 852 006a 5B00     		lsl	r3, r3, #1
 853 006c 084A     		ldr	r2, .L56+8
 854 006e D150     		str	r1, [r2, r3]
1061:.\Generated_Source\PSoC4/USBFS_episr.c ****             USBFS_CyDmaChEnable (USBFS_EP2_DMA_CH);
 855              		.loc 1 1061 0
 856 0070 094A     		ldr	r2, .L56+16
 857 0072 536A     		ldr	r3, [r2, #36]
 858 0074 0B43     		orr	r3, r1
 859 0076 5362     		str	r3, [r2, #36]
1062:.\Generated_Source\PSoC4/USBFS_episr.c ****             USBFS_CyDmaTriggerIn(USBFS_DmaReqOut[USBFS_EP2]);
 860              		.loc 1 1062 0
 861 0078 084B     		ldr	r3, .L56+20
 862 007a 9B78     		ldrb	r3, [r3, #2]
 863 007c 084A     		ldr	r2, .L56+24
 864 007e 1343     		orr	r3, r2
 865 0080 084A     		ldr	r2, .L56+28
 866 0082 1360     		str	r3, [r2]
1063:.\Generated_Source\PSoC4/USBFS_episr.c ****         }
 867              		.loc 1 1063 0
 868              		@ sp needed
 869 0084 7047     		bx	lr
 870              	.L57:
 871 0086 C046     		.align	2
 872              	.L56:
 873 0088 00000000 		.word	USBFS_DmaEpBurstCnt
 874 008c 00000000 		.word	USBFS_DmaEpLastBurstEl
 875 0090 00181040 		.word	1074796544
 876 0094 00000000 		.word	USBFS_EP
 877 0098 80101040 		.word	1074794624
 878 009c 00000000 		.word	USBFS_DmaReqOut
 879 00a0 000102C0 		.word	-1073610496
 880 00a4 00060140 		.word	1073808896
 881              		.cfi_endproc
 882              	.LFE171:
 883              		.size	USBFS_EP2_DMA_DONE_ISR, .-USBFS_EP2_DMA_DONE_ISR
 884              		.section	.text.USBFS_EP3_DMA_DONE_ISR,"ax",%progbits
 885              		.align	2
 886              		.global	USBFS_EP3_DMA_DONE_ISR
 887              		.code	16
 888              		.thumb_func
 889              		.type	USBFS_EP3_DMA_DONE_ISR, %function
 890              	USBFS_EP3_DMA_DONE_ISR:
 891              	.LFB172:
1064:.\Generated_Source\PSoC4/USBFS_episr.c ****     #endif /* (USBFS_DMA2_ACTIVE) */
1065:.\Generated_Source\PSoC4/USBFS_episr.c **** 
1066:.\Generated_Source\PSoC4/USBFS_episr.c **** 
1067:.\Generated_Source\PSoC4/USBFS_episr.c ****     #if (USBFS_DMA3_ACTIVE)
ARM GAS  C:\Users\Terence\AppData\Local\Temp\cc65qyTh.s 			page 36


1068:.\Generated_Source\PSoC4/USBFS_episr.c ****         /******************************************************************************
1069:.\Generated_Source\PSoC4/USBFS_episr.c ****         * Function Name: USBFS_EP3_DMA_DONE_ISR
1070:.\Generated_Source\PSoC4/USBFS_episr.c ****         ***************************************************************************//**
1071:.\Generated_Source\PSoC4/USBFS_episr.c ****         *
1072:.\Generated_Source\PSoC4/USBFS_episr.c ****         *  Endpoint 3 DMA Done Interrupt Service Routine.
1073:.\Generated_Source\PSoC4/USBFS_episr.c ****         *
1074:.\Generated_Source\PSoC4/USBFS_episr.c ****         *
1075:.\Generated_Source\PSoC4/USBFS_episr.c ****         ******************************************************************************/
1076:.\Generated_Source\PSoC4/USBFS_episr.c ****         void USBFS_EP3_DMA_DONE_ISR(void)
1077:.\Generated_Source\PSoC4/USBFS_episr.c ****         {
 892              		.loc 1 1077 0
 893              		.cfi_startproc
1078:.\Generated_Source\PSoC4/USBFS_episr.c ****             uint32 nextAddr;
1079:.\Generated_Source\PSoC4/USBFS_episr.c **** 
1080:.\Generated_Source\PSoC4/USBFS_episr.c ****             /* Manage data elements which remain to transfer. */
1081:.\Generated_Source\PSoC4/USBFS_episr.c ****             if (0u != USBFS_DmaEpBurstCnt[USBFS_EP3])
 894              		.loc 1 1081 0
 895 0000 214B     		ldr	r3, .L63
 896 0002 DB78     		ldrb	r3, [r3, #3]
 897 0004 002B     		cmp	r3, #0
 898 0006 03D0     		beq	.L59
1082:.\Generated_Source\PSoC4/USBFS_episr.c ****             {
1083:.\Generated_Source\PSoC4/USBFS_episr.c ****                 /* Decrement burst counter. */
1084:.\Generated_Source\PSoC4/USBFS_episr.c ****                 --USBFS_DmaEpBurstCnt[USBFS_EP3];
 899              		.loc 1 1084 0
 900 0008 013B     		sub	r3, r3, #1
 901 000a 1F4A     		ldr	r2, .L63
 902 000c D370     		strb	r3, [r2, #3]
 903 000e 0FE0     		b	.L60
 904              	.L59:
1085:.\Generated_Source\PSoC4/USBFS_episr.c ****             }
1086:.\Generated_Source\PSoC4/USBFS_episr.c ****             else
1087:.\Generated_Source\PSoC4/USBFS_episr.c ****             {
1088:.\Generated_Source\PSoC4/USBFS_episr.c ****                 /* Adjust length of last burst. */
1089:.\Generated_Source\PSoC4/USBFS_episr.c ****                 USBFS_CyDmaSetNumDataElements(USBFS_EP3_DMA_CH,
 905              		.loc 1 1089 0
 906 0010 1E4B     		ldr	r3, .L63+4
 907 0012 DA78     		ldrb	r2, [r3, #3]
 908 0014 D309     		lsr	r3, r2, #7
 909 0016 1B01     		lsl	r3, r3, #4
 910 0018 1D49     		ldr	r1, .L63+8
 911 001a 8C46     		mov	ip, r1
 912 001c 6344     		add	r3, r3, ip
 913 001e 4933     		add	r3, r3, #73
 914 0020 FF33     		add	r3, r3, #255
 915 0022 1968     		ldr	r1, [r3]
 916 0024 090C     		lsr	r1, r1, #16
 917 0026 0904     		lsl	r1, r1, #16
 918 0028 1F20     		mov	r0, #31
 919 002a 0240     		and	r2, r0
 920 002c 0A43     		orr	r2, r1
 921 002e 1A60     		str	r2, [r3]
 922              	.L60:
1090:.\Generated_Source\PSoC4/USBFS_episr.c ****                                                         ((uint32) USBFS_DmaEpLastBurstEl[USBFS_EP3]
1091:.\Generated_Source\PSoC4/USBFS_episr.c ****                                                         ((uint32) USBFS_DmaEpLastBurstEl[USBFS_EP3]
1092:.\Generated_Source\PSoC4/USBFS_episr.c ****             }
1093:.\Generated_Source\PSoC4/USBFS_episr.c **** 
ARM GAS  C:\Users\Terence\AppData\Local\Temp\cc65qyTh.s 			page 37


1094:.\Generated_Source\PSoC4/USBFS_episr.c ****             /* Advance source for input endpoint or destination for output endpoint. */
1095:.\Generated_Source\PSoC4/USBFS_episr.c ****             if (0u != (USBFS_EP[USBFS_EP3].addr & USBFS_DIR_IN))
 923              		.loc 1 1095 0
 924 0030 2823     		mov	r3, #40
 925 0032 184A     		ldr	r2, .L63+12
 926 0034 D35C     		ldrb	r3, [r2, r3]
 927 0036 5BB2     		sxtb	r3, r3
 928 0038 002B     		cmp	r3, #0
 929 003a 0ADA     		bge	.L61
1096:.\Generated_Source\PSoC4/USBFS_episr.c ****             {
1097:.\Generated_Source\PSoC4/USBFS_episr.c ****                 /* Change source for descriptor 0. */
1098:.\Generated_Source\PSoC4/USBFS_episr.c ****                 nextAddr = (uint32) USBFS_CyDmaGetSrcAddress(USBFS_EP3_DMA_CH, USBFS_DMA_DESCR0);
 930              		.loc 1 1098 0
 931 003c 144A     		ldr	r2, .L63+8
 932 003e A021     		mov	r1, #160
 933 0040 4900     		lsl	r1, r1, #1
 934 0042 5358     		ldr	r3, [r2, r1]
 935              	.LVL31:
1099:.\Generated_Source\PSoC4/USBFS_episr.c ****                 nextAddr += (2u * USBFS_DMA_BYTES_PER_BURST);
 936              		.loc 1 1099 0
 937 0044 181C     		mov	r0, r3
 938 0046 4030     		add	r0, r0, #64
 939              	.LVL32:
1100:.\Generated_Source\PSoC4/USBFS_episr.c ****                 USBFS_CyDmaSetSrcAddress(USBFS_EP3_DMA_CH, USBFS_DMA_DESCR0, (void *) nextAddr);
 940              		.loc 1 1100 0
 941 0048 5050     		str	r0, [r2, r1]
1101:.\Generated_Source\PSoC4/USBFS_episr.c **** 
1102:.\Generated_Source\PSoC4/USBFS_episr.c ****                 /* Change source for descriptor 1. */
1103:.\Generated_Source\PSoC4/USBFS_episr.c ****                 nextAddr += USBFS_DMA_BYTES_PER_BURST;
 942              		.loc 1 1103 0
 943 004a 6033     		add	r3, r3, #96
 944              	.LVL33:
1104:.\Generated_Source\PSoC4/USBFS_episr.c ****                 USBFS_CyDmaSetSrcAddress(USBFS_EP3_DMA_CH, USBFS_DMA_DESCR1, (void *) nextAddr);
 945              		.loc 1 1104 0
 946 004c 1031     		add	r1, r1, #16
 947 004e 5350     		str	r3, [r2, r1]
 948 0050 09E0     		b	.L62
 949              	.LVL34:
 950              	.L61:
1105:.\Generated_Source\PSoC4/USBFS_episr.c ****             }
1106:.\Generated_Source\PSoC4/USBFS_episr.c ****             else
1107:.\Generated_Source\PSoC4/USBFS_episr.c ****             {
1108:.\Generated_Source\PSoC4/USBFS_episr.c ****                 /* Change destination for descriptor 0. */
1109:.\Generated_Source\PSoC4/USBFS_episr.c ****                 nextAddr  = (uint32) USBFS_CyDmaGetDstAddress(USBFS_EP3_DMA_CH, USBFS_DMA_DESCR0);
 951              		.loc 1 1109 0
 952 0052 0F4A     		ldr	r2, .L63+8
 953 0054 A221     		mov	r1, #162
 954 0056 4900     		lsl	r1, r1, #1
 955 0058 5358     		ldr	r3, [r2, r1]
 956              	.LVL35:
1110:.\Generated_Source\PSoC4/USBFS_episr.c ****                 nextAddr += (2u * USBFS_DMA_BYTES_PER_BURST);
 957              		.loc 1 1110 0
 958 005a 181C     		mov	r0, r3
 959 005c 4030     		add	r0, r0, #64
 960              	.LVL36:
1111:.\Generated_Source\PSoC4/USBFS_episr.c ****                 USBFS_CyDmaSetDstAddress(USBFS_EP3_DMA_CH, USBFS_DMA_DESCR0, (void *) nextAddr);
 961              		.loc 1 1111 0
ARM GAS  C:\Users\Terence\AppData\Local\Temp\cc65qyTh.s 			page 38


 962 005e 5050     		str	r0, [r2, r1]
1112:.\Generated_Source\PSoC4/USBFS_episr.c **** 
1113:.\Generated_Source\PSoC4/USBFS_episr.c ****                 /* Change destination for descriptor 1. */
1114:.\Generated_Source\PSoC4/USBFS_episr.c ****                 nextAddr += USBFS_DMA_BYTES_PER_BURST;
 963              		.loc 1 1114 0
 964 0060 6033     		add	r3, r3, #96
 965              	.LVL37:
1115:.\Generated_Source\PSoC4/USBFS_episr.c ****                 USBFS_CyDmaSetDstAddress(USBFS_EP3_DMA_CH, USBFS_DMA_DESCR1, (void *) nextAddr);
 966              		.loc 1 1115 0
 967 0062 1031     		add	r1, r1, #16
 968 0064 5350     		str	r3, [r2, r1]
 969              	.L62:
1116:.\Generated_Source\PSoC4/USBFS_episr.c ****             }
1117:.\Generated_Source\PSoC4/USBFS_episr.c **** 
1118:.\Generated_Source\PSoC4/USBFS_episr.c ****             /* Enable DMA to execute transfer as it was disabled because there were no valid descri
1119:.\Generated_Source\PSoC4/USBFS_episr.c ****             USBFS_CyDmaValidateDescriptor(USBFS_EP3_DMA_CH, USBFS_DMA_DESCR0);
 970              		.loc 1 1119 0
 971 0066 8021     		mov	r1, #128
 972 0068 0906     		lsl	r1, r1, #24
 973 006a A623     		mov	r3, #166
 974              	.LVL38:
 975 006c 5B00     		lsl	r3, r3, #1
 976 006e 084A     		ldr	r2, .L63+8
 977 0070 D150     		str	r1, [r2, r3]
1120:.\Generated_Source\PSoC4/USBFS_episr.c ****             USBFS_CyDmaChEnable (USBFS_EP3_DMA_CH);
 978              		.loc 1 1120 0
 979 0072 094A     		ldr	r2, .L63+16
 980 0074 936A     		ldr	r3, [r2, #40]
 981 0076 0B43     		orr	r3, r1
 982 0078 9362     		str	r3, [r2, #40]
1121:.\Generated_Source\PSoC4/USBFS_episr.c ****             USBFS_CyDmaTriggerIn(USBFS_DmaReqOut[USBFS_EP3]);
 983              		.loc 1 1121 0
 984 007a 084B     		ldr	r3, .L63+20
 985 007c DB78     		ldrb	r3, [r3, #3]
 986 007e 084A     		ldr	r2, .L63+24
 987 0080 1343     		orr	r3, r2
 988 0082 084A     		ldr	r2, .L63+28
 989 0084 1360     		str	r3, [r2]
1122:.\Generated_Source\PSoC4/USBFS_episr.c ****         }
 990              		.loc 1 1122 0
 991              		@ sp needed
 992 0086 7047     		bx	lr
 993              	.L64:
 994              		.align	2
 995              	.L63:
 996 0088 00000000 		.word	USBFS_DmaEpBurstCnt
 997 008c 00000000 		.word	USBFS_DmaEpLastBurstEl
 998 0090 00181040 		.word	1074796544
 999 0094 00000000 		.word	USBFS_EP
 1000 0098 80101040 		.word	1074794624
 1001 009c 00000000 		.word	USBFS_DmaReqOut
 1002 00a0 000102C0 		.word	-1073610496
 1003 00a4 00060140 		.word	1073808896
 1004              		.cfi_endproc
 1005              	.LFE172:
 1006              		.size	USBFS_EP3_DMA_DONE_ISR, .-USBFS_EP3_DMA_DONE_ISR
 1007              		.section	.text.USBFS_EP4_DMA_DONE_ISR,"ax",%progbits
ARM GAS  C:\Users\Terence\AppData\Local\Temp\cc65qyTh.s 			page 39


 1008              		.align	2
 1009              		.global	USBFS_EP4_DMA_DONE_ISR
 1010              		.code	16
 1011              		.thumb_func
 1012              		.type	USBFS_EP4_DMA_DONE_ISR, %function
 1013              	USBFS_EP4_DMA_DONE_ISR:
 1014              	.LFB173:
1123:.\Generated_Source\PSoC4/USBFS_episr.c ****     #endif /* (USBFS_DMA3_ACTIVE) */
1124:.\Generated_Source\PSoC4/USBFS_episr.c **** 
1125:.\Generated_Source\PSoC4/USBFS_episr.c **** 
1126:.\Generated_Source\PSoC4/USBFS_episr.c ****     #if (USBFS_DMA4_ACTIVE)
1127:.\Generated_Source\PSoC4/USBFS_episr.c ****         /******************************************************************************
1128:.\Generated_Source\PSoC4/USBFS_episr.c ****         * Function Name: USBFS_EP4_DMA_DONE_ISR
1129:.\Generated_Source\PSoC4/USBFS_episr.c ****         ***************************************************************************//**
1130:.\Generated_Source\PSoC4/USBFS_episr.c ****         *
1131:.\Generated_Source\PSoC4/USBFS_episr.c ****         *  Endpoint 4 DMA Done Interrupt Service Routine.
1132:.\Generated_Source\PSoC4/USBFS_episr.c ****         *
1133:.\Generated_Source\PSoC4/USBFS_episr.c ****         *
1134:.\Generated_Source\PSoC4/USBFS_episr.c ****         ******************************************************************************/
1135:.\Generated_Source\PSoC4/USBFS_episr.c ****         void USBFS_EP4_DMA_DONE_ISR(void)
1136:.\Generated_Source\PSoC4/USBFS_episr.c ****         {
 1015              		.loc 1 1136 0
 1016              		.cfi_startproc
1137:.\Generated_Source\PSoC4/USBFS_episr.c ****             uint32 nextAddr;
1138:.\Generated_Source\PSoC4/USBFS_episr.c **** 
1139:.\Generated_Source\PSoC4/USBFS_episr.c ****             /* Manage data elements which remain to transfer. */
1140:.\Generated_Source\PSoC4/USBFS_episr.c ****             if (0u != USBFS_DmaEpBurstCnt[USBFS_EP4])
 1017              		.loc 1 1140 0
 1018 0000 214B     		ldr	r3, .L70
 1019 0002 1B79     		ldrb	r3, [r3, #4]
 1020 0004 002B     		cmp	r3, #0
 1021 0006 03D0     		beq	.L66
1141:.\Generated_Source\PSoC4/USBFS_episr.c ****             {
1142:.\Generated_Source\PSoC4/USBFS_episr.c ****                 /* Decrement burst counter. */
1143:.\Generated_Source\PSoC4/USBFS_episr.c ****                 --USBFS_DmaEpBurstCnt[USBFS_EP4];
 1022              		.loc 1 1143 0
 1023 0008 013B     		sub	r3, r3, #1
 1024 000a 1F4A     		ldr	r2, .L70
 1025 000c 1371     		strb	r3, [r2, #4]
 1026 000e 0FE0     		b	.L67
 1027              	.L66:
1144:.\Generated_Source\PSoC4/USBFS_episr.c ****             }
1145:.\Generated_Source\PSoC4/USBFS_episr.c ****             else
1146:.\Generated_Source\PSoC4/USBFS_episr.c ****             {
1147:.\Generated_Source\PSoC4/USBFS_episr.c ****                 /* Adjust length of last burst. */
1148:.\Generated_Source\PSoC4/USBFS_episr.c ****                 USBFS_CyDmaSetNumDataElements(USBFS_EP4_DMA_CH,
 1028              		.loc 1 1148 0
 1029 0010 1E4B     		ldr	r3, .L70+4
 1030 0012 1A79     		ldrb	r2, [r3, #4]
 1031 0014 D309     		lsr	r3, r2, #7
 1032 0016 1B01     		lsl	r3, r3, #4
 1033 0018 1D49     		ldr	r1, .L70+8
 1034 001a 8C46     		mov	ip, r1
 1035 001c 6344     		add	r3, r3, ip
 1036 001e 6933     		add	r3, r3, #105
 1037 0020 FF33     		add	r3, r3, #255
 1038 0022 1968     		ldr	r1, [r3]
ARM GAS  C:\Users\Terence\AppData\Local\Temp\cc65qyTh.s 			page 40


 1039 0024 090C     		lsr	r1, r1, #16
 1040 0026 0904     		lsl	r1, r1, #16
 1041 0028 1F20     		mov	r0, #31
 1042 002a 0240     		and	r2, r0
 1043 002c 0A43     		orr	r2, r1
 1044 002e 1A60     		str	r2, [r3]
 1045              	.L67:
1149:.\Generated_Source\PSoC4/USBFS_episr.c ****                                                         ((uint32) USBFS_DmaEpLastBurstEl[USBFS_EP4]
1150:.\Generated_Source\PSoC4/USBFS_episr.c ****                                                         ((uint32) USBFS_DmaEpLastBurstEl[USBFS_EP4]
1151:.\Generated_Source\PSoC4/USBFS_episr.c ****             }
1152:.\Generated_Source\PSoC4/USBFS_episr.c **** 
1153:.\Generated_Source\PSoC4/USBFS_episr.c ****             /* Advance source for input endpoint or destination for output endpoint. */
1154:.\Generated_Source\PSoC4/USBFS_episr.c ****             if (0u != (USBFS_EP[USBFS_EP4].addr & USBFS_DIR_IN))
 1046              		.loc 1 1154 0
 1047 0030 3423     		mov	r3, #52
 1048 0032 184A     		ldr	r2, .L70+12
 1049 0034 D35C     		ldrb	r3, [r2, r3]
 1050 0036 5BB2     		sxtb	r3, r3
 1051 0038 002B     		cmp	r3, #0
 1052 003a 0ADA     		bge	.L68
1155:.\Generated_Source\PSoC4/USBFS_episr.c ****             {
1156:.\Generated_Source\PSoC4/USBFS_episr.c ****                 /* Change source for descriptor 0. */
1157:.\Generated_Source\PSoC4/USBFS_episr.c ****                 nextAddr = (uint32) USBFS_CyDmaGetSrcAddress(USBFS_EP4_DMA_CH, USBFS_DMA_DESCR0);
 1053              		.loc 1 1157 0
 1054 003c 144A     		ldr	r2, .L70+8
 1055 003e B021     		mov	r1, #176
 1056 0040 4900     		lsl	r1, r1, #1
 1057 0042 5358     		ldr	r3, [r2, r1]
 1058              	.LVL39:
1158:.\Generated_Source\PSoC4/USBFS_episr.c ****                 nextAddr += (2u * USBFS_DMA_BYTES_PER_BURST);
 1059              		.loc 1 1158 0
 1060 0044 181C     		mov	r0, r3
 1061 0046 4030     		add	r0, r0, #64
 1062              	.LVL40:
1159:.\Generated_Source\PSoC4/USBFS_episr.c ****                 USBFS_CyDmaSetSrcAddress(USBFS_EP4_DMA_CH, USBFS_DMA_DESCR0, (void *) nextAddr);
 1063              		.loc 1 1159 0
 1064 0048 5050     		str	r0, [r2, r1]
1160:.\Generated_Source\PSoC4/USBFS_episr.c **** 
1161:.\Generated_Source\PSoC4/USBFS_episr.c ****                 /* Change source for descriptor 1. */
1162:.\Generated_Source\PSoC4/USBFS_episr.c ****                 nextAddr += USBFS_DMA_BYTES_PER_BURST;
 1065              		.loc 1 1162 0
 1066 004a 6033     		add	r3, r3, #96
 1067              	.LVL41:
1163:.\Generated_Source\PSoC4/USBFS_episr.c ****                 USBFS_CyDmaSetSrcAddress(USBFS_EP4_DMA_CH, USBFS_DMA_DESCR1, (void *) nextAddr);
 1068              		.loc 1 1163 0
 1069 004c 1031     		add	r1, r1, #16
 1070 004e 5350     		str	r3, [r2, r1]
 1071 0050 09E0     		b	.L69
 1072              	.LVL42:
 1073              	.L68:
1164:.\Generated_Source\PSoC4/USBFS_episr.c ****             }
1165:.\Generated_Source\PSoC4/USBFS_episr.c ****             else
1166:.\Generated_Source\PSoC4/USBFS_episr.c ****             {
1167:.\Generated_Source\PSoC4/USBFS_episr.c ****                 /* Change destination for descriptor 0. */
1168:.\Generated_Source\PSoC4/USBFS_episr.c ****                 nextAddr  = (uint32) USBFS_CyDmaGetDstAddress(USBFS_EP4_DMA_CH, USBFS_DMA_DESCR0);
 1074              		.loc 1 1168 0
 1075 0052 0F4A     		ldr	r2, .L70+8
ARM GAS  C:\Users\Terence\AppData\Local\Temp\cc65qyTh.s 			page 41


 1076 0054 B221     		mov	r1, #178
 1077 0056 4900     		lsl	r1, r1, #1
 1078 0058 5358     		ldr	r3, [r2, r1]
 1079              	.LVL43:
1169:.\Generated_Source\PSoC4/USBFS_episr.c ****                 nextAddr += (2u * USBFS_DMA_BYTES_PER_BURST);
 1080              		.loc 1 1169 0
 1081 005a 181C     		mov	r0, r3
 1082 005c 4030     		add	r0, r0, #64
 1083              	.LVL44:
1170:.\Generated_Source\PSoC4/USBFS_episr.c ****                 USBFS_CyDmaSetDstAddress(USBFS_EP4_DMA_CH, USBFS_DMA_DESCR0, (void *) nextAddr);
 1084              		.loc 1 1170 0
 1085 005e 5050     		str	r0, [r2, r1]
1171:.\Generated_Source\PSoC4/USBFS_episr.c **** 
1172:.\Generated_Source\PSoC4/USBFS_episr.c ****                 /* Change destination for descriptor 1. */
1173:.\Generated_Source\PSoC4/USBFS_episr.c ****                 nextAddr += USBFS_DMA_BYTES_PER_BURST;
 1086              		.loc 1 1173 0
 1087 0060 6033     		add	r3, r3, #96
 1088              	.LVL45:
1174:.\Generated_Source\PSoC4/USBFS_episr.c ****                 USBFS_CyDmaSetDstAddress(USBFS_EP4_DMA_CH, USBFS_DMA_DESCR1, (void *) nextAddr);
 1089              		.loc 1 1174 0
 1090 0062 1031     		add	r1, r1, #16
 1091 0064 5350     		str	r3, [r2, r1]
 1092              	.L69:
1175:.\Generated_Source\PSoC4/USBFS_episr.c ****             }
1176:.\Generated_Source\PSoC4/USBFS_episr.c **** 
1177:.\Generated_Source\PSoC4/USBFS_episr.c ****             /* Enable DMA to execute transfer as it was disabled because there were no valid descri
1178:.\Generated_Source\PSoC4/USBFS_episr.c ****             USBFS_CyDmaValidateDescriptor(USBFS_EP4_DMA_CH, USBFS_DMA_DESCR0);
 1093              		.loc 1 1178 0
 1094 0066 8021     		mov	r1, #128
 1095 0068 0906     		lsl	r1, r1, #24
 1096 006a B623     		mov	r3, #182
 1097              	.LVL46:
 1098 006c 5B00     		lsl	r3, r3, #1
 1099 006e 084A     		ldr	r2, .L70+8
 1100 0070 D150     		str	r1, [r2, r3]
1179:.\Generated_Source\PSoC4/USBFS_episr.c ****             USBFS_CyDmaChEnable (USBFS_EP4_DMA_CH);
 1101              		.loc 1 1179 0
 1102 0072 094A     		ldr	r2, .L70+16
 1103 0074 D36A     		ldr	r3, [r2, #44]
 1104 0076 0B43     		orr	r3, r1
 1105 0078 D362     		str	r3, [r2, #44]
1180:.\Generated_Source\PSoC4/USBFS_episr.c ****             USBFS_CyDmaTriggerIn(USBFS_DmaReqOut[USBFS_EP4]);
 1106              		.loc 1 1180 0
 1107 007a 084B     		ldr	r3, .L70+20
 1108 007c 1B79     		ldrb	r3, [r3, #4]
 1109 007e 084A     		ldr	r2, .L70+24
 1110 0080 1343     		orr	r3, r2
 1111 0082 084A     		ldr	r2, .L70+28
 1112 0084 1360     		str	r3, [r2]
1181:.\Generated_Source\PSoC4/USBFS_episr.c ****         }
 1113              		.loc 1 1181 0
 1114              		@ sp needed
 1115 0086 7047     		bx	lr
 1116              	.L71:
 1117              		.align	2
 1118              	.L70:
 1119 0088 00000000 		.word	USBFS_DmaEpBurstCnt
ARM GAS  C:\Users\Terence\AppData\Local\Temp\cc65qyTh.s 			page 42


 1120 008c 00000000 		.word	USBFS_DmaEpLastBurstEl
 1121 0090 00181040 		.word	1074796544
 1122 0094 00000000 		.word	USBFS_EP
 1123 0098 80101040 		.word	1074794624
 1124 009c 00000000 		.word	USBFS_DmaReqOut
 1125 00a0 000102C0 		.word	-1073610496
 1126 00a4 00060140 		.word	1073808896
 1127              		.cfi_endproc
 1128              	.LFE173:
 1129              		.size	USBFS_EP4_DMA_DONE_ISR, .-USBFS_EP4_DMA_DONE_ISR
 1130              		.section	.text.USBFS_EP6_DMA_DONE_ISR,"ax",%progbits
 1131              		.align	2
 1132              		.global	USBFS_EP6_DMA_DONE_ISR
 1133              		.code	16
 1134              		.thumb_func
 1135              		.type	USBFS_EP6_DMA_DONE_ISR, %function
 1136              	USBFS_EP6_DMA_DONE_ISR:
 1137              	.LFB174:
1182:.\Generated_Source\PSoC4/USBFS_episr.c ****     #endif /* (USBFS_DMA4_ACTIVE) */
1183:.\Generated_Source\PSoC4/USBFS_episr.c **** 
1184:.\Generated_Source\PSoC4/USBFS_episr.c **** 
1185:.\Generated_Source\PSoC4/USBFS_episr.c ****     #if (USBFS_DMA5_ACTIVE)
1186:.\Generated_Source\PSoC4/USBFS_episr.c ****         /******************************************************************************
1187:.\Generated_Source\PSoC4/USBFS_episr.c ****         * Function Name: USBFS_EP5_DMA_DONE_ISR
1188:.\Generated_Source\PSoC4/USBFS_episr.c ****         ***************************************************************************//**
1189:.\Generated_Source\PSoC4/USBFS_episr.c ****         *
1190:.\Generated_Source\PSoC4/USBFS_episr.c ****         *  Endpoint 5 DMA Done Interrupt Service Routine.
1191:.\Generated_Source\PSoC4/USBFS_episr.c ****         *
1192:.\Generated_Source\PSoC4/USBFS_episr.c ****         *
1193:.\Generated_Source\PSoC4/USBFS_episr.c ****         ******************************************************************************/
1194:.\Generated_Source\PSoC4/USBFS_episr.c ****         void USBFS_EP5_DMA_DONE_ISR(void)
1195:.\Generated_Source\PSoC4/USBFS_episr.c ****         {
1196:.\Generated_Source\PSoC4/USBFS_episr.c ****             uint32 nextAddr;
1197:.\Generated_Source\PSoC4/USBFS_episr.c **** 
1198:.\Generated_Source\PSoC4/USBFS_episr.c ****             /* Manage data elements which remain to transfer. */
1199:.\Generated_Source\PSoC4/USBFS_episr.c ****             if (0u != USBFS_DmaEpBurstCnt[USBFS_EP5])
1200:.\Generated_Source\PSoC4/USBFS_episr.c ****             {
1201:.\Generated_Source\PSoC4/USBFS_episr.c ****                 /* Decrement burst counter. */
1202:.\Generated_Source\PSoC4/USBFS_episr.c ****                 --USBFS_DmaEpBurstCnt[USBFS_EP5];
1203:.\Generated_Source\PSoC4/USBFS_episr.c ****             }
1204:.\Generated_Source\PSoC4/USBFS_episr.c ****             else
1205:.\Generated_Source\PSoC4/USBFS_episr.c ****             {
1206:.\Generated_Source\PSoC4/USBFS_episr.c ****                 /* Adjust length of last burst. */
1207:.\Generated_Source\PSoC4/USBFS_episr.c ****                 USBFS_CyDmaSetNumDataElements(USBFS_EP5_DMA_CH,
1208:.\Generated_Source\PSoC4/USBFS_episr.c ****                                                         ((uint32) USBFS_DmaEpLastBurstEl[USBFS_EP5]
1209:.\Generated_Source\PSoC4/USBFS_episr.c ****                                                         ((uint32) USBFS_DmaEpLastBurstEl[USBFS_EP5]
1210:.\Generated_Source\PSoC4/USBFS_episr.c ****             }
1211:.\Generated_Source\PSoC4/USBFS_episr.c **** 
1212:.\Generated_Source\PSoC4/USBFS_episr.c ****             /* Advance source for input endpoint or destination for output endpoint. */
1213:.\Generated_Source\PSoC4/USBFS_episr.c ****             if (0u != (USBFS_EP[USBFS_EP5].addr & USBFS_DIR_IN))
1214:.\Generated_Source\PSoC4/USBFS_episr.c ****             {
1215:.\Generated_Source\PSoC4/USBFS_episr.c ****                 /* Change source for descriptor 0. */
1216:.\Generated_Source\PSoC4/USBFS_episr.c ****                 nextAddr = (uint32) USBFS_CyDmaGetSrcAddress(USBFS_EP5_DMA_CH, USBFS_DMA_DESCR0);
1217:.\Generated_Source\PSoC4/USBFS_episr.c ****                 nextAddr += (2u * USBFS_DMA_BYTES_PER_BURST);
1218:.\Generated_Source\PSoC4/USBFS_episr.c ****                 USBFS_CyDmaSetSrcAddress(USBFS_EP5_DMA_CH, USBFS_DMA_DESCR0, (void *) nextAddr);
1219:.\Generated_Source\PSoC4/USBFS_episr.c **** 
1220:.\Generated_Source\PSoC4/USBFS_episr.c ****                 /* Change source for descriptor 1. */
ARM GAS  C:\Users\Terence\AppData\Local\Temp\cc65qyTh.s 			page 43


1221:.\Generated_Source\PSoC4/USBFS_episr.c ****                 nextAddr += USBFS_DMA_BYTES_PER_BURST;
1222:.\Generated_Source\PSoC4/USBFS_episr.c ****                 USBFS_CyDmaSetSrcAddress(USBFS_EP5_DMA_CH, USBFS_DMA_DESCR1, (void *) nextAddr);
1223:.\Generated_Source\PSoC4/USBFS_episr.c ****             }
1224:.\Generated_Source\PSoC4/USBFS_episr.c ****             else
1225:.\Generated_Source\PSoC4/USBFS_episr.c ****             {
1226:.\Generated_Source\PSoC4/USBFS_episr.c ****                 /* Change destination for descriptor 0. */
1227:.\Generated_Source\PSoC4/USBFS_episr.c ****                 nextAddr  = (uint32) USBFS_CyDmaGetDstAddress(USBFS_EP5_DMA_CH, USBFS_DMA_DESCR0);
1228:.\Generated_Source\PSoC4/USBFS_episr.c ****                 nextAddr += (2u * USBFS_DMA_BYTES_PER_BURST);
1229:.\Generated_Source\PSoC4/USBFS_episr.c ****                 USBFS_CyDmaSetDstAddress(USBFS_EP5_DMA_CH, USBFS_DMA_DESCR0, (void *) nextAddr);
1230:.\Generated_Source\PSoC4/USBFS_episr.c **** 
1231:.\Generated_Source\PSoC4/USBFS_episr.c ****                 /* Change destination for descriptor 1. */
1232:.\Generated_Source\PSoC4/USBFS_episr.c ****                 nextAddr += USBFS_DMA_BYTES_PER_BURST;
1233:.\Generated_Source\PSoC4/USBFS_episr.c ****                 USBFS_CyDmaSetDstAddress(USBFS_EP5_DMA_CH, USBFS_DMA_DESCR1, (void *) nextAddr);
1234:.\Generated_Source\PSoC4/USBFS_episr.c ****             }
1235:.\Generated_Source\PSoC4/USBFS_episr.c **** 
1236:.\Generated_Source\PSoC4/USBFS_episr.c ****             /* Enable DMA to execute transfer as it was disabled because there were no valid descri
1237:.\Generated_Source\PSoC4/USBFS_episr.c ****             USBFS_CyDmaValidateDescriptor(USBFS_EP5_DMA_CH, USBFS_DMA_DESCR0);
1238:.\Generated_Source\PSoC4/USBFS_episr.c ****             USBFS_CyDmaChEnable (USBFS_EP5_DMA_CH);
1239:.\Generated_Source\PSoC4/USBFS_episr.c ****             USBFS_CyDmaTriggerIn(USBFS_DmaReqOut[USBFS_EP5]);
1240:.\Generated_Source\PSoC4/USBFS_episr.c ****         }
1241:.\Generated_Source\PSoC4/USBFS_episr.c ****     #endif /* (USBFS_DMA5_ACTIVE) */
1242:.\Generated_Source\PSoC4/USBFS_episr.c **** 
1243:.\Generated_Source\PSoC4/USBFS_episr.c **** 
1244:.\Generated_Source\PSoC4/USBFS_episr.c ****     #if (USBFS_DMA6_ACTIVE)
1245:.\Generated_Source\PSoC4/USBFS_episr.c ****         /******************************************************************************
1246:.\Generated_Source\PSoC4/USBFS_episr.c ****         * Function Name: USBFS_EP6_DMA_DONE_ISR
1247:.\Generated_Source\PSoC4/USBFS_episr.c ****         ***************************************************************************//**
1248:.\Generated_Source\PSoC4/USBFS_episr.c ****         *
1249:.\Generated_Source\PSoC4/USBFS_episr.c ****         *  Endpoint 6 DMA Done Interrupt Service Routine.
1250:.\Generated_Source\PSoC4/USBFS_episr.c ****         *
1251:.\Generated_Source\PSoC4/USBFS_episr.c ****         *
1252:.\Generated_Source\PSoC4/USBFS_episr.c ****         ******************************************************************************/
1253:.\Generated_Source\PSoC4/USBFS_episr.c ****         void USBFS_EP6_DMA_DONE_ISR(void)
1254:.\Generated_Source\PSoC4/USBFS_episr.c ****         {
 1138              		.loc 1 1254 0
 1139              		.cfi_startproc
1255:.\Generated_Source\PSoC4/USBFS_episr.c ****             uint32 nextAddr;
1256:.\Generated_Source\PSoC4/USBFS_episr.c **** 
1257:.\Generated_Source\PSoC4/USBFS_episr.c ****             /* Manage data elements which remain to transfer. */
1258:.\Generated_Source\PSoC4/USBFS_episr.c ****             if (0u != USBFS_DmaEpBurstCnt[USBFS_EP6])
 1140              		.loc 1 1258 0
 1141 0000 214B     		ldr	r3, .L77
 1142 0002 9B79     		ldrb	r3, [r3, #6]
 1143 0004 002B     		cmp	r3, #0
 1144 0006 03D0     		beq	.L73
1259:.\Generated_Source\PSoC4/USBFS_episr.c ****             {
1260:.\Generated_Source\PSoC4/USBFS_episr.c ****                 /* Decrement burst counter. */
1261:.\Generated_Source\PSoC4/USBFS_episr.c ****                 --USBFS_DmaEpBurstCnt[USBFS_EP6];
 1145              		.loc 1 1261 0
 1146 0008 013B     		sub	r3, r3, #1
 1147 000a 1F4A     		ldr	r2, .L77
 1148 000c 9371     		strb	r3, [r2, #6]
 1149 000e 0FE0     		b	.L74
 1150              	.L73:
1262:.\Generated_Source\PSoC4/USBFS_episr.c ****             }
1263:.\Generated_Source\PSoC4/USBFS_episr.c ****             else
1264:.\Generated_Source\PSoC4/USBFS_episr.c ****             {
ARM GAS  C:\Users\Terence\AppData\Local\Temp\cc65qyTh.s 			page 44


1265:.\Generated_Source\PSoC4/USBFS_episr.c ****                 /* Adjust length of last burst. */
1266:.\Generated_Source\PSoC4/USBFS_episr.c ****                 USBFS_CyDmaSetNumDataElements(USBFS_EP6_DMA_CH,
 1151              		.loc 1 1266 0
 1152 0010 1E4B     		ldr	r3, .L77+4
 1153 0012 9A79     		ldrb	r2, [r3, #6]
 1154 0014 D309     		lsr	r3, r2, #7
 1155 0016 1B01     		lsl	r3, r3, #4
 1156 0018 1D49     		ldr	r1, .L77+8
 1157 001a 8C46     		mov	ip, r1
 1158 001c 6344     		add	r3, r3, ip
 1159 001e 8933     		add	r3, r3, #137
 1160 0020 FF33     		add	r3, r3, #255
 1161 0022 1968     		ldr	r1, [r3]
 1162 0024 090C     		lsr	r1, r1, #16
 1163 0026 0904     		lsl	r1, r1, #16
 1164 0028 1F20     		mov	r0, #31
 1165 002a 0240     		and	r2, r0
 1166 002c 0A43     		orr	r2, r1
 1167 002e 1A60     		str	r2, [r3]
 1168              	.L74:
1267:.\Generated_Source\PSoC4/USBFS_episr.c ****                                                         ((uint32) USBFS_DmaEpLastBurstEl[USBFS_EP6]
1268:.\Generated_Source\PSoC4/USBFS_episr.c ****                                                         ((uint32) USBFS_DmaEpLastBurstEl[USBFS_EP6]
1269:.\Generated_Source\PSoC4/USBFS_episr.c ****             }
1270:.\Generated_Source\PSoC4/USBFS_episr.c **** 
1271:.\Generated_Source\PSoC4/USBFS_episr.c ****             /* Advance source for input endpoint or destination for output endpoint. */
1272:.\Generated_Source\PSoC4/USBFS_episr.c ****             if (0u != (USBFS_EP[USBFS_EP6].addr & USBFS_DIR_IN))
 1169              		.loc 1 1272 0
 1170 0030 4C23     		mov	r3, #76
 1171 0032 184A     		ldr	r2, .L77+12
 1172 0034 D35C     		ldrb	r3, [r2, r3]
 1173 0036 5BB2     		sxtb	r3, r3
 1174 0038 002B     		cmp	r3, #0
 1175 003a 0ADA     		bge	.L75
1273:.\Generated_Source\PSoC4/USBFS_episr.c ****             {
1274:.\Generated_Source\PSoC4/USBFS_episr.c ****                 /* Change source for descriptor 0. */
1275:.\Generated_Source\PSoC4/USBFS_episr.c ****                 nextAddr = (uint32) USBFS_CyDmaGetSrcAddress(USBFS_EP6_DMA_CH, USBFS_DMA_DESCR0);
 1176              		.loc 1 1275 0
 1177 003c 144A     		ldr	r2, .L77+8
 1178 003e C021     		mov	r1, #192
 1179 0040 4900     		lsl	r1, r1, #1
 1180 0042 5358     		ldr	r3, [r2, r1]
 1181              	.LVL47:
1276:.\Generated_Source\PSoC4/USBFS_episr.c ****                 nextAddr += (2u * USBFS_DMA_BYTES_PER_BURST);
 1182              		.loc 1 1276 0
 1183 0044 181C     		mov	r0, r3
 1184 0046 4030     		add	r0, r0, #64
 1185              	.LVL48:
1277:.\Generated_Source\PSoC4/USBFS_episr.c ****                 USBFS_CyDmaSetSrcAddress(USBFS_EP6_DMA_CH, USBFS_DMA_DESCR0, (void *) nextAddr);
 1186              		.loc 1 1277 0
 1187 0048 5050     		str	r0, [r2, r1]
1278:.\Generated_Source\PSoC4/USBFS_episr.c **** 
1279:.\Generated_Source\PSoC4/USBFS_episr.c ****                 /* Change source for descriptor 1. */
1280:.\Generated_Source\PSoC4/USBFS_episr.c ****                 nextAddr += USBFS_DMA_BYTES_PER_BURST;
 1188              		.loc 1 1280 0
 1189 004a 6033     		add	r3, r3, #96
 1190              	.LVL49:
1281:.\Generated_Source\PSoC4/USBFS_episr.c ****                 USBFS_CyDmaSetSrcAddress(USBFS_EP6_DMA_CH, USBFS_DMA_DESCR1, (void *) nextAddr);
ARM GAS  C:\Users\Terence\AppData\Local\Temp\cc65qyTh.s 			page 45


 1191              		.loc 1 1281 0
 1192 004c 1031     		add	r1, r1, #16
 1193 004e 5350     		str	r3, [r2, r1]
 1194 0050 09E0     		b	.L76
 1195              	.LVL50:
 1196              	.L75:
1282:.\Generated_Source\PSoC4/USBFS_episr.c ****             }
1283:.\Generated_Source\PSoC4/USBFS_episr.c ****             else
1284:.\Generated_Source\PSoC4/USBFS_episr.c ****             {
1285:.\Generated_Source\PSoC4/USBFS_episr.c ****                 /* Change destination for descriptor 0. */
1286:.\Generated_Source\PSoC4/USBFS_episr.c ****                 nextAddr  = (uint32) USBFS_CyDmaGetDstAddress(USBFS_EP6_DMA_CH, USBFS_DMA_DESCR0);
 1197              		.loc 1 1286 0
 1198 0052 0F4A     		ldr	r2, .L77+8
 1199 0054 C221     		mov	r1, #194
 1200 0056 4900     		lsl	r1, r1, #1
 1201 0058 5358     		ldr	r3, [r2, r1]
 1202              	.LVL51:
1287:.\Generated_Source\PSoC4/USBFS_episr.c ****                 nextAddr += (2u * USBFS_DMA_BYTES_PER_BURST);
 1203              		.loc 1 1287 0
 1204 005a 181C     		mov	r0, r3
 1205 005c 4030     		add	r0, r0, #64
 1206              	.LVL52:
1288:.\Generated_Source\PSoC4/USBFS_episr.c ****                 USBFS_CyDmaSetDstAddress(USBFS_EP6_DMA_CH, USBFS_DMA_DESCR0, (void *) nextAddr);
 1207              		.loc 1 1288 0
 1208 005e 5050     		str	r0, [r2, r1]
1289:.\Generated_Source\PSoC4/USBFS_episr.c **** 
1290:.\Generated_Source\PSoC4/USBFS_episr.c ****                 /* Change destination for descriptor 1. */
1291:.\Generated_Source\PSoC4/USBFS_episr.c ****                 nextAddr += USBFS_DMA_BYTES_PER_BURST;
 1209              		.loc 1 1291 0
 1210 0060 6033     		add	r3, r3, #96
 1211              	.LVL53:
1292:.\Generated_Source\PSoC4/USBFS_episr.c ****                 USBFS_CyDmaSetDstAddress(USBFS_EP6_DMA_CH, USBFS_DMA_DESCR1, (void *) nextAddr);
 1212              		.loc 1 1292 0
 1213 0062 1031     		add	r1, r1, #16
 1214 0064 5350     		str	r3, [r2, r1]
 1215              	.L76:
1293:.\Generated_Source\PSoC4/USBFS_episr.c ****             }
1294:.\Generated_Source\PSoC4/USBFS_episr.c **** 
1295:.\Generated_Source\PSoC4/USBFS_episr.c ****             /* Enable the DMA to execute transfer as it was disabled because there were no valid de
1296:.\Generated_Source\PSoC4/USBFS_episr.c ****             USBFS_CyDmaValidateDescriptor(USBFS_EP6_DMA_CH, USBFS_DMA_DESCR0);
 1216              		.loc 1 1296 0
 1217 0066 8021     		mov	r1, #128
 1218 0068 0906     		lsl	r1, r1, #24
 1219 006a C623     		mov	r3, #198
 1220              	.LVL54:
 1221 006c 5B00     		lsl	r3, r3, #1
 1222 006e 084A     		ldr	r2, .L77+8
 1223 0070 D150     		str	r1, [r2, r3]
1297:.\Generated_Source\PSoC4/USBFS_episr.c ****             USBFS_CyDmaChEnable (USBFS_EP6_DMA_CH);
 1224              		.loc 1 1297 0
 1225 0072 094A     		ldr	r2, .L77+16
 1226 0074 136B     		ldr	r3, [r2, #48]
 1227 0076 0B43     		orr	r3, r1
 1228 0078 1363     		str	r3, [r2, #48]
1298:.\Generated_Source\PSoC4/USBFS_episr.c ****             USBFS_CyDmaTriggerIn(USBFS_DmaReqOut[USBFS_EP6]);
 1229              		.loc 1 1298 0
 1230 007a 084B     		ldr	r3, .L77+20
ARM GAS  C:\Users\Terence\AppData\Local\Temp\cc65qyTh.s 			page 46


 1231 007c 9B79     		ldrb	r3, [r3, #6]
 1232 007e 084A     		ldr	r2, .L77+24
 1233 0080 1343     		orr	r3, r2
 1234 0082 084A     		ldr	r2, .L77+28
 1235 0084 1360     		str	r3, [r2]
1299:.\Generated_Source\PSoC4/USBFS_episr.c ****         }
 1236              		.loc 1 1299 0
 1237              		@ sp needed
 1238 0086 7047     		bx	lr
 1239              	.L78:
 1240              		.align	2
 1241              	.L77:
 1242 0088 00000000 		.word	USBFS_DmaEpBurstCnt
 1243 008c 00000000 		.word	USBFS_DmaEpLastBurstEl
 1244 0090 00181040 		.word	1074796544
 1245 0094 00000000 		.word	USBFS_EP
 1246 0098 80101040 		.word	1074794624
 1247 009c 00000000 		.word	USBFS_DmaReqOut
 1248 00a0 000102C0 		.word	-1073610496
 1249 00a4 00060140 		.word	1073808896
 1250              		.cfi_endproc
 1251              	.LFE174:
 1252              		.size	USBFS_EP6_DMA_DONE_ISR, .-USBFS_EP6_DMA_DONE_ISR
 1253              		.section	.text.USBFS_INTR_HI_ISR,"ax",%progbits
 1254              		.align	2
 1255              		.global	USBFS_INTR_HI_ISR
 1256              		.code	16
 1257              		.thumb_func
 1258              		.type	USBFS_INTR_HI_ISR, %function
 1259              	USBFS_INTR_HI_ISR:
 1260              	.LFB176:
1300:.\Generated_Source\PSoC4/USBFS_episr.c ****     #endif /* (USBFS_DMA6_ACTIVE) */
1301:.\Generated_Source\PSoC4/USBFS_episr.c **** 
1302:.\Generated_Source\PSoC4/USBFS_episr.c **** 
1303:.\Generated_Source\PSoC4/USBFS_episr.c ****     #if (USBFS_DMA7_ACTIVE)
1304:.\Generated_Source\PSoC4/USBFS_episr.c ****         /******************************************************************************
1305:.\Generated_Source\PSoC4/USBFS_episr.c ****         * Function Name: USBFS_EP7_DMA_DONE_ISR
1306:.\Generated_Source\PSoC4/USBFS_episr.c ****         ***************************************************************************//**
1307:.\Generated_Source\PSoC4/USBFS_episr.c ****         *
1308:.\Generated_Source\PSoC4/USBFS_episr.c ****         *  Endpoint 7 DMA Done Interrupt Service Routine.
1309:.\Generated_Source\PSoC4/USBFS_episr.c ****         *
1310:.\Generated_Source\PSoC4/USBFS_episr.c ****         *
1311:.\Generated_Source\PSoC4/USBFS_episr.c ****         ******************************************************************************/
1312:.\Generated_Source\PSoC4/USBFS_episr.c ****         void USBFS_EP7_DMA_DONE_ISR(void)
1313:.\Generated_Source\PSoC4/USBFS_episr.c ****         {
1314:.\Generated_Source\PSoC4/USBFS_episr.c ****             uint32 nextAddr;
1315:.\Generated_Source\PSoC4/USBFS_episr.c **** 
1316:.\Generated_Source\PSoC4/USBFS_episr.c ****             /* Manage data elements which remain to transfer. */
1317:.\Generated_Source\PSoC4/USBFS_episr.c ****             if (0u != USBFS_DmaEpBurstCnt[USBFS_EP7])
1318:.\Generated_Source\PSoC4/USBFS_episr.c ****             {
1319:.\Generated_Source\PSoC4/USBFS_episr.c ****                 /* Decrement burst counter. */
1320:.\Generated_Source\PSoC4/USBFS_episr.c ****                 --USBFS_DmaEpBurstCnt[USBFS_EP7];
1321:.\Generated_Source\PSoC4/USBFS_episr.c ****             }
1322:.\Generated_Source\PSoC4/USBFS_episr.c ****             else
1323:.\Generated_Source\PSoC4/USBFS_episr.c ****             {
1324:.\Generated_Source\PSoC4/USBFS_episr.c ****                 /* Adjust length of last burst. */
1325:.\Generated_Source\PSoC4/USBFS_episr.c ****                 USBFS_CyDmaSetNumDataElements(USBFS_EP7_DMA_CH,
ARM GAS  C:\Users\Terence\AppData\Local\Temp\cc65qyTh.s 			page 47


1326:.\Generated_Source\PSoC4/USBFS_episr.c ****                                                         ((uint32) USBFS_DmaEpLastBurstEl[USBFS_EP7]
1327:.\Generated_Source\PSoC4/USBFS_episr.c ****                                                         ((uint32) USBFS_DmaEpLastBurstEl[USBFS_EP7]
1328:.\Generated_Source\PSoC4/USBFS_episr.c ****             }
1329:.\Generated_Source\PSoC4/USBFS_episr.c **** 
1330:.\Generated_Source\PSoC4/USBFS_episr.c ****             /* Advance source for input endpoint or destination for output endpoint. */
1331:.\Generated_Source\PSoC4/USBFS_episr.c ****             if (0u != (USBFS_EP[USBFS_EP7].addr & USBFS_DIR_IN))
1332:.\Generated_Source\PSoC4/USBFS_episr.c ****             {
1333:.\Generated_Source\PSoC4/USBFS_episr.c ****                 /* Change source for descriptor 0. */
1334:.\Generated_Source\PSoC4/USBFS_episr.c ****                 nextAddr = (uint32) USBFS_CyDmaGetSrcAddress(USBFS_EP7_DMA_CH, USBFS_DMA_DESCR0);
1335:.\Generated_Source\PSoC4/USBFS_episr.c ****                 nextAddr += (2u * USBFS_DMA_BYTES_PER_BURST);
1336:.\Generated_Source\PSoC4/USBFS_episr.c ****                 USBFS_CyDmaSetSrcAddress(USBFS_EP7_DMA_CH, USBFS_DMA_DESCR0, (void *) nextAddr);
1337:.\Generated_Source\PSoC4/USBFS_episr.c **** 
1338:.\Generated_Source\PSoC4/USBFS_episr.c ****                 /* Change source for descriptor 1. */
1339:.\Generated_Source\PSoC4/USBFS_episr.c ****                 nextAddr += USBFS_DMA_BYTES_PER_BURST;
1340:.\Generated_Source\PSoC4/USBFS_episr.c ****                 USBFS_CyDmaSetSrcAddress(USBFS_EP7_DMA_CH, USBFS_DMA_DESCR1, (void *) nextAddr);
1341:.\Generated_Source\PSoC4/USBFS_episr.c ****             }
1342:.\Generated_Source\PSoC4/USBFS_episr.c ****             else
1343:.\Generated_Source\PSoC4/USBFS_episr.c ****             {
1344:.\Generated_Source\PSoC4/USBFS_episr.c ****                 /* Change destination for descriptor 0. */
1345:.\Generated_Source\PSoC4/USBFS_episr.c ****                 nextAddr  = (uint32) USBFS_CyDmaGetDstAddress(USBFS_EP7_DMA_CH, USBFS_DMA_DESCR0);
1346:.\Generated_Source\PSoC4/USBFS_episr.c ****                 nextAddr += (2u * USBFS_DMA_BYTES_PER_BURST);
1347:.\Generated_Source\PSoC4/USBFS_episr.c ****                 USBFS_CyDmaSetDstAddress(USBFS_EP7_DMA_CH, USBFS_DMA_DESCR0, (void *) nextAddr);
1348:.\Generated_Source\PSoC4/USBFS_episr.c **** 
1349:.\Generated_Source\PSoC4/USBFS_episr.c ****                 /* Change destination for descriptor 1. */
1350:.\Generated_Source\PSoC4/USBFS_episr.c ****                 nextAddr += USBFS_DMA_BYTES_PER_BURST;
1351:.\Generated_Source\PSoC4/USBFS_episr.c ****                 USBFS_CyDmaSetDstAddress(USBFS_EP7_DMA_CH, USBFS_DMA_DESCR1, (void *) nextAddr);
1352:.\Generated_Source\PSoC4/USBFS_episr.c ****             }
1353:.\Generated_Source\PSoC4/USBFS_episr.c **** 
1354:.\Generated_Source\PSoC4/USBFS_episr.c ****             /* Enable DMA to execute transfer as it was disabled because there were no valid descri
1355:.\Generated_Source\PSoC4/USBFS_episr.c ****             USBFS_CyDmaValidateDescriptor(USBFS_EP7_DMA_CH, USBFS_DMA_DESCR0);
1356:.\Generated_Source\PSoC4/USBFS_episr.c ****             USBFS_CyDmaChEnable (USBFS_EP7_DMA_CH);
1357:.\Generated_Source\PSoC4/USBFS_episr.c ****             USBFS_CyDmaTriggerIn(USBFS_DmaReqOut[USBFS_EP7]);
1358:.\Generated_Source\PSoC4/USBFS_episr.c ****         }
1359:.\Generated_Source\PSoC4/USBFS_episr.c ****     #endif /* (USBFS_DMA7_ACTIVE) */
1360:.\Generated_Source\PSoC4/USBFS_episr.c **** 
1361:.\Generated_Source\PSoC4/USBFS_episr.c **** 
1362:.\Generated_Source\PSoC4/USBFS_episr.c ****     #if (USBFS_DMA8_ACTIVE)
1363:.\Generated_Source\PSoC4/USBFS_episr.c ****         /******************************************************************************
1364:.\Generated_Source\PSoC4/USBFS_episr.c ****         * Function Name: USBFS_EP8_DMA_DONE_ISR
1365:.\Generated_Source\PSoC4/USBFS_episr.c ****         ***************************************************************************//**
1366:.\Generated_Source\PSoC4/USBFS_episr.c ****         *
1367:.\Generated_Source\PSoC4/USBFS_episr.c ****         *  Endpoint 8 DMA Done Interrupt Service Routine.
1368:.\Generated_Source\PSoC4/USBFS_episr.c ****         *
1369:.\Generated_Source\PSoC4/USBFS_episr.c ****         *
1370:.\Generated_Source\PSoC4/USBFS_episr.c ****         ******************************************************************************/
1371:.\Generated_Source\PSoC4/USBFS_episr.c ****         void USBFS_EP8_DMA_DONE_ISR(void)
1372:.\Generated_Source\PSoC4/USBFS_episr.c ****         {
1373:.\Generated_Source\PSoC4/USBFS_episr.c ****             uint32 nextAddr;
1374:.\Generated_Source\PSoC4/USBFS_episr.c **** 
1375:.\Generated_Source\PSoC4/USBFS_episr.c ****             /* Manage data elements which remain to transfer. */
1376:.\Generated_Source\PSoC4/USBFS_episr.c ****             if (0u != USBFS_DmaEpBurstCnt[USBFS_EP8])
1377:.\Generated_Source\PSoC4/USBFS_episr.c ****             {
1378:.\Generated_Source\PSoC4/USBFS_episr.c ****                 /* Decrement burst counter. */
1379:.\Generated_Source\PSoC4/USBFS_episr.c ****                 --USBFS_DmaEpBurstCnt[USBFS_EP8];
1380:.\Generated_Source\PSoC4/USBFS_episr.c ****             }
1381:.\Generated_Source\PSoC4/USBFS_episr.c ****             else
1382:.\Generated_Source\PSoC4/USBFS_episr.c ****             {
ARM GAS  C:\Users\Terence\AppData\Local\Temp\cc65qyTh.s 			page 48


1383:.\Generated_Source\PSoC4/USBFS_episr.c ****                 /* Adjust length of last burst. */
1384:.\Generated_Source\PSoC4/USBFS_episr.c ****                 USBFS_CyDmaSetNumDataElements(USBFS_EP8_DMA_CH,
1385:.\Generated_Source\PSoC4/USBFS_episr.c ****                                                         ((uint32) USBFS_DmaEpLastBurstEl[USBFS_EP8]
1386:.\Generated_Source\PSoC4/USBFS_episr.c ****                                                         ((uint32) USBFS_DmaEpLastBurstEl[USBFS_EP8]
1387:.\Generated_Source\PSoC4/USBFS_episr.c ****             }
1388:.\Generated_Source\PSoC4/USBFS_episr.c **** 
1389:.\Generated_Source\PSoC4/USBFS_episr.c ****             /* Advance source for input endpoint or destination for output endpoint. */
1390:.\Generated_Source\PSoC4/USBFS_episr.c ****             if (0u != (USBFS_EP[USBFS_EP8].addr & USBFS_DIR_IN))
1391:.\Generated_Source\PSoC4/USBFS_episr.c ****             {
1392:.\Generated_Source\PSoC4/USBFS_episr.c ****                 /* Change source for descriptor 0. */
1393:.\Generated_Source\PSoC4/USBFS_episr.c ****                 nextAddr = (uint32) USBFS_CyDmaGetSrcAddress(USBFS_EP8_DMA_CH, USBFS_DMA_DESCR0);
1394:.\Generated_Source\PSoC4/USBFS_episr.c ****                 nextAddr += (2u * USBFS_DMA_BYTES_PER_BURST);
1395:.\Generated_Source\PSoC4/USBFS_episr.c ****                 USBFS_CyDmaSetSrcAddress(USBFS_EP8_DMA_CH, USBFS_DMA_DESCR0, (void *) nextAddr);
1396:.\Generated_Source\PSoC4/USBFS_episr.c **** 
1397:.\Generated_Source\PSoC4/USBFS_episr.c ****                 /* Change source for descriptor 1. */
1398:.\Generated_Source\PSoC4/USBFS_episr.c ****                 nextAddr += USBFS_DMA_BYTES_PER_BURST;
1399:.\Generated_Source\PSoC4/USBFS_episr.c ****                 USBFS_CyDmaSetSrcAddress(USBFS_EP8_DMA_CH, USBFS_DMA_DESCR1, (void *) nextAddr);
1400:.\Generated_Source\PSoC4/USBFS_episr.c ****             }
1401:.\Generated_Source\PSoC4/USBFS_episr.c ****             else
1402:.\Generated_Source\PSoC4/USBFS_episr.c ****             {
1403:.\Generated_Source\PSoC4/USBFS_episr.c ****                 /* Change destination for descriptor 0. */
1404:.\Generated_Source\PSoC4/USBFS_episr.c ****                 nextAddr  = (uint32) USBFS_CyDmaGetDstAddress(USBFS_EP8_DMA_CH, USBFS_DMA_DESCR0);
1405:.\Generated_Source\PSoC4/USBFS_episr.c ****                 nextAddr += (2u * USBFS_DMA_BYTES_PER_BURST);
1406:.\Generated_Source\PSoC4/USBFS_episr.c ****                 USBFS_CyDmaSetDstAddress(USBFS_EP8_DMA_CH, USBFS_DMA_DESCR0, (void *) nextAddr);
1407:.\Generated_Source\PSoC4/USBFS_episr.c **** 
1408:.\Generated_Source\PSoC4/USBFS_episr.c ****                 /* Change destination for descriptor 1. */
1409:.\Generated_Source\PSoC4/USBFS_episr.c ****                 nextAddr += USBFS_DMA_BYTES_PER_BURST;
1410:.\Generated_Source\PSoC4/USBFS_episr.c ****                 USBFS_CyDmaSetDstAddress(USBFS_EP8_DMA_CH, USBFS_DMA_DESCR1, (void *) nextAddr);
1411:.\Generated_Source\PSoC4/USBFS_episr.c ****             }
1412:.\Generated_Source\PSoC4/USBFS_episr.c **** 
1413:.\Generated_Source\PSoC4/USBFS_episr.c ****             /* Enable DMA to execute transfer as it was disabled because there were no valid descri
1414:.\Generated_Source\PSoC4/USBFS_episr.c ****             USBFS_CyDmaValidateDescriptor(USBFS_EP8_DMA_CH, USBFS_DMA_DESCR0);
1415:.\Generated_Source\PSoC4/USBFS_episr.c ****             USBFS_CyDmaChEnable (USBFS_EP8_DMA_CH);
1416:.\Generated_Source\PSoC4/USBFS_episr.c ****             USBFS_CyDmaTriggerIn(USBFS_DmaReqOut[USBFS_EP8]);
1417:.\Generated_Source\PSoC4/USBFS_episr.c ****         }
1418:.\Generated_Source\PSoC4/USBFS_episr.c ****     #endif /* (USBFS_DMA8_ACTIVE) */
1419:.\Generated_Source\PSoC4/USBFS_episr.c **** 
1420:.\Generated_Source\PSoC4/USBFS_episr.c **** #else
1421:.\Generated_Source\PSoC4/USBFS_episr.c ****     #if (USBFS_EP_DMA_AUTO_OPT == 0u)
1422:.\Generated_Source\PSoC4/USBFS_episr.c ****         /******************************************************************************
1423:.\Generated_Source\PSoC4/USBFS_episr.c ****         * Function Name: USBFS_EP_DMA_DONE_ISR
1424:.\Generated_Source\PSoC4/USBFS_episr.c ****         ***************************************************************************//**
1425:.\Generated_Source\PSoC4/USBFS_episr.c ****         *
1426:.\Generated_Source\PSoC4/USBFS_episr.c ****         *  DMA Done Interrupt Service Routine.
1427:.\Generated_Source\PSoC4/USBFS_episr.c ****         *
1428:.\Generated_Source\PSoC4/USBFS_episr.c ****         *
1429:.\Generated_Source\PSoC4/USBFS_episr.c ****         ******************************************************************************/
1430:.\Generated_Source\PSoC4/USBFS_episr.c ****         CY_ISR(USBFS_EP_DMA_DONE_ISR)
1431:.\Generated_Source\PSoC4/USBFS_episr.c ****         {
1432:.\Generated_Source\PSoC4/USBFS_episr.c ****             uint8 int8Status;
1433:.\Generated_Source\PSoC4/USBFS_episr.c ****             uint8 int17Status;
1434:.\Generated_Source\PSoC4/USBFS_episr.c ****             uint8 ep_status;
1435:.\Generated_Source\PSoC4/USBFS_episr.c ****             uint8 ep = USBFS_EP1;
1436:.\Generated_Source\PSoC4/USBFS_episr.c **** 
1437:.\Generated_Source\PSoC4/USBFS_episr.c ****         #ifdef USBFS_EP_DMA_DONE_ISR_ENTRY_CALLBACK
1438:.\Generated_Source\PSoC4/USBFS_episr.c ****             USBFS_EP_DMA_DONE_ISR_EntryCallback();
1439:.\Generated_Source\PSoC4/USBFS_episr.c ****         #endif /* (USBFS_EP_DMA_DONE_ISR_ENTRY_CALLBACK) */
ARM GAS  C:\Users\Terence\AppData\Local\Temp\cc65qyTh.s 			page 49


1440:.\Generated_Source\PSoC4/USBFS_episr.c **** 
1441:.\Generated_Source\PSoC4/USBFS_episr.c ****             /* `#START EP_DMA_DONE_BEGIN_USER_CODE` Place your code here */
1442:.\Generated_Source\PSoC4/USBFS_episr.c **** 
1443:.\Generated_Source\PSoC4/USBFS_episr.c ****             /* `#END` */
1444:.\Generated_Source\PSoC4/USBFS_episr.c **** 
1445:.\Generated_Source\PSoC4/USBFS_episr.c ****             /* Read clear on read status register with EP source of interrupt. */
1446:.\Generated_Source\PSoC4/USBFS_episr.c ****             int17Status = USBFS_EP17_DMA_Done_SR_Read() & USBFS_EP17_SR_MASK;
1447:.\Generated_Source\PSoC4/USBFS_episr.c ****             int8Status  = USBFS_EP8_DMA_Done_SR_Read()  & USBFS_EP8_SR_MASK;
1448:.\Generated_Source\PSoC4/USBFS_episr.c **** 
1449:.\Generated_Source\PSoC4/USBFS_episr.c ****             while (int8Status != 0u)
1450:.\Generated_Source\PSoC4/USBFS_episr.c ****             {
1451:.\Generated_Source\PSoC4/USBFS_episr.c ****                 while (int17Status != 0u)
1452:.\Generated_Source\PSoC4/USBFS_episr.c ****                 {
1453:.\Generated_Source\PSoC4/USBFS_episr.c ****                     if ((int17Status & 1u) != 0u)  /* If EpX interrupt present. */
1454:.\Generated_Source\PSoC4/USBFS_episr.c ****                     {
1455:.\Generated_Source\PSoC4/USBFS_episr.c ****                         /* Read Endpoint Status Register. */
1456:.\Generated_Source\PSoC4/USBFS_episr.c ****                         ep_status = USBFS_ARB_EP_BASE.arbEp[ep].epSr;
1457:.\Generated_Source\PSoC4/USBFS_episr.c **** 
1458:.\Generated_Source\PSoC4/USBFS_episr.c ****                         if ((0u == (ep_status & USBFS_ARB_EPX_SR_IN_BUF_FULL)) &&
1459:.\Generated_Source\PSoC4/USBFS_episr.c ****                             (0u ==USBFS_inBufFull[ep]))
1460:.\Generated_Source\PSoC4/USBFS_episr.c ****                         {
1461:.\Generated_Source\PSoC4/USBFS_episr.c ****                             /* `#START EP_DMA_DONE_USER_CODE` Place your code here */
1462:.\Generated_Source\PSoC4/USBFS_episr.c **** 
1463:.\Generated_Source\PSoC4/USBFS_episr.c ****                             /* `#END` */
1464:.\Generated_Source\PSoC4/USBFS_episr.c **** 
1465:.\Generated_Source\PSoC4/USBFS_episr.c ****                         #ifdef USBFS_EP_DMA_DONE_ISR_CALLBACK
1466:.\Generated_Source\PSoC4/USBFS_episr.c ****                             USBFS_EP_DMA_DONE_ISR_Callback();
1467:.\Generated_Source\PSoC4/USBFS_episr.c ****                         #endif /* (USBFS_EP_DMA_DONE_ISR_CALLBACK) */
1468:.\Generated_Source\PSoC4/USBFS_episr.c **** 
1469:.\Generated_Source\PSoC4/USBFS_episr.c ****                             /* Transfer again 2 last bytes into pre-fetch endpoint area. */
1470:.\Generated_Source\PSoC4/USBFS_episr.c ****                             USBFS_ARB_EP_BASE.arbEp[ep].rwWaMsb = 0u;
1471:.\Generated_Source\PSoC4/USBFS_episr.c ****                             USBFS_ARB_EP_BASE.arbEp[ep].rwWa = (USBFS_DMA_BYTES_PER_BURST * ep) - U
1472:.\Generated_Source\PSoC4/USBFS_episr.c ****                             USBFS_LoadNextInEP(ep, 1u);
1473:.\Generated_Source\PSoC4/USBFS_episr.c **** 
1474:.\Generated_Source\PSoC4/USBFS_episr.c ****                             /* Set Data ready status to generate DMA request. */
1475:.\Generated_Source\PSoC4/USBFS_episr.c ****                             USBFS_ARB_EP_BASE.arbEp[ep].epCfg |= USBFS_ARB_EPX_CFG_IN_DATA_RDY;
1476:.\Generated_Source\PSoC4/USBFS_episr.c ****                         }
1477:.\Generated_Source\PSoC4/USBFS_episr.c ****                     }
1478:.\Generated_Source\PSoC4/USBFS_episr.c **** 
1479:.\Generated_Source\PSoC4/USBFS_episr.c ****                     ep++;
1480:.\Generated_Source\PSoC4/USBFS_episr.c ****                     int17Status >>= 1u;
1481:.\Generated_Source\PSoC4/USBFS_episr.c ****                 }
1482:.\Generated_Source\PSoC4/USBFS_episr.c **** 
1483:.\Generated_Source\PSoC4/USBFS_episr.c ****                 int8Status >>= 1u;
1484:.\Generated_Source\PSoC4/USBFS_episr.c **** 
1485:.\Generated_Source\PSoC4/USBFS_episr.c ****                 if (int8Status != 0u)
1486:.\Generated_Source\PSoC4/USBFS_episr.c ****                 {
1487:.\Generated_Source\PSoC4/USBFS_episr.c ****                     /* Prepare pointer for EP8. */
1488:.\Generated_Source\PSoC4/USBFS_episr.c ****                     ep = USBFS_EP8;
1489:.\Generated_Source\PSoC4/USBFS_episr.c ****                     int17Status = int8Status & 0x01u;
1490:.\Generated_Source\PSoC4/USBFS_episr.c ****                 }
1491:.\Generated_Source\PSoC4/USBFS_episr.c ****             }
1492:.\Generated_Source\PSoC4/USBFS_episr.c **** 
1493:.\Generated_Source\PSoC4/USBFS_episr.c ****             /* `#START EP_DMA_DONE_END_USER_CODE` Place your code here */
1494:.\Generated_Source\PSoC4/USBFS_episr.c **** 
1495:.\Generated_Source\PSoC4/USBFS_episr.c ****             /* `#END` */
1496:.\Generated_Source\PSoC4/USBFS_episr.c **** 
ARM GAS  C:\Users\Terence\AppData\Local\Temp\cc65qyTh.s 			page 50


1497:.\Generated_Source\PSoC4/USBFS_episr.c ****     #ifdef USBFS_EP_DMA_DONE_ISR_EXIT_CALLBACK
1498:.\Generated_Source\PSoC4/USBFS_episr.c ****         USBFS_EP_DMA_DONE_ISR_ExitCallback();
1499:.\Generated_Source\PSoC4/USBFS_episr.c ****     #endif /* (USBFS_EP_DMA_DONE_ISR_EXIT_CALLBACK) */
1500:.\Generated_Source\PSoC4/USBFS_episr.c ****         }
1501:.\Generated_Source\PSoC4/USBFS_episr.c ****     #endif /* (USBFS_EP_DMA_AUTO_OPT == 0u) */
1502:.\Generated_Source\PSoC4/USBFS_episr.c **** #endif /* (CY_PSOC4) */
1503:.\Generated_Source\PSoC4/USBFS_episr.c **** #endif /* (USBFS_EP_MANAGEMENT_DMA_AUTO) */
1504:.\Generated_Source\PSoC4/USBFS_episr.c **** 
1505:.\Generated_Source\PSoC4/USBFS_episr.c **** 
1506:.\Generated_Source\PSoC4/USBFS_episr.c **** #if (CY_PSOC4)
1507:.\Generated_Source\PSoC4/USBFS_episr.c ****     /***************************************************************************
1508:.\Generated_Source\PSoC4/USBFS_episr.c ****     * Function Name: USBFS_IntrHandler
1509:.\Generated_Source\PSoC4/USBFS_episr.c ****     ************************************************************************//**
1510:.\Generated_Source\PSoC4/USBFS_episr.c ****     *
1511:.\Generated_Source\PSoC4/USBFS_episr.c ****     *   Interrupt handler for Hi/Mid/Low ISRs.
1512:.\Generated_Source\PSoC4/USBFS_episr.c ****     *
1513:.\Generated_Source\PSoC4/USBFS_episr.c ****     *  regCause - The cause register of interrupt. One of the three variants:
1514:.\Generated_Source\PSoC4/USBFS_episr.c ****     *       USBFS_INTR_CAUSE_LO_REG - Low interrupts.
1515:.\Generated_Source\PSoC4/USBFS_episr.c ****     *       USBFS_INTR_CAUSE_MED_REG - Med interrupts.
1516:.\Generated_Source\PSoC4/USBFS_episr.c ****     *       USBFS_INTR_CAUSE_HI_REG - - High interrupts.
1517:.\Generated_Source\PSoC4/USBFS_episr.c ****     *
1518:.\Generated_Source\PSoC4/USBFS_episr.c ****     *
1519:.\Generated_Source\PSoC4/USBFS_episr.c ****     ***************************************************************************/
1520:.\Generated_Source\PSoC4/USBFS_episr.c ****     CY_INLINE static void USBFS_IntrHandler(uint32 intrCause)
1521:.\Generated_Source\PSoC4/USBFS_episr.c ****     {
1522:.\Generated_Source\PSoC4/USBFS_episr.c ****         /* Array of pointers to component interrupt handlers. */
1523:.\Generated_Source\PSoC4/USBFS_episr.c ****         static const cyisraddress USBFS_isrCallbacks[] =
1524:.\Generated_Source\PSoC4/USBFS_episr.c ****         {
1525:.\Generated_Source\PSoC4/USBFS_episr.c ****             &USBFS_SOF_ISR,
1526:.\Generated_Source\PSoC4/USBFS_episr.c ****             &USBFS_BUS_RESET_ISR,
1527:.\Generated_Source\PSoC4/USBFS_episr.c ****             &USBFS_EP_0_ISR,
1528:.\Generated_Source\PSoC4/USBFS_episr.c ****             NULL,
1529:.\Generated_Source\PSoC4/USBFS_episr.c ****             &USBFS_ARB_ISR,
1530:.\Generated_Source\PSoC4/USBFS_episr.c ****             &USBFS_EP_1_ISR,
1531:.\Generated_Source\PSoC4/USBFS_episr.c ****             &USBFS_EP_2_ISR,
1532:.\Generated_Source\PSoC4/USBFS_episr.c ****             &USBFS_EP_3_ISR,
1533:.\Generated_Source\PSoC4/USBFS_episr.c ****             &USBFS_EP_4_ISR,
1534:.\Generated_Source\PSoC4/USBFS_episr.c ****             NULL,
1535:.\Generated_Source\PSoC4/USBFS_episr.c ****             &USBFS_EP_6_ISR,
1536:.\Generated_Source\PSoC4/USBFS_episr.c ****             NULL,
1537:.\Generated_Source\PSoC4/USBFS_episr.c ****             NULL,
1538:.\Generated_Source\PSoC4/USBFS_episr.c ****         };
1539:.\Generated_Source\PSoC4/USBFS_episr.c **** 
1540:.\Generated_Source\PSoC4/USBFS_episr.c ****         uint32 cbIdx = 0u;
1541:.\Generated_Source\PSoC4/USBFS_episr.c **** 
1542:.\Generated_Source\PSoC4/USBFS_episr.c ****         /* Check arbiter interrupt source first. */
1543:.\Generated_Source\PSoC4/USBFS_episr.c ****         if (0u != (intrCause & USBFS_INTR_CAUSE_ARB_INTR))
1544:.\Generated_Source\PSoC4/USBFS_episr.c ****         {
1545:.\Generated_Source\PSoC4/USBFS_episr.c ****             USBFS_isrCallbacks[USBFS_ARB_EP_INTR_NUM]();
1546:.\Generated_Source\PSoC4/USBFS_episr.c ****         }
1547:.\Generated_Source\PSoC4/USBFS_episr.c **** 
1548:.\Generated_Source\PSoC4/USBFS_episr.c ****         /* Check all other interrupt sources (except arbiter and resume). */
1549:.\Generated_Source\PSoC4/USBFS_episr.c ****         intrCause = (intrCause  & USBFS_INTR_CAUSE_CTRL_INTR_MASK) |
1550:.\Generated_Source\PSoC4/USBFS_episr.c ****                     ((intrCause & USBFS_INTR_CAUSE_EP1_8_INTR_MASK) >>
1551:.\Generated_Source\PSoC4/USBFS_episr.c ****                                   USBFS_INTR_CAUSE_EP_INTR_SHIFT);
1552:.\Generated_Source\PSoC4/USBFS_episr.c **** 
1553:.\Generated_Source\PSoC4/USBFS_episr.c ****         /* Call interrupt handlers for active interrupt sources. */
ARM GAS  C:\Users\Terence\AppData\Local\Temp\cc65qyTh.s 			page 51


1554:.\Generated_Source\PSoC4/USBFS_episr.c ****         while (0u != intrCause)
1555:.\Generated_Source\PSoC4/USBFS_episr.c ****         {
1556:.\Generated_Source\PSoC4/USBFS_episr.c ****             if (0u != (intrCause & 0x1u))
1557:.\Generated_Source\PSoC4/USBFS_episr.c ****             {
1558:.\Generated_Source\PSoC4/USBFS_episr.c ****                  USBFS_isrCallbacks[cbIdx]();
1559:.\Generated_Source\PSoC4/USBFS_episr.c ****             }
1560:.\Generated_Source\PSoC4/USBFS_episr.c **** 
1561:.\Generated_Source\PSoC4/USBFS_episr.c ****             intrCause >>= 1u;
1562:.\Generated_Source\PSoC4/USBFS_episr.c ****             ++cbIdx;
1563:.\Generated_Source\PSoC4/USBFS_episr.c ****         }
1564:.\Generated_Source\PSoC4/USBFS_episr.c ****     }
1565:.\Generated_Source\PSoC4/USBFS_episr.c **** 
1566:.\Generated_Source\PSoC4/USBFS_episr.c **** 
1567:.\Generated_Source\PSoC4/USBFS_episr.c ****     /***************************************************************************
1568:.\Generated_Source\PSoC4/USBFS_episr.c ****     * Function Name: USBFS_INTR_HI_ISR
1569:.\Generated_Source\PSoC4/USBFS_episr.c ****     ************************************************************************//**
1570:.\Generated_Source\PSoC4/USBFS_episr.c ****     *
1571:.\Generated_Source\PSoC4/USBFS_episr.c ****     *   Interrupt Service Routine for the high group of the interrupt sources.
1572:.\Generated_Source\PSoC4/USBFS_episr.c ****     *
1573:.\Generated_Source\PSoC4/USBFS_episr.c ****     *
1574:.\Generated_Source\PSoC4/USBFS_episr.c ****     ***************************************************************************/
1575:.\Generated_Source\PSoC4/USBFS_episr.c ****     CY_ISR(USBFS_INTR_HI_ISR)
1576:.\Generated_Source\PSoC4/USBFS_episr.c ****     {
 1261              		.loc 1 1576 0
 1262              		.cfi_startproc
 1263 0000 38B5     		push	{r3, r4, r5, lr}
 1264              		.cfi_def_cfa_offset 16
 1265              		.cfi_offset 3, -16
 1266              		.cfi_offset 4, -12
 1267              		.cfi_offset 5, -8
 1268              		.cfi_offset 14, -4
1577:.\Generated_Source\PSoC4/USBFS_episr.c ****         USBFS_IntrHandler(USBFS_INTR_CAUSE_HI_REG);
 1269              		.loc 1 1577 0
 1270 0002 0D4B     		ldr	r3, .L84
 1271 0004 1D68     		ldr	r5, [r3]
 1272              	.LVL55:
 1273              	.LBB5:
 1274              	.LBB6:
1543:.\Generated_Source\PSoC4/USBFS_episr.c ****         {
 1275              		.loc 1 1543 0
 1276 0006 2B06     		lsl	r3, r5, #24
 1277 0008 01D5     		bpl	.L80
1545:.\Generated_Source\PSoC4/USBFS_episr.c ****         }
 1278              		.loc 1 1545 0
 1279 000a FFF7FEFF 		bl	USBFS_ARB_ISR
 1280              	.LVL56:
 1281              	.L80:
1549:.\Generated_Source\PSoC4/USBFS_episr.c ****                     ((intrCause & USBFS_INTR_CAUSE_EP1_8_INTR_MASK) >>
 1282              		.loc 1 1549 0
 1283 000e 0F24     		mov	r4, #15
 1284 0010 2C40     		and	r4, r5
1550:.\Generated_Source\PSoC4/USBFS_episr.c ****                                   USBFS_INTR_CAUSE_EP_INTR_SHIFT);
 1285              		.loc 1 1550 0
 1286 0012 FF23     		mov	r3, #255
 1287 0014 1B02     		lsl	r3, r3, #8
 1288 0016 2B40     		and	r3, r5
 1289 0018 DB08     		lsr	r3, r3, #3
ARM GAS  C:\Users\Terence\AppData\Local\Temp\cc65qyTh.s 			page 52


1549:.\Generated_Source\PSoC4/USBFS_episr.c ****                     ((intrCause & USBFS_INTR_CAUSE_EP1_8_INTR_MASK) >>
 1290              		.loc 1 1549 0
 1291 001a 1C43     		orr	r4, r3
 1292              	.LVL57:
1540:.\Generated_Source\PSoC4/USBFS_episr.c **** 
 1293              		.loc 1 1540 0
 1294 001c 0025     		mov	r5, #0
 1295 001e 07E0     		b	.L81
 1296              	.LVL58:
 1297              	.L83:
1556:.\Generated_Source\PSoC4/USBFS_episr.c ****             {
 1298              		.loc 1 1556 0
 1299 0020 E307     		lsl	r3, r4, #31
 1300 0022 03D5     		bpl	.L82
1558:.\Generated_Source\PSoC4/USBFS_episr.c ****             }
 1301              		.loc 1 1558 0
 1302 0024 AB00     		lsl	r3, r5, #2
 1303 0026 054A     		ldr	r2, .L84+4
 1304 0028 9B58     		ldr	r3, [r3, r2]
 1305 002a 9847     		blx	r3
 1306              	.LVL59:
 1307              	.L82:
1561:.\Generated_Source\PSoC4/USBFS_episr.c ****             ++cbIdx;
 1308              		.loc 1 1561 0
 1309 002c 6408     		lsr	r4, r4, #1
 1310              	.LVL60:
1562:.\Generated_Source\PSoC4/USBFS_episr.c ****         }
 1311              		.loc 1 1562 0
 1312 002e 0135     		add	r5, r5, #1
 1313              	.LVL61:
 1314              	.L81:
1554:.\Generated_Source\PSoC4/USBFS_episr.c ****         {
 1315              		.loc 1 1554 0
 1316 0030 002C     		cmp	r4, #0
 1317 0032 F5D1     		bne	.L83
 1318              	.LBE6:
 1319              	.LBE5:
1578:.\Generated_Source\PSoC4/USBFS_episr.c ****     }
 1320              		.loc 1 1578 0
 1321              		@ sp needed
 1322              	.LVL62:
 1323              	.LVL63:
 1324 0034 38BD     		pop	{r3, r4, r5, pc}
 1325              	.L85:
 1326 0036 C046     		.align	2
 1327              	.L84:
 1328 0038 34202C40 		.word	1076633652
 1329 003c 00000000 		.word	.LANCHOR0
 1330              		.cfi_endproc
 1331              	.LFE176:
 1332              		.size	USBFS_INTR_HI_ISR, .-USBFS_INTR_HI_ISR
 1333              		.section	.text.USBFS_INTR_MED_ISR,"ax",%progbits
 1334              		.align	2
 1335              		.global	USBFS_INTR_MED_ISR
 1336              		.code	16
 1337              		.thumb_func
 1338              		.type	USBFS_INTR_MED_ISR, %function
ARM GAS  C:\Users\Terence\AppData\Local\Temp\cc65qyTh.s 			page 53


 1339              	USBFS_INTR_MED_ISR:
 1340              	.LFB177:
1579:.\Generated_Source\PSoC4/USBFS_episr.c **** 
1580:.\Generated_Source\PSoC4/USBFS_episr.c ****     /***************************************************************************
1581:.\Generated_Source\PSoC4/USBFS_episr.c ****     * Function Name: USBFS_INTR_MED_ISR
1582:.\Generated_Source\PSoC4/USBFS_episr.c ****     ************************************************************************//**
1583:.\Generated_Source\PSoC4/USBFS_episr.c ****     *
1584:.\Generated_Source\PSoC4/USBFS_episr.c ****     *   Interrupt Service Routine for the medium group of the interrupt sources.
1585:.\Generated_Source\PSoC4/USBFS_episr.c ****     *
1586:.\Generated_Source\PSoC4/USBFS_episr.c ****     *
1587:.\Generated_Source\PSoC4/USBFS_episr.c ****     ***************************************************************************/
1588:.\Generated_Source\PSoC4/USBFS_episr.c ****     CY_ISR(USBFS_INTR_MED_ISR)
1589:.\Generated_Source\PSoC4/USBFS_episr.c ****     {
 1341              		.loc 1 1589 0
 1342              		.cfi_startproc
 1343 0000 38B5     		push	{r3, r4, r5, lr}
 1344              		.cfi_def_cfa_offset 16
 1345              		.cfi_offset 3, -16
 1346              		.cfi_offset 4, -12
 1347              		.cfi_offset 5, -8
 1348              		.cfi_offset 14, -4
1590:.\Generated_Source\PSoC4/USBFS_episr.c ****        USBFS_IntrHandler(USBFS_INTR_CAUSE_MED_REG);
 1349              		.loc 1 1590 0
 1350 0002 0D4B     		ldr	r3, .L91
 1351 0004 1D68     		ldr	r5, [r3]
 1352              	.LVL64:
 1353              	.LBB9:
 1354              	.LBB10:
1543:.\Generated_Source\PSoC4/USBFS_episr.c ****         {
 1355              		.loc 1 1543 0
 1356 0006 2B06     		lsl	r3, r5, #24
 1357 0008 01D5     		bpl	.L87
1545:.\Generated_Source\PSoC4/USBFS_episr.c ****         }
 1358              		.loc 1 1545 0
 1359 000a FFF7FEFF 		bl	USBFS_ARB_ISR
 1360              	.LVL65:
 1361              	.L87:
1549:.\Generated_Source\PSoC4/USBFS_episr.c ****                     ((intrCause & USBFS_INTR_CAUSE_EP1_8_INTR_MASK) >>
 1362              		.loc 1 1549 0
 1363 000e 0F24     		mov	r4, #15
 1364 0010 2C40     		and	r4, r5
1550:.\Generated_Source\PSoC4/USBFS_episr.c ****                                   USBFS_INTR_CAUSE_EP_INTR_SHIFT);
 1365              		.loc 1 1550 0
 1366 0012 FF23     		mov	r3, #255
 1367 0014 1B02     		lsl	r3, r3, #8
 1368 0016 2B40     		and	r3, r5
 1369 0018 DB08     		lsr	r3, r3, #3
1549:.\Generated_Source\PSoC4/USBFS_episr.c ****                     ((intrCause & USBFS_INTR_CAUSE_EP1_8_INTR_MASK) >>
 1370              		.loc 1 1549 0
 1371 001a 1C43     		orr	r4, r3
 1372              	.LVL66:
1540:.\Generated_Source\PSoC4/USBFS_episr.c **** 
 1373              		.loc 1 1540 0
 1374 001c 0025     		mov	r5, #0
 1375 001e 07E0     		b	.L88
 1376              	.LVL67:
 1377              	.L90:
ARM GAS  C:\Users\Terence\AppData\Local\Temp\cc65qyTh.s 			page 54


1556:.\Generated_Source\PSoC4/USBFS_episr.c ****             {
 1378              		.loc 1 1556 0
 1379 0020 E307     		lsl	r3, r4, #31
 1380 0022 03D5     		bpl	.L89
1558:.\Generated_Source\PSoC4/USBFS_episr.c ****             }
 1381              		.loc 1 1558 0
 1382 0024 AB00     		lsl	r3, r5, #2
 1383 0026 054A     		ldr	r2, .L91+4
 1384 0028 9B58     		ldr	r3, [r3, r2]
 1385 002a 9847     		blx	r3
 1386              	.LVL68:
 1387              	.L89:
1561:.\Generated_Source\PSoC4/USBFS_episr.c ****             ++cbIdx;
 1388              		.loc 1 1561 0
 1389 002c 6408     		lsr	r4, r4, #1
 1390              	.LVL69:
1562:.\Generated_Source\PSoC4/USBFS_episr.c ****         }
 1391              		.loc 1 1562 0
 1392 002e 0135     		add	r5, r5, #1
 1393              	.LVL70:
 1394              	.L88:
1554:.\Generated_Source\PSoC4/USBFS_episr.c ****         {
 1395              		.loc 1 1554 0
 1396 0030 002C     		cmp	r4, #0
 1397 0032 F5D1     		bne	.L90
 1398              	.LBE10:
 1399              	.LBE9:
1591:.\Generated_Source\PSoC4/USBFS_episr.c ****     }
 1400              		.loc 1 1591 0
 1401              		@ sp needed
 1402              	.LVL71:
 1403              	.LVL72:
 1404 0034 38BD     		pop	{r3, r4, r5, pc}
 1405              	.L92:
 1406 0036 C046     		.align	2
 1407              	.L91:
 1408 0038 38202C40 		.word	1076633656
 1409 003c 00000000 		.word	.LANCHOR0
 1410              		.cfi_endproc
 1411              	.LFE177:
 1412              		.size	USBFS_INTR_MED_ISR, .-USBFS_INTR_MED_ISR
 1413              		.section	.text.USBFS_INTR_LO_ISR,"ax",%progbits
 1414              		.align	2
 1415              		.global	USBFS_INTR_LO_ISR
 1416              		.code	16
 1417              		.thumb_func
 1418              		.type	USBFS_INTR_LO_ISR, %function
 1419              	USBFS_INTR_LO_ISR:
 1420              	.LFB178:
1592:.\Generated_Source\PSoC4/USBFS_episr.c **** 
1593:.\Generated_Source\PSoC4/USBFS_episr.c ****     /***************************************************************************
1594:.\Generated_Source\PSoC4/USBFS_episr.c ****     * Function Name: USBFS_INTR_LO_ISR
1595:.\Generated_Source\PSoC4/USBFS_episr.c ****     ************************************************************************//**
1596:.\Generated_Source\PSoC4/USBFS_episr.c ****     *
1597:.\Generated_Source\PSoC4/USBFS_episr.c ****     *   Interrupt Service Routine for the low group of the interrupt sources.
1598:.\Generated_Source\PSoC4/USBFS_episr.c ****     *
1599:.\Generated_Source\PSoC4/USBFS_episr.c ****     *
ARM GAS  C:\Users\Terence\AppData\Local\Temp\cc65qyTh.s 			page 55


1600:.\Generated_Source\PSoC4/USBFS_episr.c ****     ***************************************************************************/
1601:.\Generated_Source\PSoC4/USBFS_episr.c ****     CY_ISR(USBFS_INTR_LO_ISR)
1602:.\Generated_Source\PSoC4/USBFS_episr.c ****     {
 1421              		.loc 1 1602 0
 1422              		.cfi_startproc
 1423 0000 38B5     		push	{r3, r4, r5, lr}
 1424              		.cfi_def_cfa_offset 16
 1425              		.cfi_offset 3, -16
 1426              		.cfi_offset 4, -12
 1427              		.cfi_offset 5, -8
 1428              		.cfi_offset 14, -4
1603:.\Generated_Source\PSoC4/USBFS_episr.c ****         USBFS_IntrHandler(USBFS_INTR_CAUSE_LO_REG);
 1429              		.loc 1 1603 0
 1430 0002 0D4B     		ldr	r3, .L98
 1431 0004 1D68     		ldr	r5, [r3]
 1432              	.LVL73:
 1433              	.LBB13:
 1434              	.LBB14:
1543:.\Generated_Source\PSoC4/USBFS_episr.c ****         {
 1435              		.loc 1 1543 0
 1436 0006 2B06     		lsl	r3, r5, #24
 1437 0008 01D5     		bpl	.L94
1545:.\Generated_Source\PSoC4/USBFS_episr.c ****         }
 1438              		.loc 1 1545 0
 1439 000a FFF7FEFF 		bl	USBFS_ARB_ISR
 1440              	.LVL74:
 1441              	.L94:
1549:.\Generated_Source\PSoC4/USBFS_episr.c ****                     ((intrCause & USBFS_INTR_CAUSE_EP1_8_INTR_MASK) >>
 1442              		.loc 1 1549 0
 1443 000e 0F24     		mov	r4, #15
 1444 0010 2C40     		and	r4, r5
1550:.\Generated_Source\PSoC4/USBFS_episr.c ****                                   USBFS_INTR_CAUSE_EP_INTR_SHIFT);
 1445              		.loc 1 1550 0
 1446 0012 FF23     		mov	r3, #255
 1447 0014 1B02     		lsl	r3, r3, #8
 1448 0016 2B40     		and	r3, r5
 1449 0018 DB08     		lsr	r3, r3, #3
1549:.\Generated_Source\PSoC4/USBFS_episr.c ****                     ((intrCause & USBFS_INTR_CAUSE_EP1_8_INTR_MASK) >>
 1450              		.loc 1 1549 0
 1451 001a 1C43     		orr	r4, r3
 1452              	.LVL75:
1540:.\Generated_Source\PSoC4/USBFS_episr.c **** 
 1453              		.loc 1 1540 0
 1454 001c 0025     		mov	r5, #0
 1455 001e 07E0     		b	.L95
 1456              	.LVL76:
 1457              	.L97:
1556:.\Generated_Source\PSoC4/USBFS_episr.c ****             {
 1458              		.loc 1 1556 0
 1459 0020 E307     		lsl	r3, r4, #31
 1460 0022 03D5     		bpl	.L96
1558:.\Generated_Source\PSoC4/USBFS_episr.c ****             }
 1461              		.loc 1 1558 0
 1462 0024 AB00     		lsl	r3, r5, #2
 1463 0026 054A     		ldr	r2, .L98+4
 1464 0028 9B58     		ldr	r3, [r3, r2]
 1465 002a 9847     		blx	r3
ARM GAS  C:\Users\Terence\AppData\Local\Temp\cc65qyTh.s 			page 56


 1466              	.LVL77:
 1467              	.L96:
1561:.\Generated_Source\PSoC4/USBFS_episr.c ****             ++cbIdx;
 1468              		.loc 1 1561 0
 1469 002c 6408     		lsr	r4, r4, #1
 1470              	.LVL78:
1562:.\Generated_Source\PSoC4/USBFS_episr.c ****         }
 1471              		.loc 1 1562 0
 1472 002e 0135     		add	r5, r5, #1
 1473              	.LVL79:
 1474              	.L95:
1554:.\Generated_Source\PSoC4/USBFS_episr.c ****         {
 1475              		.loc 1 1554 0
 1476 0030 002C     		cmp	r4, #0
 1477 0032 F5D1     		bne	.L97
 1478              	.LBE14:
 1479              	.LBE13:
1604:.\Generated_Source\PSoC4/USBFS_episr.c ****     }
 1480              		.loc 1 1604 0
 1481              		@ sp needed
 1482              	.LVL80:
 1483              	.LVL81:
 1484 0034 38BD     		pop	{r3, r4, r5, pc}
 1485              	.L99:
 1486 0036 C046     		.align	2
 1487              	.L98:
 1488 0038 3C202C40 		.word	1076633660
 1489 003c 00000000 		.word	.LANCHOR0
 1490              		.cfi_endproc
 1491              	.LFE178:
 1492              		.size	USBFS_INTR_LO_ISR, .-USBFS_INTR_LO_ISR
 1493              		.section	.rodata
 1494              		.align	2
 1495              		.set	.LANCHOR0,. + 0
 1496              		.type	USBFS_isrCallbacks.6238, %object
 1497              		.size	USBFS_isrCallbacks.6238, 52
 1498              	USBFS_isrCallbacks.6238:
 1499 0000 00000000 		.word	USBFS_SOF_ISR
 1500 0004 00000000 		.word	USBFS_BUS_RESET_ISR
 1501 0008 00000000 		.word	USBFS_EP_0_ISR
 1502 000c 00000000 		.word	0
 1503 0010 00000000 		.word	USBFS_ARB_ISR
 1504 0014 00000000 		.word	USBFS_EP_1_ISR
 1505 0018 00000000 		.word	USBFS_EP_2_ISR
 1506 001c 00000000 		.word	USBFS_EP_3_ISR
 1507 0020 00000000 		.word	USBFS_EP_4_ISR
 1508 0024 00000000 		.word	0
 1509 0028 00000000 		.word	USBFS_EP_6_ISR
 1510 002c 00000000 		.word	0
 1511 0030 00000000 		.word	0
 1512              		.text
 1513              	.Letext0:
 1514              		.file 2 ".\\Generated_Source\\PSoC4\\cytypes.h"
 1515              		.file 3 ".\\Generated_Source\\PSoC4\\USBFS.h"
 1516              		.file 4 "Generated_Source\\PSoC4/CyDMA.h"
 1517              		.file 5 ".\\Generated_Source\\PSoC4\\USBFS_pvt.h"
 1518              		.file 6 "./cyapicallbacks.h"
ARM GAS  C:\Users\Terence\AppData\Local\Temp\cc65qyTh.s 			page 57


 1519              		.section	.debug_info,"",%progbits
 1520              	.Ldebug_info0:
 1521 0000 84070000 		.4byte	0x784
 1522 0004 0400     		.2byte	0x4
 1523 0006 00000000 		.4byte	.Ldebug_abbrev0
 1524 000a 04       		.byte	0x4
 1525 000b 01       		.uleb128 0x1
 1526 000c 59030000 		.4byte	.LASF85
 1527 0010 01       		.byte	0x1
 1528 0011 7D020000 		.4byte	.LASF86
 1529 0015 A9010000 		.4byte	.LASF87
 1530 0019 00000000 		.4byte	.Ldebug_ranges0+0
 1531 001d 00000000 		.4byte	0
 1532 0021 00000000 		.4byte	.Ldebug_line0
 1533 0025 02       		.uleb128 0x2
 1534 0026 01       		.byte	0x1
 1535 0027 06       		.byte	0x6
 1536 0028 C1000000 		.4byte	.LASF0
 1537 002c 02       		.uleb128 0x2
 1538 002d 01       		.byte	0x1
 1539 002e 08       		.byte	0x8
 1540 002f 3B040000 		.4byte	.LASF1
 1541 0033 02       		.uleb128 0x2
 1542 0034 02       		.byte	0x2
 1543 0035 05       		.byte	0x5
 1544 0036 49040000 		.4byte	.LASF2
 1545 003a 02       		.uleb128 0x2
 1546 003b 02       		.byte	0x2
 1547 003c 07       		.byte	0x7
 1548 003d 6A020000 		.4byte	.LASF3
 1549 0041 02       		.uleb128 0x2
 1550 0042 04       		.byte	0x4
 1551 0043 05       		.byte	0x5
 1552 0044 F3000000 		.4byte	.LASF4
 1553 0048 02       		.uleb128 0x2
 1554 0049 04       		.byte	0x4
 1555 004a 07       		.byte	0x7
 1556 004b 97010000 		.4byte	.LASF5
 1557 004f 02       		.uleb128 0x2
 1558 0050 08       		.byte	0x8
 1559 0051 05       		.byte	0x5
 1560 0052 B3000000 		.4byte	.LASF6
 1561 0056 02       		.uleb128 0x2
 1562 0057 08       		.byte	0x8
 1563 0058 07       		.byte	0x7
 1564 0059 58000000 		.4byte	.LASF7
 1565 005d 03       		.uleb128 0x3
 1566 005e 04       		.byte	0x4
 1567 005f 05       		.byte	0x5
 1568 0060 696E7400 		.ascii	"int\000"
 1569 0064 02       		.uleb128 0x2
 1570 0065 04       		.byte	0x4
 1571 0066 07       		.byte	0x7
 1572 0067 8A010000 		.4byte	.LASF8
 1573 006b 04       		.uleb128 0x4
 1574 006c 15010000 		.4byte	.LASF9
 1575 0070 02       		.byte	0x2
ARM GAS  C:\Users\Terence\AppData\Local\Temp\cc65qyTh.s 			page 58


 1576 0071 3801     		.2byte	0x138
 1577 0073 2C000000 		.4byte	0x2c
 1578 0077 04       		.uleb128 0x4
 1579 0078 09000000 		.4byte	.LASF10
 1580 007c 02       		.byte	0x2
 1581 007d 3901     		.2byte	0x139
 1582 007f 3A000000 		.4byte	0x3a
 1583 0083 04       		.uleb128 0x4
 1584 0084 73010000 		.4byte	.LASF11
 1585 0088 02       		.byte	0x2
 1586 0089 3A01     		.2byte	0x13a
 1587 008b 48000000 		.4byte	0x48
 1588 008f 02       		.uleb128 0x2
 1589 0090 04       		.byte	0x4
 1590 0091 04       		.byte	0x4
 1591 0092 FB030000 		.4byte	.LASF12
 1592 0096 02       		.uleb128 0x2
 1593 0097 08       		.byte	0x8
 1594 0098 04       		.byte	0x4
 1595 0099 40010000 		.4byte	.LASF13
 1596 009d 02       		.uleb128 0x2
 1597 009e 01       		.byte	0x1
 1598 009f 08       		.byte	0x8
 1599 00a0 DA040000 		.4byte	.LASF14
 1600 00a4 04       		.uleb128 0x4
 1601 00a5 FC020000 		.4byte	.LASF15
 1602 00a9 02       		.byte	0x2
 1603 00aa E401     		.2byte	0x1e4
 1604 00ac B0000000 		.4byte	0xb0
 1605 00b0 05       		.uleb128 0x5
 1606 00b1 83000000 		.4byte	0x83
 1607 00b5 04       		.uleb128 0x4
 1608 00b6 EF040000 		.4byte	.LASF16
 1609 00ba 02       		.byte	0x2
 1610 00bb F401     		.2byte	0x1f4
 1611 00bd C1000000 		.4byte	0xc1
 1612 00c1 06       		.uleb128 0x6
 1613 00c2 04       		.byte	0x4
 1614 00c3 C7000000 		.4byte	0xc7
 1615 00c7 07       		.uleb128 0x7
 1616 00c8 02       		.uleb128 0x2
 1617 00c9 04       		.byte	0x4
 1618 00ca 07       		.byte	0x7
 1619 00cb 0C030000 		.4byte	.LASF17
 1620 00cf 08       		.uleb128 0x8
 1621 00d0 04       		.byte	0x4
 1622 00d1 09       		.uleb128 0x9
 1623 00d2 0C       		.byte	0xc
 1624 00d3 03       		.byte	0x3
 1625 00d4 95       		.byte	0x95
 1626 00d5 46010000 		.4byte	0x146
 1627 00d9 0A       		.uleb128 0xa
 1628 00da 29030000 		.4byte	.LASF18
 1629 00de 03       		.byte	0x3
 1630 00df 97       		.byte	0x97
 1631 00e0 6B000000 		.4byte	0x6b
 1632 00e4 00       		.byte	0
ARM GAS  C:\Users\Terence\AppData\Local\Temp\cc65qyTh.s 			page 59


 1633 00e5 0A       		.uleb128 0xa
 1634 00e6 10040000 		.4byte	.LASF19
 1635 00ea 03       		.byte	0x3
 1636 00eb 98       		.byte	0x98
 1637 00ec 6B000000 		.4byte	0x6b
 1638 00f0 01       		.byte	0x1
 1639 00f1 0A       		.uleb128 0xa
 1640 00f2 02030000 		.4byte	.LASF20
 1641 00f6 03       		.byte	0x3
 1642 00f7 99       		.byte	0x99
 1643 00f8 6B000000 		.4byte	0x6b
 1644 00fc 02       		.byte	0x2
 1645 00fd 0A       		.uleb128 0xa
 1646 00fe 32010000 		.4byte	.LASF21
 1647 0102 03       		.byte	0x3
 1648 0103 9A       		.byte	0x9a
 1649 0104 6B000000 		.4byte	0x6b
 1650 0108 03       		.byte	0x3
 1651 0109 0A       		.uleb128 0xa
 1652 010a 6F000000 		.4byte	.LASF22
 1653 010e 03       		.byte	0x3
 1654 010f 9B       		.byte	0x9b
 1655 0110 6B000000 		.4byte	0x6b
 1656 0114 04       		.byte	0x4
 1657 0115 0A       		.uleb128 0xa
 1658 0116 7A010000 		.4byte	.LASF23
 1659 011a 03       		.byte	0x3
 1660 011b 9C       		.byte	0x9c
 1661 011c 6B000000 		.4byte	0x6b
 1662 0120 05       		.byte	0x5
 1663 0121 0A       		.uleb128 0xa
 1664 0122 1B050000 		.4byte	.LASF24
 1665 0126 03       		.byte	0x3
 1666 0127 9D       		.byte	0x9d
 1667 0128 77000000 		.4byte	0x77
 1668 012c 06       		.byte	0x6
 1669 012d 0A       		.uleb128 0xa
 1670 012e 10050000 		.4byte	.LASF25
 1671 0132 03       		.byte	0x3
 1672 0133 9E       		.byte	0x9e
 1673 0134 77000000 		.4byte	0x77
 1674 0138 08       		.byte	0x8
 1675 0139 0A       		.uleb128 0xa
 1676 013a C8020000 		.4byte	.LASF26
 1677 013e 03       		.byte	0x3
 1678 013f 9F       		.byte	0x9f
 1679 0140 6B000000 		.4byte	0x6b
 1680 0144 0A       		.byte	0xa
 1681 0145 00       		.byte	0
 1682 0146 0B       		.uleb128 0xb
 1683 0147 7E040000 		.4byte	.LASF27
 1684 014b 03       		.byte	0x3
 1685 014c A0       		.byte	0xa0
 1686 014d D1000000 		.4byte	0xd1
 1687 0151 09       		.uleb128 0x9
 1688 0152 40       		.byte	0x40
 1689 0153 03       		.byte	0x3
ARM GAS  C:\Users\Terence\AppData\Local\Temp\cc65qyTh.s 			page 60


 1690 0154 DC       		.byte	0xdc
 1691 0155 8A010000 		.4byte	0x18a
 1692 0159 0A       		.uleb128 0xa
 1693 015a E7030000 		.4byte	.LASF28
 1694 015e 03       		.byte	0x3
 1695 015f DE       		.byte	0xde
 1696 0160 83000000 		.4byte	0x83
 1697 0164 00       		.byte	0
 1698 0165 0A       		.uleb128 0xa
 1699 0166 EE030000 		.4byte	.LASF29
 1700 016a 03       		.byte	0x3
 1701 016b DF       		.byte	0xdf
 1702 016c 83000000 		.4byte	0x83
 1703 0170 04       		.byte	0x4
 1704 0171 0A       		.uleb128 0xa
 1705 0172 F5030000 		.4byte	.LASF30
 1706 0176 03       		.byte	0x3
 1707 0177 E0       		.byte	0xe0
 1708 0178 83000000 		.4byte	0x83
 1709 017c 08       		.byte	0x8
 1710 017d 0C       		.uleb128 0xc
 1711 017e 67617000 		.ascii	"gap\000"
 1712 0182 03       		.byte	0x3
 1713 0183 E1       		.byte	0xe1
 1714 0184 8A010000 		.4byte	0x18a
 1715 0188 0C       		.byte	0xc
 1716 0189 00       		.byte	0
 1717 018a 0D       		.uleb128 0xd
 1718 018b 83000000 		.4byte	0x83
 1719 018f 9A010000 		.4byte	0x19a
 1720 0193 0E       		.uleb128 0xe
 1721 0194 C8000000 		.4byte	0xc8
 1722 0198 0C       		.byte	0xc
 1723 0199 00       		.byte	0
 1724 019a 0B       		.uleb128 0xb
 1725 019b A4020000 		.4byte	.LASF31
 1726 019f 03       		.byte	0x3
 1727 01a0 E2       		.byte	0xe2
 1728 01a1 51010000 		.4byte	0x151
 1729 01a5 09       		.uleb128 0x9
 1730 01a6 40       		.byte	0x40
 1731 01a7 03       		.byte	0x3
 1732 01a8 EE       		.byte	0xee
 1733 01a9 26020000 		.4byte	0x226
 1734 01ad 0A       		.uleb128 0xa
 1735 01ae 74000000 		.4byte	.LASF32
 1736 01b2 03       		.byte	0x3
 1737 01b3 F0       		.byte	0xf0
 1738 01b4 83000000 		.4byte	0x83
 1739 01b8 00       		.byte	0
 1740 01b9 0A       		.uleb128 0xa
 1741 01ba D4050000 		.4byte	.LASF33
 1742 01be 03       		.byte	0x3
 1743 01bf F1       		.byte	0xf1
 1744 01c0 83000000 		.4byte	0x83
 1745 01c4 04       		.byte	0x4
 1746 01c5 0A       		.uleb128 0xa
ARM GAS  C:\Users\Terence\AppData\Local\Temp\cc65qyTh.s 			page 61


 1747 01c6 47010000 		.4byte	.LASF34
 1748 01ca 03       		.byte	0x3
 1749 01cb F2       		.byte	0xf2
 1750 01cc 83000000 		.4byte	0x83
 1751 01d0 08       		.byte	0x8
 1752 01d1 0A       		.uleb128 0xa
 1753 01d2 81010000 		.4byte	.LASF35
 1754 01d6 03       		.byte	0x3
 1755 01d7 F3       		.byte	0xf3
 1756 01d8 83000000 		.4byte	0x83
 1757 01dc 0C       		.byte	0xc
 1758 01dd 0A       		.uleb128 0xa
 1759 01de 3B010000 		.4byte	.LASF36
 1760 01e2 03       		.byte	0x3
 1761 01e3 F4       		.byte	0xf4
 1762 01e4 83000000 		.4byte	0x83
 1763 01e8 10       		.byte	0x10
 1764 01e9 0A       		.uleb128 0xa
 1765 01ea CC050000 		.4byte	.LASF37
 1766 01ee 03       		.byte	0x3
 1767 01ef F5       		.byte	0xf5
 1768 01f0 83000000 		.4byte	0x83
 1769 01f4 14       		.byte	0x14
 1770 01f5 0A       		.uleb128 0xa
 1771 01f6 79040000 		.4byte	.LASF38
 1772 01fa 03       		.byte	0x3
 1773 01fb F6       		.byte	0xf6
 1774 01fc 83000000 		.4byte	0x83
 1775 0200 18       		.byte	0x18
 1776 0201 0A       		.uleb128 0xa
 1777 0202 51030000 		.4byte	.LASF39
 1778 0206 03       		.byte	0x3
 1779 0207 F7       		.byte	0xf7
 1780 0208 83000000 		.4byte	0x83
 1781 020c 1C       		.byte	0x1c
 1782 020d 0A       		.uleb128 0xa
 1783 020e 67050000 		.4byte	.LASF40
 1784 0212 03       		.byte	0x3
 1785 0213 F8       		.byte	0xf8
 1786 0214 83000000 		.4byte	0x83
 1787 0218 20       		.byte	0x20
 1788 0219 0C       		.uleb128 0xc
 1789 021a 67617000 		.ascii	"gap\000"
 1790 021e 03       		.byte	0x3
 1791 021f F9       		.byte	0xf9
 1792 0220 26020000 		.4byte	0x226
 1793 0224 24       		.byte	0x24
 1794 0225 00       		.byte	0
 1795 0226 0D       		.uleb128 0xd
 1796 0227 83000000 		.4byte	0x83
 1797 022b 36020000 		.4byte	0x236
 1798 022f 0E       		.uleb128 0xe
 1799 0230 C8000000 		.4byte	0xc8
 1800 0234 06       		.byte	0x6
 1801 0235 00       		.byte	0
 1802 0236 0B       		.uleb128 0xb
 1803 0237 DF000000 		.4byte	.LASF41
ARM GAS  C:\Users\Terence\AppData\Local\Temp\cc65qyTh.s 			page 62


 1804 023b 03       		.byte	0x3
 1805 023c FA       		.byte	0xfa
 1806 023d A5010000 		.4byte	0x1a5
 1807 0241 0F       		.uleb128 0xf
 1808 0242 4002     		.2byte	0x240
 1809 0244 03       		.byte	0x3
 1810 0245 1601     		.2byte	0x116
 1811 0247 59020000 		.4byte	0x259
 1812 024b 10       		.uleb128 0x10
 1813 024c 15030000 		.4byte	.LASF42
 1814 0250 03       		.byte	0x3
 1815 0251 1801     		.2byte	0x118
 1816 0253 59020000 		.4byte	0x259
 1817 0257 00       		.byte	0
 1818 0258 00       		.byte	0
 1819 0259 0D       		.uleb128 0xd
 1820 025a 9A010000 		.4byte	0x19a
 1821 025e 69020000 		.4byte	0x269
 1822 0262 0E       		.uleb128 0xe
 1823 0263 C8000000 		.4byte	0xc8
 1824 0267 08       		.byte	0x8
 1825 0268 00       		.byte	0
 1826 0269 04       		.uleb128 0x4
 1827 026a 7A000000 		.4byte	.LASF43
 1828 026e 03       		.byte	0x3
 1829 026f 1901     		.2byte	0x119
 1830 0271 41020000 		.4byte	0x241
 1831 0275 0F       		.uleb128 0xf
 1832 0276 4002     		.2byte	0x240
 1833 0278 03       		.byte	0x3
 1834 0279 1C01     		.2byte	0x11c
 1835 027b 8D020000 		.4byte	0x28d
 1836 027f 10       		.uleb128 0x10
 1837 0280 C2020000 		.4byte	.LASF44
 1838 0284 03       		.byte	0x3
 1839 0285 1E01     		.2byte	0x11e
 1840 0287 8D020000 		.4byte	0x28d
 1841 028b 00       		.byte	0
 1842 028c 00       		.byte	0
 1843 028d 0D       		.uleb128 0xd
 1844 028e 36020000 		.4byte	0x236
 1845 0292 9D020000 		.4byte	0x29d
 1846 0296 0E       		.uleb128 0xe
 1847 0297 C8000000 		.4byte	0xc8
 1848 029b 08       		.byte	0x8
 1849 029c 00       		.byte	0
 1850 029d 04       		.uleb128 0x4
 1851 029e 8F000000 		.4byte	.LASF45
 1852 02a2 03       		.byte	0x3
 1853 02a3 1F01     		.2byte	0x11f
 1854 02a5 75020000 		.4byte	0x275
 1855 02a9 09       		.uleb128 0x9
 1856 02aa 80       		.byte	0x80
 1857 02ab 04       		.byte	0x4
 1858 02ac 26       		.byte	0x26
 1859 02ad BE020000 		.4byte	0x2be
 1860 02b1 0C       		.uleb128 0xc
ARM GAS  C:\Users\Terence\AppData\Local\Temp\cc65qyTh.s 			page 63


 1861 02b2 63746C00 		.ascii	"ctl\000"
 1862 02b6 04       		.byte	0x4
 1863 02b7 28       		.byte	0x28
 1864 02b8 BE020000 		.4byte	0x2be
 1865 02bc 00       		.byte	0
 1866 02bd 00       		.byte	0
 1867 02be 0D       		.uleb128 0xd
 1868 02bf 83000000 		.4byte	0x83
 1869 02c3 CE020000 		.4byte	0x2ce
 1870 02c7 0E       		.uleb128 0xe
 1871 02c8 C8000000 		.4byte	0xc8
 1872 02cc 1F       		.byte	0x1f
 1873 02cd 00       		.byte	0
 1874 02ce 0B       		.uleb128 0xb
 1875 02cf FC000000 		.4byte	.LASF46
 1876 02d3 04       		.byte	0x4
 1877 02d4 29       		.byte	0x29
 1878 02d5 A9020000 		.4byte	0x2a9
 1879 02d9 09       		.uleb128 0x9
 1880 02da 10       		.byte	0x10
 1881 02db 04       		.byte	0x4
 1882 02dc 2C       		.byte	0x2c
 1883 02dd 12030000 		.4byte	0x312
 1884 02e1 0C       		.uleb128 0xc
 1885 02e2 73726300 		.ascii	"src\000"
 1886 02e6 04       		.byte	0x4
 1887 02e7 2E       		.byte	0x2e
 1888 02e8 CF000000 		.4byte	0xcf
 1889 02ec 00       		.byte	0
 1890 02ed 0C       		.uleb128 0xc
 1891 02ee 64737400 		.ascii	"dst\000"
 1892 02f2 04       		.byte	0x4
 1893 02f3 2F       		.byte	0x2f
 1894 02f4 CF000000 		.4byte	0xcf
 1895 02f8 04       		.byte	0x4
 1896 02f9 0C       		.uleb128 0xc
 1897 02fa 63746C00 		.ascii	"ctl\000"
 1898 02fe 04       		.byte	0x4
 1899 02ff 30       		.byte	0x30
 1900 0300 83000000 		.4byte	0x83
 1901 0304 08       		.byte	0x8
 1902 0305 0A       		.uleb128 0xa
 1903 0306 60050000 		.4byte	.LASF47
 1904 030a 04       		.byte	0x4
 1905 030b 31       		.byte	0x31
 1906 030c 83000000 		.4byte	0x83
 1907 0310 0C       		.byte	0xc
 1908 0311 00       		.byte	0
 1909 0312 0B       		.uleb128 0xb
 1910 0313 B4050000 		.4byte	.LASF48
 1911 0317 04       		.byte	0x4
 1912 0318 32       		.byte	0x32
 1913 0319 D9020000 		.4byte	0x2d9
 1914 031d 11       		.uleb128 0x11
 1915 031e 0004     		.2byte	0x400
 1916 0320 04       		.byte	0x4
 1917 0321 38       		.byte	0x38
ARM GAS  C:\Users\Terence\AppData\Local\Temp\cc65qyTh.s 			page 64


 1918 0322 33030000 		.4byte	0x333
 1919 0326 0A       		.uleb128 0xa
 1920 0327 CF040000 		.4byte	.LASF49
 1921 032b 04       		.byte	0x4
 1922 032c 3A       		.byte	0x3a
 1923 032d 33030000 		.4byte	0x333
 1924 0331 00       		.byte	0
 1925 0332 00       		.byte	0
 1926 0333 0D       		.uleb128 0xd
 1927 0334 12030000 		.4byte	0x312
 1928 0338 49030000 		.4byte	0x349
 1929 033c 0E       		.uleb128 0xe
 1930 033d C8000000 		.4byte	0xc8
 1931 0341 1F       		.byte	0x1f
 1932 0342 0E       		.uleb128 0xe
 1933 0343 C8000000 		.4byte	0xc8
 1934 0347 01       		.byte	0x1
 1935 0348 00       		.byte	0
 1936 0349 0B       		.uleb128 0xb
 1937 034a EA050000 		.4byte	.LASF50
 1938 034e 04       		.byte	0x4
 1939 034f 3B       		.byte	0x3b
 1940 0350 1D030000 		.4byte	0x31d
 1941 0354 12       		.uleb128 0x12
 1942 0355 42030000 		.4byte	.LASF51
 1943 0359 01       		.byte	0x1
 1944 035a 1A01     		.2byte	0x11a
 1945 035c 00000000 		.4byte	.LFB165
 1946 0360 4C000000 		.4byte	.LFE165-.LFB165
 1947 0364 01       		.uleb128 0x1
 1948 0365 9C       		.byte	0x9c
 1949 0366 12       		.uleb128 0x12
 1950 0367 3B050000 		.4byte	.LASF52
 1951 036b 01       		.byte	0x1
 1952 036c BE01     		.2byte	0x1be
 1953 036e 00000000 		.4byte	.LFB166
 1954 0372 4C000000 		.4byte	.LFE166-.LFB166
 1955 0376 01       		.uleb128 0x1
 1956 0377 9C       		.byte	0x9c
 1957 0378 13       		.uleb128 0x13
 1958 0379 DC050000 		.4byte	.LASF56
 1959 037d 01       		.byte	0x1
 1960 037e 1003     		.2byte	0x310
 1961 0380 00000000 		.4byte	.LFB169
 1962 0384 78010000 		.4byte	.LFE169-.LFB169
 1963 0388 01       		.uleb128 0x1
 1964 0389 9C       		.byte	0x9c
 1965 038a D6030000 		.4byte	0x3d6
 1966 038e 14       		.uleb128 0x14
 1967 038f 1B030000 		.4byte	.LASF53
 1968 0393 01       		.byte	0x1
 1969 0394 1203     		.2byte	0x312
 1970 0396 83000000 		.4byte	0x83
 1971 039a 01       		.uleb128 0x1
 1972 039b 52       		.byte	0x52
 1973 039c 15       		.uleb128 0x15
 1974 039d FC040000 		.4byte	.LASF54
ARM GAS  C:\Users\Terence\AppData\Local\Temp\cc65qyTh.s 			page 65


 1975 03a1 01       		.byte	0x1
 1976 03a2 1303     		.2byte	0x313
 1977 03a4 83000000 		.4byte	0x83
 1978 03a8 00000000 		.4byte	.LLST0
 1979 03ac 16       		.uleb128 0x16
 1980 03ad 657000   		.ascii	"ep\000"
 1981 03b0 01       		.byte	0x1
 1982 03b1 1403     		.2byte	0x314
 1983 03b3 83000000 		.4byte	0x83
 1984 03b7 13000000 		.4byte	.LLST1
 1985 03bb 17       		.uleb128 0x17
 1986 03bc 5A000000 		.4byte	.LBB2
 1987 03c0 CA000000 		.4byte	.LBE2-.LBB2
 1988 03c4 15       		.uleb128 0x15
 1989 03c5 05050000 		.4byte	.LASF55
 1990 03c9 01       		.byte	0x1
 1991 03ca 5E03     		.2byte	0x35e
 1992 03cc 83000000 		.4byte	0x83
 1993 03d0 32000000 		.4byte	.LLST2
 1994 03d4 00       		.byte	0
 1995 03d5 00       		.byte	0
 1996 03d6 18       		.uleb128 0x18
 1997 03d7 53040000 		.4byte	.LASF57
 1998 03db 01       		.byte	0x1
 1999 03dc 25       		.byte	0x25
 2000 03dd 00000000 		.4byte	.LFB162
 2001 03e1 44000000 		.4byte	.LFE162-.LFB162
 2002 03e5 01       		.uleb128 0x1
 2003 03e6 9C       		.byte	0x9c
 2004 03e7 F5030000 		.4byte	0x3f5
 2005 03eb 19       		.uleb128 0x19
 2006 03ec 06000000 		.4byte	.LVL10
 2007 03f0 5A070000 		.4byte	0x75a
 2008 03f4 00       		.byte	0
 2009 03f5 18       		.uleb128 0x18
 2010 03f6 01040000 		.4byte	.LASF58
 2011 03fa 01       		.byte	0x1
 2012 03fb 78       		.byte	0x78
 2013 03fc 00000000 		.4byte	.LFB163
 2014 0400 48000000 		.4byte	.LFE163-.LFB163
 2015 0404 01       		.uleb128 0x1
 2016 0405 9C       		.byte	0x9c
 2017 0406 14040000 		.4byte	0x414
 2018 040a 19       		.uleb128 0x19
 2019 040b 06000000 		.4byte	.LVL11
 2020 040f 61070000 		.4byte	0x761
 2021 0413 00       		.byte	0
 2022 0414 18       		.uleb128 0x18
 2023 0415 10000000 		.4byte	.LASF59
 2024 0419 01       		.byte	0x1
 2025 041a C9       		.byte	0xc9
 2026 041b 00000000 		.4byte	.LFB164
 2027 041f 50000000 		.4byte	.LFE164-.LFB164
 2028 0423 01       		.uleb128 0x1
 2029 0424 9C       		.byte	0x9c
 2030 0425 39040000 		.4byte	0x439
 2031 0429 1A       		.uleb128 0x1a
ARM GAS  C:\Users\Terence\AppData\Local\Temp\cc65qyTh.s 			page 66


 2032 042a 08000000 		.4byte	.LVL12
 2033 042e 68070000 		.4byte	0x768
 2034 0432 1B       		.uleb128 0x1b
 2035 0433 01       		.uleb128 0x1
 2036 0434 50       		.byte	0x50
 2037 0435 01       		.uleb128 0x1
 2038 0436 31       		.byte	0x31
 2039 0437 00       		.byte	0
 2040 0438 00       		.byte	0
 2041 0439 13       		.uleb128 0x13
 2042 043a 3A020000 		.4byte	.LASF60
 2043 043e 01       		.byte	0x1
 2044 043f B502     		.2byte	0x2b5
 2045 0441 00000000 		.4byte	.LFB167
 2046 0445 14000000 		.4byte	.LFE167-.LFB167
 2047 0449 01       		.uleb128 0x1
 2048 044a 9C       		.byte	0x9c
 2049 044b 59040000 		.4byte	0x459
 2050 044f 19       		.uleb128 0x19
 2051 0450 06000000 		.4byte	.LVL13
 2052 0454 79070000 		.4byte	0x779
 2053 0458 00       		.byte	0
 2054 0459 13       		.uleb128 0x13
 2055 045a 4C010000 		.4byte	.LASF61
 2056 045e 01       		.byte	0x1
 2057 045f D202     		.2byte	0x2d2
 2058 0461 00000000 		.4byte	.LFB168
 2059 0465 14000000 		.4byte	.LFE168-.LFB168
 2060 0469 01       		.uleb128 0x1
 2061 046a 9C       		.byte	0x9c
 2062 046b 79040000 		.4byte	0x479
 2063 046f 19       		.uleb128 0x19
 2064 0470 0C000000 		.4byte	.LVL14
 2065 0474 80070000 		.4byte	0x780
 2066 0478 00       		.byte	0
 2067 0479 13       		.uleb128 0x13
 2068 047a 62040000 		.4byte	.LASF62
 2069 047e 01       		.byte	0x1
 2070 047f BE03     		.2byte	0x3be
 2071 0481 00000000 		.4byte	.LFB170
 2072 0485 A8000000 		.4byte	.LFE170-.LFB170
 2073 0489 01       		.uleb128 0x1
 2074 048a 9C       		.byte	0x9c
 2075 048b A0040000 		.4byte	0x4a0
 2076 048f 15       		.uleb128 0x15
 2077 0490 00000000 		.4byte	.LASF63
 2078 0494 01       		.byte	0x1
 2079 0495 C003     		.2byte	0x3c0
 2080 0497 83000000 		.4byte	0x83
 2081 049b 45000000 		.4byte	.LLST3
 2082 049f 00       		.byte	0
 2083 04a0 13       		.uleb128 0x13
 2084 04a1 1B010000 		.4byte	.LASF64
 2085 04a5 01       		.byte	0x1
 2086 04a6 F903     		.2byte	0x3f9
 2087 04a8 00000000 		.4byte	.LFB171
 2088 04ac A8000000 		.4byte	.LFE171-.LFB171
ARM GAS  C:\Users\Terence\AppData\Local\Temp\cc65qyTh.s 			page 67


 2089 04b0 01       		.uleb128 0x1
 2090 04b1 9C       		.byte	0x9c
 2091 04b2 C7040000 		.4byte	0x4c7
 2092 04b6 15       		.uleb128 0x15
 2093 04b7 00000000 		.4byte	.LASF63
 2094 04bb 01       		.byte	0x1
 2095 04bc FB03     		.2byte	0x3fb
 2096 04be 83000000 		.4byte	0x83
 2097 04c2 8F000000 		.4byte	.LLST4
 2098 04c6 00       		.byte	0
 2099 04c7 13       		.uleb128 0x13
 2100 04c8 3B000000 		.4byte	.LASF65
 2101 04cc 01       		.byte	0x1
 2102 04cd 3404     		.2byte	0x434
 2103 04cf 00000000 		.4byte	.LFB172
 2104 04d3 A8000000 		.4byte	.LFE172-.LFB172
 2105 04d7 01       		.uleb128 0x1
 2106 04d8 9C       		.byte	0x9c
 2107 04d9 EE040000 		.4byte	0x4ee
 2108 04dd 15       		.uleb128 0x15
 2109 04de 00000000 		.4byte	.LASF63
 2110 04e2 01       		.byte	0x1
 2111 04e3 3604     		.2byte	0x436
 2112 04e5 83000000 		.4byte	0x83
 2113 04e9 D9000000 		.4byte	.LLST5
 2114 04ed 00       		.byte	0
 2115 04ee 13       		.uleb128 0x13
 2116 04ef 89050000 		.4byte	.LASF66
 2117 04f3 01       		.byte	0x1
 2118 04f4 6F04     		.2byte	0x46f
 2119 04f6 00000000 		.4byte	.LFB173
 2120 04fa A8000000 		.4byte	.LFE173-.LFB173
 2121 04fe 01       		.uleb128 0x1
 2122 04ff 9C       		.byte	0x9c
 2123 0500 15050000 		.4byte	0x515
 2124 0504 15       		.uleb128 0x15
 2125 0505 00000000 		.4byte	.LASF63
 2126 0509 01       		.byte	0x1
 2127 050a 7104     		.2byte	0x471
 2128 050c 83000000 		.4byte	0x83
 2129 0510 23010000 		.4byte	.LLST6
 2130 0514 00       		.byte	0
 2131 0515 13       		.uleb128 0x13
 2132 0516 1B040000 		.4byte	.LASF67
 2133 051a 01       		.byte	0x1
 2134 051b E504     		.2byte	0x4e5
 2135 051d 00000000 		.4byte	.LFB174
 2136 0521 A8000000 		.4byte	.LFE174-.LFB174
 2137 0525 01       		.uleb128 0x1
 2138 0526 9C       		.byte	0x9c
 2139 0527 3C050000 		.4byte	0x53c
 2140 052b 15       		.uleb128 0x15
 2141 052c 00000000 		.4byte	.LASF63
 2142 0530 01       		.byte	0x1
 2143 0531 E704     		.2byte	0x4e7
 2144 0533 83000000 		.4byte	0x83
 2145 0537 6D010000 		.4byte	.LLST7
ARM GAS  C:\Users\Terence\AppData\Local\Temp\cc65qyTh.s 			page 68


 2146 053b 00       		.byte	0
 2147 053c 1C       		.uleb128 0x1c
 2148 053d 30030000 		.4byte	.LASF88
 2149 0541 01       		.byte	0x1
 2150 0542 F005     		.2byte	0x5f0
 2151 0544 03       		.byte	0x3
 2152 0545 6E050000 		.4byte	0x56e
 2153 0549 1D       		.uleb128 0x1d
 2154 054a B8020000 		.4byte	.LASF89
 2155 054e 01       		.byte	0x1
 2156 054f F005     		.2byte	0x5f0
 2157 0551 83000000 		.4byte	0x83
 2158 0555 1E       		.uleb128 0x1e
 2159 0556 60010000 		.4byte	.LASF68
 2160 055a 01       		.byte	0x1
 2161 055b F305     		.2byte	0x5f3
 2162 055d 7E050000 		.4byte	0x57e
 2163 0561 1E       		.uleb128 0x1e
 2164 0562 52000000 		.4byte	.LASF69
 2165 0566 01       		.byte	0x1
 2166 0567 0406     		.2byte	0x604
 2167 0569 83000000 		.4byte	0x83
 2168 056d 00       		.byte	0
 2169 056e 0D       		.uleb128 0xd
 2170 056f B5000000 		.4byte	0xb5
 2171 0573 7E050000 		.4byte	0x57e
 2172 0577 0E       		.uleb128 0xe
 2173 0578 C8000000 		.4byte	0xc8
 2174 057c 0C       		.byte	0xc
 2175 057d 00       		.byte	0
 2176 057e 1F       		.uleb128 0x1f
 2177 057f 6E050000 		.4byte	0x56e
 2178 0583 13       		.uleb128 0x13
 2179 0584 CD000000 		.4byte	.LASF70
 2180 0588 01       		.byte	0x1
 2181 0589 2706     		.2byte	0x627
 2182 058b 00000000 		.4byte	.LFB176
 2183 058f 40000000 		.4byte	.LFE176-.LFB176
 2184 0593 01       		.uleb128 0x1
 2185 0594 9C       		.byte	0x9c
 2186 0595 EC050000 		.4byte	0x5ec
 2187 0599 20       		.uleb128 0x20
 2188 059a 3C050000 		.4byte	0x53c
 2189 059e 06000000 		.4byte	.LBB5
 2190 05a2 2E000000 		.4byte	.LBE5-.LBB5
 2191 05a6 01       		.byte	0x1
 2192 05a7 2906     		.2byte	0x629
 2193 05a9 21       		.uleb128 0x21
 2194 05aa 49050000 		.4byte	0x549
 2195 05ae B7010000 		.4byte	.LLST8
 2196 05b2 17       		.uleb128 0x17
 2197 05b3 06000000 		.4byte	.LBB6
 2198 05b7 2E000000 		.4byte	.LBE6-.LBB6
 2199 05bb 22       		.uleb128 0x22
 2200 05bc 61050000 		.4byte	0x561
 2201 05c0 D5010000 		.4byte	.LLST9
 2202 05c4 23       		.uleb128 0x23
ARM GAS  C:\Users\Terence\AppData\Local\Temp\cc65qyTh.s 			page 69


 2203 05c5 55050000 		.4byte	0x555
 2204 05c9 05       		.uleb128 0x5
 2205 05ca 03       		.byte	0x3
 2206 05cb 00000000 		.4byte	USBFS_isrCallbacks.6238
 2207 05cf 19       		.uleb128 0x19
 2208 05d0 0E000000 		.4byte	.LVL56
 2209 05d4 78030000 		.4byte	0x378
 2210 05d8 24       		.uleb128 0x24
 2211 05d9 2C000000 		.4byte	.LVL59
 2212 05dd 0B       		.uleb128 0xb
 2213 05de 75       		.byte	0x75
 2214 05df 00       		.sleb128 0
 2215 05e0 32       		.byte	0x32
 2216 05e1 24       		.byte	0x24
 2217 05e2 03       		.byte	0x3
 2218 05e3 00000000 		.4byte	.LANCHOR0
 2219 05e7 22       		.byte	0x22
 2220 05e8 06       		.byte	0x6
 2221 05e9 00       		.byte	0
 2222 05ea 00       		.byte	0
 2223 05eb 00       		.byte	0
 2224 05ec 13       		.uleb128 0x13
 2225 05ed 93040000 		.4byte	.LASF71
 2226 05f1 01       		.byte	0x1
 2227 05f2 3406     		.2byte	0x634
 2228 05f4 00000000 		.4byte	.LFB177
 2229 05f8 40000000 		.4byte	.LFE177-.LFB177
 2230 05fc 01       		.uleb128 0x1
 2231 05fd 9C       		.byte	0x9c
 2232 05fe 55060000 		.4byte	0x655
 2233 0602 20       		.uleb128 0x20
 2234 0603 3C050000 		.4byte	0x53c
 2235 0607 06000000 		.4byte	.LBB9
 2236 060b 2E000000 		.4byte	.LBE9-.LBB9
 2237 060f 01       		.byte	0x1
 2238 0610 3606     		.2byte	0x636
 2239 0612 21       		.uleb128 0x21
 2240 0613 49050000 		.4byte	0x549
 2241 0617 F4010000 		.4byte	.LLST10
 2242 061b 17       		.uleb128 0x17
 2243 061c 06000000 		.4byte	.LBB10
 2244 0620 2E000000 		.4byte	.LBE10-.LBB10
 2245 0624 22       		.uleb128 0x22
 2246 0625 61050000 		.4byte	0x561
 2247 0629 12020000 		.4byte	.LLST11
 2248 062d 23       		.uleb128 0x23
 2249 062e 55050000 		.4byte	0x555
 2250 0632 05       		.uleb128 0x5
 2251 0633 03       		.byte	0x3
 2252 0634 00000000 		.4byte	USBFS_isrCallbacks.6238
 2253 0638 19       		.uleb128 0x19
 2254 0639 0E000000 		.4byte	.LVL65
 2255 063d 78030000 		.4byte	0x378
 2256 0641 24       		.uleb128 0x24
 2257 0642 2C000000 		.4byte	.LVL68
 2258 0646 0B       		.uleb128 0xb
 2259 0647 75       		.byte	0x75
ARM GAS  C:\Users\Terence\AppData\Local\Temp\cc65qyTh.s 			page 70


 2260 0648 00       		.sleb128 0
 2261 0649 32       		.byte	0x32
 2262 064a 24       		.byte	0x24
 2263 064b 03       		.byte	0x3
 2264 064c 00000000 		.4byte	.LANCHOR0
 2265 0650 22       		.byte	0x22
 2266 0651 06       		.byte	0x6
 2267 0652 00       		.byte	0
 2268 0653 00       		.byte	0
 2269 0654 00       		.byte	0
 2270 0655 13       		.uleb128 0x13
 2271 0656 BD040000 		.4byte	.LASF72
 2272 065a 01       		.byte	0x1
 2273 065b 4106     		.2byte	0x641
 2274 065d 00000000 		.4byte	.LFB178
 2275 0661 40000000 		.4byte	.LFE178-.LFB178
 2276 0665 01       		.uleb128 0x1
 2277 0666 9C       		.byte	0x9c
 2278 0667 BE060000 		.4byte	0x6be
 2279 066b 20       		.uleb128 0x20
 2280 066c 3C050000 		.4byte	0x53c
 2281 0670 06000000 		.4byte	.LBB13
 2282 0674 2E000000 		.4byte	.LBE13-.LBB13
 2283 0678 01       		.byte	0x1
 2284 0679 4306     		.2byte	0x643
 2285 067b 21       		.uleb128 0x21
 2286 067c 49050000 		.4byte	0x549
 2287 0680 31020000 		.4byte	.LLST12
 2288 0684 17       		.uleb128 0x17
 2289 0685 06000000 		.4byte	.LBB14
 2290 0689 2E000000 		.4byte	.LBE14-.LBB14
 2291 068d 22       		.uleb128 0x22
 2292 068e 61050000 		.4byte	0x561
 2293 0692 4F020000 		.4byte	.LLST13
 2294 0696 23       		.uleb128 0x23
 2295 0697 55050000 		.4byte	0x555
 2296 069b 05       		.uleb128 0x5
 2297 069c 03       		.byte	0x3
 2298 069d 00000000 		.4byte	USBFS_isrCallbacks.6238
 2299 06a1 19       		.uleb128 0x19
 2300 06a2 0E000000 		.4byte	.LVL74
 2301 06a6 78030000 		.4byte	0x378
 2302 06aa 24       		.uleb128 0x24
 2303 06ab 2C000000 		.4byte	.LVL77
 2304 06af 0B       		.uleb128 0xb
 2305 06b0 75       		.byte	0x75
 2306 06b1 00       		.sleb128 0
 2307 06b2 32       		.byte	0x32
 2308 06b3 24       		.byte	0x24
 2309 06b4 03       		.byte	0x3
 2310 06b5 00000000 		.4byte	.LANCHOR0
 2311 06b9 22       		.byte	0x22
 2312 06ba 06       		.byte	0x6
 2313 06bb 00       		.byte	0
 2314 06bc 00       		.byte	0
 2315 06bd 00       		.byte	0
 2316 06be 0D       		.uleb128 0xd
ARM GAS  C:\Users\Terence\AppData\Local\Temp\cc65qyTh.s 			page 71


 2317 06bf 46010000 		.4byte	0x146
 2318 06c3 CE060000 		.4byte	0x6ce
 2319 06c7 0E       		.uleb128 0xe
 2320 06c8 C8000000 		.4byte	0xc8
 2321 06cc 08       		.byte	0x8
 2322 06cd 00       		.byte	0
 2323 06ce 25       		.uleb128 0x25
 2324 06cf 32040000 		.4byte	.LASF73
 2325 06d3 05       		.byte	0x5
 2326 06d4 80       		.byte	0x80
 2327 06d5 D9060000 		.4byte	0x6d9
 2328 06d9 05       		.uleb128 0x5
 2329 06da BE060000 		.4byte	0x6be
 2330 06de 0D       		.uleb128 0xd
 2331 06df 6B000000 		.4byte	0x6b
 2332 06e3 EE060000 		.4byte	0x6ee
 2333 06e7 0E       		.uleb128 0xe
 2334 06e8 C8000000 		.4byte	0xc8
 2335 06ec 08       		.byte	0x8
 2336 06ed 00       		.byte	0
 2337 06ee 25       		.uleb128 0x25
 2338 06ef 48020000 		.4byte	.LASF74
 2339 06f3 05       		.byte	0x5
 2340 06f4 85       		.byte	0x85
 2341 06f5 F9060000 		.4byte	0x6f9
 2342 06f9 1F       		.uleb128 0x1f
 2343 06fa DE060000 		.4byte	0x6de
 2344 06fe 25       		.uleb128 0x25
 2345 06ff 56020000 		.4byte	.LASF75
 2346 0703 05       		.byte	0x5
 2347 0704 8E       		.byte	0x8e
 2348 0705 DE060000 		.4byte	0x6de
 2349 0709 25       		.uleb128 0x25
 2350 070a A6040000 		.4byte	.LASF76
 2351 070e 05       		.byte	0x5
 2352 070f 8F       		.byte	0x8f
 2353 0710 DE060000 		.4byte	0x6de
 2354 0714 25       		.uleb128 0x25
 2355 0715 E2020000 		.4byte	.LASF77
 2356 0719 05       		.byte	0x5
 2357 071a 91       		.byte	0x91
 2358 071b DE060000 		.4byte	0x6de
 2359 071f 0D       		.uleb128 0xd
 2360 0720 83000000 		.4byte	0x83
 2361 0724 2F070000 		.4byte	0x72f
 2362 0728 0E       		.uleb128 0xe
 2363 0729 C8000000 		.4byte	0xc8
 2364 072d 08       		.byte	0x8
 2365 072e 00       		.byte	0
 2366 072f 25       		.uleb128 0x25
 2367 0730 1F000000 		.4byte	.LASF78
 2368 0734 05       		.byte	0x5
 2369 0735 92       		.byte	0x92
 2370 0736 1F070000 		.4byte	0x71f
 2371 073a 25       		.uleb128 0x25
 2372 073b D2020000 		.4byte	.LASF79
 2373 073f 05       		.byte	0x5
ARM GAS  C:\Users\Terence\AppData\Local\Temp\cc65qyTh.s 			page 72


 2374 0740 94       		.byte	0x94
 2375 0741 45070000 		.4byte	0x745
 2376 0745 1F       		.uleb128 0x1f
 2377 0746 DE060000 		.4byte	0x6de
 2378 074a 25       		.uleb128 0x25
 2379 074b 26050000 		.4byte	.LASF80
 2380 074f 05       		.byte	0x5
 2381 0750 95       		.byte	0x95
 2382 0751 55070000 		.4byte	0x755
 2383 0755 1F       		.uleb128 0x1f
 2384 0756 DE060000 		.4byte	0x6de
 2385 075a 26       		.uleb128 0x26
 2386 075b DF040000 		.4byte	.LASF81
 2387 075f 06       		.byte	0x6
 2388 0760 29       		.byte	0x29
 2389 0761 26       		.uleb128 0x26
 2390 0762 A4000000 		.4byte	.LASF82
 2391 0766 06       		.byte	0x6
 2392 0767 2A       		.byte	0x2a
 2393 0768 27       		.uleb128 0x27
 2394 0769 6C050000 		.4byte	.LASF90
 2395 076d 06       		.byte	0x6
 2396 076e 2B       		.byte	0x2b
 2397 076f 79070000 		.4byte	0x779
 2398 0773 28       		.uleb128 0x28
 2399 0774 48000000 		.4byte	0x48
 2400 0778 00       		.byte	0
 2401 0779 26       		.uleb128 0x26
 2402 077a A0050000 		.4byte	.LASF83
 2403 077e 06       		.byte	0x6
 2404 077f 2C       		.byte	0x2c
 2405 0780 26       		.uleb128 0x26
 2406 0781 4A050000 		.4byte	.LASF84
 2407 0785 05       		.byte	0x5
 2408 0786 AB       		.byte	0xab
 2409 0787 00       		.byte	0
 2410              		.section	.debug_abbrev,"",%progbits
 2411              	.Ldebug_abbrev0:
 2412 0000 01       		.uleb128 0x1
 2413 0001 11       		.uleb128 0x11
 2414 0002 01       		.byte	0x1
 2415 0003 25       		.uleb128 0x25
 2416 0004 0E       		.uleb128 0xe
 2417 0005 13       		.uleb128 0x13
 2418 0006 0B       		.uleb128 0xb
 2419 0007 03       		.uleb128 0x3
 2420 0008 0E       		.uleb128 0xe
 2421 0009 1B       		.uleb128 0x1b
 2422 000a 0E       		.uleb128 0xe
 2423 000b 55       		.uleb128 0x55
 2424 000c 17       		.uleb128 0x17
 2425 000d 11       		.uleb128 0x11
 2426 000e 01       		.uleb128 0x1
 2427 000f 10       		.uleb128 0x10
 2428 0010 17       		.uleb128 0x17
 2429 0011 00       		.byte	0
 2430 0012 00       		.byte	0
ARM GAS  C:\Users\Terence\AppData\Local\Temp\cc65qyTh.s 			page 73


 2431 0013 02       		.uleb128 0x2
 2432 0014 24       		.uleb128 0x24
 2433 0015 00       		.byte	0
 2434 0016 0B       		.uleb128 0xb
 2435 0017 0B       		.uleb128 0xb
 2436 0018 3E       		.uleb128 0x3e
 2437 0019 0B       		.uleb128 0xb
 2438 001a 03       		.uleb128 0x3
 2439 001b 0E       		.uleb128 0xe
 2440 001c 00       		.byte	0
 2441 001d 00       		.byte	0
 2442 001e 03       		.uleb128 0x3
 2443 001f 24       		.uleb128 0x24
 2444 0020 00       		.byte	0
 2445 0021 0B       		.uleb128 0xb
 2446 0022 0B       		.uleb128 0xb
 2447 0023 3E       		.uleb128 0x3e
 2448 0024 0B       		.uleb128 0xb
 2449 0025 03       		.uleb128 0x3
 2450 0026 08       		.uleb128 0x8
 2451 0027 00       		.byte	0
 2452 0028 00       		.byte	0
 2453 0029 04       		.uleb128 0x4
 2454 002a 16       		.uleb128 0x16
 2455 002b 00       		.byte	0
 2456 002c 03       		.uleb128 0x3
 2457 002d 0E       		.uleb128 0xe
 2458 002e 3A       		.uleb128 0x3a
 2459 002f 0B       		.uleb128 0xb
 2460 0030 3B       		.uleb128 0x3b
 2461 0031 05       		.uleb128 0x5
 2462 0032 49       		.uleb128 0x49
 2463 0033 13       		.uleb128 0x13
 2464 0034 00       		.byte	0
 2465 0035 00       		.byte	0
 2466 0036 05       		.uleb128 0x5
 2467 0037 35       		.uleb128 0x35
 2468 0038 00       		.byte	0
 2469 0039 49       		.uleb128 0x49
 2470 003a 13       		.uleb128 0x13
 2471 003b 00       		.byte	0
 2472 003c 00       		.byte	0
 2473 003d 06       		.uleb128 0x6
 2474 003e 0F       		.uleb128 0xf
 2475 003f 00       		.byte	0
 2476 0040 0B       		.uleb128 0xb
 2477 0041 0B       		.uleb128 0xb
 2478 0042 49       		.uleb128 0x49
 2479 0043 13       		.uleb128 0x13
 2480 0044 00       		.byte	0
 2481 0045 00       		.byte	0
 2482 0046 07       		.uleb128 0x7
 2483 0047 15       		.uleb128 0x15
 2484 0048 00       		.byte	0
 2485 0049 27       		.uleb128 0x27
 2486 004a 19       		.uleb128 0x19
 2487 004b 00       		.byte	0
ARM GAS  C:\Users\Terence\AppData\Local\Temp\cc65qyTh.s 			page 74


 2488 004c 00       		.byte	0
 2489 004d 08       		.uleb128 0x8
 2490 004e 0F       		.uleb128 0xf
 2491 004f 00       		.byte	0
 2492 0050 0B       		.uleb128 0xb
 2493 0051 0B       		.uleb128 0xb
 2494 0052 00       		.byte	0
 2495 0053 00       		.byte	0
 2496 0054 09       		.uleb128 0x9
 2497 0055 13       		.uleb128 0x13
 2498 0056 01       		.byte	0x1
 2499 0057 0B       		.uleb128 0xb
 2500 0058 0B       		.uleb128 0xb
 2501 0059 3A       		.uleb128 0x3a
 2502 005a 0B       		.uleb128 0xb
 2503 005b 3B       		.uleb128 0x3b
 2504 005c 0B       		.uleb128 0xb
 2505 005d 01       		.uleb128 0x1
 2506 005e 13       		.uleb128 0x13
 2507 005f 00       		.byte	0
 2508 0060 00       		.byte	0
 2509 0061 0A       		.uleb128 0xa
 2510 0062 0D       		.uleb128 0xd
 2511 0063 00       		.byte	0
 2512 0064 03       		.uleb128 0x3
 2513 0065 0E       		.uleb128 0xe
 2514 0066 3A       		.uleb128 0x3a
 2515 0067 0B       		.uleb128 0xb
 2516 0068 3B       		.uleb128 0x3b
 2517 0069 0B       		.uleb128 0xb
 2518 006a 49       		.uleb128 0x49
 2519 006b 13       		.uleb128 0x13
 2520 006c 38       		.uleb128 0x38
 2521 006d 0B       		.uleb128 0xb
 2522 006e 00       		.byte	0
 2523 006f 00       		.byte	0
 2524 0070 0B       		.uleb128 0xb
 2525 0071 16       		.uleb128 0x16
 2526 0072 00       		.byte	0
 2527 0073 03       		.uleb128 0x3
 2528 0074 0E       		.uleb128 0xe
 2529 0075 3A       		.uleb128 0x3a
 2530 0076 0B       		.uleb128 0xb
 2531 0077 3B       		.uleb128 0x3b
 2532 0078 0B       		.uleb128 0xb
 2533 0079 49       		.uleb128 0x49
 2534 007a 13       		.uleb128 0x13
 2535 007b 00       		.byte	0
 2536 007c 00       		.byte	0
 2537 007d 0C       		.uleb128 0xc
 2538 007e 0D       		.uleb128 0xd
 2539 007f 00       		.byte	0
 2540 0080 03       		.uleb128 0x3
 2541 0081 08       		.uleb128 0x8
 2542 0082 3A       		.uleb128 0x3a
 2543 0083 0B       		.uleb128 0xb
 2544 0084 3B       		.uleb128 0x3b
ARM GAS  C:\Users\Terence\AppData\Local\Temp\cc65qyTh.s 			page 75


 2545 0085 0B       		.uleb128 0xb
 2546 0086 49       		.uleb128 0x49
 2547 0087 13       		.uleb128 0x13
 2548 0088 38       		.uleb128 0x38
 2549 0089 0B       		.uleb128 0xb
 2550 008a 00       		.byte	0
 2551 008b 00       		.byte	0
 2552 008c 0D       		.uleb128 0xd
 2553 008d 01       		.uleb128 0x1
 2554 008e 01       		.byte	0x1
 2555 008f 49       		.uleb128 0x49
 2556 0090 13       		.uleb128 0x13
 2557 0091 01       		.uleb128 0x1
 2558 0092 13       		.uleb128 0x13
 2559 0093 00       		.byte	0
 2560 0094 00       		.byte	0
 2561 0095 0E       		.uleb128 0xe
 2562 0096 21       		.uleb128 0x21
 2563 0097 00       		.byte	0
 2564 0098 49       		.uleb128 0x49
 2565 0099 13       		.uleb128 0x13
 2566 009a 2F       		.uleb128 0x2f
 2567 009b 0B       		.uleb128 0xb
 2568 009c 00       		.byte	0
 2569 009d 00       		.byte	0
 2570 009e 0F       		.uleb128 0xf
 2571 009f 13       		.uleb128 0x13
 2572 00a0 01       		.byte	0x1
 2573 00a1 0B       		.uleb128 0xb
 2574 00a2 05       		.uleb128 0x5
 2575 00a3 3A       		.uleb128 0x3a
 2576 00a4 0B       		.uleb128 0xb
 2577 00a5 3B       		.uleb128 0x3b
 2578 00a6 05       		.uleb128 0x5
 2579 00a7 01       		.uleb128 0x1
 2580 00a8 13       		.uleb128 0x13
 2581 00a9 00       		.byte	0
 2582 00aa 00       		.byte	0
 2583 00ab 10       		.uleb128 0x10
 2584 00ac 0D       		.uleb128 0xd
 2585 00ad 00       		.byte	0
 2586 00ae 03       		.uleb128 0x3
 2587 00af 0E       		.uleb128 0xe
 2588 00b0 3A       		.uleb128 0x3a
 2589 00b1 0B       		.uleb128 0xb
 2590 00b2 3B       		.uleb128 0x3b
 2591 00b3 05       		.uleb128 0x5
 2592 00b4 49       		.uleb128 0x49
 2593 00b5 13       		.uleb128 0x13
 2594 00b6 38       		.uleb128 0x38
 2595 00b7 0B       		.uleb128 0xb
 2596 00b8 00       		.byte	0
 2597 00b9 00       		.byte	0
 2598 00ba 11       		.uleb128 0x11
 2599 00bb 13       		.uleb128 0x13
 2600 00bc 01       		.byte	0x1
 2601 00bd 0B       		.uleb128 0xb
ARM GAS  C:\Users\Terence\AppData\Local\Temp\cc65qyTh.s 			page 76


 2602 00be 05       		.uleb128 0x5
 2603 00bf 3A       		.uleb128 0x3a
 2604 00c0 0B       		.uleb128 0xb
 2605 00c1 3B       		.uleb128 0x3b
 2606 00c2 0B       		.uleb128 0xb
 2607 00c3 01       		.uleb128 0x1
 2608 00c4 13       		.uleb128 0x13
 2609 00c5 00       		.byte	0
 2610 00c6 00       		.byte	0
 2611 00c7 12       		.uleb128 0x12
 2612 00c8 2E       		.uleb128 0x2e
 2613 00c9 00       		.byte	0
 2614 00ca 3F       		.uleb128 0x3f
 2615 00cb 19       		.uleb128 0x19
 2616 00cc 03       		.uleb128 0x3
 2617 00cd 0E       		.uleb128 0xe
 2618 00ce 3A       		.uleb128 0x3a
 2619 00cf 0B       		.uleb128 0xb
 2620 00d0 3B       		.uleb128 0x3b
 2621 00d1 05       		.uleb128 0x5
 2622 00d2 27       		.uleb128 0x27
 2623 00d3 19       		.uleb128 0x19
 2624 00d4 11       		.uleb128 0x11
 2625 00d5 01       		.uleb128 0x1
 2626 00d6 12       		.uleb128 0x12
 2627 00d7 06       		.uleb128 0x6
 2628 00d8 40       		.uleb128 0x40
 2629 00d9 18       		.uleb128 0x18
 2630 00da 9742     		.uleb128 0x2117
 2631 00dc 19       		.uleb128 0x19
 2632 00dd 00       		.byte	0
 2633 00de 00       		.byte	0
 2634 00df 13       		.uleb128 0x13
 2635 00e0 2E       		.uleb128 0x2e
 2636 00e1 01       		.byte	0x1
 2637 00e2 3F       		.uleb128 0x3f
 2638 00e3 19       		.uleb128 0x19
 2639 00e4 03       		.uleb128 0x3
 2640 00e5 0E       		.uleb128 0xe
 2641 00e6 3A       		.uleb128 0x3a
 2642 00e7 0B       		.uleb128 0xb
 2643 00e8 3B       		.uleb128 0x3b
 2644 00e9 05       		.uleb128 0x5
 2645 00ea 27       		.uleb128 0x27
 2646 00eb 19       		.uleb128 0x19
 2647 00ec 11       		.uleb128 0x11
 2648 00ed 01       		.uleb128 0x1
 2649 00ee 12       		.uleb128 0x12
 2650 00ef 06       		.uleb128 0x6
 2651 00f0 40       		.uleb128 0x40
 2652 00f1 18       		.uleb128 0x18
 2653 00f2 9742     		.uleb128 0x2117
 2654 00f4 19       		.uleb128 0x19
 2655 00f5 01       		.uleb128 0x1
 2656 00f6 13       		.uleb128 0x13
 2657 00f7 00       		.byte	0
 2658 00f8 00       		.byte	0
ARM GAS  C:\Users\Terence\AppData\Local\Temp\cc65qyTh.s 			page 77


 2659 00f9 14       		.uleb128 0x14
 2660 00fa 34       		.uleb128 0x34
 2661 00fb 00       		.byte	0
 2662 00fc 03       		.uleb128 0x3
 2663 00fd 0E       		.uleb128 0xe
 2664 00fe 3A       		.uleb128 0x3a
 2665 00ff 0B       		.uleb128 0xb
 2666 0100 3B       		.uleb128 0x3b
 2667 0101 05       		.uleb128 0x5
 2668 0102 49       		.uleb128 0x49
 2669 0103 13       		.uleb128 0x13
 2670 0104 02       		.uleb128 0x2
 2671 0105 18       		.uleb128 0x18
 2672 0106 00       		.byte	0
 2673 0107 00       		.byte	0
 2674 0108 15       		.uleb128 0x15
 2675 0109 34       		.uleb128 0x34
 2676 010a 00       		.byte	0
 2677 010b 03       		.uleb128 0x3
 2678 010c 0E       		.uleb128 0xe
 2679 010d 3A       		.uleb128 0x3a
 2680 010e 0B       		.uleb128 0xb
 2681 010f 3B       		.uleb128 0x3b
 2682 0110 05       		.uleb128 0x5
 2683 0111 49       		.uleb128 0x49
 2684 0112 13       		.uleb128 0x13
 2685 0113 02       		.uleb128 0x2
 2686 0114 17       		.uleb128 0x17
 2687 0115 00       		.byte	0
 2688 0116 00       		.byte	0
 2689 0117 16       		.uleb128 0x16
 2690 0118 34       		.uleb128 0x34
 2691 0119 00       		.byte	0
 2692 011a 03       		.uleb128 0x3
 2693 011b 08       		.uleb128 0x8
 2694 011c 3A       		.uleb128 0x3a
 2695 011d 0B       		.uleb128 0xb
 2696 011e 3B       		.uleb128 0x3b
 2697 011f 05       		.uleb128 0x5
 2698 0120 49       		.uleb128 0x49
 2699 0121 13       		.uleb128 0x13
 2700 0122 02       		.uleb128 0x2
 2701 0123 17       		.uleb128 0x17
 2702 0124 00       		.byte	0
 2703 0125 00       		.byte	0
 2704 0126 17       		.uleb128 0x17
 2705 0127 0B       		.uleb128 0xb
 2706 0128 01       		.byte	0x1
 2707 0129 11       		.uleb128 0x11
 2708 012a 01       		.uleb128 0x1
 2709 012b 12       		.uleb128 0x12
 2710 012c 06       		.uleb128 0x6
 2711 012d 00       		.byte	0
 2712 012e 00       		.byte	0
 2713 012f 18       		.uleb128 0x18
 2714 0130 2E       		.uleb128 0x2e
 2715 0131 01       		.byte	0x1
ARM GAS  C:\Users\Terence\AppData\Local\Temp\cc65qyTh.s 			page 78


 2716 0132 3F       		.uleb128 0x3f
 2717 0133 19       		.uleb128 0x19
 2718 0134 03       		.uleb128 0x3
 2719 0135 0E       		.uleb128 0xe
 2720 0136 3A       		.uleb128 0x3a
 2721 0137 0B       		.uleb128 0xb
 2722 0138 3B       		.uleb128 0x3b
 2723 0139 0B       		.uleb128 0xb
 2724 013a 27       		.uleb128 0x27
 2725 013b 19       		.uleb128 0x19
 2726 013c 11       		.uleb128 0x11
 2727 013d 01       		.uleb128 0x1
 2728 013e 12       		.uleb128 0x12
 2729 013f 06       		.uleb128 0x6
 2730 0140 40       		.uleb128 0x40
 2731 0141 18       		.uleb128 0x18
 2732 0142 9742     		.uleb128 0x2117
 2733 0144 19       		.uleb128 0x19
 2734 0145 01       		.uleb128 0x1
 2735 0146 13       		.uleb128 0x13
 2736 0147 00       		.byte	0
 2737 0148 00       		.byte	0
 2738 0149 19       		.uleb128 0x19
 2739 014a 898201   		.uleb128 0x4109
 2740 014d 00       		.byte	0
 2741 014e 11       		.uleb128 0x11
 2742 014f 01       		.uleb128 0x1
 2743 0150 31       		.uleb128 0x31
 2744 0151 13       		.uleb128 0x13
 2745 0152 00       		.byte	0
 2746 0153 00       		.byte	0
 2747 0154 1A       		.uleb128 0x1a
 2748 0155 898201   		.uleb128 0x4109
 2749 0158 01       		.byte	0x1
 2750 0159 11       		.uleb128 0x11
 2751 015a 01       		.uleb128 0x1
 2752 015b 31       		.uleb128 0x31
 2753 015c 13       		.uleb128 0x13
 2754 015d 00       		.byte	0
 2755 015e 00       		.byte	0
 2756 015f 1B       		.uleb128 0x1b
 2757 0160 8A8201   		.uleb128 0x410a
 2758 0163 00       		.byte	0
 2759 0164 02       		.uleb128 0x2
 2760 0165 18       		.uleb128 0x18
 2761 0166 9142     		.uleb128 0x2111
 2762 0168 18       		.uleb128 0x18
 2763 0169 00       		.byte	0
 2764 016a 00       		.byte	0
 2765 016b 1C       		.uleb128 0x1c
 2766 016c 2E       		.uleb128 0x2e
 2767 016d 01       		.byte	0x1
 2768 016e 03       		.uleb128 0x3
 2769 016f 0E       		.uleb128 0xe
 2770 0170 3A       		.uleb128 0x3a
 2771 0171 0B       		.uleb128 0xb
 2772 0172 3B       		.uleb128 0x3b
ARM GAS  C:\Users\Terence\AppData\Local\Temp\cc65qyTh.s 			page 79


 2773 0173 05       		.uleb128 0x5
 2774 0174 27       		.uleb128 0x27
 2775 0175 19       		.uleb128 0x19
 2776 0176 20       		.uleb128 0x20
 2777 0177 0B       		.uleb128 0xb
 2778 0178 01       		.uleb128 0x1
 2779 0179 13       		.uleb128 0x13
 2780 017a 00       		.byte	0
 2781 017b 00       		.byte	0
 2782 017c 1D       		.uleb128 0x1d
 2783 017d 05       		.uleb128 0x5
 2784 017e 00       		.byte	0
 2785 017f 03       		.uleb128 0x3
 2786 0180 0E       		.uleb128 0xe
 2787 0181 3A       		.uleb128 0x3a
 2788 0182 0B       		.uleb128 0xb
 2789 0183 3B       		.uleb128 0x3b
 2790 0184 05       		.uleb128 0x5
 2791 0185 49       		.uleb128 0x49
 2792 0186 13       		.uleb128 0x13
 2793 0187 00       		.byte	0
 2794 0188 00       		.byte	0
 2795 0189 1E       		.uleb128 0x1e
 2796 018a 34       		.uleb128 0x34
 2797 018b 00       		.byte	0
 2798 018c 03       		.uleb128 0x3
 2799 018d 0E       		.uleb128 0xe
 2800 018e 3A       		.uleb128 0x3a
 2801 018f 0B       		.uleb128 0xb
 2802 0190 3B       		.uleb128 0x3b
 2803 0191 05       		.uleb128 0x5
 2804 0192 49       		.uleb128 0x49
 2805 0193 13       		.uleb128 0x13
 2806 0194 00       		.byte	0
 2807 0195 00       		.byte	0
 2808 0196 1F       		.uleb128 0x1f
 2809 0197 26       		.uleb128 0x26
 2810 0198 00       		.byte	0
 2811 0199 49       		.uleb128 0x49
 2812 019a 13       		.uleb128 0x13
 2813 019b 00       		.byte	0
 2814 019c 00       		.byte	0
 2815 019d 20       		.uleb128 0x20
 2816 019e 1D       		.uleb128 0x1d
 2817 019f 01       		.byte	0x1
 2818 01a0 31       		.uleb128 0x31
 2819 01a1 13       		.uleb128 0x13
 2820 01a2 11       		.uleb128 0x11
 2821 01a3 01       		.uleb128 0x1
 2822 01a4 12       		.uleb128 0x12
 2823 01a5 06       		.uleb128 0x6
 2824 01a6 58       		.uleb128 0x58
 2825 01a7 0B       		.uleb128 0xb
 2826 01a8 59       		.uleb128 0x59
 2827 01a9 05       		.uleb128 0x5
 2828 01aa 00       		.byte	0
 2829 01ab 00       		.byte	0
ARM GAS  C:\Users\Terence\AppData\Local\Temp\cc65qyTh.s 			page 80


 2830 01ac 21       		.uleb128 0x21
 2831 01ad 05       		.uleb128 0x5
 2832 01ae 00       		.byte	0
 2833 01af 31       		.uleb128 0x31
 2834 01b0 13       		.uleb128 0x13
 2835 01b1 02       		.uleb128 0x2
 2836 01b2 17       		.uleb128 0x17
 2837 01b3 00       		.byte	0
 2838 01b4 00       		.byte	0
 2839 01b5 22       		.uleb128 0x22
 2840 01b6 34       		.uleb128 0x34
 2841 01b7 00       		.byte	0
 2842 01b8 31       		.uleb128 0x31
 2843 01b9 13       		.uleb128 0x13
 2844 01ba 02       		.uleb128 0x2
 2845 01bb 17       		.uleb128 0x17
 2846 01bc 00       		.byte	0
 2847 01bd 00       		.byte	0
 2848 01be 23       		.uleb128 0x23
 2849 01bf 34       		.uleb128 0x34
 2850 01c0 00       		.byte	0
 2851 01c1 31       		.uleb128 0x31
 2852 01c2 13       		.uleb128 0x13
 2853 01c3 02       		.uleb128 0x2
 2854 01c4 18       		.uleb128 0x18
 2855 01c5 00       		.byte	0
 2856 01c6 00       		.byte	0
 2857 01c7 24       		.uleb128 0x24
 2858 01c8 898201   		.uleb128 0x4109
 2859 01cb 00       		.byte	0
 2860 01cc 11       		.uleb128 0x11
 2861 01cd 01       		.uleb128 0x1
 2862 01ce 9342     		.uleb128 0x2113
 2863 01d0 18       		.uleb128 0x18
 2864 01d1 00       		.byte	0
 2865 01d2 00       		.byte	0
 2866 01d3 25       		.uleb128 0x25
 2867 01d4 34       		.uleb128 0x34
 2868 01d5 00       		.byte	0
 2869 01d6 03       		.uleb128 0x3
 2870 01d7 0E       		.uleb128 0xe
 2871 01d8 3A       		.uleb128 0x3a
 2872 01d9 0B       		.uleb128 0xb
 2873 01da 3B       		.uleb128 0x3b
 2874 01db 0B       		.uleb128 0xb
 2875 01dc 49       		.uleb128 0x49
 2876 01dd 13       		.uleb128 0x13
 2877 01de 3F       		.uleb128 0x3f
 2878 01df 19       		.uleb128 0x19
 2879 01e0 3C       		.uleb128 0x3c
 2880 01e1 19       		.uleb128 0x19
 2881 01e2 00       		.byte	0
 2882 01e3 00       		.byte	0
 2883 01e4 26       		.uleb128 0x26
 2884 01e5 2E       		.uleb128 0x2e
 2885 01e6 00       		.byte	0
 2886 01e7 3F       		.uleb128 0x3f
ARM GAS  C:\Users\Terence\AppData\Local\Temp\cc65qyTh.s 			page 81


 2887 01e8 19       		.uleb128 0x19
 2888 01e9 03       		.uleb128 0x3
 2889 01ea 0E       		.uleb128 0xe
 2890 01eb 3A       		.uleb128 0x3a
 2891 01ec 0B       		.uleb128 0xb
 2892 01ed 3B       		.uleb128 0x3b
 2893 01ee 0B       		.uleb128 0xb
 2894 01ef 27       		.uleb128 0x27
 2895 01f0 19       		.uleb128 0x19
 2896 01f1 3C       		.uleb128 0x3c
 2897 01f2 19       		.uleb128 0x19
 2898 01f3 00       		.byte	0
 2899 01f4 00       		.byte	0
 2900 01f5 27       		.uleb128 0x27
 2901 01f6 2E       		.uleb128 0x2e
 2902 01f7 01       		.byte	0x1
 2903 01f8 3F       		.uleb128 0x3f
 2904 01f9 19       		.uleb128 0x19
 2905 01fa 03       		.uleb128 0x3
 2906 01fb 0E       		.uleb128 0xe
 2907 01fc 3A       		.uleb128 0x3a
 2908 01fd 0B       		.uleb128 0xb
 2909 01fe 3B       		.uleb128 0x3b
 2910 01ff 0B       		.uleb128 0xb
 2911 0200 27       		.uleb128 0x27
 2912 0201 19       		.uleb128 0x19
 2913 0202 3C       		.uleb128 0x3c
 2914 0203 19       		.uleb128 0x19
 2915 0204 01       		.uleb128 0x1
 2916 0205 13       		.uleb128 0x13
 2917 0206 00       		.byte	0
 2918 0207 00       		.byte	0
 2919 0208 28       		.uleb128 0x28
 2920 0209 05       		.uleb128 0x5
 2921 020a 00       		.byte	0
 2922 020b 49       		.uleb128 0x49
 2923 020c 13       		.uleb128 0x13
 2924 020d 00       		.byte	0
 2925 020e 00       		.byte	0
 2926 020f 00       		.byte	0
 2927              		.section	.debug_loc,"",%progbits
 2928              	.Ldebug_loc0:
 2929              	.LLST0:
 2930 0000 1E000000 		.4byte	.LVL3
 2931 0004 2E010000 		.4byte	.LVL7
 2932 0008 0100     		.2byte	0x1
 2933 000a 51       		.byte	0x51
 2934 000b 00000000 		.4byte	0
 2935 000f 00000000 		.4byte	0
 2936              	.LLST1:
 2937 0013 02000000 		.4byte	.LVL0
 2938 0017 0A000000 		.4byte	.LVL2
 2939 001b 0200     		.2byte	0x2
 2940 001d 31       		.byte	0x31
 2941 001e 9F       		.byte	0x9f
 2942 001f 0A000000 		.4byte	.LVL2
 2943 0023 78010000 		.4byte	.LFE169
ARM GAS  C:\Users\Terence\AppData\Local\Temp\cc65qyTh.s 			page 82


 2944 0027 0100     		.2byte	0x1
 2945 0029 53       		.byte	0x53
 2946 002a 00000000 		.4byte	0
 2947 002e 00000000 		.4byte	0
 2948              	.LLST2:
 2949 0032 5E000000 		.4byte	.LVL4
 2950 0036 DA000000 		.4byte	.LVL5
 2951 003a 0100     		.2byte	0x1
 2952 003c 50       		.byte	0x50
 2953 003d 00000000 		.4byte	0
 2954 0041 00000000 		.4byte	0
 2955              	.LLST3:
 2956 0045 42000000 		.4byte	.LVL15
 2957 0049 46000000 		.4byte	.LVL16
 2958 004d 0100     		.2byte	0x1
 2959 004f 53       		.byte	0x53
 2960 0050 46000000 		.4byte	.LVL16
 2961 0054 4A000000 		.4byte	.LVL17
 2962 0058 0100     		.2byte	0x1
 2963 005a 50       		.byte	0x50
 2964 005b 4A000000 		.4byte	.LVL17
 2965 005f 50000000 		.4byte	.LVL18
 2966 0063 0100     		.2byte	0x1
 2967 0065 53       		.byte	0x53
 2968 0066 58000000 		.4byte	.LVL19
 2969 006a 5C000000 		.4byte	.LVL20
 2970 006e 0100     		.2byte	0x1
 2971 0070 53       		.byte	0x53
 2972 0071 5C000000 		.4byte	.LVL20
 2973 0075 60000000 		.4byte	.LVL21
 2974 0079 0100     		.2byte	0x1
 2975 007b 50       		.byte	0x50
 2976 007c 60000000 		.4byte	.LVL21
 2977 0080 6A000000 		.4byte	.LVL22
 2978 0084 0100     		.2byte	0x1
 2979 0086 53       		.byte	0x53
 2980 0087 00000000 		.4byte	0
 2981 008b 00000000 		.4byte	0
 2982              	.LLST4:
 2983 008f 42000000 		.4byte	.LVL23
 2984 0093 46000000 		.4byte	.LVL24
 2985 0097 0100     		.2byte	0x1
 2986 0099 53       		.byte	0x53
 2987 009a 46000000 		.4byte	.LVL24
 2988 009e 4A000000 		.4byte	.LVL25
 2989 00a2 0100     		.2byte	0x1
 2990 00a4 50       		.byte	0x50
 2991 00a5 4A000000 		.4byte	.LVL25
 2992 00a9 50000000 		.4byte	.LVL26
 2993 00ad 0100     		.2byte	0x1
 2994 00af 53       		.byte	0x53
 2995 00b0 58000000 		.4byte	.LVL27
 2996 00b4 5C000000 		.4byte	.LVL28
 2997 00b8 0100     		.2byte	0x1
 2998 00ba 53       		.byte	0x53
 2999 00bb 5C000000 		.4byte	.LVL28
 3000 00bf 60000000 		.4byte	.LVL29
ARM GAS  C:\Users\Terence\AppData\Local\Temp\cc65qyTh.s 			page 83


 3001 00c3 0100     		.2byte	0x1
 3002 00c5 50       		.byte	0x50
 3003 00c6 60000000 		.4byte	.LVL29
 3004 00ca 6A000000 		.4byte	.LVL30
 3005 00ce 0100     		.2byte	0x1
 3006 00d0 53       		.byte	0x53
 3007 00d1 00000000 		.4byte	0
 3008 00d5 00000000 		.4byte	0
 3009              	.LLST5:
 3010 00d9 44000000 		.4byte	.LVL31
 3011 00dd 48000000 		.4byte	.LVL32
 3012 00e1 0100     		.2byte	0x1
 3013 00e3 53       		.byte	0x53
 3014 00e4 48000000 		.4byte	.LVL32
 3015 00e8 4C000000 		.4byte	.LVL33
 3016 00ec 0100     		.2byte	0x1
 3017 00ee 50       		.byte	0x50
 3018 00ef 4C000000 		.4byte	.LVL33
 3019 00f3 52000000 		.4byte	.LVL34
 3020 00f7 0100     		.2byte	0x1
 3021 00f9 53       		.byte	0x53
 3022 00fa 5A000000 		.4byte	.LVL35
 3023 00fe 5E000000 		.4byte	.LVL36
 3024 0102 0100     		.2byte	0x1
 3025 0104 53       		.byte	0x53
 3026 0105 5E000000 		.4byte	.LVL36
 3027 0109 62000000 		.4byte	.LVL37
 3028 010d 0100     		.2byte	0x1
 3029 010f 50       		.byte	0x50
 3030 0110 62000000 		.4byte	.LVL37
 3031 0114 6C000000 		.4byte	.LVL38
 3032 0118 0100     		.2byte	0x1
 3033 011a 53       		.byte	0x53
 3034 011b 00000000 		.4byte	0
 3035 011f 00000000 		.4byte	0
 3036              	.LLST6:
 3037 0123 44000000 		.4byte	.LVL39
 3038 0127 48000000 		.4byte	.LVL40
 3039 012b 0100     		.2byte	0x1
 3040 012d 53       		.byte	0x53
 3041 012e 48000000 		.4byte	.LVL40
 3042 0132 4C000000 		.4byte	.LVL41
 3043 0136 0100     		.2byte	0x1
 3044 0138 50       		.byte	0x50
 3045 0139 4C000000 		.4byte	.LVL41
 3046 013d 52000000 		.4byte	.LVL42
 3047 0141 0100     		.2byte	0x1
 3048 0143 53       		.byte	0x53
 3049 0144 5A000000 		.4byte	.LVL43
 3050 0148 5E000000 		.4byte	.LVL44
 3051 014c 0100     		.2byte	0x1
 3052 014e 53       		.byte	0x53
 3053 014f 5E000000 		.4byte	.LVL44
 3054 0153 62000000 		.4byte	.LVL45
 3055 0157 0100     		.2byte	0x1
 3056 0159 50       		.byte	0x50
 3057 015a 62000000 		.4byte	.LVL45
ARM GAS  C:\Users\Terence\AppData\Local\Temp\cc65qyTh.s 			page 84


 3058 015e 6C000000 		.4byte	.LVL46
 3059 0162 0100     		.2byte	0x1
 3060 0164 53       		.byte	0x53
 3061 0165 00000000 		.4byte	0
 3062 0169 00000000 		.4byte	0
 3063              	.LLST7:
 3064 016d 44000000 		.4byte	.LVL47
 3065 0171 48000000 		.4byte	.LVL48
 3066 0175 0100     		.2byte	0x1
 3067 0177 53       		.byte	0x53
 3068 0178 48000000 		.4byte	.LVL48
 3069 017c 4C000000 		.4byte	.LVL49
 3070 0180 0100     		.2byte	0x1
 3071 0182 50       		.byte	0x50
 3072 0183 4C000000 		.4byte	.LVL49
 3073 0187 52000000 		.4byte	.LVL50
 3074 018b 0100     		.2byte	0x1
 3075 018d 53       		.byte	0x53
 3076 018e 5A000000 		.4byte	.LVL51
 3077 0192 5E000000 		.4byte	.LVL52
 3078 0196 0100     		.2byte	0x1
 3079 0198 53       		.byte	0x53
 3080 0199 5E000000 		.4byte	.LVL52
 3081 019d 62000000 		.4byte	.LVL53
 3082 01a1 0100     		.2byte	0x1
 3083 01a3 50       		.byte	0x50
 3084 01a4 62000000 		.4byte	.LVL53
 3085 01a8 6C000000 		.4byte	.LVL54
 3086 01ac 0100     		.2byte	0x1
 3087 01ae 53       		.byte	0x53
 3088 01af 00000000 		.4byte	0
 3089 01b3 00000000 		.4byte	0
 3090              	.LLST8:
 3091 01b7 06000000 		.4byte	.LVL55
 3092 01bb 1C000000 		.4byte	.LVL57
 3093 01bf 0100     		.2byte	0x1
 3094 01c1 55       		.byte	0x55
 3095 01c2 1C000000 		.4byte	.LVL57
 3096 01c6 34000000 		.4byte	.LVL62
 3097 01ca 0100     		.2byte	0x1
 3098 01cc 54       		.byte	0x54
 3099 01cd 00000000 		.4byte	0
 3100 01d1 00000000 		.4byte	0
 3101              	.LLST9:
 3102 01d5 06000000 		.4byte	.LVL55
 3103 01d9 20000000 		.4byte	.LVL58
 3104 01dd 0200     		.2byte	0x2
 3105 01df 30       		.byte	0x30
 3106 01e0 9F       		.byte	0x9f
 3107 01e1 20000000 		.4byte	.LVL58
 3108 01e5 34000000 		.4byte	.LVL63
 3109 01e9 0100     		.2byte	0x1
 3110 01eb 55       		.byte	0x55
 3111 01ec 00000000 		.4byte	0
 3112 01f0 00000000 		.4byte	0
 3113              	.LLST10:
 3114 01f4 06000000 		.4byte	.LVL64
ARM GAS  C:\Users\Terence\AppData\Local\Temp\cc65qyTh.s 			page 85


 3115 01f8 1C000000 		.4byte	.LVL66
 3116 01fc 0100     		.2byte	0x1
 3117 01fe 55       		.byte	0x55
 3118 01ff 1C000000 		.4byte	.LVL66
 3119 0203 34000000 		.4byte	.LVL71
 3120 0207 0100     		.2byte	0x1
 3121 0209 54       		.byte	0x54
 3122 020a 00000000 		.4byte	0
 3123 020e 00000000 		.4byte	0
 3124              	.LLST11:
 3125 0212 06000000 		.4byte	.LVL64
 3126 0216 20000000 		.4byte	.LVL67
 3127 021a 0200     		.2byte	0x2
 3128 021c 30       		.byte	0x30
 3129 021d 9F       		.byte	0x9f
 3130 021e 20000000 		.4byte	.LVL67
 3131 0222 34000000 		.4byte	.LVL72
 3132 0226 0100     		.2byte	0x1
 3133 0228 55       		.byte	0x55
 3134 0229 00000000 		.4byte	0
 3135 022d 00000000 		.4byte	0
 3136              	.LLST12:
 3137 0231 06000000 		.4byte	.LVL73
 3138 0235 1C000000 		.4byte	.LVL75
 3139 0239 0100     		.2byte	0x1
 3140 023b 55       		.byte	0x55
 3141 023c 1C000000 		.4byte	.LVL75
 3142 0240 34000000 		.4byte	.LVL80
 3143 0244 0100     		.2byte	0x1
 3144 0246 54       		.byte	0x54
 3145 0247 00000000 		.4byte	0
 3146 024b 00000000 		.4byte	0
 3147              	.LLST13:
 3148 024f 06000000 		.4byte	.LVL73
 3149 0253 20000000 		.4byte	.LVL76
 3150 0257 0200     		.2byte	0x2
 3151 0259 30       		.byte	0x30
 3152 025a 9F       		.byte	0x9f
 3153 025b 20000000 		.4byte	.LVL76
 3154 025f 34000000 		.4byte	.LVL81
 3155 0263 0100     		.2byte	0x1
 3156 0265 55       		.byte	0x55
 3157 0266 00000000 		.4byte	0
 3158 026a 00000000 		.4byte	0
 3159              		.section	.debug_aranges,"",%progbits
 3160 0000 94000000 		.4byte	0x94
 3161 0004 0200     		.2byte	0x2
 3162 0006 00000000 		.4byte	.Ldebug_info0
 3163 000a 04       		.byte	0x4
 3164 000b 00       		.byte	0
 3165 000c 0000     		.2byte	0
 3166 000e 0000     		.2byte	0
 3167 0010 00000000 		.4byte	.LFB165
 3168 0014 4C000000 		.4byte	.LFE165-.LFB165
 3169 0018 00000000 		.4byte	.LFB166
 3170 001c 4C000000 		.4byte	.LFE166-.LFB166
 3171 0020 00000000 		.4byte	.LFB169
ARM GAS  C:\Users\Terence\AppData\Local\Temp\cc65qyTh.s 			page 86


 3172 0024 78010000 		.4byte	.LFE169-.LFB169
 3173 0028 00000000 		.4byte	.LFB162
 3174 002c 44000000 		.4byte	.LFE162-.LFB162
 3175 0030 00000000 		.4byte	.LFB163
 3176 0034 48000000 		.4byte	.LFE163-.LFB163
 3177 0038 00000000 		.4byte	.LFB164
 3178 003c 50000000 		.4byte	.LFE164-.LFB164
 3179 0040 00000000 		.4byte	.LFB167
 3180 0044 14000000 		.4byte	.LFE167-.LFB167
 3181 0048 00000000 		.4byte	.LFB168
 3182 004c 14000000 		.4byte	.LFE168-.LFB168
 3183 0050 00000000 		.4byte	.LFB170
 3184 0054 A8000000 		.4byte	.LFE170-.LFB170
 3185 0058 00000000 		.4byte	.LFB171
 3186 005c A8000000 		.4byte	.LFE171-.LFB171
 3187 0060 00000000 		.4byte	.LFB172
 3188 0064 A8000000 		.4byte	.LFE172-.LFB172
 3189 0068 00000000 		.4byte	.LFB173
 3190 006c A8000000 		.4byte	.LFE173-.LFB173
 3191 0070 00000000 		.4byte	.LFB174
 3192 0074 A8000000 		.4byte	.LFE174-.LFB174
 3193 0078 00000000 		.4byte	.LFB176
 3194 007c 40000000 		.4byte	.LFE176-.LFB176
 3195 0080 00000000 		.4byte	.LFB177
 3196 0084 40000000 		.4byte	.LFE177-.LFB177
 3197 0088 00000000 		.4byte	.LFB178
 3198 008c 40000000 		.4byte	.LFE178-.LFB178
 3199 0090 00000000 		.4byte	0
 3200 0094 00000000 		.4byte	0
 3201              		.section	.debug_ranges,"",%progbits
 3202              	.Ldebug_ranges0:
 3203 0000 00000000 		.4byte	.LFB165
 3204 0004 4C000000 		.4byte	.LFE165
 3205 0008 00000000 		.4byte	.LFB166
 3206 000c 4C000000 		.4byte	.LFE166
 3207 0010 00000000 		.4byte	.LFB169
 3208 0014 78010000 		.4byte	.LFE169
 3209 0018 00000000 		.4byte	.LFB162
 3210 001c 44000000 		.4byte	.LFE162
 3211 0020 00000000 		.4byte	.LFB163
 3212 0024 48000000 		.4byte	.LFE163
 3213 0028 00000000 		.4byte	.LFB164
 3214 002c 50000000 		.4byte	.LFE164
 3215 0030 00000000 		.4byte	.LFB167
 3216 0034 14000000 		.4byte	.LFE167
 3217 0038 00000000 		.4byte	.LFB168
 3218 003c 14000000 		.4byte	.LFE168
 3219 0040 00000000 		.4byte	.LFB170
 3220 0044 A8000000 		.4byte	.LFE170
 3221 0048 00000000 		.4byte	.LFB171
 3222 004c A8000000 		.4byte	.LFE171
 3223 0050 00000000 		.4byte	.LFB172
 3224 0054 A8000000 		.4byte	.LFE172
 3225 0058 00000000 		.4byte	.LFB173
 3226 005c A8000000 		.4byte	.LFE173
 3227 0060 00000000 		.4byte	.LFB174
 3228 0064 A8000000 		.4byte	.LFE174
ARM GAS  C:\Users\Terence\AppData\Local\Temp\cc65qyTh.s 			page 87


 3229 0068 00000000 		.4byte	.LFB176
 3230 006c 40000000 		.4byte	.LFE176
 3231 0070 00000000 		.4byte	.LFB177
 3232 0074 40000000 		.4byte	.LFE177
 3233 0078 00000000 		.4byte	.LFB178
 3234 007c 40000000 		.4byte	.LFE178
 3235 0080 00000000 		.4byte	0
 3236 0084 00000000 		.4byte	0
 3237              		.section	.debug_line,"",%progbits
 3238              	.Ldebug_line0:
 3239 0000 C1020000 		.section	.debug_str,"MS",%progbits,1
 3239      02009C00 
 3239      00000201 
 3239      FB0E0D00 
 3239      01010101 
 3240              	.LASF63:
 3241 0000 6E657874 		.ascii	"nextAddr\000"
 3241      41646472 
 3241      00
 3242              	.LASF10:
 3243 0009 75696E74 		.ascii	"uint16\000"
 3243      313600
 3244              	.LASF59:
 3245 0010 55534246 		.ascii	"USBFS_EP_3_ISR\000"
 3245      535F4550 
 3245      5F335F49 
 3245      535200
 3246              	.LASF78:
 3247 001f 55534246 		.ascii	"USBFS_DmaEpBufferAddrBackup\000"
 3247      535F446D 
 3247      61457042 
 3247      75666665 
 3247      72416464 
 3248              	.LASF65:
 3249 003b 55534246 		.ascii	"USBFS_EP3_DMA_DONE_ISR\000"
 3249      535F4550 
 3249      335F444D 
 3249      415F444F 
 3249      4E455F49 
 3250              	.LASF69:
 3251 0052 63624964 		.ascii	"cbIdx\000"
 3251      7800
 3252              	.LASF7:
 3253 0058 6C6F6E67 		.ascii	"long long unsigned int\000"
 3253      206C6F6E 
 3253      6720756E 
 3253      7369676E 
 3253      65642069 
 3254              	.LASF22:
 3255 006f 61646472 		.ascii	"addr\000"
 3255      00
 3256              	.LASF32:
 3257 0074 65704366 		.ascii	"epCfg\000"
 3257      6700
 3258              	.LASF43:
 3259 007a 55534246 		.ascii	"USBFS_sie_eps_struct\000"
 3259      535F7369 
ARM GAS  C:\Users\Terence\AppData\Local\Temp\cc65qyTh.s 			page 88


 3259      655F6570 
 3259      735F7374 
 3259      72756374 
 3260              	.LASF45:
 3261 008f 55534246 		.ascii	"USBFS_arb_eps_struct\000"
 3261      535F6172 
 3261      625F6570 
 3261      735F7374 
 3261      72756374 
 3262              	.LASF82:
 3263 00a4 50726F63 		.ascii	"ProcessAudioIn\000"
 3263      65737341 
 3263      7564696F 
 3263      496E00
 3264              	.LASF6:
 3265 00b3 6C6F6E67 		.ascii	"long long int\000"
 3265      206C6F6E 
 3265      6720696E 
 3265      7400
 3266              	.LASF0:
 3267 00c1 7369676E 		.ascii	"signed char\000"
 3267      65642063 
 3267      68617200 
 3268              	.LASF70:
 3269 00cd 55534246 		.ascii	"USBFS_INTR_HI_ISR\000"
 3269      535F494E 
 3269      54525F48 
 3269      495F4953 
 3269      5200
 3270              	.LASF41:
 3271 00df 55534246 		.ascii	"USBFS_arb_ep_struct\000"
 3271      535F6172 
 3271      625F6570 
 3271      5F737472 
 3271      75637400 
 3272              	.LASF4:
 3273 00f3 6C6F6E67 		.ascii	"long int\000"
 3273      20696E74 
 3273      00
 3274              	.LASF46:
 3275 00fc 6379646D 		.ascii	"cydma_channel_ctl_struct\000"
 3275      615F6368 
 3275      616E6E65 
 3275      6C5F6374 
 3275      6C5F7374 
 3276              	.LASF9:
 3277 0115 75696E74 		.ascii	"uint8\000"
 3277      3800
 3278              	.LASF64:
 3279 011b 55534246 		.ascii	"USBFS_EP2_DMA_DONE_ISR\000"
 3279      535F4550 
 3279      325F444D 
 3279      415F444F 
 3279      4E455F49 
 3280              	.LASF21:
 3281 0132 6570546F 		.ascii	"epToggle\000"
 3281      67676C65 
ARM GAS  C:\Users\Terence\AppData\Local\Temp\cc65qyTh.s 			page 89


 3281      00
 3282              	.LASF36:
 3283 013b 72775761 		.ascii	"rwWa\000"
 3283      00
 3284              	.LASF13:
 3285 0140 646F7562 		.ascii	"double\000"
 3285      6C6500
 3286              	.LASF34:
 3287 0147 65705372 		.ascii	"epSr\000"
 3287      00
 3288              	.LASF61:
 3289 014c 55534246 		.ascii	"USBFS_BUS_RESET_ISR\000"
 3289      535F4255 
 3289      535F5245 
 3289      5345545F 
 3289      49535200 
 3290              	.LASF68:
 3291 0160 55534246 		.ascii	"USBFS_isrCallbacks\000"
 3291      535F6973 
 3291      7243616C 
 3291      6C626163 
 3291      6B7300
 3292              	.LASF11:
 3293 0173 75696E74 		.ascii	"uint32\000"
 3293      333200
 3294              	.LASF23:
 3295 017a 65704D6F 		.ascii	"epMode\000"
 3295      646500
 3296              	.LASF35:
 3297 0181 72657365 		.ascii	"reserved\000"
 3297      72766564 
 3297      00
 3298              	.LASF8:
 3299 018a 756E7369 		.ascii	"unsigned int\000"
 3299      676E6564 
 3299      20696E74 
 3299      00
 3300              	.LASF5:
 3301 0197 6C6F6E67 		.ascii	"long unsigned int\000"
 3301      20756E73 
 3301      69676E65 
 3301      6420696E 
 3301      7400
 3302              	.LASF87:
 3303 01a9 433A5C50 		.ascii	"C:\\Program Files (x86)\\Cypress\\CY8CKIT-046 PSoC "
 3303      726F6772 
 3303      616D2046 
 3303      696C6573 
 3303      20287838 
 3304 01d9 34204C2D 		.ascii	"4 L-Series Pioneer Kit\\1.0\\Firmware\\PSoC 4200L\\"
 3304      53657269 
 3304      65732050 
 3304      696F6E65 
 3304      6572204B 
 3305 0208 43593843 		.ascii	"CY8CKIT_046_USB_Audio\\CY8CKIT_046_USB_Audio.cydsn\000"
 3305      4B49545F 
 3305      3034365F 
ARM GAS  C:\Users\Terence\AppData\Local\Temp\cc65qyTh.s 			page 90


 3305      5553425F 
 3305      41756469 
 3306              	.LASF60:
 3307 023a 55534246 		.ascii	"USBFS_SOF_ISR\000"
 3307      535F534F 
 3307      465F4953 
 3307      5200
 3308              	.LASF74:
 3309 0248 55534246 		.ascii	"USBFS_DmaChan\000"
 3309      535F446D 
 3309      61436861 
 3309      6E00
 3310              	.LASF75:
 3311 0256 55534246 		.ascii	"USBFS_DmaEpBurstCnt\000"
 3311      535F446D 
 3311      61457042 
 3311      75727374 
 3311      436E7400 
 3312              	.LASF3:
 3313 026a 73686F72 		.ascii	"short unsigned int\000"
 3313      7420756E 
 3313      7369676E 
 3313      65642069 
 3313      6E7400
 3314              	.LASF86:
 3315 027d 2E5C4765 		.ascii	".\\Generated_Source\\PSoC4\\USBFS_episr.c\000"
 3315      6E657261 
 3315      7465645F 
 3315      536F7572 
 3315      63655C50 
 3316              	.LASF31:
 3317 02a4 55534246 		.ascii	"USBFS_sie_ep_struct\000"
 3317      535F7369 
 3317      655F6570 
 3317      5F737472 
 3317      75637400 
 3318              	.LASF89:
 3319 02b8 696E7472 		.ascii	"intrCause\000"
 3319      43617573 
 3319      6500
 3320              	.LASF44:
 3321 02c2 61726245 		.ascii	"arbEp\000"
 3321      7000
 3322              	.LASF26:
 3323 02c8 696E7465 		.ascii	"interface\000"
 3323      72666163 
 3323      6500
 3324              	.LASF79:
 3325 02d2 55534246 		.ascii	"USBFS_DmaReqOut\000"
 3325      535F446D 
 3325      61526571 
 3325      4F757400 
 3326              	.LASF77:
 3327 02e2 55534246 		.ascii	"USBFS_DmaEpBurstCntBackup\000"
 3327      535F446D 
 3327      61457042 
 3327      75727374 
ARM GAS  C:\Users\Terence\AppData\Local\Temp\cc65qyTh.s 			page 91


 3327      436E7442 
 3328              	.LASF15:
 3329 02fc 72656733 		.ascii	"reg32\000"
 3329      3200
 3330              	.LASF20:
 3331 0302 68774570 		.ascii	"hwEpState\000"
 3331      53746174 
 3331      6500
 3332              	.LASF17:
 3333 030c 73697A65 		.ascii	"sizetype\000"
 3333      74797065 
 3333      00
 3334              	.LASF42:
 3335 0315 73696545 		.ascii	"sieEp\000"
 3335      7000
 3336              	.LASF53:
 3337 031b 61726249 		.ascii	"arbIntrStatus\000"
 3337      6E747253 
 3337      74617475 
 3337      7300
 3338              	.LASF18:
 3339 0329 61747472 		.ascii	"attrib\000"
 3339      696200
 3340              	.LASF88:
 3341 0330 55534246 		.ascii	"USBFS_IntrHandler\000"
 3341      535F496E 
 3341      74724861 
 3341      6E646C65 
 3341      7200
 3342              	.LASF51:
 3343 0342 55534246 		.ascii	"USBFS_EP_4_ISR\000"
 3343      535F4550 
 3343      5F345F49 
 3343      535200
 3344              	.LASF39:
 3345 0351 72775261 		.ascii	"rwRaMsb\000"
 3345      4D736200 
 3346              	.LASF85:
 3347 0359 474E5520 		.ascii	"GNU C 4.9.3 20150303 (release) [ARM/embedded-4_9-br"
 3347      4320342E 
 3347      392E3320 
 3347      32303135 
 3347      30333033 
 3348 038c 616E6368 		.ascii	"anch revision 221220] -mcpu=cortex-m0 -mthumb -g -O"
 3348      20726576 
 3348      6973696F 
 3348      6E203232 
 3348      31323230 
 3349 03bf 67202D66 		.ascii	"g -ffunction-sections -ffat-lto-objects\000"
 3349      66756E63 
 3349      74696F6E 
 3349      2D736563 
 3349      74696F6E 
 3350              	.LASF28:
 3351 03e7 6570436E 		.ascii	"epCnt0\000"
 3351      743000
 3352              	.LASF29:
ARM GAS  C:\Users\Terence\AppData\Local\Temp\cc65qyTh.s 			page 92


 3353 03ee 6570436E 		.ascii	"epCnt1\000"
 3353      743100
 3354              	.LASF30:
 3355 03f5 65704372 		.ascii	"epCr0\000"
 3355      3000
 3356              	.LASF12:
 3357 03fb 666C6F61 		.ascii	"float\000"
 3357      7400
 3358              	.LASF58:
 3359 0401 55534246 		.ascii	"USBFS_EP_2_ISR\000"
 3359      535F4550 
 3359      5F325F49 
 3359      535200
 3360              	.LASF19:
 3361 0410 61706945 		.ascii	"apiEpState\000"
 3361      70537461 
 3361      746500
 3362              	.LASF67:
 3363 041b 55534246 		.ascii	"USBFS_EP6_DMA_DONE_ISR\000"
 3363      535F4550 
 3363      365F444D 
 3363      415F444F 
 3363      4E455F49 
 3364              	.LASF73:
 3365 0432 55534246 		.ascii	"USBFS_EP\000"
 3365      535F4550 
 3365      00
 3366              	.LASF1:
 3367 043b 756E7369 		.ascii	"unsigned char\000"
 3367      676E6564 
 3367      20636861 
 3367      7200
 3368              	.LASF2:
 3369 0449 73686F72 		.ascii	"short int\000"
 3369      7420696E 
 3369      7400
 3370              	.LASF57:
 3371 0453 55534246 		.ascii	"USBFS_EP_1_ISR\000"
 3371      535F4550 
 3371      5F315F49 
 3371      535200
 3372              	.LASF62:
 3373 0462 55534246 		.ascii	"USBFS_EP1_DMA_DONE_ISR\000"
 3373      535F4550 
 3373      315F444D 
 3373      415F444F 
 3373      4E455F49 
 3374              	.LASF38:
 3375 0479 72775261 		.ascii	"rwRa\000"
 3375      00
 3376              	.LASF27:
 3377 047e 545F5553 		.ascii	"T_USBFS_EP_CTL_BLOCK\000"
 3377      4246535F 
 3377      45505F43 
 3377      544C5F42 
 3377      4C4F434B 
 3378              	.LASF71:
ARM GAS  C:\Users\Terence\AppData\Local\Temp\cc65qyTh.s 			page 93


 3379 0493 55534246 		.ascii	"USBFS_INTR_MED_ISR\000"
 3379      535F494E 
 3379      54525F4D 
 3379      45445F49 
 3379      535200
 3380              	.LASF76:
 3381 04a6 55534246 		.ascii	"USBFS_DmaEpLastBurstEl\000"
 3381      535F446D 
 3381      6145704C 
 3381      61737442 
 3381      75727374 
 3382              	.LASF72:
 3383 04bd 55534246 		.ascii	"USBFS_INTR_LO_ISR\000"
 3383      535F494E 
 3383      54525F4C 
 3383      4F5F4953 
 3383      5200
 3384              	.LASF49:
 3385 04cf 64657363 		.ascii	"descriptor\000"
 3385      72697074 
 3385      6F7200
 3386              	.LASF14:
 3387 04da 63686172 		.ascii	"char\000"
 3387      00
 3388              	.LASF81:
 3389 04df 50726F63 		.ascii	"ProcessAudioOut\000"
 3389      65737341 
 3389      7564696F 
 3389      4F757400 
 3390              	.LASF16:
 3391 04ef 63796973 		.ascii	"cyisraddress\000"
 3391      72616464 
 3391      72657373 
 3391      00
 3392              	.LASF54:
 3393 04fc 65705374 		.ascii	"epStatus\000"
 3393      61747573 
 3393      00
 3394              	.LASF55:
 3395 0505 6368616E 		.ascii	"channelNum\000"
 3395      6E656C4E 
 3395      756D00
 3396              	.LASF25:
 3397 0510 62756666 		.ascii	"bufferSize\000"
 3397      65725369 
 3397      7A6500
 3398              	.LASF24:
 3399 051b 62756666 		.ascii	"buffOffset\000"
 3399      4F666673 
 3399      657400
 3400              	.LASF80:
 3401 0526 55534246 		.ascii	"USBFS_DmaBurstEndOut\000"
 3401      535F446D 
 3401      61427572 
 3401      7374456E 
 3401      644F7574 
 3402              	.LASF52:
ARM GAS  C:\Users\Terence\AppData\Local\Temp\cc65qyTh.s 			page 94


 3403 053b 55534246 		.ascii	"USBFS_EP_6_ISR\000"
 3403      535F4550 
 3403      5F365F49 
 3403      535200
 3404              	.LASF84:
 3405 054a 55534246 		.ascii	"USBFS_ReInitComponent\000"
 3405      535F5265 
 3405      496E6974 
 3405      436F6D70 
 3405      6F6E656E 
 3406              	.LASF47:
 3407 0560 73746174 		.ascii	"status\000"
 3407      757300
 3408              	.LASF40:
 3409 0567 72774472 		.ascii	"rwDr\000"
 3409      00
 3410              	.LASF90:
 3411 056c 70726F63 		.ascii	"processAsyncFeedbackTransfer\000"
 3411      65737341 
 3411      73796E63 
 3411      46656564 
 3411      6261636B 
 3412              	.LASF66:
 3413 0589 55534246 		.ascii	"USBFS_EP4_DMA_DONE_ISR\000"
 3413      535F4550 
 3413      345F444D 
 3413      415F444F 
 3413      4E455F49 
 3414              	.LASF83:
 3415 05a0 55706461 		.ascii	"UpdateFeedbackCount\000"
 3415      74654665 
 3415      65646261 
 3415      636B436F 
 3415      756E7400 
 3416              	.LASF48:
 3417 05b4 6379646D 		.ascii	"cydma_descriptor_struct\000"
 3417      615F6465 
 3417      73637269 
 3417      70746F72 
 3417      5F737472 
 3418              	.LASF37:
 3419 05cc 72775761 		.ascii	"rwWaMsb\000"
 3419      4D736200 
 3420              	.LASF33:
 3421 05d4 6570496E 		.ascii	"epIntEn\000"
 3421      74456E00 
 3422              	.LASF56:
 3423 05dc 55534246 		.ascii	"USBFS_ARB_ISR\000"
 3423      535F4152 
 3423      425F4953 
 3423      5200
 3424              	.LASF50:
 3425 05ea 6379646D 		.ascii	"cydma_descriptor_ram_struct\000"
 3425      615F6465 
 3425      73637269 
 3425      70746F72 
 3425      5F72616D 
ARM GAS  C:\Users\Terence\AppData\Local\Temp\cc65qyTh.s 			page 95


 3426              		.ident	"GCC: (GNU Tools for ARM Embedded Processors) 4.9.3 20150303 (release) [ARM/embedded-4_9-br
