ARM GAS  C:\Users\Terence\AppData\Local\Temp\cc65qyTh.s 			page 1


   1              		.cpu cortex-m0
   2              		.fpu softvfp
   3              		.eabi_attribute 20, 1
   4              		.eabi_attribute 21, 1
   5              		.eabi_attribute 23, 3
   6              		.eabi_attribute 24, 1
   7              		.eabi_attribute 25, 1
   8              		.eabi_attribute 26, 1
   9              		.eabi_attribute 30, 1
  10              		.eabi_attribute 34, 0
  11              		.eabi_attribute 18, 4
  12              		.code	16
  13              		.file	"USBFS_episr.c"
  14              		.text
  15              	.Ltext0:
  16              		.cfi_sections	.debug_frame
  17              		.section	.text.USBFS_EP_4_ISR,"ax",%progbits
  18              		.align	2
  19              		.global	USBFS_EP_4_ISR
  20              		.code	16
  21              		.thumb_func
  22              		.type	USBFS_EP_4_ISR, %function
  23              	USBFS_EP_4_ISR:
  24              	.LFB165:
  25              		.file 1 ".\\Generated_Source\\PSoC4\\USBFS_episr.c"
   1:.\Generated_Source\PSoC4/USBFS_episr.c **** /***************************************************************************//**
   2:.\Generated_Source\PSoC4/USBFS_episr.c **** * \file USBFS_episr.c
   3:.\Generated_Source\PSoC4/USBFS_episr.c **** * \version 3.0
   4:.\Generated_Source\PSoC4/USBFS_episr.c **** *
   5:.\Generated_Source\PSoC4/USBFS_episr.c **** * \brief
   6:.\Generated_Source\PSoC4/USBFS_episr.c **** *  This file contains the Data endpoint Interrupt Service Routines.
   7:.\Generated_Source\PSoC4/USBFS_episr.c **** *
   8:.\Generated_Source\PSoC4/USBFS_episr.c **** ********************************************************************************
   9:.\Generated_Source\PSoC4/USBFS_episr.c **** * \copyright
  10:.\Generated_Source\PSoC4/USBFS_episr.c **** * Copyright 2008-2015, Cypress Semiconductor Corporation.  All rights reserved.
  11:.\Generated_Source\PSoC4/USBFS_episr.c **** * You may use this file only in accordance with the license, terms, conditions,
  12:.\Generated_Source\PSoC4/USBFS_episr.c **** * disclaimers, and limitations in the end user license agreement accompanying
  13:.\Generated_Source\PSoC4/USBFS_episr.c **** * the software package with which this file was provided.
  14:.\Generated_Source\PSoC4/USBFS_episr.c **** *******************************************************************************/
  15:.\Generated_Source\PSoC4/USBFS_episr.c **** 
  16:.\Generated_Source\PSoC4/USBFS_episr.c **** #include "USBFS_pvt.h"
  17:.\Generated_Source\PSoC4/USBFS_episr.c **** #include "USBFS_cydmac.h"
  18:.\Generated_Source\PSoC4/USBFS_episr.c **** #include "cyapicallbacks.h"
  19:.\Generated_Source\PSoC4/USBFS_episr.c **** 
  20:.\Generated_Source\PSoC4/USBFS_episr.c **** 
  21:.\Generated_Source\PSoC4/USBFS_episr.c **** /***************************************
  22:.\Generated_Source\PSoC4/USBFS_episr.c **** * Custom Declarations
  23:.\Generated_Source\PSoC4/USBFS_episr.c **** ***************************************/
  24:.\Generated_Source\PSoC4/USBFS_episr.c **** /* `#START CUSTOM_DECLARATIONS` Place your declaration here */
  25:.\Generated_Source\PSoC4/USBFS_episr.c **** 
  26:.\Generated_Source\PSoC4/USBFS_episr.c **** /* `#END` */
  27:.\Generated_Source\PSoC4/USBFS_episr.c **** 
  28:.\Generated_Source\PSoC4/USBFS_episr.c **** 
  29:.\Generated_Source\PSoC4/USBFS_episr.c **** #if (USBFS_EP1_ISR_ACTIVE)
  30:.\Generated_Source\PSoC4/USBFS_episr.c ****     /******************************************************************************
  31:.\Generated_Source\PSoC4/USBFS_episr.c ****     * Function Name: USBFS_EP_1_ISR
  32:.\Generated_Source\PSoC4/USBFS_episr.c ****     ***************************************************************************//**
ARM GAS  C:\Users\Terence\AppData\Local\Temp\cc65qyTh.s 			page 2


  33:.\Generated_Source\PSoC4/USBFS_episr.c ****     *
  34:.\Generated_Source\PSoC4/USBFS_episr.c ****     *  Endpoint 1 Interrupt Service Routine
  35:.\Generated_Source\PSoC4/USBFS_episr.c ****     *
  36:.\Generated_Source\PSoC4/USBFS_episr.c ****     ******************************************************************************/
  37:.\Generated_Source\PSoC4/USBFS_episr.c ****     CY_ISR(USBFS_EP_1_ISR)
  38:.\Generated_Source\PSoC4/USBFS_episr.c ****     {
  39:.\Generated_Source\PSoC4/USBFS_episr.c **** 
  40:.\Generated_Source\PSoC4/USBFS_episr.c ****     #ifdef USBFS_EP_1_ISR_ENTRY_CALLBACK
  41:.\Generated_Source\PSoC4/USBFS_episr.c ****         USBFS_EP_1_ISR_EntryCallback();
  42:.\Generated_Source\PSoC4/USBFS_episr.c ****     #endif /* (USBFS_EP_1_ISR_ENTRY_CALLBACK) */
  43:.\Generated_Source\PSoC4/USBFS_episr.c **** 
  44:.\Generated_Source\PSoC4/USBFS_episr.c ****         /* `#START EP1_USER_CODE` Place your code here */
  45:.\Generated_Source\PSoC4/USBFS_episr.c **** 
  46:.\Generated_Source\PSoC4/USBFS_episr.c ****         /* `#END` */
  47:.\Generated_Source\PSoC4/USBFS_episr.c **** 
  48:.\Generated_Source\PSoC4/USBFS_episr.c ****     #if (CY_PSOC3 && defined(USBFS_ENABLE_MIDI_STREAMING) && \
  49:.\Generated_Source\PSoC4/USBFS_episr.c ****         !defined(USBFS_MAIN_SERVICE_MIDI_OUT) && USBFS_ISR_SERVICE_MIDI_OUT)
  50:.\Generated_Source\PSoC4/USBFS_episr.c ****         {
  51:.\Generated_Source\PSoC4/USBFS_episr.c ****             uint8 intEn = EA;
  52:.\Generated_Source\PSoC4/USBFS_episr.c ****             CyGlobalIntEnable;  /* Enable nested interrupts. */
  53:.\Generated_Source\PSoC4/USBFS_episr.c ****     #endif /* (CY_PSOC3 && USBFS_ISR_SERVICE_MIDI_OUT) */
  54:.\Generated_Source\PSoC4/USBFS_episr.c ****     
  55:.\Generated_Source\PSoC4/USBFS_episr.c ****         USBFS_ClearSieEpInterruptSource(USBFS_SIE_INT_EP1_INTR);
  56:.\Generated_Source\PSoC4/USBFS_episr.c ****             
  57:.\Generated_Source\PSoC4/USBFS_episr.c ****         /* Notifies user that transfer IN or OUT transfer is completed.
  58:.\Generated_Source\PSoC4/USBFS_episr.c ****         * IN endpoint: endpoint buffer can be reloaded, Host is read data.
  59:.\Generated_Source\PSoC4/USBFS_episr.c ****         * OUT endpoint: data is ready to be read from endpoint buffer. 
  60:.\Generated_Source\PSoC4/USBFS_episr.c ****         */
  61:.\Generated_Source\PSoC4/USBFS_episr.c ****     #if (CY_PSOC4 && USBFS_EP_MANAGEMENT_DMA_AUTO)
  62:.\Generated_Source\PSoC4/USBFS_episr.c ****         if (0u != (USBFS_EP[USBFS_EP1].addr & USBFS_DIR_IN))
  63:.\Generated_Source\PSoC4/USBFS_episr.c ****     #endif /* (CY_PSOC4 && USBFS_EP_MANAGEMENT_DMA_AUTO) */
  64:.\Generated_Source\PSoC4/USBFS_episr.c ****         {
  65:.\Generated_Source\PSoC4/USBFS_episr.c ****             /* Read CR0 register to clear SIE lock. */
  66:.\Generated_Source\PSoC4/USBFS_episr.c ****             (void) USBFS_SIE_EP_BASE.sieEp[USBFS_EP1].epCr0;
  67:.\Generated_Source\PSoC4/USBFS_episr.c ****             
  68:.\Generated_Source\PSoC4/USBFS_episr.c ****             /* Toggle all endpoint types except ISOC. */
  69:.\Generated_Source\PSoC4/USBFS_episr.c ****             if (USBFS_GET_EP_TYPE(USBFS_EP1) != USBFS_EP_TYPE_ISOC)
  70:.\Generated_Source\PSoC4/USBFS_episr.c ****             {
  71:.\Generated_Source\PSoC4/USBFS_episr.c ****                 USBFS_EP[USBFS_EP1].epToggle ^= USBFS_EPX_CNT_DATA_TOGGLE;
  72:.\Generated_Source\PSoC4/USBFS_episr.c ****             }
  73:.\Generated_Source\PSoC4/USBFS_episr.c **** 
  74:.\Generated_Source\PSoC4/USBFS_episr.c ****             /* EP_MANAGEMENT_DMA_AUTO (Ticket ID# 214187): For OUT endpoint this event is used to n
  75:.\Generated_Source\PSoC4/USBFS_episr.c ****             * user that DMA has completed copying data from OUT endpoint which is not completely tr
  76:.\Generated_Source\PSoC4/USBFS_episr.c ****             * Because last chunk of data is being copied.
  77:.\Generated_Source\PSoC4/USBFS_episr.c ****             * For CY_PSOC 3/5LP: it is acceptable as DMA is really fast.
  78:.\Generated_Source\PSoC4/USBFS_episr.c ****             * For CY_PSOC4: this event is set in Arbiter interrupt (source is DMA_TERMIN).
  79:.\Generated_Source\PSoC4/USBFS_episr.c ****             */
  80:.\Generated_Source\PSoC4/USBFS_episr.c ****             USBFS_EP[USBFS_EP1].apiEpState = USBFS_EVENT_PENDING;
  81:.\Generated_Source\PSoC4/USBFS_episr.c ****         }
  82:.\Generated_Source\PSoC4/USBFS_episr.c **** 
  83:.\Generated_Source\PSoC4/USBFS_episr.c ****     #if (!(CY_PSOC4 && USBFS_EP_MANAGEMENT_DMA_AUTO))
  84:.\Generated_Source\PSoC4/USBFS_episr.c ****         #if (defined(USBFS_ENABLE_MIDI_STREAMING) && \
  85:.\Generated_Source\PSoC4/USBFS_episr.c ****             !defined(USBFS_MAIN_SERVICE_MIDI_OUT) && USBFS_ISR_SERVICE_MIDI_OUT)
  86:.\Generated_Source\PSoC4/USBFS_episr.c ****             if (USBFS_midi_out_ep == USBFS_EP1)
  87:.\Generated_Source\PSoC4/USBFS_episr.c ****             {
  88:.\Generated_Source\PSoC4/USBFS_episr.c ****                 USBFS_MIDI_OUT_Service();
  89:.\Generated_Source\PSoC4/USBFS_episr.c ****             }
ARM GAS  C:\Users\Terence\AppData\Local\Temp\cc65qyTh.s 			page 3


  90:.\Generated_Source\PSoC4/USBFS_episr.c ****         #endif /* (USBFS_ISR_SERVICE_MIDI_OUT) */
  91:.\Generated_Source\PSoC4/USBFS_episr.c ****     #endif /* (!(CY_PSOC4 && USBFS_EP_MANAGEMENT_DMA_AUTO)) */
  92:.\Generated_Source\PSoC4/USBFS_episr.c ****     
  93:.\Generated_Source\PSoC4/USBFS_episr.c ****         /* `#START EP1_END_USER_CODE` Place your code here */
  94:.\Generated_Source\PSoC4/USBFS_episr.c **** 
  95:.\Generated_Source\PSoC4/USBFS_episr.c ****         /* `#END` */
  96:.\Generated_Source\PSoC4/USBFS_episr.c **** 
  97:.\Generated_Source\PSoC4/USBFS_episr.c ****     #ifdef USBFS_EP_1_ISR_EXIT_CALLBACK
  98:.\Generated_Source\PSoC4/USBFS_episr.c ****         USBFS_EP_1_ISR_ExitCallback();
  99:.\Generated_Source\PSoC4/USBFS_episr.c ****     #endif /* (USBFS_EP_1_ISR_EXIT_CALLBACK) */
 100:.\Generated_Source\PSoC4/USBFS_episr.c **** 
 101:.\Generated_Source\PSoC4/USBFS_episr.c ****     #if (CY_PSOC3 && defined(USBFS_ENABLE_MIDI_STREAMING) && \
 102:.\Generated_Source\PSoC4/USBFS_episr.c ****         !defined(USBFS_MAIN_SERVICE_MIDI_OUT) && USBFS_ISR_SERVICE_MIDI_OUT)
 103:.\Generated_Source\PSoC4/USBFS_episr.c ****         
 104:.\Generated_Source\PSoC4/USBFS_episr.c ****             EA = intEn; /* Restore nested interrupt configuration. */
 105:.\Generated_Source\PSoC4/USBFS_episr.c ****         }
 106:.\Generated_Source\PSoC4/USBFS_episr.c ****     #endif /* (CY_PSOC3 && USBFS_ISR_SERVICE_MIDI_OUT) */
 107:.\Generated_Source\PSoC4/USBFS_episr.c ****     }
 108:.\Generated_Source\PSoC4/USBFS_episr.c **** 
 109:.\Generated_Source\PSoC4/USBFS_episr.c **** #endif /* (USBFS_EP1_ISR_ACTIVE) */
 110:.\Generated_Source\PSoC4/USBFS_episr.c **** 
 111:.\Generated_Source\PSoC4/USBFS_episr.c **** 
 112:.\Generated_Source\PSoC4/USBFS_episr.c **** #if (USBFS_EP2_ISR_ACTIVE)
 113:.\Generated_Source\PSoC4/USBFS_episr.c ****     /*******************************************************************************
 114:.\Generated_Source\PSoC4/USBFS_episr.c ****     * Function Name: USBFS_EP_2_ISR
 115:.\Generated_Source\PSoC4/USBFS_episr.c ****     ****************************************************************************//**
 116:.\Generated_Source\PSoC4/USBFS_episr.c ****     *
 117:.\Generated_Source\PSoC4/USBFS_episr.c ****     *  Endpoint 2 Interrupt Service Routine.
 118:.\Generated_Source\PSoC4/USBFS_episr.c ****     *
 119:.\Generated_Source\PSoC4/USBFS_episr.c ****     *******************************************************************************/
 120:.\Generated_Source\PSoC4/USBFS_episr.c ****     CY_ISR(USBFS_EP_2_ISR)
 121:.\Generated_Source\PSoC4/USBFS_episr.c ****     {
 122:.\Generated_Source\PSoC4/USBFS_episr.c ****     #ifdef USBFS_EP_2_ISR_ENTRY_CALLBACK
 123:.\Generated_Source\PSoC4/USBFS_episr.c ****         USBFS_EP_2_ISR_EntryCallback();
 124:.\Generated_Source\PSoC4/USBFS_episr.c ****     #endif /* (USBFS_EP_2_ISR_ENTRY_CALLBACK) */
 125:.\Generated_Source\PSoC4/USBFS_episr.c **** 
 126:.\Generated_Source\PSoC4/USBFS_episr.c ****         /* `#START EP2_USER_CODE` Place your code here */
 127:.\Generated_Source\PSoC4/USBFS_episr.c **** 
 128:.\Generated_Source\PSoC4/USBFS_episr.c ****         /* `#END` */
 129:.\Generated_Source\PSoC4/USBFS_episr.c **** 
 130:.\Generated_Source\PSoC4/USBFS_episr.c ****     #if (CY_PSOC3 && defined(USBFS_ENABLE_MIDI_STREAMING) && \
 131:.\Generated_Source\PSoC4/USBFS_episr.c ****         !defined(USBFS_MAIN_SERVICE_MIDI_OUT) && USBFS_ISR_SERVICE_MIDI_OUT)
 132:.\Generated_Source\PSoC4/USBFS_episr.c ****         {
 133:.\Generated_Source\PSoC4/USBFS_episr.c ****             uint8 intEn = EA;
 134:.\Generated_Source\PSoC4/USBFS_episr.c ****             CyGlobalIntEnable;  /* Enable nested interrupts. */
 135:.\Generated_Source\PSoC4/USBFS_episr.c ****     #endif /* (CY_PSOC3 && USBFS_ISR_SERVICE_MIDI_OUT) */
 136:.\Generated_Source\PSoC4/USBFS_episr.c **** 
 137:.\Generated_Source\PSoC4/USBFS_episr.c ****         USBFS_ClearSieEpInterruptSource(USBFS_SIE_INT_EP2_INTR);
 138:.\Generated_Source\PSoC4/USBFS_episr.c **** 
 139:.\Generated_Source\PSoC4/USBFS_episr.c ****         /* Notifies user that transfer IN or OUT transfer is completed.
 140:.\Generated_Source\PSoC4/USBFS_episr.c ****         * IN endpoint: endpoint buffer can be reloaded, Host is read data.
 141:.\Generated_Source\PSoC4/USBFS_episr.c ****         * OUT endpoint: data is ready to be read from endpoint buffer. 
 142:.\Generated_Source\PSoC4/USBFS_episr.c ****         */
 143:.\Generated_Source\PSoC4/USBFS_episr.c ****     #if (CY_PSOC4 && USBFS_EP_MANAGEMENT_DMA_AUTO)
 144:.\Generated_Source\PSoC4/USBFS_episr.c ****         if (0u != (USBFS_EP[USBFS_EP2].addr & USBFS_DIR_IN))
 145:.\Generated_Source\PSoC4/USBFS_episr.c ****     #endif /* (CY_PSOC4 && USBFS_EP_MANAGEMENT_DMA_AUTO) */
 146:.\Generated_Source\PSoC4/USBFS_episr.c ****         {            
ARM GAS  C:\Users\Terence\AppData\Local\Temp\cc65qyTh.s 			page 4


 147:.\Generated_Source\PSoC4/USBFS_episr.c ****             /* Read CR0 register to clear SIE lock. */
 148:.\Generated_Source\PSoC4/USBFS_episr.c ****             (void) USBFS_SIE_EP_BASE.sieEp[USBFS_EP2].epCr0;
 149:.\Generated_Source\PSoC4/USBFS_episr.c ****             
 150:.\Generated_Source\PSoC4/USBFS_episr.c ****             /* Toggle all endpoint types except ISOC. */
 151:.\Generated_Source\PSoC4/USBFS_episr.c ****             if (USBFS_GET_EP_TYPE(USBFS_EP2) != USBFS_EP_TYPE_ISOC)
 152:.\Generated_Source\PSoC4/USBFS_episr.c ****             {
 153:.\Generated_Source\PSoC4/USBFS_episr.c ****                 USBFS_EP[USBFS_EP2].epToggle ^= USBFS_EPX_CNT_DATA_TOGGLE;
 154:.\Generated_Source\PSoC4/USBFS_episr.c ****             }
 155:.\Generated_Source\PSoC4/USBFS_episr.c **** 
 156:.\Generated_Source\PSoC4/USBFS_episr.c ****             /* EP_MANAGEMENT_DMA_AUTO (Ticket ID# 214187): For OUT endpoint this event is used to n
 157:.\Generated_Source\PSoC4/USBFS_episr.c ****             * user that DMA has completed copying data from OUT endpoint which is not completely tr
 158:.\Generated_Source\PSoC4/USBFS_episr.c ****             * Because last chunk of data is being copied.
 159:.\Generated_Source\PSoC4/USBFS_episr.c ****             * For CY_PSOC 3/5LP: it is acceptable as DMA is really fast.
 160:.\Generated_Source\PSoC4/USBFS_episr.c ****             * For CY_PSOC4: this event is set in Arbiter interrupt (source is DMA_TERMIN).
 161:.\Generated_Source\PSoC4/USBFS_episr.c ****             */
 162:.\Generated_Source\PSoC4/USBFS_episr.c ****             USBFS_EP[USBFS_EP2].apiEpState = USBFS_EVENT_PENDING;
 163:.\Generated_Source\PSoC4/USBFS_episr.c ****         }
 164:.\Generated_Source\PSoC4/USBFS_episr.c **** 
 165:.\Generated_Source\PSoC4/USBFS_episr.c ****     #if (!(CY_PSOC4 && USBFS_EP_MANAGEMENT_DMA_AUTO))
 166:.\Generated_Source\PSoC4/USBFS_episr.c ****         #if (defined(USBFS_ENABLE_MIDI_STREAMING) && \
 167:.\Generated_Source\PSoC4/USBFS_episr.c ****             !defined(USBFS_MAIN_SERVICE_MIDI_OUT) && USBFS_ISR_SERVICE_MIDI_OUT)
 168:.\Generated_Source\PSoC4/USBFS_episr.c ****             if (USBFS_midi_out_ep == USBFS_EP2)
 169:.\Generated_Source\PSoC4/USBFS_episr.c ****             {
 170:.\Generated_Source\PSoC4/USBFS_episr.c ****                 USBFS_MIDI_OUT_Service();
 171:.\Generated_Source\PSoC4/USBFS_episr.c ****             }
 172:.\Generated_Source\PSoC4/USBFS_episr.c ****         #endif /* (USBFS_ISR_SERVICE_MIDI_OUT) */
 173:.\Generated_Source\PSoC4/USBFS_episr.c ****     #endif /* (!(CY_PSOC4 && USBFS_EP_MANAGEMENT_DMA_AUTO)) */        
 174:.\Generated_Source\PSoC4/USBFS_episr.c ****     
 175:.\Generated_Source\PSoC4/USBFS_episr.c ****         /* `#START EP2_END_USER_CODE` Place your code here */
 176:.\Generated_Source\PSoC4/USBFS_episr.c **** 
 177:.\Generated_Source\PSoC4/USBFS_episr.c ****         /* `#END` */
 178:.\Generated_Source\PSoC4/USBFS_episr.c **** 
 179:.\Generated_Source\PSoC4/USBFS_episr.c ****     #ifdef USBFS_EP_2_ISR_EXIT_CALLBACK
 180:.\Generated_Source\PSoC4/USBFS_episr.c ****         USBFS_EP_2_ISR_ExitCallback();
 181:.\Generated_Source\PSoC4/USBFS_episr.c ****     #endif /* (USBFS_EP_2_ISR_EXIT_CALLBACK) */
 182:.\Generated_Source\PSoC4/USBFS_episr.c **** 
 183:.\Generated_Source\PSoC4/USBFS_episr.c ****     #if (CY_PSOC3 && defined(USBFS_ENABLE_MIDI_STREAMING) && \
 184:.\Generated_Source\PSoC4/USBFS_episr.c ****         !defined(USBFS_MAIN_SERVICE_MIDI_OUT) && USBFS_ISR_SERVICE_MIDI_OUT)
 185:.\Generated_Source\PSoC4/USBFS_episr.c ****         
 186:.\Generated_Source\PSoC4/USBFS_episr.c ****             EA = intEn; /* Restore nested interrupt configuration. */
 187:.\Generated_Source\PSoC4/USBFS_episr.c ****         }
 188:.\Generated_Source\PSoC4/USBFS_episr.c ****     #endif /* (CY_PSOC3 && USBFS_ISR_SERVICE_MIDI_OUT) */
 189:.\Generated_Source\PSoC4/USBFS_episr.c ****     }
 190:.\Generated_Source\PSoC4/USBFS_episr.c **** #endif /* (USBFS_EP2_ISR_ACTIVE) */
 191:.\Generated_Source\PSoC4/USBFS_episr.c **** 
 192:.\Generated_Source\PSoC4/USBFS_episr.c **** 
 193:.\Generated_Source\PSoC4/USBFS_episr.c **** #if (USBFS_EP3_ISR_ACTIVE)
 194:.\Generated_Source\PSoC4/USBFS_episr.c ****     /*******************************************************************************
 195:.\Generated_Source\PSoC4/USBFS_episr.c ****     * Function Name: USBFS_EP_3_ISR
 196:.\Generated_Source\PSoC4/USBFS_episr.c ****     ****************************************************************************//**
 197:.\Generated_Source\PSoC4/USBFS_episr.c ****     *
 198:.\Generated_Source\PSoC4/USBFS_episr.c ****     *  Endpoint 3 Interrupt Service Routine.
 199:.\Generated_Source\PSoC4/USBFS_episr.c ****     *
 200:.\Generated_Source\PSoC4/USBFS_episr.c ****     *******************************************************************************/
 201:.\Generated_Source\PSoC4/USBFS_episr.c ****     CY_ISR(USBFS_EP_3_ISR)
 202:.\Generated_Source\PSoC4/USBFS_episr.c ****     {
 203:.\Generated_Source\PSoC4/USBFS_episr.c ****     #ifdef USBFS_EP_3_ISR_ENTRY_CALLBACK
ARM GAS  C:\Users\Terence\AppData\Local\Temp\cc65qyTh.s 			page 5


 204:.\Generated_Source\PSoC4/USBFS_episr.c ****         USBFS_EP_3_ISR_EntryCallback();
 205:.\Generated_Source\PSoC4/USBFS_episr.c ****     #endif /* (USBFS_EP_3_ISR_ENTRY_CALLBACK) */
 206:.\Generated_Source\PSoC4/USBFS_episr.c **** 
 207:.\Generated_Source\PSoC4/USBFS_episr.c ****         /* `#START EP3_USER_CODE` Place your code here */
 208:.\Generated_Source\PSoC4/USBFS_episr.c **** 
 209:.\Generated_Source\PSoC4/USBFS_episr.c ****         /* `#END` */
 210:.\Generated_Source\PSoC4/USBFS_episr.c **** 
 211:.\Generated_Source\PSoC4/USBFS_episr.c ****     #if (CY_PSOC3 && defined(USBFS_ENABLE_MIDI_STREAMING) && \
 212:.\Generated_Source\PSoC4/USBFS_episr.c ****         !defined(USBFS_MAIN_SERVICE_MIDI_OUT) && USBFS_ISR_SERVICE_MIDI_OUT)
 213:.\Generated_Source\PSoC4/USBFS_episr.c ****         {
 214:.\Generated_Source\PSoC4/USBFS_episr.c ****             uint8 intEn = EA;
 215:.\Generated_Source\PSoC4/USBFS_episr.c ****             CyGlobalIntEnable;  /* Enable nested interrupts. */
 216:.\Generated_Source\PSoC4/USBFS_episr.c ****     #endif /* (CY_PSOC3 && USBFS_ISR_SERVICE_MIDI_OUT) */
 217:.\Generated_Source\PSoC4/USBFS_episr.c **** 
 218:.\Generated_Source\PSoC4/USBFS_episr.c ****         USBFS_ClearSieEpInterruptSource(USBFS_SIE_INT_EP3_INTR);    
 219:.\Generated_Source\PSoC4/USBFS_episr.c **** 
 220:.\Generated_Source\PSoC4/USBFS_episr.c ****         /* Notifies user that transfer IN or OUT transfer is completed.
 221:.\Generated_Source\PSoC4/USBFS_episr.c ****         * IN endpoint: endpoint buffer can be reloaded, Host is read data.
 222:.\Generated_Source\PSoC4/USBFS_episr.c ****         * OUT endpoint: data is ready to be read from endpoint buffer. 
 223:.\Generated_Source\PSoC4/USBFS_episr.c ****         */
 224:.\Generated_Source\PSoC4/USBFS_episr.c ****     #if (CY_PSOC4 && USBFS_EP_MANAGEMENT_DMA_AUTO)
 225:.\Generated_Source\PSoC4/USBFS_episr.c ****         if (0u != (USBFS_EP[USBFS_EP3].addr & USBFS_DIR_IN))
 226:.\Generated_Source\PSoC4/USBFS_episr.c ****     #endif /* (USBFS_EP_MANAGEMENT_DMA_AUTO) */
 227:.\Generated_Source\PSoC4/USBFS_episr.c ****         {            
 228:.\Generated_Source\PSoC4/USBFS_episr.c ****             /* Read CR0 register to clear SIE lock. */
 229:.\Generated_Source\PSoC4/USBFS_episr.c ****             (void) USBFS_SIE_EP_BASE.sieEp[USBFS_EP3].epCr0;
 230:.\Generated_Source\PSoC4/USBFS_episr.c **** 
 231:.\Generated_Source\PSoC4/USBFS_episr.c ****             /* Toggle all endpoint types except ISOC. */
 232:.\Generated_Source\PSoC4/USBFS_episr.c ****             if (USBFS_GET_EP_TYPE(USBFS_EP3) != USBFS_EP_TYPE_ISOC)
 233:.\Generated_Source\PSoC4/USBFS_episr.c ****             {
 234:.\Generated_Source\PSoC4/USBFS_episr.c ****                 USBFS_EP[USBFS_EP3].epToggle ^= USBFS_EPX_CNT_DATA_TOGGLE;
 235:.\Generated_Source\PSoC4/USBFS_episr.c ****             }
 236:.\Generated_Source\PSoC4/USBFS_episr.c **** 
 237:.\Generated_Source\PSoC4/USBFS_episr.c ****             /* EP_MANAGEMENT_DMA_AUTO (Ticket ID# 214187): For OUT endpoint this event is used to n
 238:.\Generated_Source\PSoC4/USBFS_episr.c ****             * user that DMA has completed copying data from OUT endpoint which is not completely tr
 239:.\Generated_Source\PSoC4/USBFS_episr.c ****             * Because last chunk of data is being copied.
 240:.\Generated_Source\PSoC4/USBFS_episr.c ****             * For CY_PSOC 3/5LP: it is acceptable as DMA is really fast.
 241:.\Generated_Source\PSoC4/USBFS_episr.c ****             * For CY_PSOC4: this event is set in Arbiter interrupt (source is DMA_TERMIN).
 242:.\Generated_Source\PSoC4/USBFS_episr.c ****             */
 243:.\Generated_Source\PSoC4/USBFS_episr.c ****             USBFS_EP[USBFS_EP3].apiEpState = USBFS_EVENT_PENDING;
 244:.\Generated_Source\PSoC4/USBFS_episr.c ****         }
 245:.\Generated_Source\PSoC4/USBFS_episr.c **** 
 246:.\Generated_Source\PSoC4/USBFS_episr.c ****     #if (!(CY_PSOC4 && USBFS_EP_MANAGEMENT_DMA_AUTO))
 247:.\Generated_Source\PSoC4/USBFS_episr.c ****         #if (defined(USBFS_ENABLE_MIDI_STREAMING) && \
 248:.\Generated_Source\PSoC4/USBFS_episr.c ****             !defined(USBFS_MAIN_SERVICE_MIDI_OUT) && USBFS_ISR_SERVICE_MIDI_OUT)
 249:.\Generated_Source\PSoC4/USBFS_episr.c ****             if (USBFS_midi_out_ep == USBFS_EP3)
 250:.\Generated_Source\PSoC4/USBFS_episr.c ****             {
 251:.\Generated_Source\PSoC4/USBFS_episr.c ****                 USBFS_MIDI_OUT_Service();
 252:.\Generated_Source\PSoC4/USBFS_episr.c ****             }
 253:.\Generated_Source\PSoC4/USBFS_episr.c ****         #endif /* (USBFS_ISR_SERVICE_MIDI_OUT) */
 254:.\Generated_Source\PSoC4/USBFS_episr.c ****     #endif /* (!(CY_PSOC4 && USBFS_EP_MANAGEMENT_DMA_AUTO)) */        
 255:.\Generated_Source\PSoC4/USBFS_episr.c **** 
 256:.\Generated_Source\PSoC4/USBFS_episr.c ****         /* `#START EP3_END_USER_CODE` Place your code here */
 257:.\Generated_Source\PSoC4/USBFS_episr.c **** 
 258:.\Generated_Source\PSoC4/USBFS_episr.c ****         /* `#END` */
 259:.\Generated_Source\PSoC4/USBFS_episr.c **** 
 260:.\Generated_Source\PSoC4/USBFS_episr.c ****     #ifdef USBFS_EP_3_ISR_EXIT_CALLBACK
ARM GAS  C:\Users\Terence\AppData\Local\Temp\cc65qyTh.s 			page 6


 261:.\Generated_Source\PSoC4/USBFS_episr.c ****         USBFS_EP_3_ISR_ExitCallback();
 262:.\Generated_Source\PSoC4/USBFS_episr.c ****     #endif /* (USBFS_EP_3_ISR_EXIT_CALLBACK) */
 263:.\Generated_Source\PSoC4/USBFS_episr.c **** 
 264:.\Generated_Source\PSoC4/USBFS_episr.c ****     #if (CY_PSOC3 && defined(USBFS_ENABLE_MIDI_STREAMING) && \
 265:.\Generated_Source\PSoC4/USBFS_episr.c ****         !defined(USBFS_MAIN_SERVICE_MIDI_OUT) && USBFS_ISR_SERVICE_MIDI_OUT)
 266:.\Generated_Source\PSoC4/USBFS_episr.c ****         
 267:.\Generated_Source\PSoC4/USBFS_episr.c ****             EA = intEn; /* Restore nested interrupt configuration. */
 268:.\Generated_Source\PSoC4/USBFS_episr.c ****         }
 269:.\Generated_Source\PSoC4/USBFS_episr.c ****     #endif /* (CY_PSOC3 && USBFS_ISR_SERVICE_MIDI_OUT) */
 270:.\Generated_Source\PSoC4/USBFS_episr.c ****     }
 271:.\Generated_Source\PSoC4/USBFS_episr.c **** #endif /* (USBFS_EP3_ISR_ACTIVE) */
 272:.\Generated_Source\PSoC4/USBFS_episr.c **** 
 273:.\Generated_Source\PSoC4/USBFS_episr.c **** 
 274:.\Generated_Source\PSoC4/USBFS_episr.c **** #if (USBFS_EP4_ISR_ACTIVE)
 275:.\Generated_Source\PSoC4/USBFS_episr.c ****     /*******************************************************************************
 276:.\Generated_Source\PSoC4/USBFS_episr.c ****     * Function Name: USBFS_EP_4_ISR
 277:.\Generated_Source\PSoC4/USBFS_episr.c ****     ****************************************************************************//**
 278:.\Generated_Source\PSoC4/USBFS_episr.c ****     *
 279:.\Generated_Source\PSoC4/USBFS_episr.c ****     *  Endpoint 4 Interrupt Service Routine.
 280:.\Generated_Source\PSoC4/USBFS_episr.c ****     *
 281:.\Generated_Source\PSoC4/USBFS_episr.c ****     *******************************************************************************/
 282:.\Generated_Source\PSoC4/USBFS_episr.c ****     CY_ISR(USBFS_EP_4_ISR)
 283:.\Generated_Source\PSoC4/USBFS_episr.c ****     {
  26              		.loc 1 283 0
  27              		.cfi_startproc
 284:.\Generated_Source\PSoC4/USBFS_episr.c ****     #ifdef USBFS_EP_4_ISR_ENTRY_CALLBACK
 285:.\Generated_Source\PSoC4/USBFS_episr.c ****         USBFS_EP_4_ISR_EntryCallback();
 286:.\Generated_Source\PSoC4/USBFS_episr.c ****     #endif /* (USBFS_EP_4_ISR_ENTRY_CALLBACK) */
 287:.\Generated_Source\PSoC4/USBFS_episr.c **** 
 288:.\Generated_Source\PSoC4/USBFS_episr.c ****         /* `#START EP4_USER_CODE` Place your code here */
 289:.\Generated_Source\PSoC4/USBFS_episr.c **** 
 290:.\Generated_Source\PSoC4/USBFS_episr.c ****         /* `#END` */
 291:.\Generated_Source\PSoC4/USBFS_episr.c **** 
 292:.\Generated_Source\PSoC4/USBFS_episr.c ****     #if (CY_PSOC3 && defined(USBFS_ENABLE_MIDI_STREAMING) && \
 293:.\Generated_Source\PSoC4/USBFS_episr.c ****         !defined(USBFS_MAIN_SERVICE_MIDI_OUT) && USBFS_ISR_SERVICE_MIDI_OUT)
 294:.\Generated_Source\PSoC4/USBFS_episr.c ****         {
 295:.\Generated_Source\PSoC4/USBFS_episr.c ****             uint8 intEn = EA;
 296:.\Generated_Source\PSoC4/USBFS_episr.c ****             CyGlobalIntEnable;  /* Enable nested interrupts. */
 297:.\Generated_Source\PSoC4/USBFS_episr.c ****     #endif /* (CY_PSOC3 && USBFS_ISR_SERVICE_MIDI_OUT) */
 298:.\Generated_Source\PSoC4/USBFS_episr.c **** 
 299:.\Generated_Source\PSoC4/USBFS_episr.c ****         USBFS_ClearSieEpInterruptSource(USBFS_SIE_INT_EP4_INTR);
  28              		.loc 1 299 0
  29 0000 0822     		mov	r2, #8
  30 0002 0F4B     		ldr	r3, .L4
  31 0004 1A60     		str	r2, [r3]
 300:.\Generated_Source\PSoC4/USBFS_episr.c ****         
 301:.\Generated_Source\PSoC4/USBFS_episr.c ****         /* Notifies user that transfer IN or OUT transfer is completed.
 302:.\Generated_Source\PSoC4/USBFS_episr.c ****         * IN endpoint: endpoint buffer can be reloaded, Host is read data.
 303:.\Generated_Source\PSoC4/USBFS_episr.c ****         * OUT endpoint: data is ready to read from endpoint buffer. 
 304:.\Generated_Source\PSoC4/USBFS_episr.c ****         */
 305:.\Generated_Source\PSoC4/USBFS_episr.c ****     #if (CY_PSOC4 && USBFS_EP_MANAGEMENT_DMA_AUTO)
 306:.\Generated_Source\PSoC4/USBFS_episr.c ****         if (0u != (USBFS_EP[USBFS_EP4].addr & USBFS_DIR_IN))
  32              		.loc 1 306 0
  33 0006 3423     		mov	r3, #52
  34 0008 0E4A     		ldr	r2, .L4+4
  35 000a D35C     		ldrb	r3, [r2, r3]
  36 000c 5BB2     		sxtb	r3, r3
ARM GAS  C:\Users\Terence\AppData\Local\Temp\cc65qyTh.s 			page 7


  37 000e 002B     		cmp	r3, #0
  38 0010 14DA     		bge	.L1
 307:.\Generated_Source\PSoC4/USBFS_episr.c ****     #endif /* (USBFS_EP_MANAGEMENT_DMA_AUTO) */
 308:.\Generated_Source\PSoC4/USBFS_episr.c ****         {
 309:.\Generated_Source\PSoC4/USBFS_episr.c ****             /* Read CR0 register to clear SIE lock. */
 310:.\Generated_Source\PSoC4/USBFS_episr.c ****             (void) USBFS_SIE_EP_BASE.sieEp[USBFS_EP4].epCr0;
  39              		.loc 1 310 0
  40 0012 8423     		mov	r3, #132
  41 0014 5B00     		lsl	r3, r3, #1
  42 0016 0C4A     		ldr	r2, .L4+8
  43 0018 D358     		ldr	r3, [r2, r3]
 311:.\Generated_Source\PSoC4/USBFS_episr.c **** 
 312:.\Generated_Source\PSoC4/USBFS_episr.c ****             /* Toggle all endpoint types except ISOC. */
 313:.\Generated_Source\PSoC4/USBFS_episr.c ****             if (USBFS_GET_EP_TYPE(USBFS_EP4) != USBFS_EP_TYPE_ISOC)
  44              		.loc 1 313 0
  45 001a 3023     		mov	r3, #48
  46 001c 094A     		ldr	r2, .L4+4
  47 001e D25C     		ldrb	r2, [r2, r3]
  48 0020 2D3B     		sub	r3, r3, #45
  49 0022 1340     		and	r3, r2
  50 0024 012B     		cmp	r3, #1
  51 0026 05D0     		beq	.L3
 314:.\Generated_Source\PSoC4/USBFS_episr.c ****             {
 315:.\Generated_Source\PSoC4/USBFS_episr.c ****                 USBFS_EP[USBFS_EP4].epToggle ^= USBFS_EPX_CNT_DATA_TOGGLE;
  52              		.loc 1 315 0
  53 0028 0649     		ldr	r1, .L4+4
  54 002a 3322     		mov	r2, #51
  55 002c 885C     		ldrb	r0, [r1, r2]
  56 002e 8023     		mov	r3, #128
  57 0030 4340     		eor	r3, r0
  58 0032 8B54     		strb	r3, [r1, r2]
  59              	.L3:
 316:.\Generated_Source\PSoC4/USBFS_episr.c ****             }
 317:.\Generated_Source\PSoC4/USBFS_episr.c **** 
 318:.\Generated_Source\PSoC4/USBFS_episr.c ****             /* EP_MANAGEMENT_DMA_AUTO (Ticket ID# 214187): For OUT endpoint this event is used to n
 319:.\Generated_Source\PSoC4/USBFS_episr.c ****             * user that DMA has completed copying data from OUT endpoint which is not completely tr
 320:.\Generated_Source\PSoC4/USBFS_episr.c ****             * Because last chunk of data is being copied.
 321:.\Generated_Source\PSoC4/USBFS_episr.c ****             * For CY_PSOC 3/5LP: it is acceptable as DMA is really fast.
 322:.\Generated_Source\PSoC4/USBFS_episr.c ****             * For CY_PSOC4: this event is set in Arbiter interrupt (source is DMA_TERMIN).
 323:.\Generated_Source\PSoC4/USBFS_episr.c ****             */
 324:.\Generated_Source\PSoC4/USBFS_episr.c ****             USBFS_EP[USBFS_EP4].apiEpState = USBFS_EVENT_PENDING;
  60              		.loc 1 324 0
  61 0034 0121     		mov	r1, #1
  62 0036 3123     		mov	r3, #49
  63 0038 024A     		ldr	r2, .L4+4
  64 003a D154     		strb	r1, [r2, r3]
  65              	.L1:
 325:.\Generated_Source\PSoC4/USBFS_episr.c ****         }
 326:.\Generated_Source\PSoC4/USBFS_episr.c **** 
 327:.\Generated_Source\PSoC4/USBFS_episr.c ****     #if (!(CY_PSOC4 && USBFS_EP_MANAGEMENT_DMA_AUTO))
 328:.\Generated_Source\PSoC4/USBFS_episr.c ****         #if (defined(USBFS_ENABLE_MIDI_STREAMING) && \
 329:.\Generated_Source\PSoC4/USBFS_episr.c ****             !defined(USBFS_MAIN_SERVICE_MIDI_OUT) && USBFS_ISR_SERVICE_MIDI_OUT)
 330:.\Generated_Source\PSoC4/USBFS_episr.c ****             if(USBFS_midi_out_ep == USBFS_EP4)
 331:.\Generated_Source\PSoC4/USBFS_episr.c ****             {
 332:.\Generated_Source\PSoC4/USBFS_episr.c ****                 USBFS_MIDI_OUT_Service();
 333:.\Generated_Source\PSoC4/USBFS_episr.c ****             }
 334:.\Generated_Source\PSoC4/USBFS_episr.c ****         #endif /* (USBFS_ISR_SERVICE_MIDI_OUT) */
ARM GAS  C:\Users\Terence\AppData\Local\Temp\cc65qyTh.s 			page 8


 335:.\Generated_Source\PSoC4/USBFS_episr.c ****     #endif /* (!(CY_PSOC4 && USBFS_EP_MANAGEMENT_DMA_AUTO)) */        
 336:.\Generated_Source\PSoC4/USBFS_episr.c **** 
 337:.\Generated_Source\PSoC4/USBFS_episr.c ****         /* `#START EP4_END_USER_CODE` Place your code here */
 338:.\Generated_Source\PSoC4/USBFS_episr.c **** 
 339:.\Generated_Source\PSoC4/USBFS_episr.c ****         /* `#END` */
 340:.\Generated_Source\PSoC4/USBFS_episr.c **** 
 341:.\Generated_Source\PSoC4/USBFS_episr.c ****     #ifdef USBFS_EP_4_ISR_EXIT_CALLBACK
 342:.\Generated_Source\PSoC4/USBFS_episr.c ****         USBFS_EP_4_ISR_ExitCallback();
 343:.\Generated_Source\PSoC4/USBFS_episr.c ****     #endif /* (USBFS_EP_4_ISR_EXIT_CALLBACK) */
 344:.\Generated_Source\PSoC4/USBFS_episr.c **** 
 345:.\Generated_Source\PSoC4/USBFS_episr.c ****     #if (CY_PSOC3 && defined(USBFS_ENABLE_MIDI_STREAMING) && \
 346:.\Generated_Source\PSoC4/USBFS_episr.c ****         !defined(USBFS_MAIN_SERVICE_MIDI_OUT) && USBFS_ISR_SERVICE_MIDI_OUT)
 347:.\Generated_Source\PSoC4/USBFS_episr.c ****         
 348:.\Generated_Source\PSoC4/USBFS_episr.c ****             EA = intEn; /* Restore nested interrupt configuration. */
 349:.\Generated_Source\PSoC4/USBFS_episr.c ****         }
 350:.\Generated_Source\PSoC4/USBFS_episr.c ****     #endif /* (CY_PSOC3 && USBFS_ISR_SERVICE_MIDI_OUT) */
 351:.\Generated_Source\PSoC4/USBFS_episr.c ****     }
  66              		.loc 1 351 0
  67              		@ sp needed
  68 003c 7047     		bx	lr
  69              	.L5:
  70 003e C046     		.align	2
  71              	.L4:
  72 0040 2C002C40 		.word	1076625452
  73 0044 00000000 		.word	USBFS_EP
  74 0048 F0FF2B40 		.word	1076625392
  75              		.cfi_endproc
  76              	.LFE165:
  77              		.size	USBFS_EP_4_ISR, .-USBFS_EP_4_ISR
  78              		.section	.text.USBFS_EP_6_ISR,"ax",%progbits
  79              		.align	2
  80              		.global	USBFS_EP_6_ISR
  81              		.code	16
  82              		.thumb_func
  83              		.type	USBFS_EP_6_ISR, %function
  84              	USBFS_EP_6_ISR:
  85              	.LFB166:
 352:.\Generated_Source\PSoC4/USBFS_episr.c **** #endif /* (USBFS_EP4_ISR_ACTIVE) */
 353:.\Generated_Source\PSoC4/USBFS_episr.c **** 
 354:.\Generated_Source\PSoC4/USBFS_episr.c **** 
 355:.\Generated_Source\PSoC4/USBFS_episr.c **** #if (USBFS_EP5_ISR_ACTIVE)
 356:.\Generated_Source\PSoC4/USBFS_episr.c ****     /*******************************************************************************
 357:.\Generated_Source\PSoC4/USBFS_episr.c ****     * Function Name: USBFS_EP_5_ISR
 358:.\Generated_Source\PSoC4/USBFS_episr.c ****     ****************************************************************************//**
 359:.\Generated_Source\PSoC4/USBFS_episr.c ****     *
 360:.\Generated_Source\PSoC4/USBFS_episr.c ****     *  Endpoint 5 Interrupt Service Routine
 361:.\Generated_Source\PSoC4/USBFS_episr.c ****     *
 362:.\Generated_Source\PSoC4/USBFS_episr.c ****     *
 363:.\Generated_Source\PSoC4/USBFS_episr.c ****     *******************************************************************************/
 364:.\Generated_Source\PSoC4/USBFS_episr.c ****     CY_ISR(USBFS_EP_5_ISR)
 365:.\Generated_Source\PSoC4/USBFS_episr.c ****     {
 366:.\Generated_Source\PSoC4/USBFS_episr.c ****     #ifdef USBFS_EP_5_ISR_ENTRY_CALLBACK
 367:.\Generated_Source\PSoC4/USBFS_episr.c ****         USBFS_EP_5_ISR_EntryCallback();
 368:.\Generated_Source\PSoC4/USBFS_episr.c ****     #endif /* (USBFS_EP_5_ISR_ENTRY_CALLBACK) */
 369:.\Generated_Source\PSoC4/USBFS_episr.c **** 
 370:.\Generated_Source\PSoC4/USBFS_episr.c ****         /* `#START EP5_USER_CODE` Place your code here */
 371:.\Generated_Source\PSoC4/USBFS_episr.c **** 
ARM GAS  C:\Users\Terence\AppData\Local\Temp\cc65qyTh.s 			page 9


 372:.\Generated_Source\PSoC4/USBFS_episr.c ****         /* `#END` */
 373:.\Generated_Source\PSoC4/USBFS_episr.c **** 
 374:.\Generated_Source\PSoC4/USBFS_episr.c ****     #if (defined(USBFS_ENABLE_MIDI_STREAMING) && !defined(USBFS_MAIN_SERVICE_MIDI_OUT) && \
 375:.\Generated_Source\PSoC4/USBFS_episr.c ****                  USBFS_ISR_SERVICE_MIDI_OUT && CY_PSOC3)
 376:.\Generated_Source\PSoC4/USBFS_episr.c ****         {
 377:.\Generated_Source\PSoC4/USBFS_episr.c ****             uint8 intEn = EA;
 378:.\Generated_Source\PSoC4/USBFS_episr.c ****             CyGlobalIntEnable;  /* Enable nested interrupts. */
 379:.\Generated_Source\PSoC4/USBFS_episr.c ****     #endif /* (CY_PSOC3 && USBFS_ISR_SERVICE_MIDI_OUT) */
 380:.\Generated_Source\PSoC4/USBFS_episr.c **** 
 381:.\Generated_Source\PSoC4/USBFS_episr.c ****         USBFS_ClearSieEpInterruptSource(USBFS_SIE_INT_EP5_INTR);
 382:.\Generated_Source\PSoC4/USBFS_episr.c ****     
 383:.\Generated_Source\PSoC4/USBFS_episr.c ****         /* Notifies user that transfer IN or OUT transfer is completed.
 384:.\Generated_Source\PSoC4/USBFS_episr.c ****         * IN endpoint: endpoint buffer can be reloaded, Host is read data.
 385:.\Generated_Source\PSoC4/USBFS_episr.c ****         * OUT endpoint: data is ready to read from endpoint buffer. 
 386:.\Generated_Source\PSoC4/USBFS_episr.c ****         */
 387:.\Generated_Source\PSoC4/USBFS_episr.c ****     #if (CY_PSOC4 && USBFS_EP_MANAGEMENT_DMA_AUTO)
 388:.\Generated_Source\PSoC4/USBFS_episr.c ****         if (0u != (USBFS_EP[USBFS_EP5].addr & USBFS_DIR_IN))
 389:.\Generated_Source\PSoC4/USBFS_episr.c ****     #endif /* (USBFS_EP_MANAGEMENT_DMA_AUTO) */
 390:.\Generated_Source\PSoC4/USBFS_episr.c ****         {            
 391:.\Generated_Source\PSoC4/USBFS_episr.c ****             /* Read CR0 register to clear SIE lock. */
 392:.\Generated_Source\PSoC4/USBFS_episr.c ****             (void) USBFS_SIE_EP_BASE.sieEp[USBFS_EP5].epCr0;
 393:.\Generated_Source\PSoC4/USBFS_episr.c **** 
 394:.\Generated_Source\PSoC4/USBFS_episr.c ****             /* Toggle all endpoint types except ISOC. */
 395:.\Generated_Source\PSoC4/USBFS_episr.c ****             if (USBFS_GET_EP_TYPE(USBFS_EP5) != USBFS_EP_TYPE_ISOC)
 396:.\Generated_Source\PSoC4/USBFS_episr.c ****             {
 397:.\Generated_Source\PSoC4/USBFS_episr.c ****                 USBFS_EP[USBFS_EP5].epToggle ^= USBFS_EPX_CNT_DATA_TOGGLE;
 398:.\Generated_Source\PSoC4/USBFS_episr.c ****             }
 399:.\Generated_Source\PSoC4/USBFS_episr.c **** 
 400:.\Generated_Source\PSoC4/USBFS_episr.c ****             /* EP_MANAGEMENT_DMA_AUTO (Ticket ID# 214187): For OUT endpoint this event is used to n
 401:.\Generated_Source\PSoC4/USBFS_episr.c ****             * user that DMA has completed copying data from OUT endpoint which is not completely tr
 402:.\Generated_Source\PSoC4/USBFS_episr.c ****             * Because last chunk of data is being copied.
 403:.\Generated_Source\PSoC4/USBFS_episr.c ****             * For CY_PSOC 3/5LP: it is acceptable as DMA is really fast.
 404:.\Generated_Source\PSoC4/USBFS_episr.c ****             * For CY_PSOC4: this event is set in Arbiter interrupt (source is DMA_TERMIN).
 405:.\Generated_Source\PSoC4/USBFS_episr.c ****             */
 406:.\Generated_Source\PSoC4/USBFS_episr.c ****             USBFS_EP[USBFS_EP5].apiEpState = USBFS_EVENT_PENDING;
 407:.\Generated_Source\PSoC4/USBFS_episr.c ****         }
 408:.\Generated_Source\PSoC4/USBFS_episr.c **** 
 409:.\Generated_Source\PSoC4/USBFS_episr.c ****     #if (!(CY_PSOC4 && USBFS_EP_MANAGEMENT_DMA_AUTO))        
 410:.\Generated_Source\PSoC4/USBFS_episr.c ****         #if (defined(USBFS_ENABLE_MIDI_STREAMING) && \
 411:.\Generated_Source\PSoC4/USBFS_episr.c ****             !defined(USBFS_MAIN_SERVICE_MIDI_OUT) && USBFS_ISR_SERVICE_MIDI_OUT)
 412:.\Generated_Source\PSoC4/USBFS_episr.c ****             if (USBFS_midi_out_ep == USBFS_EP5)
 413:.\Generated_Source\PSoC4/USBFS_episr.c ****             {
 414:.\Generated_Source\PSoC4/USBFS_episr.c ****                 USBFS_MIDI_OUT_Service();
 415:.\Generated_Source\PSoC4/USBFS_episr.c ****             }
 416:.\Generated_Source\PSoC4/USBFS_episr.c ****         #endif /* (USBFS_ISR_SERVICE_MIDI_OUT) */
 417:.\Generated_Source\PSoC4/USBFS_episr.c ****     #endif /* (!(CY_PSOC4 && USBFS_EP_MANAGEMENT_DMA_AUTO)) */
 418:.\Generated_Source\PSoC4/USBFS_episr.c **** 
 419:.\Generated_Source\PSoC4/USBFS_episr.c ****         /* `#START EP5_END_USER_CODE` Place your code here */
 420:.\Generated_Source\PSoC4/USBFS_episr.c **** 
 421:.\Generated_Source\PSoC4/USBFS_episr.c ****         /* `#END` */
 422:.\Generated_Source\PSoC4/USBFS_episr.c **** 
 423:.\Generated_Source\PSoC4/USBFS_episr.c ****     #ifdef USBFS_EP_5_ISR_EXIT_CALLBACK
 424:.\Generated_Source\PSoC4/USBFS_episr.c ****         USBFS_EP_5_ISR_ExitCallback();
 425:.\Generated_Source\PSoC4/USBFS_episr.c ****     #endif /* (USBFS_EP_5_ISR_EXIT_CALLBACK) */
 426:.\Generated_Source\PSoC4/USBFS_episr.c **** 
 427:.\Generated_Source\PSoC4/USBFS_episr.c ****     #if (CY_PSOC3 && defined(USBFS_ENABLE_MIDI_STREAMING) && \
 428:.\Generated_Source\PSoC4/USBFS_episr.c ****         !defined(USBFS_MAIN_SERVICE_MIDI_OUT) && USBFS_ISR_SERVICE_MIDI_OUT)
ARM GAS  C:\Users\Terence\AppData\Local\Temp\cc65qyTh.s 			page 10


 429:.\Generated_Source\PSoC4/USBFS_episr.c ****         
 430:.\Generated_Source\PSoC4/USBFS_episr.c ****             EA = intEn; /* Restore nested interrupt configuration. */
 431:.\Generated_Source\PSoC4/USBFS_episr.c ****         }
 432:.\Generated_Source\PSoC4/USBFS_episr.c ****     #endif /* (CY_PSOC3 && USBFS_ISR_SERVICE_MIDI_OUT) */
 433:.\Generated_Source\PSoC4/USBFS_episr.c ****     }
 434:.\Generated_Source\PSoC4/USBFS_episr.c **** #endif /* (USBFS_EP5_ISR_ACTIVE) */
 435:.\Generated_Source\PSoC4/USBFS_episr.c **** 
 436:.\Generated_Source\PSoC4/USBFS_episr.c **** 
 437:.\Generated_Source\PSoC4/USBFS_episr.c **** #if (USBFS_EP6_ISR_ACTIVE)
 438:.\Generated_Source\PSoC4/USBFS_episr.c ****     /*******************************************************************************
 439:.\Generated_Source\PSoC4/USBFS_episr.c ****     * Function Name: USBFS_EP_6_ISR
 440:.\Generated_Source\PSoC4/USBFS_episr.c ****     ****************************************************************************//**
 441:.\Generated_Source\PSoC4/USBFS_episr.c ****     *
 442:.\Generated_Source\PSoC4/USBFS_episr.c ****     *  Endpoint 6 Interrupt Service Routine.
 443:.\Generated_Source\PSoC4/USBFS_episr.c ****     *
 444:.\Generated_Source\PSoC4/USBFS_episr.c ****     *
 445:.\Generated_Source\PSoC4/USBFS_episr.c ****     *******************************************************************************/
 446:.\Generated_Source\PSoC4/USBFS_episr.c ****     CY_ISR(USBFS_EP_6_ISR)
 447:.\Generated_Source\PSoC4/USBFS_episr.c ****     {
  86              		.loc 1 447 0
  87              		.cfi_startproc
 448:.\Generated_Source\PSoC4/USBFS_episr.c ****     #ifdef USBFS_EP_6_ISR_ENTRY_CALLBACK
 449:.\Generated_Source\PSoC4/USBFS_episr.c ****         USBFS_EP_6_ISR_EntryCallback();
 450:.\Generated_Source\PSoC4/USBFS_episr.c ****     #endif /* (USBFS_EP_6_ISR_ENTRY_CALLBACK) */
 451:.\Generated_Source\PSoC4/USBFS_episr.c **** 
 452:.\Generated_Source\PSoC4/USBFS_episr.c ****         /* `#START EP6_USER_CODE` Place your code here */
 453:.\Generated_Source\PSoC4/USBFS_episr.c **** 
 454:.\Generated_Source\PSoC4/USBFS_episr.c ****         /* `#END` */
 455:.\Generated_Source\PSoC4/USBFS_episr.c **** 
 456:.\Generated_Source\PSoC4/USBFS_episr.c ****     #if (CY_PSOC3 && defined(USBFS_ENABLE_MIDI_STREAMING) && \
 457:.\Generated_Source\PSoC4/USBFS_episr.c ****         !defined(USBFS_MAIN_SERVICE_MIDI_OUT) && USBFS_ISR_SERVICE_MIDI_OUT)
 458:.\Generated_Source\PSoC4/USBFS_episr.c ****         {
 459:.\Generated_Source\PSoC4/USBFS_episr.c ****             uint8 intEn = EA;
 460:.\Generated_Source\PSoC4/USBFS_episr.c ****             CyGlobalIntEnable;  /* Enable nested interrupts. */
 461:.\Generated_Source\PSoC4/USBFS_episr.c ****     #endif /* (CY_PSOC3 && USBFS_ISR_SERVICE_MIDI_OUT) */
 462:.\Generated_Source\PSoC4/USBFS_episr.c **** 
 463:.\Generated_Source\PSoC4/USBFS_episr.c ****         USBFS_ClearSieEpInterruptSource(USBFS_SIE_INT_EP6_INTR);
  88              		.loc 1 463 0
  89 0000 2022     		mov	r2, #32
  90 0002 0F4B     		ldr	r3, .L9
  91 0004 1A60     		str	r2, [r3]
 464:.\Generated_Source\PSoC4/USBFS_episr.c ****         
 465:.\Generated_Source\PSoC4/USBFS_episr.c ****         /* Notifies user that transfer IN or OUT transfer is completed.
 466:.\Generated_Source\PSoC4/USBFS_episr.c ****         * IN endpoint: endpoint buffer can be reloaded, Host is read data.
 467:.\Generated_Source\PSoC4/USBFS_episr.c ****         * OUT endpoint: data is ready to read from endpoint buffer. 
 468:.\Generated_Source\PSoC4/USBFS_episr.c ****         */
 469:.\Generated_Source\PSoC4/USBFS_episr.c ****     #if (CY_PSOC4 && USBFS_EP_MANAGEMENT_DMA_AUTO)
 470:.\Generated_Source\PSoC4/USBFS_episr.c ****         if (0u != (USBFS_EP[USBFS_EP6].addr & USBFS_DIR_IN))
  92              		.loc 1 470 0
  93 0006 4C23     		mov	r3, #76
  94 0008 0E4A     		ldr	r2, .L9+4
  95 000a D35C     		ldrb	r3, [r2, r3]
  96 000c 5BB2     		sxtb	r3, r3
  97 000e 002B     		cmp	r3, #0
  98 0010 14DA     		bge	.L6
 471:.\Generated_Source\PSoC4/USBFS_episr.c ****     #endif /* (USBFS_EP_MANAGEMENT_DMA_AUTO) */
 472:.\Generated_Source\PSoC4/USBFS_episr.c ****         {
ARM GAS  C:\Users\Terence\AppData\Local\Temp\cc65qyTh.s 			page 11


 473:.\Generated_Source\PSoC4/USBFS_episr.c ****             /* Read CR0 register to clear SIE lock. */
 474:.\Generated_Source\PSoC4/USBFS_episr.c ****             (void) USBFS_SIE_EP_BASE.sieEp[USBFS_EP6].epCr0;
  99              		.loc 1 474 0
 100 0012 C423     		mov	r3, #196
 101 0014 5B00     		lsl	r3, r3, #1
 102 0016 0C4A     		ldr	r2, .L9+8
 103 0018 D358     		ldr	r3, [r2, r3]
 475:.\Generated_Source\PSoC4/USBFS_episr.c **** 
 476:.\Generated_Source\PSoC4/USBFS_episr.c ****             /* Toggle all endpoint types except ISOC. */
 477:.\Generated_Source\PSoC4/USBFS_episr.c ****             if (USBFS_GET_EP_TYPE(USBFS_EP6) != USBFS_EP_TYPE_ISOC)
 104              		.loc 1 477 0
 105 001a 4823     		mov	r3, #72
 106 001c 094A     		ldr	r2, .L9+4
 107 001e D25C     		ldrb	r2, [r2, r3]
 108 0020 453B     		sub	r3, r3, #69
 109 0022 1340     		and	r3, r2
 110 0024 012B     		cmp	r3, #1
 111 0026 05D0     		beq	.L8
 478:.\Generated_Source\PSoC4/USBFS_episr.c ****             {
 479:.\Generated_Source\PSoC4/USBFS_episr.c ****                 USBFS_EP[USBFS_EP6].epToggle ^= USBFS_EPX_CNT_DATA_TOGGLE;
 112              		.loc 1 479 0
 113 0028 0649     		ldr	r1, .L9+4
 114 002a 4B22     		mov	r2, #75
 115 002c 885C     		ldrb	r0, [r1, r2]
 116 002e 8023     		mov	r3, #128
 117 0030 4340     		eor	r3, r0
 118 0032 8B54     		strb	r3, [r1, r2]
 119              	.L8:
 480:.\Generated_Source\PSoC4/USBFS_episr.c ****             }
 481:.\Generated_Source\PSoC4/USBFS_episr.c ****             
 482:.\Generated_Source\PSoC4/USBFS_episr.c ****             /* EP_MANAGEMENT_DMA_AUTO (Ticket ID# 214187): For OUT endpoint this event is used to n
 483:.\Generated_Source\PSoC4/USBFS_episr.c ****             * user that DMA has completed copying data from OUT endpoint which is not completely tr
 484:.\Generated_Source\PSoC4/USBFS_episr.c ****             * Because last chunk of data is being copied.
 485:.\Generated_Source\PSoC4/USBFS_episr.c ****             * For CY_PSOC 3/5LP: it is acceptable as DMA is really fast.
 486:.\Generated_Source\PSoC4/USBFS_episr.c ****             * For CY_PSOC4: this event is set in Arbiter interrupt (source is DMA_TERMIN).
 487:.\Generated_Source\PSoC4/USBFS_episr.c ****             */
 488:.\Generated_Source\PSoC4/USBFS_episr.c ****             USBFS_EP[USBFS_EP6].apiEpState = USBFS_EVENT_PENDING;
 120              		.loc 1 488 0
 121 0034 0121     		mov	r1, #1
 122 0036 4923     		mov	r3, #73
 123 0038 024A     		ldr	r2, .L9+4
 124 003a D154     		strb	r1, [r2, r3]
 125              	.L6:
 489:.\Generated_Source\PSoC4/USBFS_episr.c ****         }
 490:.\Generated_Source\PSoC4/USBFS_episr.c **** 
 491:.\Generated_Source\PSoC4/USBFS_episr.c ****     #if (!(CY_PSOC4 && USBFS_EP_MANAGEMENT_DMA_AUTO))
 492:.\Generated_Source\PSoC4/USBFS_episr.c ****         #if (defined(USBFS_ENABLE_MIDI_STREAMING) && \
 493:.\Generated_Source\PSoC4/USBFS_episr.c ****             !defined(USBFS_MAIN_SERVICE_MIDI_OUT) && USBFS_ISR_SERVICE_MIDI_OUT)
 494:.\Generated_Source\PSoC4/USBFS_episr.c ****             if (USBFS_midi_out_ep == USBFS_EP6)
 495:.\Generated_Source\PSoC4/USBFS_episr.c ****             {
 496:.\Generated_Source\PSoC4/USBFS_episr.c ****                 USBFS_MIDI_OUT_Service();
 497:.\Generated_Source\PSoC4/USBFS_episr.c ****             }
 498:.\Generated_Source\PSoC4/USBFS_episr.c ****         #endif /* (USBFS_ISR_SERVICE_MIDI_OUT) */
 499:.\Generated_Source\PSoC4/USBFS_episr.c ****     #endif /* (!(CY_PSOC4 && USBFS_EP_MANAGEMENT_DMA_AUTO)) */
 500:.\Generated_Source\PSoC4/USBFS_episr.c **** 
 501:.\Generated_Source\PSoC4/USBFS_episr.c ****         /* `#START EP6_END_USER_CODE` Place your code here */
 502:.\Generated_Source\PSoC4/USBFS_episr.c **** 
ARM GAS  C:\Users\Terence\AppData\Local\Temp\cc65qyTh.s 			page 12


 503:.\Generated_Source\PSoC4/USBFS_episr.c ****         /* `#END` */
 504:.\Generated_Source\PSoC4/USBFS_episr.c **** 
 505:.\Generated_Source\PSoC4/USBFS_episr.c ****     #ifdef USBFS_EP_6_ISR_EXIT_CALLBACK
 506:.\Generated_Source\PSoC4/USBFS_episr.c ****         USBFS_EP_6_ISR_ExitCallback();
 507:.\Generated_Source\PSoC4/USBFS_episr.c ****     #endif /* (USBFS_EP_6_ISR_EXIT_CALLBACK) */
 508:.\Generated_Source\PSoC4/USBFS_episr.c **** 
 509:.\Generated_Source\PSoC4/USBFS_episr.c ****     #if (CY_PSOC3 && defined(USBFS_ENABLE_MIDI_STREAMING) && \
 510:.\Generated_Source\PSoC4/USBFS_episr.c ****         !defined(USBFS_MAIN_SERVICE_MIDI_OUT) && USBFS_ISR_SERVICE_MIDI_OUT)
 511:.\Generated_Source\PSoC4/USBFS_episr.c ****         
 512:.\Generated_Source\PSoC4/USBFS_episr.c ****             EA = intEn; /* Restore nested interrupt configuration. */
 513:.\Generated_Source\PSoC4/USBFS_episr.c ****         }
 514:.\Generated_Source\PSoC4/USBFS_episr.c ****     #endif /* (CY_PSOC3 && USBFS_ISR_SERVICE_MIDI_OUT) */
 515:.\Generated_Source\PSoC4/USBFS_episr.c ****     }
 126              		.loc 1 515 0
 127              		@ sp needed
 128 003c 7047     		bx	lr
 129              	.L10:
 130 003e C046     		.align	2
 131              	.L9:
 132 0040 2C002C40 		.word	1076625452
 133 0044 00000000 		.word	USBFS_EP
 134 0048 F0FF2B40 		.word	1076625392
 135              		.cfi_endproc
 136              	.LFE166:
 137              		.size	USBFS_EP_6_ISR, .-USBFS_EP_6_ISR
 138              		.section	.text.USBFS_ARB_ISR,"ax",%progbits
 139              		.align	2
 140              		.global	USBFS_ARB_ISR
 141              		.code	16
 142              		.thumb_func
 143              		.type	USBFS_ARB_ISR, %function
 144              	USBFS_ARB_ISR:
 145              	.LFB169:
 516:.\Generated_Source\PSoC4/USBFS_episr.c **** #endif /* (USBFS_EP6_ISR_ACTIVE) */
 517:.\Generated_Source\PSoC4/USBFS_episr.c **** 
 518:.\Generated_Source\PSoC4/USBFS_episr.c **** 
 519:.\Generated_Source\PSoC4/USBFS_episr.c **** #if (USBFS_EP7_ISR_ACTIVE)
 520:.\Generated_Source\PSoC4/USBFS_episr.c ****     /*******************************************************************************
 521:.\Generated_Source\PSoC4/USBFS_episr.c ****     * Function Name: USBFS_EP_7_ISR
 522:.\Generated_Source\PSoC4/USBFS_episr.c ****     ****************************************************************************//**
 523:.\Generated_Source\PSoC4/USBFS_episr.c ****     *
 524:.\Generated_Source\PSoC4/USBFS_episr.c ****     *  Endpoint 7 Interrupt Service Routine.
 525:.\Generated_Source\PSoC4/USBFS_episr.c ****     *
 526:.\Generated_Source\PSoC4/USBFS_episr.c ****     *
 527:.\Generated_Source\PSoC4/USBFS_episr.c ****     *******************************************************************************/
 528:.\Generated_Source\PSoC4/USBFS_episr.c ****     CY_ISR(USBFS_EP_7_ISR)
 529:.\Generated_Source\PSoC4/USBFS_episr.c ****     {
 530:.\Generated_Source\PSoC4/USBFS_episr.c ****     #ifdef USBFS_EP_7_ISR_ENTRY_CALLBACK
 531:.\Generated_Source\PSoC4/USBFS_episr.c ****         USBFS_EP_7_ISR_EntryCallback();
 532:.\Generated_Source\PSoC4/USBFS_episr.c ****     #endif /* (USBFS_EP_7_ISR_ENTRY_CALLBACK) */
 533:.\Generated_Source\PSoC4/USBFS_episr.c **** 
 534:.\Generated_Source\PSoC4/USBFS_episr.c ****         /* `#START EP7_USER_CODE` Place your code here */
 535:.\Generated_Source\PSoC4/USBFS_episr.c **** 
 536:.\Generated_Source\PSoC4/USBFS_episr.c ****         /* `#END` */
 537:.\Generated_Source\PSoC4/USBFS_episr.c **** 
 538:.\Generated_Source\PSoC4/USBFS_episr.c ****     #if (CY_PSOC3 && defined(USBFS_ENABLE_MIDI_STREAMING) && \
 539:.\Generated_Source\PSoC4/USBFS_episr.c ****         !defined(USBFS_MAIN_SERVICE_MIDI_OUT) && USBFS_ISR_SERVICE_MIDI_OUT)
ARM GAS  C:\Users\Terence\AppData\Local\Temp\cc65qyTh.s 			page 13


 540:.\Generated_Source\PSoC4/USBFS_episr.c ****         {
 541:.\Generated_Source\PSoC4/USBFS_episr.c ****             uint8 intEn = EA;
 542:.\Generated_Source\PSoC4/USBFS_episr.c ****             CyGlobalIntEnable;  /* Enable nested interrupts. */
 543:.\Generated_Source\PSoC4/USBFS_episr.c ****     #endif /* (CY_PSOC3 && USBFS_ISR_SERVICE_MIDI_OUT) */
 544:.\Generated_Source\PSoC4/USBFS_episr.c ****     
 545:.\Generated_Source\PSoC4/USBFS_episr.c ****         USBFS_ClearSieEpInterruptSource(USBFS_SIE_INT_EP7_INTR);
 546:.\Generated_Source\PSoC4/USBFS_episr.c ****         
 547:.\Generated_Source\PSoC4/USBFS_episr.c ****         /* Notifies user that transfer IN or OUT transfer is completed.
 548:.\Generated_Source\PSoC4/USBFS_episr.c ****         * IN endpoint: endpoint buffer can be reloaded, Host is read data.
 549:.\Generated_Source\PSoC4/USBFS_episr.c ****         * OUT endpoint: data is ready to read from endpoint buffer. 
 550:.\Generated_Source\PSoC4/USBFS_episr.c ****         */
 551:.\Generated_Source\PSoC4/USBFS_episr.c ****     #if (CY_PSOC4 && USBFS_EP_MANAGEMENT_DMA_AUTO)
 552:.\Generated_Source\PSoC4/USBFS_episr.c ****         if (0u != (USBFS_EP[USBFS_EP7].addr & USBFS_DIR_IN))
 553:.\Generated_Source\PSoC4/USBFS_episr.c ****     #endif /* (USBFS_EP_MANAGEMENT_DMA_AUTO) */
 554:.\Generated_Source\PSoC4/USBFS_episr.c ****         {           
 555:.\Generated_Source\PSoC4/USBFS_episr.c ****             /* Read CR0 register to clear SIE lock. */
 556:.\Generated_Source\PSoC4/USBFS_episr.c ****             (void) USBFS_SIE_EP_BASE.sieEp[USBFS_EP7].epCr0;
 557:.\Generated_Source\PSoC4/USBFS_episr.c **** 
 558:.\Generated_Source\PSoC4/USBFS_episr.c ****             /* Toggle all endpoint types except ISOC. */
 559:.\Generated_Source\PSoC4/USBFS_episr.c ****             if (USBFS_GET_EP_TYPE(USBFS_EP7) != USBFS_EP_TYPE_ISOC)
 560:.\Generated_Source\PSoC4/USBFS_episr.c ****             {
 561:.\Generated_Source\PSoC4/USBFS_episr.c ****                 USBFS_EP[USBFS_EP7].epToggle ^= USBFS_EPX_CNT_DATA_TOGGLE;
 562:.\Generated_Source\PSoC4/USBFS_episr.c ****             }
 563:.\Generated_Source\PSoC4/USBFS_episr.c ****             
 564:.\Generated_Source\PSoC4/USBFS_episr.c ****             /* EP_MANAGEMENT_DMA_AUTO (Ticket ID# 214187): For OUT endpoint this event is used to n
 565:.\Generated_Source\PSoC4/USBFS_episr.c ****             * user that DMA has completed copying data from OUT endpoint which is not completely tr
 566:.\Generated_Source\PSoC4/USBFS_episr.c ****             * Because last chunk of data is being copied.
 567:.\Generated_Source\PSoC4/USBFS_episr.c ****             * For CY_PSOC 3/5LP: it is acceptable as DMA is really fast.
 568:.\Generated_Source\PSoC4/USBFS_episr.c ****             * For CY_PSOC4: this event is set in Arbiter interrupt (source is DMA_TERMIN).
 569:.\Generated_Source\PSoC4/USBFS_episr.c ****             */
 570:.\Generated_Source\PSoC4/USBFS_episr.c ****             USBFS_EP[USBFS_EP7].apiEpState = USBFS_EVENT_PENDING;
 571:.\Generated_Source\PSoC4/USBFS_episr.c ****         }
 572:.\Generated_Source\PSoC4/USBFS_episr.c **** 
 573:.\Generated_Source\PSoC4/USBFS_episr.c **** 
 574:.\Generated_Source\PSoC4/USBFS_episr.c ****     #if (!(CY_PSOC4 && USBFS_EP_MANAGEMENT_DMA_AUTO))
 575:.\Generated_Source\PSoC4/USBFS_episr.c ****         #if (defined(USBFS_ENABLE_MIDI_STREAMING) && \
 576:.\Generated_Source\PSoC4/USBFS_episr.c ****             !defined(USBFS_MAIN_SERVICE_MIDI_OUT) && USBFS_ISR_SERVICE_MIDI_OUT)
 577:.\Generated_Source\PSoC4/USBFS_episr.c ****             if(USBFS_midi_out_ep == USBFS_EP7)
 578:.\Generated_Source\PSoC4/USBFS_episr.c ****             {
 579:.\Generated_Source\PSoC4/USBFS_episr.c ****                 USBFS_MIDI_OUT_Service();
 580:.\Generated_Source\PSoC4/USBFS_episr.c ****             }
 581:.\Generated_Source\PSoC4/USBFS_episr.c ****         #endif /* (USBFS_ISR_SERVICE_MIDI_OUT) */
 582:.\Generated_Source\PSoC4/USBFS_episr.c ****     #endif /* (!(CY_PSOC4 && USBFS_EP_MANAGEMENT_DMA_AUTO)) */
 583:.\Generated_Source\PSoC4/USBFS_episr.c **** 
 584:.\Generated_Source\PSoC4/USBFS_episr.c ****         /* `#START EP7_END_USER_CODE` Place your code here */
 585:.\Generated_Source\PSoC4/USBFS_episr.c **** 
 586:.\Generated_Source\PSoC4/USBFS_episr.c ****         /* `#END` */
 587:.\Generated_Source\PSoC4/USBFS_episr.c **** 
 588:.\Generated_Source\PSoC4/USBFS_episr.c ****     #ifdef USBFS_EP_7_ISR_EXIT_CALLBACK
 589:.\Generated_Source\PSoC4/USBFS_episr.c ****         USBFS_EP_7_ISR_ExitCallback();
 590:.\Generated_Source\PSoC4/USBFS_episr.c ****     #endif /* (USBFS_EP_7_ISR_EXIT_CALLBACK) */
 591:.\Generated_Source\PSoC4/USBFS_episr.c **** 
 592:.\Generated_Source\PSoC4/USBFS_episr.c ****     #if (CY_PSOC3 && defined(USBFS_ENABLE_MIDI_STREAMING) && \
 593:.\Generated_Source\PSoC4/USBFS_episr.c ****         !defined(USBFS_MAIN_SERVICE_MIDI_OUT) && USBFS_ISR_SERVICE_MIDI_OUT)
 594:.\Generated_Source\PSoC4/USBFS_episr.c ****         
 595:.\Generated_Source\PSoC4/USBFS_episr.c ****             EA = intEn; /* Restore nested interrupt configuration. */
 596:.\Generated_Source\PSoC4/USBFS_episr.c ****         }
ARM GAS  C:\Users\Terence\AppData\Local\Temp\cc65qyTh.s 			page 14


 597:.\Generated_Source\PSoC4/USBFS_episr.c ****     #endif /* (CY_PSOC3 && USBFS_ISR_SERVICE_MIDI_OUT) */
 598:.\Generated_Source\PSoC4/USBFS_episr.c ****     }
 599:.\Generated_Source\PSoC4/USBFS_episr.c **** #endif /* (USBFS_EP7_ISR_ACTIVE) */
 600:.\Generated_Source\PSoC4/USBFS_episr.c **** 
 601:.\Generated_Source\PSoC4/USBFS_episr.c **** 
 602:.\Generated_Source\PSoC4/USBFS_episr.c **** #if (USBFS_EP8_ISR_ACTIVE)
 603:.\Generated_Source\PSoC4/USBFS_episr.c ****     /*******************************************************************************
 604:.\Generated_Source\PSoC4/USBFS_episr.c ****     * Function Name: USBFS_EP_8_ISR
 605:.\Generated_Source\PSoC4/USBFS_episr.c ****     ****************************************************************************//**
 606:.\Generated_Source\PSoC4/USBFS_episr.c ****     *
 607:.\Generated_Source\PSoC4/USBFS_episr.c ****     *  Endpoint 8 Interrupt Service Routine
 608:.\Generated_Source\PSoC4/USBFS_episr.c ****     *
 609:.\Generated_Source\PSoC4/USBFS_episr.c ****     *
 610:.\Generated_Source\PSoC4/USBFS_episr.c ****     *******************************************************************************/
 611:.\Generated_Source\PSoC4/USBFS_episr.c ****     CY_ISR(USBFS_EP_8_ISR)
 612:.\Generated_Source\PSoC4/USBFS_episr.c ****     {
 613:.\Generated_Source\PSoC4/USBFS_episr.c ****     #ifdef USBFS_EP_8_ISR_ENTRY_CALLBACK
 614:.\Generated_Source\PSoC4/USBFS_episr.c ****         USBFS_EP_8_ISR_EntryCallback();
 615:.\Generated_Source\PSoC4/USBFS_episr.c ****     #endif /* (USBFS_EP_8_ISR_ENTRY_CALLBACK) */
 616:.\Generated_Source\PSoC4/USBFS_episr.c **** 
 617:.\Generated_Source\PSoC4/USBFS_episr.c ****         /* `#START EP8_USER_CODE` Place your code here */
 618:.\Generated_Source\PSoC4/USBFS_episr.c **** 
 619:.\Generated_Source\PSoC4/USBFS_episr.c ****         /* `#END` */
 620:.\Generated_Source\PSoC4/USBFS_episr.c **** 
 621:.\Generated_Source\PSoC4/USBFS_episr.c ****     #if (CY_PSOC3 && defined(USBFS_ENABLE_MIDI_STREAMING) && \
 622:.\Generated_Source\PSoC4/USBFS_episr.c ****         !defined(USBFS_MAIN_SERVICE_MIDI_OUT) && USBFS_ISR_SERVICE_MIDI_OUT)
 623:.\Generated_Source\PSoC4/USBFS_episr.c ****         {
 624:.\Generated_Source\PSoC4/USBFS_episr.c ****             uint8 intEn = EA;
 625:.\Generated_Source\PSoC4/USBFS_episr.c ****             CyGlobalIntEnable;  /* Enable nested interrupts. */
 626:.\Generated_Source\PSoC4/USBFS_episr.c ****     #endif /* (CY_PSOC3 && USBFS_ISR_SERVICE_MIDI_OUT) */
 627:.\Generated_Source\PSoC4/USBFS_episr.c **** 
 628:.\Generated_Source\PSoC4/USBFS_episr.c ****         USBFS_ClearSieEpInterruptSource(USBFS_SIE_INT_EP8_INTR);
 629:.\Generated_Source\PSoC4/USBFS_episr.c ****         
 630:.\Generated_Source\PSoC4/USBFS_episr.c ****         /* Notifies user that transfer IN or OUT transfer is completed.
 631:.\Generated_Source\PSoC4/USBFS_episr.c ****         * IN endpoint: endpoint buffer can be reloaded, Host is read data.
 632:.\Generated_Source\PSoC4/USBFS_episr.c ****         * OUT endpoint: data is ready to read from endpoint buffer. 
 633:.\Generated_Source\PSoC4/USBFS_episr.c ****         */
 634:.\Generated_Source\PSoC4/USBFS_episr.c ****     #if (CY_PSOC4 && USBFS_EP_MANAGEMENT_DMA_AUTO)
 635:.\Generated_Source\PSoC4/USBFS_episr.c ****         if (0u != (USBFS_EP[USBFS_EP8].addr & USBFS_DIR_IN))
 636:.\Generated_Source\PSoC4/USBFS_episr.c ****     #endif /* (USBFS_EP_MANAGEMENT_DMA_AUTO) */
 637:.\Generated_Source\PSoC4/USBFS_episr.c ****         {
 638:.\Generated_Source\PSoC4/USBFS_episr.c ****             /* Read CR0 register to clear SIE lock. */
 639:.\Generated_Source\PSoC4/USBFS_episr.c ****             (void) USBFS_SIE_EP_BASE.sieEp[USBFS_EP8].epCr0;
 640:.\Generated_Source\PSoC4/USBFS_episr.c **** 
 641:.\Generated_Source\PSoC4/USBFS_episr.c ****             /* Toggle all endpoint types except ISOC. */
 642:.\Generated_Source\PSoC4/USBFS_episr.c ****             if (USBFS_GET_EP_TYPE(USBFS_EP8) != USBFS_EP_TYPE_ISOC)
 643:.\Generated_Source\PSoC4/USBFS_episr.c ****             {
 644:.\Generated_Source\PSoC4/USBFS_episr.c ****                 USBFS_EP[USBFS_EP8].epToggle ^= USBFS_EPX_CNT_DATA_TOGGLE;
 645:.\Generated_Source\PSoC4/USBFS_episr.c ****             }
 646:.\Generated_Source\PSoC4/USBFS_episr.c **** 
 647:.\Generated_Source\PSoC4/USBFS_episr.c ****             /* EP_MANAGEMENT_DMA_AUTO (Ticket ID# 214187): For OUT endpoint this event is used to n
 648:.\Generated_Source\PSoC4/USBFS_episr.c ****             * user that DMA has completed copying data from OUT endpoint which is not completely tr
 649:.\Generated_Source\PSoC4/USBFS_episr.c ****             * Because last chunk of data is being copied.
 650:.\Generated_Source\PSoC4/USBFS_episr.c ****             * For CY_PSOC 3/5LP: it is acceptable as DMA is really fast.
 651:.\Generated_Source\PSoC4/USBFS_episr.c ****             * For CY_PSOC4: this event is set in Arbiter interrupt (source is DMA_TERMIN).
 652:.\Generated_Source\PSoC4/USBFS_episr.c ****             */
 653:.\Generated_Source\PSoC4/USBFS_episr.c ****             USBFS_EP[USBFS_EP8].apiEpState = USBFS_EVENT_PENDING;
ARM GAS  C:\Users\Terence\AppData\Local\Temp\cc65qyTh.s 			page 15


 654:.\Generated_Source\PSoC4/USBFS_episr.c ****         }
 655:.\Generated_Source\PSoC4/USBFS_episr.c **** 
 656:.\Generated_Source\PSoC4/USBFS_episr.c ****     #if (!(CY_PSOC4 && USBFS_EP_MANAGEMENT_DMA_AUTO))
 657:.\Generated_Source\PSoC4/USBFS_episr.c ****         #if (defined(USBFS_ENABLE_MIDI_STREAMING) && \
 658:.\Generated_Source\PSoC4/USBFS_episr.c ****             !defined(USBFS_MAIN_SERVICE_MIDI_OUT) && USBFS_ISR_SERVICE_MIDI_OUT)
 659:.\Generated_Source\PSoC4/USBFS_episr.c ****             if (USBFS_midi_out_ep == USBFS_EP8)
 660:.\Generated_Source\PSoC4/USBFS_episr.c ****             {
 661:.\Generated_Source\PSoC4/USBFS_episr.c ****                 USBFS_MIDI_OUT_Service();
 662:.\Generated_Source\PSoC4/USBFS_episr.c ****             }
 663:.\Generated_Source\PSoC4/USBFS_episr.c ****         #endif /* (USBFS_ISR_SERVICE_MIDI_OUT) */
 664:.\Generated_Source\PSoC4/USBFS_episr.c ****     #endif /* (!(CY_PSOC4 && USBFS_EP_MANAGEMENT_DMA_AUTO)) */
 665:.\Generated_Source\PSoC4/USBFS_episr.c **** 
 666:.\Generated_Source\PSoC4/USBFS_episr.c ****         /* `#START EP8_END_USER_CODE` Place your code here */
 667:.\Generated_Source\PSoC4/USBFS_episr.c **** 
 668:.\Generated_Source\PSoC4/USBFS_episr.c ****         /* `#END` */
 669:.\Generated_Source\PSoC4/USBFS_episr.c **** 
 670:.\Generated_Source\PSoC4/USBFS_episr.c ****     #ifdef USBFS_EP_8_ISR_EXIT_CALLBACK
 671:.\Generated_Source\PSoC4/USBFS_episr.c ****         USBFS_EP_8_ISR_ExitCallback();
 672:.\Generated_Source\PSoC4/USBFS_episr.c ****     #endif /* (USBFS_EP_8_ISR_EXIT_CALLBACK) */
 673:.\Generated_Source\PSoC4/USBFS_episr.c **** 
 674:.\Generated_Source\PSoC4/USBFS_episr.c ****     #if (CY_PSOC3 && defined(USBFS_ENABLE_MIDI_STREAMING) && \
 675:.\Generated_Source\PSoC4/USBFS_episr.c ****         !defined(USBFS_MAIN_SERVICE_MIDI_OUT) && USBFS_ISR_SERVICE_MIDI_OUT)
 676:.\Generated_Source\PSoC4/USBFS_episr.c ****         
 677:.\Generated_Source\PSoC4/USBFS_episr.c ****             EA = intEn; /* Restore nested interrupt configuration. */
 678:.\Generated_Source\PSoC4/USBFS_episr.c ****         }
 679:.\Generated_Source\PSoC4/USBFS_episr.c ****     #endif /* (CY_PSOC3 && USBFS_ISR_SERVICE_MIDI_OUT) */
 680:.\Generated_Source\PSoC4/USBFS_episr.c ****     }
 681:.\Generated_Source\PSoC4/USBFS_episr.c **** #endif /* (USBFS_EP8_ISR_ACTIVE) */
 682:.\Generated_Source\PSoC4/USBFS_episr.c **** 
 683:.\Generated_Source\PSoC4/USBFS_episr.c **** 
 684:.\Generated_Source\PSoC4/USBFS_episr.c **** #if (USBFS_SOF_ISR_ACTIVE)
 685:.\Generated_Source\PSoC4/USBFS_episr.c ****     /*******************************************************************************
 686:.\Generated_Source\PSoC4/USBFS_episr.c ****     * Function Name: USBFS_SOF_ISR
 687:.\Generated_Source\PSoC4/USBFS_episr.c ****     ****************************************************************************//**
 688:.\Generated_Source\PSoC4/USBFS_episr.c ****     *
 689:.\Generated_Source\PSoC4/USBFS_episr.c ****     *  Start of Frame Interrupt Service Routine.
 690:.\Generated_Source\PSoC4/USBFS_episr.c ****     *
 691:.\Generated_Source\PSoC4/USBFS_episr.c ****     *
 692:.\Generated_Source\PSoC4/USBFS_episr.c ****     *******************************************************************************/
 693:.\Generated_Source\PSoC4/USBFS_episr.c ****     CY_ISR(USBFS_SOF_ISR)
 694:.\Generated_Source\PSoC4/USBFS_episr.c ****     {
 695:.\Generated_Source\PSoC4/USBFS_episr.c ****     #ifdef USBFS_SOF_ISR_ENTRY_CALLBACK
 696:.\Generated_Source\PSoC4/USBFS_episr.c ****         USBFS_SOF_ISR_EntryCallback();
 697:.\Generated_Source\PSoC4/USBFS_episr.c ****     #endif /* (USBFS_SOF_ISR_ENTRY_CALLBACK) */
 698:.\Generated_Source\PSoC4/USBFS_episr.c **** 
 699:.\Generated_Source\PSoC4/USBFS_episr.c ****         /* `#START SOF_USER_CODE` Place your code here */
 700:.\Generated_Source\PSoC4/USBFS_episr.c **** 
 701:.\Generated_Source\PSoC4/USBFS_episr.c ****         /* `#END` */
 702:.\Generated_Source\PSoC4/USBFS_episr.c **** 
 703:.\Generated_Source\PSoC4/USBFS_episr.c ****         USBFS_ClearSieInterruptSource(USBFS_INTR_SIE_SOF_INTR);
 704:.\Generated_Source\PSoC4/USBFS_episr.c **** 
 705:.\Generated_Source\PSoC4/USBFS_episr.c ****     #ifdef USBFS_SOF_ISR_EXIT_CALLBACK
 706:.\Generated_Source\PSoC4/USBFS_episr.c ****         USBFS_SOF_ISR_ExitCallback();
 707:.\Generated_Source\PSoC4/USBFS_episr.c ****     #endif /* (USBFS_SOF_ISR_EXIT_CALLBACK) */
 708:.\Generated_Source\PSoC4/USBFS_episr.c ****     }
 709:.\Generated_Source\PSoC4/USBFS_episr.c **** #endif /* (USBFS_SOF_ISR_ACTIVE) */
 710:.\Generated_Source\PSoC4/USBFS_episr.c **** 
ARM GAS  C:\Users\Terence\AppData\Local\Temp\cc65qyTh.s 			page 16


 711:.\Generated_Source\PSoC4/USBFS_episr.c **** 
 712:.\Generated_Source\PSoC4/USBFS_episr.c **** #if (USBFS_BUS_RESET_ISR_ACTIVE)
 713:.\Generated_Source\PSoC4/USBFS_episr.c **** /*******************************************************************************
 714:.\Generated_Source\PSoC4/USBFS_episr.c **** * Function Name: USBFS_BUS_RESET_ISR
 715:.\Generated_Source\PSoC4/USBFS_episr.c **** ****************************************************************************//**
 716:.\Generated_Source\PSoC4/USBFS_episr.c **** *
 717:.\Generated_Source\PSoC4/USBFS_episr.c **** *  USB Bus Reset Interrupt Service Routine.  Calls _Start with the same
 718:.\Generated_Source\PSoC4/USBFS_episr.c **** *  parameters as the last USER call to _Start
 719:.\Generated_Source\PSoC4/USBFS_episr.c **** *
 720:.\Generated_Source\PSoC4/USBFS_episr.c **** *
 721:.\Generated_Source\PSoC4/USBFS_episr.c **** *******************************************************************************/
 722:.\Generated_Source\PSoC4/USBFS_episr.c **** CY_ISR(USBFS_BUS_RESET_ISR)
 723:.\Generated_Source\PSoC4/USBFS_episr.c **** {
 724:.\Generated_Source\PSoC4/USBFS_episr.c **** #ifdef USBFS_BUS_RESET_ISR_ENTRY_CALLBACK
 725:.\Generated_Source\PSoC4/USBFS_episr.c ****     USBFS_BUS_RESET_ISR_EntryCallback();
 726:.\Generated_Source\PSoC4/USBFS_episr.c **** #endif /* (USBFS_BUS_RESET_ISR_ENTRY_CALLBACK) */
 727:.\Generated_Source\PSoC4/USBFS_episr.c **** 
 728:.\Generated_Source\PSoC4/USBFS_episr.c ****     /* `#START BUS_RESET_USER_CODE` Place your code here */
 729:.\Generated_Source\PSoC4/USBFS_episr.c **** 
 730:.\Generated_Source\PSoC4/USBFS_episr.c ****     /* `#END` */
 731:.\Generated_Source\PSoC4/USBFS_episr.c **** 
 732:.\Generated_Source\PSoC4/USBFS_episr.c ****     USBFS_ClearSieInterruptSource(USBFS_INTR_SIE_BUS_RESET_INTR);
 733:.\Generated_Source\PSoC4/USBFS_episr.c **** 
 734:.\Generated_Source\PSoC4/USBFS_episr.c ****     USBFS_ReInitComponent();
 735:.\Generated_Source\PSoC4/USBFS_episr.c **** 
 736:.\Generated_Source\PSoC4/USBFS_episr.c **** #ifdef USBFS_BUS_RESET_ISR_EXIT_CALLBACK
 737:.\Generated_Source\PSoC4/USBFS_episr.c ****     USBFS_BUS_RESET_ISR_ExitCallback();
 738:.\Generated_Source\PSoC4/USBFS_episr.c **** #endif /* (USBFS_BUS_RESET_ISR_EXIT_CALLBACK) */
 739:.\Generated_Source\PSoC4/USBFS_episr.c **** }
 740:.\Generated_Source\PSoC4/USBFS_episr.c **** #endif /* (USBFS_BUS_RESET_ISR_ACTIVE) */
 741:.\Generated_Source\PSoC4/USBFS_episr.c **** 
 742:.\Generated_Source\PSoC4/USBFS_episr.c **** 
 743:.\Generated_Source\PSoC4/USBFS_episr.c **** #if (USBFS_LPM_ACTIVE)
 744:.\Generated_Source\PSoC4/USBFS_episr.c **** /***************************************************************************
 745:.\Generated_Source\PSoC4/USBFS_episr.c **** * Function Name: USBFS_INTR_LPM_ISR
 746:.\Generated_Source\PSoC4/USBFS_episr.c **** ************************************************************************//**
 747:.\Generated_Source\PSoC4/USBFS_episr.c **** *
 748:.\Generated_Source\PSoC4/USBFS_episr.c **** *   Interrupt Service Routine for LPM of the interrupt sources.
 749:.\Generated_Source\PSoC4/USBFS_episr.c **** *
 750:.\Generated_Source\PSoC4/USBFS_episr.c **** *
 751:.\Generated_Source\PSoC4/USBFS_episr.c **** ***************************************************************************/
 752:.\Generated_Source\PSoC4/USBFS_episr.c **** CY_ISR(USBFS_LPM_ISR)
 753:.\Generated_Source\PSoC4/USBFS_episr.c **** {
 754:.\Generated_Source\PSoC4/USBFS_episr.c **** #ifdef USBFS_LPM_ISR_ENTRY_CALLBACK
 755:.\Generated_Source\PSoC4/USBFS_episr.c ****     USBFS_LPM_ISR_EntryCallback();
 756:.\Generated_Source\PSoC4/USBFS_episr.c **** #endif /* (USBFS_LPM_ISR_ENTRY_CALLBACK) */
 757:.\Generated_Source\PSoC4/USBFS_episr.c **** 
 758:.\Generated_Source\PSoC4/USBFS_episr.c ****     /* `#START LPM_BEGIN_USER_CODE` Place your code here */
 759:.\Generated_Source\PSoC4/USBFS_episr.c **** 
 760:.\Generated_Source\PSoC4/USBFS_episr.c ****     /* `#END` */
 761:.\Generated_Source\PSoC4/USBFS_episr.c **** 
 762:.\Generated_Source\PSoC4/USBFS_episr.c ****     USBFS_ClearSieInterruptSource(USBFS_INTR_SIE_LPM_INTR);
 763:.\Generated_Source\PSoC4/USBFS_episr.c **** 
 764:.\Generated_Source\PSoC4/USBFS_episr.c ****     /* `#START LPM_END_USER_CODE` Place your code here */
 765:.\Generated_Source\PSoC4/USBFS_episr.c **** 
 766:.\Generated_Source\PSoC4/USBFS_episr.c ****     /* `#END` */
 767:.\Generated_Source\PSoC4/USBFS_episr.c **** 
ARM GAS  C:\Users\Terence\AppData\Local\Temp\cc65qyTh.s 			page 17


 768:.\Generated_Source\PSoC4/USBFS_episr.c **** #ifdef USBFS_LPM_ISR_EXIT_CALLBACK
 769:.\Generated_Source\PSoC4/USBFS_episr.c ****     USBFS_LPM_ISR_ExitCallback();
 770:.\Generated_Source\PSoC4/USBFS_episr.c **** #endif /* (USBFS_LPM_ISR_EXIT_CALLBACK) */
 771:.\Generated_Source\PSoC4/USBFS_episr.c **** }
 772:.\Generated_Source\PSoC4/USBFS_episr.c **** #endif /* (USBFS_LPM_ACTIVE) */
 773:.\Generated_Source\PSoC4/USBFS_episr.c **** 
 774:.\Generated_Source\PSoC4/USBFS_episr.c **** 
 775:.\Generated_Source\PSoC4/USBFS_episr.c **** #if (USBFS_EP_MANAGEMENT_DMA && USBFS_ARB_ISR_ACTIVE)
 776:.\Generated_Source\PSoC4/USBFS_episr.c ****     /***************************************************************************
 777:.\Generated_Source\PSoC4/USBFS_episr.c ****     * Function Name: USBFS_ARB_ISR
 778:.\Generated_Source\PSoC4/USBFS_episr.c ****     ************************************************************************//**
 779:.\Generated_Source\PSoC4/USBFS_episr.c ****     *
 780:.\Generated_Source\PSoC4/USBFS_episr.c ****     *  Arbiter Interrupt Service Routine.
 781:.\Generated_Source\PSoC4/USBFS_episr.c ****     *
 782:.\Generated_Source\PSoC4/USBFS_episr.c ****     *
 783:.\Generated_Source\PSoC4/USBFS_episr.c ****     ***************************************************************************/
 784:.\Generated_Source\PSoC4/USBFS_episr.c ****     CY_ISR(USBFS_ARB_ISR)
 785:.\Generated_Source\PSoC4/USBFS_episr.c ****     {
 146              		.loc 1 785 0
 147              		.cfi_startproc
 148 0000 F0B5     		push	{r4, r5, r6, r7, lr}
 149              		.cfi_def_cfa_offset 20
 150              		.cfi_offset 4, -20
 151              		.cfi_offset 5, -16
 152              		.cfi_offset 6, -12
 153              		.cfi_offset 7, -8
 154              		.cfi_offset 14, -4
 155              	.LVL0:
 786:.\Generated_Source\PSoC4/USBFS_episr.c ****         uint32 arbIntrStatus;
 787:.\Generated_Source\PSoC4/USBFS_episr.c ****         uint32 epStatus;
 788:.\Generated_Source\PSoC4/USBFS_episr.c ****         uint32 ep = USBFS_EP1;
 789:.\Generated_Source\PSoC4/USBFS_episr.c **** 
 790:.\Generated_Source\PSoC4/USBFS_episr.c ****     #ifdef USBFS_ARB_ISR_ENTRY_CALLBACK
 791:.\Generated_Source\PSoC4/USBFS_episr.c ****         USBFS_ARB_ISR_EntryCallback();
 792:.\Generated_Source\PSoC4/USBFS_episr.c ****     #endif /* (USBFS_ARB_ISR_ENTRY_CALLBACK) */
 793:.\Generated_Source\PSoC4/USBFS_episr.c **** 
 794:.\Generated_Source\PSoC4/USBFS_episr.c ****         /* `#START ARB_BEGIN_USER_CODE` Place your code here */
 795:.\Generated_Source\PSoC4/USBFS_episr.c **** 
 796:.\Generated_Source\PSoC4/USBFS_episr.c ****         /* `#END` */
 797:.\Generated_Source\PSoC4/USBFS_episr.c **** 
 798:.\Generated_Source\PSoC4/USBFS_episr.c ****         /* Get pending ARB interrupt sources. */
 799:.\Generated_Source\PSoC4/USBFS_episr.c ****         arbIntrStatus = USBFS_ARB_INT_SR_REG;
 156              		.loc 1 799 0
 157 0002 4E4B     		ldr	r3, .L21
 158 0004 1A68     		ldr	r2, [r3]
 159              	.LVL1:
 788:.\Generated_Source\PSoC4/USBFS_episr.c **** 
 160              		.loc 1 788 0
 161 0006 0123     		mov	r3, #1
 800:.\Generated_Source\PSoC4/USBFS_episr.c **** 
 801:.\Generated_Source\PSoC4/USBFS_episr.c ****         while (0u != arbIntrStatus)
 162              		.loc 1 801 0
 163 0008 93E0     		b	.L12
 164              	.LVL2:
 165              	.L19:
 802:.\Generated_Source\PSoC4/USBFS_episr.c ****         {
 803:.\Generated_Source\PSoC4/USBFS_episr.c ****             /* Check which EP is interrupt source. */
ARM GAS  C:\Users\Terence\AppData\Local\Temp\cc65qyTh.s 			page 18


 804:.\Generated_Source\PSoC4/USBFS_episr.c ****             if (0u != (arbIntrStatus & 0x01u))
 166              		.loc 1 804 0
 167 000a D107     		lsl	r1, r2, #31
 168 000c 00D4     		bmi	.LCB141
 169 000e 8EE0     		b	.L13	@long jump
 170              	.LCB141:
 805:.\Generated_Source\PSoC4/USBFS_episr.c ****             {
 806:.\Generated_Source\PSoC4/USBFS_episr.c ****                 /* Get endpoint enable interrupt sources. */
 807:.\Generated_Source\PSoC4/USBFS_episr.c ****                 epStatus = (USBFS_ARB_EP_BASE.arbEp[ep].epSr & USBFS_ARB_EP_BASE.arbEp[ep].epIntEn)
 171              		.loc 1 807 0
 172 0010 9801     		lsl	r0, r3, #6
 173 0012 4B49     		ldr	r1, .L21+4
 174 0014 8C46     		mov	ip, r1
 175 0016 6044     		add	r0, r0, ip
 176 0018 8168     		ldr	r1, [r0, #8]
 177 001a 4068     		ldr	r0, [r0, #4]
 178 001c 0140     		and	r1, r0
 179              	.LVL3:
 808:.\Generated_Source\PSoC4/USBFS_episr.c **** 
 809:.\Generated_Source\PSoC4/USBFS_episr.c ****                 /* Handle IN endpoint buffer full event: happens only once when endpoint buffer is 
 810:.\Generated_Source\PSoC4/USBFS_episr.c ****                 if (0u != (epStatus & USBFS_ARB_EPX_INT_IN_BUF_FULL))
 180              		.loc 1 810 0
 181 001e C807     		lsl	r0, r1, #31
 182 0020 19D5     		bpl	.L14
 811:.\Generated_Source\PSoC4/USBFS_episr.c ****                 {
 812:.\Generated_Source\PSoC4/USBFS_episr.c ****                     if (0u != (USBFS_EP[ep].addr & USBFS_DIR_IN))
 183              		.loc 1 812 0
 184 0022 5800     		lsl	r0, r3, #1
 185 0024 C018     		add	r0, r0, r3
 186 0026 8000     		lsl	r0, r0, #2
 187 0028 464C     		ldr	r4, .L21+8
 188 002a 2018     		add	r0, r4, r0
 189 002c 0079     		ldrb	r0, [r0, #4]
 190 002e 40B2     		sxtb	r0, r0
 191 0030 0028     		cmp	r0, #0
 192 0032 10DA     		bge	.L14
 813:.\Generated_Source\PSoC4/USBFS_episr.c ****                     {
 814:.\Generated_Source\PSoC4/USBFS_episr.c ****                         /* Clear data ready status. */
 815:.\Generated_Source\PSoC4/USBFS_episr.c ****                         USBFS_ARB_EP_BASE.arbEp[ep].epCfg &= (uint32) ~USBFS_ARB_EPX_CFG_IN_DATA_RD
 193              		.loc 1 815 0
 194 0034 6546     		mov	r5, ip
 195 0036 9C01     		lsl	r4, r3, #6
 196 0038 6059     		ldr	r0, [r4, r5]
 197 003a 0126     		mov	r6, #1
 198 003c B043     		bic	r0, r6
 199 003e 6051     		str	r0, [r4, r5]
 816:.\Generated_Source\PSoC4/USBFS_episr.c **** 
 817:.\Generated_Source\PSoC4/USBFS_episr.c ****                     #if (CY_PSOC3 || CY_PSOC5LP)
 818:.\Generated_Source\PSoC4/USBFS_episr.c ****                         #if (USBFS_EP_MANAGEMENT_DMA_AUTO && (USBFS_EP_DMA_AUTO_OPT == 0u))
 819:.\Generated_Source\PSoC4/USBFS_episr.c ****                             /* Set up common area DMA with rest of data. */
 820:.\Generated_Source\PSoC4/USBFS_episr.c ****                             if(USBFS_inLength[ep] > USBFS_DMA_BYTES_PER_BURST)
 821:.\Generated_Source\PSoC4/USBFS_episr.c ****                             {
 822:.\Generated_Source\PSoC4/USBFS_episr.c ****                                 USBFS_LoadNextInEP(ep, 0u);
 823:.\Generated_Source\PSoC4/USBFS_episr.c ****                             }
 824:.\Generated_Source\PSoC4/USBFS_episr.c ****                             else
 825:.\Generated_Source\PSoC4/USBFS_episr.c ****                             {
 826:.\Generated_Source\PSoC4/USBFS_episr.c ****                                 USBFS_inBufFull[ep] = 1u;
ARM GAS  C:\Users\Terence\AppData\Local\Temp\cc65qyTh.s 			page 19


 827:.\Generated_Source\PSoC4/USBFS_episr.c ****                             }
 828:.\Generated_Source\PSoC4/USBFS_episr.c ****                         #endif /* (USBFS_EP_MANAGEMENT_DMA_AUTO && (USBFS_EP_DMA_AUTO_OPT == 0u)) *
 829:.\Generated_Source\PSoC4/USBFS_episr.c ****                     #endif /* (CY_PSOC3 || CY_PSOC5LP) */
 830:.\Generated_Source\PSoC4/USBFS_episr.c **** 
 831:.\Generated_Source\PSoC4/USBFS_episr.c ****                         /* Arm IN endpoint. */
 832:.\Generated_Source\PSoC4/USBFS_episr.c ****                         USBFS_SIE_EP_BASE.sieEp[ep].epCr0 = USBFS_EP[ep].epMode;
 200              		.loc 1 832 0
 201 0040 5800     		lsl	r0, r3, #1
 202 0042 C018     		add	r0, r0, r3
 203 0044 8000     		lsl	r0, r0, #2
 204 0046 3F4D     		ldr	r5, .L21+8
 205 0048 2818     		add	r0, r5, r0
 206 004a 4079     		ldrb	r0, [r0, #5]
 207 004c C0B2     		uxtb	r0, r0
 208 004e 3E4D     		ldr	r5, .L21+12
 209 0050 AC46     		mov	ip, r5
 210 0052 6444     		add	r4, r4, ip
 211 0054 A060     		str	r0, [r4, #8]
 212              	.L14:
 833:.\Generated_Source\PSoC4/USBFS_episr.c **** 
 834:.\Generated_Source\PSoC4/USBFS_episr.c ****                     #if (defined(USBFS_ENABLE_MIDI_STREAMING) && USBFS_ISR_SERVICE_MIDI_IN)
 835:.\Generated_Source\PSoC4/USBFS_episr.c ****                         if (ep == USBFS_midi_in_ep)
 836:.\Generated_Source\PSoC4/USBFS_episr.c ****                         {
 837:.\Generated_Source\PSoC4/USBFS_episr.c ****                             /* Clear MIDI input pointer. */
 838:.\Generated_Source\PSoC4/USBFS_episr.c ****                             USBFS_midiInPointer = 0u;
 839:.\Generated_Source\PSoC4/USBFS_episr.c ****                         }
 840:.\Generated_Source\PSoC4/USBFS_episr.c ****                     #endif /* (USBFS_ENABLE_MIDI_STREAMING) */
 841:.\Generated_Source\PSoC4/USBFS_episr.c ****                     }
 842:.\Generated_Source\PSoC4/USBFS_episr.c ****                 }
 843:.\Generated_Source\PSoC4/USBFS_episr.c **** 
 844:.\Generated_Source\PSoC4/USBFS_episr.c ****             #if (USBFS_EP_MANAGEMENT_DMA_MANUAL)
 845:.\Generated_Source\PSoC4/USBFS_episr.c ****                 /* Handle DMA completion event for OUT endpoints. */
 846:.\Generated_Source\PSoC4/USBFS_episr.c ****                 if (0u != (epStatus & USBFS_ARB_EPX_SR_DMA_GNT))
 847:.\Generated_Source\PSoC4/USBFS_episr.c ****                 {
 848:.\Generated_Source\PSoC4/USBFS_episr.c ****                     if (0u == (USBFS_EP[ep].addr & USBFS_DIR_IN))
 849:.\Generated_Source\PSoC4/USBFS_episr.c ****                     {
 850:.\Generated_Source\PSoC4/USBFS_episr.c ****                         /* Notify user that data has been copied from endpoint buffer. */
 851:.\Generated_Source\PSoC4/USBFS_episr.c ****                         USBFS_EP[ep].apiEpState = USBFS_NO_EVENT_PENDING;
 852:.\Generated_Source\PSoC4/USBFS_episr.c **** 
 853:.\Generated_Source\PSoC4/USBFS_episr.c ****                         /* DMA done coping data: OUT endpoint has to be re-armed by user. */
 854:.\Generated_Source\PSoC4/USBFS_episr.c ****                     }
 855:.\Generated_Source\PSoC4/USBFS_episr.c ****                 }
 856:.\Generated_Source\PSoC4/USBFS_episr.c ****             #endif /* (USBFS_EP_MANAGEMENT_DMA_MANUAL) */
 857:.\Generated_Source\PSoC4/USBFS_episr.c **** 
 858:.\Generated_Source\PSoC4/USBFS_episr.c ****             #if (CY_PSOC4 && USBFS_EP_MANAGEMENT_DMA_AUTO)
 859:.\Generated_Source\PSoC4/USBFS_episr.c ****                 /* Handle DMA completion event for OUT endpoints. */
 860:.\Generated_Source\PSoC4/USBFS_episr.c ****                 if (0u != (epStatus & USBFS_ARB_EPX_INT_DMA_TERMIN))
 213              		.loc 1 860 0
 214 0056 8806     		lsl	r0, r1, #26
 215 0058 64D5     		bpl	.L15
 216              	.LBB2:
 861:.\Generated_Source\PSoC4/USBFS_episr.c ****                 {
 862:.\Generated_Source\PSoC4/USBFS_episr.c ****                     uint32 channelNum = USBFS_DmaChan[ep];
 217              		.loc 1 862 0
 218 005a 3C48     		ldr	r0, .L21+16
 219 005c C05C     		ldrb	r0, [r0, r3]
 220              	.LVL4:
ARM GAS  C:\Users\Terence\AppData\Local\Temp\cc65qyTh.s 			page 20


 863:.\Generated_Source\PSoC4/USBFS_episr.c **** 
 864:.\Generated_Source\PSoC4/USBFS_episr.c ****                     /* Restore burst counter for endpoint. */
 865:.\Generated_Source\PSoC4/USBFS_episr.c ****                     USBFS_DmaEpBurstCnt[ep] = USBFS_DmaEpBurstCntBackup[ep];
 221              		.loc 1 865 0
 222 005e 3C4C     		ldr	r4, .L21+20
 223 0060 E55C     		ldrb	r5, [r4, r3]
 224 0062 3C4C     		ldr	r4, .L21+24
 225 0064 E554     		strb	r5, [r4, r3]
 866:.\Generated_Source\PSoC4/USBFS_episr.c **** 
 867:.\Generated_Source\PSoC4/USBFS_episr.c ****                     /* Disable DMA channel to restore descriptor configuration. The on-going transf
 868:.\Generated_Source\PSoC4/USBFS_episr.c ****                     USBFS_CyDmaChDisable(channelNum);
 226              		.loc 1 868 0
 227 0066 3C4D     		ldr	r5, .L21+28
 228 0068 8600     		lsl	r6, r0, #2
 229 006a 7459     		ldr	r4, [r6, r5]
 230 006c 6400     		lsl	r4, r4, #1
 231 006e 6408     		lsr	r4, r4, #1
 232 0070 7451     		str	r4, [r6, r5]
 869:.\Generated_Source\PSoC4/USBFS_episr.c **** 
 870:.\Generated_Source\PSoC4/USBFS_episr.c ****                     /* Generate DMA tr_out signal to notify USB IP that DMA is done. This signal is
 871:.\Generated_Source\PSoC4/USBFS_episr.c ****                     * when transfer was aborted (it occurs when host writes less bytes than buffer 
 872:.\Generated_Source\PSoC4/USBFS_episr.c ****                     */
 873:.\Generated_Source\PSoC4/USBFS_episr.c ****                     USBFS_CyDmaTriggerOut(USBFS_DmaBurstEndOut[ep]);
 233              		.loc 1 873 0
 234 0072 3A4C     		ldr	r4, .L21+32
 235 0074 E45C     		ldrb	r4, [r4, r3]
 236 0076 3A4D     		ldr	r5, .L21+36
 237 0078 2C43     		orr	r4, r5
 238 007a 3A4D     		ldr	r5, .L21+40
 239 007c 2C60     		str	r4, [r5]
 874:.\Generated_Source\PSoC4/USBFS_episr.c **** 
 875:.\Generated_Source\PSoC4/USBFS_episr.c ****                     /* Restore destination address for output endpoint. */
 876:.\Generated_Source\PSoC4/USBFS_episr.c ****                     USBFS_CyDmaSetDstAddress(channelNum, USBFS_DMA_DESCR0, (void*) ((uint32) USBFS_
 240              		.loc 1 876 0
 241 007e 3A4D     		ldr	r5, .L21+44
 242 0080 9E00     		lsl	r6, r3, #2
 243 0082 4401     		lsl	r4, r0, #5
 244 0084 394F     		ldr	r7, .L21+48
 245 0086 BC46     		mov	ip, r7
 246 0088 6444     		add	r4, r4, ip
 247 008a 7759     		ldr	r7, [r6, r5]
 248 008c 6760     		str	r7, [r4, #4]
 877:.\Generated_Source\PSoC4/USBFS_episr.c ****                     USBFS_CyDmaSetDstAddress(channelNum, USBFS_DMA_DESCR1, (void*) ((uint32) USBFS_
 249              		.loc 1 877 0
 250 008e 7559     		ldr	r5, [r6, r5]
 251 0090 2035     		add	r5, r5, #32
 252 0092 6561     		str	r5, [r4, #20]
 878:.\Generated_Source\PSoC4/USBFS_episr.c ****                                                                                                    
 879:.\Generated_Source\PSoC4/USBFS_episr.c **** 
 880:.\Generated_Source\PSoC4/USBFS_episr.c ****                     /* Restore number of data elements to transfer which was adjusted for last burs
 881:.\Generated_Source\PSoC4/USBFS_episr.c ****                     if (0u != (USBFS_DmaEpLastBurstEl[ep] & USBFS_DMA_DESCR_REVERT))
 253              		.loc 1 881 0
 254 0094 364C     		ldr	r4, .L21+52
 255 0096 E65C     		ldrb	r6, [r4, r3]
 256 0098 7406     		lsl	r4, r6, #25
 257 009a 14D5     		bpl	.L16
 882:.\Generated_Source\PSoC4/USBFS_episr.c ****                     {
ARM GAS  C:\Users\Terence\AppData\Local\Temp\cc65qyTh.s 			page 21


 883:.\Generated_Source\PSoC4/USBFS_episr.c ****                         USBFS_CyDmaSetNumDataElements(channelNum, (USBFS_DmaEpLastBurstEl[ep] >> US
 258              		.loc 1 883 0
 259 009c F409     		lsr	r4, r6, #7
 260 009e 4500     		lsl	r5, r0, #1
 261 00a0 2D19     		add	r5, r5, r4
 262 00a2 2D01     		lsl	r5, r5, #4
 263 00a4 6544     		add	r5, r5, ip
 264 00a6 AD68     		ldr	r5, [r5, #8]
 265 00a8 2D0C     		lsr	r5, r5, #16
 266 00aa 2D04     		lsl	r5, r5, #16
 267 00ac B606     		lsl	r6, r6, #26
 268 00ae 01D5     		bpl	.L20
 269 00b0 0F26     		mov	r6, #15
 270 00b2 00E0     		b	.L17
 271              	.L20:
 272 00b4 1F26     		mov	r6, #31
 273              	.L17:
 274              		.loc 1 883 0 is_stmt 0 discriminator 4
 275 00b6 3543     		orr	r5, r6
 276 00b8 4600     		lsl	r6, r0, #1
 277 00ba 3419     		add	r4, r6, r4
 278 00bc 2401     		lsl	r4, r4, #4
 279 00be 2B4E     		ldr	r6, .L21+48
 280 00c0 B446     		mov	ip, r6
 281 00c2 6444     		add	r4, r4, ip
 282 00c4 A560     		str	r5, [r4, #8]
 283              	.L16:
 884:.\Generated_Source\PSoC4/USBFS_episr.c ****                                                                              USBFS_DMA_GET_MAX_ELEM
 885:.\Generated_Source\PSoC4/USBFS_episr.c ****                     }
 886:.\Generated_Source\PSoC4/USBFS_episr.c **** 
 887:.\Generated_Source\PSoC4/USBFS_episr.c ****                     /* Validate descriptor 0 and 1 (also reset current state). Command to start wit
 888:.\Generated_Source\PSoC4/USBFS_episr.c ****                     USBFS_CyDmaValidateDescriptor(channelNum, USBFS_DMA_DESCR0);
 284              		.loc 1 888 0 is_stmt 1
 285 00c6 4401     		lsl	r4, r0, #5
 286 00c8 284D     		ldr	r5, .L21+48
 287 00ca AC46     		mov	ip, r5
 288 00cc 6444     		add	r4, r4, ip
 289 00ce 8026     		mov	r6, #128
 290 00d0 3606     		lsl	r6, r6, #24
 291 00d2 E660     		str	r6, [r4, #12]
 889:.\Generated_Source\PSoC4/USBFS_episr.c ****                     USBFS_CyDmaValidateDescriptor(channelNum, USBFS_DMA_DESCR1);
 292              		.loc 1 889 0
 293 00d4 E661     		str	r6, [r4, #28]
 890:.\Generated_Source\PSoC4/USBFS_episr.c ****                     USBFS_CyDmaSetDescriptor0Next(channelNum);
 294              		.loc 1 890 0
 295 00d6 204C     		ldr	r4, .L21+28
 296 00d8 8000     		lsl	r0, r0, #2
 297              	.LVL5:
 298 00da 0759     		ldr	r7, [r0, r4]
 299 00dc 254D     		ldr	r5, .L21+56
 300 00de 3D40     		and	r5, r7
 301 00e0 0551     		str	r5, [r0, r4]
 891:.\Generated_Source\PSoC4/USBFS_episr.c **** 
 892:.\Generated_Source\PSoC4/USBFS_episr.c ****                     /* Enable DMA channel: configuration complete. */
 893:.\Generated_Source\PSoC4/USBFS_episr.c ****                     USBFS_CyDmaChEnable(channelNum);
 302              		.loc 1 893 0
 303 00e2 0559     		ldr	r5, [r0, r4]
ARM GAS  C:\Users\Terence\AppData\Local\Temp\cc65qyTh.s 			page 22


 304 00e4 3543     		orr	r5, r6
 305 00e6 0551     		str	r5, [r0, r4]
 894:.\Generated_Source\PSoC4/USBFS_episr.c ****                     
 895:.\Generated_Source\PSoC4/USBFS_episr.c ****                     
 896:.\Generated_Source\PSoC4/USBFS_episr.c ****                     /* Read CR0 register to clear SIE lock. */
 897:.\Generated_Source\PSoC4/USBFS_episr.c ****                     (void) USBFS_SIE_EP_BASE.sieEp[ep].epCr0;
 306              		.loc 1 897 0
 307 00e8 9801     		lsl	r0, r3, #6
 308 00ea 174C     		ldr	r4, .L21+12
 309 00ec A446     		mov	ip, r4
 310 00ee 6044     		add	r0, r0, ip
 311 00f0 8068     		ldr	r0, [r0, #8]
 898:.\Generated_Source\PSoC4/USBFS_episr.c ****                     
 899:.\Generated_Source\PSoC4/USBFS_episr.c ****                     /* Toggle all endpoint types except ISOC. */
 900:.\Generated_Source\PSoC4/USBFS_episr.c ****                     if (USBFS_GET_EP_TYPE(ep) != USBFS_EP_TYPE_ISOC)
 312              		.loc 1 900 0
 313 00f2 5800     		lsl	r0, r3, #1
 314 00f4 C018     		add	r0, r0, r3
 315 00f6 8000     		lsl	r0, r0, #2
 316 00f8 124C     		ldr	r4, .L21+8
 317 00fa 045D     		ldrb	r4, [r0, r4]
 318 00fc 0320     		mov	r0, #3
 319 00fe 2040     		and	r0, r4
 320 0100 0128     		cmp	r0, #1
 321 0102 08D0     		beq	.L18
 901:.\Generated_Source\PSoC4/USBFS_episr.c ****                     {
 902:.\Generated_Source\PSoC4/USBFS_episr.c ****                         USBFS_EP[ep].epToggle ^= USBFS_EPX_CNT_DATA_TOGGLE;
 322              		.loc 1 902 0
 323 0104 5800     		lsl	r0, r3, #1
 324 0106 C018     		add	r0, r0, r3
 325 0108 8000     		lsl	r0, r0, #2
 326 010a 0E4C     		ldr	r4, .L21+8
 327 010c 2018     		add	r0, r4, r0
 328 010e C578     		ldrb	r5, [r0, #3]
 329 0110 8024     		mov	r4, #128
 330 0112 6C40     		eor	r4, r5
 331 0114 C470     		strb	r4, [r0, #3]
 332              	.L18:
 903:.\Generated_Source\PSoC4/USBFS_episr.c ****                     }
 904:.\Generated_Source\PSoC4/USBFS_episr.c ****             
 905:.\Generated_Source\PSoC4/USBFS_episr.c ****                     /* Notify user that data has been copied from endpoint buffer. */
 906:.\Generated_Source\PSoC4/USBFS_episr.c ****                     USBFS_EP[ep].apiEpState = USBFS_EVENT_PENDING;
 333              		.loc 1 906 0
 334 0116 5800     		lsl	r0, r3, #1
 335 0118 C018     		add	r0, r0, r3
 336 011a 8000     		lsl	r0, r0, #2
 337 011c 094C     		ldr	r4, .L21+8
 338 011e 2018     		add	r0, r4, r0
 339 0120 0124     		mov	r4, #1
 340 0122 4470     		strb	r4, [r0, #1]
 341              	.LVL6:
 342              	.L15:
 343              	.LBE2:
 907:.\Generated_Source\PSoC4/USBFS_episr.c ****                     
 908:.\Generated_Source\PSoC4/USBFS_episr.c ****                 #if (defined(USBFS_ENABLE_MIDI_STREAMING) && \
 909:.\Generated_Source\PSoC4/USBFS_episr.c ****                     !defined(USBFS_MAIN_SERVICE_MIDI_OUT) && USBFS_ISR_SERVICE_MIDI_OUT)
 910:.\Generated_Source\PSoC4/USBFS_episr.c ****                     if (USBFS_midi_out_ep == ep)
ARM GAS  C:\Users\Terence\AppData\Local\Temp\cc65qyTh.s 			page 23


 911:.\Generated_Source\PSoC4/USBFS_episr.c ****                     {
 912:.\Generated_Source\PSoC4/USBFS_episr.c ****                         USBFS_MIDI_OUT_Service();
 913:.\Generated_Source\PSoC4/USBFS_episr.c ****                     }
 914:.\Generated_Source\PSoC4/USBFS_episr.c ****                 #endif /* (USBFS_ISR_SERVICE_MIDI_OUT) */
 915:.\Generated_Source\PSoC4/USBFS_episr.c ****                 }
 916:.\Generated_Source\PSoC4/USBFS_episr.c ****             #endif /* (CY_PSOC4 && USBFS_EP_MANAGEMENT_DMA_AUTO) */
 917:.\Generated_Source\PSoC4/USBFS_episr.c **** 
 918:.\Generated_Source\PSoC4/USBFS_episr.c **** 
 919:.\Generated_Source\PSoC4/USBFS_episr.c ****                 /* `#START ARB_USER_CODE` Place your code here for handle Buffer Underflow/Overflow
 920:.\Generated_Source\PSoC4/USBFS_episr.c **** 
 921:.\Generated_Source\PSoC4/USBFS_episr.c ****                 /* `#END` */
 922:.\Generated_Source\PSoC4/USBFS_episr.c **** 
 923:.\Generated_Source\PSoC4/USBFS_episr.c ****             #ifdef USBFS_ARB_ISR_CALLBACK
 924:.\Generated_Source\PSoC4/USBFS_episr.c ****                 USBFS_ARB_ISR_Callback(ep, epStatus);
 925:.\Generated_Source\PSoC4/USBFS_episr.c ****             #endif /* (USBFS_ARB_ISR_CALLBACK) */
 926:.\Generated_Source\PSoC4/USBFS_episr.c **** 
 927:.\Generated_Source\PSoC4/USBFS_episr.c ****                 /* Clear serviced endpoint interrupt sources. */
 928:.\Generated_Source\PSoC4/USBFS_episr.c ****                 USBFS_ARB_EP_BASE.arbEp[ep].epSr = epStatus;
 344              		.loc 1 928 0
 345 0124 9801     		lsl	r0, r3, #6
 346 0126 064C     		ldr	r4, .L21+4
 347 0128 A446     		mov	ip, r4
 348 012a 6044     		add	r0, r0, ip
 349 012c 8160     		str	r1, [r0, #8]
 350              	.LVL7:
 351              	.L13:
 929:.\Generated_Source\PSoC4/USBFS_episr.c ****             }
 930:.\Generated_Source\PSoC4/USBFS_episr.c **** 
 931:.\Generated_Source\PSoC4/USBFS_episr.c ****             ++ep;
 352              		.loc 1 931 0
 353 012e 0133     		add	r3, r3, #1
 354              	.LVL8:
 932:.\Generated_Source\PSoC4/USBFS_episr.c ****             arbIntrStatus >>= 1u;
 355              		.loc 1 932 0
 356 0130 5208     		lsr	r2, r2, #1
 357              	.LVL9:
 358              	.L12:
 801:.\Generated_Source\PSoC4/USBFS_episr.c ****         {
 359              		.loc 1 801 0
 360 0132 002A     		cmp	r2, #0
 361 0134 00D0     		beq	.LCB349
 362 0136 68E7     		b	.L19	@long jump
 363              	.LCB349:
 933:.\Generated_Source\PSoC4/USBFS_episr.c ****         }
 934:.\Generated_Source\PSoC4/USBFS_episr.c **** 
 935:.\Generated_Source\PSoC4/USBFS_episr.c ****         /* `#START ARB_END_USER_CODE` Place your code here */
 936:.\Generated_Source\PSoC4/USBFS_episr.c **** 
 937:.\Generated_Source\PSoC4/USBFS_episr.c ****         /* `#END` */
 938:.\Generated_Source\PSoC4/USBFS_episr.c **** 
 939:.\Generated_Source\PSoC4/USBFS_episr.c ****     #ifdef USBFS_ARB_ISR_EXIT_CALLBACK
 940:.\Generated_Source\PSoC4/USBFS_episr.c ****         USBFS_ARB_ISR_ExitCallback();
 941:.\Generated_Source\PSoC4/USBFS_episr.c ****     #endif /* (USBFS_ARB_ISR_EXIT_CALLBACK) */
 942:.\Generated_Source\PSoC4/USBFS_episr.c ****     }
 364              		.loc 1 942 0
 365              		@ sp needed
 366 0138 F0BD     		pop	{r4, r5, r6, r7, pc}
 367              	.L22:
ARM GAS  C:\Users\Terence\AppData\Local\Temp\cc65qyTh.s 			page 24


 368 013a C046     		.align	2
 369              	.L21:
 370 013c 7C022C40 		.word	1076626044
 371 0140 C0012C40 		.word	1076625856
 372 0144 00000000 		.word	USBFS_EP
 373 0148 F0FF2B40 		.word	1076625392
 374 014c 00000000 		.word	USBFS_DmaChan
 375 0150 00000000 		.word	USBFS_DmaEpBurstCntBackup
 376 0154 00000000 		.word	USBFS_DmaEpBurstCnt
 377 0158 80101040 		.word	1074794624
 378 015c 00000000 		.word	USBFS_DmaBurstEndOut
 379 0160 000302C0 		.word	-1073609984
 380 0164 00060140 		.word	1073808896
 381 0168 00000000 		.word	USBFS_DmaEpBufferAddrBackup
 382 016c 00181040 		.word	1074796544
 383 0170 00000000 		.word	USBFS_DmaEpLastBurstEl
 384 0174 FFFFFFBF 		.word	-1073741825
 385              		.cfi_endproc
 386              	.LFE169:
 387              		.size	USBFS_ARB_ISR, .-USBFS_ARB_ISR
 388              		.section	.text.USBFS_EP_1_ISR,"ax",%progbits
 389              		.align	2
 390              		.global	USBFS_EP_1_ISR
 391              		.code	16
 392              		.thumb_func
 393              		.type	USBFS_EP_1_ISR, %function
 394              	USBFS_EP_1_ISR:
 395              	.LFB162:
  38:.\Generated_Source\PSoC4/USBFS_episr.c **** 
 396              		.loc 1 38 0
 397              		.cfi_startproc
 398 0000 08B5     		push	{r3, lr}
 399              		.cfi_def_cfa_offset 8
 400              		.cfi_offset 3, -8
 401              		.cfi_offset 14, -4
  41:.\Generated_Source\PSoC4/USBFS_episr.c ****     #endif /* (USBFS_EP_1_ISR_ENTRY_CALLBACK) */
 402              		.loc 1 41 0
 403 0002 FFF7FEFF 		bl	ProcessAudioOut
 404              	.LVL10:
  55:.\Generated_Source\PSoC4/USBFS_episr.c ****             
 405              		.loc 1 55 0
 406 0006 0122     		mov	r2, #1
 407 0008 0B4B     		ldr	r3, .L26
 408 000a 1A60     		str	r2, [r3]
  62:.\Generated_Source\PSoC4/USBFS_episr.c ****     #endif /* (CY_PSOC4 && USBFS_EP_MANAGEMENT_DMA_AUTO) */
 409              		.loc 1 62 0
 410 000c 0B4B     		ldr	r3, .L26+4
 411 000e 1B7C     		ldrb	r3, [r3, #16]
 412 0010 5BB2     		sxtb	r3, r3
 413 0012 002B     		cmp	r3, #0
 414 0014 0FDA     		bge	.L23
  66:.\Generated_Source\PSoC4/USBFS_episr.c ****             
 415              		.loc 1 66 0
 416 0016 0A4B     		ldr	r3, .L26+8
 417 0018 9B6C     		ldr	r3, [r3, #72]
  69:.\Generated_Source\PSoC4/USBFS_episr.c ****             {
 418              		.loc 1 69 0
ARM GAS  C:\Users\Terence\AppData\Local\Temp\cc65qyTh.s 			page 25


 419 001a 084B     		ldr	r3, .L26+4
 420 001c 1A7B     		ldrb	r2, [r3, #12]
 421 001e 0323     		mov	r3, #3
 422 0020 1340     		and	r3, r2
 423 0022 012B     		cmp	r3, #1
 424 0024 04D0     		beq	.L25
  71:.\Generated_Source\PSoC4/USBFS_episr.c ****             }
 425              		.loc 1 71 0
 426 0026 054A     		ldr	r2, .L26+4
 427 0028 D17B     		ldrb	r1, [r2, #15]
 428 002a 8023     		mov	r3, #128
 429 002c 4B40     		eor	r3, r1
 430 002e D373     		strb	r3, [r2, #15]
 431              	.L25:
  80:.\Generated_Source\PSoC4/USBFS_episr.c ****         }
 432              		.loc 1 80 0
 433 0030 0122     		mov	r2, #1
 434 0032 024B     		ldr	r3, .L26+4
 435 0034 5A73     		strb	r2, [r3, #13]
 436              	.L23:
 107:.\Generated_Source\PSoC4/USBFS_episr.c **** 
 437              		.loc 1 107 0
 438              		@ sp needed
 439 0036 08BD     		pop	{r3, pc}
 440              	.L27:
 441              		.align	2
 442              	.L26:
 443 0038 2C002C40 		.word	1076625452
 444 003c 00000000 		.word	USBFS_EP
 445 0040 F0FF2B40 		.word	1076625392
 446              		.cfi_endproc
 447              	.LFE162:
 448              		.size	USBFS_EP_1_ISR, .-USBFS_EP_1_ISR
 449              		.section	.text.USBFS_EP_2_ISR,"ax",%progbits
 450              		.align	2
 451              		.global	USBFS_EP_2_ISR
 452              		.code	16
 453              		.thumb_func
 454              		.type	USBFS_EP_2_ISR, %function
 455              	USBFS_EP_2_ISR:
 456              	.LFB163:
 121:.\Generated_Source\PSoC4/USBFS_episr.c ****     #ifdef USBFS_EP_2_ISR_ENTRY_CALLBACK
 457              		.loc 1 121 0
 458              		.cfi_startproc
 459 0000 08B5     		push	{r3, lr}
 460              		.cfi_def_cfa_offset 8
 461              		.cfi_offset 3, -8
 462              		.cfi_offset 14, -4
 123:.\Generated_Source\PSoC4/USBFS_episr.c ****     #endif /* (USBFS_EP_2_ISR_ENTRY_CALLBACK) */
 463              		.loc 1 123 0
 464 0002 FFF7FEFF 		bl	ProcessAudioIn
 465              	.LVL11:
 137:.\Generated_Source\PSoC4/USBFS_episr.c **** 
 466              		.loc 1 137 0
 467 0006 0222     		mov	r2, #2
 468 0008 0C4B     		ldr	r3, .L31
 469 000a 1A60     		str	r2, [r3]
ARM GAS  C:\Users\Terence\AppData\Local\Temp\cc65qyTh.s 			page 26


 144:.\Generated_Source\PSoC4/USBFS_episr.c ****     #endif /* (CY_PSOC4 && USBFS_EP_MANAGEMENT_DMA_AUTO) */
 470              		.loc 1 144 0
 471 000c 0C4B     		ldr	r3, .L31+4
 472 000e 1B7F     		ldrb	r3, [r3, #28]
 473 0010 5BB2     		sxtb	r3, r3
 474 0012 002B     		cmp	r3, #0
 475 0014 10DA     		bge	.L28
 148:.\Generated_Source\PSoC4/USBFS_episr.c ****             
 476              		.loc 1 148 0
 477 0016 8823     		mov	r3, #136
 478 0018 0A4A     		ldr	r2, .L31+8
 479 001a D358     		ldr	r3, [r2, r3]
 151:.\Generated_Source\PSoC4/USBFS_episr.c ****             {
 480              		.loc 1 151 0
 481 001c 084B     		ldr	r3, .L31+4
 482 001e 1A7E     		ldrb	r2, [r3, #24]
 483 0020 0323     		mov	r3, #3
 484 0022 1340     		and	r3, r2
 485 0024 012B     		cmp	r3, #1
 486 0026 04D0     		beq	.L30
 153:.\Generated_Source\PSoC4/USBFS_episr.c ****             }
 487              		.loc 1 153 0
 488 0028 054A     		ldr	r2, .L31+4
 489 002a D17E     		ldrb	r1, [r2, #27]
 490 002c 8023     		mov	r3, #128
 491 002e 4B40     		eor	r3, r1
 492 0030 D376     		strb	r3, [r2, #27]
 493              	.L30:
 162:.\Generated_Source\PSoC4/USBFS_episr.c ****         }
 494              		.loc 1 162 0
 495 0032 0122     		mov	r2, #1
 496 0034 024B     		ldr	r3, .L31+4
 497 0036 5A76     		strb	r2, [r3, #25]
 498              	.L28:
 189:.\Generated_Source\PSoC4/USBFS_episr.c **** #endif /* (USBFS_EP2_ISR_ACTIVE) */
 499              		.loc 1 189 0
 500              		@ sp needed
 501 0038 08BD     		pop	{r3, pc}
 502              	.L32:
 503 003a C046     		.align	2
 504              	.L31:
 505 003c 2C002C40 		.word	1076625452
 506 0040 00000000 		.word	USBFS_EP
 507 0044 F0FF2B40 		.word	1076625392
 508              		.cfi_endproc
 509              	.LFE163:
 510              		.size	USBFS_EP_2_ISR, .-USBFS_EP_2_ISR
 511              		.section	.text.USBFS_EP_3_ISR,"ax",%progbits
 512              		.align	2
 513              		.global	USBFS_EP_3_ISR
 514              		.code	16
 515              		.thumb_func
 516              		.type	USBFS_EP_3_ISR, %function
 517              	USBFS_EP_3_ISR:
 518              	.LFB164:
 202:.\Generated_Source\PSoC4/USBFS_episr.c ****     #ifdef USBFS_EP_3_ISR_ENTRY_CALLBACK
 519              		.loc 1 202 0
ARM GAS  C:\Users\Terence\AppData\Local\Temp\cc65qyTh.s 			page 27


 520              		.cfi_startproc
 521 0000 08B5     		push	{r3, lr}
 522              		.cfi_def_cfa_offset 8
 523              		.cfi_offset 3, -8
 524              		.cfi_offset 14, -4
 204:.\Generated_Source\PSoC4/USBFS_episr.c ****     #endif /* (USBFS_EP_3_ISR_ENTRY_CALLBACK) */
 525              		.loc 1 204 0
 526 0002 0120     		mov	r0, #1
 527 0004 FFF7FEFF 		bl	processAsyncFeedbackTransfer
 528              	.LVL12:
 218:.\Generated_Source\PSoC4/USBFS_episr.c **** 
 529              		.loc 1 218 0
 530 0008 0422     		mov	r2, #4
 531 000a 0E4B     		ldr	r3, .L36
 532 000c 1A60     		str	r2, [r3]
 225:.\Generated_Source\PSoC4/USBFS_episr.c ****     #endif /* (USBFS_EP_MANAGEMENT_DMA_AUTO) */
 533              		.loc 1 225 0
 534 000e 2823     		mov	r3, #40
 535 0010 0D4A     		ldr	r2, .L36+4
 536 0012 D35C     		ldrb	r3, [r2, r3]
 537 0014 5BB2     		sxtb	r3, r3
 538 0016 002B     		cmp	r3, #0
 539 0018 13DA     		bge	.L33
 229:.\Generated_Source\PSoC4/USBFS_episr.c **** 
 540              		.loc 1 229 0
 541 001a C823     		mov	r3, #200
 542 001c 0B4A     		ldr	r2, .L36+8
 543 001e D358     		ldr	r3, [r2, r3]
 232:.\Generated_Source\PSoC4/USBFS_episr.c ****             {
 544              		.loc 1 232 0
 545 0020 2423     		mov	r3, #36
 546 0022 094A     		ldr	r2, .L36+4
 547 0024 D25C     		ldrb	r2, [r2, r3]
 548 0026 213B     		sub	r3, r3, #33
 549 0028 1340     		and	r3, r2
 550 002a 012B     		cmp	r3, #1
 551 002c 05D0     		beq	.L35
 234:.\Generated_Source\PSoC4/USBFS_episr.c ****             }
 552              		.loc 1 234 0
 553 002e 0649     		ldr	r1, .L36+4
 554 0030 2722     		mov	r2, #39
 555 0032 885C     		ldrb	r0, [r1, r2]
 556 0034 8023     		mov	r3, #128
 557 0036 4340     		eor	r3, r0
 558 0038 8B54     		strb	r3, [r1, r2]
 559              	.L35:
 243:.\Generated_Source\PSoC4/USBFS_episr.c ****         }
 560              		.loc 1 243 0
 561 003a 0121     		mov	r1, #1
 562 003c 2523     		mov	r3, #37
 563 003e 024A     		ldr	r2, .L36+4
 564 0040 D154     		strb	r1, [r2, r3]
 565              	.L33:
 270:.\Generated_Source\PSoC4/USBFS_episr.c **** #endif /* (USBFS_EP3_ISR_ACTIVE) */
 566              		.loc 1 270 0
 567              		@ sp needed
 568 0042 08BD     		pop	{r3, pc}
ARM GAS  C:\Users\Terence\AppData\Local\Temp\cc65qyTh.s 			page 28


 569              	.L37:
 570              		.align	2
 571              	.L36:
 572 0044 2C002C40 		.word	1076625452
 573 0048 00000000 		.word	USBFS_EP
 574 004c F0FF2B40 		.word	1076625392
 575              		.cfi_endproc
 576              	.LFE164:
 577              		.size	USBFS_EP_3_ISR, .-USBFS_EP_3_ISR
 578              		.section	.text.USBFS_SOF_ISR,"ax",%progbits
 579              		.align	2
 580              		.global	USBFS_SOF_ISR
 581              		.code	16
 582              		.thumb_func
 583              		.type	USBFS_SOF_ISR, %function
 584              	USBFS_SOF_ISR:
 585              	.LFB167:
 694:.\Generated_Source\PSoC4/USBFS_episr.c ****     #ifdef USBFS_SOF_ISR_ENTRY_CALLBACK
 586              		.loc 1 694 0
 587              		.cfi_startproc
 588 0000 08B5     		push	{r3, lr}
 589              		.cfi_def_cfa_offset 8
 590              		.cfi_offset 3, -8
 591              		.cfi_offset 14, -4
 696:.\Generated_Source\PSoC4/USBFS_episr.c ****     #endif /* (USBFS_SOF_ISR_ENTRY_CALLBACK) */
 592              		.loc 1 696 0
 593 0002 FFF7FEFF 		bl	UpdateFeedbackCount
 594              	.LVL13:
 703:.\Generated_Source\PSoC4/USBFS_episr.c **** 
 595              		.loc 1 703 0
 596 0006 0122     		mov	r2, #1
 597 0008 014B     		ldr	r3, .L39
 598 000a 1A60     		str	r2, [r3]
 708:.\Generated_Source\PSoC4/USBFS_episr.c **** #endif /* (USBFS_SOF_ISR_ACTIVE) */
 599              		.loc 1 708 0
 600              		@ sp needed
 601 000c 08BD     		pop	{r3, pc}
 602              	.L40:
 603 000e C046     		.align	2
 604              	.L39:
 605 0010 20202C40 		.word	1076633632
 606              		.cfi_endproc
 607              	.LFE167:
 608              		.size	USBFS_SOF_ISR, .-USBFS_SOF_ISR
 609              		.section	.text.USBFS_BUS_RESET_ISR,"ax",%progbits
 610              		.align	2
 611              		.global	USBFS_BUS_RESET_ISR
 612              		.code	16
 613              		.thumb_func
 614              		.type	USBFS_BUS_RESET_ISR, %function
 615              	USBFS_BUS_RESET_ISR:
 616              	.LFB168:
 723:.\Generated_Source\PSoC4/USBFS_episr.c **** #ifdef USBFS_BUS_RESET_ISR_ENTRY_CALLBACK
 617              		.loc 1 723 0
 618              		.cfi_startproc
 619 0000 08B5     		push	{r3, lr}
 620              		.cfi_def_cfa_offset 8
ARM GAS  C:\Users\Terence\AppData\Local\Temp\cc65qyTh.s 			page 29


 621              		.cfi_offset 3, -8
 622              		.cfi_offset 14, -4
 732:.\Generated_Source\PSoC4/USBFS_episr.c **** 
 623              		.loc 1 732 0
 624 0002 0222     		mov	r2, #2
 625 0004 024B     		ldr	r3, .L42
 626 0006 1A60     		str	r2, [r3]
 734:.\Generated_Source\PSoC4/USBFS_episr.c **** 
 627              		.loc 1 734 0
 628 0008 FFF7FEFF 		bl	USBFS_ReInitComponent
 629              	.LVL14:
 739:.\Generated_Source\PSoC4/USBFS_episr.c **** #endif /* (USBFS_BUS_RESET_ISR_ACTIVE) */
 630              		.loc 1 739 0
 631              		@ sp needed
 632 000c 08BD     		pop	{r3, pc}
 633              	.L43:
 634 000e C046     		.align	2
 635              	.L42:
 636 0010 20202C40 		.word	1076633632
 637              		.cfi_endproc
 638              	.LFE168:
 639              		.size	USBFS_BUS_RESET_ISR, .-USBFS_BUS_RESET_ISR
 640              		.section	.text.USBFS_EP1_DMA_DONE_ISR,"ax",%progbits
 641              		.align	2
 642              		.global	USBFS_EP1_DMA_DONE_ISR
 643              		.code	16
 644              		.thumb_func
 645              		.type	USBFS_EP1_DMA_DONE_ISR, %function
 646              	USBFS_EP1_DMA_DONE_ISR:
 647              	.LFB170:
 943:.\Generated_Source\PSoC4/USBFS_episr.c **** 
 944:.\Generated_Source\PSoC4/USBFS_episr.c **** #endif /*  (USBFS_ARB_ISR_ACTIVE && USBFS_EP_MANAGEMENT_DMA) */
 945:.\Generated_Source\PSoC4/USBFS_episr.c **** 
 946:.\Generated_Source\PSoC4/USBFS_episr.c **** 
 947:.\Generated_Source\PSoC4/USBFS_episr.c **** #if (USBFS_EP_MANAGEMENT_DMA_AUTO)
 948:.\Generated_Source\PSoC4/USBFS_episr.c **** #if (CY_PSOC4)
 949:.\Generated_Source\PSoC4/USBFS_episr.c ****     #if (USBFS_DMA1_ACTIVE)
 950:.\Generated_Source\PSoC4/USBFS_episr.c ****         /******************************************************************************
 951:.\Generated_Source\PSoC4/USBFS_episr.c ****         * Function Name: USBFS_EP1_DMA_DONE_ISR
 952:.\Generated_Source\PSoC4/USBFS_episr.c ****         ***************************************************************************//**
 953:.\Generated_Source\PSoC4/USBFS_episr.c ****         *
 954:.\Generated_Source\PSoC4/USBFS_episr.c ****         *  Endpoint 1 DMA Done Interrupt Service Routine.
 955:.\Generated_Source\PSoC4/USBFS_episr.c ****         *
 956:.\Generated_Source\PSoC4/USBFS_episr.c ****         *
 957:.\Generated_Source\PSoC4/USBFS_episr.c ****         ******************************************************************************/
 958:.\Generated_Source\PSoC4/USBFS_episr.c ****         void USBFS_EP1_DMA_DONE_ISR(void)
 959:.\Generated_Source\PSoC4/USBFS_episr.c ****         {
 648              		.loc 1 959 0
 649              		.cfi_startproc
 960:.\Generated_Source\PSoC4/USBFS_episr.c ****             uint32 nextAddr;
 961:.\Generated_Source\PSoC4/USBFS_episr.c **** 
 962:.\Generated_Source\PSoC4/USBFS_episr.c ****             /* Manage data elements which remain to transfer. */
 963:.\Generated_Source\PSoC4/USBFS_episr.c ****             if (0u != USBFS_DmaEpBurstCnt[USBFS_EP1])
 650              		.loc 1 963 0
 651 0000 214B     		ldr	r3, .L49
 652 0002 5B78     		ldrb	r3, [r3, #1]
 653 0004 002B     		cmp	r3, #0
ARM GAS  C:\Users\Terence\AppData\Local\Temp\cc65qyTh.s 			page 30


 654 0006 03D0     		beq	.L45
 964:.\Generated_Source\PSoC4/USBFS_episr.c ****             {
 965:.\Generated_Source\PSoC4/USBFS_episr.c ****                 /* Decrement burst counter. */
 966:.\Generated_Source\PSoC4/USBFS_episr.c ****                 --USBFS_DmaEpBurstCnt[USBFS_EP1];
 655              		.loc 1 966 0
 656 0008 013B     		sub	r3, r3, #1
 657 000a 1F4A     		ldr	r2, .L49
 658 000c 5370     		strb	r3, [r2, #1]
 659 000e 0FE0     		b	.L46
 660              	.L45:
 967:.\Generated_Source\PSoC4/USBFS_episr.c ****             }
 968:.\Generated_Source\PSoC4/USBFS_episr.c ****             else
 969:.\Generated_Source\PSoC4/USBFS_episr.c ****             {
 970:.\Generated_Source\PSoC4/USBFS_episr.c ****                 /* Adjust length of last burst. */
 971:.\Generated_Source\PSoC4/USBFS_episr.c ****                 USBFS_CyDmaSetNumDataElements(USBFS_EP1_DMA_CH,
 661              		.loc 1 971 0
 662 0010 1E4B     		ldr	r3, .L49+4
 663 0012 5A78     		ldrb	r2, [r3, #1]
 664 0014 D309     		lsr	r3, r2, #7
 665 0016 1B01     		lsl	r3, r3, #4
 666 0018 1D49     		ldr	r1, .L49+8
 667 001a 8C46     		mov	ip, r1
 668 001c 6344     		add	r3, r3, ip
 669 001e 0933     		add	r3, r3, #9
 670 0020 FF33     		add	r3, r3, #255
 671 0022 1968     		ldr	r1, [r3]
 672 0024 090C     		lsr	r1, r1, #16
 673 0026 0904     		lsl	r1, r1, #16
 674 0028 1F20     		mov	r0, #31
 675 002a 0240     		and	r2, r0
 676 002c 0A43     		orr	r2, r1
 677 002e 1A60     		str	r2, [r3]
 678              	.L46:
 972:.\Generated_Source\PSoC4/USBFS_episr.c ****                                                         ((uint32) USBFS_DmaEpLastBurstEl[USBFS_EP1]
 973:.\Generated_Source\PSoC4/USBFS_episr.c ****                                                         ((uint32) USBFS_DmaEpLastBurstEl[USBFS_EP1]
 974:.\Generated_Source\PSoC4/USBFS_episr.c ****             }
 975:.\Generated_Source\PSoC4/USBFS_episr.c **** 
 976:.\Generated_Source\PSoC4/USBFS_episr.c ****             /* Advance source for input endpoint or destination for output endpoint. */
 977:.\Generated_Source\PSoC4/USBFS_episr.c ****             if (0u != (USBFS_EP[USBFS_EP1].addr & USBFS_DIR_IN))
 679              		.loc 1 977 0
 680 0030 184B     		ldr	r3, .L49+12
 681 0032 1B7C     		ldrb	r3, [r3, #16]
 682 0034 5BB2     		sxtb	r3, r3
 683 0036 002B     		cmp	r3, #0
 684 0038 0ADA     		bge	.L47
 978:.\Generated_Source\PSoC4/USBFS_episr.c ****             {
 979:.\Generated_Source\PSoC4/USBFS_episr.c ****                 /* Change source for descriptor 0. */
 980:.\Generated_Source\PSoC4/USBFS_episr.c ****                 nextAddr = (uint32) USBFS_CyDmaGetSrcAddress(USBFS_EP1_DMA_CH, USBFS_DMA_DESCR0);
 685              		.loc 1 980 0
 686 003a 154A     		ldr	r2, .L49+8
 687 003c 8021     		mov	r1, #128
 688 003e 4900     		lsl	r1, r1, #1
 689 0040 5358     		ldr	r3, [r2, r1]
 690              	.LVL15:
 981:.\Generated_Source\PSoC4/USBFS_episr.c ****                 nextAddr += (2u * USBFS_DMA_BYTES_PER_BURST);
 691              		.loc 1 981 0
 692 0042 181C     		mov	r0, r3
ARM GAS  C:\Users\Terence\AppData\Local\Temp\cc65qyTh.s 			page 31


 693 0044 4030     		add	r0, r0, #64
 694              	.LVL16:
 982:.\Generated_Source\PSoC4/USBFS_episr.c ****                 USBFS_CyDmaSetSrcAddress(USBFS_EP1_DMA_CH, USBFS_DMA_DESCR0, (void *) nextAddr);
 695              		.loc 1 982 0
 696 0046 5050     		str	r0, [r2, r1]
 983:.\Generated_Source\PSoC4/USBFS_episr.c **** 
 984:.\Generated_Source\PSoC4/USBFS_episr.c ****                 /* Change source for descriptor 1. */
 985:.\Generated_Source\PSoC4/USBFS_episr.c ****                 nextAddr += USBFS_DMA_BYTES_PER_BURST;
 697              		.loc 1 985 0
 698 0048 6033     		add	r3, r3, #96
 699              	.LVL17:
 986:.\Generated_Source\PSoC4/USBFS_episr.c ****                 USBFS_CyDmaSetSrcAddress(USBFS_EP1_DMA_CH, USBFS_DMA_DESCR1, (void *) nextAddr);
 700              		.loc 1 986 0
 701 004a 1031     		add	r1, r1, #16
 702 004c 5350     		str	r3, [r2, r1]
 703 004e 09E0     		b	.L48
 704              	.LVL18:
 705              	.L47:
 987:.\Generated_Source\PSoC4/USBFS_episr.c ****             }
 988:.\Generated_Source\PSoC4/USBFS_episr.c ****             else
 989:.\Generated_Source\PSoC4/USBFS_episr.c ****             {
 990:.\Generated_Source\PSoC4/USBFS_episr.c ****                 /* Change destination for descriptor 0. */
 991:.\Generated_Source\PSoC4/USBFS_episr.c ****                 nextAddr  = (uint32) USBFS_CyDmaGetDstAddress(USBFS_EP1_DMA_CH, USBFS_DMA_DESCR0);
 706              		.loc 1 991 0
 707 0050 0F4A     		ldr	r2, .L49+8
 708 0052 8221     		mov	r1, #130
 709 0054 4900     		lsl	r1, r1, #1
 710 0056 5358     		ldr	r3, [r2, r1]
 711              	.LVL19:
 992:.\Generated_Source\PSoC4/USBFS_episr.c ****                 nextAddr += (2u * USBFS_DMA_BYTES_PER_BURST);
 712              		.loc 1 992 0
 713 0058 181C     		mov	r0, r3
 714 005a 4030     		add	r0, r0, #64
 715              	.LVL20:
 993:.\Generated_Source\PSoC4/USBFS_episr.c ****                 USBFS_CyDmaSetDstAddress(USBFS_EP1_DMA_CH, USBFS_DMA_DESCR0, (void *) nextAddr);
 716              		.loc 1 993 0
 717 005c 5050     		str	r0, [r2, r1]
 994:.\Generated_Source\PSoC4/USBFS_episr.c **** 
 995:.\Generated_Source\PSoC4/USBFS_episr.c ****                 /* Change destination for descriptor 1. */
 996:.\Generated_Source\PSoC4/USBFS_episr.c ****                 nextAddr += USBFS_DMA_BYTES_PER_BURST;
 718              		.loc 1 996 0
 719 005e 6033     		add	r3, r3, #96
 720              	.LVL21:
 997:.\Generated_Source\PSoC4/USBFS_episr.c ****                 USBFS_CyDmaSetDstAddress(USBFS_EP1_DMA_CH, USBFS_DMA_DESCR1, (void *) nextAddr);
 721              		.loc 1 997 0
 722 0060 1031     		add	r1, r1, #16
 723 0062 5350     		str	r3, [r2, r1]
 724              	.L48:
 998:.\Generated_Source\PSoC4/USBFS_episr.c ****             }
 999:.\Generated_Source\PSoC4/USBFS_episr.c **** 
1000:.\Generated_Source\PSoC4/USBFS_episr.c ****             /* Enable DMA to execute transfer as it was disabled because there were no valid descri
1001:.\Generated_Source\PSoC4/USBFS_episr.c ****             USBFS_CyDmaValidateDescriptor(USBFS_EP1_DMA_CH, USBFS_DMA_DESCR0);
 725              		.loc 1 1001 0
 726 0064 8021     		mov	r1, #128
 727 0066 0906     		lsl	r1, r1, #24
 728 0068 8623     		mov	r3, #134
 729              	.LVL22:
ARM GAS  C:\Users\Terence\AppData\Local\Temp\cc65qyTh.s 			page 32


 730 006a 5B00     		lsl	r3, r3, #1
 731 006c 084A     		ldr	r2, .L49+8
 732 006e D150     		str	r1, [r2, r3]
1002:.\Generated_Source\PSoC4/USBFS_episr.c ****             USBFS_CyDmaChEnable (USBFS_EP1_DMA_CH);
 733              		.loc 1 1002 0
 734 0070 094A     		ldr	r2, .L49+16
 735 0072 136A     		ldr	r3, [r2, #32]
 736 0074 0B43     		orr	r3, r1
 737 0076 1362     		str	r3, [r2, #32]
1003:.\Generated_Source\PSoC4/USBFS_episr.c ****             USBFS_CyDmaTriggerIn(USBFS_DmaReqOut[USBFS_EP1]);
 738              		.loc 1 1003 0
 739 0078 084B     		ldr	r3, .L49+20
 740 007a 5B78     		ldrb	r3, [r3, #1]
 741 007c 084A     		ldr	r2, .L49+24
 742 007e 1343     		orr	r3, r2
 743 0080 084A     		ldr	r2, .L49+28
 744 0082 1360     		str	r3, [r2]
1004:.\Generated_Source\PSoC4/USBFS_episr.c ****         }
 745              		.loc 1 1004 0
 746              		@ sp needed
 747 0084 7047     		bx	lr
 748              	.L50:
 749 0086 C046     		.align	2
 750              	.L49:
 751 0088 00000000 		.word	USBFS_DmaEpBurstCnt
 752 008c 00000000 		.word	USBFS_DmaEpLastBurstEl
 753 0090 00181040 		.word	1074796544
 754 0094 00000000 		.word	USBFS_EP
 755 0098 80101040 		.word	1074794624
 756 009c 00000000 		.word	USBFS_DmaReqOut
 757 00a0 000102C0 		.word	-1073610496
 758 00a4 00060140 		.word	1073808896
 759              		.cfi_endproc
 760              	.LFE170:
 761              		.size	USBFS_EP1_DMA_DONE_ISR, .-USBFS_EP1_DMA_DONE_ISR
 762              		.section	.text.USBFS_EP2_DMA_DONE_ISR,"ax",%progbits
 763              		.align	2
 764              		.global	USBFS_EP2_DMA_DONE_ISR
 765              		.code	16
 766              		.thumb_func
 767              		.type	USBFS_EP2_DMA_DONE_ISR, %function
 768              	USBFS_EP2_DMA_DONE_ISR:
 769              	.LFB171:
1005:.\Generated_Source\PSoC4/USBFS_episr.c ****     #endif /* (USBFS_DMA1_ACTIVE) */
1006:.\Generated_Source\PSoC4/USBFS_episr.c **** 
1007:.\Generated_Source\PSoC4/USBFS_episr.c **** 
1008:.\Generated_Source\PSoC4/USBFS_episr.c ****     #if (USBFS_DMA2_ACTIVE)
1009:.\Generated_Source\PSoC4/USBFS_episr.c ****         /******************************************************************************
1010:.\Generated_Source\PSoC4/USBFS_episr.c ****         * Function Name: USBFS_EP2_DMA_DONE_ISR
1011:.\Generated_Source\PSoC4/USBFS_episr.c ****         ***************************************************************************//**
1012:.\Generated_Source\PSoC4/USBFS_episr.c ****         *
1013:.\Generated_Source\PSoC4/USBFS_episr.c ****         *  Endpoint 2 DMA Done Interrupt Service Routine.
1014:.\Generated_Source\PSoC4/USBFS_episr.c ****         *
1015:.\Generated_Source\PSoC4/USBFS_episr.c ****         *
1016:.\Generated_Source\PSoC4/USBFS_episr.c ****         ******************************************************************************/
1017:.\Generated_Source\PSoC4/USBFS_episr.c ****         void USBFS_EP2_DMA_DONE_ISR(void)
1018:.\Generated_Source\PSoC4/USBFS_episr.c ****         {
ARM GAS  C:\Users\Terence\AppData\Local\Temp\cc65qyTh.s 			page 33


 770              		.loc 1 1018 0
 771              		.cfi_startproc
1019:.\Generated_Source\PSoC4/USBFS_episr.c ****             uint32 nextAddr;
1020:.\Generated_Source\PSoC4/USBFS_episr.c **** 
1021:.\Generated_Source\PSoC4/USBFS_episr.c ****             /* Manage data elements which remain to transfer. */
1022:.\Generated_Source\PSoC4/USBFS_episr.c ****             if (0u != USBFS_DmaEpBurstCnt[USBFS_EP2])
 772              		.loc 1 1022 0
 773 0000 214B     		ldr	r3, .L56
 774 0002 9B78     		ldrb	r3, [r3, #2]
 775 0004 002B     		cmp	r3, #0
 776 0006 03D0     		beq	.L52
1023:.\Generated_Source\PSoC4/USBFS_episr.c ****             {
1024:.\Generated_Source\PSoC4/USBFS_episr.c ****                 /* Decrement burst counter. */
1025:.\Generated_Source\PSoC4/USBFS_episr.c ****                 --USBFS_DmaEpBurstCnt[USBFS_EP2];
 777              		.loc 1 1025 0
 778 0008 013B     		sub	r3, r3, #1
 779 000a 1F4A     		ldr	r2, .L56
 780 000c 9370     		strb	r3, [r2, #2]
 781 000e 0FE0     		b	.L53
 782              	.L52:
1026:.\Generated_Source\PSoC4/USBFS_episr.c ****             }
1027:.\Generated_Source\PSoC4/USBFS_episr.c ****             else
1028:.\Generated_Source\PSoC4/USBFS_episr.c ****             {
1029:.\Generated_Source\PSoC4/USBFS_episr.c ****                 /* Adjust length of last burst. */
1030:.\Generated_Source\PSoC4/USBFS_episr.c ****                 USBFS_CyDmaSetNumDataElements(USBFS_EP2_DMA_CH,
 783              		.loc 1 1030 0
 784 0010 1E4B     		ldr	r3, .L56+4
 785 0012 9A78     		ldrb	r2, [r3, #2]
 786 0014 D309     		lsr	r3, r2, #7
 787 0016 1B01     		lsl	r3, r3, #4
 788 0018 1D49     		ldr	r1, .L56+8
 789 001a 8C46     		mov	ip, r1
 790 001c 6344     		add	r3, r3, ip
 791 001e 2933     		add	r3, r3, #41
 792 0020 FF33     		add	r3, r3, #255
 793 0022 1968     		ldr	r1, [r3]
 794 0024 090C     		lsr	r1, r1, #16
 795 0026 0904     		lsl	r1, r1, #16
 796 0028 1F20     		mov	r0, #31
 797 002a 0240     		and	r2, r0
 798 002c 0A43     		orr	r2, r1
 799 002e 1A60     		str	r2, [r3]
 800              	.L53:
1031:.\Generated_Source\PSoC4/USBFS_episr.c ****                                                         ((uint32) USBFS_DmaEpLastBurstEl[USBFS_EP2]
1032:.\Generated_Source\PSoC4/USBFS_episr.c ****                                                         ((uint32) USBFS_DmaEpLastBurstEl[USBFS_EP2]
1033:.\Generated_Source\PSoC4/USBFS_episr.c ****             }
1034:.\Generated_Source\PSoC4/USBFS_episr.c **** 
1035:.\Generated_Source\PSoC4/USBFS_episr.c ****             /* Advance source for input endpoint or destination for output endpoint. */
1036:.\Generated_Source\PSoC4/USBFS_episr.c ****             if (0u != (USBFS_EP[USBFS_EP2].addr & USBFS_DIR_IN))
 801              		.loc 1 1036 0
 802 0030 184B     		ldr	r3, .L56+12
 803 0032 1B7F     		ldrb	r3, [r3, #28]
 804 0034 5BB2     		sxtb	r3, r3
 805 0036 002B     		cmp	r3, #0
 806 0038 0ADA     		bge	.L54
1037:.\Generated_Source\PSoC4/USBFS_episr.c ****             {
1038:.\Generated_Source\PSoC4/USBFS_episr.c ****                 /* Change source for descriptor 0. */
ARM GAS  C:\Users\Terence\AppData\Local\Temp\cc65qyTh.s 			page 34


1039:.\Generated_Source\PSoC4/USBFS_episr.c ****                 nextAddr = (uint32) USBFS_CyDmaGetSrcAddress(USBFS_EP2_DMA_CH, USBFS_DMA_DESCR0);
 807              		.loc 1 1039 0
 808 003a 154A     		ldr	r2, .L56+8
 809 003c 9021     		mov	r1, #144
 810 003e 4900     		lsl	r1, r1, #1
 811 0040 5358     		ldr	r3, [r2, r1]
 812              	.LVL23:
1040:.\Generated_Source\PSoC4/USBFS_episr.c ****                 nextAddr += (2u * USBFS_DMA_BYTES_PER_BURST);
 813              		.loc 1 1040 0
 814 0042 181C     		mov	r0, r3
 815 0044 4030     		add	r0, r0, #64
 816              	.LVL24:
1041:.\Generated_Source\PSoC4/USBFS_episr.c ****                 USBFS_CyDmaSetSrcAddress(USBFS_EP2_DMA_CH, USBFS_DMA_DESCR0, (void *) nextAddr);
 817              		.loc 1 1041 0
 818 0046 5050     		str	r0, [r2, r1]
1042:.\Generated_Source\PSoC4/USBFS_episr.c **** 
1043:.\Generated_Source\PSoC4/USBFS_episr.c ****                 /* Change source for descriptor 1. */
1044:.\Generated_Source\PSoC4/USBFS_episr.c ****                 nextAddr += USBFS_DMA_BYTES_PER_BURST;
 819              		.loc 1 1044 0
 820 0048 6033     		add	r3, r3, #96
 821              	.LVL25:
1045:.\Generated_Source\PSoC4/USBFS_episr.c ****                 USBFS_CyDmaSetSrcAddress(USBFS_EP2_DMA_CH, USBFS_DMA_DESCR1, (void *) nextAddr);
 822              		.loc 1 1045 0
 823 004a 1031     		add	r1, r1, #16
 824 004c 5350     		str	r3, [r2, r1]
 825 004e 09E0     		b	.L55
 826              	.LVL26:
 827              	.L54:
1046:.\Generated_Source\PSoC4/USBFS_episr.c ****             }
1047:.\Generated_Source\PSoC4/USBFS_episr.c ****             else
1048:.\Generated_Source\PSoC4/USBFS_episr.c ****             {
1049:.\Generated_Source\PSoC4/USBFS_episr.c ****                 /* Change destination for descriptor 0. */
1050:.\Generated_Source\PSoC4/USBFS_episr.c ****                 nextAddr  = (uint32) USBFS_CyDmaGetDstAddress(USBFS_EP2_DMA_CH, USBFS_DMA_DESCR0);
 828              		.loc 1 1050 0
 829 0050 0F4A     		ldr	r2, .L56+8
 830 0052 9221     		mov	r1, #146
 831 0054 4900     		lsl	r1, r1, #1
 832 0056 5358     		ldr	r3, [r2, r1]
 833              	.LVL27:
1051:.\Generated_Source\PSoC4/USBFS_episr.c ****                 nextAddr += (2u * USBFS_DMA_BYTES_PER_BURST);
 834              		.loc 1 1051 0
 835 0058 181C     		mov	r0, r3
 836 005a 4030     		add	r0, r0, #64
 837              	.LVL28:
1052:.\Generated_Source\PSoC4/USBFS_episr.c ****                 USBFS_CyDmaSetDstAddress(USBFS_EP2_DMA_CH, USBFS_DMA_DESCR0, (void *) nextAddr);
 838              		.loc 1 1052 0
 839 005c 5050     		str	r0, [r2, r1]
1053:.\Generated_Source\PSoC4/USBFS_episr.c **** 
1054:.\Generated_Source\PSoC4/USBFS_episr.c ****                 /* Change destination for descriptor 1. */
1055:.\Generated_Source\PSoC4/USBFS_episr.c ****                 nextAddr += USBFS_DMA_BYTES_PER_BURST;
 840              		.loc 1 1055 0
 841 005e 6033     		add	r3, r3, #96
 842              	.LVL29:
1056:.\Generated_Source\PSoC4/USBFS_episr.c ****                 USBFS_CyDmaSetDstAddress(USBFS_EP2_DMA_CH, USBFS_DMA_DESCR1, (void *) nextAddr);
 843              		.loc 1 1056 0
 844 0060 1031     		add	r1, r1, #16
 845 0062 5350     		str	r3, [r2, r1]
ARM GAS  C:\Users\Terence\AppData\Local\Temp\cc65qyTh.s 			page 35


 846              	.L55:
1057:.\Generated_Source\PSoC4/USBFS_episr.c ****             }
1058:.\Generated_Source\PSoC4/USBFS_episr.c **** 
1059:.\Generated_Source\PSoC4/USBFS_episr.c ****             /* Enable DMA to execute transfer as it was disabled because there were no valid descri
1060:.\Generated_Source\PSoC4/USBFS_episr.c ****             USBFS_CyDmaValidateDescriptor(USBFS_EP2_DMA_CH, USBFS_DMA_DESCR0);
 847              		.loc 1 1060 0
 848 0064 8021     		mov	r1, #128
 849 0066 0906     		lsl	r1, r1, #24
 850 0068 9623     		mov	r3, #150
 851              	.LVL30:
 852 006a 5B00     		lsl	r3, r3, #1
 853 006c 084A     		ldr	r2, .L56+8
 854 006e D150     		str	r1, [r2, r3]
1061:.\Generated_Source\PSoC4/USBFS_episr.c ****             USBFS_CyDmaChEnable (USBFS_EP2_DMA_CH);
 855              		.loc 1 1061 0
 856 0070 094A     		ldr	r2, .L56+16
 857 0072 536A     		ldr	r3, [r2, #36]
 858 0074 0B43     		orr	r3, r1
 859 0076 5362     		str	r3, [r2, #36]
1062:.\Generated_Source\PSoC4/USBFS_episr.c ****             USBFS_CyDmaTriggerIn(USBFS_DmaReqOut[USBFS_EP2]);
 860              		.loc 1 1062 0
 861 0078 084B     		ldr	r3, .L56+20
 862 007a 9B78     		ldrb	r3, [r3, #2]
 863 007c 084A     		ldr	r2, .L56+24
 864 007e 1343     		orr	r3, r2
 865 0080 084A     		ldr	r2, .L56+28
 866 0082 1360     		str	r3, [r2]
1063:.\Generated_Source\PSoC4/USBFS_episr.c ****         }
 867              		.loc 1 1063 0
 868              		@ sp needed
 869 0084 7047     		bx	lr
 870              	.L57:
 871 0086 C046     		.align	2
 872              	.L56:
 873 0088 00000000 		.word	USBFS_DmaEpBurstCnt
 874 008c 00000000 		.word	USBFS_DmaEpLastBurstEl
 875 0090 00181040 		.word	1074796544
 876 0094 00000000 		.word	USBFS_EP
 877 0098 80101040 		.word	1074794624
 878 009c 00000000 		.word	USBFS_DmaReqOut
 879 00a0 000102C0 		.word	-1073610496
 880 00a4 00060140 		.word	1073808896
 881              		.cfi_endproc
 882              	.LFE171:
 883              		.size	USBFS_EP2_DMA_DONE_ISR, .-USBFS_EP2_DMA_DONE_ISR
 884              		.section	.text.USBFS_EP3_DMA_DONE_ISR,"ax",%progbits
 885              		.align	2
 886              		.global	USBFS_EP3_DMA_DONE_ISR
 887              		.code	16
 888              		.thumb_func
 889              		.type	USBFS_EP3_DMA_DONE_ISR, %function
 890              	USBFS_EP3_DMA_DONE_ISR:
 891              	.LFB172:
1064:.\Generated_Source\PSoC4/USBFS_episr.c ****     #endif /* (USBFS_DMA2_ACTIVE) */
1065:.\Generated_Source\PSoC4/USBFS_episr.c **** 
1066:.\Generated_Source\PSoC4/USBFS_episr.c **** 
1067:.\Generated_Source\PSoC4/USBFS_episr.c ****     #if (USBFS_DMA3_ACTIVE)
ARM GAS  C:\Users\Terence\AppData\Local\Temp\cc65qyTh.s 			page 36


1068:.\Generated_Source\PSoC4/USBFS_episr.c ****         /******************************************************************************
1069:.\Generated_Source\PSoC4/USBFS_episr.c ****         * Function Name: USBFS_EP3_DMA_DONE_ISR
1070:.\Generated_Source\PSoC4/USBFS_episr.c ****         ***************************************************************************//**
1071:.\Generated_Source\PSoC4/USBFS_episr.c ****         *
1072:.\Generated_Source\PSoC4/USBFS_episr.c ****         *  Endpoint 3 DMA Done Interrupt Service Routine.
1073:.\Generated_Source\PSoC4/USBFS_episr.c ****         *
1074:.\Generated_Source\PSoC4/USBFS_episr.c ****         *
1075:.\Generated_Source\PSoC4/USBFS_episr.c ****         ******************************************************************************/
1076:.\Generated_Source\PSoC4/USBFS_episr.c ****         void USBFS_EP3_DMA_DONE_ISR(void)
1077:.\Generated_Source\PSoC4/USBFS_episr.c ****         {
 892              		.loc 1 1077 0
 893              		.cfi_startproc
1078:.\Generated_Source\PSoC4/USBFS_episr.c ****             uint32 nextAddr;
1079:.\Generated_Source\PSoC4/USBFS_episr.c **** 
1080:.\Generated_Source\PSoC4/USBFS_episr.c ****             /* Manage data elements which remain to transfer. */
1081:.\Generated_Source\PSoC4/USBFS_episr.c ****             if (0u != USBFS_DmaEpBurstCnt[USBFS_EP3])
 894              		.loc 1 1081 0
 895 0000 214B     		ldr	r3, .L63
 896 0002 DB78     		ldrb	r3, [r3, #3]
 897 0004 002B     		cmp	r3, #0
 898 0006 03D0     		beq	.L59
1082:.\Generated_Source\PSoC4/USBFS_episr.c ****             {
1083:.\Generated_Source\PSoC4/USBFS_episr.c ****                 /* Decrement burst counter. */
1084:.\Generated_Source\PSoC4/USBFS_episr.c ****                 --USBFS_DmaEpBurstCnt[USBFS_EP3];
 899              		.loc 1 1084 0
 900 0008 013B     		sub	r3, r3, #1
 901 000a 1F4A     		ldr	r2, .L63
 902 000c D370     		strb	r3, [r2, #3]
 903 000e 0FE0     		b	.L60
 904              	.L59:
1085:.\Generated_Source\PSoC4/USBFS_episr.c ****             }
1086:.\Generated_Source\PSoC4/USBFS_episr.c ****             else
1087:.\Generated_Source\PSoC4/USBFS_episr.c ****             {
1088:.\Generated_Source\PSoC4/USBFS_episr.c ****                 /* Adjust length of last burst. */
1089:.\Generated_Source\PSoC4/USBFS_episr.c ****                 USBFS_CyDmaSetNumDataElements(USBFS_EP3_DMA_CH,
 905              		.loc 1 1089 0
 906 0010 1E4B     		ldr	r3, .L63+4
 907 0012 DA78     		ldrb	r2, [r3, #3]
 908 0014 D309     		lsr	r3, r2, #7
 909 0016 1B01     		lsl	r3, r3, #4
 910 0018 1D49     		ldr	r1, .L63+8
 911 001a 8C46     		mov	ip, r1
 912 001c 6344     		add	r3, r3, ip
 913 001e 4933     		add	r3, r3, #73
 914 0020 FF33     		add	r3, r3, #255
 915 0022 1968     		ldr	r1, [r3]
 916 0024 090C     		lsr	r1, r1, #16
 917 0026 0904     		lsl	r1, r1, #16
 918 0028 1F20     		mov	r0, #31
 919 002a 0240     		and	r2, r0
 920 002c 0A43     		orr	r2, r1
 921 002e 1A60     		str	r2, [r3]
 922              	.L60:
1090:.\Generated_Source\PSoC4/USBFS_episr.c ****                                                         ((uint32) USBFS_DmaEpLastBurstEl[USBFS_EP3]
1091:.\Generated_Source\PSoC4/USBFS_episr.c ****                                                         ((uint32) USBFS_DmaEpLastBurstEl[USBFS_EP3]
1092:.\Generated_Source\PSoC4/USBFS_episr.c ****             }
1093:.\Generated_Source\PSoC4/USBFS_episr.c **** 
ARM GAS  C:\Users\Terence\AppData\Local\Temp\cc65qyTh.s 			page 37


1094:.\Generated_Source\PSoC4/USBFS_episr.c ****             /* Advance source for input endpoint or destination for output endpoint. */
1095:.\Generated_Source\PSoC4/USBFS_episr.c ****             if (0u != (USBFS_EP[USBFS_EP3].addr & USBFS_DIR_IN))
 923              		.loc 1 1095 0
 924 0030 2823     		mov	r3, #40
 925 0032 184A     		ldr	r2, .L63+12
 926 0034 D35C     		ldrb	r3, [r2, r3]
 927 0036 5BB2     		sxtb	r3, r3
 928 0038 002B     		cmp	r3, #0
 929 003a 0ADA     		bge	.L61
1096:.\Generated_Source\PSoC4/USBFS_episr.c ****             {
1097:.\Generated_Source\PSoC4/USBFS_episr.c ****                 /* Change source for descriptor 0. */
1098:.\Generated_Source\PSoC4/USBFS_episr.c ****                 nextAddr = (uint32) USBFS_CyDmaGetSrcAddress(USBFS_EP3_DMA_CH, USBFS_DMA_DESCR0);
 930              		.loc 1 1098 0
 931 003c 144A     		ldr	r2, .L63+8
 932 003e A021     		mov	r1, #160
 933 0040 4900     		lsl	r1, r1, #1
 934 0042 5358     		ldr	r3, [r2, r1]
 935              	.LVL31:
1099:.\Generated_Source\PSoC4/USBFS_episr.c ****                 nextAddr += (2u * USBFS_DMA_BYTES_PER_BURST);
 936              		.loc 1 1099 0
 937 0044 181C     		mov	r0, r3
 938 0046 4030     		add	r0, r0, #64
 939              	.LVL32:
1100:.\Generated_Source\PSoC4/USBFS_episr.c ****                 USBFS_CyDmaSetSrcAddress(USBFS_EP3_DMA_CH, USBFS_DMA_DESCR0, (void *) nextAddr);
 940              		.loc 1 1100 0
 941 0048 5050     		str	r0, [r2, r1]
1101:.\Generated_Source\PSoC4/USBFS_episr.c **** 
1102:.\Generated_Source\PSoC4/USBFS_episr.c ****                 /* Change source for descriptor 1. */
1103:.\Generated_Source\PSoC4/USBFS_episr.c ****                 nextAddr += USBFS_DMA_BYTES_PER_BURST;
 942              		.loc 1 1103 0
 943 004a 6033     		add	r3, r3, #96
 944              	.LVL33:
1104:.\Generated_Source\PSoC4/USBFS_episr.c ****                 USBFS_CyDmaSetSrcAddress(USBFS_EP3_DMA_CH, USBFS_DMA_DESCR1, (void *) nextAddr);
 945              		.loc 1 1104 0
 946 004c 1031     		add	r1, r1, #16
 947 004e 5350     		str	r3, [r2, r1]
 948 0050 09E0     		b	.L62
 949              	.LVL34:
 950              	.L61:
1105:.\Generated_Source\PSoC4/USBFS_episr.c ****             }
1106:.\Generated_Source\PSoC4/USBFS_episr.c ****             else
1107:.\Generated_Source\PSoC4/USBFS_episr.c ****             {
1108:.\Generated_Source\PSoC4/USBFS_episr.c ****                 /* Change destination for descriptor 0. */
1109:.\Generated_Source\PSoC4/USBFS_episr.c ****                 nextAddr  = (uint32) USBFS_CyDmaGetDstAddress(USBFS_EP3_DMA_CH, USBFS_DMA_DESCR0);
 951              		.loc 1 1109 0
 952 0052 0F4A     		ldr	r2, .L63+8
 953 0054 A221     		mov	r1, #162
 954 0056 4900     		lsl	r1, r1, #1
 955 0058 5358     		ldr	r3, [r2, r1]
 956              	.LVL35:
1110:.\Generated_Source\PSoC4/USBFS_episr.c ****                 nextAddr += (2u * USBFS_DMA_BYTES_PER_BURST);
 957              		.loc 1 1110 0
 958 005a 181C     		mov	r0, r3
 959 005c 4030     		add	r0, r0, #64
 960              	.LVL36:
1111:.\Generated_Source\PSoC4/USBFS_episr.c ****                 USBFS_CyDmaSetDstAddress(USBFS_EP3_DMA_CH, USBFS_DMA_DESCR0, (void *) nextAddr);
 961              		.loc 1 1111 0
ARM GAS  C:\Users\Terence\AppData\Local\Temp\cc65qyTh.s 			page 38


 962 005e 5050     		str	r0, [r2, r1]
1112:.\Generated_Source\PSoC4/USBFS_episr.c **** 
1113:.\Generated_Source\PSoC4/USBFS_episr.c ****                 /* Change destination for descriptor 1. */
1114:.\Generated_Source\PSoC4/USBFS_episr.c ****                 nextAddr += USBFS_DMA_BYTES_PER_BURST;
 963              		.loc 1 1114 0
 964 0060 6033     		add	r3, r3, #96
 965              	.LVL37:
1115:.\Generated_Source\PSoC4/USBFS_episr.c ****                 USBFS_CyDmaSetDstAddress(USBFS_EP3_DMA_CH, USBFS_DMA_DESCR1, (void *) nextAddr);
 966              		.loc 1 1115 0
 967 0062 1031     		add	r1, r1, #16
 968 0064 5350     		str	r3, [r2, r1]
 969              	.L62:
1116:.\Generated_Source\PSoC4/USBFS_episr.c ****             }
1117:.\Generated_Source\PSoC4/USBFS_episr.c **** 
1118:.\Generated_Source\PSoC4/USBFS_episr.c ****             /* Enable DMA to execute transfer as it was disabled because there were no valid descri
1119:.\Generated_Source\PSoC4/USBFS_episr.c ****             USBFS_CyDmaValidateDescriptor(USBFS_EP3_DMA_CH, USBFS_DMA_DESCR0);
 970              		.loc 1 1119 0
 971 0066 8021     		mov	r1, #128
 972 0068 0906     		lsl	r1, r1, #24
 973 006a A623     		mov	r3, #166
 974              	.LVL38:
 975 006c 5B00     		lsl	r3, r3, #1
 976 006e 084A     		ldr	r2, .L63+8
 977 0070 D150     		str	r1, [r2, r3]
1120:.\Generated_Source\PSoC4/USBFS_episr.c ****             USBFS_CyDmaChEnable (USBFS_EP3_DMA_CH);
 978              		.loc 1 1120 0
 979 0072 094A     		ldr	r2, .L63+16
 980 0074 936A     		ldr	r3, [r2, #40]
 981 0076 0B43     		orr	r3, r1
 982 0078 9362     		str	r3, [r2, #40]
1121:.\Generated_Source\PSoC4/USBFS_episr.c ****             USBFS_CyDmaTriggerIn(USBFS_DmaReqOut[USBFS_EP3]);
 983              		.loc 1 1121 0
 984 007a 084B     		ldr	r3, .L63+20
 985 007c DB78     		ldrb	r3, [r3, #3]
 986 007e 084A     		ldr	r2, .L63+24
 987 0080 1343     		orr	r3, r2
 988 0082 084A     		ldr	r2, .L63+28
 989 0084 1360     		str	r3, [r2]
1122:.\Generated_Source\PSoC4/USBFS_episr.c ****         }
 990              		.loc 1 1122 0
 991              		@ sp needed
 992 0086 7047     		bx	lr
 993              	.L64:
 994              		.align	2
 995              	.L63:
 996 0088 00000000 		.word	USBFS_DmaEpBurstCnt
 997 008c 00000000 		.word	USBFS_DmaEpLastBurstEl
 998 0090 00181040 		.word	1074796544
 999 0094 00000000 		.word	USBFS_EP
 1000 0098 80101040 		.word	1074794624
 1001 009c 00000000 		.word	USBFS_DmaReqOut
 1002 00a0 000102C0 		.word	-1073610496
 1003 00a4 00060140 		.word	1073808896
 1004              		.cfi_endproc
 1005              	.LFE172:
 1006              		.size	USBFS_EP3_DMA_DONE_ISR, .-USBFS_EP3_DMA_DONE_ISR
 1007              		.section	.text.USBFS_EP4_DMA_DONE_ISR,"ax",%progbits
ARM GAS  C:\Users\Terence\AppData\Local\Temp\cc65qyTh.s 			page 39


 1008              		.align	2
 1009              		.global	USBFS_EP4_DMA_DONE_ISR
 1010              		.code	16
 1011              		.thumb_func
 1012              		.type	USBFS_EP4_DMA_DONE_ISR, %function
 1013              	USBFS_EP4_DMA_DONE_ISR:
 1014              	.LFB173:
1123:.\Generated_Source\PSoC4/USBFS_episr.c ****     #endif /* (USBFS_DMA3_ACTIVE) */
1124:.\Generated_Source\PSoC4/USBFS_episr.c **** 
1125:.\Generated_Source\PSoC4/USBFS_episr.c **** 
1126:.\Generated_Source\PSoC4/USBFS_episr.c ****     #if (USBFS_DMA4_ACTIVE)
1127:.\Generated_Source\PSoC4/USBFS_episr.c ****         /******************************************************************************
1128:.\Generated_Source\PSoC4/USBFS_episr.c ****         * Function Name: USBFS_EP4_DMA_DONE_ISR
1129:.\Generated_Source\PSoC4/USBFS_episr.c ****         ***************************************************************************//**
1130:.\Generated_Source\PSoC4/USBFS_episr.c ****         *
1131:.\Generated_Source\PSoC4/USBFS_episr.c ****         *  Endpoint 4 DMA Done Interrupt Service Routine.
1132:.\Generated_Source\PSoC4/USBFS_episr.c ****         *
1133:.\Generated_Source\PSoC4/USBFS_episr.c ****         *
1134:.\Generated_Source\PSoC4/USBFS_episr.c ****         ******************************************************************************/
1135:.\Generated_Source\PSoC4/USBFS_episr.c ****         void USBFS_EP4_DMA_DONE_ISR(void)
1136:.\Generated_Source\PSoC4/USBFS_episr.c ****         {
 1015              		.loc 1 1136 0
 1016              		.cfi_startproc
1137:.\Generated_Source\PSoC4/USBFS_episr.c ****             uint32 nextAddr;
1138:.\Generated_Source\PSoC4/USBFS_episr.c **** 
1139:.\Generated_Source\PSoC4/USBFS_episr.c ****             /* Manage data elements which remain to transfer. */
1140:.\Generated_Source\PSoC4/USBFS_episr.c ****             if (0u != USBFS_DmaEpBurstCnt[USBFS_EP4])
 1017              		.loc 1 1140 0
 1018 0000 214B     		ldr	r3, .L70
 1019 0002 1B79     		ldrb	r3, [r3, #4]
 1020 0004 002B     		cmp	r3, #0
 1021 0006 03D0     		beq	.L66
1141:.\Generated_Source\PSoC4/USBFS_episr.c ****             {
1142:.\Generated_Source\PSoC4/USBFS_episr.c ****                 /* Decrement burst counter. */
1143:.\Generated_Source\PSoC4/USBFS_episr.c ****                 --USBFS_DmaEpBurstCnt[USBFS_EP4];
 1022              		.loc 1 1143 0
 1023 0008 013B     		sub	r3, r3, #1
 1024 000a 1F4A     		ldr	r2, .L70
 1025 000c 1371     		strb	r3, [r2, #4]
 1026 000e 0FE0     		b	.L67
 1027              	.L66:
1144:.\Generated_Source\PSoC4/USBFS_episr.c ****             }
1145:.\Generated_Source\PSoC4/USBFS_episr.c ****             else
1146:.\Generated_Source\PSoC4/USBFS_episr.c ****             {
1147:.\Generated_Source\PSoC4/USBFS_episr.c ****                 /* Adjust length of last burst. */
1148:.\Generated_Source\PSoC4/USBFS_episr.c ****                 USBFS_CyDmaSetNumDataElements(USBFS_EP4_DMA_CH,
 1028              		.loc 1 1148 0
 1029 0010 1E4B     		ldr	r3, .L70+4
 1030 0012 1A79     		ldrb	r2, [r3, #4]
 1031 0014 D309     		lsr	r3, r2, #7
 1032 0016 1B01     		lsl	r3, r3, #4
 1033 0018 1D49     		ldr	r1, .L70+8
 1034 001a 8C46     		mov	ip, r1
 1035 001c 6344     		add	r3, r3, ip
 1036 001e 6933     		add	r3, r3, #105
 1037 0020 FF33     		add	r3, r3, #255
 1038 0022 1968     		ldr	r1, [r3]
ARM GAS  C:\Users\Terence\AppData\Local\Temp\cc65qyTh.s 			page 40


 1039 0024 090C     		lsr	r1, r1, #16
 1040 0026 0904     		lsl	r1, r1, #16
 1041 0028 1F20     		mov	r0, #31
 1042 002a 0240     		and	r2, r0
 1043 002c 0A43     		orr	r2, r1
 1044 002e 1A60     		str	r2, [r3]
 1045              	.L67:
1149:.\Generated_Source\PSoC4/USBFS_episr.c ****                                                         ((uint32) USBFS_DmaEpLastBurstEl[USBFS_EP4]
1150:.\Generated_Source\PSoC4/USBFS_episr.c ****                                                         ((uint32) USBFS_DmaEpLastBurstEl[USBFS_EP4]
1151:.\Generated_Source\PSoC4/USBFS_episr.c ****             }
1152:.\Generated_Source\PSoC4/USBFS_episr.c **** 
1153:.\Generated_Source\PSoC4/USBFS_episr.c ****             /* Advance source for input endpoint or destination for output endpoint. */
1154:.\Generated_Source\PSoC4/USBFS_episr.c ****             if (0u != (USBFS_EP[USBFS_EP4].addr & USBFS_DIR_IN))
 1046              		.loc 1 1154 0
 1047 0030 3423     		mov	r3, #52
 1048 0032 184A     		ldr	r2, .L70+12
 1049 0034 D35C     		ldrb	r3, [r2, r3]
 1050 0036 5BB2     		sxtb	r3, r3
 1051 0038 002B     		cmp	r3, #0
 1052 003a 0ADA     		bge	.L68
1155:.\Generated_Source\PSoC4/USBFS_episr.c ****             {
1156:.\Generated_Source\PSoC4/USBFS_episr.c ****                 /* Change source for descriptor 0. */
1157:.\Generated_Source\PSoC4/USBFS_episr.c ****                 nextAddr = (uint32) USBFS_CyDmaGetSrcAddress(USBFS_EP4_DMA_CH, USBFS_DMA_DESCR0);
 1053              		.loc 1 1157 0
 1054 003c 144A     		ldr	r2, .L70+8
 1055 003e B021     		mov	r1, #176
 1056 0040 4900     		lsl	r1, r1, #1
 1057 0042 5358     		ldr	r3, [r2, r1]
 1058              	.LVL39:
1158:.\Generated_Source\PSoC4/USBFS_episr.c ****                 nextAddr += (2u * USBFS_DMA_BYTES_PER_BURST);
 1059              		.loc 1 1158 0
 1060 0044 181C     		mov	r0, r3
 1061 0046 4030     		add	r0, r0, #64
 1062              	.LVL40:
1159:.\Generated_Source\PSoC4/USBFS_episr.c ****                 USBFS_CyDmaSetSrcAddress(USBFS_EP4_DMA_CH, USBFS_DMA_DESCR0, (void *) nextAddr);
 1063              		.loc 1 1159 0
 1064 0048 5050     		str	r0, [r2, r1]
1160:.\Generated_Source\PSoC4/USBFS_episr.c **** 
1161:.\Generated_Source\PSoC4/USBFS_episr.c ****                 /* Change source for descriptor 1. */
1162:.\Generated_Source\PSoC4/USBFS_episr.c ****                 nextAddr += USBFS_DMA_BYTES_PER_BURST;
 1065              		.loc 1 1162 0
 1066 004a 6033     		add	r3, r3, #96
 1067              	.LVL41:
1163:.\Generated_Source\PSoC4/USBFS_episr.c ****                 USBFS_CyDmaSetSrcAddress(USBFS_EP4_DMA_CH, USBFS_DMA_DESCR1, (void *) nextAddr);
 1068              		.loc 1 1163 0
 1069 004c 1031     		add	r1, r1, #16
 1070 004e 5350     		str	r3, [r2, r1]
 1071 0050 09E0     		b	.L69
 1072              	.LVL42:
 1073              	.L68:
1164:.\Generated_Source\PSoC4/USBFS_episr.c ****             }
1165:.\Generated_Source\PSoC4/USBFS_episr.c ****             else
1166:.\Generated_Source\PSoC4/USBFS_episr.c ****             {
1167:.\Generated_Source\PSoC4/USBFS_episr.c ****                 /* Change destination for descriptor 0. */
1168:.\Generated_Source\PSoC4/USBFS_episr.c ****                 nextAddr  = (uint32) USBFS_CyDmaGetDstAddress(USBFS_EP4_DMA_CH, USBFS_DMA_DESCR0);
 1074              		.loc 1 1168 0
 1075 0052 0F4A     		ldr	r2, .L70+8
ARM GAS  C:\Users\Terence\AppData\Local\Temp\cc65qyTh.s 			page 41


 1076 0054 B221     		mov	r1, #178
 1077 0056 4900     		lsl	r1, r1, #1
 1078 0058 5358     		ldr	r3, [r2, r1]
 1079              	.LVL43:
1169:.\Generated_Source\PSoC4/USBFS_episr.c ****                 nextAddr += (2u * USBFS_DMA_BYTES_PER_BURST);
 1080              		.loc 1 1169 0
 1081 005a 181C     		mov	r0, r3
 1082 005c 4030     		add	r0, r0, #64
 1083              	.LVL44:
1170:.\Generated_Source\PSoC4/USBFS_episr.c ****                 USBFS_CyDmaSetDstAddress(USBFS_EP4_DMA_CH, USBFS_DMA_DESCR0, (void *) nextAddr);
 1084              		.loc 1 1170 0
 1085 005e 5050     		str	r0, [r2, r1]
1171:.\Generated_Source\PSoC4/USBFS_episr.c **** 
1172:.\Generated_Source\PSoC4/USBFS_episr.c ****                 /* Change destination for descriptor 1. */
1173:.\Generated_Source\PSoC4/USBFS_episr.c ****                 nextAddr += USBFS_DMA_BYTES_PER_BURST;
 1086              		.loc 1 1173 0
 1087 0060 6033     		add	r3, r3, #96
 1088              	.LVL45:
1174:.\Generated_Source\PSoC4/USBFS_episr.c ****                 USBFS_CyDmaSetDstAddress(USBFS_EP4_DMA_CH, USBFS_DMA_DESCR1, (void *) nextAddr);
 1089              		.loc 1 1174 0
 1090 0062 1031     		add	r1, r1, #16
 1091 0064 5350     		str	r3, [r2, r1]
 1092              	.L69:
1175:.\Generated_Source\PSoC4/USBFS_episr.c ****             }
1176:.\Generated_Source\PSoC4/USBFS_episr.c **** 
1177:.\Generated_Source\PSoC4/USBFS_episr.c ****             /* Enable DMA to execute transfer as it was disabled because there were no valid descri
1178:.\Generated_Source\PSoC4/USBFS_episr.c ****             USBFS_CyDmaValidateDescriptor(USBFS_EP4_DMA_CH, USBFS_DMA_DESCR0);
 1093              		.loc 1 1178 0
 1094 0066 8021     		mov	r1, #128
 1095 0068 0906     		lsl	r1, r1, #24
 1096 006a B623     		mov	r3, #182
 1097              	.LVL46:
 1098 006c 5B00     		lsl	r3, r3, #1
 1099 006e 084A     		ldr	r2, .L70+8
 1100 0070 D150     		str	r1, [r2, r3]
1179:.\Generated_Source\PSoC4/USBFS_episr.c ****             USBFS_CyDmaChEnable (USBFS_EP4_DMA_CH);
 1101              		.loc 1 1179 0
 1102 0072 094A     		ldr	r2, .L70+16
 1103 0074 D36A     		ldr	r3, [r2, #44]
 1104 0076 0B43     		orr	r3, r1
 1105 0078 D362     		str	r3, [r2, #44]
1180:.\Generated_Source\PSoC4/USBFS_episr.c ****             USBFS_CyDmaTriggerIn(USBFS_DmaReqOut[USBFS_EP4]);
 1106              		.loc 1 1180 0
 1107 007a 084B     		ldr	r3, .L70+20
 1108 007c 1B79     		ldrb	r3, [r3, #4]
 1109 007e 084A     		ldr	r2, .L70+24
 1110 0080 1343     		orr	r3, r2
 1111 0082 084A     		ldr	r2, .L70+28
 1112 0084 1360     		str	r3, [r2]
1181:.\Generated_Source\PSoC4/USBFS_episr.c ****         }
 1113              		.loc 1 1181 0
 1114              		@ sp needed
 1115 0086 7047     		bx	lr
 1116              	.L71:
 1117              		.align	2
 1118              	.L70:
 1119 0088 00000000 		.word	USBFS_DmaEpBurstCnt
ARM GAS  C:\Users\Terence\AppData\Local\Temp\cc65qyTh.s 			page 42


 1120 008c 00000000 		.word	USBFS_DmaEpLastBurstEl
 1121 0090 00181040 		.word	1074796544
 1122 0094 00000000 		.word	USBFS_EP
 1123 0098 80101040 		.word	1074794624
 1124 009c 00000000 		.word	USBFS_DmaReqOut
 1125 00a0 000102C0 		.word	-1073610496
 1126 00a4 00060140 		.word	1073808896
 1127              		.cfi_endproc
 1128              	.LFE173:
 1129              		.size	USBFS_EP4_DMA_DONE_ISR, .-USBFS_EP4_DMA_DONE_ISR
 1130              		.section	.text.USBFS_EP6_DMA_DONE_ISR,"ax",%progbits
 1131              		.align	2
 1132              		.global	USBFS_EP6_DMA_DONE_ISR
 1133              		.code	16
 1134              		.thumb_func
 1135              		.type	USBFS_EP6_DMA_DONE_ISR, %function
 1136              	USBFS_EP6_DMA_DONE_ISR:
 1137              	.LFB174:
1182:.\Generated_Source\PSoC4/USBFS_episr.c ****     #endif /* (USBFS_DMA4_ACTIVE) */
1183:.\Generated_Source\PSoC4/USBFS_episr.c **** 
1184:.\Generated_Source\PSoC4/USBFS_episr.c **** 
1185:.\Generated_Source\PSoC4/USBFS_episr.c ****     #if (USBFS_DMA5_ACTIVE)
1186:.\Generated_Source\PSoC4/USBFS_episr.c ****         /******************************************************************************
1187:.\Generated_Source\PSoC4/USBFS_episr.c ****         * Function Name: USBFS_EP5_DMA_DONE_ISR
1188:.\Generated_Source\PSoC4/USBFS_episr.c ****         ***************************************************************************//**
1189:.\Generated_Source\PSoC4/USBFS_episr.c ****         *
1190:.\Generated_Source\PSoC4/USBFS_episr.c ****         *  Endpoint 5 DMA Done Interrupt Service Routine.
1191:.\Generated_Source\PSoC4/USBFS_episr.c ****         *
1192:.\Generated_Source\PSoC4/USBFS_episr.c ****         *
1193:.\Generated_Source\PSoC4/USBFS_episr.c ****         ******************************************************************************/
1194:.\Generated_Source\PSoC4/USBFS_episr.c ****         void USBFS_EP5_DMA_DONE_ISR(void)
1195:.\Generated_Source\PSoC4/USBFS_episr.c ****         {
1196:.\Generated_Source\PSoC4/USBFS_episr.c ****             uint32 nextAddr;
1197:.\Generated_Source\PSoC4/USBFS_episr.c **** 
1198:.\Generated_Source\PSoC4/USBFS_episr.c ****             /* Manage data elements which remain to transfer. */
1199:.\Generated_Source\PSoC4/USBFS_episr.c ****             if (0u != USBFS_DmaEpBurstCnt[USBFS_EP5])
1200:.\Generated_Source\PSoC4/USBFS_episr.c ****             {
1201:.\Generated_Source\PSoC4/USBFS_episr.c ****                 /* Decrement burst counter. */
1202:.\Generated_Source\PSoC4/USBFS_episr.c ****                 --USBFS_DmaEpBurstCnt[USBFS_EP5];
1203:.\Generated_Source\PSoC4/USBFS_episr.c ****             }
1204:.\Generated_Source\PSoC4/USBFS_episr.c ****             else
1205:.\Generated_Source\PSoC4/USBFS_episr.c ****             {
1206:.\Generated_Source\PSoC4/USBFS_episr.c ****                 /* Adjust length of last burst. */
1207:.\Generated_Source\PSoC4/USBFS_episr.c ****                 USBFS_CyDmaSetNumDataElements(USBFS_EP5_DMA_CH,
1208:.\Generated_Source\PSoC4/USBFS_episr.c ****                                                         ((uint32) USBFS_DmaEpLastBurstEl[USBFS_EP5]
1209:.\Generated_Source\PSoC4/USBFS_episr.c ****                                                         ((uint32) USBFS_DmaEpLastBurstEl[USBFS_EP5]
1210:.\Generated_Source\PSoC4/USBFS_episr.c ****             }
1211:.\Generated_Source\PSoC4/USBFS_episr.c **** 
1212:.\Generated_Source\PSoC4/USBFS_episr.c ****             /* Advance source for input endpoint or destination for output endpoint. */
1213:.\Generated_Source\PSoC4/USBFS_episr.c ****             if (0u != (USBFS_EP[USBFS_EP5].addr & USBFS_DIR_IN))
1214:.\Generated_Source\PSoC4/USBFS_episr.c ****             {
1215:.\Generated_Source\PSoC4/USBFS_episr.c ****                 /* Change source for descriptor 0. */
1216:.\Generated_Source\PSoC4/USBFS_episr.c ****                 nextAddr = (uint32) USBFS_CyDmaGetSrcAddress(USBFS_EP5_DMA_CH, USBFS_DMA_DESCR0);
1217:.\Generated_Source\PSoC4/USBFS_episr.c ****                 nextAddr += (2u * USBFS_DMA_BYTES_PER_BURST);
1218:.\Generated_Source\PSoC4/USBFS_episr.c ****                 USBFS_CyDmaSetSrcAddress(USBFS_EP5_DMA_CH, USBFS_DMA_DESCR0, (void *) nextAddr);
1219:.\Generated_Source\PSoC4/USBFS_episr.c **** 
1220:.\Generated_Source\PSoC4/USBFS_episr.c ****                 /* Change source for descriptor 1. */
ARM GAS  C:\Users\Terence\AppData\Local\Temp\cc65qyTh.s 			page 43


1221:.\Generated_Source\PSoC4/USBFS_episr.c ****                 nextAddr += USBFS_DMA_BYTES_PER_BURST;
1222:.\Generated_Source\PSoC4/USBFS_episr.c ****                 USBFS_CyDmaSetSrcAddress(USBFS_EP5_DMA_CH, USBFS_DMA_DESCR1, (void *) nextAddr);
1223:.\Generated_Source\PSoC4/USBFS_episr.c ****             }
1224:.\Generated_Source\PSoC4/USBFS_episr.c ****             else
1225:.\Generated_Source\PSoC4/USBFS_episr.c ****             {
1226:.\Generated_Source\PSoC4/USBFS_episr.c ****                 /* Change destination for descriptor 0. */
1227:.\Generated_Source\PSoC4/USBFS_episr.c ****                 nextAddr  = (uint32) USBFS_CyDmaGetDstAddress(USBFS_EP5_DMA_CH, USBFS_DMA_DESCR0);
1228:.\Generated_Source\PSoC4/USBFS_episr.c ****                 nextAddr += (2u * USBFS_DMA_BYTES_PER_BURST);
1229:.\Generated_Source\PSoC4/USBFS_episr.c ****                 USBFS_CyDmaSetDstAddress(USBFS_EP5_DMA_CH, USBFS_DMA_DESCR0, (void *) nextAddr);
1230:.\Generated_Source\PSoC4/USBFS_episr.c **** 
1231:.\Generated_Source\PSoC4/USBFS_episr.c ****                 /* Change destination for descriptor 1. */
1232:.\Generated_Source\PSoC4/USBFS_episr.c ****                 nextAddr += USBFS_DMA_BYTES_PER_BURST;
1233:.\Generated_Source\PSoC4/USBFS_episr.c ****                 USBFS_CyDmaSetDstAddress(USBFS_EP5_DMA_CH, USBFS_DMA_DESCR1, (void *) nextAddr);
1234:.\Generated_Source\PSoC4/USBFS_episr.c ****             }
1235:.\Generated_Source\PSoC4/USBFS_episr.c **** 
1236:.\Generated_Source\PSoC4/USBFS_episr.c ****             /* Enable DMA to execute transfer as it was disabled because there were no valid descri
1237:.\Generated_Source\PSoC4/USBFS_episr.c ****             USBFS_CyDmaValidateDescriptor(USBFS_EP5_DMA_CH, USBFS_DMA_DESCR0);
1238:.\Generated_Source\PSoC4/USBFS_episr.c ****             USBFS_CyDmaChEnable (USBFS_EP5_DMA_CH);
1239:.\Generated_Source\PSoC4/USBFS_episr.c ****             USBFS_CyDmaTriggerIn(USBFS_DmaReqOut[USBFS_EP5]);
1240:.\Generated_Source\PSoC4/USBFS_episr.c ****         }
1241:.\Generated_Source\PSoC4/USBFS_episr.c ****     #endif /* (USBFS_DMA5_ACTIVE) */
1242:.\Generated_Source\PSoC4/USBFS_episr.c **** 
1243:.\Generated_Source\PSoC4/USBFS_episr.c **** 
1244:.\Generated_Source\PSoC4/USBFS_episr.c ****     #if (USBFS_DMA6_ACTIVE)
1245:.\Generated_Source\PSoC4/USBFS_episr.c ****         /******************************************************************************
1246:.\Generated_Source\PSoC4/USBFS_episr.c ****         * Function Name: USBFS_EP6_DMA_DONE_ISR
1247:.\Generated_Source\PSoC4/USBFS_episr.c ****         ***************************************************************************//**
1248:.\Generated_Source\PSoC4/USBFS_episr.c ****         *
1249:.\Generated_Source\PSoC4/USBFS_episr.c ****         *  Endpoint 6 DMA Done Interrupt Service Routine.
1250:.\Generated_Source\PSoC4/USBFS_episr.c ****         *
1251:.\Generated_Source\PSoC4/USBFS_episr.c ****         *
1252:.\Generated_Source\PSoC4/USBFS_episr.c ****         ******************************************************************************/
1253:.\Generated_Source\PSoC4/USBFS_episr.c ****         void USBFS_EP6_DMA_DONE_ISR(void)
1254:.\Generated_Source\PSoC4/USBFS_episr.c ****         {
 1138              		.loc 1 1254 0
 1139              		.cfi_startproc
1255:.\Generated_Source\PSoC4/USBFS_episr.c ****             uint32 nextAddr;
1256:.\Generated_Source\PSoC4/USBFS_episr.c **** 
1257:.\Generated_Source\PSoC4/USBFS_episr.c ****             /* Manage data elements which remain to transfer. */
1258:.\Generated_Source\PSoC4/USBFS_episr.c ****             if (0u != USBFS_DmaEpBurstCnt[USBFS_EP6])
 1140              		.loc 1 1258 0
 1141 0000 214B     		ldr	r3, .L77
 1142 0002 9B79     		ldrb	r3, [r3, #6]
 1143 0004 002B     		cmp	r3, #0
 1144 0006 03D0     		beq	.L73
1259:.\Generated_Source\PSoC4/USBFS_episr.c ****             {
1260:.\Generated_Source\PSoC4/USBFS_episr.c ****                 /* Decrement burst counter. */
1261:.\Generated_Source\PSoC4/USBFS_episr.c ****                 --USBFS_DmaEpBurstCnt[USBFS_EP6];
 1145              		.loc 1 1261 0
 1146 0008 013B     		sub	r3, r3, #1
 1147 000a 1F4A     		ldr	r2, .L77
 1148 000c 9371     		strb	r3, [r2, #6]
 1149 000e 0FE0     		b	.L74
 1150              	.L73:
1262:.\Generated_Source\PSoC4/USBFS_episr.c ****             }
1263:.\Generated_Source\PSoC4/USBFS_episr.c ****             else
1264:.\Generated_Source\PSoC4/USBFS_episr.c ****             {
ARM GAS  C:\Users\Terence\AppData\Local\Temp\cc65qyTh.s 			page 44


1265:.\Generated_Source\PSoC4/USBFS_episr.c ****                 /* Adjust length of last burst. */
1266:.\Generated_Source\PSoC4/USBFS_episr.c ****                 USBFS_CyDmaSetNumDataElements(USBFS_EP6_DMA_CH,
 1151              		.loc 1 1266 0
 1152 0010 1E4B     		ldr	r3, .L77+4
 1153 0012 9A79     		ldrb	r2, [r3, #6]
 1154 0014 D309     		lsr	r3, r2, #7
 1155 0016 1B01     		lsl	r3, r3, #4
 1156 0018 1D49     		ldr	r1, .L77+8
 1157 001a 8C46     		mov	ip, r1
 1158 001c 6344     		add	r3, r3, ip
 1159 001e 8933     		add	r3, r3, #137
 1160 0020 FF33     		add	r3, r3, #255
 1161 0022 1968     		ldr	r1, [r3]
 1162 0024 090C     		lsr	r1, r1, #16
 1163 0026 0904     		lsl	r1, r1, #16
 1164 0028 1F20     		mov	r0, #31
 1165 002a 0240     		and	r2, r0
 1166 002c 0A43     		orr	r2, r1
 1167 002e 1A60     		str	r2, [r3]
 1168              	.L74:
1267:.\Generated_Source\PSoC4/USBFS_episr.c ****                                                         ((uint32) USBFS_DmaEpLastBurstEl[USBFS_EP6]
1268:.\Generated_Source\PSoC4/USBFS_episr.c ****                                                         ((uint32) USBFS_DmaEpLastBurstEl[USBFS_EP6]
1269:.\Generated_Source\PSoC4/USBFS_episr.c ****             }
1270:.\Generated_Source\PSoC4/USBFS_episr.c **** 
1271:.\Generated_Source\PSoC4/USBFS_episr.c ****             /* Advance source for input endpoint or destination for output endpoint. */
1272:.\Generated_Source\PSoC4/USBFS_episr.c ****             if (0u != (USBFS_EP[USBFS_EP6].addr & USBFS_DIR_IN))
 1169              		.loc 1 1272 0
 1170 0030 4C23     		mov	r3, #76
 1171 0032 184A     		ldr	r2, .L77+12
 1172 0034 D35C     		ldrb	r3, [r2, r3]
 1173 0036 5BB2     		sxtb	r3, r3
 1174 0038 002B     		cmp	r3, #0
 1175 003a 0ADA     		bge	.L75
1273:.\Generated_Source\PSoC4/USBFS_episr.c ****             {
1274:.\Generated_Source\PSoC4/USBFS_episr.c ****                 /* Change source for descriptor 0. */
1275:.\Generated_Source\PSoC4/USBFS_episr.c ****                 nextAddr = (uint32) USBFS_CyDmaGetSrcAddress(USBFS_EP6_DMA_CH, USBFS_DMA_DESCR0);
 1176              		.loc 1 1275 0
 1177 003c 144A     		ldr	r2, .L77+8
 1178 003e C021     		mov	r1, #192
 1179 0040 4900     		lsl	r1, r1, #1
 1180 0042 5358     		ldr	r3, [r2, r1]
 1181              	.LVL47:
1276:.\Generated_Source\PSoC4/USBFS_episr.c ****                 nextAddr += (2u * USBFS_DMA_BYTES_PER_BURST);
 1182              		.loc 1 1276 0
 1183 0044 181C     		mov	r0, r3
 1184 0046 4030     		add	r0, r0, #64
 1185              	.LVL48:
1277:.\Generated_Source\PSoC4/USBFS_episr.c ****                 USBFS_CyDmaSetSrcAddress(USBFS_EP6_DMA_CH, USBFS_DMA_DESCR0, (void *) nextAddr);
 1186              		.loc 1 1277 0
 1187 0048 5050     		str	r0, [r2, r1]
1278:.\Generated_Source\PSoC4/USBFS_episr.c **** 
1279:.\Generated_Source\PSoC4/USBFS_episr.c ****                 /* Change source for descriptor 1. */
1280:.\Generated_Source\PSoC4/USBFS_episr.c ****                 nextAddr += USBFS_DMA_BYTES_PER_BURST;
 1188              		.loc 1 1280 0
 1189 004a 6033     		add	r3, r3, #96
 1190              	.LVL49:
1281:.\Generated_Source\PSoC4/USBFS_episr.c ****                 USBFS_CyDmaSetSrcAddress(USBFS_EP6_DMA_CH, USBFS_DMA_DESCR1, (void *) nextAddr);
ARM GAS  C:\Users\Terence\AppData\Local\Temp\cc65qyTh.s 			page 45


 1191              		.loc 1 1281 0
 1192 004c 1031     		add	r1, r1, #16
 1193 004e 5350     		str	r3, [r2, r1]
 1194 0050 09E0     		b	.L76
 1195              	.LVL50:
 1196              	.L75:
1282:.\Generated_Source\PSoC4/USBFS_episr.c ****             }
1283:.\Generated_Source\PSoC4/USBFS_episr.c ****             else
1284:.\Generated_Source\PSoC4/USBFS_episr.c ****             {
1285:.\Generated_Source\PSoC4/USBFS_episr.c ****                 /* Change destination for descriptor 0. */
1286:.\Generated_Source\PSoC4/USBFS_episr.c ****                 nextAddr  = (uint32) USBFS_CyDmaGetDstAddress(USBFS_EP6_DMA_CH, USBFS_DMA_DESCR0);
 1197              		.loc 1 1286 0
 1198 0052 0F4A     		ldr	r2, .L77+8
 1199 0054 C221     		mov	r1, #194
 1200 0056 4900     		lsl	r1, r1, #1
 1201 0058 5358     		ldr	r3, [r2, r1]
 1202              	.LVL51:
1287:.\Generated_Source\PSoC4/USBFS_episr.c ****                 nextAddr += (2u * USBFS_DMA_BYTES_PER_BURST);
 1203              		.loc 1 1287 0
 1204 005a 181C     		mov	r0, r3
 1205 005c 4030     		add	r0, r0, #64
 1206              	.LVL52:
1288:.\Generated_Source\PSoC4/USBFS_episr.c ****                 USBFS_CyDmaSetDstAddress(USBFS_EP6_DMA_CH, USBFS_DMA_DESCR0, (void *) nextAddr);
 1207              		.loc 1 1288 0
 1208 005e 5050     		str	r0, [r2, r1]
1289:.\Generated_Source\PSoC4/USBFS_episr.c **** 
1290:.\Generated_Source\PSoC4/USBFS_episr.c ****                 /* Change destination for descriptor 1. */
1291:.\Generated_Source\PSoC4/USBFS_episr.c ****                 nextAddr += USBFS_DMA_BYTES_PER_BURST;
 1209              		.loc 1 1291 0
 1210 0060 6033     		add	r3, r3, #96
 1211              	.LVL53:
1292:.\Generated_Source\PSoC4/USBFS_episr.c ****                 USBFS_CyDmaSetDstAddress(USBFS_EP6_DMA_CH, USBFS_DMA_DESCR1, (void *) nextAddr);
 1212              		.loc 1 1292 0
 1213 0062 1031     		add	r1, r1, #16
 1214 0064 5350     		str	r3, [r2, r1]
 1215              	.L76:
1293:.\Generated_Source\PSoC4/USBFS_episr.c ****             }
1294:.\Generated_Source\PSoC4/USBFS_episr.c **** 
1295:.\Generated_Source\PSoC4/USBFS_episr.c ****             /* Enable the DMA to execute transfer as it was disabled because there were no valid de
1296:.\Generated_Source\PSoC4/USBFS_episr.c ****             USBFS_CyDmaValidateDescriptor(USBFS_EP6_DMA_CH, USBFS_DMA_DESCR0);
 1216              		.loc 1 1296 0
 1217 0066 8021     		mov	r1, #128
 1218 0068 0906     		lsl	r1, r1, #24
 1219 006a C623     		mov	r3, #198
 1220              	.LVL54:
 1221 006c 5B00     		lsl	r3, r3, #1
 1222 006e 084A     		ldr	r2, .L77+8
 1223 0070 D150     		str	r1, [r2, r3]
1297:.\Generated_Source\PSoC4/USBFS_episr.c ****             USBFS_CyDmaChEnable (USBFS_EP6_DMA_CH);
 1224              		.loc 1 1297 0
 1225 0072 094A     		ldr	r2, .L77+16
 1226 0074 136B     		ldr	r3, [r2, #48]
 1227 0076 0B43     		orr	r3, r1
 1228 0078 1363     		str	r3, [r2, #48]
1298:.\Generated_Source\PSoC4/USBFS_episr.c ****             USBFS_CyDmaTriggerIn(USBFS_DmaReqOut[USBFS_EP6]);
 1229              		.loc 1 1298 0
 1230 007a 084B     		ldr	r3, .L77+20
ARM GAS  C:\Users\Terence\AppData\Local\Temp\cc65qyTh.s 			page 46


 1231 007c 9B79     		ldrb	r3, [r3, #6]
 1232 007e 084A     		ldr	r2, .L77+24
 1233 0080 1343     		orr	r3, r2
 1234 0082 084A     		ldr	r2, .L77+28
 1235 0084 1360     		str	r3, [r2]
1299:.\Generated_Source\PSoC4/USBFS_episr.c ****         }
 1236              		.loc 1 1299 0
 1237              		@ sp needed
 1238 0086 7047     		bx	lr
 1239              	.L78:
 1240              		.align	2
 1241              	.L77:
 1242 0088 00000000 		.word	USBFS_DmaEpBurstCnt
 1243 008c 00000000 		.word	USBFS_DmaEpLastBurstEl
 1244 0090 00181040 		.word	1074796544
 1245 0094 00000000 		.word	USBFS_EP
 1246 0098 80101040 		.word	1074794624
 1247 009c 00000000 		.word	USBFS_DmaReqOut
 1248 00a0 000102C0 		.word	-1073610496
 1249 00a4 00060140 		.word	1073808896
 1250              		.cfi_endproc
 1251              	.LFE174:
 1252              		.size	USBFS_EP6_DMA_DONE_ISR, .-USBFS_EP6_DMA_DONE_ISR
 1253              		.section	.text.USBFS_INTR_HI_ISR,"ax",%progbits
 1254              		.align	2
 1255              		.global	USBFS_INTR_HI_ISR
 1256              		.code	16
 1257              		.thumb_func
 1258              		.type	USBFS_INTR_HI_ISR, %function
 1259              	USBFS_INTR_HI_ISR:
 1260              	.LFB176:
1300:.\Generated_Source\PSoC4/USBFS_episr.c ****     #endif /* (USBFS_DMA6_ACTIVE) */
1301:.\Generated_Source\PSoC4/USBFS_episr.c **** 
1302:.\Generated_Source\PSoC4/USBFS_episr.c **** 
1303:.\Generated_Source\PSoC4/USBFS_episr.c ****     #if (USBFS_DMA7_ACTIVE)
1304:.\Generated_Source\PSoC4/USBFS_episr.c ****         /******************************************************************************
1305:.\Generated_Source\PSoC4/USBFS_episr.c ****         * Function Name: USBFS_EP7_DMA_DONE_ISR
1306:.\Generated_Source\PSoC4/USBFS_episr.c ****         ***************************************************************************//**
1307:.\Generated_Source\PSoC4/USBFS_episr.c ****         *
1308:.\Generated_Source\PSoC4/USBFS_episr.c ****         *  Endpoint 7 DMA Done Interrupt Service Routine.
1309:.\Generated_Source\PSoC4/USBFS_episr.c ****         *
1310:.\Generated_Source\PSoC4/USBFS_episr.c ****         *
1311:.\Generated_Source\PSoC4/USBFS_episr.c ****         ******************************************************************************/
1312:.\Generated_Source\PSoC4/USBFS_episr.c ****         void USBFS_EP7_DMA_DONE_ISR(void)
1313:.\Generated_Source\PSoC4/USBFS_episr.c ****         {
1314:.\Generated_Source\PSoC4/USBFS_episr.c ****             uint32 nextAddr;
1315:.\Generated_Source\PSoC4/USBFS_episr.c **** 
1316:.\Generated_Source\PSoC4/USBFS_episr.c ****             /* Manage data elements which remain to transfer. */
1317:.\Generated_Source\PSoC4/USBFS_episr.c ****             if (0u != USBFS_DmaEpBurstCnt[USBFS_EP7])
1318:.\Generated_Source\PSoC4/USBFS_episr.c ****             {
1319:.\Generated_Source\PSoC4/USBFS_episr.c ****                 /* Decrement burst counter. */
1320:.\Generated_Source\PSoC4/USBFS_episr.c ****                 --USBFS_DmaEpBurstCnt[USBFS_EP7];
1321:.\Generated_Source\PSoC4/USBFS_episr.c ****             }
1322:.\Generated_Source\PSoC4/USBFS_episr.c ****             else
1323:.\Generated_Source\PSoC4/USBFS_episr.c ****             {
1324:.\Generated_Source\PSoC4/USBFS_episr.c ****                 /* Adjust length of last burst. */
1325:.\Generated_Source\PSoC4/USBFS_episr.c ****                 USBFS_CyDmaSetNumDataElements(USBFS_EP7_DMA_CH,
ARM GAS  C:\Users\Terence\AppData\Local\Temp\cc65qyTh.s 			page 47


1326:.\Generated_Source\PSoC4/USBFS_episr.c ****                                                         ((uint32) USBFS_DmaEpLastBurstEl[USBFS_EP7]
1327:.\Generated_Source\PSoC4/USBFS_episr.c ****                                                         ((uint32) USBFS_DmaEpLastBurstEl[USBFS_EP7]
1328:.\Generated_Source\PSoC4/USBFS_episr.c ****             }
1329:.\Generated_Source\PSoC4/USBFS_episr.c **** 
1330:.\Generated_Source\PSoC4/USBFS_episr.c ****             /* Advance source for input endpoint or destination for output endpoint. */
1331:.\Generated_Source\PSoC4/USBFS_episr.c ****             if (0u != (USBFS_EP[USBFS_EP7].addr & USBFS_DIR_IN))
1332:.\Generated_Source\PSoC4/USBFS_episr.c ****             {
1333:.\Generated_Source\PSoC4/USBFS_episr.c ****                 /* Change source for descriptor 0. */
1334:.\Generated_Source\PSoC4/USBFS_episr.c ****                 nextAddr = (uint32) USBFS_CyDmaGetSrcAddress(USBFS_EP7_DMA_CH, USBFS_DMA_DESCR0);
1335:.\Generated_Source\PSoC4/USBFS_episr.c ****                 nextAddr += (2u * USBFS_DMA_BYTES_PER_BURST);
1336:.\Generated_Source\PSoC4/USBFS_episr.c ****                 USBFS_CyDmaSetSrcAddress(USBFS_EP7_DMA_CH, USBFS_DMA_DESCR0, (void *) nextAddr);
1337:.\Generated_Source\PSoC4/USBFS_episr.c **** 
1338:.\Generated_Source\PSoC4/USBFS_episr.c ****                 /* Change source for descriptor 1. */
1339:.\Generated_Source\PSoC4/USBFS_episr.c ****                 nextAddr += USBFS_DMA_BYTES_PER_BURST;
1340:.\Generated_Source\PSoC4/USBFS_episr.c ****                 USBFS_CyDmaSetSrcAddress(USBFS_EP7_DMA_CH, USBFS_DMA_DESCR1, (void *) nextAddr);
1341:.\Generated_Source\PSoC4/USBFS_episr.c ****             }
1342:.\Generated_Source\PSoC4/USBFS_episr.c ****             else
1343:.\Generated_Source\PSoC4/USBFS_episr.c ****             {
1344:.\Generated_Source\PSoC4/USBFS_episr.c ****                 /* Change destination for descriptor 0. */
1345:.\Generated_Source\PSoC4/USBFS_episr.c ****                 nextAddr  = (uint32) USBFS_CyDmaGetDstAddress(USBFS_EP7_DMA_CH, USBFS_DMA_DESCR0);
1346:.\Generated_Source\PSoC4/USBFS_episr.c ****                 nextAddr += (2u * USBFS_DMA_BYTES_PER_BURST);
1347:.\Generated_Source\PSoC4/USBFS_episr.c ****                 USBFS_CyDmaSetDstAddress(USBFS_EP7_DMA_CH, USBFS_DMA_DESCR0, (void *) nextAddr);
1348:.\Generated_Source\PSoC4/USBFS_episr.c **** 
1349:.\Generated_Source\PSoC4/USBFS_episr.c ****                 /* Change destination for descriptor 1. */
1350:.\Generated_Source\PSoC4/USBFS_episr.c ****                 nextAddr += USBFS_DMA_BYTES_PER_BURST;
1351:.\Generated_Source\PSoC4/USBFS_episr.c ****                 USBFS_CyDmaSetDstAddress(USBFS_EP7_DMA_CH, USBFS_DMA_DESCR1, (void *) nextAddr);
1352:.\Generated_Source\PSoC4/USBFS_episr.c ****             }
1353:.\Generated_Source\PSoC4/USBFS_episr.c **** 
1354:.\Generated_Source\PSoC4/USBFS_episr.c ****             /* Enable DMA to execute transfer as it was disabled because there were no valid descri
1355:.\Generated_Source\PSoC4/USBFS_episr.c ****             USBFS_CyDmaValidateDescriptor(USBFS_EP7_DMA_CH, USBFS_DMA_DESCR0);
1356:.\Generated_Source\PSoC4/USBFS_episr.c ****             USBFS_CyDmaChEnable (USBFS_EP7_DMA_CH);
1357:.\Generated_Source\PSoC4/USBFS_episr.c ****             USBFS_CyDmaTriggerIn(USBFS_DmaReqOut[USBFS_EP7]);
1358:.\Generated_Source\PSoC4/USBFS_episr.c ****         }
1359:.\Generated_Source\PSoC4/USBFS_episr.c ****     #endif /* (USBFS_DMA7_ACTIVE) */
1360:.\Generated_Source\PSoC4/USBFS_episr.c **** 
1361:.\Generated_Source\PSoC4/USBFS_episr.c **** 
1362:.\Generated_Source\PSoC4/USBFS_episr.c ****     #if (USBFS_DMA8_ACTIVE)
1363:.\Generated_Source\PSoC4/USBFS_episr.c ****         /******************************************************************************
1364:.\Generated_Source\PSoC4/USBFS_episr.c ****         * Function Name: USBFS_EP8_DMA_DONE_ISR
1365:.\Generated_Source\PSoC4/USBFS_episr.c ****         ***************************************************************************//**
1366:.\Generated_Source\PSoC4/USBFS_episr.c ****         *
1367:.\Generated_Source\PSoC4/USBFS_episr.c ****         *  Endpoint 8 DMA Done Interrupt Service Routine.
1368:.\Generated_Source\PSoC4/USBFS_episr.c ****         *
1369:.\Generated_Source\PSoC4/USBFS_episr.c ****         *
1370:.\Generated_Source\PSoC4/USBFS_episr.c ****         ******************************************************************************/
1371:.\Generated_Source\PSoC4/USBFS_episr.c ****         void USBFS_EP8_DMA_DONE_ISR(void)
1372:.\Generated_Source\PSoC4/USBFS_episr.c ****         {
1373:.\Generated_Source\PSoC4/USBFS_episr.c ****             uint32 nextAddr;
1374:.\Generated_Source\PSoC4/USBFS_episr.c **** 
1375:.\Generated_Source\PSoC4/USBFS_episr.c ****             /* Manage data elements which remain to transfer. */
1376:.\Generated_Source\PSoC4/USBFS_episr.c ****             if (0u != USBFS_DmaEpBurstCnt[USBFS_EP8])
1377:.\Generated_Source\PSoC4/USBFS_episr.c ****             {
1378:.\Generated_Source\PSoC4/USBFS_episr.c ****                 /* Decrement burst counter. */
1379:.\Generated_Source\PSoC4/USBFS_episr.c ****                 --USBFS_DmaEpBurstCnt[USBFS_EP8];
1380:.\Generated_Source\PSoC4/USBFS_episr.c ****             }
1381:.\Generated_Source\PSoC4/USBFS_episr.c ****             else
1382:.\Generated_Source\PSoC4/USBFS_episr.c ****             {
ARM GAS  C:\Users\Terence\AppData\Local\Temp\cc65qyTh.s 			page 48


1383:.\Generated_Source\PSoC4/USBFS_episr.c ****                 /* Adjust length of last burst. */
1384:.\Generated_Source\PSoC4/USBFS_episr.c ****                 USBFS_CyDmaSetNumDataElements(USBFS_EP8_DMA_CH,
1385:.\Generated_Source\PSoC4/USBFS_episr.c ****                                                         ((uint32) USBFS_DmaEpLastBurstEl[USBFS_EP8]
1386:.\Generated_Source\PSoC4/USBFS_episr.c ****                                                         ((uint32) USBFS_DmaEpLastBurstEl[USBFS_EP8]
1387:.\Generated_Source\PSoC4/USBFS_episr.c ****             }
1388:.\Generated_Source\PSoC4/USBFS_episr.c **** 
1389:.\Generated_Source\PSoC4/USBFS_episr.c ****             /* Advance source for input endpoint or destination for output endpoint. */
1390:.\Generated_Source\PSoC4/USBFS_episr.c ****             if (0u != (USBFS_EP[USBFS_EP8].addr & USBFS_DIR_IN))
1391:.\Generated_Source\PSoC4/USBFS_episr.c ****             {
1392:.\Generated_Source\PSoC4/USBFS_episr.c ****                 /* Change source for descriptor 0. */
1393:.\Generated_Source\PSoC4/USBFS_episr.c ****                 nextAddr = (uint32) USBFS_CyDmaGetSrcAddress(USBFS_EP8_DMA_CH, USBFS_DMA_DESCR0);
1394:.\Generated_Source\PSoC4/USBFS_episr.c ****                 nextAddr += (2u * USBFS_DMA_BYTES_PER_BURST);
1395:.\Generated_Source\PSoC4/USBFS_episr.c ****                 USBFS_CyDmaSetSrcAddress(USBFS_EP8_DMA_CH, USBFS_DMA_DESCR0, (void *) nextAddr);
1396:.\Generated_Source\PSoC4/USBFS_episr.c **** 
1397:.\Generated_Source\PSoC4/USBFS_episr.c ****                 /* Change source for descriptor 1. */
1398:.\Generated_Source\PSoC4/USBFS_episr.c ****                 nextAddr += USBFS_DMA_BYTES_PER_BURST;
1399:.\Generated_Source\PSoC4/USBFS_episr.c ****                 USBFS_CyDmaSetSrcAddress(USBFS_EP8_DMA_CH, USBFS_DMA_DESCR1, (void *) nextAddr);
1400:.\Generated_Source\PSoC4/USBFS_episr.c ****             }
1401:.\Generated_Source\PSoC4/USBFS_episr.c ****             else
1402:.\Generated_Source\PSoC4/USBFS_episr.c ****             {
1403:.\Generated_Source\PSoC4/USBFS_episr.c ****                 /* Change destination for descriptor 0. */
1404:.\Generated_Source\PSoC4/USBFS_episr.c ****                 nextAddr  = (uint32) USBFS_CyDmaGetDstAddress(USBFS_EP8_DMA_CH, USBFS_DMA_DESCR0);
1405:.\Generated_Source\PSoC4/USBFS_episr.c ****                 nextAddr += (2u * USBFS_DMA_BYTES_PER_BURST);
1406:.\Generated_Source\PSoC4/USBFS_episr.c ****                 USBFS_CyDmaSetDstAddress(USBFS_EP8_DMA_CH, USBFS_DMA_DESCR0, (void *) nextAddr);
1407:.\Generated_Source\PSoC4/USBFS_episr.c **** 
1408:.\Generated_Source\PSoC4/USBFS_episr.c ****                 /* Change destination for descriptor 1. */
1409:.\Generated_Source\PSoC4/USBFS_episr.c ****                 nextAddr += USBFS_DMA_BYTES_PER_BURST;
1410:.\Generated_Source\PSoC4/USBFS_episr.c ****                 USBFS_CyDmaSetDstAddress(USBFS_EP8_DMA_CH, USBFS_DMA_DESCR1, (void *) nextAddr);
1411:.\Generated_Source\PSoC4/USBFS_episr.c ****             }
1412:.\Generated_Source\PSoC4/USBFS_episr.c **** 
1413:.\Generated_Source\PSoC4/USBFS_episr.c ****             /* Enable DMA to execute transfer as it was disabled because there were no valid descri
1414:.\Generated_Source\PSoC4/USBFS_episr.c ****             USBFS_CyDmaValidateDescriptor(USBFS_EP8_DMA_CH, USBFS_DMA_DESCR0);
1415:.\Generated_Source\PSoC4/USBFS_episr.c ****             USBFS_CyDmaChEnable (USBFS_EP8_DMA_CH);
1416:.\Generated_Source\PSoC4/USBFS_episr.c ****             USBFS_CyDmaTriggerIn(USBFS_DmaReqOut[USBFS_EP8]);
1417:.\Generated_Source\PSoC4/USBFS_episr.c ****         }
1418:.\Generated_Source\PSoC4/USBFS_episr.c ****     #endif /* (USBFS_DMA8_ACTIVE) */
1419:.\Generated_Source\PSoC4/USBFS_episr.c **** 
1420:.\Generated_Source\PSoC4/USBFS_episr.c **** #else
1421:.\Generated_Source\PSoC4/USBFS_episr.c ****     #if (USBFS_EP_DMA_AUTO_OPT == 0u)
1422:.\Generated_Source\PSoC4/USBFS_episr.c ****         /******************************************************************************
1423:.\Generated_Source\PSoC4/USBFS_episr.c ****         * Function Name: USBFS_EP_DMA_DONE_ISR
1424:.\Generated_Source\PSoC4/USBFS_episr.c ****         ***************************************************************************//**
1425:.\Generated_Source\PSoC4/USBFS_episr.c ****         *
1426:.\Generated_Source\PSoC4/USBFS_episr.c ****         *  DMA Done Interrupt Service Routine.
1427:.\Generated_Source\PSoC4/USBFS_episr.c ****         *
1428:.\Generated_Source\PSoC4/USBFS_episr.c ****         *
1429:.\Generated_Source\PSoC4/USBFS_episr.c ****         ******************************************************************************/
1430:.\Generated_Source\PSoC4/USBFS_episr.c ****         CY_ISR(USBFS_EP_DMA_DONE_ISR)
1431:.\Generated_Source\PSoC4/USBFS_episr.c ****         {
1432:.\Generated_Source\PSoC4/USBFS_episr.c ****             uint8 int8Status;
1433:.\Generated_Source\PSoC4/USBFS_episr.c ****             uint8 int17Status;
1434:.\Generated_Source\PSoC4/USBFS_episr.c ****             uint8 ep_status;
1435:.\Generated_Source\PSoC4/USBFS_episr.c ****             uint8 ep = USBFS_EP1;
1436:.\Generated_Source\PSoC4/USBFS_episr.c **** 
1437:.\Generated_Source\PSoC4/USBFS_episr.c ****         #ifdef USBFS_EP_DMA_DONE_ISR_ENTRY_CALLBACK
1438:.\Generated_Source\PSoC4/USBFS_episr.c ****             USBFS_EP_DMA_DONE_ISR_EntryCallback();
1439:.\Generated_Source\PSoC4/USBFS_episr.c ****         #endif /* (USBFS_EP_DMA_DONE_ISR_ENTRY_CALLBACK) */
ARM GAS  C:\Users\Terence\AppData\Local\Temp\cc65qyTh.s 			page 49


1440:.\Generated_Source\PSoC4/USBFS_episr.c **** 
1441:.\Generated_Source\PSoC4/USBFS_episr.c ****             /* `#START EP_DMA_DONE_BEGIN_USER_CODE` Place your code here */
1442:.\Generated_Source\PSoC4/USBFS_episr.c **** 
1443:.\Generated_Source\PSoC4/USBFS_episr.c ****             /* `#END` */
1444:.\Generated_Source\PSoC4/USBFS_episr.c **** 
1445:.\Generated_Source\PSoC4/USBFS_episr.c ****             /* Read clear on read status register with EP source of interrupt. */
1446:.\Generated_Source\PSoC4/USBFS_episr.c ****             int17Status = USBFS_EP17_DMA_Done_SR_Read() & USBFS_EP17_SR_MASK;
1447:.\Generated_Source\PSoC4/USBFS_episr.c ****             int8Status  = USBFS_EP8_DMA_Done_SR_Read()  & USBFS_EP8_SR_MASK;
1448:.\Generated_Source\PSoC4/USBFS_episr.c **** 
1449:.\Generated_Source\PSoC4/USBFS_episr.c ****             while (int8Status != 0u)
1450:.\Generated_Source\PSoC4/USBFS_episr.c ****             {
1451:.\Generated_Source\PSoC4/USBFS_episr.c ****                 while (int17Status != 0u)
1452:.\Generated_Source\PSoC4/USBFS_episr.c ****                 {
1453:.\Generated_Source\PSoC4/USBFS_episr.c ****                     if ((int17Status & 1u) != 0u)  /* If EpX interrupt present. */
1454:.\Generated_Source\PSoC4/USBFS_episr.c ****                     {
1455:.\Generated_Source\PSoC4/USBFS_episr.c ****                         /* Read Endpoint Status Register. */
1456:.\Generated_Source\PSoC4/USBFS_episr.c ****                         ep_status = USBFS_ARB_EP_BASE.arbEp[ep].epSr;
1457:.\Generated_Source\PSoC4/USBFS_episr.c **** 
1458:.\Generated_Source\PSoC4/USBFS_episr.c ****                         if ((0u == (ep_status & USBFS_ARB_EPX_SR_IN_BUF_FULL)) &&
1459:.\Generated_Source\PSoC4/USBFS_episr.c ****                             (0u ==USBFS_inBufFull[ep]))
1460:.\Generated_Source\PSoC4/USBFS_episr.c ****                         {
1461:.\Generated_Source\PSoC4/USBFS_episr.c ****                             /* `#START EP_DMA_DONE_USER_CODE` Place your code here */
1462:.\Generated_Source\PSoC4/USBFS_episr.c **** 
1463:.\Generated_Source\PSoC4/USBFS_episr.c ****                             /* `#END` */
1464:.\Generated_Source\PSoC4/USBFS_episr.c **** 
1465:.\Generated_Source\PSoC4/USBFS_episr.c ****                         #ifdef USBFS_EP_DMA_DONE_ISR_CALLBACK
1466:.\Generated_Source\PSoC4/USBFS_episr.c ****                             USBFS_EP_DMA_DONE_ISR_Callback();
1467:.\Generated_Source\PSoC4/USBFS_episr.c ****                         #endif /* (USBFS_EP_DMA_DONE_ISR_CALLBACK) */
1468:.\Generated_Source\PSoC4/USBFS_episr.c **** 
1469:.\Generated_Source\PSoC4/USBFS_episr.c ****                             /* Transfer again 2 last bytes into pre-fetch endpoint area. */
1470:.\Generated_Source\PSoC4/USBFS_episr.c ****                             USBFS_ARB_EP_BASE.arbEp[ep].rwWaMsb = 0u;
1471:.\Generated_Source\PSoC4/USBFS_episr.c ****                             USBFS_ARB_EP_BASE.arbEp[ep].rwWa = (USBFS_DMA_BYTES_PER_BURST * ep) - U
1472:.\Generated_Source\PSoC4/USBFS_episr.c ****                             USBFS_LoadNextInEP(ep, 1u);
1473:.\Generated_Source\PSoC4/USBFS_episr.c **** 
1474:.\Generated_Source\PSoC4/USBFS_episr.c ****                             /* Set Data ready status to generate DMA request. */
1475:.\Generated_Source\PSoC4/USBFS_episr.c ****                             USBFS_ARB_EP_BASE.arbEp[ep].epCfg |= USBFS_ARB_EPX_CFG_IN_DATA_RDY;
1476:.\Generated_Source\PSoC4/USBFS_episr.c ****                         }
1477:.\Generated_Source\PSoC4/USBFS_episr.c ****                     }
1478:.\Generated_Source\PSoC4/USBFS_episr.c **** 
1479:.\Generated_Source\PSoC4/USBFS_episr.c ****                     ep++;
1480:.\Generated_Source\PSoC4/USBFS_episr.c ****                     int17Status >>= 1u;
1481:.\Generated_Source\PSoC4/USBFS_episr.c ****                 }
1482:.\Generated_Source\PSoC4/USBFS_episr.c **** 
1483:.\Generated_Source\PSoC4/USBFS_episr.c ****                 int8Status >>= 1u;
1484:.\Generated_Source\PSoC4/USBFS_episr.c **** 
1485:.\Generated_Source\PSoC4/USBFS_episr.c ****                 if (int8Status != 0u)
1486:.\Generated_Source\PSoC4/USBFS_episr.c ****                 {
1487:.\Generated_Source\PSoC4/USBFS_episr.c ****                     /* Prepare pointer for EP8. */
1488:.\Generated_Source\PSoC4/USBFS_episr.c ****                     ep = USBFS_EP8;
1489:.\Generated_Source\PSoC4/USBFS_episr.c ****                     int17Status = int8Status & 0x01u;
1490:.\Generated_Source\PSoC4/USBFS_episr.c ****                 }
1491:.\Generated_Source\PSoC4/USBFS_episr.c ****             }
1492:.\Generated_Source\PSoC4/USBFS_episr.c **** 
1493:.\Generated_Source\PSoC4/USBFS_episr.c ****             /* `#START EP_DMA_DONE_END_USER_CODE` Place your code here */
1494:.\Generated_Source\PSoC4/USBFS_episr.c **** 
1495:.\Generated_Source\PSoC4/USBFS_episr.c ****             /* `#END` */
1496:.\Generated_Source\PSoC4/USBFS_episr.c **** 
ARM GAS  C:\Users\Terence\AppData\Local\Temp\cc65qyTh.s 			page 50


1497:.\Generated_Source\PSoC4/USBFS_episr.c ****     #ifdef USBFS_EP_DMA_DONE_ISR_EXIT_CALLBACK
1498:.\Generated_Source\PSoC4/USBFS_episr.c ****         USBFS_EP_DMA_DONE_ISR_ExitCallback();
1499:.\Generated_Source\PSoC4/USBFS_episr.c ****     #endif /* (USBFS_EP_DMA_DONE_ISR_EXIT_CALLBACK) */
1500:.\Generated_Source\PSoC4/USBFS_episr.c ****         }
1501:.\Generated_Source\PSoC4/USBFS_episr.c ****     #endif /* (USBFS_EP_DMA_AUTO_OPT == 0u) */
1502:.\Generated_Source\PSoC4/USBFS_episr.c **** #endif /* (CY_PSOC4) */
1503:.\Generated_Source\PSoC4/USBFS_episr.c **** #endif /* (USBFS_EP_MANAGEMENT_DMA_AUTO) */
1504:.\Generated_Source\PSoC4/USBFS_episr.c **** 
1505:.\Generated_Source\PSoC4/USBFS_episr.c **** 
1506:.\Generated_Source\PSoC4/USBFS_episr.c **** #if (CY_PSOC4)
1507:.\Generated_Source\PSoC4/USBFS_episr.c ****     /***************************************************************************
1508:.\Generated_Source\PSoC4/USBFS_episr.c ****     * Function Name: USBFS_IntrHandler
1509:.\Generated_Source\PSoC4/USBFS_episr.c ****     ************************************************************************//**
1510:.\Generated_Source\PSoC4/USBFS_episr.c ****     *
1511:.\Generated_Source\PSoC4/USBFS_episr.c ****     *   Interrupt handler for Hi/Mid/Low ISRs.
1512:.\Generated_Source\PSoC4/USBFS_episr.c ****     *
1513:.\Generated_Source\PSoC4/USBFS_episr.c ****     *  regCause - The cause register of interrupt. One of the three variants:
1514:.\Generated_Source\PSoC4/USBFS_episr.c ****     *       USBFS_INTR_CAUSE_LO_REG - Low interrupts.
1515:.\Generated_Source\PSoC4/USBFS_episr.c ****     *       USBFS_INTR_CAUSE_MED_REG - Med interrupts.
1516:.\Generated_Source\PSoC4/USBFS_episr.c ****     *       USBFS_INTR_CAUSE_HI_REG - - High interrupts.
1517:.\Generated_Source\PSoC4/USBFS_episr.c ****     *
1518:.\Generated_Source\PSoC4/USBFS_episr.c ****     *
1519:.\Generated_Source\PSoC4/USBFS_episr.c ****     ***************************************************************************/
1520:.\Generated_Source\PSoC4/USBFS_episr.c ****     CY_INLINE static void USBFS_IntrHandler(uint32 intrCause)
1521:.\Generated_Source\PSoC4/USBFS_episr.c ****     {
1522:.\Generated_Source\PSoC4/USBFS_episr.c ****         /* Array of pointers to component interrupt handlers. */
1523:.\Generated_Source\PSoC4/USBFS_episr.c ****         static const cyisraddress USBFS_isrCallbacks[] =
1524:.\Generated_Source\PSoC4/USBFS_episr.c ****         {
1525:.\Generated_Source\PSoC4/USBFS_episr.c ****             &USBFS_SOF_ISR,
1526:.\Generated_Source\PSoC4/USBFS_episr.c ****             &USBFS_BUS_RESET_ISR,
1527:.\Generated_Source\PSoC4/USBFS_episr.c ****             &USBFS_EP_0_ISR,
1528:.\Generated_Source\PSoC4/USBFS_episr.c ****             NULL,
1529:.\Generated_Source\PSoC4/USBFS_episr.c ****             &USBFS_ARB_ISR,
1530:.\Generated_Source\PSoC4/USBFS_episr.c ****             &USBFS_EP_1_ISR,
1531:.\Generated_Source\PSoC4/USBFS_episr.c ****             &USBFS_EP_2_ISR,
1532:.\Generated_Source\PSoC4/USBFS_episr.c ****             &USBFS_EP_3_ISR,
1533:.\Generated_Source\PSoC4/USBFS_episr.c ****             &USBFS_EP_4_ISR,
1534:.\Generated_Source\PSoC4/USBFS_episr.c ****             NULL,
1535:.\Generated_Source\PSoC4/USBFS_episr.c ****             &USBFS_EP_6_ISR,
1536:.\Generated_Source\PSoC4/USBFS_episr.c ****             NULL,
1537:.\Generated_Source\PSoC4/USBFS_episr.c ****             NULL,
1538:.\Generated_Source\PSoC4/USBFS_episr.c ****         };
1539:.\Generated_Source\PSoC4/USBFS_episr.c **** 
1540:.\Generated_Source\PSoC4/USBFS_episr.c ****         uint32 cbIdx = 0u;
1541:.\Generated_Source\PSoC4/USBFS_episr.c **** 
1542:.\Generated_Source\PSoC4/USBFS_episr.c ****         /* Check arbiter interrupt source first. */
1543:.\Generated_Source\PSoC4/USBFS_episr.c ****         if (0u != (intrCause & USBFS_INTR_CAUSE_ARB_INTR))
1544:.\Generated_Source\PSoC4/USBFS_episr.c ****         {
1545:.\Generated_Source\PSoC4/USBFS_episr.c ****             USBFS_isrCallbacks[USBFS_ARB_EP_INTR_NUM]();
1546:.\Generated_Source\PSoC4/USBFS_episr.c ****         }
1547:.\Generated_Source\PSoC4/USBFS_episr.c **** 
1548:.\Generated_Source\PSoC4/USBFS_episr.c ****         /* Check all other interrupt sources (except arbiter and resume). */
1549:.\Generated_Source\PSoC4/USBFS_episr.c ****         intrCause = (intrCause  & USBFS_INTR_CAUSE_CTRL_INTR_MASK) |
1550:.\Generated_Source\PSoC4/USBFS_episr.c ****                     ((intrCause & USBFS_INTR_CAUSE_EP1_8_INTR_MASK) >>
1551:.\Generated_Source\PSoC4/USBFS_episr.c ****                                   USBFS_INTR_CAUSE_EP_INTR_SHIFT);
1552:.\Generated_Source\PSoC4/USBFS_episr.c **** 
1553:.\Generated_Source\PSoC4/USBFS_episr.c ****         /* Call interrupt handlers for active interrupt sources. */
ARM GAS  C:\Users\Terence\AppData\Local\Temp\cc65qyTh.s 			page 51


1554:.\Generated_Source\PSoC4/USBFS_episr.c ****         while (0u != intrCause)
1555:.\Generated_Source\PSoC4/USBFS_episr.c ****         {
1556:.\Generated_Source\PSoC4/USBFS_episr.c ****             if (0u != (intrCause & 0x1u))
1557:.\Generated_Source\PSoC4/USBFS_episr.c ****             {
1558:.\Generated_Source\PSoC4/USBFS_episr.c ****                  USBFS_isrCallbacks[cbIdx]();
1559:.\Generated_Source\PSoC4/USBFS_episr.c ****             }
1560:.\Generated_Source\PSoC4/USBFS_episr.c **** 
1561:.\Generated_Source\PSoC4/USBFS_episr.c ****             intrCause >>= 1u;
1562:.\Generated_Source\PSoC4/USBFS_episr.c ****             ++cbIdx;
1563:.\Generated_Source\PSoC4/USBFS_episr.c ****         }
1564:.\Generated_Source\PSoC4/USBFS_episr.c ****     }
1565:.\Generated_Source\PSoC4/USBFS_episr.c **** 
1566:.\Generated_Source\PSoC4/USBFS_episr.c **** 
1567:.\Generated_Source\PSoC4/USBFS_episr.c ****     /***************************************************************************
1568:.\Generated_Source\PSoC4/USBFS_episr.c ****     * Function Name: USBFS_INTR_HI_ISR
1569:.\Generated_Source\PSoC4/USBFS_episr.c ****     ************************************************************************//**
1570:.\Generated_Source\PSoC4/USBFS_episr.c ****     *
1571:.\Generated_Source\PSoC4/USBFS_episr.c ****     *   Interrupt Service Routine for the high group of the interrupt sources.
1572:.\Generated_Source\PSoC4/USBFS_episr.c ****     *
1573:.\Generated_Source\PSoC4/USBFS_episr.c ****     *
1574:.\Generated_Source\PSoC4/USBFS_episr.c ****     ***************************************************************************/
1575:.\Generated_Source\PSoC4/USBFS_episr.c ****     CY_ISR(USBFS_INTR_HI_ISR)
1576:.\Generated_Source\PSoC4/USBFS_episr.c ****     {
 1261              		.loc 1 1576 0
 1262              		.cfi_startproc
 1263 0000 38B5     		push	{r3, r4, r5, lr}
 1264              		.cfi_def_cfa_offset 16
 1265              		.cfi_offset 3, -16
 1266              		.cfi_offset 4, -12
 1267              		.cfi_offset 5, -8
 1268              		.cfi_offset 14, -4
1577:.\Generated_Source\PSoC4/USBFS_episr.c ****         USBFS_IntrHandler(USBFS_INTR_CAUSE_HI_REG);
 1269              		.loc 1 1577 0
 1270 0002 0D4B     		ldr	r3, .L84
 1271 0004 1D68     		ldr	r5, [r3]
 1272              	.LVL55:
 1273              	.LBB5:
 1274              	.LBB6:
1543:.\Generated_Source\PSoC4/USBFS_episr.c ****         {
 1275              		.loc 1 1543 0
 1276 0006 2B06     		lsl	r3, r5, #24
 1277 0008 01D5     		bpl	.L80
1545:.\Generated_Source\PSoC4/USBFS_episr.c ****         }
 1278              		.loc 1 1545 0
 1279 000a FFF7FEFF 		bl	USBFS_ARB_ISR
 1280              	.LVL56:
 1281              	.L80:
1549:.\Generated_Source\PSoC4/USBFS_episr.c ****                     ((intrCause & USBFS_INTR_CAUSE_EP1_8_INTR_MASK) >>
 1282              		.loc 1 1549 0
 1283 000e 0F24     		mov	r4, #15
 1284 0010 2C40     		and	r4, r5
1550:.\Generated_Source\PSoC4/USBFS_episr.c ****                                   USBFS_INTR_CAUSE_EP_INTR_SHIFT);
 1285              		.loc 1 1550 0
 1286 0012 FF23     		mov	r3, #255
 1287 0014 1B02     		lsl	r3, r3, #8
 1288 0016 2B40     		and	r3, r5
 1289 0018 DB08     		lsr	r3, r3, #3
ARM GAS  C:\Users\Terence\AppData\Local\Temp\cc65qyTh.s 			page 52


1549:.\Generated_Source\PSoC4/USBFS_episr.c ****                     ((intrCause & USBFS_INTR_CAUSE_EP1_8_INTR_MASK) >>
 1290              		.loc 1 1549 0
 1291 001a 1C43     		orr	r4, r3
 1292              	.LVL57:
1540:.\Generated_Source\PSoC4/USBFS_episr.c **** 
 1293              		.loc 1 1540 0
 1294 001c 0025     		mov	r5, #0
 1295 001e 07E0     		b	.L81
 1296              	.LVL58:
 1297              	.L83:
1556:.\Generated_Source\PSoC4/USBFS_episr.c ****             {
 1298              		.loc 1 1556 0
 1299 0020 E307     		lsl	r3, r4, #31
 1300 0022 03D5     		bpl	.L82
1558:.\Generated_Source\PSoC4/USBFS_episr.c ****             }
 1301              		.loc 1 1558 0
 1302 0024 AB00     		lsl	r3, r5, #2
 1303 0026 054A     		ldr	r2, .L84+4
 1304 0028 9B58     		ldr	r3, [r3, r2]
 1305 002a 9847     		blx	r3
 1306              	.LVL59:
 1307              	.L82:
1561:.\Generated_Source\PSoC4/USBFS_episr.c ****             ++cbIdx;
 1308              		.loc 1 1561 0
 1309 002c 6408     		lsr	r4, r4, #1
 1310              	.LVL60:
1562:.\Generated_Source\PSoC4/USBFS_episr.c ****         }
 1311              		.loc 1 1562 0
 1312 002e 0135     		add	r5, r5, #1
 1313              	.LVL61:
 1314              	.L81:
1554:.\Generated_Source\PSoC4/USBFS_episr.c ****         {
 1315              		.loc 1 1554 0
 1316 0030 002C     		cmp	r4, #0
 1317 0032 F5D1     		bne	.L83
 1318              	.LBE6:
 1319              	.LBE5:
1578:.\Generated_Source\PSoC4/USBFS_episr.c ****     }
 1320              		.loc 1 1578 0
 1321              		@ sp needed
 1322              	.LVL62:
 1323              	.LVL63:
 1324 0034 38BD     		pop	{r3, r4, r5, pc}
 1325              	.L85:
 1326 0036 C046     		.align	2
 1327              	.L84:
 1328 0038 34202C40 		.word	1076633652
 1329 003c 00000000 		.word	.LANCHOR0
 1330              		.cfi_endproc
 1331              	.LFE176:
 1332              		.size	USBFS_INTR_HI_ISR, .-USBFS_INTR_HI_ISR
 1333              		.section	.text.USBFS_INTR_MED_ISR,"ax",%progbits
 1334              		.align	2
 1335              		.global	USBFS_INTR_MED_ISR
 1336              		.code	16
 1337              		.thumb_func
 1338              		.type	USBFS_INTR_MED_ISR, %function
ARM GAS  C:\Users\Terence\AppData\Local\Temp\cc65qyTh.s 			page 53


 1339              	USBFS_INTR_MED_ISR:
 1340              	.LFB177:
1579:.\Generated_Source\PSoC4/USBFS_episr.c **** 
1580:.\Generated_Source\PSoC4/USBFS_episr.c ****     /***************************************************************************
1581:.\Generated_Source\PSoC4/USBFS_episr.c ****     * Function Name: USBFS_INTR_MED_ISR
1582:.\Generated_Source\PSoC4/USBFS_episr.c ****     ************************************************************************//**
1583:.\Generated_Source\PSoC4/USBFS_episr.c ****     *
1584:.\Generated_Source\PSoC4/USBFS_episr.c ****     *   Interrupt Service Routine for the medium group of the interrupt sources.
1585:.\Generated_Source\PSoC4/USBFS_episr.c ****     *
1586:.\Generated_Source\PSoC4/USBFS_episr.c ****     *
1587:.\Generated_Source\PSoC4/USBFS_episr.c ****     ***************************************************************************/
1588:.\Generated_Source\PSoC4/USBFS_episr.c ****     CY_ISR(USBFS_INTR_MED_ISR)
1589:.\Generated_Source\PSoC4/USBFS_episr.c ****     {
 1341              		.loc 1 1589 0
 1342              		.cfi_startproc
 1343 0000 38B5     		push	{r3, r4, r5, lr}
 1344              		.cfi_def_cfa_offset 16
 1345              		.cfi_offset 3, -16
 1346              		.cfi_offset 4, -12
 1347              		.cfi_offset 5, -8
 1348              		.cfi_offset 14, -4
1590:.\Generated_Source\PSoC4/USBFS_episr.c ****        USBFS_IntrHandler(USBFS_INTR_CAUSE_MED_REG);
 1349              		.loc 1 1590 0
 1350 0002 0D4B     		ldr	r3, .L91
 1351 0004 1D68     		ldr	r5, [r3]
 1352              	.LVL64:
 1353              	.LBB9:
 1354              	.LBB10:
1543:.\Generated_Source\PSoC4/USBFS_episr.c ****         {
 1355              		.loc 1 1543 0
 1356 0006 2B06     		lsl	r3, r5, #24
 1357 0008 01D5     		bpl	.L87
1545:.\Generated_Source\PSoC4/USBFS_episr.c ****         }
 1358              		.loc 1 1545 0
 1359 000a FFF7FEFF 		bl	USBFS_ARB_ISR
 1360              	.LVL65:
 1361              	.L87:
1549:.\Generated_Source\PSoC4/USBFS_episr.c ****                     ((intrCause & USBFS_INTR_CAUSE_EP1_8_INTR_MASK) >>
 1362              		.loc 1 1549 0
 1363 000e 0F24     		mov	r4, #15
 1364 0010 2C40     		and	r4, r5
1550:.\Generated_Source\PSoC4/USBFS_episr.c ****                                   USBFS_INTR_CAUSE_EP_INTR_SHIFT);
 1365              		.loc 1 1550 0
 1366 0012 FF23     		mov	r3, #255
 1367 0014 1B02     		lsl	r3, r3, #8
 1368 0016 2B40     		and	r3, r5
 1369 0018 DB08     		lsr	r3, r3, #3
1549:.\Generated_Source\PSoC4/USBFS_episr.c ****                     ((intrCause & USBFS_INTR_CAUSE_EP1_8_INTR_MASK) >>
 1370              		.loc 1 1549 0
 1371 001a 1C43     		orr	r4, r3
 1372              	.LVL66:
1540:.\Generated_Source\PSoC4/USBFS_episr.c **** 
 1373              		.loc 1 1540 0
 1374 001c 0025     		mov	r5, #0
 1375 001e 07E0     		b	.L88
 1376              	.LVL67:
 1377              	.L90:
ARM GAS  C:\Users\Terence\AppData\Local\Temp\cc65qyTh.s 			page 54


1556:.\Generated_Source\PSoC4/USBFS_episr.c ****             {
 1378              		.loc 1 1556 0
 1379 0020 E307     		lsl	r3, r4, #31
 1380 0022 03D5     		bpl	.L89
1558:.\Generated_Source\PSoC4/USBFS_episr.c ****             }
 1381              		.loc 1 1558 0
 1382 0024 AB00     		lsl	r3, r5, #2
 1383 0026 054A     		ldr	r2, .L91+4
 1384 0028 9B58     		ldr	r3, [r3, r2]
 1385 002a 9847     		blx	r3
 1386              	.LVL68:
 1387              	.L89:
1561:.\Generated_Source\PSoC4/USBFS_episr.c ****             ++cbIdx;
 1388              		.loc 1 1561 0
 1389 002c 6408     		lsr	r4, r4, #1
 1390              	.LVL69:
1562:.\Generated_Source\PSoC4/USBFS_episr.c ****         }
 1391              		.loc 1 1562 0
 1392 002e 0135     		add	r5, r5, #1
 1393              	.LVL70:
 1394              	.L88:
1554:.\Generated_Source\PSoC4/USBFS_episr.c ****         {
 1395              		.loc 1 1554 0
 1396 0030 002C     		cmp	r4, #0
 1397 0032 F5D1     		bne	.L90
 1398              	.LBE10:
 1399              	.LBE9:
1591:.\Generated_Source\PSoC4/USBFS_episr.c ****     }
 1400              		.loc 1 1591 0
 1401              		@ sp needed
 1402              	.LVL71:
 1403              	.LVL72:
 1404 0034 38BD     		pop	{r3, r4, r5, pc}
 1405              	.L92:
 1406 0036 C046     		.align	2
 1407              	.L91:
 1408 0038 38202C40 		.word	1076633656
 1409 003c 00000000 		.word	.LANCHOR0
 1410              		.cfi_endproc
 1411              	.LFE177:
 1412              		.size	USBFS_INTR_MED_ISR, .-USBFS_INTR_MED_ISR
 1413              		.section	.text.USBFS_INTR_LO_ISR,"ax",%progbits
 1414              		.align	2
 1415              		.global	USBFS_INTR_LO_ISR
 1416              		.code	16
 1417              		.thumb_func
 1418              		.type	USBFS_INTR_LO_ISR, %function
 1419              	USBFS_INTR_LO_ISR:
 1420              	.LFB178:
1592:.\Generated_Source\PSoC4/USBFS_episr.c **** 
1593:.\Generated_Source\PSoC4/USBFS_episr.c ****     /***************************************************************************
1594:.\Generated_Source\PSoC4/USBFS_episr.c ****     * Function Name: USBFS_INTR_LO_ISR
1595:.\Generated_Source\PSoC4/USBFS_episr.c ****     ************************************************************************//**
1596:.\Generated_Source\PSoC4/USBFS_episr.c ****     *
1597:.\Generated_Source\PSoC4/USBFS_episr.c ****     *   Interrupt Service Routine for the low group of the interrupt sources.
1598:.\Generated_Source\PSoC4/USBFS_episr.c ****     *
1599:.\Generated_Source\PSoC4/USBFS_episr.c ****     *
ARM GAS  C:\Users\Terence\AppData\Local\Temp\cc65qyTh.s 			page 55


1600:.\Generated_Source\PSoC4/USBFS_episr.c ****     ***************************************************************************/
1601:.\Generated_Source\PSoC4/USBFS_episr.c ****     CY_ISR(USBFS_INTR_LO_ISR)
1602:.\Generated_Source\PSoC4/USBFS_episr.c ****     {
 1421              		.loc 1 1602 0
 1422              		.cfi_startproc
 1423 0000 38B5     		push	{r3, r4, r5, lr}
 1424              		.cfi_def_cfa_offset 16
 1425              		.cfi_offset 3, -16
 1426              		.cfi_offset 4, -12
 1427              		.cfi_offset 5, -8
 1428              		.cfi_offset 14, -4
1603:.\Generated_Source\PSoC4/USBFS_episr.c ****         USBFS_IntrHandler(USBFS_INTR_CAUSE_LO_REG);
 1429              		.loc 1 1603 0
 1430 0002 0D4B     		ldr	r3, .L98
 1431 0004 1D68     		ldr	r5, [r3]
 1432              	.LVL73:
 1433              	.LBB13:
 1434              	.LBB14:
1543:.\Generated_Source\PSoC4/USBFS_episr.c ****         {
 1435              		.loc 1 1543 0
 1436 0006 2B06     		lsl	r3, r5, #24
 1437 0008 01D5     		bpl	.L94
1545:.\Generated_Source\PSoC4/USBFS_episr.c ****         }
 1438              		.loc 1 1545 0
 1439 000a FFF7FEFF 		bl	USBFS_ARB_ISR
 1440              	.LVL74:
 1441              	.L94:
1549:.\Generated_Source\PSoC4/USBFS_episr.c ****                     ((intrCause & USBFS_INTR_CAUSE_EP1_8_INTR_MASK) >>
 1442              		.loc 1 1549 0
 1443 000e 0F24     		mov	r4, #15
 1444 0010 2C40     		and	r4, r5
1550:.\Generated_Source\PSoC4/USBFS_episr.c ****                                   USBFS_INTR_CAUSE_EP_INTR_SHIFT);
 1445              		.loc 1 1550 0
 1446 0012 FF23     		mov	r3, #255
 1447 0014 1B02     		lsl	r3, r3, #8
 1448 0016 2B40     		and	r3, r5
 1449 0018 DB08     		lsr	r3, r3, #3
1549:.\Generated_Source\PSoC4/USBFS_episr.c ****                     ((intrCause & USBFS_INTR_CAUSE_EP1_8_INTR_MASK) >>
 1450              		.loc 1 1549 0
 1451 001a 1C43     		orr	r4, r3
 1452              	.LVL75:
1540:.\Generated_Source\PSoC4/USBFS_episr.c **** 
 1453              		.loc 1 1540 0
 1454 001c 0025     		mov	r5, #0
 1455 001e 07E0     		b	.L95
 1456              	.LVL76:
 1457              	.L97:
1556:.\Generated_Source\PSoC4/USBFS_episr.c ****             {
 1458              		.loc 1 1556 0
 1459 0020 E307     		lsl	r3, r4, #31
 1460 0022 03D5     		bpl	.L96
1558:.\Generated_Source\PSoC4/USBFS_episr.c ****             }
 1461              		.loc 1 1558 0
 1462 0024 AB00     		lsl	r3, r5, #2
 1463 0026 054A     		ldr	r2, .L98+4
 1464 0028 9B58     		ldr	r3, [r3, r2]
 1465 002a 9847     		blx	r3
ARM GAS  C:\Users\Terence\AppData\Local\Temp\cc65qyTh.s 			page 56


 1466              	.LVL77:
 1467              	.L96:
1561:.\Generated_Source\PSoC4/USBFS_episr.c ****             ++cbIdx;
 1468              		.loc 1 1561 0
 1469 002c 6408     		lsr	r4, r4, #1
 1470              	.LVL78:
1562:.\Generated_Source\PSoC4/USBFS_episr.c ****         }
 1471              		.loc 1 1562 0
 1472 002e 0135     		add	r5, r5, #1
 1473              	.LVL79:
 1474              	.L95:
1554:.\Generated_Source\PSoC4/USBFS_episr.c ****         {
 1475              		.loc 1 1554 0
 1476 0030 002C     		cmp	r4, #0
 1477 0032 F5D1     		bne	.L97
 1478              	.LBE14:
 1479              	.LBE13:
1604:.\Generated_Source\PSoC4/USBFS_episr.c ****     }
 1480              		.loc 1 1604 0
 1481              		@ sp needed
 1482              	.LVL80:
 1483              	.LVL81:
 1484 0034 38BD     		pop	{r3, r4, r5, pc}
 1485              	.L99:
 1486 0036 C046     		.align	2
 1487              	.L98:
 1488 0038 3C202C40 		.word	1076633660
 1489 003c 00000000 		.word	.LANCHOR0
 1490              		.cfi_endproc
 1491              	.LFE178:
 1492              		.size	USBFS_INTR_LO_ISR, .-USBFS_INTR_LO_ISR
 1493              		.section	.rodata
 1494              		.align	2
 1495              		.set	.LANCHOR0,. + 0
 1496              		.type	USBFS_isrCallbacks.6238, %object
 1497              		.size	USBFS_isrCallbacks.6238, 52
 1498              	USBFS_isrCallbacks.6238:
 1499 0000 00000000 		.word	USBFS_SOF_ISR
 1500 0004 00000000 		.word	USBFS_BUS_RESET_ISR
 1501 0008 00000000 		.word	USBFS_EP_0_ISR
 1502 000c 00000000 		.word	0
 1503 0010 00000000 		.word	USBFS_ARB_ISR
 1504 0014 00000000 		.word	USBFS_EP_1_ISR
 1505 0018 00000000 		.word	USBFS_EP_2_ISR
 1506 001c 00000000 		.word	USBFS_EP_3_ISR
 1507 0020 00000000 		.word	USBFS_EP_4_ISR
 1508 0024 00000000 		.word	0
 1509 0028 00000000 		.word	USBFS_EP_6_ISR
 1510 002c 00000000 		.word	0
 1511 0030 00000000 		.word	0
 1512              		.text
 1513              	.Letext0:
 1514              		.file 2 ".\\Generated_Source\\PSoC4\\cytypes.h"
 1515              		.file 3 ".\\Generated_Source\\PSoC4\\USBFS.h"
 1516              		.file 4 "Generated_Source\\PSoC4/CyDMA.h"
 1517              		.file 5 ".\\Generated_Source\\PSoC4\\USBFS_pvt.h"
 1518              		.file 6 "./cyapicallbacks.h"
ARM GAS  C:\Users\Terence\AppData\Local\Temp\cc65qyTh.s 			page 57

